(dp0
I0
(lp1
(S'it'
p2
S'O'
p3
F0.9888
tp4
a(S's'
p5
S'V'
p6
F0.585
tp7
a(S'not'
p8
S'R'
p9
F0.9949
tp10
a(S'gonna'
p11
g6
F0.9967
tp12
a(S'talk'
p13
g6
F0.9933
tp14
a(S'd'
p15
S'^'
p16
F0.5188
tp17
a(S'is'
p18
g6
F0.9781
tp19
a(S'is'
p20
g6
F0.9509
tp21
a(S'is'
p22
g6
F0.9924
tp23
a(S'there'
p24
g9
F0.5232
tp25
a(S'blinkin'
p26
S'A'
p27
F0.4161
tp28
a(S'g'
p29
S'N'
p30
F0.6119
tp31
a(S'too'
p32
g9
F0.9453
tp33
asI1
(lp34
(S'that'
p35
g3
F0.473
tp36
a(g5
g6
F0.5617
tp37
a(S'there'
p38
g9
F0.4875
tp39
a(S'blinkin'
p40
g27
F0.4113
tp41
a(g29
g30
F0.376
tp42
asI2
(lp43
(S'and'
p44
S'&'
p45
F0.9979
tp46
a(S'is'
p47
g6
F0.9991
tp48
a(S'off'
p49
g9
F0.3124
tp50
asI3
(lp51
(S'xxx'
p52
S'E'
p53
F0.4357
tp54
a(S'off'
p55
S'T'
p56
F0.4408
tp57
asI4
(lp58
(S'that'
p59
g3
F0.9111
tp60
a(S'is'
p61
g6
F0.9998
tp62
a(S'off'
p63
g9
F0.3124
tp64
asI5
(lp65
(S'zzz'
p66
S'!'
p67
F0.361
tp68
asI6
(lp69
(S'xxx'
p70
g53
F0.8437
tp71
asI7
(lp72
(S'xxx'
p73
g53
F0.8437
tp74
asI8
(lp75
(S'daddy'
p76
g30
F0.9607
tp77
a(S'look'
p78
g6
F0.9749
tp79
a(S'this'
p80
g3
F0.9283
tp81
a(S'off'
p82
g56
F0.885
tp83
asI9
(lp84
(S'zzz'
p85
g67
F0.361
tp86
asI10
(lp87
(S'xxx'
p88
g53
F0.8437
tp89
asI11
(lp90
(S'off'
p91
g56
F0.4522
tp92
asI12
(lp93
(S'off'
p94
g56
F0.4522
tp95
asI13
(lp96
(S'off'
p97
g56
F0.4522
tp98
asI14
(lp99
(S'off'
p100
g56
F0.39
tp101
a(S'off'
p102
g56
F0.3694
tp103
a(S'off'
p104
g56
F0.469
tp105
a(S'off'
p106
g56
F0.391
tp107
asI15
(lp108
(S'daddy'
p109
g30
F0.9718
tp110
a(S'look'
p111
g6
F0.9902
tp112
a(S'it'
p113
g3
F0.996
tp114
asI16
(lp115
(S'off'
p116
g56
F0.39
tp117
a(S'off'
p118
g56
F0.3694
tp119
a(S'off'
p120
g56
F0.469
tp121
a(S'off'
p122
g56
F0.391
tp123
asI17
(lp124
(S'zzz'
p125
g67
F0.361
tp126
asI18
(lp127
(S'okay'
p128
g67
F0.9552
tp129
a(S'aimee'
p130
g16
F0.9331
tp131
asI19
(lp132
(S'okay'
p133
g67
F0.9857
tp134
asI20
(lp135
(S'go'
p136
g6
F0.9568
tp137
a(S'sit'
p138
g6
F0.9769
tp139
a(S'down'
p140
g56
F0.9538
tp141
asI21
(lp142
(S'it'
p143
g3
F0.9888
tp144
a(g5
g6
F0.4021
tp145
a(S'supper'
p146
g30
F0.8746
tp147
a(S'time'
p148
g30
F0.9985
tp149
asI22
(lp150
(S'off'
p151
g56
F0.39
tp152
a(S'off'
p153
S'P'
p154
F0.3454
tp155
a(S'off'
p156
g56
F0.4881
tp157
a(S'off'
p158
g9
F0.3337
tp159
a(S'off'
p160
g9
F0.4682
tp161
asI23
(lp162
(S'okay'
p163
g67
F0.9121
tp164
a(S'aimee'
p165
g16
F0.9339
tp166
a(S'that'
p167
g3
F0.5237
tp168
a(g5
S'G'
p169
F0.4864
tp170
a(S'enough'
p171
g9
F0.4561
tp172
asI24
(lp173
(S'oin'
p174
g154
F0.4922
tp175
a(S'wp'
p176
g16
F0.3975
tp177
a(S'oin'
p178
g154
F0.6306
tp179
a(S'wp'
p180
g30
F0.4088
tp181
a(S'oin'
p182
g154
F0.7388
tp183
a(S'wp'
p184
g16
F0.4359
tp185
asI25
(lp186
(S'aimee'
p187
g16
F0.9177
tp188
a(S'that'
p189
g154
F0.4535
tp190
a(g5
g169
F0.4986
tp191
a(S'enough'
p192
g27
F0.4527
tp193
asI26
(lp194
(S'okay'
p195
g67
F0.9857
tp196
asI27
(lp197
(S'zzz'
p198
g67
F0.361
tp199
asI28
(lp200
(S'i'
p201
g3
F0.953
tp202
a(S'm'
p203
g6
F0.9629
tp204
a(S'gonna'
p205
g6
F0.9948
tp206
a(S'put'
p207
g6
F0.9991
tp208
a(S'the'
p209
S'D'
p210
F0.9998
tp211
a(S'pots'
p212
g30
F0.9956
tp213
a(S'down'
p214
g9
F0.4515
tp215
asI29
(lp216
(S'huh'
p217
g67
F0.993
tp218
asI30
(lp219
(S'zzz'
p220
g67
F0.361
tp221
asI31
(lp222
(S'that'
p223
g210
F0.8322
tp224
a(S'blouse'
p225
g30
F0.9954
tp226
a(S'is'
p227
g6
F0.9966
tp228
a(S'dirty'
p229
g27
F0.9782
tp230
asI32
(lp231
(S'you'
p232
g3
F0.9926
tp233
a(S'don'
p234
g6
F0.8675
tp235
a(S't'
p236
g30
F0.2964
tp237
a(S'need'
p238
g6
F0.9971
tp239
a(S'it'
p240
g3
F0.9778
tp241
asI33
(lp242
(S'don'
p243
g16
F0.5427
tp244
a(g236
g16
F0.4522
tp245
a(S'put'
p246
g6
F0.994
tp247
a(S'it'
p248
g3
F0.9692
tp249
a(S'on'
p250
g56
F0.5641
tp251
asI34
(lp252
(S'you'
p253
g3
F0.9926
tp254
a(S'don'
p255
g6
F0.8675
tp256
a(g236
g30
F0.2376
tp257
a(S'need'
p258
g6
F0.9903
tp259
a(S'to'
p260
g154
F0.9875
tp261
a(S'put'
p262
g6
F0.9996
tp263
a(S'it'
p264
g3
F0.9731
tp265
a(S'on'
p266
g154
F0.6193
tp267
asI35
(lp268
(S'go'
p269
g6
F0.9943
tp270
a(S'out'
p271
g56
F0.5321
tp272
a(S'and'
p273
g45
F0.9948
tp274
a(S'put'
p275
g6
F0.9962
tp276
a(S'it'
p277
g3
F0.9831
tp278
a(S'in'
p279
g154
F0.9789
tp280
a(S'the'
p281
g210
F0.999
tp282
a(S'drawer'
p283
g30
F0.9969
tp284
asI36
(lp285
(S'mommy'
p286
g30
F0.4894
tp287
a(S'right'
p288
g9
F0.7291
tp289
a(S'here'
p290
g9
F0.9437
tp291
a(S'is'
p292
g6
F0.9336
tp293
a(S'dirty'
p294
g27
F0.9745
tp295
asI37
(lp296
(S'daba'
p297
g67
F0.5215
tp298
a(S'b'
p299
g6
F0.4234
tp300
asI38
(lp301
(S'zzz'
p302
g67
F0.361
tp303
asI39
(lp304
(S'mommy'
p305
g30
F0.5169
tp306
a(S'look'
p307
g6
F0.9935
tp308
a(S'it'
p309
g3
F0.9976
tp310
a(S'over'
p311
g154
F0.6797
tp312
a(S'here'
p313
g9
F0.9577
tp314
asI40
(lp315
(S'zzz'
p316
g67
F0.361
tp317
asI41
(lp318
(S'that'
p319
g3
F0.473
tp320
a(g5
g6
F0.6307
tp321
a(S'because'
p322
g154
F0.9977
tp323
a(S'you'
p324
g3
F0.9997
tp325
a(S'went'
p326
g6
F0.9991
tp327
a(S'to'
p328
g154
F0.9848
tp329
a(S'school'
p330
g30
F0.854
tp331
a(S'with'
p332
g154
F0.9998
tp333
a(S'it'
p334
g3
F0.9971
tp335
asI42
(lp336
(S'xxx'
p337
g53
F0.6446
tp338
a(S'dirty'
p339
g27
F0.962
tp340
asI43
(lp341
(S'zzz'
p342
g67
F0.361
tp343
asI44
(lp344
(g201
g3
F0.9756
tp345
a(S'didn'
p346
g6
F0.99
tp347
a(g236
g6
F0.7779
tp348
a(S'fall'
p349
g6
F0.5283
tp350
asI45
(lp351
(g201
g3
F0.9756
tp352
a(S'didn'
p353
g6
F0.9919
tp354
a(g236
g6
F0.8046
tp355
a(S'fall'
p356
g6
F0.7481
tp357
a(S'in'
p358
g154
F0.9336
tp359
a(S'it'
p360
g3
F0.9961
tp361
asI46
(lp362
(S'zzz'
p363
g67
F0.361
tp364
asI47
(lp365
(S'xxx'
p366
g53
F0.7233
tp367
a(S'didn'
p368
g6
F0.8041
tp369
a(g236
g6
F0.8046
tp370
a(S'fall'
p371
g6
F0.7481
tp372
a(S'in'
p373
g154
F0.9336
tp374
a(S'it'
p375
g3
F0.9961
tp376
asI48
(lp377
(S'zzz'
p378
g67
F0.361
tp379
asI49
(lp380
(S'xxx'
p381
g53
F0.5437
tp382
a(S'my'
p383
g210
F0.859
tp384
a(S'xxx'
p385
g30
F0.6853
tp386
asI50
(lp387
(S'xxx'
p388
g53
F0.8437
tp389
asI51
(lp390
(S'xxx'
p391
g53
F0.8437
tp392
asI52
(lp393
(S'xxx'
p394
g53
F0.8437
tp395
asI53
(lp396
(S'zzz'
p397
g67
F0.361
tp398
asI54
(lp399
(S'happy'
p400
g27
F0.9568
tp401
a(S'bir'
p402
g30
F0.4452
tp403
a(S'thday'
p404
g30
F0.6601
tp405
a(S'xxx'
p406
g53
F0.6951
tp407
asI55
(lp408
(S'zzz'
p409
g67
F0.361
tp410
asI56
(lp411
(S'0'
p412
S'$'
p413
F0.9638
tp414
asI57
(lp415
(S'aimee'
p416
g16
F0.9208
tp417
asI58
(lp418
(S'zzz'
p419
g67
F0.361
tp420
asI59
(lp421
(g412
g413
F0.9638
tp422
asI60
(lp423
(S'zzz'
p424
g67
F0.361
tp425
asI61
(lp426
(S'happy'
p427
g27
F0.9949
tp428
a(S'birthday'
p429
g30
F0.9957
tp430
a(S'to'
p431
g154
F0.9995
tp432
a(S'you'
p433
g3
F0.9982
tp434
asI62
(lp435
(S'zzz'
p436
g67
F0.361
tp437
asI63
(lp438
(S'zzz'
p439
g67
F0.361
tp440
asI64
(lp441
(S'happy'
p442
g27
F0.9949
tp443
a(S'birthday'
p444
g30
F0.9957
tp445
a(S'to'
p446
g154
F0.9995
tp447
a(S'you'
p448
g3
F0.9982
tp449
asI65
(lp450
(S'happy'
p451
g27
F0.9949
tp452
a(S'birthday'
p453
g30
F0.9957
tp454
a(S'to'
p455
g154
F0.9995
tp456
a(S'you'
p457
g3
F0.9982
tp458
asI66
(lp459
(S'how'
p460
g9
F0.9856
tp461
a(S'old'
p462
g27
F0.998
tp463
a(S'are'
p464
g6
F0.9296
tp465
a(S'you'
p466
g3
F0.9994
tp467
a(S'now'
p468
g9
F0.9969
tp469
asI67
(lp470
(S'how'
p471
g9
F0.9856
tp472
a(S'old'
p473
g27
F0.998
tp474
a(S'are'
p475
g6
F0.9296
tp476
a(S'you'
p477
g3
F0.9994
tp478
a(S'now'
p479
g9
F0.9969
tp480
asI68
(lp481
(S'how'
p482
g9
F0.9856
tp483
a(S'old'
p484
g27
F0.998
tp485
a(S'are'
p486
g6
F0.9296
tp487
a(S'you'
p488
g3
F0.9994
tp489
a(S'now'
p490
g9
F0.9969
tp491
asI69
(lp492
(S'know'
p493
g6
F0.9285
tp494
asI70
(lp495
(S'wan'
p496
g27
F0.4967
tp497
a(g236
g169
F0.3692
tp498
a(g236
g169
F0.7953
tp499
a(S'a'
p500
g210
F0.8389
tp501
a(S'say'
p502
g6
F0.6649
tp503
a(S'my'
p504
g210
F0.9978
tp505
a(S'prayers'
p506
g30
F0.9952
tp507
asI71
(lp508
(g201
g3
F0.9908
tp509
a(S'know'
p510
g6
F0.999
tp511
a(S'h'
p512
g169
F0.349
tp513
a(S'ow'
p514
g67
F0.6864
tp515
a(g201
g3
F0.9783
tp516
a(g201
g3
F0.7247
tp517
a(S'daddy'
p518
g30
F0.8464
tp519
a(g201
g3
F0.9672
tp520
a(S'know'
p521
g6
F0.9999
tp522
a(S'it'
p523
g3
F0.9858
tp524
asI72
(lp525
(S'xxx'
p526
g53
F0.8437
tp527
asI73
(lp528
(S'xxx'
p529
g53
F0.8437
tp530
asI74
(lp531
(S'zzz'
p532
g67
F0.361
tp533
asI75
(lp534
(S'our'
p535
g210
F0.9917
tp536
a(S'father'
p537
g30
F0.9931
tp538
a(S'in'
p539
g154
F0.9978
tp540
a(S'heaven'
p541
g16
F0.8993
tp542
a(S'xxx'
p543
g53
F0.7593
tp544
a(S'amen'
p545
g67
F0.8362
tp546
asI76
(lp547
(S'oh'
p548
g67
F0.9978
tp549
a(S'that'
p550
g3
F0.6408
tp551
a(g5
g6
F0.4867
tp552
a(S'good'
p553
g27
F0.9933
tp554
asI77
(lp555
(S'you'
p556
g3
F0.9969
tp557
a(S'can'
p558
g6
F0.9997
tp559
a(S'say'
p560
g6
F0.9998
tp561
a(S'your'
p562
g210
F0.9896
tp563
a(S'prayers'
p564
g30
F0.9864
tp565
a(S'real'
p566
g9
F0.6313
tp567
a(S'good'
p568
g27
F0.9995
tp569
asI78
(lp570
(g201
g3
F0.9873
tp571
a(S'can'
p572
g6
F0.9998
tp573
a(S'say'
p574
g6
F0.9994
tp575
a(S'that'
p576
g3
F0.7647
tp577
asI79
(lp578
(g201
g3
F0.872
tp579
a(S'pledge'
p580
g6
F0.901
tp581
a(S'allegiance'
p582
g30
F0.9836
tp583
a(S'to'
p584
g154
F0.9997
tp585
a(S'the'
p586
g210
F0.9991
tp587
a(S'flag'
p588
g30
F0.9993
tp589
a(S'of'
p590
g154
F0.9995
tp591
a(S'the'
p592
g210
F0.997
tp593
a(S'united'
p594
g27
F0.5372
tp595
a(S'states'
p596
g30
F0.9998
tp597
a(S'of'
p598
g154
F0.9987
tp599
a(S'america'
p600
g16
F0.9976
tp601
a(S'and'
p602
g45
F0.9968
tp603
a(S'to'
p604
g154
F0.9948
tp605
a(S'the'
p606
g210
F0.998
tp607
a(S'republic'
p608
g30
F0.931
tp609
a(S'for'
p610
g154
F0.9999
tp611
a(S'which'
p612
g210
F0.7381
tp613
a(S'it'
p614
g3
F0.9968
tp615
a(S'stands'
p616
g6
F0.9886
tp617
a(S'one'
p618
g413
F0.9097
tp619
a(S'nation'
p620
g30
F0.9993
tp621
a(S'under'
p622
g154
F0.9971
tp623
a(S'god'
p624
g16
F0.8845
tp625
asI80
(lp626
(S'elizabeth'
p627
g16
F0.9076
tp628
a(S'what'
p629
g3
F0.9885
tp630
a(S'happened'
p631
g6
F0.9935
tp632
asI81
(lp633
(S'with'
p634
g154
F0.9902
tp635
a(S'liberty'
p636
g30
F0.8916
tp637
a(S'and'
p638
g45
F0.9975
tp639
a(S'justice'
p640
g30
F0.926
tp641
a(S'for'
p642
g154
F0.9998
tp643
a(S'all'
p644
g210
F0.9
tp645
asI82
(lp646
(S'elizabeth'
p647
g16
F0.8888
tp648
asI83
(lp649
(S'xxx'
p650
g53
F0.8437
tp651
asI84
(lp652
(S'elizabeth'
p653
g16
F0.8888
tp654
asI85
(lp655
(S'mommy'
p656
g30
F0.6334
tp657
a(S'look'
p658
g6
F0.9272
tp659
asI86
(lp660
(S'mommy'
p661
g30
F0.6334
tp662
a(S'look'
p663
g6
F0.9272
tp664
asI87
(lp665
(g201
g3
F0.9563
tp666
a(S'xxx'
p667
g53
F0.4706
tp668
a(S'okay'
p669
g67
F0.8815
tp670
asI88
(lp671
(S'zzz'
p672
g67
F0.361
tp673
asI89
(lp674
(S'pledge'
p675
g30
F0.9114
tp676
a(S'alle'
p677
g30
F0.8765
tp678
a(S'giance'
p679
g6
F0.2381
tp680
asI90
(lp681
(S'mommy'
p682
g30
F0.667
tp683
a(S'hear'
p684
g6
F0.9869
tp685
a(S'this'
p686
g210
F0.9698
tp687
a(S'one'
p688
g413
F0.7394
tp689
asI91
(lp690
(S'mommy'
p691
g30
F0.667
tp692
a(S'hear'
p693
g6
F0.9869
tp694
a(S'this'
p695
g210
F0.9698
tp696
a(S'one'
p697
g413
F0.7394
tp698
asI92
(lp699
(S'uhhuh'
p700
g67
F0.9892
tp701
asI93
(lp702
(g201
g3
F0.872
tp703
a(S'pledge'
p704
g6
F0.901
tp705
a(S'allegiance'
p706
g30
F0.9836
tp707
a(S'to'
p708
g154
F0.9997
tp709
a(S'the'
p710
g210
F0.9991
tp711
a(S'flag'
p712
g30
F0.9993
tp713
a(S'of'
p714
g154
F0.9986
tp715
a(S'united'
p716
g16
F0.5762
tp717
a(S'states'
p718
g30
F0.9923
tp719
a(S'of'
p720
g154
F0.9984
tp721
a(S'amer'
p722
g16
F0.6396
tp723
a(S'ica'
p724
g16
F0.7529
tp725
asI94
(lp726
(S'and'
p727
g45
F0.9979
tp728
a(S'to'
p729
g154
F0.9949
tp730
a(S'the'
p731
g210
F0.9976
tp732
a(S'republic'
p733
g30
F0.9221
tp734
a(S'for'
p735
g154
F0.9999
tp736
a(S'which'
p737
g210
F0.7381
tp738
a(S'it'
p739
g3
F0.9968
tp740
a(S'stands'
p741
g6
F0.9886
tp742
a(S'one'
p743
g413
F0.9097
tp744
a(S'nation'
p745
g30
F0.9991
tp746
a(S'under'
p747
g154
F0.9977
tp748
a(S'god'
p749
g16
F0.8942
tp750
a(S'indivisible'
p751
g27
F0.7089
tp752
a(S'and'
p753
g45
F0.997
tp754
a(S'xxx'
p755
g53
F0.3441
tp756
a(S'justice'
p757
g30
F0.89
tp758
a(S'for'
p759
g154
F0.9998
tp760
a(S'all'
p761
g210
F0.9202
tp762
asI95
(lp763
(S'mm'
p764
g67
F0.627
tp765
asI96
(lp766
(S'mm'
p767
g67
F0.627
tp768
asI97
(lp769
(S'good'
p770
g27
F0.9644
tp771
asI98
(lp772
(S'pretty'
p773
g9
F0.9814
tp774
a(S'good'
p775
g27
F0.9997
tp776
a(S'huh'
p777
g67
F0.8604
tp778
asI99
(lp779
(S'now'
p780
g9
F0.9628
tp781
a(S'what'
p782
g3
F0.9857
tp783
a(S'else'
p784
g9
F0.83
tp785
a(S'you'
p786
g3
F0.9988
tp787
a(S'learn'
p788
g6
F0.9996
tp789
a(S'in'
p790
g154
F0.9697
tp791
a(S'school'
p792
g30
F0.9967
tp793
asI100
(lp794
(S'what'
p795
g3
F0.9798
tp796
a(S'else'
p797
g9
F0.7517
tp798
a(S'you'
p799
g3
F0.9995
tp800
a(S'say'
p801
g6
F0.9976
tp802
a(S'in'
p803
g154
F0.9213
tp804
a(S'school'
p805
g30
F0.997
tp806
asI101
(lp807
(S'say'
p808
g6
F0.9855
tp809
a(g500
g210
F0.9877
tp810
a(S'l'
p811
g30
F0.8065
tp812
a(g299
g6
F0.5084
tp813
a(g811
g169
F0.587
tp814
a(S'c'
p815
g169
F0.8576
tp816
a(g811
g169
F0.8412
tp817
asI102
(lp818
(g500
g210
F0.9634
tp819
a(g811
g30
F0.7763
tp820
a(g299
g6
F0.5011
tp821
a(g811
g169
F0.6126
tp822
a(g815
g169
F0.8584
tp823
a(g811
g169
F0.8713
tp824
asI103
(lp825
(S'e'
p826
g169
F0.5604
tp827
a(g811
g169
F0.9598
tp828
a(S'f'
p829
g169
F0.8794
tp830
a(g811
g169
F0.9461
tp831
a(g29
g169
F0.8522
tp832
a(g811
g169
F0.8112
tp833
asI104
(lp834
(g826
g169
F0.5604
tp835
a(g811
g169
F0.9598
tp836
a(g829
g169
F0.8794
tp837
a(g811
g169
F0.9461
tp838
a(g29
g169
F0.8522
tp839
a(g811
g169
F0.8112
tp840
asI105
(lp841
(g512
g169
F0.562
tp842
a(g811
g169
F0.6933
tp843
a(g201
g3
F0.809
tp844
a(g811
g169
F0.6091
tp845
a(S'j'
p846
g169
F0.8616
tp847
a(g811
g169
F0.8116
tp848
asI106
(lp849
(g512
g169
F0.562
tp850
a(g811
g169
F0.6933
tp851
a(g201
g3
F0.809
tp852
a(g811
g169
F0.6091
tp853
a(g846
g169
F0.8616
tp854
a(g811
g169
F0.8116
tp855
asI107
(lp856
(g811
g169
F0.5906
tp857
a(g811
g169
F0.9274
tp858
a(g203
g169
F0.8003
tp859
a(g811
g169
F0.5028
tp860
a(S'n'
p861
g45
F0.8243
tp862
a(g811
g169
F0.4644
tp863
a(S'o'
p864
g169
F0.5843
tp865
a(g811
g169
F0.9125
tp866
a(S'p'
p867
g169
F0.8673
tp868
a(g811
g169
F0.8808
tp869
asI108
(lp870
(S'zzz'
p871
g67
F0.361
tp872
asI109
(lp873
(g811
g169
F0.5906
tp874
a(g811
g169
F0.9274
tp875
a(g203
g169
F0.8003
tp876
a(g811
g169
F0.5028
tp877
a(g861
g45
F0.8243
tp878
a(g811
g169
F0.4644
tp879
a(g864
g169
F0.5843
tp880
a(g811
g169
F0.9125
tp881
a(g867
g169
F0.8673
tp882
a(g811
g169
F0.8808
tp883
asI110
(lp884
(S'q'
p885
g169
F0.6706
tp886
a(g811
g169
F0.7488
tp887
a(S'r'
p888
g169
F0.6576
tp889
a(g811
g169
F0.8661
tp890
a(g5
g169
F0.9715
tp891
a(g811
g169
F0.6058
tp892
asI111
(lp893
(g885
g169
F0.6706
tp894
a(g811
g169
F0.7488
tp895
a(g888
g169
F0.6576
tp896
a(g811
g169
F0.8661
tp897
a(g5
g169
F0.9715
tp898
a(g811
g169
F0.6058
tp899
asI112
(lp900
(g236
g169
F0.7039
tp901
a(g811
g169
F0.62
tp902
a(S'u'
p903
g3
F0.9778
tp904
a(g811
g169
F0.6889
tp905
a(S'v'
p906
g169
F0.8221
tp907
a(g811
g169
F0.7542
tp908
asI113
(lp909
(g236
g169
F0.7039
tp910
a(g811
g169
F0.62
tp911
a(g903
g3
F0.9778
tp912
a(g811
g169
F0.6889
tp913
a(g906
g169
F0.8221
tp914
a(g811
g169
F0.7542
tp915
asI114
(lp916
(S'w'
p917
g169
F0.4973
tp918
a(g811
g169
F0.8648
tp919
a(S'x'
p920
g169
F0.8762
tp921
a(g811
g169
F0.7855
tp922
asI115
(lp923
(g917
g169
F0.4973
tp924
a(g811
g169
F0.8648
tp925
a(g920
g169
F0.8762
tp926
a(g811
g169
F0.7855
tp927
asI116
(lp928
(S'y'
p929
g9
F0.3984
tp930
a(g811
g30
F0.3292
tp931
a(S'and'
p932
g45
F0.9975
tp933
a(S'z'
p934
g16
F0.6197
tp935
a(g811
g169
F0.3632
tp936
asI117
(lp937
(g929
g9
F0.3984
tp938
a(g811
g30
F0.3292
tp939
a(S'and'
p940
g45
F0.9975
tp941
a(g934
g16
F0.6197
tp942
a(g811
g169
F0.3632
tp943
asI118
(lp944
(S'say'
p945
g6
F0.9945
tp946
a(S'it'
p947
g3
F0.9945
tp948
a(S'over'
p949
g56
F0.6633
tp950
asI119
(lp951
(S'xxx'
p952
g53
F0.6586
tp953
a(S'alphabet'
p954
g30
F0.9761
tp955
asI120
(lp956
(S'over'
p957
g154
F0.6023
tp958
asI121
(lp959
(S'over'
p960
g154
F0.6023
tp961
asI122
(lp962
(S'zzz'
p963
g67
F0.361
tp964
asI123
(lp965
(S'zzz'
p966
g67
F0.361
tp967
asI124
(lp968
(S'mommy'
p969
g30
F0.4836
tp970
a(S'was'
p971
g6
F0.9988
tp972
a(S'that'
p973
g210
F0.9512
tp974
a(S'song'
p975
g30
F0.9988
tp976
a(S'was'
p977
g6
F0.997
tp978
a(S'good'
p979
g27
F0.9957
tp980
asI125
(lp981
(S'zzz'
p982
g67
F0.361
tp983
asI126
(lp984
(S'yeah'
p985
g67
F0.9983
tp986
a(S'that'
p987
g210
F0.6855
tp988
a(S'song'
p989
g30
F0.9988
tp990
a(S'was'
p991
g6
F0.993
tp992
a(S'good'
p993
g27
F0.9944
tp994
asI127
(lp995
(S'how'
p996
g9
F0.9824
tp997
a(S'how'
p998
g9
F0.9993
tp999
a(S'much'
p1000
g9
F0.5273
tp1001
a(S'you'
p1002
g3
F0.9982
tp1003
a(S'can'
p1004
g6
F0.9998
tp1005
a(S'count'
p1006
g6
F0.9962
tp1007
a(S'to'
p1008
g154
F0.9218
tp1009
asI128
(lp1010
(S'can'
p1011
g6
F0.9989
tp1012
a(S'you'
p1013
g3
F0.9988
tp1014
a(S'count'
p1015
g6
F0.9844
tp1016
asI129
(lp1017
(S'no'
p1018
g67
F0.9253
tp1019
asI130
(lp1020
(S'say'
p1021
g6
F0.855
tp1022
asI131
(lp1023
(S'please'
p1024
g6
F0.8246
tp1025
asI132
(lp1026
(S'daddy'
p1027
g30
F0.9527
tp1028
a(S'taking'
p1029
g6
F0.9997
tp1030
a(S'us'
p1031
g3
F0.9825
tp1032
a(S'to'
p1033
g154
F0.9925
tp1034
a(S'zoo'
p1035
g30
F0.4968
tp1036
a(S'tomorrow'
p1037
g30
F0.96
tp1038
asI133
(lp1039
(S'zoo'
p1040
g30
F0.777
tp1041
a(S'tomorrow'
p1042
g30
F0.9727
tp1043
asI134
(lp1044
(S'daddy'
p1045
g30
F0.9527
tp1046
a(S'taking'
p1047
g6
F0.9997
tp1048
a(S'us'
p1049
g3
F0.9825
tp1050
a(S'to'
p1051
g154
F0.9985
tp1052
a(S'the'
p1053
g210
F0.9989
tp1054
a(S'zoo'
p1055
g30
F0.9256
tp1056
a(S'tomorrow'
p1057
g30
F0.9545
tp1058
asI135
(lp1059
(S'stay'
p1060
g6
F0.9632
tp1061
a(S'all'
p1062
g210
F0.995
tp1063
a(S'day'
p1064
g30
F0.997
tp1065
asI136
(lp1066
(S'going'
p1067
g6
F0.9979
tp1068
a(S'to'
p1069
g154
F0.9946
tp1070
a(S'the'
p1071
g210
F0.9989
tp1072
a(S'zoo'
p1073
g30
F0.7792
tp1074
a(S'zoo'
p1075
g30
F0.7135
tp1076
a(S'zoo'
p1077
g30
F0.8679
tp1078
asI137
(lp1079
(S'xxx'
p1080
g53
F0.8437
tp1081
asI138
(lp1082
(S'how'
p1083
g9
F0.9957
tp1084
a(S'about'
p1085
g154
F0.9913
tp1086
a(S'you'
p1087
g3
F0.9994
tp1088
a(S'you'
p1089
g3
F0.9267
tp1090
a(S'you'
p1091
g3
F0.9789
tp1092
asI139
(lp1093
(S'you'
p1094
g3
F0.9968
tp1095
a(S'will'
p1096
g6
F0.9992
tp1097
a(S'come'
p1098
g6
F0.9994
tp1099
a(S'too'
p1100
g9
F0.9909
tp1101
a(S'too'
p1102
g9
F0.9957
tp1103
a(S'too'
p1104
g9
F0.9899
tp1105
asI140
(lp1106
(S'we'
p1107
g3
F0.9959
tp1108
a(S'going'
p1109
g6
F0.9998
tp1110
a(S'to'
p1111
g154
F0.9914
tp1112
a(S'the'
p1113
g210
F0.999
tp1114
a(S'zoo'
p1115
g30
F0.6718
tp1116
a(S'zoo'
p1117
g30
F0.7317
tp1118
a(S'zoo'
p1119
g30
F0.8661
tp1120
asI141
(lp1121
(S'we'
p1122
g3
F0.996
tp1123
a(S'goin'
p1124
g6
F0.9992
tp1125
a(g29
g6
F0.4982
tp1126
a(S'to'
p1127
g154
F0.9978
tp1128
a(S'the'
p1129
g210
F0.999
tp1130
a(S'zoo'
p1131
g30
F0.6798
tp1132
a(S'zoo'
p1133
g30
F0.7239
tp1134
a(S'zoo'
p1135
g30
F0.8649
tp1136
asI142
(lp1137
(S'zoo'
p1138
g30
F0.5136
tp1139
asI143
(lp1140
(S'how'
p1141
g9
F0.9957
tp1142
a(S'about'
p1143
g154
F0.9913
tp1144
a(S'you'
p1145
g3
F0.9994
tp1146
a(S'you'
p1147
g3
F0.9267
tp1148
a(S'you'
p1149
g3
F0.9789
tp1150
asI144
(lp1151
(S'you'
p1152
g3
F0.9968
tp1153
a(S'will'
p1154
g6
F0.9992
tp1155
a(S'come'
p1156
g6
F0.9994
tp1157
a(S'too'
p1158
g9
F0.9909
tp1159
a(S'too'
p1160
g9
F0.9957
tp1161
a(S'too'
p1162
g9
F0.9899
tp1163
asI145
(lp1164
(S'xxx'
p1165
g53
F0.5309
tp1166
a(S'my'
p1167
g210
F0.9849
tp1168
a(S'school'
p1169
g30
F0.9983
tp1170
a(S'teacher'
p1171
g30
F0.9961
tp1172
asI146
(lp1173
(S'xxx'
p1174
g53
F0.8437
tp1175
asI147
(lp1176
(S'xxx'
p1177
g53
F0.8437
tp1178
asI148
(lp1179
(S'we'
p1180
g3
F0.9959
tp1181
a(S'going'
p1182
g6
F0.9998
tp1183
a(S'to'
p1184
g154
F0.9914
tp1185
a(S'the'
p1186
g210
F0.999
tp1187
a(S'zoo'
p1188
g30
F0.6718
tp1189
a(S'zoo'
p1190
g30
F0.7317
tp1191
a(S'zoo'
p1192
g30
F0.8661
tp1193
asI149
(lp1194
(S'xxx'
p1195
g53
F0.8437
tp1196
asI150
(lp1197
(S'xxx'
p1198
g53
F0.8437
tp1199
asI151
(lp1200
(S'daddy'
p1201
g30
F0.9527
tp1202
a(S'taking'
p1203
g6
F0.9997
tp1204
a(S'us'
p1205
g3
F0.9825
tp1206
a(S'to'
p1207
g154
F0.9985
tp1208
a(S'the'
p1209
g210
F0.9989
tp1210
a(S'zoo'
p1211
g30
F0.9256
tp1212
a(S'tomorrow'
p1213
g30
F0.9545
tp1214
asI152
(lp1215
(S'zoo'
p1216
g30
F0.6647
tp1217
a(S'tomorrow'
p1218
g30
F0.9516
tp1219
a(S'zoo'
p1220
g30
F0.917
tp1221
a(S'tomorrow'
p1222
g30
F0.9708
tp1223
asI153
(lp1224
(S'xxx'
p1225
g53
F0.8437
tp1226
asI154
(lp1227
(S'daddy'
p1228
g30
F0.9527
tp1229
a(S'taking'
p1230
g6
F0.9997
tp1231
a(S'us'
p1232
g3
F0.9825
tp1233
a(S'to'
p1234
g154
F0.9985
tp1235
a(S'the'
p1236
g210
F0.9989
tp1237
a(S'zoo'
p1238
g30
F0.9256
tp1239
a(S'tomorrow'
p1240
g30
F0.9545
tp1241
asI155
(lp1242
(S'zzz'
p1243
g67
F0.361
tp1244
asI156
(lp1245
(S'and'
p1246
g45
F0.9991
tp1247
a(S'we'
p1248
g3
F0.9963
tp1249
a(S'stay'
p1250
g6
F0.9985
tp1251
a(S'all'
p1252
g210
F0.9945
tp1253
a(S'day'
p1254
g30
F0.9939
tp1255
asI157
(lp1256
(S'we'
p1257
g3
F0.9959
tp1258
a(S'going'
p1259
g6
F0.9998
tp1260
a(S'to'
p1261
g154
F0.9914
tp1262
a(S'the'
p1263
g210
F0.999
tp1264
a(S'zoo'
p1265
g30
F0.6718
tp1266
a(S'zoo'
p1267
g30
F0.7317
tp1268
a(S'zoo'
p1269
g30
F0.8661
tp1270
asI158
(lp1271
(S'how'
p1272
g9
F0.9957
tp1273
a(S'about'
p1274
g154
F0.9913
tp1275
a(S'you'
p1276
g3
F0.9994
tp1277
a(S'you'
p1278
g3
F0.9267
tp1279
a(S'you'
p1280
g3
F0.9789
tp1281
asI159
(lp1282
(S'xxx'
p1283
g53
F0.8437
tp1284
asI160
(lp1285
(S'you'
p1286
g3
F0.9968
tp1287
a(S'will'
p1288
g6
F0.999
tp1289
a(S'come'
p1290
g6
F0.9992
tp1291
a(S'too'
p1292
g9
F0.9882
tp1293
asI161
(lp1294
(S'hm'
p1295
g67
F0.995
tp1296
asI162
(lp1297
(S'too'
p1298
g9
F0.974
tp1299
a(S'too'
p1300
g9
F0.9115
tp1301
a(S'we'
p1302
g3
F0.9978
tp1303
a(S'going'
p1304
g6
F0.9998
tp1305
a(S'to'
p1306
g154
F0.9948
tp1307
a(S'the'
p1308
g210
F0.999
tp1309
a(S'zoo'
p1310
g30
F0.702
tp1311
a(S'zoo'
p1312
g30
F0.8518
tp1313
a(S'xxx'
p1314
g53
F0.7466
tp1315
asI163
(lp1316
(S'like'
p1317
g154
F0.6302
tp1318
a(S'right'
p1319
g9
F0.7886
tp1320
a(S'now'
p1321
g9
F0.993
tp1322
a(S'xxx'
p1323
g53
F0.8285
tp1324
asI164
(lp1325
(S'uhhuh'
p1326
g67
F0.9892
tp1327
asI165
(lp1328
(S'xxx'
p1329
g53
F0.8437
tp1330
asI166
(lp1331
(S'xxx'
p1332
g53
F0.8437
tp1333
asI167
(lp1334
(S'zzz'
p1335
g67
F0.361
tp1336
asI168
(lp1337
(S'xxx'
p1338
g53
F0.8437
tp1339
asI169
(lp1340
(S'xxx'
p1341
g53
F0.8437
tp1342
asI170
(lp1343
(S'zzz'
p1344
g67
F0.361
tp1345
asI171
(lp1346
(S'xxx'
p1347
g53
F0.6914
tp1348
a(S'we'
p1349
g3
F0.9941
tp1350
a(S'going'
p1351
g6
F0.9999
tp1352
a(S'to'
p1353
g154
F0.9947
tp1354
a(S'the'
p1355
g210
F0.999
tp1356
a(S'zoo'
p1357
g30
F0.7266
tp1358
a(S'zoo'
p1359
g30
F0.7455
tp1360
a(S'zoo'
p1361
g30
F0.7978
tp1362
a(S'how'
p1363
g9
F0.9982
tp1364
a(S'about'
p1365
g154
F0.9879
tp1366
a(S'you'
p1367
g3
F0.9993
tp1368
a(S'you'
p1369
g3
F0.8768
tp1370
a(S'you'
p1371
g3
F0.981
tp1372
asI172
(lp1373
(S'xxx'
p1374
g53
F0.8437
tp1375
asI173
(lp1376
(S'you'
p1377
g3
F0.9968
tp1378
a(S'will'
p1379
g6
F0.9992
tp1380
a(S'come'
p1381
g6
F0.9994
tp1382
a(S'too'
p1383
g9
F0.9906
tp1384
a(S'too'
p1385
g9
F0.993
tp1386
a(S'too'
p1387
g9
F0.9416
tp1388
a(S'we'
p1389
g3
F0.993
tp1390
a(S're'
p1391
g6
F0.6673
tp1392
a(S'going'
p1393
g6
F0.9976
tp1394
a(S'to'
p1395
g154
F0.9948
tp1396
a(S'the'
p1397
g210
F0.999
tp1398
a(S'zoo'
p1399
g30
F0.7511
tp1400
a(S'zoo'
p1401
g30
F0.7433
tp1402
a(S'zoo'
p1403
g30
F0.8843
tp1404
asI174
(lp1405
(S'xxx'
p1406
g53
F0.8437
tp1407
asI175
(lp1408
(S'you'
p1409
g3
F0.9721
tp1410
a(S'better'
p1411
g27
F0.6403
tp1412
a(S'stay'
p1413
g30
F0.7659
tp1414
a(S'off'
p1415
g154
F0.8645
tp1416
a(S'this'
p1417
g210
F0.6715
tp1418
asI176
(lp1419
(S'stay'
p1420
g6
F0.9086
tp1421
a(S'off'
p1422
g56
F0.8114
tp1423
a(S'xxx'
p1424
g53
F0.6448
tp1425
asI177
(lp1426
(S'daddy'
p1427
g30
F0.9527
tp1428
a(S'taking'
p1429
g6
F0.9997
tp1430
a(S'us'
p1431
g3
F0.9825
tp1432
a(S'to'
p1433
g154
F0.9985
tp1434
a(S'the'
p1435
g210
F0.9989
tp1436
a(S'zoo'
p1437
g30
F0.9256
tp1438
a(S'tomorrow'
p1439
g30
F0.9545
tp1440
asI178
(lp1441
(S'zoo'
p1442
g30
F0.777
tp1443
a(S'tomorrow'
p1444
g30
F0.9727
tp1445
asI179
(lp1446
(S'zoo'
p1447
g30
F0.777
tp1448
a(S'tomorrow'
p1449
g30
F0.9727
tp1450
asI180
(lp1451
(S'daddy'
p1452
g30
F0.9527
tp1453
a(S'taking'
p1454
g6
F0.9997
tp1455
a(S'us'
p1456
g3
F0.9825
tp1457
a(S'to'
p1458
g154
F0.9985
tp1459
a(S'the'
p1460
g210
F0.9989
tp1461
a(S'zoo'
p1462
g30
F0.9256
tp1463
a(S'tomorrow'
p1464
g30
F0.9545
tp1465
asI181
(lp1466
(S'xxx'
p1467
g53
F0.6888
tp1468
a(S'stay'
p1469
g6
F0.9778
tp1470
a(S'all'
p1471
g210
F0.9952
tp1472
a(S'day'
p1473
g30
F0.9963
tp1474
asI182
(lp1475
(S'xxx'
p1476
g53
F0.8437
tp1477
asI183
(lp1478
(S'xxx'
p1479
g53
F0.6586
tp1480
a(S'zoo'
p1481
g30
F0.5723
tp1482
a(S'zoo'
p1483
g30
F0.92
tp1484
asI184
(lp1485
(S'xxx'
p1486
g53
F0.8437
tp1487
asI185
(lp1488
(S'how'
p1489
g9
F0.9957
tp1490
a(S'about'
p1491
g154
F0.9913
tp1492
a(S'you'
p1493
g3
F0.9994
tp1494
a(S'you'
p1495
g3
F0.9267
tp1496
a(S'you'
p1497
g3
F0.9789
tp1498
asI186
(lp1499
(S'go'
p1500
g6
F0.9762
tp1501
a(S'away'
p1502
g9
F0.9889
tp1503
asI187
(lp1504
(S'xxx'
p1505
g53
F0.8437
tp1506
asI188
(lp1507
(S'huh'
p1508
g67
F0.993
tp1509
asI189
(lp1510
(S'xxx'
p1511
g53
F0.8437
tp1512
asI190
(lp1513
(S'daddy'
p1514
g30
F0.9527
tp1515
a(S'taking'
p1516
g6
F0.9997
tp1517
a(S'us'
p1518
g3
F0.9825
tp1519
a(S'to'
p1520
g154
F0.9985
tp1521
a(S'the'
p1522
g210
F0.999
tp1523
a(S'zoo'
p1524
g30
F0.9397
tp1525
a(S'tomorrow'
p1526
g30
F0.9405
tp1527
a(S'zoo'
p1528
g30
F0.8602
tp1529
a(S'tomorrow'
p1530
g30
F0.9405
tp1531
a(S'zoo'
p1532
g30
F0.8602
tp1533
a(S'tomorrow'
p1534
g30
F0.9405
tp1535
a(S'zoo'
p1536
g30
F0.8602
tp1537
a(S'tomorrow'
p1538
g30
F0.9447
tp1539
a(S'daddy'
p1540
g30
F0.982
tp1541
a(S'taking'
p1542
g6
F0.9997
tp1543
a(S'us'
p1544
g3
F0.9844
tp1545
a(S'to'
p1546
g154
F0.9985
tp1547
a(S'the'
p1548
g210
F0.999
tp1549
a(S'zoo'
p1550
g30
F0.9531
tp1551
a(S'tomorrow'
p1552
g30
F0.9524
tp1553
asI191
(lp1554
(S'zzz'
p1555
g67
F0.361
tp1556
asI192
(lp1557
(S'zzz'
p1558
g67
F0.361
tp1559
asI193
(lp1560
(S'zzz'
p1561
g67
F0.361
tp1562
asI194
(lp1563
(S'okay'
p1564
g67
F0.9857
tp1565
asI195
(lp1566
(S'zzz'
p1567
g67
F0.361
tp1568
asI196
(lp1569
(S'tutti'
p1570
g16
F0.5768
tp1571
a(S'wp'
p1572
g16
F0.8956
tp1573
a(S'frutti'
p1574
g16
F0.9802
tp1575
a(S'wp'
p1576
g16
F0.5897
tp1577
asI197
(lp1578
(S'mommy'
p1579
g30
F0.6334
tp1580
a(S'look'
p1581
g6
F0.9272
tp1582
asI198
(lp1583
(S'look'
p1584
g6
F0.9901
tp1585
a(S'it'
p1586
g3
F0.9961
tp1587
asI199
(lp1588
(S'tutti'
p1589
g16
F0.5768
tp1590
a(S'wp'
p1591
g16
F0.8956
tp1592
a(S'frutti'
p1593
g16
F0.9802
tp1594
a(S'wp'
p1595
g16
F0.5897
tp1596
asI200
(lp1597
(S'oh'
p1598
g67
F0.9975
tp1599
a(S'lutti'
p1600
g16
F0.5814
tp1601
a(S'wp'
p1602
g16
F0.8281
tp1603
asI201
(lp1604
(S'aloppa'
p1605
g16
F0.444
tp1606
a(S'wp'
p1607
g16
F0.9148
tp1608
a(S'boowa'
p1609
g16
F0.9546
tp1610
a(S'wp'
p1611
g16
F0.7481
tp1612
a(S'poloppaypo'
p1613
g16
F0.671
tp1614
a(S'wp'
p1615
g16
F0.8755
tp1616
asI202
(lp1617
(S'get'
p1618
g6
F0.9983
tp1619
a(S'out'
p1620
g56
F0.7407
tp1621
a(S'my'
p1622
g210
F0.9978
tp1623
a(S'stuff'
p1624
g30
F0.9987
tp1625
asI203
(lp1626
(S'zzz'
p1627
g67
F0.361
tp1628
asI204
(lp1629
(S'what'
p1630
g3
F0.9784
tp1631
a(g5
g6
F0.5975
tp1632
a(S'all'
p1633
g210
F0.5576
tp1634
a(S'this'
p1635
g210
F0.9849
tp1636
a(S'junk'
p1637
g30
F0.9939
tp1638
asI205
(lp1639
(S'zzz'
p1640
g67
F0.361
tp1641
asI206
(lp1642
(S'mommy'
p1643
g30
F0.6354
tp1644
a(S'let'
p1645
g6
F0.944
tp1646
a(g5
g169
F0.3992
tp1647
a(S'get'
p1648
g6
F0.9942
tp1649
a(S'rid'
p1650
g27
F0.8359
tp1651
a(S'of'
p1652
g154
F0.9992
tp1653
a(S'my'
p1654
g210
F0.999
tp1655
a(S'stuff'
p1656
g30
F0.9979
tp1657
asI207
(lp1658
(S'and'
p1659
g45
F0.9983
tp1660
a(S'now'
p1661
g9
F0.9955
tp1662
a(g201
g3
F0.9913
tp1663
a(S'come'
p1664
g6
F0.9998
tp1665
a(S'on'
p1666
g56
F0.6227
tp1667
asI208
(lp1668
(S'zzz'
p1669
g67
F0.361
tp1670
asI209
(lp1671
(g201
g3
F0.9873
tp1672
a(S'can'
p1673
g6
F0.9996
tp1674
a(g236
g6
F0.7034
tp1675
a(S'get'
p1676
g6
F0.9961
tp1677
a(S'rid'
p1678
g27
F0.8359
tp1679
a(S'of'
p1680
g154
F0.9992
tp1681
a(S'my'
p1682
g210
F0.999
tp1683
a(S'stuff'
p1684
g30
F0.9979
tp1685
asI210
(lp1686
(S'oh'
p1687
g67
F0.9966
tp1688
a(S'look'
p1689
g6
F0.7526
tp1690
asI211
(lp1691
(S'oh'
p1692
g67
F0.9936
tp1693
a(S'look'
p1694
g6
F0.9912
tp1695
a(S'it'
p1696
g3
F0.9766
tp1697
a(S'this'
p1698
g210
F0.9728
tp1699
a(S'gold'
p1700
g27
F0.4558
tp1701
asI212
(lp1702
(S'look'
p1703
g6
F0.9916
tp1704
a(S'it'
p1705
g3
F0.9695
tp1706
a(S'this'
p1707
g210
F0.9762
tp1708
a(S'little'
p1709
g27
F0.9719
tp1710
a(S'pretty'
p1711
g27
F0.6957
tp1712
a(S'stuff'
p1713
g30
F0.9933
tp1714
asI213
(lp1715
(S'look'
p1716
g6
F0.9916
tp1717
a(S'it'
p1718
g3
F0.9957
tp1719
a(S'right'
p1720
g9
F0.8777
tp1721
a(S'here'
p1722
g9
F0.9752
tp1723
asI214
(lp1724
(S'pretty'
p1725
g27
F0.5964
tp1726
a(S'stuff'
p1727
g30
F0.9902
tp1728
asI215
(lp1729
(S'zzz'
p1730
g67
F0.361
tp1731
asI216
(lp1732
(S'mommy'
p1733
g30
F0.436
tp1734
a(S'how'
p1735
g9
F0.9764
tp1736
a(S'do'
p1737
g6
F0.9876
tp1738
a(g201
g3
F0.9946
tp1739
a(S'get'
p1740
g6
F0.9998
tp1741
a(S'rid'
p1742
g27
F0.8359
tp1743
a(S'of'
p1744
g154
F0.9993
tp1745
a(S'my'
p1746
g210
F0.9986
tp1747
a(S'stuff'
p1748
g30
F0.9986
tp1749
asI217
(lp1750
(S'mommy'
p1751
g30
F0.4415
tp1752
a(S'mommy'
p1753
g30
F0.8286
tp1754
a(S'we'
p1755
g3
F0.9124
tp1756
a(S'we'
p1757
g3
F0.968
tp1758
a(S'goin'
p1759
g6
F0.9992
tp1760
a(g29
g6
F0.4784
tp1761
a(S'to'
p1762
g154
F0.9979
tp1763
a(S'the'
p1764
g210
F0.999
tp1765
a(S'zoo'
p1766
g30
F0.8223
tp1767
a(S'zoo'
p1768
g30
F0.6064
tp1769
a(S'zoo'
p1770
g30
F0.8893
tp1771
asI218
(lp1772
(S'daddy'
p1773
g30
F0.9527
tp1774
a(S'taking'
p1775
g6
F0.9997
tp1776
a(S'us'
p1777
g3
F0.9825
tp1778
a(S'to'
p1779
g154
F0.9985
tp1780
a(S'the'
p1781
g210
F0.9989
tp1782
a(S'zoo'
p1783
g30
F0.9256
tp1784
a(S'tomorrow'
p1785
g30
F0.9545
tp1786
asI219
(lp1787
(S'zoo'
p1788
g30
F0.777
tp1789
a(S'tomorrow'
p1790
g30
F0.9727
tp1791
asI220
(lp1792
(S'zoo'
p1793
g30
F0.777
tp1794
a(S'tomorrow'
p1795
g30
F0.9727
tp1796
asI221
(lp1797
(S'daddy'
p1798
g30
F0.9685
tp1799
a(S'taking'
p1800
g6
F0.9997
tp1801
a(S'us'
p1802
g3
F0.989
tp1803
asI222
(lp1804
(S'zzz'
p1805
g67
F0.361
tp1806
asI223
(lp1807
(S'you'
p1808
g3
F0.9926
tp1809
a(S'don'
p1810
g6
F0.8675
tp1811
a(g236
g6
F0.3155
tp1812
a(S'think'
p1813
g6
F0.9878
tp1814
a(S'babies'
p1815
g30
F0.9486
tp1816
a(S'can'
p1817
g6
F0.9967
tp1818
a(g236
g6
F0.8363
tp1819
a(S'do'
p1820
g6
F0.9989
tp1821
a(S'it'
p1822
g3
F0.9933
tp1823
asI224
(lp1824
(S'zzz'
p1825
g67
F0.361
tp1826
asI225
(lp1827
(S'zzz'
p1828
g67
F0.361
tp1829
asI226
(lp1830
(S'hurry'
p1831
g6
F0.9546
tp1832
a(S'up'
p1833
g56
F0.9791
tp1834
a(S'aimee'
p1835
g16
F0.9487
tp1836
a(S'hurry'
p1837
g6
F0.542
tp1838
asI227
(lp1839
(S'xxx'
p1840
g53
F0.724
tp1841
a(S'hurry'
p1842
g6
F0.962
tp1843
a(S'up'
p1844
g56
F0.9937
tp1845
asI228
(lp1846
(S'hurry'
p1847
g6
F0.9362
tp1848
a(S'up'
p1849
g56
F0.9791
tp1850
a(S'aimee'
p1851
g16
F0.935
tp1852
asI229
(lp1853
(S'hey'
p1854
g67
F0.9959
tp1855
a(S'look'
p1856
g6
F0.8071
tp1857
asI230
(lp1858
(S'daddy'
p1859
g30
F0.9718
tp1860
a(S'look'
p1861
g6
F0.93
tp1862
asI231
(lp1863
(S'xxx'
p1864
g53
F0.8437
tp1865
asI232
(lp1866
(S'can'
p1867
g6
F0.9755
tp1868
a(g201
g3
F0.9832
tp1869
a(S'get'
p1870
g6
F1.0
tp1871
a(S'some'
p1872
g210
F0.9879
tp1873
a(S'milk'
p1874
g30
F0.9945
tp1875
a(S'please'
p1876
g6
F0.9568
tp1877
asI233
(lp1878
(S'zzz'
p1879
g67
F0.361
tp1880
asI234
(lp1881
(S'mommy'
p1882
g30
F0.5428
tp1883
a(S'can'
p1884
g6
F0.9939
tp1885
a(g201
g3
F0.9822
tp1886
a(S'get'
p1887
g6
F0.9999
tp1888
a(S'some'
p1889
g210
F0.9884
tp1890
a(S'chocolate'
p1891
g30
F0.9608
tp1892
asI235
(lp1893
(S'can'
p1894
g6
F0.9755
tp1895
a(g201
g3
F0.9832
tp1896
a(S'get'
p1897
g6
F1.0
tp1898
a(S'some'
p1899
g210
F0.9888
tp1900
a(S'chocolate'
p1901
g30
F0.9785
tp1902
a(S'too'
p1903
g9
F0.9796
tp1904
a(S'and'
p1905
g45
F0.9948
tp1906
a(S'milk'
p1907
g30
F0.9934
tp1908
a(S'too'
p1909
g9
F0.9402
tp1910
asI236
(lp1911
(S'zzz'
p1912
g67
F0.361
tp1913
asI237
(lp1914
(S'xxx'
p1915
g53
F0.6645
tp1916
a(S'chocolate'
p1917
g30
F0.9062
tp1918
asI238
(lp1919
(S'zzz'
p1920
g67
F0.361
tp1921
asI239
(lp1922
(S'milk'
p1923
g30
F0.9817
tp1924
a(S'and'
p1925
g45
F0.9979
tp1926
a(S'chocolate'
p1927
g30
F0.9778
tp1928
asI240
(lp1929
(S'mommy'
p1930
g30
F0.7607
tp1931
a(g201
g3
F0.9555
tp1932
a(S'want'
p1933
g6
F0.9998
tp1934
a(S'milk'
p1935
g30
F0.9895
tp1936
a(S'and'
p1937
g45
F0.9985
tp1938
a(S'chocolate'
p1939
g30
F0.9626
tp1940
asI241
(lp1941
(S'milk'
p1942
g30
F0.9817
tp1943
a(S'and'
p1944
g45
F0.9979
tp1945
a(S'chocolate'
p1946
g30
F0.9778
tp1947
asI242
(lp1948
(S'and'
p1949
g45
F0.9986
tp1950
a(S'shake'
p1951
g6
F0.9789
tp1952
a(S'good'
p1953
g27
F0.9838
tp1954
a(S'up'
p1955
g56
F0.7358
tp1956
asI243
(lp1957
(S'and'
p1958
g45
F0.9986
tp1959
a(S'shake'
p1960
g6
F0.9966
tp1961
a(S'it'
p1962
g3
F0.9915
tp1963
a(S'up'
p1964
g56
F0.9845
tp1965
asI244
(lp1966
(S'and'
p1967
g45
F0.9985
tp1968
a(S'give'
p1969
g6
F0.9995
tp1970
a(S'me'
p1971
g3
F0.9966
tp1972
a(g500
g210
F0.9923
tp1973
a(S'spoon'
p1974
g30
F0.9934
tp1975
asI245
(lp1976
(S'give'
p1977
g6
F0.9985
tp1978
a(S'me'
p1979
g3
F0.9967
tp1980
a(g500
g210
F0.9919
tp1981
a(S'spoon'
p1982
g30
F0.9958
tp1983
asI246
(lp1984
(S'ya'
p1985
g67
F0.6168
tp1986
a(S'wp'
p1987
g16
F0.3659
tp1988
a(S'hahaha'
p1989
g67
F0.8958
tp1990
a(S'wp'
p1991
g16
F0.2982
tp1992
asI247
(lp1993
(g201
g3
F0.9891
tp1994
a(S'found'
p1995
g6
F0.9999
tp1996
a(S'that'
p1997
g3
F0.8725
tp1998
a(S'now'
p1999
g9
F0.9939
tp2000
asI248
(lp2001
(S'this'
p2002
g3
F0.9526
tp2003
a(S'is'
p2004
g6
F0.9987
tp2005
a(S'the'
p2006
g210
F0.9994
tp2007
a(S'stuff'
p2008
g30
F0.9982
tp2009
asI249
(lp2010
(S'mommy'
p2011
g30
F0.7607
tp2012
a(g201
g3
F0.8265
tp2013
a(g203
g6
F0.9644
tp2014
a(S'gonna'
p2015
g6
F0.9813
tp2016
a(S'spin'
p2017
g6
F0.9988
tp2018
a(S'around'
p2019
g154
F0.4352
tp2020
asI250
(lp2021
(S'mommy'
p2022
g30
F0.7607
tp2023
a(g201
g3
F0.9294
tp2024
a(S'spin'
p2025
g6
F0.9996
tp2026
a(S'around'
p2027
g154
F0.4252
tp2028
asI251
(lp2029
(S'take'
p2030
g6
F0.994
tp2031
a(S'any'
p2032
g210
F0.9588
tp2033
a(S'xxx'
p2034
g30
F0.5072
tp2035
a(S'now'
p2036
g9
F0.9917
tp2037
a(S'because'
p2038
g154
F0.9967
tp2039
a(S'you'
p2040
g3
F0.9978
tp2041
a(S're'
p2042
g6
F0.5665
tp2043
a(S'gonna'
p2044
g6
F0.9875
tp2045
a(S'get'
p2046
g6
F0.9999
tp2047
a(g500
g210
F0.9778
tp2048
a(S'beatin'
p2049
g30
F0.4436
tp2050
a(g29
g30
F0.5077
tp2051
asI252
(lp2052
(S'go'
p2053
g6
F0.9568
tp2054
a(S'sit'
p2055
g6
F0.9769
tp2056
a(S'down'
p2057
g56
F0.9538
tp2058
asI253
(lp2059
(S'huh'
p2060
g67
F0.993
tp2061
asI254
(lp2062
(S'let'
p2063
g6
F0.9975
tp2064
a(S'me'
p2065
g3
F0.9998
tp2066
a(S'do'
p2067
g6
F0.9993
tp2068
a(S'it'
p2069
g3
F0.9918
tp2070
a(S'because'
p2071
g154
F0.9883
tp2072
a(g201
g3
F0.9972
tp2073
a(S'can'
p2074
g6
F0.9998
tp2075
a(S'just'
p2076
g9
F0.9993
tp2077
a(S'see'
p2078
g6
F0.9989
tp2079
a(S'you'
p2080
g3
F0.995
tp2081
a(S'making'
p2082
g6
F0.9999
tp2083
a(g500
g210
F0.9986
tp2084
a(S'whole'
p2085
g27
F0.9498
tp2086
a(S'mess'
p2087
g30
F0.9964
tp2088
a(S'of'
p2089
g154
F0.9988
tp2090
a(S'this'
p2091
g210
F0.9726
tp2092
a(S'whole'
p2093
g27
F0.978
tp2094
a(S'place'
p2095
g30
F0.9936
tp2096
asI255
(lp2097
(S'hey'
p2098
g67
F0.9986
tp2099
asI256
(lp2100
(S'mommy'
p2101
g30
F0.602
tp2102
a(S'xxx'
p2103
g53
F0.6969
tp2104
asI257
(lp2105
(S'xxx'
p2106
g53
F0.6563
tp2107
a(S'have'
p2108
g6
F0.994
tp2109
a(S'no'
p2110
g210
F0.8086
tp2111
a(S'xxx'
p2112
g30
F0.7309
tp2113
asI258
(lp2114
(S'xxx'
p2115
g53
F0.8437
tp2116
asI259
(lp2117
(S'mommy'
p2118
g30
F0.602
tp2119
a(S'xxx'
p2120
g53
F0.6969
tp2121
asI260
(lp2122
(S'zzz'
p2123
g67
F0.361
tp2124
asI261
(lp2125
(S'hey'
p2126
g67
F0.9986
tp2127
asI262
(lp2128
(S'thank'
p2129
g6
F0.9631
tp2130
a(S'you'
p2131
g3
F0.9987
tp2132
asI263
(lp2133
(S'thank'
p2134
g6
F0.9631
tp2135
a(S'you'
p2136
g3
F0.9917
tp2137
a(S'mommy'
p2138
g30
F0.7179
tp2139
asI264
(lp2140
(S'what'
p2141
g3
F0.9784
tp2142
a(g5
g169
F0.5769
tp2143
a(S'so'
p2144
g154
F0.4815
tp2145
a(S'xxx'
p2146
g53
F0.6837
tp2147
asI265
(lp2148
(S'zzz'
p2149
g67
F0.361
tp2150
asI266
(lp2151
(S'why'
p2152
g9
F0.9322
tp2153
a(S'does'
p2154
g6
F0.9974
tp2155
a(S'he'
p2156
g3
F0.999
tp2157
a(S'have'
p2158
g6
F0.9997
tp2159
a(S'to'
p2160
g154
F0.9975
tp2161
a(S'scream'
p2162
g6
F0.9998
tp2163
a(S'like'
p2164
g154
F0.952
tp2165
a(S'this'
p2166
g3
F0.9154
tp2167
asI267
(lp2168
(S'junior'
p2169
g30
F0.7808
tp2170
a(S'please'
p2171
g6
F0.9436
tp2172
asI268
(lp2173
(S'zzz'
p2174
g67
F0.361
tp2175
asI269
(lp2176
(S'xxx'
p2177
g53
F0.7294
tp2178
a(S'mommy'
p2179
g30
F0.6447
tp2180
asI270
(lp2181
(S'xxx'
p2182
g53
F0.8437
tp2183
asI271
(lp2184
(S'zzz'
p2185
g67
F0.361
tp2186
asI272
(lp2187
(S'hey'
p2188
g67
F0.9911
tp2189
a(S'mommy'
p2190
g30
F0.6469
tp2191
a(S'xxx'
p2192
g53
F0.646
tp2193
asI273
(lp2194
(S'xxx'
p2195
g53
F0.8437
tp2196
asI274
(lp2197
(S'do'
p2198
g6
F0.9985
tp2199
a(S'you'
p2200
g3
F0.9996
tp2201
a(S'need'
p2202
g6
F0.9994
tp2203
a(S'some'
p2204
g210
F0.8813
tp2205
a(S'help'
p2206
g30
F0.6489
tp2207
asI275
(lp2208
(S'xxx'
p2209
g53
F0.8437
tp2210
asI276
(lp2211
(S'uh'
p2212
g67
F0.9927
tp2213
asI277
(lp2214
(S'xxx'
p2215
g53
F0.8437
tp2216
asI278
(lp2217
(S'uh'
p2218
g67
F0.9927
tp2219
asI279
(lp2220
(S'xxx'
p2221
g53
F0.8437
tp2222
asI280
(lp2223
(S'zzz'
p2224
g67
F0.361
tp2225
asI281
(lp2226
(S'huh'
p2227
g67
F0.993
tp2228
asI282
(lp2229
(S'huh'
p2230
g67
F0.993
tp2231
asI283
(lp2232
(S'xxx'
p2233
g53
F0.8437
tp2234
asI284
(lp2235
(S'zzz'
p2236
g67
F0.361
tp2237
asI285
(lp2238
(S'xxx'
p2239
g53
F0.8437
tp2240
asI286
(lp2241
(S'aimee'
p2242
g16
F0.9208
tp2243
asI287
(lp2244
(S'hm'
p2245
g67
F0.995
tp2246
asI288
(lp2247
(S'can'
p2248
g6
F0.999
tp2249
a(S'you'
p2250
g3
F0.9958
tp2251
a(S'uh'
p2252
g6
F0.5301
tp2253
a(S'watch'
p2254
g6
F0.9446
tp2255
a(S'what'
p2256
g3
F0.9851
tp2257
a(S'robbie'
p2258
g16
F0.9912
tp2259
a(S'is'
p2260
g6
F0.9958
tp2261
a(S'doing'
p2262
g6
F0.9935
tp2263
a(S'downstairs'
p2264
g30
F0.8556
tp2265
asI289
(lp2266
(S'xxx'
p2267
g53
F0.8437
tp2268
asI290
(lp2269
(S'he'
p2270
g3
F0.9888
tp2271
a(g5
g6
F0.599
tp2272
a(S'bathing'
p2273
g30
F0.9739
tp2274
asI291
(lp2275
(S'he'
p2276
g3
F0.9905
tp2277
a(g5
g6
F0.7962
tp2278
a(S'having'
p2279
g6
F0.9994
tp2280
a(g500
g210
F0.9964
tp2281
a(S'bath'
p2282
g30
F0.9981
tp2283
asI292
(lp2284
(S'uhhuh'
p2285
g67
F0.9892
tp2286
asI293
(lp2287
(S'well'
p2288
g67
F0.6526
tp2289
a(S'see'
p2290
g6
F0.9731
tp2291
a(S'if'
p2292
g154
F0.9986
tp2293
a(S'he'
p2294
g3
F0.9979
tp2295
a(g5
g6
F0.7591
tp2296
a(S'finished'
p2297
g6
F0.99
tp2298
asI294
(lp2299
(g412
g413
F0.9638
tp2300
asI295
(lp2301
(S'xxx'
p2302
g53
F0.8437
tp2303
asI296
(lp2304
(S'he'
p2305
g3
F0.9925
tp2306
a(S'look'
p2307
g6
F0.9976
tp2308
a(S'like'
p2309
g154
F0.8389
tp2310
a(S'xxx'
p2311
g53
F0.6561
tp2312
asI297
(lp2313
(S'huh'
p2314
g67
F0.993
tp2315
asI298
(lp2316
(S'xxx'
p2317
g53
F0.8437
tp2318
asI299
(lp2319
(S'okay'
p2320
g67
F0.8881
tp2321
a(S'it'
p2322
g3
F0.994
tp2323
a(g5
g6
F0.5875
tp2324
a(S'time'
p2325
g30
F0.9889
tp2326
a(S'to'
p2327
g154
F0.9976
tp2328
a(S'eat'
p2329
g6
F0.9913
tp2330
asI300
(lp2331
(S'come'
p2332
g6
F0.9849
tp2333
a(S'on'
p2334
g56
F0.5632
tp2335
asI301
(lp2336
(S'come'
p2337
g6
F0.9897
tp2338
a(S'on'
p2339
g154
F0.8052
tp2340
a(S'robbie'
p2341
g16
F0.9975
tp2342
a(S'it'
p2343
g3
F0.9865
tp2344
a(g5
g6
F0.5141
tp2345
a(S'dinner'
p2346
g30
F0.9543
tp2347
asI302
(lp2348
(S'we'
p2349
g3
F0.9956
tp2350
a(S'eat'
p2351
g6
F0.9961
tp2352
asI303
(lp2353
(S'dinnertime'
p2354
g30
F0.9155
tp2355
asI304
(lp2356
(S'dinnertime'
p2357
g30
F0.9155
tp2358
asI305
(lp2359
(S'dinnertime'
p2360
g30
F0.9155
tp2361
asI306
(lp2362
(S'xxx'
p2363
g53
F0.8437
tp2364
asI307
(lp2365
(S'www'
p2366
g16
F0.3889
tp2367
asI308
(lp2368
(S'please'
p2369
g6
F0.9727
tp2370
a(S'turn'
p2371
g6
F0.9979
tp2372
a(S'off'
p2373
g56
F0.9774
tp2374
a(S'the'
p2375
g210
F0.9998
tp2376
a(S'tv'
p2377
g30
F0.9847
tp2378
asI309
(lp2379
(g201
g3
F0.9896
tp2380
a(S'have'
p2381
g6
F0.9999
tp2382
a(S'this'
p2383
g210
F0.9925
tp2384
a(S'thing'
p2385
g30
F0.9981
tp2386
a(S'on'
p2387
g154
F0.9985
tp2388
a(S'you'
p2389
g3
F0.9998
tp2390
a(S'know'
p2391
g6
F0.9965
tp2392
asI310
(lp2393
(S'it'
p2394
g3
F0.9888
tp2395
a(g5
g6
F0.4614
tp2396
a(S'still'
p2397
g9
F0.9902
tp2398
a(S'blinkin'
p2399
g9
F0.3567
tp2400
a(g29
g6
F0.2378
tp2401
a(S'mommy'
p2402
g30
F0.6048
tp2403
asI311
(lp2404
(g201
g3
F0.9912
tp2405
a(S'know'
p2406
g6
F0.9989
tp2407
asI312
(lp2408
(S'no'
p2409
g67
F0.9253
tp2410
asI313
(lp2411
(S'no'
p2412
g67
F0.6674
tp2413
a(S'no'
p2414
g67
F0.4752
tp2415
a(S'no'
p2416
g67
F0.4191
tp2417
a(S'no'
p2418
g210
F0.3526
tp2419
a(S'no'
p2420
g30
F0.364
tp2421
asI314
(lp2422
(S'no'
p2423
g67
F0.9253
tp2424
asI315
(lp2425
(S'no'
p2426
g67
F0.9253
tp2427
asI316
(lp2428
(S'aimee'
p2429
g16
F0.8406
tp2430
a(S'you'
p2431
g3
F0.9976
tp2432
a(S'gonna'
p2433
g6
F0.9996
tp2434
a(S'eat'
p2435
g6
F0.9978
tp2436
a(S'lots'
p2437
g30
F0.9925
tp2438
a(S'of'
p2439
g154
F0.9975
tp2440
a(S'food'
p2441
g30
F0.9872
tp2442
a(S'tonight'
p2443
g30
F0.7623
tp2444
asI317
(lp2445
(S'okay'
p2446
g67
F0.9857
tp2447
asI318
(lp2448
(S'zzz'
p2449
g67
F0.361
tp2450
asI319
(lp2451
(S'uhhuh'
p2452
g67
F0.9892
tp2453
asI320
(lp2454
(S'it'
p2455
g3
F0.9888
tp2456
a(g5
g6
F0.7285
tp2457
a(g500
g210
F0.9975
tp2458
a(S'little'
p2459
g27
F0.9971
tp2460
a(S'bit'
p2461
g30
F0.9273
tp2462
a(S'tonight'
p2463
g30
F0.5844
tp2464
asI321
(lp2465
(S'robbie'
p2466
g16
F0.9968
tp2467
a(S'come'
p2468
g6
F0.9923
tp2469
a(S'on'
p2470
g56
F0.7116
tp2471
asI322
(lp2472
(S'mommy'
p2473
g30
F0.4926
tp2474
a(S'that'
p2475
g154
F0.9323
tp2476
a(g5
g169
F0.5115
tp2477
a(g500
g210
F0.9935
tp2478
a(S'little'
p2479
g27
F0.9958
tp2480
a(S'bit'
p2481
g30
F0.9218
tp2482
asI323
(lp2483
(S'yeah'
p2484
g67
F0.9983
tp2485
a(S'that'
p2486
g3
F0.6675
tp2487
a(g5
g6
F0.5782
tp2488
a(g500
g210
F0.9975
tp2489
a(S'little'
p2490
g27
F0.9773
tp2491
asI324
(lp2492
(S'zzz'
p2493
g67
F0.361
tp2494
asI325
(lp2495
(g201
g3
F0.9879
tp2496
a(S'starting'
p2497
g6
F0.9995
tp2498
asI326
(lp2499
(S'xxx'
p2500
g53
F0.8437
tp2501
asI327
(lp2502
(S'who'
p2503
g3
F0.9764
tp2504
asI328
(lp2505
(S'xxx'
p2506
g53
F0.8437
tp2507
asI329
(lp2508
(S'xxx'
p2509
g53
F0.8437
tp2510
asI330
(lp2511
(S'xxx'
p2512
g53
F0.8437
tp2513
asI331
(lp2514
(S'xxx'
p2515
g53
F0.8437
tp2516
asI332
(lp2517
(S'xxx'
p2518
g53
F0.8437
tp2519
asI333
(lp2520
(S'wait'
p2521
g6
F0.9897
tp2522
a(g500
g210
F0.994
tp2523
a(S'minute'
p2524
g30
F0.9741
tp2525
asI334
(lp2526
(g201
g3
F0.953
tp2527
a(g203
g6
F0.9839
tp2528
a(S'taking'
p2529
g6
F0.9991
tp2530
a(g500
g210
F0.9986
tp2531
a(S'little'
p2532
g27
F0.9945
tp2533
a(S'forks'
p2534
g30
F0.9955
tp2535
asI335
(lp2536
(S'zzz'
p2537
g67
F0.361
tp2538
asI336
(lp2539
(S'come'
p2540
g6
F0.9849
tp2541
a(S'on'
p2542
g56
F0.5632
tp2543
asI337
(lp2544
(S'oh'
p2545
g67
F0.9963
tp2546
a(S'xxx'
p2547
g53
F0.4571
tp2548
a(S'people'
p2549
g30
F0.9965
tp2550
asI338
(lp2551
(S'xxx'
p2552
g53
F0.8437
tp2553
asI339
(lp2554
(S'thank'
p2555
g6
F0.9661
tp2556
a(S'you'
p2557
g3
F0.9993
tp2558
a(S'thank'
p2559
g6
F0.9982
tp2560
a(S'you'
p2561
g3
F0.9987
tp2562
asI340
(lp2563
(S'thank'
p2564
g6
F0.9661
tp2565
a(S'you'
p2566
g3
F0.9993
tp2567
a(S'thank'
p2568
g6
F0.9982
tp2569
a(S'you'
p2570
g3
F0.9987
tp2571
asI341
(lp2572
(S'xxx'
p2573
g53
F0.8437
tp2574
asI342
(lp2575
(S'robbie'
p2576
g16
F0.9968
tp2577
a(S'come'
p2578
g6
F0.9923
tp2579
a(S'on'
p2580
g56
F0.7116
tp2581
asI343
(lp2582
(S'thank'
p2583
g6
F0.9631
tp2584
a(S'you'
p2585
g3
F0.9987
tp2586
asI344
(lp2587
(S'thank'
p2588
g6
F0.9631
tp2589
a(S'you'
p2590
g3
F0.9987
tp2591
asI345
(lp2592
(S'thank'
p2593
g6
F0.9631
tp2594
a(S'you'
p2595
g3
F0.9987
tp2596
asI346
(lp2597
(S'thank'
p2598
g6
F0.9631
tp2599
a(S'you'
p2600
g3
F0.9987
tp2601
asI347
(lp2602
(S'thank'
p2603
g6
F0.9631
tp2604
a(S'you'
p2605
g3
F0.9987
tp2606
asI348
(lp2607
(S'thank'
p2608
g6
F0.9631
tp2609
a(S'you'
p2610
g3
F0.9987
tp2611
asI349
(lp2612
(S'thank'
p2613
g6
F0.9631
tp2614
a(S'you'
p2615
g3
F0.9987
tp2616
asI350
(lp2617
(S'thank'
p2618
g6
F0.9631
tp2619
a(S'you'
p2620
g3
F0.9987
tp2621
asI351
(lp2622
(S'xxx'
p2623
g53
F0.6253
tp2624
a(S'robbie'
p2625
g16
F0.9963
tp2626
a(S'has'
p2627
g6
F0.9974
tp2628
a(S'to'
p2629
g154
F0.9943
tp2630
a(S'eat'
p2631
g6
F0.9946
tp2632
asI352
(lp2633
(S'aimee'
p2634
g16
F0.9208
tp2635
asI353
(lp2636
(S'xxx'
p2637
g53
F0.8437
tp2638
asI354
(lp2639
(S'robbie'
p2640
g16
F0.999
tp2641
a(S'has'
p2642
g6
F0.9973
tp2643
a(S'to'
p2644
g154
F0.9885
tp2645
a(S'eat'
p2646
g6
F0.988
tp2647
asI355
(lp2648
(S'robbie'
p2649
g16
F0.999
tp2650
a(S'has'
p2651
g6
F0.9973
tp2652
a(S'to'
p2653
g154
F0.9885
tp2654
a(S'eat'
p2655
g6
F0.988
tp2656
asI356
(lp2657
(S'aimee'
p2658
g16
F0.9884
tp2659
a(S'has'
p2660
g6
F0.9973
tp2661
a(S'to'
p2662
g154
F0.9885
tp2663
a(S'eat'
p2664
g6
F0.988
tp2665
asI357
(lp2666
(S'zzz'
p2667
g67
F0.361
tp2668
asI358
(lp2669
(S'daddy'
p2670
g30
F0.9664
tp2671
a(S'has'
p2672
g6
F0.9983
tp2673
a(S'to'
p2674
g154
F0.9885
tp2675
a(S'eat'
p2676
g6
F0.988
tp2677
asI359
(lp2678
(S'daddy'
p2679
g30
F0.9521
tp2680
a(S'xxx'
p2681
g6
F0.3313
tp2682
a(S'you'
p2683
g3
F0.9983
tp2684
a(S'hungry'
p2685
g27
F0.9468
tp2686
asI360
(lp2687
(S'yeah'
p2688
g67
F0.9988
tp2689
asI361
(lp2690
(S'are'
p2691
g6
F0.9963
tp2692
a(S'you'
p2693
g3
F0.9985
tp2694
a(S'hungry'
p2695
g27
F0.9197
tp2696
asI362
(lp2697
(S'huh'
p2698
g67
F0.993
tp2699
asI363
(lp2700
(S'mommy'
p2701
g30
F0.438
tp2702
a(S'you'
p2703
g3
F0.9893
tp2704
a(S'hungry'
p2705
g27
F0.9197
tp2706
asI364
(lp2707
(S'yes'
p2708
g67
F0.9941
tp2709
a(g201
g3
F0.9947
tp2710
a(S'am'
p2711
g6
F0.9966
tp2712
asI365
(lp2713
(S'are'
p2714
g6
F0.9963
tp2715
a(S'you'
p2716
g3
F0.9964
tp2717
asI366
(lp2718
(S'yeah'
p2719
g67
F0.9988
tp2720
asI367
(lp2721
(S'say'
p2722
g6
F0.984
tp2723
a(S'the'
p2724
g210
F0.9881
tp2725
asI368
(lp2726
(S'say'
p2727
g6
F0.984
tp2728
a(S'the'
p2729
g210
F0.9977
tp2730
a(S'grace'
p2731
g16
F0.8345
tp2732
asI369
(lp2733
(S'god'
p2734
g16
F0.948
tp2735
a(S'is'
p2736
g6
F0.9964
tp2737
a(S'great'
p2738
g27
F0.9974
tp2739
a(S'god'
p2740
g16
F0.5834
tp2741
a(S'is'
p2742
g6
F0.9973
tp2743
a(S'good'
p2744
g27
F0.995
tp2745
a(S'let'
p2746
g6
F0.7673
tp2747
a(S'us'
p2748
g3
F0.9939
tp2749
a(S'thank'
p2750
g6
F0.9854
tp2751
a(S'him'
p2752
g3
F0.9951
tp2753
a(S'for'
p2754
g154
F0.9995
tp2755
a(S'our'
p2756
g210
F0.9974
tp2757
a(S'food'
p2758
g30
F0.9924
tp2759
a(S'amen'
p2760
g67
F0.707
tp2761
asI370
(lp2762
(S'uhuh'
p2763
g67
F0.9919
tp2764
asI371
(lp2765
(S'say'
p2766
g6
F0.8548
tp2767
a(S'xxx'
p2768
g6
F0.3573
tp2769
a(S'over'
p2770
g56
F0.4512
tp2771
asI372
(lp2772
(S'come'
p2773
g6
F0.9849
tp2774
a(S'on'
p2775
g56
F0.5632
tp2776
asI373
(lp2777
(S'be'
p2778
g6
F0.9886
tp2779
a(S'good'
p2780
g27
F0.9983
tp2781
asI374
(lp2782
(S'god'
p2783
g16
F0.948
tp2784
a(S'is'
p2785
g6
F0.9926
tp2786
a(S'grace'
p2787
g16
F0.9597
tp2788
a(S'and'
p2789
g45
F0.998
tp2790
a(S'god'
p2791
g16
F0.885
tp2792
a(S'is'
p2793
g6
F0.9971
tp2794
a(S'good'
p2795
g27
F0.9987
tp2796
asI375
(lp2797
(S'and'
p2798
g45
F0.9991
tp2799
a(S'we'
p2800
g3
F0.9966
tp2801
asI376
(lp2802
(S'thank'
p2803
g6
F0.9661
tp2804
a(S'you'
p2805
g3
F0.9991
tp2806
a(S'or'
p2807
g45
F0.9232
tp2808
a(S'the'
p2809
g210
F0.9986
tp2810
a(S'rest'
p2811
g30
F0.9964
tp2812
a(g201
g3
F0.7287
tp2813
a(S've'
p2814
g6
F0.8175
tp2815
a(S'said'
p2816
g6
F0.974
tp2817
asI377
(lp2818
(S'thank'
p2819
g6
F0.9661
tp2820
a(S'you'
p2821
g3
F0.9965
tp2822
a(S'god'
p2823
g6
F0.5798
tp2824
a(S'for'
p2825
g154
F0.9996
tp2826
a(S'every'
p2827
g210
F0.9874
tp2828
a(S'day'
p2829
g30
F0.9989
tp2830
asI378
(lp2831
(S'amen'
p2832
g67
F0.9835
tp2833
asI379
(lp2834
(S'god'
p2835
g16
F0.948
tp2836
a(S'is'
p2837
g6
F0.9926
tp2838
a(S'grace'
p2839
g16
F0.9597
tp2840
a(S'and'
p2841
g45
F0.998
tp2842
a(S'god'
p2843
g16
F0.885
tp2844
a(S'is'
p2845
g6
F0.9971
tp2846
a(S'good'
p2847
g27
F0.9987
tp2848
asI380
(lp2849
(S'and'
p2850
g45
F0.9991
tp2851
a(S'we'
p2852
g3
F0.9966
tp2853
a(S'thank'
p2854
g6
F0.999
tp2855
a(S'him'
p2856
g3
F0.9942
tp2857
a(S'for'
p2858
g154
F0.9992
tp2859
a(S'our'
p2860
g210
F0.9966
tp2861
a(S'food'
p2862
g30
F0.9928
tp2863
asI381
(lp2864
(S'no'
p2865
g67
F0.9456
tp2866
a(S'that'
p2867
g154
F0.5143
tp2868
a(g5
g169
F0.4287
tp2869
a(S'mine'
p2870
g3
F0.9017
tp2871
asI382
(lp2872
(S'what'
p2873
g3
F0.9835
tp2874
a(S'are'
p2875
g6
F0.9976
tp2876
a(S'you'
p2877
g3
F0.9994
tp2878
a(S'doing'
p2879
g6
F0.9994
tp2880
asI383
(lp2881
(S'aimee'
p2882
g16
F0.9208
tp2883
asI384
(lp2884
(S'you'
p2885
g3
F0.9974
tp2886
a(S'know'
p2887
g6
F0.9967
tp2888
asI385
(lp2889
(S'be'
p2890
g6
F0.9696
tp2891
a(S'cause'
p2892
g154
F0.6746
tp2893
asI386
(lp2894
(S'me'
p2895
g3
F0.9918
tp2896
asI387
(lp2897
(S'me'
p2898
g3
F0.9918
tp2899
asI388
(lp2900
(S'no'
p2901
g67
F0.7822
tp2902
a(S'no'
p2903
g67
F0.8036
tp2904
asI389
(lp2905
(S'you'
p2906
g3
F0.997
tp2907
a(S'eat'
p2908
g6
F0.9993
tp2909
a(S'this'
p2910
g3
F0.8619
tp2911
a(S'up'
p2912
g56
F0.9821
tp2913
asI390
(lp2914
(S'you'
p2915
g3
F0.9926
tp2916
a(S'don'
p2917
g6
F0.8675
tp2918
a(g236
g30
F0.3191
tp2919
a(S'got'
p2920
g6
F0.9957
tp2921
a(S'no'
p2922
g210
F0.9616
tp2923
a(S'flower'
p2924
g30
F0.9937
tp2925
asI391
(lp2926
(S'you'
p2927
g3
F0.9926
tp2928
a(S'don'
p2929
g6
F0.8675
tp2930
a(g236
g30
F0.3191
tp2931
a(S'got'
p2932
g6
F0.9957
tp2933
a(S'no'
p2934
g210
F0.9616
tp2935
a(S'flower'
p2936
g30
F0.9937
tp2937
asI392
(lp2938
(S'xxx'
p2939
g53
F0.8437
tp2940
asI393
(lp2941
(S'xxx'
p2942
g53
F0.6385
tp2943
a(S'flower'
p2944
g30
F0.6886
tp2945
asI394
(lp2946
(g201
g3
F0.9156
tp2947
a(S've'
p2948
g6
F0.8726
tp2949
a(S'got'
p2950
g6
F0.9972
tp2951
a(S'the'
p2952
g210
F0.9992
tp2953
a(S'flower'
p2954
g30
F0.7844
tp2955
asI395
(lp2956
(S'xxx'
p2957
g53
F0.8437
tp2958
asI396
(lp2959
(S'mommy'
p2960
g30
F0.5271
tp2961
asI397
(lp2962
(S'mommy'
p2963
g30
F0.5271
tp2964
asI398
(lp2965
(S'yes'
p2966
g67
F0.9958
tp2967
asI399
(lp2968
(S'didn'
p2969
g6
F0.598
tp2970
a(g236
g6
F0.9478
tp2971
a(S'you'
p2972
g3
F0.9992
tp2973
a(S'get'
p2974
g6
F0.9998
tp2975
a(S'some'
p2976
g210
F0.9895
tp2977
a(S'juice'
p2978
g30
F0.9713
tp2979
asI400
(lp2980
(S'xxx'
p2981
g53
F0.8437
tp2982
asI401
(lp2983
(S'xxx'
p2984
g53
F0.6858
tp2985
a(S'baby'
p2986
g30
F0.9476
tp2987
asI402
(lp2988
(S'xxx'
p2989
g53
F0.8437
tp2990
asI403
(lp2991
(S'xxx'
p2992
g53
F0.8437
tp2993
asI404
(lp2994
(S'xxx'
p2995
g53
F0.8437
tp2996
asI405
(lp2997
(g201
g3
F0.9635
tp2998
a(S'don'
p2999
g6
F0.9156
tp3000
a(g236
g30
F0.3286
tp3001
a(S'care'
p3002
g30
F0.5
tp3003
asI406
(lp3004
(S'daddy'
p3005
g30
F0.9816
tp3006
a(g201
g3
F0.9044
tp3007
a(S'didn'
p3008
g6
F0.9915
tp3009
a(g236
g6
F0.7807
tp3010
a(S'ask'
p3011
g6
F0.9871
tp3012
a(S'for'
p3013
g154
F0.9993
tp3014
a(S'no'
p3015
g210
F0.9824
tp3016
a(S'juice'
p3017
g30
F0.9993
tp3018
asI407
(lp3019
(S'xxx'
p3020
g53
F0.8437
tp3021
asI408
(lp3022
(S'okay'
p3023
g67
F0.881
tp3024
a(S'watch'
p3025
g6
F0.981
tp3026
a(S'out'
p3027
g56
F0.8849
tp3028
a(S'for'
p3029
g154
F0.9998
tp3030
a(S'my'
p3031
g210
F0.9971
tp3032
a(S'fork'
p3033
g30
F0.9921
tp3034
a(S'boy'
p3035
g30
F0.986
tp3036
asI409
(lp3037
(S'xxx'
p3038
g53
F0.6574
tp3039
a(S'juice'
p3040
g30
F0.9163
tp3041
a(S'thank'
p3042
g6
F0.9059
tp3043
a(S'you'
p3044
g3
F0.9987
tp3045
asI410
(lp3046
(S'huh'
p3047
g67
F0.993
tp3048
asI411
(lp3049
(g201
g3
F0.9908
tp3050
a(S'hate'
p3051
g6
F0.9998
tp3052
a(S'on'
p3053
g154
F0.9324
tp3054
a(S'my'
p3055
g210
F0.9969
tp3056
a(S'skirt'
p3057
g30
F0.998
tp3058
asI412
(lp3059
(S'xxx'
p3060
g53
F0.8437
tp3061
asI413
(lp3062
(S'xxx'
p3063
g53
F0.8437
tp3064
asI414
(lp3065
(S'you'
p3066
g3
F0.998
tp3067
a(S'want'
p3068
g6
F0.9996
tp3069
a(S'to'
p3070
g154
F0.9921
tp3071
a(S'eat'
p3072
g6
F0.988
tp3073
asI415
(lp3074
(S'huh'
p3075
g67
F0.9467
tp3076
a(S'baby'
p3077
g30
F0.8778
tp3078
asI416
(lp3079
(S'daddy'
p3080
g30
F0.9436
tp3081
asI417
(lp3082
(S'here'
p3083
g9
F0.7796
tp3084
asI418
(lp3085
(S'that'
p3086
g3
F0.473
tp3087
a(g5
g6
F0.6118
tp3088
a(g500
g210
F0.9927
tp3089
a(S'good'
p3090
g27
F0.9986
tp3091
a(S'boy'
p3092
g30
F0.9964
tp3093
asI419
(lp3094
(S'daddy'
p3095
g30
F0.9436
tp3096
asI420
(lp3097
(S'hm'
p3098
g67
F0.995
tp3099
asI421
(lp3100
(S'here'
p3101
g9
F0.7796
tp3102
asI422
(lp3103
(g412
g413
F0.9638
tp3104
asI423
(lp3105
(S'xxx'
p3106
g53
F0.8437
tp3107
asI424
(lp3108
(S'right'
p3109
g67
F0.4489
tp3110
a(S'there'
p3111
g9
F0.4509
tp3112
asI425
(lp3113
(S'but'
p3114
g45
F0.9931
tp3115
a(S'daddy'
p3116
g30
F0.9052
tp3117
a(S'it'
p3118
g3
F0.9869
tp3119
a(S'was'
p3120
g6
F0.9994
tp3121
a(S'behind'
p3122
g154
F0.9614
tp3123
a(S'my'
p3124
g210
F0.9967
tp3125
a(S'food'
p3126
g30
F0.997
tp3127
asI426
(lp3128
(S'just'
p3129
g9
F0.9991
tp3130
a(S'put'
p3131
g6
F0.9986
tp3132
a(S'it'
p3133
g3
F0.9838
tp3134
a(S'right'
p3135
g9
F0.9209
tp3136
a(S'here'
p3137
g9
F0.977
tp3138
asI427
(lp3139
(S'xxx'
p3140
g53
F0.5933
tp3141
a(S'junior'
p3142
g30
F0.6726
tp3143
a(S'xxx'
p3144
g53
F0.5747
tp3145
asI428
(lp3146
(g201
g3
F0.9875
tp3147
a(S'am'
p3148
g6
F0.9955
tp3149
a(S'gonna'
p3150
g6
F0.9818
tp3151
a(S'bring'
p3152
g6
F0.9999
tp3153
a(S'some'
p3154
g210
F0.9944
tp3155
a(S'juice'
p3156
g30
F0.9713
tp3157
asI429
(lp3158
(S'oh'
p3159
g67
F0.9979
tp3160
a(S'gosh'
p3161
g67
F0.9996
tp3162
asI430
(lp3163
(S'xxx'
p3164
g53
F0.7497
tp3165
a(g201
g3
F0.9884
tp3166
a(S'said'
p3167
g6
F0.9992
tp3168
asI431
(lp3169
(S'well'
p3170
g67
F0.8781
tp3171
a(S'no'
p3172
g67
F0.7584
tp3173
a(S'xxx'
p3174
g30
F0.4443
tp3175
asI432
(lp3176
(g201
g3
F0.953
tp3177
a(g203
g6
F0.9629
tp3178
a(S'gonna'
p3179
g6
F0.9907
tp3180
a(S'get'
p3181
g6
F0.999
tp3182
a(S'juice'
p3183
g30
F0.9449
tp3184
asI433
(lp3185
(S'xxx'
p3186
g53
F0.8437
tp3187
asI434
(lp3188
(S'no'
p3189
g67
F0.8412
tp3190
a(S'they'
p3191
g3
F0.9726
tp3192
a(S'don'
p3193
g6
F0.839
tp3194
a(g236
g169
F0.5134
tp3195
asI435
(lp3196
(S'they'
p3197
g3
F0.9817
tp3198
a(S'eat'
p3199
g6
F0.9997
tp3200
a(S'all'
p3201
g210
F0.8144
tp3202
a(S'this'
p3203
g210
F0.9828
tp3204
a(S'food'
p3205
g30
F0.9931
tp3206
asI436
(lp3207
(S'xxx'
p3208
g53
F0.8437
tp3209
asI437
(lp3210
(S'they'
p3211
g3
F0.9925
tp3212
a(S'do'
p3213
g6
F0.9995
tp3214
asI438
(lp3215
(S'they'
p3216
g3
F0.9817
tp3217
a(S'eat'
p3218
g6
F0.9996
tp3219
a(S'all'
p3220
g210
F0.8144
tp3221
a(S'this'
p3222
g210
F0.6581
tp3223
asI439
(lp3224
(S'potatoes'
p3225
g30
F0.9857
tp3226
a(S'only'
p3227
g9
F0.574
tp3228
asI440
(lp3229
(S'they'
p3230
g3
F0.9926
tp3231
a(S'do'
p3232
g6
F0.9997
tp3233
a(S'eat'
p3234
g6
F0.988
tp3235
a(S'all'
p3236
g210
F0.8036
tp3237
a(S'this'
p3238
g210
F0.9813
tp3239
a(S'food'
p3240
g30
F0.9937
tp3241
asI441
(lp3242
(S'xxx'
p3243
g53
F0.6563
tp3244
a(S'have'
p3245
g6
F0.9778
tp3246
a(S'room'
p3247
g30
F0.9921
tp3248
a(S'for'
p3249
g154
F0.9996
tp3250
a(S'one'
p3251
g413
F0.9281
tp3252
a(S'more'
p3253
g27
F0.7314
tp3254
a(S'xxx'
p3255
g53
F0.7739
tp3256
asI442
(lp3257
(S'xxx'
p3258
g53
F0.8437
tp3259
asI443
(lp3260
(S'alright'
p3261
g67
F0.9061
tp3262
a(S'eat'
p3263
g6
F0.8558
tp3264
asI444
(lp3265
(S'zzz'
p3266
g67
F0.361
tp3267
asI445
(lp3268
(S'da'
p3269
g210
F0.8788
tp3270
a(g299
g30
F0.8821
tp3271
asI446
(lp3272
(S'junior'
p3273
g30
F0.7717
tp3274
asI447
(lp3275
(S'leave'
p3276
g6
F0.9945
tp3277
a(S'it'
p3278
g3
F0.9946
tp3279
a(S'alone'
p3280
g27
F0.4762
tp3281
asI448
(lp3282
(S'xxx'
p3283
g53
F0.8437
tp3284
asI449
(lp3285
(S'xxx'
p3286
g53
F0.8437
tp3287
asI450
(lp3288
(S'huh'
p3289
g67
F0.993
tp3290
asI451
(lp3291
(S'zzz'
p3292
g67
F0.361
tp3293
asI452
(lp3294
(S'what'
p3295
g3
F0.949
tp3296
asI453
(lp3297
(g201
g3
F0.9635
tp3298
a(S'don'
p3299
g6
F0.9231
tp3300
a(g236
g6
F0.4437
tp3301
a(S'like'
p3302
g154
F0.9462
tp3303
a(S'no'
p3304
g210
F0.8447
tp3305
a(S'pepper'
p3306
g30
F0.9925
tp3307
asI454
(lp3308
(S'do'
p3309
g6
F0.9985
tp3310
a(S'you'
p3311
g3
F0.9989
tp3312
a(S'like'
p3313
g6
F0.8013
tp3314
a(S'pepper'
p3315
g30
F0.811
tp3316
asI455
(lp3317
(S'sometimes'
p3318
g9
F0.9272
tp3319
asI456
(lp3320
(S'it'
p3321
g3
F0.9879
tp3322
a(S'burns'
p3323
g6
F0.9939
tp3324
a(S'my'
p3325
g210
F0.9989
tp3326
a(S'mouth'
p3327
g30
F0.9996
tp3328
asI457
(lp3329
(S'it'
p3330
g3
F0.9922
tp3331
a(S'doesn'
p3332
g6
F0.991
tp3333
a(g236
g30
F0.2185
tp3334
a(S'burn'
p3335
g6
F0.9813
tp3336
a(S'your'
p3337
g210
F0.9966
tp3338
a(S'mouth'
p3339
g30
F0.9997
tp3340
asI458
(lp3341
(S'but'
p3342
g45
F0.9911
tp3343
a(S'look'
p3344
g6
F0.9097
tp3345
a(S'at'
p3346
g154
F0.9935
tp3347
a(S'daddy'
p3348
g30
F0.9777
tp3349
a(S'he'
p3350
g3
F0.9736
tp3351
a(S'like'
p3352
g6
F0.8495
tp3353
a(S'it'
p3354
g3
F0.9983
tp3355
asI459
(lp3356
(S'daddy'
p3357
g30
F0.857
tp3358
a(S'you'
p3359
g3
F0.9966
tp3360
a(S'has'
p3361
g6
F1.0
tp3362
a(S'our'
p3363
g210
F0.9967
tp3364
a(S'bowl'
p3365
g30
F0.9978
tp3366
asI460
(lp3367
(S'right'
p3368
g9
F0.6638
tp3369
a(S'here'
p3370
g9
F0.9427
tp3371
asI461
(lp3372
(S'hm'
p3373
g67
F0.995
tp3374
asI462
(lp3375
(S'we'
p3376
g3
F0.9931
tp3377
a(S'use'
p3378
g6
F0.9984
tp3379
a(S'our'
p3380
g210
F0.9937
tp3381
a(S'flower'
p3382
g30
F0.9001
tp3383
asI463
(lp3384
(S'mhm'
p3385
g67
F0.9747
tp3386
asI464
(lp3387
(S'that'
p3388
g3
F0.473
tp3389
a(g5
g169
F0.4839
tp3390
a(S'why'
p3391
g9
F0.8664
tp3392
a(S'xxx'
p3393
g53
F0.8206
tp3394
asI465
(lp3395
(S'and'
p3396
g45
F0.9979
tp3397
a(S'that'
p3398
g3
F0.9036
tp3399
asI466
(lp3400
(S'zzz'
p3401
g67
F0.361
tp3402
asI467
(lp3403
(S'that'
p3404
g3
F0.473
tp3405
a(g5
g169
F0.4839
tp3406
a(S'why'
p3407
g9
F0.8664
tp3408
a(S'xxx'
p3409
g53
F0.8206
tp3410
asI468
(lp3411
(S'zzz'
p3412
g67
F0.361
tp3413
asI469
(lp3414
(S'xxx'
p3415
g53
F0.8437
tp3416
asI470
(lp3417
(S'zzz'
p3418
g67
F0.361
tp3419
asI471
(lp3420
(S'zzz'
p3421
g67
F0.361
tp3422
asI472
(lp3423
(S'xxx'
p3424
g53
F0.8437
tp3425
asI473
(lp3426
(S'you'
p3427
g3
F0.9936
tp3428
a(S'wan'
p3429
g27
F0.5417
tp3430
a(g236
g30
F0.3593
tp3431
a(g500
g210
F0.9506
tp3432
a(S'flower'
p3433
g30
F0.9218
tp3434
asI474
(lp3435
(S'zzz'
p3436
g67
F0.361
tp3437
asI475
(lp3438
(S'xxx'
p3439
g53
F0.8437
tp3440
asI476
(lp3441
(S'xxx'
p3442
g53
F0.8437
tp3443
asI477
(lp3444
(S'uhhuh'
p3445
g67
F0.9892
tp3446
asI478
(lp3447
(S'uhhuh'
p3448
g67
F0.9892
tp3449
asI479
(lp3450
(S'zzz'
p3451
g67
F0.361
tp3452
asI480
(lp3453
(S'xxx'
p3454
g53
F0.8437
tp3455
asI481
(lp3456
(S'want'
p3457
g6
F0.9975
tp3458
a(S'some'
p3459
g210
F0.8782
tp3460
a(S'of'
p3461
g154
F0.9939
tp3462
a(S'this'
p3463
g210
F0.9624
tp3464
a(S'soup'
p3465
g30
F0.9871
tp3466
a(S'xxx'
p3467
g53
F0.8
tp3468
asI482
(lp3469
(S'xxx'
p3470
g53
F0.6645
tp3471
a(S'soup'
p3472
g30
F0.9503
tp3473
a(S'bowl'
p3474
g30
F0.9979
tp3475
asI483
(lp3476
(S'xxx'
p3477
g53
F0.8437
tp3478
asI484
(lp3479
(S'are'
p3480
g6
F0.9964
tp3481
a(S'you'
p3482
g3
F0.9986
tp3483
a(S'ready'
p3484
g27
F0.8857
tp3485
a(S'to'
p3486
g154
F0.9979
tp3487
a(S'go'
p3488
g6
F0.9977
tp3489
a(S'hm'
p3490
g67
F0.8976
tp3491
asI485
(lp3492
(S'xxx'
p3493
g53
F0.8437
tp3494
asI486
(lp3495
(S'daddy'
p3496
g30
F0.9373
tp3497
a(S'we'
p3498
g3
F0.9633
tp3499
a(S'ready'
p3500
g27
F0.7768
tp3501
a(S'to'
p3502
g154
F0.9979
tp3503
a(S'go'
p3504
g6
F0.9994
tp3505
a(S'now'
p3506
g9
F0.9992
tp3507
asI487
(lp3508
(S'mommy'
p3509
g30
F0.3577
tp3510
a(S'you'
p3511
g3
F0.9494
tp3512
a(S'mommy'
p3513
g30
F0.5477
tp3514
a(S'fan'
p3515
g30
F0.5212
tp3516
a(S'me'
p3517
g3
F0.9867
tp3518
asI488
(lp3519
(g201
g3
F0.9156
tp3520
a(S've'
p3521
g6
F0.8054
tp3522
a(S'become'
p3523
g6
F0.9913
tp3524
a(S'hot'
p3525
g27
F0.9723
tp3526
asI489
(lp3527
(S'xxx'
p3528
g53
F0.8437
tp3529
asI490
(lp3530
(S'mommy'
p3531
g30
F0.635
tp3532
a(S'fan'
p3533
g6
F0.6044
tp3534
a(S'me'
p3535
g3
F0.9974
tp3536
asI491
(lp3537
(S'why'
p3538
g9
F0.8527
tp3539
asI492
(lp3540
(S'because'
p3541
g154
F0.978
tp3542
asI493
(lp3543
(S'fan'
p3544
g6
F0.4749
tp3545
a(S'me'
p3546
g3
F0.9973
tp3547
asI494
(lp3548
(S'zzz'
p3549
g67
F0.361
tp3550
asI495
(lp3551
(S'am'
p3552
g6
F0.8724
tp3553
a(S'hot'
p3554
g27
F0.9977
tp3555
asI496
(lp3556
(S'uhuh'
p3557
g67
F0.9919
tp3558
asI497
(lp3559
(S'yes'
p3560
g67
F0.9941
tp3561
a(g201
g3
F0.9947
tp3562
a(S'am'
p3563
g6
F0.9966
tp3564
asI498
(lp3565
(S'xxx'
p3566
g53
F0.6896
tp3567
a(S'still'
p3568
g9
F0.9576
tp3569
asI499
(lp3570
(S'just'
p3571
g9
F0.9992
tp3572
a(S'eat'
p3573
g6
F0.999
tp3574
a(S'your'
p3575
g210
F0.9932
tp3576
a(S'food'
p3577
g30
F0.9975
tp3578
a(S'aimee'
p3579
g16
F0.3806
tp3580
asI500
(lp3581
(S'here'
p3582
g9
F0.9592
tp3583
a(S'just'
p3584
g9
F0.9994
tp3585
a(S'try'
p3586
g6
F0.9991
tp3587
a(S'this'
p3588
g210
F0.957
tp3589
a(S'whole'
p3590
g27
F0.9839
tp3591
a(S'thing'
p3592
g30
F0.9973
tp3593
asI501
(lp3594
(S'just'
p3595
g9
F0.9996
tp3596
a(S'wan'
p3597
g27
F0.7375
tp3598
a(g236
g30
F0.352
tp3599
a(g236
g169
F0.3756
tp3600
a(g500
g210
F0.9113
tp3601
a(S'play'
p3602
g30
F0.8275
tp3603
a(S'with'
p3604
g154
F0.9996
tp3605
a(S'it'
p3606
g3
F0.9984
tp3607
a(S'and'
p3608
g45
F0.9925
tp3609
a(S'eat'
p3610
g6
F0.999
tp3611
a(S'it'
p3612
g3
F0.9903
tp3613
asI502
(lp3614
(S'zzz'
p3615
g67
F0.361
tp3616
asI503
(lp3617
(S'zzz'
p3618
g67
F0.361
tp3619
asI504
(lp3620
(g201
g3
F0.9835
tp3621
a(S'already'
p3622
g9
F0.9934
tp3623
a(S'ate'
p3624
g6
F0.9989
tp3625
a(S'that'
p3626
g3
F0.7605
tp3627
asI505
(lp3628
(S'something'
p3629
g30
F0.9873
tp3630
a(S'for'
p3631
g154
F0.9994
tp3632
a(S'breakfast'
p3633
g30
F0.9528
tp3634
asI506
(lp3635
(S'zzz'
p3636
g67
F0.361
tp3637
asI507
(lp3638
(S'zzz'
p3639
g67
F0.361
tp3640
asI508
(lp3641
(S'stop'
p3642
g6
F0.9144
tp3643
a(S'screaming'
p3644
g6
F0.967
tp3645
asI509
(lp3646
(S'xxx'
p3647
g53
F0.8437
tp3648
asI510
(lp3649
(S'zzz'
p3650
g67
F0.361
tp3651
asI511
(lp3652
(S'what'
p3653
g3
F0.9784
tp3654
a(g5
g169
F0.4512
tp3655
a(S'wrong'
p3656
g27
F0.9238
tp3657
a(S'with'
p3658
g154
F0.9996
tp3659
a(S'him'
p3660
g3
F0.9843
tp3661
asI512
(lp3662
(S'he'
p3663
g3
F0.9905
tp3664
a(g5
g6
F0.8082
tp3665
a(S'pulling'
p3666
g6
F0.9995
tp3667
a(S'it'
p3668
g3
F0.9961
tp3669
a(S'out'
p3670
g56
F0.9594
tp3671
asI513
(lp3672
(S'xxx'
p3673
g53
F0.8437
tp3674
asI514
(lp3675
(S'zzz'
p3676
g67
F0.361
tp3677
asI515
(lp3678
(S'xxx'
p3679
g53
F0.8437
tp3680
asI516
(lp3681
(g201
g3
F0.953
tp3682
a(g203
g6
F0.9791
tp3683
a(S'stop'
p3684
g6
F0.986
tp3685
a(S'the'
p3686
g210
F0.9871
tp3687
a(S'eating'
p3688
g6
F0.5748
tp3689
asI517
(lp3690
(S'baby'
p3691
g30
F0.8562
tp3692
a(S'you'
p3693
g3
F0.9915
tp3694
a(S'are'
p3695
g6
F0.9998
tp3696
a(g500
g210
F0.8905
tp3697
a(S'mean'
p3698
g27
F0.9512
tp3699
a(S'boy'
p3700
g30
F0.995
tp3701
asI518
(lp3702
(S'zzz'
p3703
g67
F0.361
tp3704
asI519
(lp3705
(g201
g3
F0.9912
tp3706
a(S'know'
p3707
g6
F0.9989
tp3708
asI520
(lp3709
(S'xxx'
p3710
g53
F0.8437
tp3711
asI521
(lp3712
(S'zzz'
p3713
g67
F0.361
tp3714
asI522
(lp3715
(S'xxx'
p3716
g53
F0.706
tp3717
a(S'look'
p3718
g6
F0.9388
tp3719
a(S'at'
p3720
g154
F0.9932
tp3721
a(S'baby'
p3722
g30
F0.9771
tp3723
a(S'he'
p3724
g3
F0.9796
tp3725
a(S'like'
p3726
g6
F0.8139
tp3727
a(S'that'
p3728
g210
F0.7381
tp3729
a(S'part'
p3730
g30
F0.9949
tp3731
asI523
(lp3732
(S'zzz'
p3733
g67
F0.361
tp3734
asI524
(lp3735
(S'hm'
p3736
g67
F0.995
tp3737
asI525
(lp3738
(S'xxx'
p3739
g53
F0.8437
tp3740
asI526
(lp3741
(S'xxx'
p3742
g53
F0.7728
tp3743
a(g201
g3
F0.9759
tp3744
a(S'picked'
p3745
g6
F1.0
tp3746
a(S'up'
p3747
g56
F0.9454
tp3748
a(S'my'
p3749
g210
F0.9987
tp3750
a(S'own'
p3751
g27
F0.7989
tp3752
a(S'meat'
p3753
g30
F0.9855
tp3754
asI527
(lp3755
(S'xxx'
p3756
g53
F0.7701
tp3757
a(S'he'
p3758
g3
F0.99
tp3759
a(S'like'
p3760
g6
F0.9253
tp3761
a(S'it'
p3762
g3
F0.9983
tp3763
asI528
(lp3764
(S'zzz'
p3765
g67
F0.361
tp3766
asI529
(lp3767
(S'zzz'
p3768
g67
F0.361
tp3769
asI530
(lp3770
(S'xxx'
p3771
g53
F0.8437
tp3772
asI531
(lp3773
(S'zzz'
p3774
g67
F0.361
tp3775
asI532
(lp3776
(S'xxx'
p3777
g53
F0.8437
tp3778
asI533
(lp3779
(S'you'
p3780
g3
F0.9829
tp3781
a(S'too'
p3782
g9
F0.9309
tp3783
a(S'baby'
p3784
g30
F0.8989
tp3785
asI534
(lp3786
(S'zzz'
p3787
g67
F0.361
tp3788
asI535
(lp3789
(S'you'
p3790
g3
F0.9829
tp3791
a(S'too'
p3792
g9
F0.9309
tp3793
a(S'baby'
p3794
g30
F0.8989
tp3795
asI536
(lp3796
(S'xxx'
p3797
g53
F0.8437
tp3798
asI537
(lp3799
(S'okay'
p3800
g67
F0.8537
tp3801
a(S'junior'
p3802
g30
F0.636
tp3803
asI538
(lp3804
(S'zzz'
p3805
g67
F0.361
tp3806
asI539
(lp3807
(S'zzz'
p3808
g67
F0.361
tp3809
asI540
(lp3810
(S'zzz'
p3811
g67
F0.361
tp3812
asI541
(lp3813
(S'zzz'
p3814
g67
F0.361
tp3815
asI542
(lp3816
(S'zzz'
p3817
g67
F0.361
tp3818
asI543
(lp3819
(S'zzz'
p3820
g67
F0.361
tp3821
asI544
(lp3822
(S'mosquito'
p3823
g30
F0.9301
tp3824
asI545
(lp3825
(S'zzz'
p3826
g67
F0.361
tp3827
asI546
(lp3828
(S'pepper'
p3829
g30
F0.506
tp3830
asI547
(lp3831
(S'zzz'
p3832
g67
F0.361
tp3833
asI548
(lp3834
(S'xxx'
p3835
g53
F0.8437
tp3836
asI549
(lp3837
(S'xxx'
p3838
g53
F0.8437
tp3839
asI550
(lp3840
(S'don'
p3841
g16
F0.5427
tp3842
a(g236
g16
F0.4636
tp3843
a(S'start'
p3844
g6
F0.9712
tp3845
a(S'with'
p3846
g154
F0.9953
tp3847
a(S'that'
p3848
g3
F0.7885
tp3849
asI551
(lp3850
(S'xxx'
p3851
g53
F0.8437
tp3852
asI552
(lp3853
(S'xxx'
p3854
g53
F0.8437
tp3855
asI553
(lp3856
(S'xxx'
p3857
g53
F0.8437
tp3858
asI554
(lp3859
(S'don'
p3860
g16
F0.5427
tp3861
a(g236
g16
F0.4566
tp3862
a(S'push'
p3863
g6
F0.8273
tp3864
a(S'back'
p3865
g9
F0.4512
tp3866
a(S'my'
p3867
g210
F0.9986
tp3868
a(S'hands'
p3869
g30
F0.9973
tp3870
asI555
(lp3871
(S'young'
p3872
g27
F0.9858
tp3873
a(S'man'
p3874
g30
F0.9166
tp3875
asI556
(lp3876
(S'zzz'
p3877
g67
F0.361
tp3878
asI557
(lp3879
(S'here'
p3880
g9
F0.9592
tp3881
a(S'just'
p3882
g9
F0.9924
tp3883
a(S'one'
p3884
g413
F0.9186
tp3885
a(S'second'
p3886
g27
F0.8591
tp3887
asI558
(lp3888
(g201
g3
F0.9908
tp3889
a(S'know'
p3890
g6
F0.9999
tp3891
a(S'you'
p3892
g3
F0.9987
tp3893
a(S'wan'
p3894
g27
F0.4965
tp3895
a(g236
g169
F0.3694
tp3896
a(g236
g169
F0.8068
tp3897
a(g500
g210
F0.8985
tp3898
a(S'get'
p3899
g30
F0.4825
tp3900
a(S'into'
p3901
g154
F0.9995
tp3902
a(S'my'
p3903
g210
F0.9973
tp3904
a(S'food'
p3905
g30
F0.9944
tp3906
a(S'but'
p3907
g45
F0.9772
tp3908
a(S'you'
p3909
g3
F0.9972
tp3910
a(S're'
p3911
g6
F0.7653
tp3912
a(S'not'
p3913
g9
F0.9969
tp3914
a(S'going'
p3915
g6
F0.9993
tp3916
a(S'to'
p3917
g154
F0.9076
tp3918
asI559
(lp3919
(S'uh'
p3920
g67
F0.9927
tp3921
asI560
(lp3922
(S'you'
p3923
g3
F0.9754
tp3924
a(S're'
p3925
g6
F0.9434
tp3926
a(g500
g210
F0.9004
tp3927
a(S'mean'
p3928
g27
F0.9489
tp3929
a(S'boy'
p3930
g30
F0.992
tp3931
asI561
(lp3932
(S'he'
p3933
g3
F0.998
tp3934
a(S'is'
p3935
g6
F0.9997
tp3936
asI562
(lp3937
(g201
g3
F0.9912
tp3938
a(S'know'
p3939
g6
F0.9989
tp3940
asI563
(lp3941
(S'uh'
p3942
g67
F0.9927
tp3943
asI564
(lp3944
(S'okay'
p3945
g67
F0.9857
tp3946
asI565
(lp3947
(S'one'
p3948
g413
F0.9496
tp3949
a(S'two'
p3950
g413
F0.9625
tp3951
a(S'good'
p3952
g27
F0.99
tp3953
asI566
(lp3954
(S'do'
p3955
g6
F0.9944
tp3956
a(S'good'
p3957
g27
F0.9894
tp3958
a(S'do'
p3959
g30
F0.5558
tp3960
a(S'xxx'
p3961
g53
F0.7648
tp3962
asI567
(lp3963
(S'uh'
p3964
g67
F0.9927
tp3965
asI568
(lp3966
(S'go'
p3967
g6
F0.9607
tp3968
a(S'play'
p3969
g6
F0.8782
tp3970
asI569
(lp3971
(S'go'
p3972
g6
F0.9607
tp3973
a(S'play'
p3974
g6
F0.8782
tp3975
asI570
(lp3976
(S'go'
p3977
g6
F0.9607
tp3978
a(S'play'
p3979
g6
F0.8782
tp3980
asI571
(lp3981
(S'go'
p3982
g6
F0.9607
tp3983
a(S'play'
p3984
g6
F0.8782
tp3985
asI572
(lp3986
(S'look'
p3987
g6
F0.9135
tp3988
a(S'at'
p3989
g154
F0.999
tp3990
a(S'your'
p3991
g210
F0.9976
tp3992
a(S'shoes'
p3993
g30
F0.999
tp3994
asI573
(lp3995
(S'shoes'
p3996
g30
F0.9737
tp3997
asI574
(lp3998
(S'look'
p3999
g6
F0.88
tp4000
a(S'at'
p4001
g154
F0.9936
tp4002
a(S'shoes'
p4003
g30
F0.9746
tp4004
asI575
(lp4005
(S'uh'
p4006
g67
F0.9927
tp4007
asI576
(lp4008
(S'go'
p4009
g6
F0.966
tp4010
a(S'bring'
p4011
g6
F0.999
tp4012
a(S'your'
p4013
g210
F0.9967
tp4014
a(S'shoes'
p4015
g30
F0.9989
tp4016
a(S'for'
p4017
g154
F0.9983
tp4018
a(S'daddy'
p4019
g30
F0.9833
tp4020
asI577
(lp4021
(S'zzz'
p4022
g67
F0.361
tp4023
asI578
(lp4024
(S'bring'
p4025
g6
F0.9956
tp4026
a(S'shoes'
p4027
g30
F0.9892
tp4028
asI579
(lp4029
(S'xxx'
p4030
g53
F0.5839
tp4031
a(S'your'
p4032
g210
F0.925
tp4033
a(S'food'
p4034
g30
F0.9989
tp4035
asI580
(lp4036
(S'uh'
p4037
g67
F0.9927
tp4038
asI581
(lp4039
(S'zzz'
p4040
g67
F0.361
tp4041
asI582
(lp4042
(S'xxx'
p4043
g53
F0.6618
tp4044
a(S'food'
p4045
g30
F0.9469
tp4046
a(S'aimee'
p4047
g30
F0.3616
tp4048
asI583
(lp4049
(S'uhuh'
p4050
g67
F0.9919
tp4051
asI584
(lp4052
(S'xxx'
p4053
g53
F0.8437
tp4054
asI585
(lp4055
(S'zzz'
p4056
g67
F0.361
tp4057
asI586
(lp4058
(S'xxx'
p4059
g53
F0.8437
tp4060
asI587
(lp4061
(S'how'
p4062
g9
F0.9802
tp4063
a(S'come'
p4064
g6
F0.9993
tp4065
a(S'you'
p4066
g3
F0.9967
tp4067
a(S're'
p4068
g6
F0.6029
tp4069
a(S'not'
p4070
g9
F0.9996
tp4071
a(S'hungry'
p4072
g27
F0.9058
tp4073
asI588
(lp4074
(S'zzz'
p4075
g67
F0.361
tp4076
asI589
(lp4077
(S'xxx'
p4078
g53
F0.8437
tp4079
asI590
(lp4080
(S'that'
p4081
g3
F0.8288
tp4082
a(S'was'
p4083
g6
F0.9975
tp4084
a(S'xxx'
p4085
g53
F0.3507
tp4086
a(S'this'
p4087
g210
F0.9731
tp4088
a(S'afternoon'
p4089
g30
F0.9969
tp4090
asI591
(lp4091
(S'zzz'
p4092
g67
F0.361
tp4093
asI592
(lp4094
(S'xxx'
p4095
g53
F0.8437
tp4096
asI593
(lp4097
(S'zzz'
p4098
g67
F0.361
tp4099
asI594
(lp4100
(S'here'
p4101
g9
F0.7796
tp4102
asI595
(lp4103
(S'zzz'
p4104
g67
F0.361
tp4105
asI596
(lp4106
(S'zzz'
p4107
g67
F0.361
tp4108
asI597
(lp4109
(S'xxx'
p4110
g53
F0.8437
tp4111
asI598
(lp4112
(S'eat'
p4113
g6
F0.9147
tp4114
a(S'eat'
p4115
g6
F0.917
tp4116
a(S'eat'
p4117
g6
F0.9912
tp4118
a(S'your'
p4119
g210
F0.9883
tp4120
a(S'applesauce'
p4121
g30
F0.9784
tp4122
asI599
(lp4123
(S'zzz'
p4124
g67
F0.361
tp4125
asI600
(lp4126
(S'but'
p4127
g45
F0.9948
tp4128
a(g201
g3
F0.9897
tp4129
a(S'like'
p4130
g6
F0.9319
tp4131
a(S'it'
p4132
g3
F0.9983
tp4133
asI601
(lp4134
(S'zzz'
p4135
g67
F0.361
tp4136
asI602
(lp4137
(S'you'
p4138
g3
F0.9876
tp4139
a(S'like'
p4140
g6
F0.8738
tp4141
a(S'it'
p4142
g3
F0.9985
tp4143
asI603
(lp4144
(S'uhhuh'
p4145
g67
F0.9892
tp4146
asI604
(lp4147
(S'zzz'
p4148
g67
F0.361
tp4149
asI605
(lp4150
(S'baby'
p4151
g30
F0.9007
tp4152
asI606
(lp4153
(S'zzz'
p4154
g67
F0.361
tp4155
asI607
(lp4156
(S'hm'
p4157
g67
F0.995
tp4158
asI608
(lp4159
(g201
g3
F0.953
tp4160
a(g203
g6
F0.9832
tp4161
a(S'eatin'
p4162
g6
F0.794
tp4163
a(g29
g30
F0.4665
tp4164
a(S'dinner'
p4165
g30
F0.9644
tp4166
asI609
(lp4167
(g201
g3
F0.9897
tp4168
a(S'want'
p4169
g6
F0.9999
tp4170
a(S'that'
p4171
g210
F0.7642
tp4172
a(S'water'
p4173
g30
F0.9966
tp4174
asI610
(lp4175
(S'xxx'
p4176
g53
F0.8437
tp4177
asI611
(lp4178
(S'hm'
p4179
g67
F0.995
tp4180
asI612
(lp4181
(S'xxx'
p4182
g53
F0.8437
tp4183
asI613
(lp4184
(S'xxx'
p4185
g53
F0.8437
tp4186
asI614
(lp4187
(S'it'
p4188
g3
F0.9858
tp4189
a(g5
g6
F0.4689
tp4190
a(S'hot'
p4191
g27
F0.9497
tp4192
asI615
(lp4193
(S'need'
p4194
g6
F0.9877
tp4195
a(S'some'
p4196
g210
F0.9885
tp4197
a(S'water'
p4198
g30
F0.9929
tp4199
a(S'xxx'
p4200
g53
F0.7456
tp4201
asI616
(lp4202
(g201
g3
F0.9897
tp4203
a(S'want'
p4204
g6
F1.0
tp4205
a(S'some'
p4206
g210
F0.9924
tp4207
a(S'water'
p4208
g30
F0.9908
tp4209
a(S'xxx'
p4210
g53
F0.7769
tp4211
asI617
(lp4212
(S'zzz'
p4213
g67
F0.361
tp4214
asI618
(lp4215
(S'xxx'
p4216
g53
F0.6216
tp4217
a(S'must'
p4218
g6
F0.9605
tp4219
a(S'ha'
p4220
g67
F0.8504
tp4221
a(S've'
p4222
g16
F0.2029
tp4223
a(S'been'
p4224
g6
F0.9035
tp4225
a(S'xxx'
p4226
g53
F0.7542
tp4227
asI619
(lp4228
(S'xxx'
p4229
g53
F0.8437
tp4230
asI620
(lp4231
(S'zzz'
p4232
g67
F0.361
tp4233
asI621
(lp4234
(S'zzz'
p4235
g67
F0.361
tp4236
asI622
(lp4237
(S'zzz'
p4238
g67
F0.361
tp4239
asI623
(lp4240
(S'xxx'
p4241
g53
F0.8437
tp4242
asI624
(lp4243
(S'uh'
p4244
g67
F0.9927
tp4245
asI625
(lp4246
(S'ome'
p4247
g67
F0.3523
tp4248
a(g299
g6
F0.4593
tp4249
asI626
(lp4250
(S'ome'
p4251
g67
F0.3523
tp4252
a(g299
g6
F0.4593
tp4253
asI627
(lp4254
(S'huh'
p4255
g67
F0.993
tp4256
asI628
(lp4257
(S'xxx'
p4258
g53
F0.8437
tp4259
asI629
(lp4260
(S'xxx'
p4261
g53
F0.8437
tp4262
asI630
(lp4263
(S'can'
p4264
g6
F0.999
tp4265
a(S'you'
p4266
g3
F0.9981
tp4267
a(S'wait'
p4268
g6
F0.9998
tp4269
a(S'outside'
p4270
g9
F0.3956
tp4271
a(S'for'
p4272
g154
F0.9987
tp4273
a(S'me'
p4274
g3
F0.999
tp4275
asI631
(lp4276
(S'zzz'
p4277
g67
F0.361
tp4278
asI632
(lp4279
(S'what'
p4280
g3
F0.8373
tp4281
a(S'kind'
p4282
g30
F0.9635
tp4283
a(S'of'
p4284
g154
F0.9928
tp4285
a(S'xxx'
p4286
g30
F0.3865
tp4287
a(S'is'
p4288
g6
F0.9997
tp4289
a(S'this'
p4290
g3
F0.7713
tp4291
asI633
(lp4292
(S'nobody'
p4293
g30
F0.8693
tp4294
a(S'ain'
p4295
g6
F0.7464
tp4296
a(g236
g6
F0.6668
tp4297
a(S'nobody'
p4298
g30
F0.8373
tp4299
a(S'ain'
p4300
g6
F0.7148
tp4301
a(g236
g169
F0.5158
tp4302
a(S'xxx'
p4303
g53
F0.4348
tp4304
a(S'food'
p4305
g30
F0.9634
tp4306
a(S'there'
p4307
g9
F0.8171
tp4308
asI634
(lp4309
(S'be'
p4310
g6
F0.9727
tp4311
a(S'cause'
p4312
g154
F0.822
tp4313
a(S'nobody'
p4314
g30
F0.9258
tp4315
a(S'like'
p4316
g154
F0.9429
tp4317
a(S'it'
p4318
g3
F0.9986
tp4319
asI635
(lp4320
(S'nobody'
p4321
g30
F0.8478
tp4322
asI636
(lp4323
(S'look'
p4324
g6
F0.9901
tp4325
a(S'it'
p4326
g3
F0.9961
tp4327
asI637
(lp4328
(S'xxx'
p4329
g53
F0.8437
tp4330
asI638
(lp4331
(S'xxx'
p4332
g53
F0.8437
tp4333
asI639
(lp4334
(S'daddy'
p4335
g30
F0.9775
tp4336
a(S'make'
p4337
g6
F0.9965
tp4338
a(S'your'
p4339
g210
F0.9939
tp4340
a(S'food'
p4341
g30
F0.9867
tp4342
a(S'one'
p4343
g413
F0.9484
tp4344
a(S'more'
p4345
g27
F0.7314
tp4346
a(S'xxx'
p4347
g53
F0.7739
tp4348
asI640
(lp4349
(S'zzz'
p4350
g67
F0.361
tp4351
asI641
(lp4352
(S'xxx'
p4353
g53
F0.8437
tp4354
asI642
(lp4355
(S'xxx'
p4356
g53
F0.8437
tp4357
asI643
(lp4358
(S'xxx'
p4359
g53
F0.6911
tp4360
a(S'stop'
p4361
g6
F0.963
tp4362
a(S'tapping'
p4363
g6
F0.9951
tp4364
a(S'on'
p4365
g154
F0.9756
tp4366
a(S'the'
p4367
g210
F0.9993
tp4368
a(S'table'
p4369
g30
F0.9925
tp4370
asI644
(lp4371
(S'xxx'
p4372
g53
F0.5852
tp4373
a(S'that'
p4374
g3
F0.6963
tp4375
asI645
(lp4376
(S'that'
p4377
g3
F0.473
tp4378
a(g5
g6
F0.7675
tp4379
a(S'you'
p4380
g3
F0.9986
tp4381
a(S'too'
p4382
g9
F0.9886
tp4383
asI646
(lp4384
(S'xxx'
p4385
g53
F0.8437
tp4386
asI647
(lp4387
(S'oh'
p4388
g67
F0.9979
tp4389
a(S'oh'
p4390
g67
F0.9994
tp4391
a(S'oh'
p4392
g67
F0.9994
tp4393
asI648
(lp4394
(S'oh'
p4395
g67
F0.9979
tp4396
a(S'oh'
p4397
g67
F0.9994
tp4398
a(S'oh'
p4399
g67
F0.9994
tp4400
asI649
(lp4401
(S'zzz'
p4402
g67
F0.361
tp4403
asI650
(lp4404
(S'no'
p4405
g67
F0.7822
tp4406
a(S'no'
p4407
g67
F0.8036
tp4408
asI651
(lp4409
(S'zzz'
p4410
g67
F0.361
tp4411
asI652
(lp4412
(S'why'
p4413
g9
F0.9573
tp4414
a(S'you'
p4415
g3
F0.9994
tp4416
a(S'can'
p4417
g6
F0.9994
tp4418
a(g236
g6
F0.7393
tp4419
a(S'do'
p4420
g6
F0.9985
tp4421
a(S'that'
p4422
g3
F0.856
tp4423
asI653
(lp4424
(S'zzz'
p4425
g67
F0.361
tp4426
asI654
(lp4427
(g929
g9
F0.5389
tp4428
a(S'all'
p4429
g210
F0.8146
tp4430
a(g15
g30
F0.4563
tp4431
a(S'had'
p4432
g6
F0.9941
tp4433
a(S'enough'
p4434
g9
F0.4569
tp4435
asI655
(lp4436
(S'zzz'
p4437
g67
F0.361
tp4438
asI656
(lp4439
(g929
g9
F0.5389
tp4440
a(S'all'
p4441
g210
F0.8146
tp4442
a(g15
g16
F0.3854
tp4443
a(S'had'
p4444
g6
F0.9941
tp4445
a(S'enough'
p4446
g9
F0.6536
tp4447
a(S'to'
p4448
g154
F0.9976
tp4449
a(S'eat'
p4450
g6
F0.9911
tp4451
asI657
(lp4452
(S'zzz'
p4453
g67
F0.361
tp4454
asI658
(lp4455
(S'don'
p4456
g16
F0.5427
tp4457
a(g236
g16
F0.4522
tp4458
a(S'throw'
p4459
g6
F0.9028
tp4460
a(S'away'
p4461
g9
F0.889
tp4462
a(S'that'
p4463
g210
F0.6486
tp4464
a(S'milk'
p4465
g30
F0.9972
tp4466
asI659
(lp4467
(S'xxx'
p4468
g53
F0.593
tp4469
a(S'bottle'
p4470
g30
F0.8965
tp4471
asI660
(lp4472
(S'what'
p4473
g3
F0.9493
tp4474
a(g15
g30
F0.3208
tp4475
a(S'id'
p4476
g6
F0.5369
tp4477
a(S'you'
p4478
g3
F0.9993
tp4479
a(S'do'
p4480
g6
F0.9998
tp4481
a(S'in'
p4482
g154
F0.9425
tp4483
a(S'school'
p4484
g30
F0.9972
tp4485
a(S'today'
p4486
g30
F0.996
tp4487
asI661
(lp4488
(S'what'
p4489
g3
F0.949
tp4490
asI662
(lp4491
(S'what'
p4492
g3
F0.9493
tp4493
a(g15
g30
F0.3208
tp4494
a(S'id'
p4495
g6
F0.5369
tp4496
a(S'you'
p4497
g3
F0.9993
tp4498
a(S'do'
p4499
g6
F0.9998
tp4500
a(S'in'
p4501
g154
F0.9425
tp4502
a(S'school'
p4503
g30
F0.9972
tp4504
a(S'today'
p4505
g30
F0.996
tp4506
asI663
(lp4507
(g201
g3
F0.8683
tp4508
a(S'color'
p4509
g6
F0.817
tp4510
asI664
(lp4511
(g201
g3
F0.9888
tp4512
a(S'went'
p4513
g6
F0.9998
tp4514
a(S'outside'
p4515
g9
F0.7291
tp4516
a(S'to'
p4517
g154
F0.9993
tp4518
a(S'the'
p4519
g210
F0.999
tp4520
a(S'park'
p4521
g30
F0.7812
tp4522
asI665
(lp4523
(S'went'
p4524
g6
F0.9828
tp4525
a(S'walking'
p4526
g6
F0.9389
tp4527
asI666
(lp4528
(S'went'
p4529
g6
F0.9959
tp4530
a(S'out'
p4531
g56
F0.6753
tp4532
a(S'wi'
p4533
g16
F0.7179
tp4534
a(S'th'
p4535
g169
F0.5305
tp4536
a(S'um'
p4537
g169
F0.5548
tp4538
a(S'wi'
p4539
g169
F0.573
tp4540
a(S'th'
p4541
g169
F0.812
tp4542
a(S'xxx'
p4543
g169
F0.4738
tp4544
a(S'for'
p4545
g154
F0.9989
tp4546
a(g500
g210
F0.9866
tp4547
a(S'walk'
p4548
g30
F0.9558
tp4549
a(S'and'
p4550
g45
F0.9953
tp4551
a(S'xxx'
p4552
g53
F0.6714
tp4553
asI667
(lp4554
(S'xxx'
p4555
g53
F0.589
tp4556
a(S'something'
p4557
g30
F0.9826
tp4558
asI668
(lp4559
(S'eat'
p4560
g6
F0.9893
tp4561
a(S'your'
p4562
g210
F0.9935
tp4563
a(S'food'
p4564
g30
F0.9989
tp4565
asI669
(lp4566
(S'eat'
p4567
g6
F0.9893
tp4568
a(S'your'
p4569
g210
F0.9935
tp4570
a(S'food'
p4571
g30
F0.9989
tp4572
asI670
(lp4573
(g201
g3
F0.9914
tp4574
a(S'was'
p4575
g6
F0.9999
tp4576
a(S'home'
p4577
g30
F0.6818
tp4578
a(S'all'
p4579
g210
F0.9902
tp4580
a(S'day'
p4581
g30
F0.9939
tp4582
asI671
(lp4583
(S'eat'
p4584
g6
F0.9893
tp4585
a(S'your'
p4586
g210
F0.9935
tp4587
a(S'food'
p4588
g30
F0.9989
tp4589
asI672
(lp4590
(S'be'
p4591
g6
F0.9727
tp4592
a(S'cause'
p4593
g154
F0.949
tp4594
a(S'my'
p4595
g210
F0.9975
tp4596
a(S'arm'
p4597
g30
F0.9903
tp4598
a(S'it'
p4599
g3
F0.9854
tp4600
a(S'itches'
p4601
g6
F0.9999
tp4602
a(S'me'
p4603
g3
F0.9981
tp4604
asI673
(lp4605
(S'aimee'
p4606
g16
F0.9553
tp4607
a(S'hurry'
p4608
g6
F0.9707
tp4609
a(S'up'
p4610
g56
F0.9937
tp4611
asI674
(lp4612
(S'xxx'
p4613
g53
F0.5309
tp4614
a(S'my'
p4615
g210
F0.9959
tp4616
a(S'arm'
p4617
g30
F0.9991
tp4618
a(S'is'
p4619
g6
F0.9931
tp4620
a(S'itching'
p4621
g6
F0.9871
tp4622
a(S'xxx'
p4623
g53
F0.8139
tp4624
asI675
(lp4625
(S'yeah'
p4626
g67
F0.9962
tp4627
a(S'but'
p4628
g45
F0.9927
tp4629
a(S'you'
p4630
g3
F0.9991
tp4631
a(S'don'
p4632
g6
F0.8611
tp4633
a(g236
g169
F0.2554
tp4634
a(S'need'
p4635
g6
F0.9958
tp4636
a(S'your'
p4637
g210
F0.9906
tp4638
a(S'arms'
p4639
g30
F0.9971
tp4640
a(S'for'
p4641
g154
F0.9998
tp4642
a(S'eating'
p4643
g6
F0.9885
tp4644
a(S'food'
p4645
g30
F0.9932
tp4646
asI676
(lp4647
(S'you'
p4648
g3
F0.998
tp4649
a(S'got'
p4650
g6
F0.9993
tp4651
a(S'ta'
p4652
g154
F0.912
tp4653
a(S'go'
p4654
g6
F0.9746
tp4655
a(S'to'
p4656
g154
F0.9838
tp4657
a(S'bed'
p4658
g30
F0.6178
tp4659
a(S'be'
p4660
g6
F0.9789
tp4661
a(S'cause'
p4662
g154
F0.9396
tp4663
a(S'you'
p4664
g3
F0.9996
tp4665
a(S'got'
p4666
g6
F0.9994
tp4667
a(S'ta'
p4668
g154
F0.9416
tp4669
a(S'go'
p4670
g6
F0.9759
tp4671
a(S'to'
p4672
g154
F0.9843
tp4673
a(S'school'
p4674
g30
F0.9404
tp4675
a(S'tomorrow'
p4676
g30
F0.9798
tp4677
asI677
(lp4678
(S'and'
p4679
g45
F0.9994
tp4680
a(S'it'
p4681
g3
F0.9971
tp4682
a(g5
g6
F0.7392
tp4683
a(g500
g210
F0.9954
tp4684
a(S'bit'
p4685
g30
F0.5956
tp4686
a(S'past'
p4687
g27
F0.4222
tp4688
a(S'your'
p4689
g210
F0.948
tp4690
a(S'bedtime'
p4691
g30
F0.9988
tp4692
a(S'so'
p4693
g154
F0.8811
tp4694
a(S'hurry'
p4695
g6
F0.9399
tp4696
a(S'up'
p4697
g56
F0.9882
tp4698
asI678
(lp4699
(S'zzz'
p4700
g67
F0.361
tp4701
asI679
(lp4702
(S'xxx'
p4703
g53
F0.8437
tp4704
asI680
(lp4705
(S'xxx'
p4706
g53
F0.8437
tp4707
asI681
(lp4708
(S'why'
p4709
g9
F0.9294
tp4710
a(S'have'
p4711
g6
F0.9984
tp4712
a(S'you'
p4713
g3
F0.998
tp4714
a(S'xxx'
p4715
g6
F0.9137
tp4716
a(S'it'
p4717
g3
F0.9897
tp4718
asI682
(lp4719
(S'mm'
p4720
g67
F0.627
tp4721
asI683
(lp4722
(g201
g3
F0.953
tp4723
a(g203
g6
F0.9849
tp4724
a(S'through'
p4725
g154
F0.8835
tp4726
a(S'mom'
p4727
g30
F0.9473
tp4728
asI684
(lp4729
(S'you'
p4730
g3
F0.9845
tp4731
a(S'drink'
p4732
g6
F0.997
tp4733
a(S'any'
p4734
g210
F0.9901
tp4735
a(S'milk'
p4736
g30
F0.9987
tp4737
asI685
(lp4738
(S'what'
p4739
g3
F0.949
tp4740
asI686
(lp4741
(S'you'
p4742
g3
F0.9845
tp4743
a(S'drink'
p4744
g6
F0.997
tp4745
a(S'any'
p4746
g210
F0.9901
tp4747
a(S'milk'
p4748
g30
F0.9987
tp4749
asI687
(lp4750
(S'zzz'
p4751
g67
F0.361
tp4752
asI688
(lp4753
(S'uh'
p4754
g67
F0.9927
tp4755
asI689
(lp4756
(S'uhuh'
p4757
g67
F0.9919
tp4758
asI690
(lp4759
(g201
g3
F0.953
tp4760
a(g203
g6
F0.9551
tp4761
a(S'gonna'
p4762
g6
F0.9871
tp4763
a(S'xxx'
p4764
g53
F0.6716
tp4765
asI691
(lp4766
(S'xxx'
p4767
g53
F0.8437
tp4768
asI692
(lp4769
(S'xxx'
p4770
g53
F0.8437
tp4771
asI693
(lp4772
(S'xxx'
p4773
g53
F0.5309
tp4774
a(S'my'
p4775
g210
F0.9947
tp4776
a(S'stomach'
p4777
g30
F0.9994
tp4778
a(S'hurts'
p4779
g6
F0.936
tp4780
asI694
(lp4781
(S'xxx'
p4782
g53
F0.7728
tp4783
a(g201
g3
F0.9854
tp4784
a(S'have'
p4785
g6
F0.9998
tp4786
a(S'to'
p4787
g154
F0.9894
tp4788
a(S'go'
p4789
g6
F0.9993
tp4790
a(S'to'
p4791
g154
F0.9984
tp4792
a(S'the'
p4793
g210
F0.999
tp4794
a(S'bath'
p4795
g30
F0.9941
tp4796
a(S'room'
p4797
g30
F0.9916
tp4798
asI695
(lp4799
(S'you'
p4800
g3
F0.995
tp4801
a(S'always'
p4802
g9
F0.9894
tp4803
a(S'say'
p4804
g6
F0.9991
tp4805
a(S'your'
p4806
g210
F0.9902
tp4807
a(S'stomach'
p4808
g30
F0.9992
tp4809
a(S'hurts'
p4810
g6
F0.9638
tp4811
asI696
(lp4812
(S'eat'
p4813
g6
F0.9893
tp4814
a(S'your'
p4815
g210
F0.9935
tp4816
a(S'food'
p4817
g30
F0.9989
tp4818
asI697
(lp4819
(S'but'
p4820
g45
F0.9927
tp4821
a(S'my'
p4822
g210
F0.996
tp4823
a(S'stomach'
p4824
g30
F0.9994
tp4825
a(S'hurts'
p4826
g6
F0.936
tp4827
asI698
(lp4828
(S'you'
p4829
g3
F0.995
tp4830
a(S'always'
p4831
g9
F0.995
tp4832
a(S'keep'
p4833
g6
F0.9819
tp4834
a(S'saying'
p4835
g6
F0.9751
tp4836
a(S'xxx'
p4837
g53
F0.7797
tp4838
asI699
(lp4839
(S'xxx'
p4840
g53
F0.6365
tp4841
a(S'has'
p4842
g6
F0.9851
tp4843
a(S'food'
p4844
g30
F0.991
tp4845
a(S'tonight'
p4846
g30
F0.8329
tp4847
asI700
(lp4848
(S'xxx'
p4849
g53
F0.8437
tp4850
asI701
(lp4851
(S'huh'
p4852
g67
F0.993
tp4853
asI702
(lp4854
(S'uhhuh'
p4855
g67
F0.9892
tp4856
asI703
(lp4857
(S'yeah'
p4858
g67
F0.9944
tp4859
a(S'mommy'
p4860
g30
F0.5004
tp4861
asI704
(lp4862
(S'yeah'
p4863
g67
F0.9944
tp4864
a(S'mommy'
p4865
g30
F0.5004
tp4866
asI705
(lp4867
(S'mommy'
p4868
g30
F0.7607
tp4869
a(g201
g3
F0.9213
tp4870
a(S'eat'
p4871
g6
F0.9998
tp4872
a(S'all'
p4873
g210
F0.6128
tp4874
a(S'my'
p4875
g210
F0.998
tp4876
a(S'food'
p4877
g30
F0.9976
tp4878
asI706
(lp4879
(S'but'
p4880
g45
F0.9944
tp4881
a(g201
g3
F0.9984
tp4882
a(S'did'
p4883
g6
F0.9996
tp4884
asI707
(lp4885
(g201
g3
F0.9948
tp4886
a(S'did'
p4887
g6
F0.9993
tp4888
asI708
(lp4889
(g201
g3
F0.9861
tp4890
a(S'eat'
p4891
g6
F0.9971
tp4892
a(S'xxx'
p4893
g53
F0.6371
tp4894
asI709
(lp4895
(g201
g3
F0.9861
tp4896
a(S'eat'
p4897
g6
F0.9971
tp4898
a(S'xxx'
p4899
g53
F0.6371
tp4900
asI710
(lp4901
(S'mommy'
p4902
g30
F0.7607
tp4903
a(g201
g3
F0.8265
tp4904
a(g203
g6
F0.9772
tp4905
a(S'not'
p4906
g9
F0.9995
tp4907
a(S'hungry'
p4908
g27
F0.8627
tp4909
asI711
(lp4910
(S'xxx'
p4911
g53
F0.8437
tp4912
asI712
(lp4913
(S'mommy'
p4914
g30
F0.5271
tp4915
asI713
(lp4916
(S'mommy'
p4917
g30
F0.8045
tp4918
a(g201
g3
F0.8664
tp4919
a(S'xxx'
p4920
g53
F0.5578
tp4921
asI714
(lp4922
(S'xxx'
p4923
g53
F0.8437
tp4924
asI715
(lp4925
(g201
g3
F0.9818
tp4926
a(S'still'
p4927
g9
F0.9867
tp4928
a(S'got'
p4929
g6
F0.992
tp4930
a(S'xxx'
p4931
g53
F0.5297
tp4932
a(S'mommy'
p4933
g30
F0.616
tp4934
asI716
(lp4935
(S'uhhuh'
p4936
g67
F0.9892
tp4937
asI717
(lp4938
(S'may'
p4939
g6
F0.6073
tp4940
a(g201
g3
F0.9927
tp4941
a(S'have'
p4942
g6
F0.9999
tp4943
a(S'some'
p4944
g210
F0.9291
tp4945
asI718
(lp4946
(S'xxx'
p4947
g53
F0.8437
tp4948
asI719
(lp4949
(S'xxx'
p4950
g53
F0.8437
tp4951
asI720
(lp4952
(S'xxx'
p4953
g53
F0.8437
tp4954
asI721
(lp4955
(S'xxx'
p4956
g53
F0.8437
tp4957
asI722
(lp4958
(S'xxx'
p4959
g53
F0.8437
tp4960
asI723
(lp4961
(S'xxx'
p4962
g53
F0.8437
tp4963
asI724
(lp4964
(S'xxx'
p4965
g53
F0.8437
tp4966
asI725
(lp4967
(S'nobody'
p4968
g30
F0.9068
tp4969
a(S'xxx'
p4970
g53
F0.774
tp4971
asI726
(lp4972
(S'zzz'
p4973
g67
F0.361
tp4974
asI727
(lp4975
(S'xxx'
p4976
g53
F0.8437
tp4977
as.