(dp0
I16
(lp1
(S'they'
p2
S'O'
p3
F0.9928
tp4
a(S'said'
p5
S'V'
p6
F0.9995
tp7
a(S'no'
p8
S'!'
p9
F0.9437
tp10
a(S'.'
p11
S','
p12
F0.9991
tp13
asI20
(lp14
(S'is'
p15
g6
F0.9955
tp16
a(S'there'
p17
S'X'
p18
F0.9284
tp19
a(S'a'
p20
S'D'
p21
F0.9787
tp22
a(S'xxx'
p23
S'N'
p24
F0.4684
tp25
a(S'['
p26
g12
F0.9825
tp27
a(S'>'
p28
S'E'
p29
F0.6043
tp30
a(S']'
p31
g12
F0.5753
tp32
a(S'?'
p33
g12
F0.996
tp34
asI24
(lp35
(S'<'
p36
S'~'
p37
F0.9147
tp38
a(S'can'
p39
g6
F0.9995
tp40
a(S'you'
p41
g3
F0.9987
tp42
a(g28
g29
F0.3835
tp43
a(g26
g29
F0.535
tp44
a(g36
g37
F0.8293
tp45
a(g31
g12
F0.9815
tp46
a(S'[/]'
p47
g12
F0.3239
tp48
a(S'can'
p49
g6
F0.9997
tp50
a(S'you'
p51
g3
F0.9994
tp52
a(S'say'
p53
g6
F0.9967
tp54
a(S'grace'
p55
S'^'
p56
F0.9625
tp57
a(S'for'
p58
S'P'
p59
F0.9996
tp60
a(S'me'
p61
g3
F0.9994
tp62
a(S'again'
p63
S'R'
p64
F0.9964
tp65
a(g33
g12
F0.9984
tp66
asI28
(lp67
(g36
g37
F0.97
tp68
a(S'xxx'
p69
g29
F0.4641
tp70
a(S'food'
p71
g24
F0.9814
tp72
a(g28
S'G'
p73
F0.4444
tp74
a(g26
g12
F0.899
tp75
a(g28
g29
F0.4438
tp76
a(g31
g12
F0.6906
tp77
a(S'amen'
p78
g9
F0.905
tp79
a(g11
g12
F0.9981
tp80
asI31
(lp81
(S'&'
p82
g82
F0.9914
tp83
a(S'aw'
p84
g9
F0.9682
tp85
a(g26
g12
F0.9716
tp86
a(g36
g37
F0.9215
tp87
a(g31
g12
F0.9845
tp88
a(g11
g12
F0.995
tp89
asI32
(lp90
(S'say'
p91
g6
F0.9956
tp92
a(S'it'
p93
g3
F0.9873
tp94
a(S'Alissa'
p95
g56
F0.987
tp96
a(g11
g12
F0.9957
tp97
asI35
(lp98
(S'thank'
p99
g6
F0.9661
tp100
a(S'you'
p101
g3
F0.9971
tp102
a(S'Jesus'
p103
g56
F0.9943
tp104
a(S'for'
p105
g59
F0.9996
tp106
a(S'this'
p107
g21
F0.948
tp108
a(S'food'
p109
g24
F0.9965
tp110
a(g11
g12
F0.9983
tp111
asI38
(lp112
(S'amen'
p113
g9
F0.9287
tp114
a(g26
g12
F0.9837
tp115
a(g28
g29
F0.3811
tp116
a(g31
g12
F0.7604
tp117
a(g11
g12
F0.9962
tp118
asI42
(lp119
(g82
g82
F0.9893
tp120
a(S'='
p121
g12
F0.8669
tp122
a(S'laughs'
p123
g6
F0.8696
tp124
a(g11
g12
F0.9983
tp125
asI43
(lp126
(S'amen'
p127
g9
F0.9762
tp128
a(g11
g12
F0.9969
tp129
asI46
(lp130
(S'amen'
p131
g9
F0.9356
tp132
a(S'Carlos'
p133
g56
F0.9997
tp134
a(g11
g12
F0.9946
tp135
asI49
(lp136
(S'he'
p137
g3
F0.9939
tp138
a(S"can't"
p139
g6
F0.9999
tp140
a(S'say'
p141
g6
F0.9999
tp142
a(S'it'
p143
g3
F0.9847
tp144
a(g11
g12
F0.9989
tp145
asI52
(lp146
(S'yes'
p147
g9
F0.9834
tp148
a(S'he'
p149
g3
F0.997
tp150
a(S'can'
p151
g6
F0.9994
tp152
a(S'huh'
p153
g9
F0.743
tp154
a(g36
g37
F0.9233
tp155
a(S'Carlos'
p156
g56
F0.9986
tp157
a(g28
g73
F0.2873
tp158
a(g26
g12
F0.899
tp159
a(g28
g29
F0.4696
tp160
a(g31
g12
F0.6335
tp161
a(g33
g12
F0.9962
tp162
asI55
(lp163
(g36
g37
F0.9409
tp164
a(S'Carlos'
p165
g56
F0.9985
tp166
a(g28
g56
F0.3082
tp167
a(g26
g12
F0.9714
tp168
a(g36
g37
F0.9635
tp169
a(g31
g12
F0.9854
tp170
a(S'go'
p171
g6
F0.9948
tp172
a(S'like'
p173
g59
F0.9453
tp174
a(S'this'
p175
g3
F0.9734
tp176
a(g11
g12
F0.9985
tp177
asI58
(lp178
(S'amen'
p179
g9
F0.9762
tp180
a(g11
g12
F0.9969
tp181
asI61
(lp182
(S'no'
p183
g9
F0.703
tp184
a(S'Carlos'
p185
g56
F0.9896
tp186
a(g11
g12
F0.9946
tp187
asI64
(lp188
(S'go'
p189
g6
F0.9835
tp190
a(S'like'
p191
g59
F0.9467
tp192
a(S'this'
p193
g3
F0.9781
tp194
a(g11
g12
F0.9987
tp195
asI67
(lp196
(S'thank'
p197
g6
F0.9661
tp198
a(S'you'
p199
g3
F0.9971
tp200
a(S'Jesus'
p201
g56
F0.9943
tp202
a(S'for'
p203
g59
F0.9996
tp204
a(S'this'
p205
g21
F0.948
tp206
a(S'food'
p207
g24
F0.9965
tp208
a(g11
g12
F0.9983
tp209
asI70
(lp210
(S'amen'
p211
g9
F0.9287
tp212
a(g26
g12
F0.9837
tp213
a(g28
g29
F0.3811
tp214
a(g31
g12
F0.7604
tp215
a(g11
g12
F0.9962
tp216
asI73
(lp217
(S'amen'
p218
g9
F0.9287
tp219
a(g26
g12
F0.9841
tp220
a(g36
g37
F0.972
tp221
a(g31
g12
F0.9847
tp222
a(g11
g12
F0.9962
tp223
asI76
(lp224
(S'I'
p225
g3
F0.9976
tp226
a(S"don't"
p227
g6
F1.0
tp228
a(S'want'
p229
g6
F0.9999
tp230
a(S'to'
p231
g59
F0.9511
tp232
a(g11
g12
F0.9948
tp233
asI79
(lp234
(S'be'
p235
g6
F0.9951
tp236
a(g20
g21
F0.9914
tp237
a(S'sport'
p238
g24
F0.9961
tp239
a(S'Carlos'
p240
g56
F0.999
tp241
a(S'will'
p242
g6
F0.9989
tp243
a(S'you'
p244
g3
F0.9958
tp245
a(g33
g12
F0.9994
tp246
asI82
(lp247
(S'he'
p248
g3
F0.9961
tp249
a(S'said'
p250
g6
F0.9999
tp251
a(S'me'
p252
g3
F0.9995
tp253
a(S'want'
p254
g6
F0.9832
tp255
a(g11
g12
F0.9978
tp256
asI85
(lp257
(g225
g3
F0.9978
tp258
a(S"didn't"
p259
g6
F0.9999
tp260
a(S'xxx'
p261
g6
F0.6009
tp262
a(g11
g12
F0.9977
tp263
asI88
(lp264
(S'you'
p265
g3
F0.9819
tp266
a(S'xxx'
p267
g6
F0.5293
tp268
a(g11
g12
F0.9974
tp269
asI91
(lp270
(g36
g37
F0.9385
tp271
a(S'what'
p272
g3
F0.9947
tp273
a(S'do'
p274
g6
F0.9993
tp275
a(S'you'
p276
g3
F0.9996
tp277
a(S'think'
p278
g6
F0.9984
tp279
a(g28
g29
F0.5459
tp280
a(g26
g29
F0.5345
tp281
a(g28
g29
F0.9555
tp282
a(g31
g12
F0.6839
tp283
a(g33
g12
F0.9957
tp284
asI94
(lp285
(S'want'
p286
g6
F0.9435
tp287
a(g26
g12
F0.9861
tp288
a(g36
g37
F0.9843
tp289
a(g31
g12
F0.99
tp290
a(S'that'
p291
g21
F0.7596
tp292
a(S'soda'
p293
g24
F0.9848
tp294
a(g33
g12
F0.9974
tp295
asI97
(lp296
(g225
g3
F0.9976
tp297
a(S"don't"
p298
g6
F1.0
tp299
a(S'like'
p300
g6
F0.948
tp301
a(S'you'
p302
g3
F0.9998
tp303
a(S'anymore'
p304
g64
F0.996
tp305
a(g11
g12
F0.997
tp306
asI100
(lp307
(S'how'
p308
g64
F0.9666
tp309
a(g36
g37
F0.5721
tp310
a(S'do'
p311
g6
F0.9992
tp312
a(S'you'
p313
g3
F0.9992
tp314
a(S'get'
p315
g6
F0.9999
tp316
a(S'the'
p317
g21
F0.9902
tp318
a(S'stuffing'
p319
g24
F0.671
tp320
a(g28
g29
F0.3653
tp321
a(g26
g29
F0.5345
tp322
a(g28
g29
F0.949
tp323
a(g31
g12
F0.6387
tp324
a(g33
g12
F0.9934
tp325
asI103
(lp326
(g36
g37
F0.9304
tp327
a(S'nobody'
p328
g24
F0.9149
tp329
a(S'xxx'
p330
g29
F0.7313
tp331
a(g28
g29
F0.955
tp332
a(g26
g29
F0.535
tp333
a(g36
g37
F0.8293
tp334
a(g31
g12
F0.9697
tp335
a(S'more'
p336
S'A'
p337
F0.7767
tp338
a(g26
g12
F0.9878
tp339
a(g28
g29
F0.4205
tp340
a(g31
g12
F0.7992
tp341
a(g11
g12
F0.9936
tp342
asI106
(lp343
(g36
g37
F0.97
tp344
a(S'xxx'
p345
g29
F0.6793
tp346
a(S'huh'
p347
g9
F0.8692
tp348
a(g28
g29
F0.5799
tp349
a(g26
g29
F0.535
tp350
a(g36
g37
F0.6902
tp351
a(g31
g12
F0.9731
tp352
a(g33
g12
F0.996
tp353
asI109
(lp354
(S'yeah'
p355
g9
F0.9949
tp356
a(S'(.)'
p357
g29
F0.3329
tp358
a(S'oh'
p359
g9
F0.9647
tp360
a(S'no'
p361
g9
F0.98
tp362
a(g11
g12
F0.9992
tp363
asI112
(lp364
(S"I'm"
p365
S'L'
p366
F0.9943
tp367
a(S'sorry'
p368
g337
F0.9925
tp369
a(S'Carlos'
p370
g56
F0.9996
tp371
a(g11
g12
F0.9954
tp372
asI115
(lp373
(g36
g37
F0.9526
tp374
a(g225
g3
F0.9965
tp375
a(g82
g82
F0.9846
tp376
a(S't'
p377
g73
F0.3529
tp378
a(g28
g73
F0.6038
tp379
a(S'[//]'
p380
g73
F0.3115
tp381
a(g225
g3
F0.9975
tp382
a(S'turned'
p383
g6
F0.9988
tp384
a(S'xxx'
p385
g29
F0.768
tp386
a(g36
g37
F0.8603
tp387
a(S'you'
p388
g3
F0.9979
tp389
a(S'gonna'
p390
g6
F0.9991
tp391
a(g28
g73
F0.2943
tp392
a(S'[//]'
p393
g73
F0.325
tp394
a(S'you'
p395
g3
F0.9965
tp396
a(S"ain't"
p397
g6
F0.9877
tp398
a(S'gonna'
p399
g6
F0.9979
tp400
a(S'see'
p401
g6
F0.9952
tp402
a(S'xxx'
p403
g24
F0.3582
tp404
a(S'anymore'
p405
g64
F0.9712
tp406
a(g11
g12
F0.9958
tp407
asI120
(lp408
(S'we'
p409
g3
F0.9969
tp410
a(S'can'
p411
g6
F0.9998
tp412
a(S'take'
p413
g6
F0.9998
tp414
a(S'both'
p415
g21
F0.9322
tp416
a(S'wings'
p417
g24
F0.9979
tp418
a(g33
g12
F0.9971
tp419
asI124
(lp420
(g36
g37
F0.9131
tp421
a(S'him'
p422
g3
F0.8402
tp423
a(S'better'
p424
g64
F0.5087
tp425
a(g28
g12
F0.2915
tp426
a(S'[/]'
p427
g12
F0.1988
tp428
a(g36
g37
F0.8765
tp429
a(S'him'
p430
g3
F0.8456
tp431
a(S'better'
p432
g337
F0.5737
tp433
a(S'(.)'
p434
g56
F0.1868
tp435
a(S'bring'
p436
g6
F0.9997
tp437
a(S'me'
p438
g3
F0.9984
tp439
a(g28
g29
F0.5031
tp440
a(g26
g29
F0.5345
tp441
a(g28
g29
F0.9532
tp442
a(g31
g12
F0.9033
tp443
a(S'over'
p444
g59
F0.823
tp445
a(S'there'
p446
g64
F0.9118
tp447
a(g11
g12
F0.9986
tp448
asI127
(lp449
(g36
g37
F0.9365
tp450
a(S'come'
p451
g6
F0.9941
tp452
a(S'on'
p453
g59
F0.6629
tp454
a(S'xxx'
p455
g73
F0.329
tp456
a(S'the'
p457
g21
F0.9732
tp458
a(S'xxx'
p459
g24
F0.4543
tp460
a(g28
g29
F0.4136
tp461
a(g26
g29
F0.535
tp462
a(g36
g37
F0.7815
tp463
a(g31
g12
F0.9822
tp464
a(g11
g12
F0.9964
tp465
asI130
(lp466
(S'oh'
p467
g9
F0.9942
tp468
a(g36
g37
F0.8413
tp469
a(g225
g3
F0.9965
tp470
a(g28
g6
F0.2842
tp471
a(S'[/]'
p472
g12
F0.4145
tp473
a(g225
g3
F0.9984
tp474
a(S'forgot'
p475
g6
F0.9999
tp476
a(S'that'
p477
g59
F0.8191
tp478
a(S'you'
p479
g3
F0.9994
tp480
a(S'like'
p481
g6
F0.6551
tp482
a(S'those'
p483
g3
F0.9389
tp484
a(g11
g12
F0.9978
tp485
asI134
(lp486
(S"I'm"
p487
g366
F0.9967
tp488
a(S'tired'
p489
g337
F0.9596
tp490
a(S'of'
p491
g59
F0.9985
tp492
a(S'you'
p493
g3
F0.9985
tp494
a(S'xxx'
p495
g6
F0.7391
tp496
a(S'being'
p497
g6
F0.9951
tp498
a(S'older'
p499
g337
F0.9826
tp500
a(g11
g12
F0.9986
tp501
asI138
(lp502
(g36
g37
F0.9526
tp503
a(g225
g3
F0.9945
tp504
a(S'xxx'
p505
g6
F0.4762
tp506
a(g28
g29
F0.2715
tp507
a(S'[//]'
p508
g29
F0.7743
tp509
a(g36
g37
F0.8503
tp510
a(g225
g3
F0.9951
tp511
a(S"didn't>"
p512
g6
F0.9979
tp513
a(S'[/]'
p514
g6
F0.3073
tp515
a(g225
g3
F0.9992
tp516
a(S"didn't"
p517
g6
F1.0
tp518
a(S'say'
p519
g6
F0.998
tp520
a(S'(.)'
p521
g29
F0.3013
tp522
a(S'&-um'
p523
g73
F0.5214
tp524
a(S'Jackie'
p525
g56
F0.9999
tp526
a(S'\xe2\x86\x91'
p527
g56
F0.7636
tp528
a(S'will'
p529
g6
F0.9977
tp530
a(S'you'
p531
g3
F0.9986
tp532
a(S'be'
p533
g6
F0.9998
tp534
a(S'over'
p535
g59
F0.5782
tp536
a(S'here'
p537
g64
F0.9834
tp538
a(g33
g12
F0.9985
tp539
asI143
(lp540
(S'say'
p541
g6
F0.9819
tp542
a(S'no'
p543
g9
F0.9188
tp544
a(g11
g12
F0.999
tp545
asI146
(lp546
(S'she'
p547
g3
F0.9971
tp548
a(S'said'
p549
g6
F0.9953
tp550
a(S'xxx'
p551
g29
F0.7167
tp552
a(g26
g12
F0.6965
tp553
a(g28
g29
F0.5563
tp554
a(g31
g12
F0.6899
tp555
a(g11
g12
F0.9959
tp556
asI149
(lp557
(g36
g37
F0.9768
tp558
a(S'oh'
p559
g9
F0.9976
tp560
a(g225
g3
F0.9969
tp561
a(g28
g29
F0.3858
tp562
a(g26
g29
F0.535
tp563
a(g36
g37
F0.8293
tp564
a(g31
g12
F0.984
tp565
a(g225
g3
F0.9967
tp566
a(S"didn't"
p567
g6
F1.0
tp568
a(S'say'
p569
g6
F0.9997
tp570
a(S'no'
p571
g9
F0.8312
tp572
a(g11
g12
F0.9986
tp573
asI152
(lp574
(S'xxx'
p575
g29
F0.6498
tp576
a(S'say'
p577
g6
F0.9384
tp578
a(S'xxx'
p579
g29
F0.7771
tp580
a(g26
g12
F0.6965
tp581
a(g28
g29
F0.5563
tp582
a(g31
g12
F0.6899
tp583
a(g11
g12
F0.9959
tp584
asI155
(lp585
(S'xxx'
p586
g29
F0.8981
tp587
a(g26
g12
F0.6622
tp588
a(g36
g37
F0.9843
tp589
a(g31
g12
F0.9897
tp590
a(S'hear'
p591
g6
F0.9765
tp592
a(S'screaming'
p593
g6
F0.9472
tp594
a(g11
g12
F0.9989
tp595
asI159
(lp596
(S'yes'
p597
g9
F0.9893
tp598
a(g225
g3
F0.9993
tp599
a(S'know'
p600
g6
F0.9987
tp601
a(g11
g12
F0.9981
tp602
asI162
(lp603
(g225
g3
F0.9977
tp604
a(S'can'
p605
g6
F0.9999
tp606
a(S'hear'
p607
g6
F0.9824
tp608
a(g26
g12
F0.9894
tp609
a(g28
g29
F0.4438
tp610
a(g31
g12
F0.865
tp611
a(S'him'
p612
g3
F0.9323
tp613
a(g11
g12
F0.9984
tp614
asI165
(lp615
(g36
g37
F0.9261
tp616
a(S'Mom'
p617
g24
F0.6976
tp618
a(S'xxx'
p619
g29
F0.7468
tp620
a(g28
g29
F0.955
tp621
a(g26
g29
F0.5345
tp622
a(g28
g29
F0.9749
tp623
a(g31
g12
F0.7541
tp624
a(g11
g12
F0.9962
tp625
asI168
(lp626
(S'xxx'
p627
g29
F0.8981
tp628
a(g26
g12
F0.6622
tp629
a(g36
g37
F0.9843
tp630
a(g31
g12
F0.9707
tp631
a(g36
g37
F0.886
tp632
a(S'baby'
p633
g24
F0.9822
tp634
a(S'crying'
p635
g6
F0.9949
tp636
a(g28
g29
F0.4767
tp637
a(g26
g29
F0.5345
tp638
a(g28
g29
F0.949
tp639
a(g31
g12
F0.6071
tp640
a(g9
g12
F0.995
tp641
asI171
(lp642
(g36
g37
F0.9116
tp643
a(S"I'll"
p644
g366
F0.9856
tp645
a(S'get'
p646
g6
F1.0
tp647
a(S'it'
p648
g3
F0.9958
tp649
a(g28
g29
F0.4648
tp650
a(g26
g29
F0.535
tp651
a(g36
g37
F0.7057
tp652
a(g31
g12
F0.9842
tp653
a(g11
g12
F0.9969
tp654
asI174
(lp655
(S"I'll"
p656
g366
F0.9865
tp657
a(S'get'
p658
g6
F0.9999
tp659
a(S'it'
p660
g3
F0.9913
tp661
a(g11
g12
F0.999
tp662
asI177
(lp663
(S'xxx'
p664
g29
F0.6895
tp665
a(S'try'
p666
g6
F0.9705
tp667
a(g225
g3
F0.9991
tp668
a(S'get'
p669
g6
F0.9994
tp670
a(S'xxx'
p671
g29
F0.3553
tp672
a(g11
g12
F0.9527
tp673
asI180
(lp674
(S'you'
p675
g3
F0.9966
tp676
a(S'get'
p677
g6
F0.9999
tp678
a(S'the'
p679
g21
F0.9994
tp680
a(S'soda'
p681
g24
F0.9745
tp682
a(S"I'll"
p683
g366
F0.9747
tp684
a(S'get'
p685
g6
F1.0
tp686
a(S'him'
p687
g3
F0.9945
tp688
a(g11
g12
F0.9984
tp689
asI185
(lp690
(S'okay'
p691
g9
F0.9741
tp692
a(g11
g12
F0.9977
tp693
asI188
(lp694
(S'(..)'
p695
g29
F0.4292
tp696
a(g225
g3
F0.9922
tp697
a(S'love'
p698
g6
F0.9979
tp699
a(S'this'
p700
g3
F0.9608
tp701
a(g11
g12
F0.9987
tp702
asI191
(lp703
(S'(.)'
p704
g29
F0.3392
tp705
a(g225
g3
F0.9937
tp706
a(S'love'
p707
g6
F0.9985
tp708
a(S'this'
p709
g21
F0.956
tp710
a(S'stuff'
p711
g24
F0.9983
tp712
a(g11
g12
F0.9981
tp713
asI194
(lp714
(g225
g3
F0.994
tp715
a(S'like'
p716
g6
F0.9402
tp717
a(S'it'
p718
g3
F0.9984
tp719
a(S'too'
p720
g64
F0.9885
tp721
a(g11
g12
F0.9974
tp722
asI197
(lp723
(g225
g3
F0.9959
tp724
a(S'never'
p725
g64
F0.9814
tp726
a(S'mush'
p727
g24
F0.3616
tp728
a(S'it'
p729
g3
F0.9212
tp730
a(g11
g12
F0.9989
tp731
asI200
(lp732
(S'oh'
p733
g9
F0.9994
tp734
a(g9
g12
F0.9921
tp735
asI203
(lp736
(S'(.)'
p737
g29
F0.3392
tp738
a(g225
g3
F0.9958
tp739
a(S"don't"
p740
g6
F1.0
tp741
a(S'like'
p742
g6
F0.9381
tp743
a(S'it'
p744
g3
F0.998
tp745
a(g11
g12
F0.9986
tp746
asI206
(lp747
(g225
g3
F0.9983
tp748
a(S'said'
p749
g6
F0.9997
tp750
a(g225
g3
F0.9984
tp751
a(S'like'
p752
g6
F0.8933
tp753
a(S'it'
p754
g3
F0.9979
tp755
a(g9
g12
F0.9989
tp756
asI209
(lp757
(S'mm'
p758
g9
F0.7864
tp759
a(g9
g12
F0.9938
tp760
asI212
(lp761
(S'thank'
p762
g6
F0.9661
tp763
a(S'you'
p764
g3
F0.9971
tp765
a(S'Jesus'
p766
g56
F0.9943
tp767
a(S'for'
p768
g59
F0.9996
tp769
a(S'this'
p770
g21
F0.9507
tp771
a(S'food'
p772
g24
F0.9956
tp773
a(g12
g12
F0.9986
tp774
a(S'amen'
p775
g9
F0.9086
tp776
a(g11
g12
F0.9981
tp777
asI218
(lp778
(S'thank'
p779
g6
F0.9661
tp780
a(S'you'
p781
g3
F0.9993
tp782
a(S'for'
p783
g59
F0.9897
tp784
a(S'amen'
p785
g9
F0.3354
tp786
a(g26
g12
F0.9828
tp787
a(g28
g29
F0.6043
tp788
a(g31
g12
F0.7541
tp789
a(g11
g12
F0.9962
tp790
asI221
(lp791
(g36
g37
F0.9274
tp792
a(S'sayin(g'
p793
g6
F0.8771
tp794
a(S')'
p795
g12
F0.9943
tp796
a(S'it'
p797
g3
F0.9882
tp798
a(g28
g29
F0.4648
tp799
a(g26
g29
F0.535
tp800
a(g36
g37
F0.8293
tp801
a(g31
g12
F0.9922
tp802
a(S'again'
p803
g64
F0.9763
tp804
a(S'Alissa'
p805
g56
F0.9927
tp806
a(g33
g12
F0.9965
tp807
asI225
(lp808
(S'xxx'
p809
g29
F0.8981
tp810
a(g26
g12
F0.661
tp811
a(g28
g29
F0.3811
tp812
a(g31
g12
F0.7604
tp813
a(g11
g12
F0.9962
tp814
asI226
(lp815
(S'xxx'
p816
g29
F0.8981
tp817
a(g26
g12
F0.6622
tp818
a(g36
g37
F0.972
tp819
a(g31
g12
F0.9847
tp820
a(g11
g12
F0.9962
tp821
asI227
(lp822
(g36
g37
F0.9138
tp823
a(S'thank'
p824
g6
F0.9794
tp825
a(S'you'
p826
g3
F0.9994
tp827
a(g28
g29
F0.3835
tp828
a(g26
g29
F0.5345
tp829
a(g28
g29
F0.9532
tp830
a(g31
g12
F0.7317
tp831
a(S'Je(s)us'
p832
g56
F0.9938
tp833
a(S'for'
p834
g59
F0.9996
tp835
a(S'this'
p836
g21
F0.9595
tp837
a(S'food'
p838
g24
F0.9973
tp839
a(g11
g12
F0.9972
tp840
asI231
(lp841
(g36
g37
F0.9526
tp842
a(g225
g3
F0.9984
tp843
a(S'can'
p844
g6
F0.9998
tp845
a(S'xxx'
p846
g29
F0.5659
tp847
a(g28
g29
F0.9474
tp848
a(g26
g29
F0.535
tp849
a(g36
g37
F0.7057
tp850
a(g31
g12
F0.9842
tp851
a(g11
g12
F0.9969
tp852
asI234
(lp853
(g225
g3
F0.9923
tp854
a(S'xxx'
p855
g6
F0.788
tp856
a(S'thank'
p857
g6
F0.9809
tp858
a(S'you'
p859
g3
F0.9968
tp860
a(S'Jesus'
p861
g56
F0.991
tp862
a(g36
g37
F0.5649
tp863
a(S'for'
p864
g59
F0.9978
tp865
a(S'food'
p866
g24
F0.9608
tp867
a(S'[/]'
p868
g73
F0.5055
tp869
a(g28
g73
F0.4487
tp870
a(g26
g12
F0.899
tp871
a(g28
g29
F0.4438
tp872
a(g31
g12
F0.7838
tp873
a(S'foo(d'
p874
g24
F0.9747
tp875
a(g795
g12
F0.9907
tp876
a(g11
g12
F0.9971
tp877
asI237
(lp878
(g36
g37
F0.9769
tp879
a(S'hi'
p880
g9
F0.9702
tp881
a(S'Anthony'
p882
g56
F0.9991
tp883
a(g28
g29
F0.2996
tp884
a(g26
g29
F0.535
tp885
a(g36
g37
F0.6902
tp886
a(g31
g12
F0.9839
tp887
a(g11
g12
F0.9962
tp888
asI242
(lp889
(S'hi'
p890
g9
F0.9747
tp891
a(S'Anthony'
p892
g56
F0.9986
tp893
a(g11
g12
F0.9946
tp894
asI246
(lp895
(S'please'
p896
g6
F0.9599
tp897
a(S'stop'
p898
g6
F0.9296
tp899
a(g9
g12
F0.9969
tp900
asI250
(lp901
(S'Maria'
p902
g56
F0.993
tp903
a(S'get'
p904
g6
F0.9989
tp905
a(S'the'
p906
g21
F0.9987
tp907
a(S'bee'
p908
g24
F0.9863
tp909
a(S'out'
p910
g59
F0.91
tp911
a(S'o(f'
p912
g56
F0.2633
tp913
a(g795
g12
F0.9939
tp914
a(S'here'
p915
g64
F0.934
tp916
a(g11
g12
F0.9989
tp917
asI253
(lp918
(S'oh'
p919
g9
F0.9969
tp920
a(S"it's"
p921
g366
F0.9982
tp922
a(S'only'
p923
g64
F0.8303
tp924
a(g20
g21
F0.9549
tp925
a(S'fly'
p926
g24
F0.8924
tp927
a(g11
g12
F0.9987
tp928
asI256
(lp929
(g82
g82
F0.9895
tp930
a(S'h'
p931
g24
F0.3766
tp932
a(g36
g37
F0.9919
tp933
a(S'hello'
p934
g9
F0.9623
tp935
a(S'there'
p936
g64
F0.6075
tp937
a(g28
g29
F0.5498
tp938
a(g26
g29
F0.5345
tp939
a(g28
g29
F0.9532
tp940
a(g31
g12
F0.7747
tp941
a(S'wimpy'
p942
g337
F0.8929
tp943
a(S'@c'
p944
S'@'
p945
F0.9837
tp946
a(g26
g12
F0.9675
tp947
a(g33
g12
F0.982
tp948
a(g31
g12
F0.9518
tp949
a(g11
g12
F0.996
tp950
asI259
(lp951
(g36
g37
F0.9041
tp952
a(S"he'll"
p953
g366
F0.956
tp954
a(S'fly'
p955
g6
F0.9984
tp956
a(S'out'
p957
S'T'
p958
F0.8572
tp959
a(g28
g29
F0.4303
tp960
a(g26
g29
F0.535
tp961
a(g36
g37
F0.8293
tp962
a(g31
g12
F0.954
tp963
a(S'+'
p964
g82
F0.4772
tp965
a(S'...'
p966
g12
F0.5782
tp967
asI262
(lp968
(S'when'
p969
g64
F0.9604
tp970
a(S'we'
p971
g3
F0.9908
tp972
a(S'open'
p973
g6
F0.9945
tp974
a(S'the'
p975
g21
F0.999
tp976
a(S'door'
p977
g24
F0.9969
tp978
a(S"he'll"
p979
g366
F0.9472
tp980
a(S'fly'
p981
g6
F0.9976
tp982
a(S'out'
p983
g958
F0.8612
tp984
a(g11
g12
F0.9985
tp985
asI267
(lp986
(S"what'd"
p987
g59
F0.2677
tp988
a(S'you'
p989
g3
F0.9996
tp990
a(S'do'
p991
g6
F0.9999
tp992
a(S'with'
p993
g59
F0.9981
tp994
a(S'my'
p995
g21
F0.9986
tp996
a(S'other'
p997
g337
F0.993
tp998
a(S'wind'
p999
g24
F0.9941
tp1000
a(S'chimes'
p1001
g6
F0.9974
tp1002
a(S'you'
p1003
g3
F0.9991
tp1004
a(S'brought'
p1005
g6
F0.9995
tp1006
a(S'in'
p1007
g59
F0.7021
tp1008
a(g33
g12
F0.99
tp1009
asI272
(lp1010
(g36
g37
F0.9261
tp1011
a(S'Mom'
p1012
g24
F0.7928
tp1013
a(g28
g29
F0.5441
tp1014
a(g26
g29
F0.4959
tp1015
a(g28
g29
F0.9532
tp1016
a(g31
g12
F0.63
tp1017
a(S'+/'
p1018
g56
F0.1968
tp1019
a(g11
g12
F0.9939
tp1020
asI275
(lp1021
(g36
g37
F0.9262
tp1022
a(S"they're>"
p1023
g366
F0.4765
tp1024
a(g26
g12
F0.9656
tp1025
a(g36
g37
F0.9566
tp1026
a(g31
g12
F0.9853
tp1027
a(S'hangin(g'
p1028
g6
F0.9674
tp1029
a(g795
g12
F0.9945
tp1030
a(S'up'
p1031
g958
F0.7652
tp1032
a(S'above'
p1033
g59
F0.9994
tp1034
a(S'the'
p1035
g21
F0.9993
tp1036
a(S'stairs'
p1037
g24
F0.9974
tp1038
a(g11
g12
F0.9983
tp1039
asI279
(lp1040
(S'oh'
p1041
g9
F0.9984
tp1042
a(g11
g12
F0.9938
tp1043
asI282
(lp1044
(S'Mom'
p1045
g24
F0.7182
tp1046
a(S"he's"
p1047
g366
F0.9865
tp1048
a(S'sittin(g'
p1049
g6
F0.7929
tp1050
a(g795
g12
F0.9934
tp1051
a(S'the'
p1052
g21
F0.9823
tp1053
a(g225
g3
F0.9719
tp1054
a(S'xxx'
p1055
g6
F0.9395
tp1056
a(S'his'
p1057
g21
F0.9492
tp1058
a(S'xxx'
p1059
g24
F0.7264
tp1060
a(g11
g12
F0.9981
tp1061
asI286
(lp1062
(S'no'
p1063
g9
F0.8025
tp1064
a(S"he's"
p1065
g366
F0.9959
tp1066
a(S'not'
p1067
g64
F0.9961
tp1068
a(g11
g12
F0.996
tp1069
asI289
(lp1070
(S'or'
p1071
g82
F0.9883
tp1072
a(S"I'll"
p1073
g366
F0.9882
tp1074
a(S'kill'
p1075
g6
F0.9887
tp1076
a(g26
g12
F0.9903
tp1077
a(g9
g12
F0.9901
tp1078
a(g31
g12
F0.9806
tp1079
a(S'him'
p1080
g3
F0.9323
tp1081
a(g11
g12
F0.9984
tp1082
asI292
(lp1083
(S'thank'
p1084
g6
F0.9661
tp1085
a(S'you'
p1086
g3
F0.999
tp1087
a(S'xxx'
p1088
g6
F0.562
tp1089
a(g11
g12
F0.9977
tp1090
asI295
(lp1091
(S"you're"
p1092
g366
F0.9844
tp1093
a(S'welcome'
p1094
g337
F0.6738
tp1095
a(S'Alissa'
p1096
g56
F0.9913
tp1097
a(g11
g12
F0.9957
tp1098
asI298
(lp1099
(S'oh'
p1100
g9
F0.9963
tp1101
a(S'xxx'
p1102
g9
F0.4352
tp1103
a(g9
g12
F0.9978
tp1104
asI301
(lp1105
(S'pow'
p1106
g73
F0.4114
tp1107
a(g82
g82
F0.982
tp1108
a(g121
g12
F0.8695
tp1109
a(S'shouts'
p1110
g6
F0.8366
tp1111
a(g9
g12
F0.9981
tp1112
asI304
(lp1113
(S'xxx'
p1114
g29
F0.8981
tp1115
a(g26
g12
F0.661
tp1116
a(g28
g29
F0.3811
tp1117
a(g31
g12
F0.7604
tp1118
a(g11
g12
F0.9962
tp1119
asI305
(lp1120
(S'pow'
p1121
g73
F0.4782
tp1122
a(g26
g12
F0.8955
tp1123
a(g36
g37
F0.972
tp1124
a(g31
g12
F0.9661
tp1125
a(g9
g12
F0.997
tp1126
asI308
(lp1127
(S'pow'
p1128
g73
F0.279
tp1129
a(g9
g12
F0.9906
tp1130
asI311
(lp1131
(S'pow'
p1132
g73
F0.7283
tp1133
a(S'(.)'
p1134
g73
F0.8403
tp1135
a(S'pow'
p1136
g73
F0.8639
tp1137
a(g26
g12
F0.9035
tp1138
a(g28
g29
F0.5563
tp1139
a(g31
g29
F0.5168
tp1140
a(g9
g12
F0.9723
tp1141
asI314
(lp1142
(g36
g37
F0.9775
tp1143
a(S'okay'
p1144
g9
F0.9172
tp1145
a(S'xxx'
p1146
g29
F0.8009
tp1147
a(g28
g29
F0.955
tp1148
a(g26
g29
F0.535
tp1149
a(g36
g37
F0.6902
tp1150
a(g31
g12
F0.9839
tp1151
a(g11
g12
F0.9962
tp1152
asI317
(lp1153
(S'pow'
p1154
g73
F0.7283
tp1155
a(S'pow'
p1156
g73
F0.8851
tp1157
a(g26
g12
F0.8234
tp1158
a(g28
g29
F0.5453
tp1159
a(g31
g12
F0.5755
tp1160
a(g9
g12
F0.9959
tp1161
asI320
(lp1162
(g36
g37
F0.9001
tp1163
a(S'you'
p1164
g3
F0.9943
tp1165
a(S'shootin(g)'
p1166
g6
F0.9148
tp1167
a(g28
g29
F0.6632
tp1168
a(g26
g29
F0.535
tp1169
a(g36
g37
F0.8293
tp1170
a(g31
g12
F0.987
tp1171
a(S'that'
p1172
g3
F0.4887
tp1173
a(S'fly'
p1174
g6
F0.8712
tp1175
a(g33
g12
F0.9981
tp1176
asI324
(lp1177
(S'yeah'
p1178
g9
F0.9986
tp1179
a(g11
g12
F0.997
tp1180
asI327
(lp1181
(S'Mom'
p1182
g24
F0.8644
tp1183
a(g225
g3
F0.9712
tp1184
a(S'xxx'
p1185
g29
F0.4658
tp1186
a(g26
g12
F0.6965
tp1187
a(g28
g29
F0.5563
tp1188
a(g31
g12
F0.6899
tp1189
a(g11
g12
F0.9959
tp1190
asI330
(lp1191
(S'pow'
p1192
g73
F0.4782
tp1193
a(g26
g12
F0.8955
tp1194
a(g36
g37
F0.972
tp1195
a(g31
g12
F0.9661
tp1196
a(g9
g12
F0.997
tp1197
asI333
(lp1198
(S'get'
p1199
g6
F0.9899
tp1200
a(S'fly'
p1201
g6
F0.9826
tp1202
a(S'out'
p1203
g958
F0.9103
tp1204
a(S'xxx'
p1205
g29
F0.6582
tp1206
a(g26
g12
F0.6588
tp1207
a(g28
g29
F0.6043
tp1208
a(g31
g12
F0.7541
tp1209
a(g11
g12
F0.9962
tp1210
asI336
(lp1211
(S'right'
p1212
g9
F0.5567
tp1213
a(g26
g12
F0.993
tp1214
a(g36
g37
F0.9843
tp1215
a(g31
g12
F0.992
tp1216
a(S'right'
p1217
g64
F0.7474
tp1218
a(S'here'
p1219
g64
F0.9876
tp1220
a(S'comes'
p1221
g6
F0.9867
tp1222
a(S'the'
p1223
g21
F0.9995
tp1224
a(S'enemy'
p1225
g24
F0.9989
tp1226
a(g11
g12
F0.9989
tp1227
asI339
(lp1228
(S'pow'
p1229
g73
F0.279
tp1230
a(g9
g12
F0.9906
tp1231
asI344
(lp1232
(S'now'
p1233
g64
F0.9807
tp1234
a(S'Mom'
p1235
g24
F0.5107
tp1236
a(S'gonna'
p1237
g6
F0.9967
tp1238
a(S'buy'
p1239
g6
F0.9997
tp1240
a(S'me'
p1241
g3
F0.9965
tp1242
a(S'&-um'
p1243
g9
F0.4805
tp1244
a(S'gun'
p1245
g24
F0.8896
tp1246
a(S'xxx'
p1247
g29
F0.3322
tp1248
a(S'the'
p1249
g21
F0.9869
tp1250
a(S'fly'
p1251
g24
F0.8419
tp1252
a(S'and'
p1253
g82
F0.9981
tp1254
a(g225
g3
F0.9989
tp1255
a(S'gonna'
p1256
g6
F0.9996
tp1257
a(S'[:'
p1258
g29
F0.7834
tp1259
a(S'going'
p1260
g6
F0.9979
tp1261
a(S'to'
p1262
g59
F0.898
tp1263
a(g31
g12
F0.982
tp1264
a(S'shoot'
p1265
g6
F0.9777
tp1266
a(S'him'
p1267
g3
F0.9926
tp1268
a(g11
g12
F0.9978
tp1269
asI349
(lp1270
(S"I'm"
p1271
g366
F0.9951
tp1272
a(S'gonna'
p1273
g6
F0.9946
tp1274
a(S'buy'
p1275
g6
F0.9996
tp1276
a(S'you'
p1277
g3
F0.9955
tp1278
a(g20
g21
F0.9973
tp1279
a(S'gun'
p1280
g24
F0.9912
tp1281
a(S"you're"
p1282
g366
F0.9893
tp1283
a(S'gonna'
p1284
g6
F0.9963
tp1285
a(S'find'
p1286
g6
F0.9999
tp1287
a(S'it'
p1288
g3
F0.9852
tp1289
a(S'and'
p1290
g82
F0.9943
tp1291
a(S'shoot'
p1292
g6
F0.9649
tp1293
a(S'him'
p1294
g3
F0.9852
tp1295
a(g33
g12
F0.999
tp1296
asI356
(lp1297
(S'Mom'
p1298
g24
F0.8533
tp1299
a(g9
g12
F0.9985
tp1300
asI359
(lp1301
(S'he'
p1302
g3
F0.9945
tp1303
a(S'gonna'
p1304
g6
F0.9991
tp1305
a(g26
g12
F0.9722
tp1306
a(g28
g29
F0.4857
tp1307
a(g31
g12
F0.8246
tp1308
a(S'buy'
p1309
g6
F0.9983
tp1310
a(S'me'
p1311
g3
F0.9969
tp1312
a(g26
g12
F0.9877
tp1313
a(g28
g29
F0.4438
tp1314
a(g31
g12
F0.8384
tp1315
a(g20
g21
F0.9941
tp1316
a(S'big'
p1317
g337
F0.9806
tp1318
a(S'gun'
p1319
g24
F0.9931
tp1320
a(S'and'
p1321
g82
F0.9963
tp1322
a(S"I'm"
p1323
g366
F0.997
tp1324
a(S'gonna'
p1325
g6
F0.9869
tp1326
a(S'[:'
p1327
g29
F0.7834
tp1328
a(S'going'
p1329
g6
F0.9979
tp1330
a(S'to'
p1331
g59
F0.898
tp1332
a(g31
g12
F0.9361
tp1333
a(g26
g12
F0.9615
tp1334
a(g28
g29
F0.4438
tp1335
a(g31
g12
F0.8084
tp1336
a(S'shoot'
p1337
g6
F0.9765
tp1338
a(S'him'
p1339
g3
F0.9918
tp1340
a(g11
g12
F0.9978
tp1341
asI365
(lp1342
(S'yeah'
p1343
g9
F0.9951
tp1344
a(g26
g12
F0.9843
tp1345
a(g36
g37
F0.972
tp1346
a(g31
g12
F0.9847
tp1347
a(g11
g12
F0.9962
tp1348
asI368
(lp1349
(S'okay'
p1350
g9
F0.9276
tp1351
a(g26
g12
F0.9879
tp1352
a(g28
g29
F0.3811
tp1353
a(g31
g12
F0.7604
tp1354
a(g11
g12
F0.9962
tp1355
asI371
(lp1356
(g36
g37
F0.9315
tp1357
a(S"he's"
p1358
g366
F0.9899
tp1359
a(S'in'
p1360
g59
F0.9644
tp1361
a(S'there'
p1362
g64
F0.6716
tp1363
a(S'cryin(g)'
p1364
g6
F0.9464
tp1365
a(g28
g29
F0.4769
tp1366
a(g26
g29
F0.535
tp1367
a(g36
g37
F0.7916
tp1368
a(g31
g12
F0.9861
tp1369
a(g11
g12
F0.9959
tp1370
asI374
(lp1371
(S'yeah'
p1372
g9
F0.9932
tp1373
a(g82
g82
F0.9907
tp1374
a(S'm'
p1375
g6
F0.5483
tp1376
a(S'(.)'
p1377
g56
F0.2399
tp1378
a(S"Mom's"
p1379
g24
F0.2858
tp1380
a(S'gonna'
p1381
g6
F0.9914
tp1382
a(S'+/'
p1383
g6
F0.1985
tp1384
a(g11
g12
F0.9973
tp1385
asI377
(lp1386
(S'Mom'
p1387
g24
F0.8533
tp1388
a(g9
g12
F0.9985
tp1389
asI380
(lp1390
(S'&-um'
p1391
g9
F0.7959
tp1392
a(S'(.)'
p1393
g56
F0.2841
tp1394
a(S"Mom's"
p1395
g24
F0.3061
tp1396
a(S'gonna'
p1397
g6
F0.988
tp1398
a(S'buy'
p1399
g6
F0.9918
tp1400
a(S'&-uh'
p1401
g73
F0.4493
tp1402
a(S'my'
p1403
g21
F0.8167
tp1404
a(g36
g37
F0.7929
tp1405
a(S'gun'
p1406
g24
F0.9029
tp1407
a(S'and'
p1408
g82
F0.9982
tp1409
a(g28
g29
F0.5022
tp1410
a(g26
g29
F0.5345
tp1411
a(g28
g29
F0.9532
tp1412
a(g31
g12
F0.8443
tp1413
a(S'+/'
p1414
g56
F0.1595
tp1415
a(g11
g12
F0.9951
tp1416
asI384
(lp1417
(g36
g37
F0.9261
tp1418
a(S'Mom'
p1419
g24
F0.7928
tp1420
a(g28
g29
F0.5441
tp1421
a(g26
g29
F0.4963
tp1422
a(g36
g37
F0.7259
tp1423
a(g31
g12
F0.9562
tp1424
a(g9
g12
F0.9967
tp1425
asI387
(lp1426
(S'gonna'
p1427
g6
F0.9858
tp1428
a(S'buy'
p1429
g6
F0.9819
tp1430
a(g26
g12
F0.9842
tp1431
a(g28
g29
F0.4857
tp1432
a(g31
g12
F0.9082
tp1433
a(S'me'
p1434
g3
F0.9819
tp1435
a(g20
g21
F0.9903
tp1436
a(S'big'
p1437
g337
F0.9806
tp1438
a(S'gun'
p1439
g24
F0.9931
tp1440
a(S'and'
p1441
g82
F0.9963
tp1442
a(S"I'm"
p1443
g366
F0.997
tp1444
a(S'gonna'
p1445
g6
F0.9864
tp1446
a(g36
g37
F0.8795
tp1447
a(S'&k'
p1448
g73
F0.3026
tp1449
a(g28
g73
F0.5117
tp1450
a(S'[//]'
p1451
g73
F0.521
tp1452
a(S'(.)'
p1453
g73
F0.4681
tp1454
a(S'kill'
p1455
g6
F0.9882
tp1456
a(S'that'
p1457
g3
F0.6039
tp1458
a(S'fly'
p1459
g6
F0.9388
tp1460
a(g11
g12
F0.9968
tp1461
asI392
(lp1462
(S'boom'
p1463
g9
F0.4363
tp1464
a(g11
g12
F0.9959
tp1465
asI395
(lp1466
(S'yeah'
p1467
g9
F0.9951
tp1468
a(g26
g12
F0.9838
tp1469
a(g28
g29
F0.3811
tp1470
a(g31
g12
F0.7604
tp1471
a(g11
g12
F0.9962
tp1472
asI398
(lp1473
(S'have'
p1474
g6
F0.9563
tp1475
a(g26
g12
F0.9856
tp1476
a(g36
g37
F0.9843
tp1477
a(g31
g12
F0.9847
tp1478
a(S'mercy'
p1479
g24
F0.9597
tp1480
a(g11
g12
F0.998
tp1481
asI401
(lp1482
(g36
g37
F0.8911
tp1483
a(S'over'
p1484
g59
F0.8845
tp1485
a(S'there'
p1486
g64
F0.6382
tp1487
a(g28
g29
F0.5737
tp1488
a(g26
g29
F0.5345
tp1489
a(g28
g29
F0.9749
tp1490
a(g31
g12
F0.7541
tp1491
a(g11
g12
F0.9962
tp1492
asI404
(lp1493
(g36
g37
F0.9768
tp1494
a(S'oh'
p1495
g9
F0.9986
tp1496
a(S'yeah'
p1497
g9
F0.9984
tp1498
a(g28
g29
F0.5827
tp1499
a(g26
g29
F0.535
tp1500
a(g36
g37
F0.8293
tp1501
a(g31
g12
F0.9888
tp1502
a(S'you'
p1503
g3
F0.9713
tp1504
a(S'better'
p1505
g64
F0.5586
tp1506
a(S'buy'
p1507
g6
F0.871
tp1508
a(S'one'
p1509
S'$'
p1510
F0.8815
tp1511
a(S'Mom'
p1512
g24
F0.9717
tp1513
a(g11
g12
F0.9981
tp1514
asI408
(lp1515
(S'yeah'
p1516
g9
F0.9986
tp1517
a(g11
g12
F0.997
tp1518
asI411
(lp1519
(S'Mom'
p1520
g24
F0.8237
tp1521
a(S'xxx'
p1522
g29
F0.505
tp1523
a(g11
g12
F0.9721
tp1524
asI414
(lp1525
(S'huh'
p1526
g9
F0.9936
tp1527
a(g33
g12
F0.9967
tp1528
asI417
(lp1529
(g20
g21
F0.9883
tp1530
a(S'buggie'
p1531
g24
F0.6402
tp1532
a(S'(.)'
p1533
g24
F0.2663
tp1534
a(S'in'
p1535
g59
F0.9861
tp1536
a(S'was'
p1537
g6
F0.8403
tp1538
a(S'xxx'
p1539
g29
F0.3354
tp1540
a(S'here'
p1541
g64
F0.9614
tp1542
a(g11
g12
F0.9986
tp1543
asI420
(lp1544
(S'is'
p1545
g6
F0.9958
tp1546
a(S'he'
p1547
g3
F0.9987
tp1548
a(S'gone'
p1549
g6
F0.9965
tp1550
a(S'now'
p1551
g64
F0.9955
tp1552
a(g33
g12
F0.9987
tp1553
asI423
(lp1554
(S'yeah'
p1555
g9
F0.9961
tp1556
a(S'[/]'
p1557
g12
F0.4388
tp1558
a(S'yeah'
p1559
g9
F0.9853
tp1560
a(S'(.)'
p1561
g12
F0.2567
tp1562
a(S'no'
p1563
g9
F0.5581
tp1564
a(S'xxx'
p1565
g24
F0.4867
tp1566
a(g26
g12
F0.9825
tp1567
a(g28
g29
F0.4567
tp1568
a(g31
g12
F0.8291
tp1569
a(g11
g12
F0.9959
tp1570
asI426
(lp1571
(g36
g37
F0.9261
tp1572
a(S'Mom'
p1573
g24
F0.7928
tp1574
a(g28
g29
F0.5441
tp1575
a(g26
g29
F0.4963
tp1576
a(g36
g37
F0.8293
tp1577
a(g31
g12
F0.9868
tp1578
a(S'buy'
p1579
g6
F0.9983
tp1580
a(S'me'
p1581
g3
F0.9959
tp1582
a(g20
g21
F0.9903
tp1583
a(S'big'
p1584
g337
F0.9862
tp1585
a(S'gun'
p1586
g24
F0.9978
tp1587
a(g11
g12
F0.9974
tp1588
asI429
(lp1589
(g36
g37
F0.9526
tp1590
a(g225
g3
F0.9987
tp1591
a(S'got'
p1592
g6
F0.9993
tp1593
a(g28
g29
F0.3143
tp1594
a(S'[//]'
p1595
g29
F0.6246
tp1596
a(S'(.)'
p1597
g29
F0.7522
tp1598
a(S'you'
p1599
g3
F0.9982
tp1600
a(S'gotta'
p1601
g6
F0.9996
tp1602
a(S'buy'
p1603
g6
F0.9993
tp1604
a(S'me'
p1605
g3
F0.9959
tp1606
a(g20
g21
F0.9903
tp1607
a(S'big'
p1608
g337
F0.9806
tp1609
a(S'gun'
p1610
g24
F0.996
tp1611
a(g36
g37
F0.6058
tp1612
a(S'and'
p1613
g82
F0.9994
tp1614
a(g225
g3
F0.9983
tp1615
a(g28
g6
F0.2795
tp1616
a(S'[/]'
p1617
g12
F0.2776
tp1618
a(S'(.)'
p1619
g56
F0.2529
tp1620
a(S'and'
p1621
g82
F0.9982
tp1622
a(S"I'm"
p1623
g366
F0.997
tp1624
a(S'gonna'
p1625
g6
F0.9957
tp1626
a(S'kill'
p1627
g6
F0.9999
tp1628
a(S'him'
p1629
g3
F0.9908
tp1630
a(S'with'
p1631
g59
F0.9971
tp1632
a(S'Carlos'
p1633
g56
F0.9999
tp1634
a(g11
g12
F0.9875
tp1635
asI438
(lp1636
(S'Mom'
p1637
g24
F0.8533
tp1638
a(g9
g12
F0.9985
tp1639
asI441
(lp1640
(S'xxx'
p1641
g29
F0.8981
tp1642
a(g26
g12
F0.661
tp1643
a(g28
g29
F0.3811
tp1644
a(g31
g12
F0.7604
tp1645
a(g11
g12
F0.9962
tp1646
asI442
(lp1647
(S'xxx'
p1648
g29
F0.8981
tp1649
a(g26
g12
F0.6622
tp1650
a(g36
g37
F0.9843
tp1651
a(g31
g12
F0.988
tp1652
a(g225
g3
F0.9863
tp1653
a(S'xxx'
p1654
g6
F0.9003
tp1655
a(S'that'
p1656
g3
F0.8259
tp1657
a(g11
g12
F0.9987
tp1658
asI445
(lp1659
(S'xxx'
p1660
g29
F0.5852
tp1661
a(S'that'
p1662
g3
F0.7904
tp1663
a(g11
g12
F0.9986
tp1664
asI448
(lp1665
(S'Mom'
p1666
g24
F0.7126
tp1667
a(S"I'm"
p1668
g366
F0.9925
tp1669
a(S'full'
p1670
g337
F0.9828
tp1671
a(g26
g12
F0.9906
tp1672
a(g28
g29
F0.5563
tp1673
a(g31
g12
F0.6899
tp1674
a(g11
g12
F0.9959
tp1675
asI451
(lp1676
(g36
g37
F0.9409
tp1677
a(S'Carlos'
p1678
g56
F0.9985
tp1679
a(g28
g56
F0.3082
tp1680
a(g26
g12
F0.9714
tp1681
a(g36
g37
F0.9635
tp1682
a(g31
g12
F0.9882
tp1683
a(S"that's"
p1684
g366
F0.987
tp1685
a(S'enough'
p1686
g337
F0.8797
tp1687
a(S'juice'
p1688
g24
F0.9952
tp1689
a(g11
g12
F0.9985
tp1690
asI454
(lp1691
(S'eat'
p1692
g6
F0.761
tp1693
a(g9
g12
F0.9978
tp1694
asI457
(lp1695
(S'('
p1696
g12
F0.9506
tp1697
a(S'ex)cuse'
p1698
g6
F0.9758
tp1699
a(S'me'
p1700
g3
F0.9985
tp1701
a(g11
g12
F0.9985
tp1702
asI461
(lp1703
(g82
g82
F0.9893
tp1704
a(g121
g12
F0.8784
tp1705
a(S'chuckles'
p1706
g6
F0.6814
tp1707
a(g1696
g12
F0.9772
tp1708
a(S'ex)cuse'
p1709
g6
F0.9881
tp1710
a(S'me'
p1711
g3
F0.9984
tp1712
a(g11
g12
F0.9983
tp1713
asI465
(lp1714
(g1696
g12
F0.9506
tp1715
a(S'ex)cuse'
p1716
g6
F0.9758
tp1717
a(S'me'
p1718
g3
F0.9985
tp1719
a(g11
g12
F0.9985
tp1720
asI469
(lp1721
(g225
g3
F0.9976
tp1722
a(S'have_to'
p1723
g6
F0.9995
tp1724
a(S'go'
p1725
g6
F0.9954
tp1726
a(S'pee'
p1727
g24
F0.6535
tp1728
a(g11
g12
F0.9985
tp1729
asI472
(lp1730
(S'no'
p1731
g9
F0.8234
tp1732
a(S'xxx'
p1733
g24
F0.8338
tp1734
a(g11
g12
F0.9981
tp1735
asI475
(lp1736
(S'alright'
p1737
g9
F0.8917
tp1738
a(S'go'
p1739
g6
F0.7961
tp1740
a(g11
g12
F0.9978
tp1741
asI478
(lp1742
(S'xxx'
p1743
g29
F0.8718
tp1744
a(g36
g37
F0.6625
tp1745
a(S'Mom'
p1746
g24
F0.8253
tp1747
a(g28
g29
F0.6278
tp1748
a(g26
g29
F0.5345
tp1749
a(g28
g29
F0.9532
tp1750
a(g31
g12
F0.5201
tp1751
a(g964
g82
F0.473
tp1752
a(S'...'
p1753
g12
F0.6222
tp1754
asI481
(lp1755
(S'xxx'
p1756
g29
F0.8981
tp1757
a(g26
g12
F0.6622
tp1758
a(g36
g37
F0.972
tp1759
a(g31
g12
F0.9847
tp1760
a(g11
g12
F0.9962
tp1761
asI483
(lp1762
(g225
g3
F0.9983
tp1763
a(S'have'
p1764
g6
F0.9992
tp1765
a(S'xxx'
p1766
g24
F0.357
tp1767
a(S'over'
p1768
g59
F0.9528
tp1769
a(S'there'
p1770
g64
F0.8872
tp1771
a(g11
g12
F0.9976
tp1772
asI486
(lp1773
(S'huh'
p1774
g9
F0.9936
tp1775
a(g33
g12
F0.9967
tp1776
asI489
(lp1777
(g225
g3
F0.9983
tp1778
a(S'have'
p1779
g6
F0.9992
tp1780
a(S'xxx'
p1781
g29
F0.3709
tp1782
a(S'all'
p1783
g21
F0.6178
tp1784
a(S'there'
p1785
g64
F0.816
tp1786
a(g11
g12
F0.9976
tp1787
asI492
(lp1788
(S'yeah'
p1789
g9
F0.9986
tp1790
a(g11
g12
F0.997
tp1791
asI495
(lp1792
(S"I'll"
p1793
g366
F0.9862
tp1794
a(S'go'
p1795
g6
F0.997
tp1796
a(S'get'
p1797
g6
F0.9987
tp1798
a(S'it'
p1799
g3
F0.9828
tp1800
a(g33
g12
F0.999
tp1801
asI498
(lp1802
(S'yeah'
p1803
g9
F0.9986
tp1804
a(g11
g12
F0.997
tp1805
asI501
(lp1806
(g1696
g12
F0.9604
tp1807
a(S'o)kay'
p1808
g9
F0.6539
tp1809
a(g11
g12
F0.998
tp1810
asI504
(lp1811
(S'to'
p1812
g59
F0.9981
tp1813
a(S'the'
p1814
g21
F0.999
tp1815
a(S'bath+room'
p1816
g24
F0.9975
tp1817
a(g33
g12
F0.9986
tp1818
asI507
(lp1819
(S'xxx'
p1820
g29
F0.648
tp1821
a(S'no'
p1822
g9
F0.7602
tp1823
a(S'the'
p1824
g21
F0.9702
tp1825
a(S'xxx'
p1826
g24
F0.8949
tp1827
a(g11
g12
F0.9984
tp1828
asI510
(lp1829
(S'xxx'
p1830
g29
F0.8981
tp1831
a(g26
g12
F0.661
tp1832
a(g28
g29
F0.3811
tp1833
a(g31
g12
F0.7604
tp1834
a(g11
g12
F0.9962
tp1835
asI511
(lp1836
(g36
g37
F0.9352
tp1837
a(S'know'
p1838
g6
F0.9855
tp1839
a(S'where'
p1840
g64
F0.9484
tp1841
a(g28
g29
F0.6357
tp1842
a(g26
g29
F0.535
tp1843
a(g36
g37
F0.8293
tp1844
a(g31
g12
F0.9395
tp1845
a(S'xxx'
p1846
g29
F0.523
tp1847
a(S'is'
p1848
g6
F0.9939
tp1849
a(g33
g12
F0.9975
tp1850
asI514
(lp1851
(S'is'
p1852
g6
F0.9958
tp1853
a(S'he'
p1854
g3
F0.9969
tp1855
a(S'alright'
p1856
g64
F0.3911
tp1857
a(S'Mom'
p1858
g24
F0.6633
tp1859
a(g33
g12
F0.9985
tp1860
asI520
(lp1861
(S'mhm'
p1862
g9
F0.9761
tp1863
a(g11
g12
F0.9962
tp1864
asI523
(lp1865
(S'are'
p1866
g6
F0.987
tp1867
a(S'we'
p1868
g3
F0.9914
tp1869
a(S'lucky'
p1870
g337
F0.9934
tp1871
a(g11
g12
F0.9987
tp1872
asI526
(lp1873
(S'get'
p1874
g6
F0.9994
tp1875
a(S'him'
p1876
g3
F0.9969
tp1877
a(S'over'
p1878
g64
F0.4059
tp1879
a(g82
g82
F0.9837
tp1880
a(S'w'
p1881
g59
F0.608
tp1882
a(S"Alissa's"
p1883
S'Z'
p1884
F0.9567
tp1885
a(S'chair'
p1886
g24
F0.9865
tp1887
a(S'over'
p1888
g59
F0.9434
tp1889
a(S'here'
p1890
g64
F0.934
tp1891
a(g20
g21
F0.9968
tp1892
a(S'little'
p1893
g337
F0.9973
tp1894
a(S'bit'
p1895
g24
F0.9639
tp1896
a(g11
g12
F0.9963
tp1897
asI531
(lp1898
(g36
g37
F0.9261
tp1899
a(S'Mom'
p1900
g24
F0.7928
tp1901
a(g28
g29
F0.5441
tp1902
a(g26
g29
F0.4959
tp1903
a(g28
g29
F0.9698
tp1904
a(g31
g12
F0.4947
tp1905
a(g33
g12
F0.9959
tp1906
asI534
(lp1907
(S'xxx'
p1908
g29
F0.8981
tp1909
a(g26
g12
F0.6622
tp1910
a(g36
g37
F0.972
tp1911
a(g31
g12
F0.9661
tp1912
a(g9
g12
F0.997
tp1913
asI536
(lp1914
(S'xxx'
p1915
g29
F0.6521
tp1916
a(g9
g12
F0.9801
tp1917
asI537
(lp1918
(S'xxx'
p1919
g29
F0.6521
tp1920
a(g9
g12
F0.9801
tp1921
asI538
(lp1922
(S'xxx'
p1923
g29
F0.5822
tp1924
a(g11
g12
F0.9648
tp1925
asI539
(lp1926
(S'this'
p1927
g3
F0.9526
tp1928
a(S'is'
p1929
g6
F0.9986
tp1930
a(S'mine'
p1931
g3
F0.8068
tp1932
a(S'mom'
p1933
g24
F0.9316
tp1934
a(g11
g12
F0.9985
tp1935
asI542
(lp1936
(S'come'
p1937
g6
F0.9897
tp1938
a(S'on'
p1939
g59
F0.7548
tp1940
a(S'Alissa'
p1941
g56
F0.9972
tp1942
a(g9
g12
F0.9917
tp1943
asI546
(lp1944
(S'this'
p1945
g3
F0.9526
tp1946
a(S'is'
p1947
g6
F0.9955
tp1948
a(S'xxx'
p1949
g29
F0.5167
tp1950
a(g225
g3
F0.9952
tp1951
a(S'think'
p1952
g6
F0.9995
tp1953
a(S'xxx'
p1954
g29
F0.7923
tp1955
a(g26
g12
F0.6588
tp1956
a(g28
g29
F0.4567
tp1957
a(g31
g12
F0.8291
tp1958
a(g11
g12
F0.9959
tp1959
asI550
(lp1960
(g36
g37
F0.9385
tp1961
a(S'what'
p1962
g3
F0.9602
tp1963
a(S"I'm"
p1964
g366
F0.9932
tp1965
a(S'gonna'
p1966
g6
F0.9966
tp1967
a(S'do'
p1968
g6
F0.9981
tp1969
a(S'is'
p1970
g6
F0.9898
tp1971
a(g28
g29
F0.5493
tp1972
a(g26
g29
F0.535
tp1973
a(g36
g37
F0.8293
tp1974
a(g31
g12
F0.9655
tp1975
a(S'(.)'
p1976
g29
F0.3349
tp1977
a(S'when'
p1978
g64
F0.9775
tp1979
a(S"I'm"
p1980
g366
F0.9975
tp1981
a(S'goin(g'
p1982
g6
F0.7671
tp1983
a(g795
g12
F0.9957
tp1984
a(S'down'
p1985
g64
F0.5896
tp1986
a(S'and'
p1987
g82
F0.996
tp1988
a(S'bringing'
p1989
g6
F0.9986
tp1990
a(S'Anthony'
p1991
g56
F0.9958
tp1992
a(S'down'
p1993
g958
F0.3367
tp1994
a(S'tomorrow'
p1995
g24
F0.9268
tp1996
a(S'mornin(g'
p1997
g24
F0.9921
tp1998
a(g795
g12
F0.9833
tp1999
a(S'(.)'
p2000
g73
F0.3028
tp2001
a(S'you'
p2002
g3
F0.9977
tp2003
a(S'can'
p2004
g6
F0.9995
tp2005
a(S'get'
p2006
g6
F0.9999
tp2007
a(S'these'
p2008
g21
F0.9864
tp2009
a(S'guys'
p2010
g24
F0.9972
tp2011
a(S'ready'
p2012
g337
F0.9428
tp2013
a(g11
g12
F0.9983
tp2014
asI559
(lp2015
(S'mhm'
p2016
g9
F0.9761
tp2017
a(g11
g12
F0.9962
tp2018
asI562
(lp2019
(g36
g37
F0.9181
tp2020
a(S"Sean's"
p2021
g1884
F0.766
tp2022
a(S'supposed'
p2023
g337
F0.8971
tp2024
a(S'to'
p2025
g59
F0.9982
tp2026
a(S'call'
p2027
g6
F0.9501
tp2028
a(g28
g12
F0.2718
tp2029
a(S'[//]'
p2030
g12
F0.3313
tp2031
a(S'you'
p2032
g3
F0.9985
tp2033
a(S'can'
p2034
g6
F0.9998
tp2035
a(S'call'
p2036
g6
F0.9995
tp2037
a(S'him'
p2038
g3
F0.9674
tp2039
a(S'right'
p2040
g64
F0.6335
tp2041
a(g33
g12
F0.9984
tp2042
asI565
(lp2043
(S'call'
p2044
g6
F0.9828
tp2045
a(S'him'
p2046
g3
F0.9871
tp2047
a(S'tell'
p2048
g6
F0.9985
tp2049
a(S'him'
p2050
g3
F0.9967
tp2051
a(S'to'
p2052
g59
F0.9911
tp2053
a(S'be'
p2054
g6
F0.9996
tp2055
a(S'ready'
p2056
g337
F0.9566
tp2057
a(S'at'
p2058
g59
F0.999
tp2059
a(S'least'
p2060
g337
F0.8824
tp2061
a(S'by'
p2062
g59
F0.9975
tp2063
a(S'eight'
p2064
g1510
F0.6823
tp2065
a(g11
g12
F0.9959
tp2066
asI570
(lp2067
(S'mhm'
p2068
g9
F0.9761
tp2069
a(g11
g12
F0.9962
tp2070
asI573
(lp2071
(S"I'm"
p2072
g366
F0.9955
tp2073
a(S'gettin(g'
p2074
g6
F0.9575
tp2075
a(g795
g12
F0.991
tp2076
a(S'up'
p2077
g958
F0.7329
tp2078
a(S'at'
p2079
g59
F0.9968
tp2080
a(S'seven'
p2081
g1510
F0.659
tp2082
a(g11
g12
F0.9974
tp2083
asI576
(lp2084
(S"I'll"
p2085
g366
F0.9865
tp2086
a(S'get'
p2087
g6
F0.9996
tp2088
a(S'Anthony'
p2089
g56
F0.9981
tp2090
a(S'down'
p2091
g64
F0.5129
tp2092
a(S'to'
p2093
g59
F0.9906
tp2094
a(S'[/]'
p2095
g6
F0.4598
tp2096
a(S'to'
p2097
g59
F0.9917
tp2098
a(S"Linda's"
p2099
g1884
F0.9667
tp2100
a(S'house'
p2101
g24
F0.9747
tp2102
a(g11
g12
F0.9989
tp2103
asI581
(lp2104
(S'you'
p2105
g3
F0.9983
tp2106
a(S'know'
p2107
g6
F0.996
tp2108
a(g26
g12
F0.9825
tp2109
a(g28
g29
F0.5453
tp2110
a(g31
g12
F0.609
tp2111
a(g33
g12
F0.995
tp2112
asI585
(lp2113
(S'oh'
p2114
g9
F0.9941
tp2115
a(g26
g12
F0.9747
tp2116
a(g36
g37
F0.9843
tp2117
a(g31
g12
F0.9914
tp2118
a(S'can'
p2119
g6
F0.9986
tp2120
a(g225
g3
F0.9989
tp2121
a(S'come'
p2122
g6
F0.9999
tp2123
a(S'with'
p2124
g59
F0.9991
tp2125
a(S'you'
p2126
g3
F0.9981
tp2127
a(g33
g12
F0.9993
tp2128
asI588
(lp2129
(S'not'
p2130
g64
F0.9903
tp2131
a(S'tomorrow'
p2132
g24
F0.8144
tp2133
a(S'morning'
p2134
g24
F0.9875
tp2135
a(g11
g12
F0.9986
tp2136
asI591
(lp2137
(S"we're"
p2138
g366
F0.9715
tp2139
a(S'goin(g'
p2140
g6
F0.7009
tp2141
a(g795
g12
F0.9923
tp2142
a(S'to'
p2143
g59
F0.9982
tp2144
a(S'the'
p2145
g21
F0.999
tp2146
a(S'beach'
p2147
g24
F0.9484
tp2148
a(S'tomorrow'
p2149
g24
F0.9768
tp2150
a(g11
g12
F0.9962
tp2151
asI596
(lp2152
(g36
g37
F0.9526
tp2153
a(g225
g3
F0.9983
tp2154
a(S'wanna'
p2155
g6
F0.9987
tp2156
a(g28
g73
F0.2713
tp2157
a(S'[/]'
p2158
g73
F0.3115
tp2159
a(g225
g3
F0.9969
tp2160
a(S'wanna'
p2161
g6
F0.9986
tp2162
a(S'(.)'
p2163
g56
F0.2335
tp2164
a(S'Patty'
p2165
g56
F0.9547
tp2166
a(g11
g12
F0.997
tp2167
asI599
(lp2168
(S'and'
p2169
g82
F0.9981
tp2170
a(S'xxx'
p2171
g29
F0.5679
tp2172
a(S'(.)'
p2173
g29
F0.8925
tp2174
a(g225
g3
F0.9948
tp2175
a(S'would'
p2176
g6
F0.9998
tp2177
a(S'say'
p2178
g6
F0.9989
tp2179
a(S'(.)'
p2180
g29
F0.3013
tp2181
a(S'&-uh'
p2182
g9
F0.4393
tp2183
a(S'Patty'
p2184
g56
F0.9001
tp2185
a(S'can'
p2186
g6
F0.9902
tp2187
a(g225
g3
F0.997
tp2188
a(S'jump'
p2189
g6
F0.9951
tp2190
a(S'in'
p2191
g59
F0.9781
tp2192
a(S'the'
p2193
g21
F0.9993
tp2194
a(S'water'
p2195
g24
F0.9965
tp2196
a(g33
g12
F0.9984
tp2197
asI604
(lp2198
(g82
g82
F0.9893
tp2199
a(g121
g12
F0.8669
tp2200
a(S'laughs'
p2201
g6
F0.8696
tp2202
a(g11
g12
F0.9983
tp2203
asI605
(lp2204
(g225
g3
F0.9977
tp2205
a(S'can'
p2206
g6
F0.9998
tp2207
a(S'too'
p2208
g64
F0.9804
tp2209
a(g11
g12
F0.9973
tp2210
asI608
(lp2211
(S'sure'
p2212
g337
F0.8737
tp2213
a(S'if'
p2214
g59
F0.9997
tp2215
a(S'you'
p2216
g3
F0.9997
tp2217
a(S'goin(g'
p2218
g6
F0.9782
tp2219
a(g795
g12
F0.9773
tp2220
a(S'xxx'
p2221
g29
F0.623
tp2222
a(g11
g12
F0.9646
tp2223
asI612
(lp2224
(S'Mom'
p2225
g24
F0.5411
tp2226
a(S'you'
p2227
g3
F0.9971
tp2228
a(S'know'
p2229
g6
F0.9988
tp2230
a(S'what'
p2231
g3
F0.9868
tp2232
a(g33
g12
F0.9954
tp2233
asI615
(lp2234
(g225
g3
F0.9984
tp2235
a(S'know'
p2236
g6
F0.9995
tp2237
a(S'[/]'
p2238
g12
F0.4116
tp2239
a(g225
g3
F0.9984
tp2240
a(S'know'
p2241
g6
F0.9999
tp2242
a(S'my'
p2243
g21
F0.9948
tp2244
a(S'gun'
p2245
g24
F0.9977
tp2246
a(S'is'
p2247
g6
F0.9983
tp2248
a(S'this'
p2249
g21
F0.9144
tp2250
a(S'high'
p2251
g24
F0.4838
tp2252
a(g11
g12
F0.9986
tp2253
asI620
(lp2254
(S'like'
p2255
g59
F0.8911
tp2256
a(S'this'
p2257
g3
F0.9771
tp2258
a(g11
g12
F0.9984
tp2259
asI623
(lp2260
(S'that'
p2261
g21
F0.6858
tp2262
a(S'high'
p2263
g337
F0.525
tp2264
a(g11
g12
F0.997
tp2265
asI626
(lp2266
(S'yeah'
p2267
g9
F0.9988
tp2268
a(g33
g12
F0.9966
tp2269
asI629
(lp2270
(S'see'
p2271
g6
F0.8381
tp2272
a(S'(.)'
p2273
g56
F0.2318
tp2274
a(S'like'
p2275
g59
F0.5547
tp2276
a(S'high'
p2277
g24
F0.5583
tp2278
a(g11
g12
F0.9987
tp2279
asI632
(lp2280
(S'xxx'
p2281
g29
F0.5822
tp2282
a(g11
g12
F0.9648
tp2283
asI633
(lp2284
(S'(.)'
p2285
g56
F0.4709
tp2286
a(S'goin(g'
p2287
g6
F0.8562
tp2288
a(g795
g12
F0.9969
tp2289
a(S'again'
p2290
g64
F0.9667
tp2291
a(g11
g12
F0.9977
tp2292
asI636
(lp2293
(S'Alissa'
p2294
g56
F0.9342
tp2295
a(g9
g12
F0.991
tp2296
asI640
(lp2297
(S'hey'
p2298
g9
F0.9912
tp2299
a(S'you'
p2300
g3
F0.9935
tp2301
a(S'Alissa'
p2302
g56
F0.9781
tp2303
a(g9
g12
F0.9917
tp2304
asI644
(lp2305
(S'look_it'
p2306
g24
F0.8325
tp2307
a(g11
g12
F0.9977
tp2308
asI647
(lp2309
(g36
g37
F0.9261
tp2310
a(S'Mom'
p2311
g24
F0.7928
tp2312
a(g28
g29
F0.5441
tp2313
a(g26
g29
F0.4959
tp2314
a(g28
g29
F0.9698
tp2315
a(g31
g12
F0.6899
tp2316
a(g11
g12
F0.9959
tp2317
asI650
(lp2318
(g36
g37
F0.9261
tp2319
a(S'Mom'
p2320
g24
F0.7928
tp2321
a(g28
g29
F0.5441
tp2322
a(g26
g29
F0.4963
tp2323
a(g36
g37
F0.7259
tp2324
a(g31
g12
F0.9803
tp2325
a(g11
g12
F0.9959
tp2326
asI653
(lp2327
(g36
g37
F0.9261
tp2328
a(S'Mom'
p2329
g24
F0.7928
tp2330
a(g28
g29
F0.5441
tp2331
a(g26
g29
F0.4959
tp2332
a(g28
g29
F0.9532
tp2333
a(g31
g12
F0.63
tp2334
a(S'+/'
p2335
g56
F0.1968
tp2336
a(g11
g12
F0.9939
tp2337
asI656
(lp2338
(g36
g37
F0.9261
tp2339
a(S'Mom'
p2340
g24
F0.7928
tp2341
a(g28
g29
F0.5441
tp2342
a(g26
g29
F0.4963
tp2343
a(g36
g37
F0.8293
tp2344
a(g31
g12
F0.9807
tp2345
a(S'the'
p2346
g21
F0.9991
tp2347
a(S'next'
p2348
g337
F0.9785
tp2349
a(S'time'
p2350
g24
F0.9978
tp2351
a(S"I'm"
p2352
g366
F0.9804
tp2353
a(S'xxx'
p2354
g29
F0.398
tp2355
a(g11
g12
F0.9514
tp2356
asI659
(lp2357
(S'Mom'
p2358
g24
F0.8598
tp2359
a(S'in'
p2360
g59
F0.9929
tp2361
a(S'xxx'
p2362
g24
F0.7465
tp2363
a(g11
g12
F0.9983
tp2364
asI662
(lp2365
(S'0'
p2366
g1510
F0.9816
tp2367
a(S'[='
p2368
g29
F0.9666
tp2369
a(g9
g12
F0.9888
tp2370
a(S'sound'
p2371
g6
F0.9481
tp2372
a(S'like'
p2373
g59
F0.9661
tp2374
a(g20
g21
F0.9942
tp2375
a(S'buzzer'
p2376
g24
F0.9847
tp2377
a(g31
g12
F0.9908
tp2378
a(g9
g12
F0.9975
tp2379
asI663
(lp2380
(g225
g3
F0.9983
tp2381
a(S'said'
p2382
g6
F0.9993
tp2383
a(S'go'
p2384
g6
F0.9053
tp2385
a(S'pee'
p2386
g24
F0.6535
tp2387
a(g11
g12
F0.9985
tp2388
asI666
(lp2389
(S'oh'
p2390
g9
F0.9878
tp2391
a(S'you'
p2392
g3
F0.996
tp2393
a(S'got'
p2394
g6
F0.9998
tp2395
a(g20
g21
F0.9985
tp2396
a(S'mosquito'
p2397
g24
F0.9965
tp2398
a(S'bite'
p2399
g24
F0.5805
tp2400
a(g33
g12
F0.9973
tp2401
asI669
(lp2402
(S'yeah'
p2403
g9
F0.9986
tp2404
a(g11
g12
F0.997
tp2405
asI672
(lp2406
(S'mm'
p2407
g9
F0.5842
tp2408
a(g11
g12
F0.9932
tp2409
asI675
(lp2410
(g82
g82
F0.9893
tp2411
a(g121
g12
F0.8669
tp2412
a(S'laughs'
p2413
g6
F0.8696
tp2414
a(g11
g12
F0.9983
tp2415
asI676
(lp2416
(S'nasty'
p2417
g337
F0.9979
tp2418
a(S'mosquitos'
p2419
g24
F0.9903
tp2420
a(g11
g12
F0.9988
tp2421
asI679
(lp2422
(S'Alissa'
p2423
g56
F0.9653
tp2424
a(g11
g12
F0.995
tp2425
asI682
(lp2426
(S'yeah'
p2427
g9
F0.9869
tp2428
a(S'Mom'
p2429
g24
F0.7462
tp2430
a(g225
g3
F0.9714
tp2431
a(S'xxx'
p2432
g29
F0.5573
tp2433
a(g26
g12
F0.6588
tp2434
a(g28
g29
F0.6043
tp2435
a(g31
g12
F0.7541
tp2436
a(g11
g12
F0.9962
tp2437
asI685
(lp2438
(S'eat'
p2439
g6
F0.7645
tp2440
a(g26
g12
F0.9895
tp2441
a(g36
g37
F0.972
tp2442
a(g31
g12
F0.9847
tp2443
a(g11
g12
F0.9962
tp2444
asI688
(lp2445
(S"what's"
p2446
g366
F0.9978
tp2447
a(S'over'
p2448
g59
F0.7314
tp2449
a(S'there'
p2450
g64
F0.8443
tp2451
a(g33
g12
F0.9981
tp2452
asI692
(lp2453
(S'oh'
p2454
g9
F0.9939
tp2455
a(S'(.)'
p2456
g29
F0.3484
tp2457
a(S'xxx'
p2458
g29
F0.976
tp2459
a(g26
g12
F0.6965
tp2460
a(g28
g29
F0.5563
tp2461
a(g31
g12
F0.6899
tp2462
a(g11
g12
F0.9959
tp2463
asI695
(lp2464
(S'xxx'
p2465
g29
F0.8981
tp2466
a(g26
g12
F0.6622
tp2467
a(g36
g37
F0.972
tp2468
a(g31
g12
F0.9847
tp2469
a(g11
g12
F0.9962
tp2470
asI696
(lp2471
(S'Mom'
p2472
g24
F0.6333
tp2473
a(S'(.)'
p2474
g29
F0.2453
tp2475
a(S'kill'
p2476
g6
F0.9931
tp2477
a(S'the'
p2478
g21
F0.9995
tp2479
a(S'bug'
p2480
g24
F0.9927
tp2481
a(S'on'
p2482
g59
F0.9812
tp2483
a(g26
g12
F0.9847
tp2484
a(g28
g29
F0.4438
tp2485
a(g31
g12
F0.7915
tp2486
a(S'my'
p2487
g21
F0.9253
tp2488
a(S'xxx'
p2489
g24
F0.8685
tp2490
a(g11
g12
F0.9971
tp2491
asI699
(lp2492
(S'<&='
p2493
g56
F0.2344
tp2494
a(S'whimpering'
p2495
g6
F0.9923
tp2496
a(g28
g29
F0.4024
tp2497
a(g26
g29
F0.4963
tp2498
a(g36
g37
F0.7259
tp2499
a(g31
g12
F0.9803
tp2500
a(g11
g12
F0.9959
tp2501
asI700
(lp2502
(S'he'
p2503
g3
F0.985
tp2504
a(S'[/]'
p2505
g6
F0.3985
tp2506
a(S'he'
p2507
g3
F0.9967
tp2508
a(S'cut'
p2509
g6
F0.9971
tp2510
a(S'him'
p2511
g3
F0.9896
tp2512
a(S'in'
p2513
g59
F0.9327
tp2514
a(g964
g82
F0.476
tp2515
a(S'...'
p2516
g12
F0.569
tp2517
asI703
(lp2518
(S'he'
p2519
g3
F0.9818
tp2520
a(S'+/'
p2521
g6
F0.2768
tp2522
a(g11
g12
F0.997
tp2523
asI706
(lp2524
(S'no'
p2525
g9
F0.5153
tp2526
a(S'eat'
p2527
g6
F0.796
tp2528
a(g11
g12
F0.998
tp2529
asI709
(lp2530
(g36
g37
F0.9209
tp2531
a(S'but'
p2532
g82
F0.9961
tp2533
a(g225
g3
F0.9986
tp2534
a(g28
g29
F0.3858
tp2535
a(g26
g29
F0.5345
tp2536
a(g28
g29
F0.9532
tp2537
a(g31
g29
F0.5163
tp2538
a(S'xxx'
p2539
g29
F0.9511
tp2540
a(S'close'
p2541
g6
F0.4742
tp2542
a(S'my'
p2543
g21
F0.9622
tp2544
a(S'xxx'
p2545
g24
F0.477
tp2546
a(S'door'
p2547
g24
F0.9932
tp2548
a(S'until'
p2549
g59
F0.9984
tp2550
a(S'xxx'
p2551
g29
F0.4531
tp2552
a(S"I'm"
p2553
g366
F0.9943
tp2554
a(S'cold'
p2555
g337
F0.9973
tp2556
a(g11
g12
F0.9982
tp2557
asI714
(lp2558
(S'xxx'
p2559
g29
F0.8981
tp2560
a(g26
g12
F0.6622
tp2561
a(g36
g37
F0.972
tp2562
a(g31
g12
F0.9847
tp2563
a(g11
g12
F0.9962
tp2564
asI715
(lp2565
(S'you'
p2566
g3
F0.9969
tp2567
a(S'can'
p2568
g6
F0.9996
tp2569
a(S'go'
p2570
g6
F0.9981
tp2571
a(S'close'
p2572
g337
F0.5337
tp2573
a(S'the'
p2574
g21
F0.9989
tp2575
a(S'front'
p2576
g24
F0.7435
tp2577
a(S'door'
p2578
g24
F0.998
tp2579
a(g11
g12
F0.999
tp2580
asI718
(lp2581
(S'no'
p2582
g9
F0.9704
tp2583
a(g11
g12
F0.9989
tp2584
asI721
(lp2585
(S'(.)'
p2586
g56
F0.3464
tp2587
a(S'Mom'
p2588
g56
F0.8118
tp2589
a(S'(.)'
p2590
g56
F0.436
tp2591
a(g36
g37
F0.7601
tp2592
a(g225
g3
F0.9981
tp2593
a(S'have_to'
p2594
g6
F0.9992
tp2595
a(g28
g29
F0.4736
tp2596
a(g26
g29
F0.5345
tp2597
a(g28
g29
F0.9532
tp2598
a(g31
g12
F0.75
tp2599
a(S'+/'
p2600
g56
F0.1819
tp2601
a(g11
g12
F0.9902
tp2602
asI724
(lp2603
(S'xxx'
p2604
g29
F0.8981
tp2605
a(g26
g12
F0.6622
tp2606
a(g36
g37
F0.972
tp2607
a(g31
g12
F0.9847
tp2608
a(g11
g12
F0.9962
tp2609
asI725
(lp2610
(S'he'
p2611
g3
F0.9892
tp2612
a(g36
g37
F0.8637
tp2613
a(S'xxx'
p2614
g6
F0.6309
tp2615
a(S'me'
p2616
g3
F0.9988
tp2617
a(g28
g29
F0.5031
tp2618
a(g26
g29
F0.5345
tp2619
a(g28
g29
F0.9732
tp2620
a(g31
g12
F0.8062
tp2621
a(g11
g12
F0.9969
tp2622
asI728
(lp2623
(g36
g37
F0.9261
tp2624
a(S'Mom'
p2625
g24
F0.7928
tp2626
a(g28
g29
F0.5441
tp2627
a(g26
g29
F0.4963
tp2628
a(g36
g37
F0.7259
tp2629
a(g31
g12
F0.9803
tp2630
a(g11
g12
F0.9959
tp2631
asI731
(lp2632
(S'see'
p2633
g6
F0.7243
tp2634
a(g33
g12
F0.9965
tp2635
asI735
(lp2636
(S'when'
p2637
g64
F0.9614
tp2638
a(S'xxx'
p2639
g29
F0.3049
tp2640
a(S'goes'
p2641
g6
F0.9796
tp2642
a(S'(.)'
p2643
g12
F0.289
tp2644
a(S"I'll"
p2645
g366
F0.957
tp2646
a(S'xxx'
p2647
g6
F0.528
tp2648
a(S'go'
p2649
g6
F0.9426
tp2650
a(S'xxx'
p2651
g29
F0.2365
tp2652
a(g11
g12
F0.9769
tp2653
asI739
(lp2654
(g36
g37
F0.9261
tp2655
a(S'Mom'
p2656
g24
F0.7928
tp2657
a(g28
g29
F0.5441
tp2658
a(g26
g29
F0.4959
tp2659
a(g28
g29
F0.9532
tp2660
a(g31
g12
F0.7766
tp2661
a(g225
g3
F0.9964
tp2662
a(S'wanna'
p2663
g6
F0.9981
tp2664
a(S'go'
p2665
g6
F0.9987
tp2666
a(S'in'
p2667
g59
F0.9897
tp2668
a(S'the'
p2669
g21
F0.9993
tp2670
a(S'car'
p2671
g24
F0.9903
tp2672
a(S'(.)'
p2673
g73
F0.442
tp2674
a(S'the'
p2675
g21
F0.9979
tp2676
a(S"mosquito's"
p2677
g24
F0.8949
tp2678
a(S'gonna'
p2679
g6
F0.9956
tp2680
a(S'bite'
p2681
g6
F0.9995
tp2682
a(S'me'
p2683
g3
F0.9971
tp2684
a(g11
g12
F0.9983
tp2685
asI745
(lp2686
(S"I'm"
p2687
g366
F0.9967
tp2688
a(S'closin(g'
p2689
g6
F0.72
tp2690
a(g795
g12
F0.9945
tp2691
a(S'the'
p2692
g21
F0.9982
tp2693
a(S'window'
p2694
g24
F0.9985
tp2695
a(g11
g12
F0.9986
tp2696
asI748
(lp2697
(S'xxx'
p2698
g29
F0.8981
tp2699
a(g26
g12
F0.6622
tp2700
a(g36
g37
F0.972
tp2701
a(g31
g12
F0.9847
tp2702
a(g11
g12
F0.9962
tp2703
asI749
(lp2704
(S'you'
p2705
g3
F0.9968
tp2706
a(S"don't"
p2707
g6
F1.0
tp2708
a(S'care'
p2709
g6
F0.994
tp2710
a(S"he's"
p2711
g366
F0.99
tp2712
a(S'gonna'
p2713
g6
F0.9836
tp2714
a(S'bite'
p2715
g6
F0.9994
tp2716
a(S'me'
p2717
g3
F0.9967
tp2718
a(g11
g12
F0.9985
tp2719
asI754
(lp2720
(S'oh'
p2721
g9
F0.9928
tp2722
a(S'the'
p2723
g21
F0.9652
tp2724
a(g36
g37
F0.9253
tp2725
a(S"mosquito's"
p2726
g24
F0.6724
tp2727
a(S'gonna'
p2728
g6
F0.9956
tp2729
a(S'bite'
p2730
g6
F0.999
tp2731
a(S'you'
p2732
g3
F0.999
tp2733
a(g28
g29
F0.3773
tp2734
a(g26
g29
F0.5345
tp2735
a(g28
g29
F0.949
tp2736
a(g31
g12
F0.6387
tp2737
a(g33
g12
F0.9934
tp2738
asI758
(lp2739
(g36
g37
F0.931
tp2740
a(S'&C'
p2741
g56
F0.5142
tp2742
a(S'Carlos'
p2743
g56
F0.9999
tp2744
a(g28
g29
F0.2996
tp2745
a(g26
g29
F0.535
tp2746
a(g36
g37
F0.6902
tp2747
a(g31
g12
F0.963
tp2748
a(g9
g12
F0.9969
tp2749
asI761
(lp2750
(S'yeah'
p2751
g9
F0.9986
tp2752
a(g11
g12
F0.997
tp2753
asI765
(lp2754
(S'&-um'
p2755
g9
F0.7866
tp2756
a(S'Mom'
p2757
g24
F0.7071
tp2758
a(S'just'
p2759
g64
F0.9995
tp2760
a(S'washed'
p2761
g6
F0.9921
tp2762
a(S'the'
p2763
g21
F0.9997
tp2764
a(S'car'
p2765
g24
F0.9958
tp2766
a(S'you'
p2767
g3
F0.9938
tp2768
a(S"can't"
p2769
g6
F0.9998
tp2770
a(S'close'
p2771
g6
F0.9048
tp2772
a(S'that'
p2773
g21
F0.5527
tp2774
a(S'window'
p2775
g24
F0.9977
tp2776
a(g11
g12
F0.9983
tp2777
asI770
(lp2778
(S'Mom'
p2779
g24
F0.8368
tp2780
a(S'just'
p2781
g64
F0.9991
tp2782
a(S'washed'
p2783
g6
F0.9952
tp2784
a(S'the'
p2785
g21
F0.9997
tp2786
a(S'car'
p2787
g24
F0.9985
tp2788
a(g11
g12
F0.9978
tp2789
asI773
(lp2790
(S'xxx'
p2791
g29
F0.8718
tp2792
a(g36
g37
F0.6542
tp2793
a(S"Mom's>"
p2794
g24
F0.9456
tp2795
a(S'[/]'
p2796
g12
F0.4246
tp2797
a(S'(.)'
p2798
g73
F0.1977
tp2799
a(S"Mom's"
p2800
g24
F0.4772
tp2801
a(S'gonna'
p2802
g6
F0.9854
tp2803
a(S'(.)'
p2804
g6
F0.2263
tp2805
a(S'close'
p2806
g337
F0.5532
tp2807
a(S'the'
p2808
g21
F0.9991
tp2809
a(S'window'
p2810
g24
F0.997
tp2811
a(g36
g37
F0.5701
tp2812
a(S'and'
p2813
g82
F0.9984
tp2814
a(S'make'
p2815
g6
F0.9846
tp2816
a(S'sure'
p2817
g337
F0.9661
tp2818
a(S'xxx'
p2819
g29
F0.4543
tp2820
a(S'wash'
p2821
g6
F0.897
tp2822
a(S'the'
p2823
g21
F0.9995
tp2824
a(S'car'
p2825
g24
F0.9973
tp2826
a(g28
g29
F0.5331
tp2827
a(g26
g29
F0.5345
tp2828
a(g28
g29
F0.9479
tp2829
a(g31
g12
F0.7152
tp2830
a(g11
g12
F0.9943
tp2831
asI779
(lp2832
(S'Mom'
p2833
g24
F0.8848
tp2834
a(g26
g12
F0.9842
tp2835
a(g9
g12
F0.9842
tp2836
a(g31
g12
F0.9604
tp2837
a(S'(.)'
p2838
g29
F0.544
tp2839
a(g36
g37
F0.8809
tp2840
a(S'Mikey'
p2841
g56
F0.9973
tp2842
a(g36
g37
F0.732
tp2843
a(S'get'
p2844
g6
F0.9972
tp2845
a(S'in'
p2846
g59
F0.8365
tp2847
a(g28
g73
F0.2783
tp2848
a(S'[/]'
p2849
g73
F0.2229
tp2850
a(S'get'
p2851
g6
F0.9969
tp2852
a(S'in'
p2853
g59
F0.8971
tp2854
a(S'there'
p2855
g64
F0.5285
tp2856
a(g28
g29
F0.5498
tp2857
a(g26
g29
F0.535
tp2858
a(g36
g37
F0.8146
tp2859
a(g31
g12
F0.9829
tp2860
a(g11
g12
F0.9948
tp2861
asI782
(lp2862
(g36
g37
F0.97
tp2863
a(S'xxx'
p2864
g29
F0.4355
tp2865
a(S'cold'
p2866
g337
F0.9888
tp2867
a(g28
g29
F0.5133
tp2868
a(g26
g29
F0.5345
tp2869
a(g28
g29
F0.9749
tp2870
a(g31
g12
F0.7541
tp2871
a(g11
g12
F0.9962
tp2872
asI785
(lp2873
(S'<&='
p2874
g56
F0.2832
tp2875
a(S'laughs'
p2876
g6
F0.9507
tp2877
a(g28
g29
F0.3768
tp2878
a(g26
g29
F0.4963
tp2879
a(g36
g37
F0.7259
tp2880
a(g31
g12
F0.9803
tp2881
a(g11
g12
F0.9959
tp2882
asI787
(lp2883
(S'Mommy'
p2884
g24
F0.7586
tp2885
a(g9
g12
F0.9986
tp2886
asI790
(lp2887
(S'did'
p2888
g6
F0.9986
tp2889
a(S'you'
p2890
g3
F0.998
tp2891
a(S'just'
p2892
g64
F0.9991
tp2893
a(S'wash'
p2894
g6
F0.9859
tp2895
a(S'the'
p2896
g21
F0.9995
tp2897
a(S'car'
p2898
g24
F0.995
tp2899
a(g33
g12
F0.9981
tp2900
asI794
(lp2901
(g225
g3
F0.9978
tp2902
a(S'washed'
p2903
g6
F0.9994
tp2904
a(S'it'
p2905
g3
F0.9806
tp2906
a(S'earlier'
p2907
g64
F0.7951
tp2908
a(S'today'
p2909
g24
F0.9163
tp2910
a(g11
g12
F0.9969
tp2911
asI797
(lp2912
(S'today'
p2913
g24
F0.992
tp2914
a(g33
g12
F0.9973
tp2915
asI801
(lp2916
(S'mhm'
p2917
g9
F0.9761
tp2918
a(g11
g12
F0.9962
tp2919
asI804
(lp2920
(S'you'
p2921
g3
F0.998
tp2922
a(S'washed'
p2923
g6
F0.998
tp2924
a(S'it'
p2925
g3
F0.9859
tp2926
a(S'now'
p2927
g64
F0.9957
tp2928
a(g11
g12
F0.9986
tp2929
asI807
(lp2930
(g225
g3
F0.9978
tp2931
a(S'washed'
p2932
g6
F0.9994
tp2933
a(S'it'
p2934
g3
F0.9845
tp2935
a(S'earlier'
p2936
g64
F0.9055
tp2937
a(g11
g12
F0.9979
tp2938
asI810
(lp2939
(S'earlier'
p2940
g64
F0.893
tp2941
a(g33
g12
F0.9973
tp2942
asI814
(lp2943
(S'mhm'
p2944
g9
F0.9761
tp2945
a(g11
g12
F0.9962
tp2946
asI817
(lp2947
(S'and'
p2948
g82
F0.9987
tp2949
a(S'[/]'
p2950
g56
F0.3132
tp2951
a(S'and'
p2952
g82
F0.9986
tp2953
a(S'you'
p2954
g3
F0.9985
tp2955
a(S'xxx'
p2956
g6
F0.7022
tp2957
a(S'let'
p2958
g6
F0.9987
tp2959
a(S'me'
p2960
g3
F0.999
tp2961
a(S'use'
p2962
g6
F0.9677
tp2963
a(S'the'
p2964
g21
F0.9993
tp2965
a(S'hose'
p2966
g24
F0.9981
tp2967
a(g11
g12
F0.9984
tp2968
asI821
(lp2969
(S'yeah'
p2970
g9
F0.9922
tp2971
a(S'you'
p2972
g3
F0.9775
tp2973
a(S'both'
p2974
g21
F0.578
tp2975
a(S'played'
p2976
g6
F0.9388
tp2977
a(S'with'
p2978
g59
F0.9999
tp2979
a(S'the'
p2980
g21
F0.9995
tp2981
a(S'hose'
p2982
g24
F0.9946
tp2983
a(S'for'
p2984
g59
F0.9998
tp2985
a(g20
g21
F0.9987
tp2986
a(S'little'
p2987
g337
F0.9971
tp2988
a(S'bit'
p2989
g24
F0.9631
tp2990
a(g11
g12
F0.995
tp2991
asI826
(lp2992
(S'yeah'
p2993
g9
F0.9986
tp2994
a(g11
g12
F0.997
tp2995
asI829
(lp2996
(S'and'
p2997
g82
F0.9981
tp2998
a(S'xxx'
p2999
g29
F0.7295
tp3000
a(g26
g12
F0.6403
tp3001
a(g28
g29
F0.5453
tp3002
a(g31
g12
F0.7789
tp3003
a(g11
g12
F0.995
tp3004
asI832
(lp3005
(S'xxx'
p3006
g29
F0.8981
tp3007
a(g26
g12
F0.6622
tp3008
a(g36
g37
F0.9843
tp3009
a(g31
g12
F0.9556
tp3010
a(S'xxx'
p3011
g6
F0.5581
tp3012
a(S'you'
p3013
g3
F0.9993
tp3014
a(S"don't"
p3015
g6
F0.9999
tp3016
a(S'wanna'
p3017
g6
F0.9987
tp3018
a(S'get'
p3019
g6
F0.9987
tp3020
a(S'&-um'
p3021
g9
F0.3349
tp3022
a(S'you'
p3023
g3
F0.9984
tp3024
a(S'gotta'
p3025
g6
F0.9996
tp3026
a(S'babysit'
p3027
g6
F0.7844
tp3028
a(g11
g12
F0.9986
tp3029
asI837
(lp3030
(g225
g3
F0.9981
tp3031
a(S'do'
p3032
g6
F0.9995
tp3033
a(g33
g12
F0.9969
tp3034
asI840
(lp3035
(g36
g37
F0.9764
tp3036
a(S'yeah'
p3037
g9
F0.9952
tp3038
a(S'and'
p3039
g82
F0.9983
tp3040
a(g28
g29
F0.5343
tp3041
a(g26
g29
F0.5345
tp3042
a(g28
g29
F0.9532
tp3043
a(g31
g12
F0.8561
tp3044
a(S'and'
p3045
g82
F0.9992
tp3046
a(S'you'
p3047
g3
F0.9995
tp3048
a(S'wanna'
p3049
g6
F0.9968
tp3050
a(S'get'
p3051
g6
F0.9993
tp3052
a(S'wet'
p3053
g337
F0.8614
tp3054
a(S'over'
p3055
g59
F0.995
tp3056
a(S'the'
p3057
g21
F0.9993
tp3058
a(S'hose'
p3059
g24
F0.9941
tp3060
a(S'xxx'
p3061
g29
F0.5226
tp3062
a(S'take'
p3063
g6
F0.9966
tp3064
a(S'the'
p3065
g21
F0.9998
tp3066
a(S'little'
p3067
g337
F0.9931
tp3068
a(S'hose'
p3069
g24
F0.9973
tp3070
a(g11
g12
F0.997
tp3071
asI845
(lp3072
(g36
g37
F0.9526
tp3073
a(g225
g3
F0.9984
tp3074
a(S"didn't"
p3075
g6
F1.0
tp3076
a(S'know'
p3077
g6
F0.9998
tp3078
a(S'that'
p3079
g3
F0.7928
tp3080
a(g28
g29
F0.4384
tp3081
a(g26
g29
F0.535
tp3082
a(g36
g37
F0.7916
tp3083
a(g31
g12
F0.9861
tp3084
a(g11
g12
F0.9959
tp3085
asI848
(lp3086
(S'oh'
p3087
g9
F0.9975
tp3088
a(S'yeah'
p3089
g9
F0.9994
tp3090
a(S'\xe2\x86\x91'
p3091
g73
F0.4266
tp3092
a(S'(.)'
p3093
g73
F0.5838
tp3094
a(S'xxx'
p3095
g29
F0.5165
tp3096
a(g26
g12
F0.6588
tp3097
a(g28
g29
F0.5886
tp3098
a(g31
g12
F0.8062
tp3099
a(g11
g12
F0.9969
tp3100
asI851
(lp3101
(g36
g37
F0.9241
tp3102
a(S'do'
p3103
g6
F0.9991
tp3104
a(S'you'
p3105
g3
F0.9991
tp3106
a(g28
g29
F0.3835
tp3107
a(g26
g29
F0.535
tp3108
a(g36
g37
F0.8293
tp3109
a(g31
g12
F0.9886
tp3110
a(S'wanna'
p3111
g6
F0.9883
tp3112
a(S'get'
p3113
g6
F0.999
tp3114
a(S'wet'
p3115
g337
F0.9798
tp3116
a(g33
g12
F0.9973
tp3117
asI854
(lp3118
(S'no'
p3119
g9
F0.825
tp3120
a(S"that's"
p3121
g366
F0.9884
tp3122
a(S'alright'
p3123
g9
F0.4646
tp3124
a(g11
g12
F0.9981
tp3125
asI857
(lp3126
(S'when'
p3127
g64
F0.9604
tp3128
a(S'we'
p3129
g3
F0.9964
tp3130
a(S'get'
p3131
g6
F0.9997
tp3132
a(S'back'
p3133
g337
F0.289
tp3134
a(S'xxx'
p3135
g24
F0.3704
tp3136
a(S'now'
p3137
g64
F0.9873
tp3138
a(S'you'
p3139
g3
F0.9992
tp3140
a(S'can'
p3141
g6
F0.9995
tp3142
a(S'get'
p3143
g6
F0.9996
tp3144
a(S'wet'
p3145
g337
F0.9758
tp3146
a(S'alright'
p3147
g9
F0.5937
tp3148
a(g33
g12
F0.9968
tp3149
asI863
(lp3150
(S'xxx'
p3151
g29
F0.5822
tp3152
a(g11
g12
F0.9648
tp3153
asI864
(lp3154
(S'xxx'
p3155
g29
F0.7103
tp3156
a(g33
g12
F0.9715
tp3157
asI866
(lp3158
(S'Mom'
p3159
g24
F0.7126
tp3160
a(S"I'm"
p3161
g366
F0.9936
tp3162
a(S'gonna'
p3163
g6
F0.9957
tp3164
a(S'put'
p3165
g6
F0.9994
tp3166
a(S'my'
p3167
g21
F0.9497
tp3168
a(S'xxx'
p3169
g24
F0.8047
tp3170
a(S'in'
p3171
g59
F0.9929
tp3172
a(S'there'
p3173
g64
F0.7867
tp3174
a(g11
g12
F0.9985
tp3175
asI871
(lp3176
(S'Mom'
p3177
g24
F0.9095
tp3178
a(g11
g12
F0.9981
tp3179
asI874
(lp3180
(S'what'
p3181
g3
F0.9559
tp3182
a(S'Carlos'
p3183
g56
F0.9974
tp3184
a(g33
g12
F0.9952
tp3185
asI877
(lp3186
(S"I'm"
p3187
g366
F0.9951
tp3188
a(S'gonna'
p3189
g6
F0.9948
tp3190
a(S'throw'
p3191
g6
F0.9989
tp3192
a(S'my'
p3193
g21
F0.958
tp3194
a(S'xxx'
p3195
g24
F0.8047
tp3196
a(S'in'
p3197
g59
F0.9918
tp3198
a(S'there'
p3199
g64
F0.7918
tp3200
a(g11
g12
F0.9981
tp3201
asI881
(lp3202
(S'there'
p3203
g64
F0.5532
tp3204
a(g26
g12
F0.9846
tp3205
a(g28
g29
F0.3811
tp3206
a(g31
g12
F0.7604
tp3207
a(g11
g12
F0.9962
tp3208
asI884
(lp3209
(S'no'
p3210
g9
F0.8389
tp3211
a(g26
g12
F0.9936
tp3212
a(g36
g37
F0.9843
tp3213
a(g31
g12
F0.992
tp3214
a(S"I'll"
p3215
g366
F0.9735
tp3216
a(S'do'
p3217
g6
F1.0
tp3218
a(S'it'
p3219
g3
F0.9916
tp3220
a(g11
g12
F0.999
tp3221
asI887
(lp3222
(S'right'
p3223
g9
F0.7294
tp3224
a(g11
g12
F0.9987
tp3225
asI890
(lp3226
(S'xxx'
p3227
g29
F0.8981
tp3228
a(g26
g12
F0.661
tp3229
a(g28
g29
F0.3811
tp3230
a(g31
g12
F0.7604
tp3231
a(g11
g12
F0.9962
tp3232
asI891
(lp3233
(g36
g37
F0.9001
tp3234
a(S'you'
p3235
g3
F0.9983
tp3236
a(S'have'
p3237
g6
F0.9982
tp3238
a(g28
g29
F0.5521
tp3239
a(g26
g29
F0.535
tp3240
a(g36
g37
F0.8293
tp3241
a(g31
g12
F0.9887
tp3242
a(S'enough'
p3243
g64
F0.6182
tp3244
a(S'already'
p3245
g64
F0.998
tp3246
a(g9
g12
F0.9979
tp3247
asI894
(lp3248
(S'Mommy'
p3249
g24
F0.7911
tp3250
a(g11
g12
F0.9983
tp3251
asI897
(lp3252
(S"where's"
p3253
g366
F0.9469
tp3254
a(S'mine'
p3255
g3
F0.8752
tp3256
a(g82
g82
F0.9877
tp3257
a(S'mi'
p3258
g21
F0.433
tp3259
a(S'right'
p3260
g337
F0.7831
tp3261
a(S'Mom'
p3262
g24
F0.9314
tp3263
a(g33
g12
F0.9982
tp3264
asI900
(lp3265
(S'mine'
p3266
g3
F0.8022
tp3267
a(g11
g12
F0.9966
tp3268
asI903
(lp3269
(g225
g3
F0.9976
tp3270
a(S'wanna'
p3271
g6
F0.9993
tp3272
a(S'take'
p3273
g6
F0.9998
tp3274
a(S'my'
p3275
g21
F0.9821
tp3276
a(S'(.)'
p3277
g56
F0.385
tp3278
a(S'plate'
p3279
g24
F0.7722
tp3280
a(S'up'
p3281
g59
F0.7019
tp3282
a(S'myself'
p3283
g3
F0.9919
tp3284
a(S'xxx'
p3285
g29
F0.3165
tp3286
a(g11
g12
F0.9711
tp3287
asI907
(lp3288
(S'(.)'
p3289
g56
F0.3918
tp3290
a(S'Mommy'
p3291
g56
F0.9631
tp3292
a(S'(.)'
p3293
g56
F0.5899
tp3294
a(S'over'
p3295
g59
F0.778
tp3296
a(S'here'
p3297
g64
F0.9754
tp3298
a(g11
g12
F0.9982
tp3299
asI910
(lp3300
(S'xxx'
p3301
g29
F0.6622
tp3302
a(S'get'
p3303
g6
F0.9984
tp3304
a(S'those'
p3305
g3
F0.7008
tp3306
a(S'xxx'
p3307
g29
F0.3475
tp3308
a(g11
g12
F0.9688
tp3309
asI913
(lp3310
(S'mm'
p3311
g9
F0.5842
tp3312
a(g11
g12
F0.9932
tp3313
asI916
(lp3314
(g82
g82
F0.9893
tp3315
a(g121
g12
F0.8588
tp3316
a(S'chuckles'
p3317
g6
F0.6671
tp3318
a(g11
g12
F0.9971
tp3319
asI917
(lp3320
(g225
g3
F0.9976
tp3321
a(S"don't"
p3322
g6
F1.0
tp3323
a(S'know'
p3324
g6
F0.9992
tp3325
a(S'xxx'
p3326
g29
F0.8105
tp3327
a(g26
g12
F0.6588
tp3328
a(g28
g29
F0.6043
tp3329
a(g31
g12
F0.5753
tp3330
a(g33
g12
F0.996
tp3331
asI920
(lp3332
(S'xxx'
p3333
g29
F0.8981
tp3334
a(g26
g12
F0.6622
tp3335
a(g36
g37
F0.972
tp3336
a(g31
g12
F0.9847
tp3337
a(g11
g12
F0.9962
tp3338
asI921
(lp3339
(S'yeah'
p3340
g9
F0.9986
tp3341
a(g11
g12
F0.997
tp3342
asI924
(lp3343
(S'Mom'
p3344
g24
F0.8237
tp3345
a(S'xxx'
p3346
g29
F0.505
tp3347
a(g11
g12
F0.9721
tp3348
asI927
(lp3349
(g36
g37
F0.9261
tp3350
a(S'Mom'
p3351
g24
F0.7928
tp3352
a(g28
g73
F0.4054
tp3353
a(S'[/]'
p3354
g73
F0.2195
tp3355
a(S'Mom'
p3356
g24
F0.8651
tp3357
a(g225
g3
F0.9941
tp3358
a(S'want'
p3359
g6
F0.9997
tp3360
a(S'xxx'
p3361
g29
F0.3959
tp3362
a(S'ice'
p3363
g24
F0.8191
tp3364
a(g11
g12
F0.9981
tp3365
asI930
(lp3366
(S'hon(ey'
p3367
g24
F0.8417
tp3368
a(g795
g12
F0.9936
tp3369
a(S'you'
p3370
g3
F0.997
tp3371
a(S"don't"
p3372
g6
F1.0
tp3373
a(S'need'
p3374
g6
F0.9999
tp3375
a(S'any'
p3376
g21
F0.4725
tp3377
a(g11
g12
F0.9978
tp3378
asI933
(lp3379
(S'yours'
p3380
g3
F0.9774
tp3381
a(S'is'
p3382
g6
F0.9983
tp3383
a(S'nice'
p3384
g337
F0.9979
tp3385
a(S'and'
p3386
g82
F0.996
tp3387
a(S'cold'
p3388
g337
F0.9812
tp3389
a(g11
g12
F0.9981
tp3390
asI936
(lp3391
(S"Mom's"
p3392
g24
F0.8735
tp3393
a(S'is'
p3394
g6
F0.9972
tp3395
a(S'warm'
p3396
g337
F0.9825
tp3397
a(g11
g12
F0.9984
tp3398
asI939
(lp3399
(g82
g82
F0.9893
tp3400
a(g121
g12
F0.8784
tp3401
a(S'gasps'
p3402
g6
F0.5113
tp3403
a(S'&-um'
p3404
g9
F0.4526
tp3405
a(g36
g37
F0.9299
tp3406
a(g225
g3
F0.9987
tp3407
a(S'want'
p3408
g6
F0.9996
tp3409
a(g28
g29
F0.2613
tp3410
a(S'[/]'
p3411
g29
F0.5822
tp3412
a(g225
g3
F0.9958
tp3413
a(S'wanna'
p3414
g6
F0.9986
tp3415
a(S'get'
p3416
g6
F0.9998
tp3417
a(S'some'
p3418
g21
F0.8495
tp3419
a(S'xxx'
p3420
g24
F0.6197
tp3421
a(g11
g12
F0.9982
tp3422
asI942
(lp3423
(S'wait'
p3424
g6
F0.8994
tp3425
a(g1696
g12
F0.988
tp3426
a(S'un)til'
p3427
g59
F0.9956
tp3428
a(S'it'
p3429
g3
F0.9992
tp3430
a(S'gets'
p3431
g6
F0.9998
tp3432
a(S'warm'
p3433
g337
F0.9583
tp3434
a(S'(.)'
p3435
g12
F0.3118
tp3436
a(S'then'
p3437
g64
F0.9815
tp3438
a(g225
g3
F0.9988
tp3439
a(S'can'
p3440
g6
F0.9998
tp3441
a(S'have'
p3442
g6
F0.999
tp3443
a(S'&-um'
p3444
g9
F0.588
tp3445
a(S'(.)'
p3446
g29
F0.4455
tp3447
a(S'xxx'
p3448
g29
F0.9097
tp3449
a(g11
g12
F0.9718
tp3450
asI947
(lp3451
(S'Mom'
p3452
g24
F0.5411
tp3453
a(S'you'
p3454
g3
F0.9966
tp3455
a(S'got'
p3456
g6
F0.9988
tp3457
a(S'Pepsi'
p3458
g24
F0.6006
tp3459
a(S'in'
p3460
g59
F0.9888
tp3461
a(S'there'
p3462
g64
F0.7799
tp3463
a(g11
g12
F0.998
tp3464
asI950
(lp3465
(S'xxx'
p3466
g29
F0.7492
tp3467
a(S'too'
p3468
g64
F0.943
tp3469
a(g26
g12
F0.9672
tp3470
a(g28
g29
F0.5453
tp3471
a(g31
g12
F0.609
tp3472
a(g33
g12
F0.995
tp3473
asI953
(lp3474
(g36
g37
F0.9365
tp3475
a(S'come'
p3476
g6
F0.9941
tp3477
a(S'on'
p3478
g59
F0.6856
tp3479
a(g28
g29
F0.302
tp3480
a(g26
g29
F0.535
tp3481
a(g36
g37
F0.8293
tp3482
a(g31
g12
F0.9655
tp3483
a(S'(.)'
p3484
g29
F0.2941
tp3485
a(S'finish'
p3486
g6
F0.9475
tp3487
a(S'eating'
p3488
g6
F0.9859
tp3489
a(g11
g12
F0.998
tp3490
asI956
(lp3491
(g225
g3
F0.9967
tp3492
a(S'already'
p3493
g64
F0.9904
tp3494
a(S'ate'
p3495
g6
F0.9983
tp3496
a(S'mine'
p3497
g3
F0.91
tp3498
a(g11
g12
F0.9972
tp3499
asI959
(lp3500
(S'no'
p3501
g9
F0.7985
tp3502
a(S'you'
p3503
g3
F0.9966
tp3504
a(S"didn't"
p3505
g6
F1.0
tp3506
a(S'eat'
p3507
g6
F0.9991
tp3508
a(S'anything'
p3509
g24
F0.9983
tp3510
a(g26
g12
F0.9861
tp3511
a(g9
g12
F0.9901
tp3512
a(g31
g12
F0.9896
tp3513
a(S'yet'
p3514
g64
F0.9423
tp3515
a(g11
g12
F0.9983
tp3516
asI963
(lp3517
(S'oh'
p3518
g9
F0.9975
tp3519
a(S'yeah'
p3520
g9
F0.9995
tp3521
a(g225
g3
F0.9988
tp3522
a(S'wanna'
p3523
g6
F0.9983
tp3524
a(S'eat'
p3525
g6
F0.9929
tp3526
a(g11
g12
F0.9977
tp3527
asI966
(lp3528
(S'Mom'
p3529
g24
F0.7126
tp3530
a(S"I'm"
p3531
g366
F0.996
tp3532
a(S'really'
p3533
g64
F0.9996
tp3534
a(S'sick'
p3535
g337
F0.9951
tp3536
a(g11
g12
F0.9983
tp3537
asI969
(lp3538
(g36
g37
F0.9262
tp3539
a(S"you're"
p3540
g366
F0.9899
tp3541
a(S'really'
p3542
g64
F0.9998
tp3543
a(S'sick'
p3544
g337
F0.9929
tp3545
a(g28
g29
F0.4695
tp3546
a(g26
g29
F0.5345
tp3547
a(g28
g29
F0.9532
tp3548
a(g31
g12
F0.8303
tp3549
a(g82
g82
F0.9942
tp3550
a(g121
g12
F0.8686
tp3551
a(S'chuckles'
p3552
g6
F0.6482
tp3553
a(g33
g12
F0.9955
tp3554
asI972
(lp3555
(g36
g37
F0.8763
tp3556
a(S'until'
p3557
g59
F0.999
tp3558
a(S'you'
p3559
g3
F0.9996
tp3560
a(g28
g29
F0.3835
tp3561
a(g26
g29
F0.535
tp3562
a(g36
g37
F0.8293
tp3563
a(g31
g12
F0.9868
tp3564
a(S'eat'
p3565
g6
F0.997
tp3566
a(S'all'
p3567
g21
F0.8802
tp3568
a(g26
g12
F0.9717
tp3569
a(g28
g29
F0.4438
tp3570
a(g31
g12
F0.8371
tp3571
a(S'of'
p3572
g59
F0.9919
tp3573
a(S'this'
p3574
g3
F0.6493
tp3575
a(g26
g12
F0.9912
tp3576
a(g33
g12
F0.9892
tp3577
a(g31
g12
F0.8635
tp3578
a(g11
g12
F0.9971
tp3579
asI975
(lp3580
(g36
g37
F0.9261
tp3581
a(S'Mom'
p3582
g24
F0.7928
tp3583
a(g28
g29
F0.5441
tp3584
a(g26
g29
F0.4963
tp3585
a(g36
g37
F0.7259
tp3586
a(g31
g12
F0.9562
tp3587
a(g9
g12
F0.9967
tp3588
asI978
(lp3589
(S'&-um'
p3590
g9
F0.7959
tp3591
a(S'(.)'
p3592
g29
F0.3513
tp3593
a(g225
g3
F0.9933
tp3594
a(S'really'
p3595
g64
F0.9955
tp3596
a(S'eat'
p3597
g6
F0.9982
tp3598
a(S'because'
p3599
g59
F0.9906
tp3600
a(S'[/]'
p3601
g56
F0.2391
tp3602
a(S'(.)'
p3603
g56
F0.6847
tp3604
a(S'because'
p3605
g59
F0.9761
tp3606
a(g26
g12
F0.9761
tp3607
a(g28
g29
F0.4438
tp3608
a(g31
g12
F0.7766
tp3609
a(g225
g3
F0.9892
tp3610
a(S'[/]'
p3611
g6
F0.5482
tp3612
a(g225
g3
F0.9987
tp3613
a(S'only'
p3614
g64
F0.8956
tp3615
a(S'ate'
p3616
g6
F0.995
tp3617
a(S'once'
p3618
g64
F0.9808
tp3619
a(S'and'
p3620
g82
F0.9976
tp3621
a(S'&-uh'
p3622
g6
F0.3098
tp3623
a(S'right'
p3624
g64
F0.9112
tp3625
a(S'here'
p3626
g64
F0.9949
tp3627
a(S'and'
p3628
g82
F0.9988
tp3629
a(g225
g3
F0.9992
tp3630
a(S'want'
p3631
g6
F0.9999
tp3632
a(S'to'
p3633
g59
F0.9858
tp3634
a(S'xxx'
p3635
g6
F0.4726
tp3636
a(g11
g12
F0.9971
tp3637
asI985
(lp3638
(S'xxx'
p3639
g29
F0.8981
tp3640
a(g26
g12
F0.6622
tp3641
a(g36
g37
F0.972
tp3642
a(g31
g12
F0.9847
tp3643
a(g11
g12
F0.9962
tp3644
asI986
(lp3645
(S'take'
p3646
g6
F0.9944
tp3647
a(g20
g21
F0.9906
tp3648
a(S'break'
p3649
g24
F0.9914
tp3650
a(g11
g12
F0.9989
tp3651
asI989
(lp3652
(S'(.)'
p3653
g29
F0.3392
tp3654
a(g225
g3
F0.9937
tp3655
a(S'love'
p3656
g6
F0.999
tp3657
a(S'the'
p3658
g21
F0.9985
tp3659
a(S'white'
p3660
g337
F0.8217
tp3661
a(S'meat'
p3662
g24
F0.9908
tp3663
a(S'when'
p3664
g64
F0.987
tp3665
a(S"it's"
p3666
g366
F0.9972
tp3667
a(S'dry'
p3668
g337
F0.9695
tp3669
a(g36
g37
F0.7764
tp3670
a(S'all'
p3671
g21
F0.4185
tp3672
a(S'around'
p3673
g59
F0.6158
tp3674
a(g28
g29
F0.4064
tp3675
a(g26
g29
F0.5345
tp3676
a(g28
g29
F0.9539
tp3677
a(g31
g12
F0.8524
tp3678
a(g11
g12
F0.9948
tp3679
asI994
(lp3680
(g36
g37
F0.9526
tp3681
a(g225
g3
F0.9975
tp3682
a(S'love'
p3683
g6
F0.9995
tp3684
a(S'you'
p3685
g3
F0.992
tp3686
a(S'Mommy'
p3687
g24
F0.5044
tp3688
a(g28
g73
F0.4592
tp3689
a(g26
g12
F0.9049
tp3690
a(g36
g37
F0.9531
tp3691
a(g31
g12
F0.9861
tp3692
a(g11
g12
F0.9959
tp3693
asI997
(lp3694
(g225
g3
F0.9985
tp3695
a(S'know'
p3696
g6
F0.9983
tp3697
a(g11
g12
F0.9977
tp3698
asI1001
(lp3699
(g225
g3
F0.9967
tp3700
a(S'love'
p3701
g6
F0.9995
tp3702
a(S'you'
p3703
g3
F0.9993
tp3704
a(S'too'
p3705
g64
F0.9932
tp3706
a(g11
g12
F0.9974
tp3707
asI1004
(lp3708
(g225
g3
F0.9937
tp3709
a(g36
g37
F0.7936
tp3710
a(S'thought'
p3711
g6
F0.9967
tp3712
a(S'you'
p3713
g3
F0.9994
tp3714
a(S'was'
p3715
g6
F0.9996
tp3716
a(S'comin(g)'
p3717
g6
F0.7015
tp3718
a(g28
g29
F0.523
tp3719
a(g26
g29
F0.5345
tp3720
a(g28
g29
F0.9532
tp3721
a(g31
g12
F0.9098
tp3722
a(S'back'
p3723
g64
F0.4513
tp3724
a(g11
g12
F0.9977
tp3725
asI1008
(lp3726
(g36
g37
F0.8896
tp3727
a(S'and'
p3728
g82
F0.9994
tp3729
a(g225
g3
F0.9984
tp3730
a(S'love'
p3731
g6
F0.9995
tp3732
a(S'you'
p3733
g3
F0.9995
tp3734
a(g28
g29
F0.3773
tp3735
a(g26
g29
F0.535
tp3736
a(g36
g37
F0.7916
tp3737
a(g31
g12
F0.9861
tp3738
a(g11
g12
F0.9959
tp3739
asI1012
(lp3740
(g225
g3
F0.9967
tp3741
a(S'love'
p3742
g6
F0.9995
tp3743
a(S'you'
p3744
g3
F0.9993
tp3745
a(S'too'
p3746
g64
F0.9932
tp3747
a(g11
g12
F0.9974
tp3748
asI1016
(lp3749
(S'oh'
p3750
g9
F0.9979
tp3751
a(S'what'
p3752
g3
F0.9894
tp3753
a(S'happened'
p3754
g6
F0.9981
tp3755
a(S'to'
p3756
g59
F0.9929
tp3757
a(S'me'
p3758
g3
F0.9972
tp3759
a(g33
g12
F0.998
tp3760
asI1019
(lp3761
(S'xxx'
p3762
g29
F0.8981
tp3763
a(g26
g12
F0.661
tp3764
a(g28
g37
F0.3399
tp3765
a(g31
g12
F0.9753
tp3766
a(S'napkins'
p3767
g24
F0.981
tp3768
a(g11
g12
F0.9983
tp3769
asI1022
(lp3770
(g36
g37
F0.9526
tp3771
a(g225
g3
F0.9945
tp3772
a(S'xxx'
p3773
g6
F0.4762
tp3774
a(g28
g29
F0.5514
tp3775
a(g26
g29
F0.535
tp3776
a(g36
g37
F0.6902
tp3777
a(g31
g12
F0.9839
tp3778
a(g11
g12
F0.9962
tp3779
asI1025
(lp3780
(S'xxx'
p3781
g29
F0.5822
tp3782
a(g11
g12
F0.9648
tp3783
asI1026
(lp3784
(g82
g82
F0.9912
tp3785
a(S'aw'
p3786
g9
F0.9855
tp3787
a(g11
g12
F0.9968
tp3788
asI1027
(lp3789
(S'catsup'
p3790
g24
F0.9618
tp3791
a(g11
g12
F0.9983
tp3792
asI1030
(lp3793
(S"that's"
p3794
g366
F0.9694
tp3795
a(S'the'
p3796
g21
F0.9984
tp3797
a(S'bean'
p3798
g24
F0.9498
tp3799
a(S'juice'
p3800
g24
F0.9978
tp3801
a(g11
g12
F0.9987
tp3802
asI1033
(lp3803
(S'she'
p3804
g3
F0.9941
tp3805
a(S'stuck'
p3806
g6
F0.9983
tp3807
a(S'her'
p3808
g21
F0.9731
tp3809
a(S'arm'
p3810
g24
F0.9988
tp3811
a(S'in'
p3812
g59
F0.9985
tp3813
a(S'her'
p3814
g21
F0.946
tp3815
a(S'beans'
p3816
g24
F0.9954
tp3817
a(g11
g12
F0.9986
tp3818
asI1037
(lp3819
(S'silly+dilly'
p3820
g337
F0.9565
tp3821
a(g11
g12
F0.9983
tp3822
asI1040
(lp3823
(S'you'
p3824
g3
F0.9684
tp3825
a(S'silly+dilly'
p3826
g337
F0.9924
tp3827
a(g11
g12
F0.9985
tp3828
asI1043
(lp3829
(S'you'
p3830
g3
F0.9684
tp3831
a(S'silly+dilly'
p3832
g337
F0.9924
tp3833
a(g11
g12
F0.9985
tp3834
asI1046
(lp3835
(S'no'
p3836
g9
F0.9704
tp3837
a(g11
g12
F0.9989
tp3838
asI1049
(lp3839
(S'Mommy'
p3840
g24
F0.5911
tp3841
a(S'that'
p3842
g59
F0.7656
tp3843
a(S'xxx'
p3844
g29
F0.3404
tp3845
a(g33
g12
F0.9737
tp3846
asI1052
(lp3847
(g225
g3
F0.9974
tp3848
a(S'put'
p3849
g6
F0.996
tp3850
a(S'xxx'
p3851
g24
F0.25
tp3852
a(S'on'
p3853
g59
F0.9942
tp3854
a(S'there'
p3855
g64
F0.8306
tp3856
a(g11
g12
F0.9976
tp3857
asI1055
(lp3858
(S'oh'
p3859
g9
F0.9987
tp3860
a(S'yeah'
p3861
g9
F0.9997
tp3862
a(g33
g12
F0.9973
tp3863
asI1058
(lp3864
(S'yeah'
p3865
g9
F0.9958
tp3866
a(S'he'
p3867
g3
F0.9965
tp3868
a(S'picked'
p3869
g6
F0.9999
tp3870
a(S'it'
p3871
g3
F0.9807
tp3872
a(g11
g12
F0.9989
tp3873
asI1061
(lp3874
(S'she'
p3875
g3
F0.9941
tp3876
a(S'picked'
p3877
g6
F0.9997
tp3878
a(g20
g21
F0.9978
tp3879
a(S'mosquito'
p3880
g24
F0.9979
tp3881
a(S'bite'
p3882
g6
F0.5449
tp3883
a(g33
g12
F0.9973
tp3884
asI1064
(lp3885
(S'yeah'
p3886
g9
F0.9951
tp3887
a(g26
g12
F0.9838
tp3888
a(g28
g29
F0.3811
tp3889
a(g31
g12
F0.7604
tp3890
a(g11
g12
F0.9962
tp3891
asI1067
(lp3892
(S'yeah'
p3893
g9
F0.9951
tp3894
a(g26
g12
F0.9843
tp3895
a(g36
g37
F0.9843
tp3896
a(g31
g12
F0.9929
tp3897
a(S'and'
p3898
g82
F0.9982
tp3899
a(g26
g12
F0.9701
tp3900
a(g28
g29
F0.4438
tp3901
a(g31
g12
F0.7629
tp3902
a(S'+/'
p3903
g24
F0.1634
tp3904
a(g11
g12
F0.9979
tp3905
asI1070
(lp3906
(S'yeah'
p3907
g9
F0.9951
tp3908
a(g26
g12
F0.9843
tp3909
a(g36
g37
F0.972
tp3910
a(g31
g12
F0.9847
tp3911
a(g11
g12
F0.9962
tp3912
asI1073
(lp3913
(S'and'
p3914
g82
F0.9985
tp3915
a(g36
g37
F0.6485
tp3916
a(S'Alicia'
p3917
g56
F0.9027
tp3918
a(g26
g12
F0.9838
tp3919
a(g33
g12
F0.9841
tp3920
a(g31
g12
F0.7796
tp3921
a(g28
g29
F0.5377
tp3922
a(g26
g29
F0.5345
tp3923
a(g28
g29
F0.9532
tp3924
a(g31
g12
F0.8356
tp3925
a(S'was'
p3926
g6
F0.9956
tp3927
a(S'(.)'
p3928
g56
F0.2666
tp3929
a(S'and'
p3930
g82
F0.998
tp3931
a(S'mosquito'
p3932
g24
F0.9637
tp3933
a(S'was'
p3934
g6
F0.9908
tp3935
a(S'go'
p3936
g6
F0.9702
tp3937
a(S'like'
p3938
g59
F0.9444
tp3939
a(S'this'
p3940
g3
F0.7898
tp3941
a(S'(.)'
p3942
g29
F0.3524
tp3943
a(S'xxx'
p3944
g29
F0.8678
tp3945
a(S'of'
p3946
g59
F0.9491
tp3947
a(S'and'
p3948
g82
F0.9957
tp3949
a(S'and'
p3950
g82
F0.999
tp3951
a(S'it'
p3952
g3
F0.9986
tp3953
a(S'was'
p3954
g6
F0.9989
tp3955
a(S'bigger'
p3956
g337
F0.9634
tp3957
a(g11
g12
F0.9963
tp3958
asI1080
(lp3959
(S'yes'
p3960
g9
F0.9832
tp3961
a(g26
g12
F0.9851
tp3962
a(g36
g37
F0.972
tp3963
a(g31
g12
F0.9847
tp3964
a(g11
g12
F0.9962
tp3965
asI1083
(lp3966
(S'Alicia'
p3967
g56
F0.8949
tp3968
a(S'was'
p3969
g6
F0.983
tp3970
a(S'scratching'
p3971
g6
F0.9985
tp3972
a(S'all'
p3973
g21
F0.777
tp3974
a(S'over'
p3975
g59
F0.9756
tp3976
a(S'the'
p3977
g21
F0.9993
tp3978
a(S'place'
p3979
g24
F0.9985
tp3980
a(g11
g12
F0.9985
tp3981
asI1087
(lp3982
(S'Alicia'
p3983
g56
F0.8723
tp3984
a(S'got'
p3985
g6
F0.9473
tp3986
a(S'(.)'
p3987
g56
F0.2979
tp3988
a(S'scratch'
p3989
g6
F0.9544
tp3990
a(S'all'
p3991
g21
F0.6825
tp3992
a(S'over'
p3993
g59
F0.9756
tp3994
a(S'the'
p3995
g21
F0.9995
tp3996
a(S'place'
p3997
g24
F0.9986
tp3998
a(g11
g12
F0.9987
tp3999
asI1091
(lp4000
(S'xxx'
p4001
g29
F0.6536
tp4002
a(g82
g82
F0.9897
tp4003
a(g121
g12
F0.8378
tp4004
a(S'laughs'
p4005
g6
F0.8863
tp4006
a(g26
g12
F0.988
tp4007
a(g28
g29
F0.6043
tp4008
a(g31
g12
F0.7541
tp4009
a(g11
g12
F0.9962
tp4010
asI1092
(lp4011
(g36
g37
F0.8896
tp4012
a(S'and'
p4013
g82
F0.9987
tp4014
a(S'he'
p4015
g3
F0.994
tp4016
a(S"wasn't>"
p4017
g6
F0.9106
tp4018
a(g26
g12
F0.9699
tp4019
a(g36
g37
F0.9635
tp4020
a(g31
g12
F0.9836
tp4021
a(S'+/'
p4022
g56
F0.1842
tp4023
a(g11
g12
F0.9959
tp4024
asI1095
(lp4025
(S'and'
p4026
g82
F0.9987
tp4027
a(S'[//]'
p4028
g12
F0.3438
tp4029
a(S'oh'
p4030
g9
F0.982
tp4031
a(g26
g12
F0.9636
tp4032
a(g9
g12
F0.9901
tp4033
a(g31
g12
F0.9821
tp4034
a(S"that's"
p4035
g366
F0.9583
tp4036
a(S'blood'
p4037
g24
F0.9693
tp4038
a(S'already'
p4039
g64
F0.9944
tp4040
a(S'picked'
p4041
g6
F0.9901
tp4042
a(g11
g12
F0.9982
tp4043
asI1098
(lp4044
(g225
g3
F0.9976
tp4045
a(S"don't"
p4046
g6
F1.0
tp4047
a(S'like'
p4048
g6
F0.9654
tp4049
a(S'that'
p4050
g3
F0.7823
tp4051
a(S'(.)'
p4052
g12
F0.2445
tp4053
a(S'can'
p4054
g6
F0.9977
tp4055
a(g225
g3
F0.9953
tp4056
a(g33
g12
F0.996
tp4057
asI1102
(lp4058
(S'it'
p4059
g3
F0.989
tp4060
a(S"ain't"
p4061
g6
F0.9937
tp4062
a(S'blood'
p4063
g24
F0.9473
tp4064
a(g82
g82
F0.9915
tp4065
a(g121
g12
F0.8951
tp4066
a(S'laughs'
p4067
g6
F0.8989
tp4068
a(g11
g12
F0.9981
tp4069
asI1105
(lp4070
(S'oh'
p4071
g9
F0.9984
tp4072
a(g11
g12
F0.9938
tp4073
asI1108
(lp4074
(S"it's"
p4075
g366
F0.9768
tp4076
a(S'catsup'
p4077
g24
F0.9825
tp4078
a(g11
g12
F0.9985
tp4079
asI1111
(lp4080
(S'right'
p4081
g337
F0.4746
tp4082
a(S'Mom'
p4083
g24
F0.9566
tp4084
a(g33
g12
F0.9981
tp4085
asI1114
(lp4086
(S'xxx'
p4087
g29
F0.8402
tp4088
a(S'what'
p4089
g3
F0.9897
tp4090
a(S'happened'
p4091
g6
F0.9838
tp4092
a(g33
g12
F0.9979
tp4093
asI1118
(lp4094
(S'come'
p4095
g6
F0.9897
tp4096
a(S'on'
p4097
g59
F0.936
tp4098
a(S'eat'
p4099
g6
F0.857
tp4100
a(g20
g21
F0.9988
tp4101
a(S'little'
p4102
g337
F0.9968
tp4103
a(S'bit'
p4104
g24
F0.6908
tp4105
a(S'more'
p4106
g64
F0.4956
tp4107
a(g11
g12
F0.9983
tp4108
asI1121
(lp4109
(S'xxx'
p4110
g29
F0.5822
tp4111
a(g11
g12
F0.9648
tp4112
asI1122
(lp4113
(S'hey'
p4114
g9
F0.9937
tp4115
a(g26
g12
F0.9761
tp4116
a(g9
g12
F0.9842
tp4117
a(g31
g12
F0.959
tp4118
a(S'[='
p4119
g29
F0.9267
tp4120
a(S'high'
p4121
g337
F0.5824
tp4122
a(S'pitched'
p4123
g337
F0.5702
tp4124
a(g31
g12
F0.9958
tp4125
a(S'can'
p4126
g6
F0.9986
tp4127
a(g225
g3
F0.9988
tp4128
a(S'go'
p4129
g6
F0.9995
tp4130
a(S'back'
p4131
g64
F0.9672
tp4132
a(S'out'
p4133
g958
F0.4446
tp4134
a(g33
g12
F0.9983
tp4135
asI1126
(lp4136
(S'mhm'
p4137
g9
F0.9761
tp4138
a(g11
g12
F0.9962
tp4139
asI1129
(lp4140
(S'wow'
p4141
g9
F0.9849
tp4142
a(g26
g12
F0.9701
tp4143
a(g9
g12
F0.9842
tp4144
a(g31
g12
F0.9826
tp4145
a(g225
g3
F0.9964
tp4146
a(S"don't"
p4147
g6
F1.0
tp4148
a(S'want'
p4149
g6
F0.9999
tp4150
a(S'to'
p4151
g59
F0.9527
tp4152
a(g11
g12
F0.9959
tp4153
asI1132
(lp4154
(g36
g37
F0.9526
tp4155
a(g225
g3
F0.9967
tp4156
a(g28
g37
F0.2694
tp4157
a(S'[/]'
p4158
g12
F0.327
tp4159
a(g225
g3
F0.9984
tp4160
a(S'think'
p4161
g6
F1.0
tp4162
a(S'you'
p4163
g3
F0.9981
tp4164
a(S'[/]'
p4165
g6
F0.5248
tp4166
a(S'you'
p4167
g3
F0.9985
tp4168
a(S'xxx'
p4169
g29
F0.5945
tp4170
a(g26
g12
F0.6588
tp4171
a(g28
g29
F0.4915
tp4172
a(g31
g12
F0.7758
tp4173
a(g11
g12
F0.9977
tp4174
asI1135
(lp4175
(S'xxx'
p4176
g29
F0.8981
tp4177
a(g26
g12
F0.6622
tp4178
a(g36
g37
F0.972
tp4179
a(g31
g12
F0.9847
tp4180
a(g11
g12
F0.9962
tp4181
asI1136
(lp4182
(S'because'
p4183
g59
F0.9908
tp4184
a(S'(.)'
p4185
g29
F0.2527
tp4186
a(g225
g3
F0.996
tp4187
a(S'wanna'
p4188
g6
F0.998
tp4189
a(S'go'
p4190
g6
F0.9922
tp4191
a(g82
g82
F0.9637
tp4192
a(g1881
g59
F0.4699
tp4193
a(S'wit(h'
p4194
g59
F0.8006
tp4195
a(g795
g12
F0.9833
tp4196
a(S'Mom'
p4197
g24
F0.5893
tp4198
a(S'and'
p4199
g82
F0.9953
tp4200
a(S"I'm"
p4201
g366
F0.9978
tp4202
a(S'done'
p4203
g6
F0.9548
tp4204
a(S'eatin(g'
p4205
g6
F0.8505
tp4206
a(g795
g12
F0.99
tp4207
a(g11
g12
F0.9971
tp4208
asI1141
(lp4209
(S'and'
p4210
g82
F0.9983
tp4211
a(S"I'm"
p4212
g366
F0.9974
tp4213
a(S'gonna'
p4214
g6
F0.9937
tp4215
a(S'go'
p4216
g6
F0.9992
tp4217
a(S'to'
p4218
g59
F0.9984
tp4219
a(S'the'
p4220
g21
F0.999
tp4221
a(S'beach'
p4222
g24
F0.9147
tp4223
a(S'with'
p4224
g59
F0.9986
tp4225
a(S'Mom'
p4226
g24
F0.8344
tp4227
a(g11
g12
F0.9982
tp4228
asI1146
(lp4229
(g36
g37
F0.9121
tp4230
a(S"that's>"
p4231
g366
F0.6673
tp4232
a(g26
g12
F0.9665
tp4233
a(g28
g29
F0.4857
tp4234
a(g31
g12
F0.8584
tp4235
a(S'tomorrow'
p4236
g24
F0.9737
tp4237
a(g11
g12
F0.996
tp4238
asI1149
(lp4239
(S'tomorrow'
p4240
g24
F0.905
tp4241
a(S'morning'
p4242
g24
F0.9818
tp4243
a(g26
g12
F0.9808
tp4244
a(g28
g29
F0.5453
tp4245
a(g31
g12
F0.7789
tp4246
a(g11
g12
F0.995
tp4247
asI1152
(lp4248
(S'Mommy'
p4249
g24
F0.6861
tp4250
a(g26
g12
F0.9856
tp4251
a(g36
g37
F0.972
tp4252
a(g31
g12
F0.9847
tp4253
a(g11
g12
F0.9962
tp4254
asI1155
(lp4255
(g225
g3
F0.9976
tp4256
a(S'wanna'
p4257
g6
F0.9989
tp4258
a(S'(.)'
p4259
g73
F0.3
tp4260
a(S'xxx'
p4261
g73
F0.6831
tp4262
a(S'(.)'
p4263
g73
F0.5436
tp4264
a(S'&-um'
p4265
g73
F0.746
tp4266
a(S'Patty'
p4267
g56
F0.8241
tp4268
a(S'tomorrow'
p4269
g24
F0.9777
tp4270
a(g11
g12
F0.9969
tp4271
asI1158
(lp4272
(S'Mom'
p4273
g24
F0.8271
tp4274
a(g36
g37
F0.4089
tp4275
a(g225
g3
F0.9975
tp4276
a(S'already'
p4277
g64
F0.9922
tp4278
a(g28
g73
F0.3619
tp4279
a(S'[/]'
p4280
g73
F0.3115
tp4281
a(g225
g3
F0.9957
tp4282
a(S'already'
p4283
g64
F0.9922
tp4284
a(S'(.)'
p4285
g56
F0.2187
tp4286
a(S'ate'
p4287
g6
F0.973
tp4288
a(S'one'
p4289
g1510
F0.9489
tp4290
a(S'more'
p4291
g337
F0.5254
tp4292
a(S'over'
p4293
g59
F0.9179
tp4294
a(S'here'
p4295
g64
F0.9701
tp4296
a(g11
g12
F0.9986
tp4297
asI1163
(lp4298
(S'o(f'
p4299
g56
F0.2489
tp4300
a(g795
g12
F0.9762
tp4301
a(S'rice'
p4302
g24
F0.9585
tp4303
a(g11
g12
F0.9986
tp4304
asI1166
(lp4305
(S'Mom'
p4306
g24
F0.7836
tp4307
a(S"where's"
p4308
g366
F0.9059
tp4309
a(S'my'
p4310
g21
F0.9085
tp4311
a(g1696
g12
F0.9527
tp4312
a(S's)nake'
p4313
g24
F0.9609
tp4314
a(g33
g12
F0.9977
tp4315
asI1169
(lp4316
(S"where's"
p4317
g366
F0.935
tp4318
a(S'your'
p4319
g21
F0.9833
tp4320
a(S'snake'
p4321
g24
F0.9971
tp4322
a(g33
g12
F0.9981
tp4323
asI1172
(lp4324
(S'yeah'
p4325
g9
F0.9986
tp4326
a(g11
g12
F0.997
tp4327
asI1175
(lp4328
(g225
g3
F0.9976
tp4329
a(S"don't"
p4330
g6
F1.0
tp4331
a(S'know'
p4332
g6
F0.9997
tp4333
a(S"what'd"
p4334
g59
F0.3797
tp4335
a(S'you'
p4336
g3
F0.9996
tp4337
a(S'do'
p4338
g6
F0.9999
tp4339
a(S'with'
p4340
g59
F0.9982
tp4341
a(S'it'
p4342
g3
F0.9967
tp4343
a(g33
g12
F0.9991
tp4344
asI1180
(lp4345
(S'upstairs'
p4346
g24
F0.7348
tp4347
a(g11
g12
F0.998
tp4348
asI1183
(lp4349
(S'right'
p4350
g64
F0.7549
tp4351
a(S'here'
p4352
g64
F0.9708
tp4353
a(S'look'
p4354
g6
F0.6397
tp4355
a(g11
g12
F0.998
tp4356
asI1186
(lp4357
(S'xxx'
p4358
g29
F0.5822
tp4359
a(g11
g12
F0.9648
tp4360
asI1187
(lp4361
(S'what'
p4362
g3
F0.9931
tp4363
a(S'do'
p4364
g6
F0.9993
tp4365
a(S'you'
p4366
g3
F0.9997
tp4367
a(S'say'
p4368
g6
F0.9857
tp4369
a(g33
g12
F0.9977
tp4370
asI1190
(lp4371
(g225
g3
F0.9984
tp4372
a(S'know'
p4373
g6
F0.9987
tp4374
a(S'xxx'
p4375
g24
F0.3526
tp4376
a(g11
g12
F0.9983
tp4377
asI1193
(lp4378
(S'(.)'
p4379
g56
F0.3367
tp4380
a(S'let'
p4381
g6
F0.9983
tp4382
a(S'me'
p4383
g3
F0.9995
tp4384
a(S'see'
p4385
g6
F0.9903
tp4386
a(S'that'
p4387
g3
F0.515
tp4388
a(g11
g12
F0.9984
tp4389
asI1196
(lp4390
(g2366
g1510
F0.9816
tp4391
a(S'[='
p4392
g29
F0.9666
tp4393
a(g9
g12
F0.9874
tp4394
a(S'pretend'
p4395
g6
F0.9948
tp4396
a(S'screaming'
p4397
g6
F0.9735
tp4398
a(g31
g12
F0.996
tp4399
a(g11
g12
F0.9959
tp4400
asI1197
(lp4401
(S'the'
p4402
g21
F0.9988
tp4403
a(S"snake's"
p4404
g24
F0.4768
tp4405
a(S'got'
p4406
g6
F0.9764
tp4407
a(S'Alissa'
p4408
g56
F0.9894
tp4409
a(g9
g12
F0.9918
tp4410
asI1200
(lp4411
(S'oh'
p4412
g9
F0.9948
tp4413
a(S'no'
p4414
g9
F0.9961
tp4415
a(g9
g12
F0.9991
tp4416
asI1203
(lp4417
(S'no'
p4418
g9
F0.6995
tp4419
a(S'[/]'
p4420
g12
F0.6446
tp4421
a(S'no'
p4422
g21
F0.4286
tp4423
a(g36
g37
F0.6568
tp4424
a(S'not'
p4425
g64
F0.9922
tp4426
a(S'me'
p4427
g3
F0.9986
tp4428
a(g28
g73
F0.307
tp4429
a(S'[/]'
p4430
g73
F0.3038
tp4431
a(S'not'
p4432
g64
F0.9957
tp4433
a(S'me'
p4434
g3
F0.9944
tp4435
a(g9
g12
F0.9988
tp4436
asI1206
(lp4437
(S'get'
p4438
g6
F0.9876
tp4439
a(S'Maria'
p4440
g56
F0.9963
tp4441
a(g11
g12
F0.9946
tp4442
asI1209
(lp4443
(g36
g37
F0.9288
tp4444
a(g2366
g1510
F0.9882
tp4445
a(S'[='
p4446
g29
F0.9603
tp4447
a(g9
g12
F0.9928
tp4448
a(S'attacking'
p4449
g6
F0.9996
tp4450
a(S'noises]'
p4451
g24
F0.9952
tp4452
a(g28
g29
F0.5759
tp4453
a(g26
g29
F0.5345
tp4454
a(g28
g29
F0.9577
tp4455
a(g31
g12
F0.795
tp4456
a(g11
g12
F0.9964
tp4457
asI1210
(lp4458
(g36
g37
F0.9288
tp4459
a(g2366
g1510
F0.9882
tp4460
a(S'[='
p4461
g29
F0.9603
tp4462
a(g9
g12
F0.9939
tp4463
a(S'fake'
p4464
g337
F0.9183
tp4465
a(S'screaming]'
p4466
g6
F0.3944
tp4467
a(g28
g29
F0.4769
tp4468
a(g26
g29
F0.535
tp4469
a(g36
g37
F0.7815
tp4470
a(g31
g12
F0.9822
tp4471
a(g11
g12
F0.9964
tp4472
asI1211
(lp4473
(g36
g37
F0.9374
tp4474
a(S'no'
p4475
g9
F0.6201
tp4476
a(S"don't>"
p4477
g6
F0.9377
tp4478
a(g26
g12
F0.9833
tp4479
a(g28
g29
F0.4438
tp4480
a(g31
g12
F0.8184
tp4481
a(S'get'
p4482
g6
F0.993
tp4483
a(g36
g37
F0.9344
tp4484
a(S'Maria'
p4485
g56
F0.9937
tp4486
a(g28
g73
F0.2873
tp4487
a(g26
g12
F0.899
tp4488
a(g28
g29
F0.4915
tp4489
a(g31
g12
F0.5744
tp4490
a(g9
g12
F0.9982
tp4491
asI1215
(lp4492
(S'xxx'
p4493
g29
F0.8981
tp4494
a(g26
g12
F0.6622
tp4495
a(g36
g37
F0.972
tp4496
a(g31
g12
F0.9847
tp4497
a(g11
g12
F0.9962
tp4498
asI1216
(lp4499
(S'oh'
p4500
g9
F0.9941
tp4501
a(g26
g12
F0.9747
tp4502
a(g36
g37
F0.972
tp4503
a(g31
g12
F0.9847
tp4504
a(g11
g12
F0.9962
tp4505
asI1219
(lp4506
(S'oh_goodness'
p4507
g9
F0.9832
tp4508
a(S"I'm"
p4509
g366
F0.998
tp4510
a(S'dyin(g'
p4511
g6
F0.9692
tp4512
a(g795
g12
F0.9956
tp4513
a(g11
g12
F0.9961
tp4514
asI1222
(lp4515
(S'xxx'
p4516
g29
F0.4267
tp4517
a(S'you'
p4518
g3
F0.9919
tp4519
a(g36
g37
F0.853
tp4520
a(S'b(l)eedin(g)'
p4521
g6
F0.9533
tp4522
a(g28
g29
F0.4769
tp4523
a(g26
g29
F0.5345
tp4524
a(g28
g29
F0.9732
tp4525
a(g31
g12
F0.8062
tp4526
a(g11
g12
F0.9969
tp4527
asI1225
(lp4528
(S'ah'
p4529
g9
F0.9937
tp4530
a(S'oh'
p4531
g9
F0.9986
tp4532
a(g11
g12
F0.9953
tp4533
asI1228
(lp4534
(S'oh'
p4535
g9
F0.9941
tp4536
a(g26
g12
F0.9747
tp4537
a(g36
g37
F0.9843
tp4538
a(g31
g12
F0.9748
tp4539
a(S'(.)'
p4540
g29
F0.3392
tp4541
a(S"I'm"
p4542
g366
F0.9978
tp4543
a(S'bleeding'
p4544
g6
F0.9878
tp4545
a(g33
g12
F0.9989
tp4546
asI1231
(lp4547
(S'oh'
p4548
g9
F0.9984
tp4549
a(g11
g12
F0.9938
tp4550
asI1234
(lp4551
(S"I'm"
p4552
g366
F0.9878
tp4553
a(S'xxx'
p4554
g29
F0.3916
tp4555
a(g82
g82
F0.9876
tp4556
a(g121
g12
F0.8986
tp4557
a(S'screams'
p4558
g6
F0.6326
tp4559
a(g26
g12
F0.9761
tp4560
a(g28
g29
F0.5886
tp4561
a(g31
g12
F0.6181
tp4562
a(g9
g12
F0.9975
tp4563
asI1237
(lp4564
(g36
g37
F0.9262
tp4565
a(S"you're>"
p4566
g366
F0.839
tp4567
a(g26
g12
F0.9657
tp4568
a(g36
g37
F0.9566
tp4569
a(g31
g12
F0.989
tp4570
a(S'b(l)eedin(g'
p4571
g6
F0.9704
tp4572
a(g795
g12
F0.9954
tp4573
a(g11
g12
F0.9961
tp4574
asI1240
(lp4575
(S"you're"
p4576
g366
F0.9941
tp4577
a(S'b(l)eeding'
p4578
g6
F0.9926
tp4579
a(g11
g12
F0.9989
tp4580
asI1243
(lp4581
(S'no'
p4582
g9
F0.8389
tp4583
a(g26
g12
F0.9909
tp4584
a(g9
g12
F0.9842
tp4585
a(g31
g12
F0.9863
tp4586
a(S"don't"
p4587
g6
F0.9998
tp4588
a(S'kill'
p4589
g6
F0.9999
tp4590
a(S'my'
p4591
g21
F0.9982
tp4592
a(S'Mom'
p4593
g24
F0.9846
tp4594
a(g9
g12
F0.999
tp4595
asI1247
(lp4596
(g225
g3
F0.9952
tp4597
a(S"ain't"
p4598
g6
F0.9957
tp4599
a(g11
g12
F0.9964
tp4600
asI1250
(lp4601
(S'no'
p4602
g9
F0.6995
tp4603
a(S'[/]'
p4604
g12
F0.6446
tp4605
a(S'no'
p4606
g21
F0.4777
tp4607
a(S'(.)'
p4608
g24
F0.4293
tp4609
a(S'no'
p4610
g9
F0.9324
tp4611
a(g9
g12
F0.9991
tp4612
asI1253
(lp4613
(S'xxx'
p4614
g29
F0.6521
tp4615
a(g9
g12
F0.9801
tp4616
asI1255
(lp4617
(S'no'
p4618
g9
F0.6995
tp4619
a(S'[/]'
p4620
g12
F0.6446
tp4621
a(S'no'
p4622
g9
F0.4771
tp4623
a(S'xxx'
p4624
g24
F0.8301
tp4625
a(g11
g12
F0.9984
tp4626
asI1258
(lp4627
(S'no'
p4628
g9
F0.6995
tp4629
a(S'[/]'
p4630
g12
F0.5953
tp4631
a(S'no'
p4632
g9
F0.8486
tp4633
a(g11
g12
F0.9991
tp4634
asI1261
(lp4635
(S'Mom'
p4636
g24
F0.613
tp4637
a(S'the'
p4638
g21
F0.977
tp4639
a(S'xxx'
p4640
g24
F0.653
tp4641
a(S'+/'
p4642
g24
F0.3745
tp4643
a(g11
g12
F0.9981
tp4644
as.