(dp0
I0
(lp1
(S'i'
p2
S'O'
p3
F0.953
tp4
a(S'm'
p5
S'V'
p6
F0.9834
tp7
a(S'going'
p8
g6
F0.9983
tp9
a(S'do'
p10
g6
F0.9997
tp11
a(S'it'
p12
g3
F0.9949
tp13
a(S'to'
p14
S'P'
p15
F0.9947
tp16
a(S'any'
p17
S'D'
p18
F0.9952
tp19
a(S'boy'
p20
S'N'
p21
F0.9966
tp22
a(S'that'
p23
g15
F0.7964
tp24
asI1
(lp25
(S'sing'
p26
g6
F0.9939
tp27
a(S'not'
p28
S'R'
p29
F0.9975
tp30
a(S'last'
p31
S'A'
p32
F0.9824
tp33
a(S'night'
p34
g21
F0.9962
tp35
a(S'zzz'
p36
S'G'
p37
F0.5777
tp38
asI2
(lp39
(S'zzz'
p40
S'!'
p41
F0.361
tp42
asI3
(lp43
(S'okay'
p44
g41
F0.9857
tp45
asI4
(lp46
(S'ready'
p47
g32
F0.9553
tp48
asI5
(lp49
(S'one'
p50
S'$'
p51
F0.7703
tp52
asI6
(lp53
(S'a'
p54
g18
F0.9929
tp55
a(S'one'
p56
g51
F0.9814
tp57
a(g54
g18
F0.9712
tp58
a(S'two'
p59
g51
F0.9845
tp60
a(g54
g18
F0.9744
tp61
a(S'three'
p62
g51
F0.959
tp63
asI7
(lp64
(S'not'
p65
g29
F0.9972
tp66
a(S'last'
p67
g32
F0.9888
tp68
a(S'night'
p69
g21
F0.9938
tp70
a(S'before'
p71
g15
F0.9886
tp72
a(g54
g18
F0.9967
tp73
a(S'little'
p74
g32
F0.978
tp75
a(S'old'
p76
g32
F0.9982
tp77
a(S'man'
p78
g21
F0.9793
tp79
a(S'came'
p80
g6
F0.9844
tp81
a(S'knocking'
p82
g6
F0.9918
tp83
a(S'at'
p84
g15
F0.9983
tp85
a(S'my'
p86
g18
F0.9984
tp87
a(S'door'
p88
g21
F0.9986
tp89
asI8
(lp90
(S'this'
p91
g3
F0.5047
tp92
a(S'what'
p93
g3
F0.9784
tp94
a(S'he'
p95
g3
F0.9987
tp96
a(S'said'
p97
g6
F0.9991
tp98
a(S'to'
p99
g15
F0.995
tp100
a(S'me'
p101
g3
F0.9985
tp102
asI9
(lp103
(S'anna'
p104
S'^'
p105
F0.552
tp106
asI10
(lp107
(S'could'
p108
g6
F0.9875
tp109
a(S'sing'
p110
g6
F0.9997
tp111
a(S'that'
p112
g18
F0.8933
tp113
a(S'song'
p114
g21
F0.9976
tp115
a(S'xxx'
p116
S'E'
p117
F0.6541
tp118
a(S'but'
p119
S'&'
p120
F0.9907
tp121
a(S'you'
p122
g3
F0.9996
tp123
a(S'sang'
p124
g6
F0.9999
tp125
a(S'that'
p126
g18
F0.8234
tp127
a(S'song'
p128
g21
F0.9833
tp129
a(S'all'
p130
g18
F0.9724
tp131
a(S'summer'
p132
g21
F0.967
tp133
a(S'long'
p134
g32
F0.9065
tp135
a(S'xxx'
p136
g21
F0.4803
tp137
a(S'can'
p138
g6
F0.9948
tp139
a(S't'
p140
g6
F0.747
tp141
a(S'remember'
p142
g6
F0.9974
tp143
a(S'the'
p144
g18
F0.9995
tp145
a(S'words'
p146
g21
F0.9831
tp147
asI11
(lp148
(S'you'
p149
g3
F0.9909
tp150
a(S'are'
p151
g6
F0.9985
tp152
asI12
(lp153
(S'no'
p154
g18
F0.8395
tp155
a(S'brother'
p156
g21
F0.9962
tp157
a(S'no'
p158
g18
F0.869
tp159
a(S'brother'
p160
g21
F0.9988
tp161
a(S's'
p162
g37
F0.8683
tp163
a(S'gonna'
p164
g6
F0.9948
tp165
a(S'do'
p166
g6
F0.9998
tp167
a(S'something'
p168
g21
F0.9518
tp169
a(S'this'
p170
g18
F0.9646
tp171
a(S'one'
p172
g51
F0.839
tp173
asI13
(lp174
(S'you'
p175
g3
F0.9943
tp176
a(S'are'
p177
g6
F0.9997
tp178
a(S'my'
p179
g18
F0.9895
tp180
a(S'sun'
p181
g21
F0.9562
tp182
asI14
(lp183
(S'there'
p184
S'X'
p185
F0.6065
tp186
a(S'was'
p187
g6
F0.9971
tp188
a(S'the'
p189
g18
F0.9968
tp190
a(S'write'
p191
g21
F0.6476
tp192
a(S'up'
p193
S'T'
p194
F0.4446
tp195
a(S'in'
p196
g15
F0.9967
tp197
a(S'the'
p198
g18
F0.9992
tp199
a(S'paper'
p200
g21
F0.9965
tp201
a(S'after'
p202
g15
F0.9978
tp203
a(S'the'
p204
g18
F0.9009
tp205
a(S'play'
p206
g21
F0.557
tp207
a(S'about'
p208
g15
F0.999
tp209
a(S'the'
p210
g18
F0.9911
tp211
a(S'uh'
p212
g41
F0.3901
tp213
a(S'his'
p214
g18
F0.9953
tp215
a(S'brother'
p216
g21
F0.9892
tp217
asI15
(lp218
(S'you'
p219
g3
F0.9909
tp220
a(S'are'
p221
g6
F0.9997
tp222
a(S'my'
p223
g18
F0.7206
tp224
asI16
(lp225
(S'takin'
p226
g6
F0.9844
tp227
a(S'g'
p228
g6
F0.3371
tp229
a(S'that'
p230
g18
F0.7788
tp231
a(S'girl'
p232
g21
F0.9925
tp233
a(S'she'
p234
g3
F0.9944
tp235
a(S'was'
p236
g6
F0.9983
tp237
a(S'xxx'
p238
g18
F0.4175
tp239
a(S'girl'
p240
g21
F0.9618
tp241
a(S'friend'
p242
g21
F0.9531
tp243
a(S'and'
p244
g120
F0.9954
tp245
a(S'she'
p246
g3
F0.9987
tp247
a(S'was'
p248
g6
F0.9988
tp249
a(S'found'
p250
g6
F0.9724
tp251
a(S'xxx'
p252
g117
F0.7256
tp253
a(S'xxx'
p254
g117
F0.7821
tp255
a(S'them'
p256
g3
F0.8959
tp257
a(S'break'
p258
g6
F0.9968
tp259
a(S'up'
p260
g194
F0.9326
tp261
a(S'and'
p262
g120
F0.9979
tp263
a(S'then'
p264
g29
F0.9677
tp265
a(S'it'
p266
g3
F0.9993
tp267
a(S'did'
p268
g6
F0.9977
tp269
asI17
(lp270
(S'not'
p271
g29
F0.9972
tp272
a(S'last'
p273
g32
F0.9888
tp274
a(S'night'
p275
g21
F0.9938
tp276
a(S'before'
p277
g15
F0.9886
tp278
a(g54
g18
F0.9967
tp279
a(S'little'
p280
g32
F0.978
tp281
a(S'old'
p282
g32
F0.9982
tp283
a(S'man'
p284
g21
F0.9793
tp285
a(S'came'
p286
g6
F0.9871
tp287
a(S'knockin'
p288
g6
F0.9099
tp289
a(g228
g21
F0.3795
tp290
a(S'at'
p291
g15
F0.9996
tp292
a(S'my'
p293
g18
F0.9983
tp294
a(S'door'
p295
g21
F0.9986
tp296
asI18
(lp297
(S'when'
p298
g29
F0.9585
tp299
a(S'xxx'
p300
g117
F0.7606
tp301
asI19
(lp302
(S'you'
p303
g3
F0.9943
tp304
a(S'are'
p305
g6
F0.9998
tp306
a(S'my'
p307
g18
F0.9901
tp308
a(S'sunshine'
p309
g21
F0.9896
tp310
a(S'my'
p311
g18
F0.8218
tp312
a(S'only'
p313
g32
F0.9635
tp314
a(S'sunshine'
p315
g21
F0.9865
tp316
asI20
(lp317
(S'you'
p318
g3
F0.9983
tp319
a(S'know'
p320
g6
F0.9986
tp321
a(S'what'
p322
g3
F0.9852
tp323
a(g2
g3
F0.9925
tp324
a(S'do'
p325
g6
F0.9999
tp326
a(S'you'
p327
g3
F0.9991
tp328
a(S'care'
p329
g6
F0.9225
tp330
a(S'of'
p331
g15
F0.9771
tp332
a(g2
g3
F0.9752
tp333
a(S'you'
p334
g3
F0.9975
tp335
a(S'never'
p336
g29
F0.9959
tp337
a(S'know'
p338
g6
F0.9965
tp339
a(S'how'
p340
g29
F0.9886
tp341
a(S'if'
p342
g15
F0.9982
tp343
a(S'you'
p344
g3
F0.9993
tp345
asI21
(lp346
(S'anna'
p347
g105
F0.8525
tp348
a(S'take'
p349
g6
F0.9988
tp350
a(S'it'
p351
g3
F0.9086
tp352
a(S'upstairs'
p353
g32
F0.2265
tp354
a(S'babe'
p355
g21
F0.9867
tp356
a(S'take'
p357
g6
F0.9974
tp358
a(S'it'
p359
g3
F0.9327
tp360
a(S'upstairs'
p361
g194
F0.2648
tp362
asI22
(lp363
(g2
g3
F0.953
tp364
a(g5
g6
F0.944
tp365
a(S'okay'
p366
g41
F0.7912
tp367
a(g2
g3
F0.9941
tp368
a(S'know'
p369
g6
F0.9995
tp370
a(S'why'
p371
g29
F0.9733
tp372
a(g2
g3
F0.9961
tp373
a(S'know'
p374
g6
F0.9998
tp375
a(S'the'
p376
g18
F0.9872
tp377
a(S'babbles'
p378
g21
F0.9105
tp379
asI23
(lp380
(S'all'
p381
g185
F0.7572
tp382
a(S'the'
p383
g18
F0.9998
tp384
a(S'time'
p385
g21
F0.997
tp386
a(S'know'
p387
g6
F0.9934
tp388
a(S'what'
p389
g3
F0.9841
tp390
a(g2
g3
F0.9943
tp391
a(S'mean'
p392
g6
F0.9757
tp393
asI24
(lp394
(S'it'
p395
g3
F0.9888
tp396
a(g162
g37
F0.4165
tp397
a(S'fucking'
p398
g29
F0.5184
tp399
a(S'rude'
p400
g32
F0.9993
tp401
asI25
(lp402
(g2
g3
F0.9156
tp403
a(S've'
p404
g6
F0.8405
tp405
a(S'gotten'
p406
g6
F0.971
tp407
a(S'silly'
p408
g32
F0.9971
tp409
a(S'sil'
p410
g21
F0.9752
tp411
a(S'mary'
p412
g105
F0.8136
tp413
asI26
(lp414
(S'what'
p415
g3
F0.6574
tp416
a(S'honey'
p417
g21
F0.9261
tp418
asI27
(lp419
(S'he'
p420
g3
F0.9905
tp421
a(g162
g6
F0.6786
tp422
a(S'acting'
p423
g6
F0.9956
tp424
a(S'silly'
p425
g32
F0.9871
tp426
a(S'too'
p427
g29
F0.9626
tp428
asI28
(lp429
(S'this'
p430
g18
F0.985
tp431
a(S'girl'
p432
g21
F0.9889
tp433
a(S'was'
p434
g6
F0.9946
tp435
a(S'actually'
p436
g29
F0.9996
tp437
a(S'on'
p438
g15
F0.9978
tp439
a(S'the'
p440
g18
F0.9995
tp441
a(S'phone'
p442
g21
F0.9982
tp443
a(S'with'
p444
g15
F0.9992
tp445
a(S'chip'
p446
g21
F0.8668
tp447
asI29
(lp448
(g2
g3
F0.953
tp449
a(g5
g6
F0.9875
tp450
a(S'done'
p451
g6
F0.9274
tp452
a(g2
g3
F0.993
tp453
a(S'was'
p454
g6
F0.9997
tp455
a(S'standing'
p456
g6
F0.9982
tp457
a(S'in'
p458
g15
F0.9888
tp459
a(S'the'
p460
g18
F0.9991
tp461
a(S'room'
p462
g21
F0.9965
tp463
asI30
(lp464
(S'don'
p465
g105
F0.5427
tp466
a(g140
g105
F0.6488
tp467
a(S'point'
p468
g21
F0.8426
tp469
a(S'at'
p470
g15
F0.9998
tp471
a(S'me'
p472
g3
F0.999
tp473
a(S'either'
p474
g29
F0.5347
tp475
asI31
(lp476
(S'bob'
p477
g105
F0.947
tp478
a(S'you'
p479
g3
F0.9983
tp480
a(S'made'
p481
g6
F0.9989
tp482
a(S'good'
p483
g32
F0.9908
tp484
a(S'meatballs'
p485
g21
F0.9482
tp486
asI32
(lp487
(S'come'
p488
g6
F0.9849
tp489
a(S'on'
p490
g194
F0.5632
tp491
asI33
(lp492
(S'0'
p493
g51
F0.9858
tp494
a(S'small'
p495
g32
F0.986
tp496
a(S'yell'
p497
g21
F0.8654
tp498
asI34
(lp499
(S'www'
p500
g105
F0.3889
tp501
asI35
(lp502
(S'kevin'
p503
g105
F0.9882
tp504
asI36
(lp505
(S'kevin'
p506
g105
F0.9917
tp507
a(S'who'
p508
g3
F0.9857
tp509
asI37
(lp510
(g2
g3
F0.953
tp511
a(g5
g6
F0.9832
tp512
a(S'gettin'
p513
g6
F0.9043
tp514
a(g228
g37
F0.2646
tp515
a(S'more'
p516
g32
F0.8355
tp517
a(S'bread'
p518
g21
F0.9985
tp519
asI38
(lp520
(S'kevin'
p521
g105
F0.99
tp522
a(S'kevin'
p523
g105
F0.9949
tp524
a(S'um'
p525
g41
F0.8982
tp526
asI39
(lp527
(S'is'
p528
g6
F0.9956
tp529
a(S'he'
p530
g3
F0.9603
tp531
a(S'tall'
p532
g32
F0.9175
tp533
asI40
(lp534
(S'yep'
p535
g41
F0.9977
tp536
asI41
(lp537
(S'how'
p538
g29
F0.9703
tp539
a(S'do'
p540
g6
F0.9985
tp541
a(S'you'
p542
g3
F0.9998
tp543
a(S'know'
p544
g6
F0.9957
tp545
asI42
(lp546
(S'real'
p547
g32
F0.5936
tp548
a(S'tall'
p549
g32
F0.9775
tp550
asI43
(lp551
(S'be'
p552
g6
F0.9696
tp553
a(S'cause'
p554
g15
F0.6746
tp555
asI44
(lp556
(S'www'
p557
g105
F0.3889
tp558
asI45
(lp559
(S'can'
p560
g6
F0.9946
tp561
a(S'we'
p562
g3
F0.9895
tp563
a(S'go'
p564
g6
F0.9988
tp565
a(S'on'
p566
g15
F0.9704
tp567
a(g54
g18
F0.9892
tp568
a(S'yyy'
p569
g29
F0.4311
tp570
asI46
(lp571
(S'xxx'
p572
g117
F0.6599
tp573
a(S'stupid'
p574
g32
F0.9998
tp575
a(S'girl'
p576
g21
F0.9968
tp577
asI47
(lp578
(S'mom'
p579
g21
F0.7188
tp580
asI48
(lp581
(S'anna'
p582
g105
F0.552
tp583
asI49
(lp584
(S'now'
p585
g29
F0.9804
tp586
a(S'we'
p587
g3
F0.998
tp588
a(S'want'
p589
g6
F0.9999
tp590
a(S'some'
p591
g18
F0.9398
tp592
a(S'more'
p593
g32
F0.8965
tp594
asI50
(lp595
(S'can'
p596
g6
F0.9755
tp597
a(g2
g3
F0.987
tp598
a(S'have'
p599
g6
F0.9997
tp600
a(S'more'
p601
g32
F0.8852
tp602
a(S'cherries'
p603
g21
F0.9972
tp604
asI51
(lp605
(S'what'
p606
g3
F0.6658
tp607
a(S'honey'
p608
g21
F0.9437
tp609
a(S'xxx'
p610
g117
F0.4858
tp611
a(S'anna'
p612
g105
F0.6893
tp613
a(S'finish'
p614
g6
F0.9965
tp615
a(S'your'
p616
g18
F0.9912
tp617
a(S'supper'
p618
g21
F0.9954
tp619
a(S'please'
p620
g6
F0.9583
tp621
asI52
(lp622
(S'now'
p623
g29
F0.9965
tp624
a(S'keep'
p625
g6
F0.9974
tp626
a(S'your'
p627
g18
F0.9955
tp628
a(S'stomach'
p629
g21
F0.9982
tp630
a(S'xxx'
p631
g6
F0.3191
tp632
a(S'you'
p633
g3
F0.9991
tp634
a(S'sit'
p635
g6
F0.9936
tp636
asI53
(lp637
(S'no'
p638
g41
F0.9253
tp639
asI54
(lp640
(S'after'
p641
g15
F0.9769
tp642
a(S'you'
p643
g3
F0.9999
tp644
a(S'eat'
p645
g6
F0.9998
tp646
a(S'your'
p647
g18
F0.994
tp648
a(S'supper'
p649
g21
F0.9955
tp650
asI55
(lp651
(S'no'
p652
g41
F0.6532
tp653
a(g2
g3
F0.9612
tp654
a(S'want'
p655
g6
F0.9996
tp656
a(g2
g3
F0.991
tp657
a(S'wan'
p658
g6
F0.743
tp659
a(g140
g37
F0.4975
tp660
a(g140
g37
F0.8068
tp661
a(g54
g18
F0.9199
tp662
a(S'go'
p663
g21
F0.4268
tp664
a(S'to'
p665
g15
F0.9957
tp666
a(S'darlene'
p667
g105
F0.9845
tp668
a(g162
g37
F0.6871
tp669
asI56
(lp670
(S'no'
p671
g41
F0.6674
tp672
a(S'no'
p673
g41
F0.4899
tp674
a(g2
g3
F0.9529
tp675
a(S'told'
p676
g6
F0.9999
tp677
a(S'you'
p678
g3
F0.9969
tp679
asI57
(lp680
(S'why'
p681
g29
F0.8527
tp682
asI58
(lp683
(S'xxx'
p684
g117
F0.6919
tp685
a(S'go'
p686
g6
F0.9785
tp687
a(S'to'
p688
g15
F0.9781
tp689
a(S'bed'
p690
g21
F0.8395
tp691
asI59
(lp692
(S'no'
p693
g41
F0.6532
tp694
a(g2
g3
F0.9472
tp695
a(S'never'
p696
g29
F0.9958
tp697
a(S'get'
p698
g6
F0.9993
tp699
a(S'to'
p700
g15
F0.9715
tp701
a(S'go'
p702
g6
F0.9993
tp703
a(S'to'
p704
g15
F0.9793
tp705
a(S'darlene'
p706
g105
F0.9837
tp707
a(g162
g37
F0.7189
tp708
asI60
(lp709
(S'mom'
p710
g21
F0.7188
tp711
asI61
(lp712
(S'how'
p713
g29
F0.9703
tp714
a(S'do'
p715
g6
F0.9987
tp716
a(S'you'
p717
g3
F0.9993
tp718
a(S'get'
p719
g6
F1.0
tp720
a(S'it'
p721
g3
F0.9816
tp722
a(S'all'
p723
g18
F0.638
tp724
a(S'over'
p725
g15
F0.9646
tp726
a(S'your'
p727
g18
F0.9945
tp728
a(S'face'
p729
g21
F0.9985
tp730
asI62
(lp731
(S'what'
p732
g3
F0.9931
tp733
a(S'do'
p734
g6
F0.9993
tp735
a(S'you'
p736
g3
F0.9997
tp737
a(S'mean'
p738
g6
F0.9975
tp739
a(S'you'
p740
g3
F0.9985
tp741
a(S'don'
p742
g6
F0.8446
tp743
a(g140
g21
F0.2403
tp744
a(S'know'
p745
g6
F0.9798
tp746
asI63
(lp747
(S'she'
p748
g3
F0.9917
tp749
a(g162
g37
F0.5351
tp750
a(S'just'
p751
g29
F0.9979
tp752
a(g54
g18
F0.9898
tp753
a(S'messy'
p754
g32
F0.995
tp755
a(S'bessie'
p756
g105
F0.5021
tp757
a(g2
g3
F0.971
tp758
a(S'guess'
p759
g6
F0.9995
tp760
asI64
(lp761
(S'is'
p762
g6
F0.9981
tp763
a(S'that'
p764
g3
F0.9255
tp765
a(S'like'
p766
g15
F0.5246
tp767
a(g54
g18
F0.96
tp768
a(S'slobby'
p769
g21
F0.6591
tp770
a(S'wp'
p771
g21
F0.4325
tp772
a(S'bobby'
p773
g105
F0.7723
tp774
asI65
(lp775
(S'mhm'
p776
g41
F0.9747
tp777
asI66
(lp778
(S'why'
p779
g29
F0.8931
tp780
a(S'are'
p781
g6
F0.9929
tp782
a(S'you'
p783
g3
F0.9993
tp784
a(S'getting'
p785
g6
F1.0
tp786
a(S'it'
p787
g3
F0.985
tp788
a(S'all'
p789
g18
F0.638
tp790
a(S'over'
p791
g15
F0.9646
tp792
a(S'your'
p793
g18
F0.9945
tp794
a(S'face'
p795
g21
F0.9985
tp796
asI67
(lp797
(g2
g3
F0.8524
tp798
a(S'dunna'
p799
g6
F0.6276
tp800
a(S'don'
p801
g6
F0.3905
tp802
a(g140
g21
F0.2903
tp803
a(S'know'
p804
g6
F0.9882
tp805
asI68
(lp806
(g2
g3
F0.9892
tp807
a(S'got'
p808
g6
F0.9998
tp809
a(g54
g18
F0.9987
tp810
a(S'big'
p811
g32
F0.9866
tp812
a(S'mouth'
p813
g21
F0.9991
tp814
asI69
(lp815
(S'giggles'
p816
g6
F0.5513
tp817
asI70
(lp818
(S'oh'
p819
g41
F0.9971
tp820
a(g2
g3
F0.9925
tp821
a(S'saw'
p822
g6
F0.9999
tp823
a(S'your'
p824
g18
F0.985
tp825
a(S'dad'
p826
g21
F0.9978
tp827
a(S'today'
p828
g21
F0.9906
tp829
asI71
(lp830
(S'mom'
p831
g21
F0.7048
tp832
a(S'no'
p833
g41
F0.7901
tp834
a(S'um'
p835
g41
F0.7049
tp836
a(S'mary'
p837
g105
F0.9634
tp838
asI72
(lp839
(S'what'
p840
g3
F0.6574
tp841
a(S'honey'
p842
g21
F0.9261
tp843
asI73
(lp844
(S'in'
p845
g15
F0.9915
tp846
a(S'the'
p847
g18
F0.9994
tp848
a(S'morning'
p849
g21
F0.9981
tp850
a(S'remember'
p851
g6
F0.9888
tp852
a(S'make'
p853
g6
F0.992
tp854
a(S'their'
p855
g18
F0.9907
tp856
a(S'bed'
p857
g21
F0.992
tp858
a(S'right'
p859
g29
F0.392
tp860
asI74
(lp861
(S'you'
p862
g3
F0.997
tp863
a(S'brought'
p864
g6
F0.9911
tp865
a(S'one'
p866
g51
F0.7691
tp867
asI75
(lp868
(S'yeah'
p869
g41
F0.9988
tp870
asI76
(lp871
(S'alright'
p872
g41
F0.9193
tp873
a(S'save'
p874
g6
F0.9881
tp875
a(S'those'
p876
g3
F0.5674
tp877
asI77
(lp878
(S'on'
p879
g15
F0.9931
tp880
a(S'the'
p881
g18
F0.9994
tp882
a(S'radio'
p883
g21
F0.9907
tp884
a(S'it'
p885
g3
F0.978
tp886
a(S'said'
p887
g6
F0.9984
tp888
a(S'right'
p889
g29
F0.33
tp890
a(S'it'
p891
g3
F0.9911
tp892
a(S'said'
p893
g6
F0.9932
tp894
a(S'xxx'
p895
g117
F0.703
tp896
asI78
(lp897
(g2
g3
F0.9892
tp898
a(S'got'
p899
g6
F0.9998
tp900
a(g54
g18
F0.998
tp901
a(S'phone'
p902
g21
F0.9991
tp903
a(S'xxx'
p904
g117
F0.9006
tp905
asI79
(lp906
(S'laughing'
p907
g6
F0.9384
tp908
asI80
(lp909
(S'and'
p910
g120
F0.9989
tp911
a(S'you'
p912
g3
F0.9996
tp913
a(S'remembered'
p914
g6
F0.9998
tp915
a(S'me'
p916
g3
F0.9989
tp917
a(S'sayin'
p918
g6
F0.9739
tp919
a(g228
g6
F0.4486
tp920
a(S'that'
p921
g3
F0.721
tp922
a(S'to'
p923
g15
F0.9928
tp924
a(S'you'
p925
g3
F0.9978
tp926
a(S'huh'
p927
g41
F0.8057
tp928
asI81
(lp929
(S'well'
p930
g41
F0.8349
tp931
a(S'if'
p932
g15
F0.9965
tp933
a(S'they'
p934
g3
F0.9983
tp935
a(S'want'
p936
g6
F1.0
tp937
a(S'it'
p938
g3
F0.9944
tp939
a(S'now'
p940
g29
F0.9983
tp941
a(S'anyway'
p942
g29
F0.9926
tp943
a(S'they'
p944
g3
F0.9871
tp945
a(S'gotta'
p946
g6
F0.9995
tp947
a(S'work'
p948
g21
F0.5129
tp949
a(S'with'
p950
g15
F0.9968
tp951
a(S'bell'
p952
g105
F0.6299
tp953
a(S'phone'
p954
g21
F0.9595
tp955
asI82
(lp956
(S'bill'
p957
g21
F0.8593
tp958
a(S'o'
p959
g15
F0.8584
tp960
a(S'brien'
p961
g37
F0.4032
tp962
asI83
(lp963
(S'xxx'
p964
g117
F0.5863
tp965
a(S'back'
p966
g29
F0.6313
tp967
a(S'call'
p968
g6
F0.6404
tp969
asI84
(lp970
(S'bill'
p971
g21
F0.8593
tp972
a(g959
g15
F0.8584
tp973
a(S'brien'
p974
g37
F0.4032
tp975
asI85
(lp976
(S'some'
p977
g18
F0.9728
tp978
a(S'white'
p979
g32
F0.9807
tp980
a(S'right'
p981
g32
F0.3733
tp982
a(S'bob'
p983
g105
F0.9653
tp984
asI86
(lp985
(S'yeah'
p986
g41
F0.9903
tp987
a(S'it'
p988
g3
F0.9982
tp989
a(S'says'
p990
g6
F0.9998
tp991
a(S'that'
p992
g3
F0.5425
tp993
a(S'if'
p994
g15
F0.9963
tp995
a(S'you'
p996
g3
F0.9998
tp997
a(S'want'
p998
g6
F1.0
tp999
a(S'you'
p1000
g3
F0.9993
tp1001
a(S'can'
p1002
g6
F0.9998
tp1003
a(S'hire'
p1004
g6
F0.9998
tp1005
a(S'me'
p1006
g3
F0.9987
tp1007
a(S'out'
p1008
g194
F0.8601
tp1009
a(S'if'
p1010
g15
F0.9994
tp1011
a(S'you'
p1012
g3
F0.9998
tp1013
a(S'need'
p1014
g6
F0.9976
tp1015
a(S'help'
p1016
g6
F0.6961
tp1017
asI87
(lp1018
(S'and'
p1019
g120
F0.9991
tp1020
a(S'they'
p1021
g3
F0.9919
tp1022
a(S'pay'
p1023
g6
F0.9993
tp1024
a(S'you'
p1025
g3
F0.9987
tp1026
a(S'by'
p1027
g15
F0.9954
tp1028
a(S'the'
p1029
g18
F0.9982
tp1030
a(S'hour'
p1031
g21
F0.9936
tp1032
asI88
(lp1033
(S'but'
p1034
g120
F0.9929
tp1035
a(S'but'
p1036
g120
F0.9782
tp1037
a(S'xxx'
p1038
g117
F0.3873
tp1039
a(S'pay'
p1040
g6
F0.9887
tp1041
a(S'you'
p1042
g3
F0.988
tp1043
a(S'two'
p1044
g51
F0.9295
tp1045
a(S'bucks'
p1046
g21
F0.8039
tp1047
a(S'an'
p1048
g18
F0.9447
tp1049
a(S'hour'
p1050
g21
F0.9965
tp1051
a(S'laughs'
p1052
g6
F0.958
tp1053
asI89
(lp1054
(S'three'
p1055
g51
F0.967
tp1056
a(S'bucks'
p1057
g21
F0.8097
tp1058
a(S'an'
p1059
g18
F0.9549
tp1060
a(S'hour'
p1061
g21
F0.9966
tp1062
asI90
(lp1063
(S'what'
p1064
g3
F0.949
tp1065
asI91
(lp1066
(S'xxx'
p1067
g117
F0.5798
tp1068
a(S'the'
p1069
g18
F0.9957
tp1070
a(S'red'
p1071
g32
F0.7419
tp1072
a(S'have'
p1073
g6
F0.654
tp1074
a(S'to'
p1075
g15
F0.967
tp1076
asI92
(lp1077
(S'xxx'
p1078
g117
F0.6645
tp1079
a(S'tomato'
p1080
g21
F0.9771
tp1081
asI93
(lp1082
(g493
g51
F0.9878
tp1083
a(S'low'
p1084
g32
F0.9615
tp1085
a(S'humming'
p1086
g6
F0.6144
tp1087
a(S'sound'
p1088
g6
F0.4418
tp1089
asI94
(lp1090
(g493
g51
F0.9723
tp1091
a(S'whining'
p1092
g6
F0.9922
tp1093
a(S'cry'
p1094
g6
F0.6486
tp1095
asI95
(lp1096
(S'xxx'
p1097
g117
F0.8437
tp1098
asI96
(lp1099
(g2
g3
F0.9897
tp1100
a(S'want'
p1101
g6
F1.0
tp1102
a(S'you'
p1103
g3
F0.9989
tp1104
a(S'to'
p1105
g15
F0.9696
tp1106
a(S'go'
p1107
g6
F0.9993
tp1108
a(S'to'
p1109
g15
F0.9838
tp1110
a(S'bed'
p1111
g6
F0.6035
tp1112
a(S'that'
p1113
g15
F0.6103
tp1114
a(g162
g37
F0.5975
tp1115
a(S'why'
p1116
g29
F0.924
tp1117
asI97
(lp1118
(S'why'
p1119
g29
F0.8527
tp1120
asI98
(lp1121
(S'it'
p1122
g3
F0.9858
tp1123
a(g162
g6
F0.5113
tp1124
a(S'late'
p1125
g32
F0.9517
tp1126
asI99
(lp1127
(S'what'
p1128
g3
F0.5932
tp1129
a(S'time'
p1130
g21
F0.9934
tp1131
asI100
(lp1132
(S'eight'
p1133
g51
F0.8362
tp1134
a(S'thirty'
p1135
g32
F0.5043
tp1136
asI101
(lp1137
(S'well'
p1138
g41
F0.8573
tp1139
a(g2
g3
F0.9961
tp1140
a(S'go'
p1141
g6
F0.9995
tp1142
a(S'to'
p1143
g15
F0.9839
tp1144
a(S'bed'
p1145
g21
F0.7945
tp1146
a(S'at'
p1147
g15
F0.9995
tp1148
a(S'ten'
p1149
g51
F0.6621
tp1150
a(S'thirty'
p1151
g32
F0.39
tp1152
asI102
(lp1153
(S'you'
p1154
g3
F0.9969
tp1155
a(S'do'
p1156
g6
F0.9996
tp1157
a(S'laughs'
p1158
g6
F0.9393
tp1159
asI103
(lp1160
(S'you'
p1161
g3
F0.9963
tp1162
a(S'go'
p1163
g6
F0.9983
tp1164
a(S'to'
p1165
g15
F0.9781
tp1166
a(S'bed'
p1167
g21
F0.5384
tp1168
a(S'when'
p1169
g29
F0.9905
tp1170
a(S'mom'
p1171
g21
F0.8784
tp1172
a(S'tells'
p1173
g6
F0.9994
tp1174
a(S'you'
p1175
g3
F0.999
tp1176
a(S'to'
p1177
g15
F0.9688
tp1178
a(S'go'
p1179
g6
F0.9995
tp1180
a(S'to'
p1181
g15
F0.9853
tp1182
a(S'bed'
p1183
g21
F0.7501
tp1184
asI104
(lp1185
(S'you'
p1186
g3
F0.9968
tp1187
a(S'should'
p1188
g6
F0.9997
tp1189
a(S'be'
p1190
g6
F0.9994
tp1191
a(S'thankful'
p1192
g32
F0.7324
tp1193
a(S'you'
p1194
g3
F0.9953
tp1195
a(S'don'
p1196
g6
F0.8626
tp1197
a(g140
g21
F0.2271
tp1198
a(S'go'
p1199
g6
F0.9942
tp1200
a(S'to'
p1201
g15
F0.9838
tp1202
a(S'bed'
p1203
g21
F0.5543
tp1204
a(S'when'
p1205
g29
F0.9935
tp1206
a(g2
g3
F0.9865
tp1207
a(S'tell'
p1208
g6
F0.9998
tp1209
a(S'you'
p1210
g3
F0.9995
tp1211
a(S'to'
p1212
g15
F0.9688
tp1213
a(S'go'
p1214
g6
F0.9994
tp1215
a(S'to'
p1216
g15
F0.9764
tp1217
a(S'bed'
p1218
g21
F0.6972
tp1219
asI105
(lp1220
(S'if'
p1221
g15
F0.9977
tp1222
a(S'you'
p1223
g3
F0.9996
tp1224
a(S'were'
p1225
g6
F0.9998
tp1226
a(S'my'
p1227
g18
F0.9974
tp1228
a(S'kid'
p1229
g21
F0.9752
tp1230
a(S'you'
p1231
g3
F0.9707
tp1232
a(S'd'
p1233
g6
F0.6761
tp1234
a(S'be'
p1235
g6
F0.996
tp1236
a(S'in'
p1237
g15
F0.9739
tp1238
a(S'bed'
p1239
g21
F0.9787
tp1240
a(S'already'
p1241
g29
F0.9882
tp1242
asI106
(lp1243
(S'seven'
p1244
g51
F0.9109
tp1245
a(g959
g15
F0.8357
tp1246
a(S'clock'
p1247
g21
F0.9137
tp1248
a(S'every'
p1249
g18
F0.9573
tp1250
a(S'night'
p1251
g21
F0.9943
tp1252
asI107
(lp1253
(S'xxx'
p1254
g117
F0.7113
tp1255
a(S'let'
p1256
g6
F0.9976
tp1257
a(S'you'
p1258
g3
F0.9996
tp1259
a(S'stay'
p1260
g6
F0.9991
tp1261
a(S'up'
p1262
g194
F0.953
tp1263
a(S'all'
p1264
g18
F0.9958
tp1265
a(S'night'
p1266
g21
F0.7525
tp1267
a(S'long'
p1268
g32
F0.9101
tp1269
a(S'huh'
p1270
g41
F0.9215
tp1271
asI108
(lp1272
(S'xxx'
p1273
g117
F0.7379
tp1274
a(S'so'
p1275
g29
F0.9408
tp1276
a(S'bad'
p1277
g32
F0.9845
tp1278
asI109
(lp1279
(S'so'
p1280
g15
F0.6866
tp1281
a(S'why'
p1282
g29
F0.8333
tp1283
a(S'is'
p1284
g6
F0.9966
tp1285
a(S'mary'
p1286
g105
F0.956
tp1287
a(S'gonna'
p1288
g6
F0.9932
tp1289
a(S'do'
p1290
g6
F0.9993
tp1291
a(S'xxx'
p1292
g117
F0.8636
tp1293
asI110
(lp1294
(S'yeah'
p1295
g41
F0.9942
tp1296
a(S'xxx'
p1297
g117
F0.4045
tp1298
a(S'spoiled'
p1299
g32
F0.9007
tp1300
a(S'rotten'
p1301
g32
F0.8257
tp1302
a(S'little'
p1303
g32
F0.9747
tp1304
a(S'baby'
p1305
g21
F0.9967
tp1306
asI111
(lp1307
(S'yep'
p1308
g41
F0.9977
tp1309
asI112
(lp1310
(S'who'
p1311
g3
F0.9896
tp1312
a(S'else'
p1313
g29
F0.8064
tp1314
a(S'gives'
p1315
g6
F0.9998
tp1316
a(S'you'
p1317
g3
F0.9824
tp1318
a(S'tea'
p1319
g21
F0.814
tp1320
a(S'parties'
p1321
g21
F0.9956
tp1322
a(S'at'
p1323
g15
F0.9995
tp1324
a(S'eleven'
p1325
g51
F0.7894
tp1326
a(g959
g15
F0.8473
tp1327
a(S'clock'
p1328
g21
F0.983
tp1329
a(S'at'
p1330
g15
F0.9992
tp1331
a(S'night'
p1332
g21
F0.9699
tp1333
a(S'huh'
p1334
g41
F0.9173
tp1335
asI113
(lp1336
(S'nana'
p1337
g21
F0.4165
tp1338
a(S'grandmother'
p1339
g21
F0.9859
tp1340
asI114
(lp1341
(S'nana'
p1342
g21
F0.4528
tp1343
a(S'lets'
p1344
S'L'
p1345
F0.5233
tp1346
a(S'you'
p1347
g3
F0.9984
tp1348
a(S'have'
p1349
g6
F0.9961
tp1350
a(S'tea'
p1351
g21
F0.9701
tp1352
a(S'parties'
p1353
g21
F0.9956
tp1354
a(S'at'
p1355
g15
F0.9991
tp1356
a(S'night'
p1357
g21
F0.9436
tp1358
a(S'like'
p1359
g15
F0.8972
tp1360
a(g2
g3
F0.9951
tp1361
a(S'do'
p1362
g6
F0.9996
tp1363
asI115
(lp1364
(S'sometimes'
p1365
g29
F0.9272
tp1366
asI116
(lp1367
(S'really'
p1368
g29
F0.9938
tp1369
asI117
(lp1370
(S'well'
p1371
g41
F0.8407
tp1372
a(S'only'
p1373
g29
F0.6087
tp1374
a(S'xxx'
p1375
g117
F0.6764
tp1376
asI118
(lp1377
(S'my'
p1378
g18
F0.996
tp1379
a(S'mother'
p1380
g21
F0.9943
tp1381
a(S'never'
p1382
g29
F0.9909
tp1383
a(S'told'
p1384
g6
F0.9998
tp1385
a(S'us'
p1386
g3
F0.9714
tp1387
a(S'to'
p1388
g15
F0.983
tp1389
a(S'go'
p1390
g6
F0.9993
tp1391
a(S'to'
p1392
g15
F0.9838
tp1393
a(S'bed'
p1394
g6
F0.8743
tp1395
a(S'my'
p1396
g18
F0.9965
tp1397
a(S'father'
p1398
g21
F0.9968
tp1399
a(S'did'
p1400
g6
F0.9909
tp1401
asI119
(lp1402
(S'well'
p1403
g41
F0.8573
tp1404
a(g2
g3
F0.9933
tp1405
a(g5
g6
F0.9872
tp1406
a(S'done'
p1407
g6
F0.8955
tp1408
asI120
(lp1409
(g2
g3
F0.9563
tp1410
a(S'xxx'
p1411
g117
F0.4728
tp1412
a(S'what'
p1413
g3
F0.979
tp1414
asI121
(lp1415
(S'xxx'
p1416
g117
F0.646
tp1417
a(S'night'
p1418
g21
F0.8893
tp1419
a(S'xxx'
p1420
g117
F0.7077
tp1421
asI122
(lp1422
(g2
g3
F0.9586
tp1423
a(g5
g6
F0.9849
tp1424
a(S'done'
p1425
g6
F0.9405
tp1426
asI123
(lp1427
(S'when'
p1428
g29
F0.9617
tp1429
a(S'he'
p1430
g3
F0.9951
tp1431
a(S'worked'
p1432
g6
F0.9999
tp1433
a(S'the'
p1434
g18
F0.9997
tp1435
a(S'second'
p1436
g32
F0.9312
tp1437
a(S'shift'
p1438
g21
F0.9981
tp1439
a(S'and'
p1440
g120
F0.9983
tp1441
a(S'didn'
p1442
g6
F0.8952
tp1443
a(g140
g6
F0.7378
tp1444
a(S'come'
p1445
g6
F0.9963
tp1446
a(S'home'
p1447
g21
F0.4395
tp1448
a(S'un'
p1449
g37
F0.5677
tp1450
a(S'til'
p1451
g15
F0.8416
tp1452
a(S'like'
p1453
g15
F0.4939
tp1454
a(S'eleven'
p1455
g51
F0.7855
tp1456
a(S'thirty'
p1457
g21
F0.3921
tp1458
asI124
(lp1459
(S'gasps'
p1460
g21
F0.5201
tp1461
asI125
(lp1462
(S'my'
p1463
g18
F0.996
tp1464
a(S'mom'
p1465
g21
F0.9727
tp1466
a(g1233
g37
F0.4103
tp1467
a(S'say'
p1468
g6
F0.9745
tp1469
a(S'hurry'
p1470
g6
F0.9628
tp1471
a(S'up'
p1472
g194
F0.9446
tp1473
a(S'kids'
p1474
g21
F0.9598
tp1475
a(S'go'
p1476
g6
F0.9957
tp1477
a(S'upstairs'
p1478
g29
F0.4097
tp1479
a(S'your'
p1480
g18
F0.9811
tp1481
a(S'father'
p1482
g21
F0.9939
tp1483
a(g162
g37
F0.6751
tp1484
a(S'going'
p1485
g6
F0.9966
tp1486
a(S'to'
p1487
g15
F0.972
tp1488
a(S'be'
p1489
g6
F0.9994
tp1490
a(S'home'
p1491
g21
F0.8424
tp1492
asI126
(lp1493
(S'you'
p1494
g3
F0.9983
tp1495
a(S'know'
p1496
g6
F0.9966
tp1497
a(g2
g3
F0.9925
tp1498
a(S'see'
p1499
g6
F0.9997
tp1500
a(g54
g18
F0.9982
tp1501
a(S'bachelor'
p1502
g21
F0.997
tp1503
a(S'on'
p1504
g15
F0.9995
tp1505
a(S'the'
p1506
g18
F0.9909
tp1507
a(S'roam'
p1508
g21
F0.8509
tp1509
asI127
(lp1510
(S'exactly'
p1511
g29
F0.6621
tp1512
asI128
(lp1513
(S'enjoy'
p1514
g6
F0.888
tp1515
a(S'xxx'
p1516
g117
F0.703
tp1517
asI129
(lp1518
(g2
g3
F0.9873
tp1519
a(S'can'
p1520
g6
F0.9998
tp1521
a(S'remember'
p1522
g6
F0.9994
tp1523
a(S'sittin'
p1524
g6
F0.8537
tp1525
a(g228
g6
F0.397
tp1526
a(S'on'
p1527
g15
F0.9089
tp1528
a(S'top'
p1529
g21
F0.8331
tp1530
a(S'of'
p1531
g15
F0.9995
tp1532
a(S'the'
p1533
g18
F0.9992
tp1534
a(S'stairs'
p1535
g21
F0.9865
tp1536
a(S'listenin'
p1537
g6
F0.6643
tp1538
a(g228
g6
F0.5493
tp1539
a(S'to'
p1540
g15
F0.9928
tp1541
a(S'them'
p1542
g3
F0.9596
tp1543
asI130
(lp1544
(S'what'
p1545
g3
F0.9962
tp1546
a(S'is'
p1547
g6
F0.9993
tp1548
a(S'the'
p1549
g18
F0.9896
tp1550
a(S'xxx'
p1551
g21
F0.7581
tp1552
a(S'in'
p1553
g15
F0.9754
tp1554
a(S'here'
p1555
g29
F0.9057
tp1556
asI131
(lp1557
(S'bob'
p1558
g105
F0.9928
tp1559
a(g162
g37
F0.3987
tp1560
a(S'in'
p1561
g15
F0.9436
tp1562
a(S'here'
p1563
g29
F0.8907
tp1564
asI132
(lp1565
(S'since'
p1566
g15
F0.898
tp1567
a(g2
g3
F0.9982
tp1568
a(S'was'
p1569
g6
F0.9997
tp1570
a(S'little'
p1571
g32
F0.8835
tp1572
a(S'and'
p1573
g120
F0.9983
tp1574
a(g2
g3
F0.9917
tp1575
a(S'went'
p1576
g6
F0.9996
tp1577
a(S'to'
p1578
g15
F0.9976
tp1579
a(S'the'
p1580
g18
F0.9988
tp1581
a(S'bed'
p1582
g21
F0.9805
tp1583
asI133
(lp1584
(S'just'
p1585
g29
F0.9996
tp1586
a(S'like'
p1587
g15
F0.7275
tp1588
a(S'you'
p1589
g3
F0.9995
tp1590
asI134
(lp1591
(S'yep'
p1592
g41
F0.9977
tp1593
asI135
(lp1594
(S'well'
p1595
g41
F0.8573
tp1596
a(g2
g3
F0.9955
tp1597
a(S'just'
p1598
g29
F0.9998
tp1599
a(S'big'
p1600
g32
F0.9595
tp1601
a(S'and'
p1602
g120
F0.9982
tp1603
a(g2
g3
F0.9917
tp1604
a(S'went'
p1605
g6
F0.9994
tp1606
a(S'to'
p1607
g15
F0.98
tp1608
a(S'bed'
p1609
g21
F0.7665
tp1610
asI136
(lp1611
(S'be'
p1612
g6
F0.9868
tp1613
a(S'done'
p1614
g6
F0.7681
tp1615
asI137
(lp1616
(S'get'
p1617
g6
F0.9991
tp1618
a(S'up'
p1619
g194
F0.9765
tp1620
a(S'on'
p1621
g15
F0.9939
tp1622
a(S'the'
p1623
g18
F0.9993
tp1624
a(S'table'
p1625
g21
F0.989
tp1626
a(S'and'
p1627
g120
F0.9975
tp1628
a(S'we'
p1629
g3
F0.9961
tp1630
a(S'll'
p1631
g6
F0.736
tp1632
a(S'wash'
p1633
g6
F0.6996
tp1634
asI138
(lp1635
(g2
g3
F0.9888
tp1636
a(S'done'
p1637
g6
F0.9951
tp1638
asI139
(lp1639
(g2
g3
F0.988
tp1640
a(S'am'
p1641
g6
F0.9976
tp1642
a(S'done'
p1643
g6
F0.5999
tp1644
asI140
(lp1645
(S'xxx'
p1646
g117
F0.8437
tp1647
asI141
(lp1648
(g2
g3
F0.988
tp1649
a(S'am'
p1650
g6
F0.9976
tp1651
a(S'done'
p1652
g6
F0.5999
tp1653
asI142
(lp1654
(g2
g3
F0.988
tp1655
a(S'am'
p1656
g6
F0.9967
tp1657
a(S'finished'
p1658
g6
F0.8892
tp1659
asI143
(lp1660
(S'may'
p1661
g6
F0.6073
tp1662
a(g2
g3
F0.9843
tp1663
a(S'be'
p1664
g6
F0.9998
tp1665
a(S'excused'
p1666
g6
F0.8138
tp1667
asI144
(lp1668
(S'mm'
p1669
g41
F0.3838
tp1670
a(g2
g3
F0.9919
tp1671
a(S'used'
p1672
g6
F0.9953
tp1673
a(S'to'
p1674
g15
F0.9892
tp1675
a(S'have'
p1676
g6
F0.9998
tp1677
a(S'to'
p1678
g15
F0.9941
tp1679
a(S'say'
p1680
g6
F0.9993
tp1681
a(S'that'
p1682
g3
F0.6909
tp1683
a(S'when'
p1684
g29
F0.9871
tp1685
a(g2
g3
F0.9938
tp1686
a(S'was'
p1687
g6
F0.9998
tp1688
a(S'at'
p1689
g15
F0.9978
tp1690
a(S'the'
p1691
g18
F0.9991
tp1692
a(S'table'
p1693
g21
F0.9946
tp1694
asI145
(lp1695
(S'done'
p1696
g6
F0.8666
tp1697
asI146
(lp1698
(S'no'
p1699
g41
F0.8234
tp1700
a(S'xxx'
p1701
g117
F0.519
tp1702
asI147
(lp1703
(g54
g18
F0.9953
tp1704
a(S'little'
p1705
g32
F0.9987
tp1706
a(S'teaspoon'
p1707
g21
F0.9978
tp1708
asI148
(lp1709
(g2
g3
F0.953
tp1710
a(g5
g6
F0.9629
tp1711
a(S'gonna'
p1712
g6
F0.9932
tp1713
a(S'just'
p1714
g29
F0.9994
tp1715
a(S'xxx'
p1716
g117
F0.3901
tp1717
a(S'anna'
p1718
g105
F0.5307
tp1719
asI149
(lp1720
(S'xxx'
p1721
g117
F0.6493
tp1722
a(S'bet'
p1723
g6
F0.9977
tp1724
a(S'it'
p1725
g3
F0.9883
tp1726
a(S'tastes'
p1727
g6
F0.989
tp1728
a(S'bad'
p1729
g32
F0.917
tp1730
a(S'too'
p1731
g29
F0.937
tp1732
asI150
(lp1733
(S'yeah'
p1734
g41
F0.9988
tp1735
asI151
(lp1736
(S'it'
p1737
g3
F0.9888
tp1738
a(g162
g6
F0.7475
tp1739
a(S'on'
p1740
g15
F0.9731
tp1741
a(S'the'
p1742
g18
F0.9996
tp1743
a(S'way'
p1744
g21
F0.9692
tp1745
a(S'out'
p1746
g15
F0.7537
tp1747
asI152
(lp1748
(S'definitely'
p1749
g29
F0.9961
tp1750
asI153
(lp1751
(S'you'
p1752
g3
F0.9974
tp1753
a(S'know'
p1754
g6
F0.9977
tp1755
a(S'what'
p1756
g3
F0.994
tp1757
asI154
(lp1758
(S'it'
p1759
g3
F0.9888
tp1760
a(g162
g6
F0.7385
tp1761
a(S'dated'
p1762
g6
F0.907
tp1763
a(S'june'
p1764
g105
F0.9185
tp1765
a(S'twenty'
p1766
g51
F0.7678
tp1767
a(S'first'
p1768
g32
F0.8306
tp1769
asI155
(lp1770
(S'really'
p1771
g29
F0.9938
tp1772
asI156
(lp1773
(S'you'
p1774
g3
F0.9983
tp1775
a(S'know'
p1776
g6
F0.9987
tp1777
a(S'why'
p1778
g29
F0.9733
tp1779
a(g2
g3
F0.994
tp1780
a(S'can'
p1781
g6
F0.9996
tp1782
a(g140
g6
F0.7558
tp1783
a(S'come'
p1784
g6
F0.9955
tp1785
a(S'with'
p1786
g15
F0.9991
tp1787
a(S'you'
p1788
g3
F0.9985
tp1789
asI157
(lp1790
(S'the'
p1791
g18
F0.9982
tp1792
a(S'milk'
p1793
g21
F0.9976
tp1794
asI158
(lp1795
(S'yeah'
p1796
g41
F0.9988
tp1797
asI159
(lp1798
(S'no'
p1799
g41
F0.5591
tp1800
a(S'kidding'
p1801
g6
F0.9935
tp1802
asI160
(lp1803
(S'she'
p1804
g3
F0.9945
tp1805
a(S'just'
p1806
g29
F0.9997
tp1807
a(S'said'
p1808
g6
F0.9991
tp1809
a(S'that'
p1810
g15
F0.9072
tp1811
a(S'she'
p1812
g3
F0.999
tp1813
a(S'thinks'
p1814
g6
F0.9997
tp1815
a(S'that'
p1816
g15
F0.7321
tp1817
a(S'it'
p1818
g3
F0.9961
tp1819
a(S'tastes'
p1820
g6
F0.9916
tp1821
a(S'bad'
p1822
g32
F0.9418
tp1823
a(S'too'
p1824
g29
F0.9302
tp1825
asI161
(lp1826
(S'xxx'
p1827
g117
F0.8437
tp1828
asI162
(lp1829
(S'well'
p1830
g41
F0.7958
tp1831
a(S'then'
p1832
g29
F0.9605
tp1833
a(S'it'
p1834
g3
F0.996
tp1835
a(g162
g6
F0.5748
tp1836
a(S'gross'
p1837
g32
F0.9906
tp1838
a(S'milk'
p1839
g21
F0.9971
tp1840
a(S'don'
p1841
g21
F0.5644
tp1842
a(g140
g15
F0.291
tp1843
a(S'buy'
p1844
g6
F0.9951
tp1845
a(S'it'
p1846
g3
F0.9917
tp1847
a(S'anymore'
p1848
g29
F0.9885
tp1849
asI163
(lp1850
(S'xxx'
p1851
g117
F0.8437
tp1852
asI164
(lp1853
(S'no'
p1854
g41
F0.7608
tp1855
a(S'it'
p1856
g3
F0.9828
tp1857
a(g162
g6
F0.4655
tp1858
a(S'skim'
p1859
g6
F0.9449
tp1860
a(S'milk'
p1861
g21
F0.9811
tp1862
a(S'it'
p1863
g3
F0.9387
tp1864
a(g162
g6
F0.6201
tp1865
a(S'good'
p1866
g32
F0.9948
tp1867
asI165
(lp1868
(S'skim'
p1869
g6
F0.9088
tp1870
a(S'milk'
p1871
g21
F0.9986
tp1872
a(g2
g3
F0.9486
tp1873
a(S'know'
p1874
g6
F0.9998
tp1875
a(S'that'
p1876
g3
F0.5302
tp1877
a(g162
g37
F0.4628
tp1878
a(S'what'
p1879
g3
F0.9815
tp1880
a(S'skim'
p1881
g6
F0.9224
tp1882
a(S'milk'
p1883
g21
F0.9966
tp1884
a(S'tastes'
p1885
g6
F0.9532
tp1886
a(S'like'
p1887
g15
F0.9372
tp1888
asI166
(lp1889
(S'that'
p1890
g3
F0.7457
tp1891
a(S'just'
p1892
g29
F0.9988
tp1893
a(S'tasted'
p1894
g6
F0.9864
tp1895
a(S'kind'
p1896
g21
F0.5196
tp1897
a(g959
g15
F0.8753
tp1898
a(S'f'
p1899
g37
F0.3563
tp1900
a(S'weird'
p1901
g32
F0.997
tp1902
asI167
(lp1903
(S'yeah'
p1904
g41
F0.9861
tp1905
a(S'to'
p1906
g15
F0.9943
tp1907
a(S'me'
p1908
g3
F0.9985
tp1909
a(S'too'
p1910
g29
F0.9917
tp1911
asI168
(lp1912
(S'has'
p1913
g6
F0.9943
tp1914
a(S'an'
p1915
g18
F0.7875
tp1916
a(S'after'
p1917
g15
F0.6465
tp1918
a(S'taste'
p1919
g6
F0.4915
tp1920
a(S'to'
p1921
g15
F0.996
tp1922
a(S'it'
p1923
g3
F0.9963
tp1924
asI169
(lp1925
(S'like'
p1926
g15
F0.7668
tp1927
a(S'it'
p1928
g3
F0.9987
tp1929
a(g162
g6
F0.7392
tp1930
a(g54
g18
F0.9955
tp1931
a(S'kind'
p1932
g21
F0.9721
tp1933
a(S'of'
p1934
g15
F0.9973
tp1935
a(S'food'
p1936
g21
F0.9792
tp1937
a(S'or'
p1938
g120
F0.9907
tp1939
a(S'somethin'
p1940
g21
F0.9932
tp1941
a(g228
g37
F0.5428
tp1942
asI170
(lp1943
(S'xxx'
p1944
g117
F0.8437
tp1945
asI171
(lp1946
(g2
g3
F0.9635
tp1947
a(S'don'
p1948
g6
F0.9231
tp1949
a(g140
g21
F0.3074
tp1950
a(S'know'
p1951
g6
F0.9587
tp1952
a(S'xxx'
p1953
g117
F0.7929
tp1954
asI172
(lp1955
(g2
g3
F0.9586
tp1956
a(g5
g6
F0.9849
tp1957
a(S'done'
p1958
g6
F0.9405
tp1959
asI173
(lp1960
(S'good'
p1961
g32
F0.9946
tp1962
a(S'girl'
p1963
g21
F0.9951
tp1964
a(S'we'
p1965
g3
F0.9835
tp1966
a(S'll'
p1967
g6
F0.5489
tp1968
a(S'see'
p1969
g6
F0.9991
tp1970
a(S'you'
p1971
g3
F0.9904
tp1972
asI174
(lp1973
(S'you'
p1974
g3
F0.9946
tp1975
a(S'sit'
p1976
g6
F0.9933
tp1977
asI175
(lp1978
(S'xxx'
p1979
g117
F0.8437
tp1980
asI176
(lp1981
(S'you'
p1982
g3
F0.9581
tp1983
a(S'boot'
p1984
g6
F0.9142
tp1985
a(S'in'
p1986
g15
F0.9678
tp1987
a(S'the'
p1988
g18
F0.9996
tp1989
a(S'ass'
p1990
g21
F0.9898
tp1991
asI177
(lp1992
(S'oh'
p1993
g41
F0.9929
tp1994
a(S'xxx'
p1995
g117
F0.5601
tp1996
a(S'don'
p1997
g21
F0.294
tp1998
a(g140
g37
F0.5015
tp1999
asI178
(lp2000
(S'loser'
p2001
g21
F0.9539
tp2002
a(S'layin'
p2003
g6
F0.7822
tp2004
a(g228
g6
F0.4013
tp2005
a(S'on'
p2006
g15
F0.9841
tp2007
a(S'the'
p2008
g18
F0.9994
tp2009
a(S'couch'
p2010
g21
F0.9952
tp2011
asI179
(lp2012
(S'yes'
p2013
g41
F0.9836
tp2014
a(S'you'
p2015
g3
F0.9851
tp2016
asI180
(lp2017
(S'bob'
p2018
g105
F0.9859
tp2019
a(S'watch'
p2020
g6
F0.9331
tp2021
asI181
(lp2022
(S'watch'
p2023
g6
F0.9883
tp2024
a(S'out'
p2025
g194
F0.9079
tp2026
asI182
(lp2027
(S'mom'
p2028
g21
F0.7188
tp2029
asI183
(lp2030
(S'yes'
p2031
g41
F0.9958
tp2032
asI184
(lp2033
(S'you'
p2034
g3
F0.9981
tp2035
a(S'said'
p2036
g6
F0.9955
tp2037
a(g2
g3
F0.9957
tp2038
a(S'could'
p2039
g6
F0.9996
tp2040
a(S'have'
p2041
g6
F0.9977
tp2042
a(S'dessert'
p2043
g21
F0.9884
tp2044
asI185
(lp2045
(g2
g3
F0.9519
tp2046
a(S'xxx'
p2047
g6
F0.4954
tp2048
a(S'what'
p2049
g3
F0.9856
tp2050
a(g2
g3
F0.9939
tp2051
a(S'said'
p2052
g6
F0.9994
tp2053
asI186
(lp2054
(S'you'
p2055
g3
F0.9981
tp2056
a(S'said'
p2057
g6
F0.9998
tp2058
a(S'you'
p2059
g3
F0.9905
tp2060
a(S'she'
p2061
g3
F0.966
tp2062
a(S'could'
p2063
g6
F0.9993
tp2064
a(S'help'
p2065
g6
F0.9982
tp2066
a(S'you'
p2067
g3
F0.999
tp2068
a(S'make'
p2069
g6
F0.9995
tp2070
a(S'the'
p2071
g18
F0.9995
tp2072
a(S'pie'
p2073
g21
F0.9852
tp2074
asI187
(lp2075
(S'well'
p2076
g41
F0.8573
tp2077
a(g2
g3
F0.9947
tp2078
a(S'didn'
p2079
g6
F0.9915
tp2080
a(g140
g6
F0.7957
tp2081
a(S'make'
p2082
g6
F0.9975
tp2083
a(S'it'
p2084
g3
F0.9244
tp2085
a(S'though'
p2086
g15
F0.8342
tp2087
a(S'did'
p2088
g6
F0.9625
tp2089
a(g2
g3
F0.9914
tp2090
a(S'so'
p2091
g29
F0.7015
tp2092
a(S'there'
p2093
g29
F0.9598
tp2094
a(S'obviously'
p2095
g29
F0.9923
tp2096
a(S'is'
p2097
g6
F0.9997
tp2098
a(S'no'
p2099
g18
F0.9749
tp2100
a(S'dessert'
p2101
g21
F0.9994
tp2102
a(S'then'
p2103
g29
F0.9674
tp2104
a(S'if'
p2105
g15
F0.9882
tp2106
a(g2
g3
F0.9985
tp2107
a(S'did'
p2108
g6
F0.9998
tp2109
a(S'not'
p2110
g29
F0.9941
tp2111
a(S'make'
p2112
g6
F0.9985
tp2113
a(S'it'
p2114
g3
F0.8627
tp2115
asI188
(lp2116
(S'oh'
p2117
g41
F0.9938
tp2118
a(S'mom'
p2119
g41
F0.492
tp2120
asI189
(lp2121
(S'go'
p2122
g6
F0.9714
tp2123
a(S'upstairs'
p2124
g29
F0.7466
tp2125
a(S'and'
p2126
g120
F0.9953
tp2127
a(S'get'
p2128
g6
F0.9872
tp2129
a(S'xxx'
p2130
g117
F0.7221
tp2131
asI190
(lp2132
(S'why'
p2133
g29
F0.9494
tp2134
a(S'didn'
p2135
g6
F0.8144
tp2136
a(g140
g6
F0.9504
tp2137
a(S'you'
p2138
g3
F0.9991
tp2139
a(S'make'
p2140
g6
F0.9999
tp2141
a(S'it'
p2142
g3
F0.8669
tp2143
asI191
(lp2144
(g2
g3
F0.9756
tp2145
a(S'didn'
p2146
g6
F0.9919
tp2147
a(g140
g6
F0.7431
tp2148
a(S'feel'
p2149
g6
F0.9835
tp2150
a(S'like'
p2151
g15
F0.8472
tp2152
a(S'it'
p2153
g3
F0.9986
tp2154
asI192
(lp2155
(S'xxx'
p2156
g117
F0.8437
tp2157
asI193
(lp2158
(S'mary'
p2159
g105
F0.9401
tp2160
asI194
(lp2161
(S'do'
p2162
g6
F0.9688
tp2163
a(g2
g3
F0.9922
tp2164
a(S'xxx'
p2165
g6
F0.6305
tp2166
a(S'too'
p2167
g29
F0.9758
tp2168
asI195
(lp2169
(S'this'
p2170
g3
F0.9526
tp2171
a(S'is'
p2172
g6
F0.9988
tp2173
a(S'no'
p2174
g18
F0.7251
tp2175
a(S'xxx'
p2176
g21
F0.7309
tp2177
asI196
(lp2178
(S'xxx'
p2179
g117
F0.7217
tp2180
a(S'doesn'
p2181
g6
F0.9262
tp2182
a(g140
g21
F0.2827
tp2183
a(S'want'
p2184
g6
F0.9959
tp2185
a(S'to'
p2186
g15
F0.9961
tp2187
a(S'sell'
p2188
g6
F0.9994
tp2189
a(S'it'
p2190
g3
F0.9927
tp2191
a(S'to'
p2192
g15
F0.9915
tp2193
a(S'me'
p2194
g3
F0.9977
tp2195
a(S'huh'
p2196
g41
F0.9615
tp2197
asI197
(lp2198
(S'vicious'
p2199
g32
F0.979
tp2200
a(S'kids'
p2201
g21
F0.9962
tp2202
asI198
(lp2203
(S'xxx'
p2204
g117
F0.8437
tp2205
asI199
(lp2206
(S'xxx'
p2207
g117
F0.8437
tp2208
asI200
(lp2209
(S'xxx'
p2210
g117
F0.6365
tp2211
a(S'has'
p2212
g6
F0.9966
tp2213
a(S'nothing'
p2214
g21
F0.9936
tp2215
a(S'to'
p2216
g15
F0.993
tp2217
a(S'do'
p2218
g6
F0.9999
tp2219
a(S'with'
p2220
g15
F0.9975
tp2221
a(S'him'
p2222
g3
F0.9793
tp2223
asI201
(lp2224
(S'xxx'
p2225
g117
F0.8437
tp2226
asI202
(lp2227
(S'why'
p2228
g29
F0.9361
tp2229
a(S'doesn'
p2230
g6
F0.9159
tp2231
a(g140
g21
F0.2827
tp2232
a(S'want'
p2233
g6
F0.9906
tp2234
a(S'to'
p2235
g15
F0.9726
tp2236
a(S'go'
p2237
g6
F0.9971
tp2238
asI203
(lp2239
(S'honey'
p2240
g21
F0.849
tp2241
a(g2
g3
F0.8511
tp2242
a(S'don'
p2243
g6
F0.9187
tp2244
a(g140
g21
F0.2208
tp2245
a(S'know'
p2246
g6
F0.9611
tp2247
a(g2
g3
F0.9877
tp2248
a(S'don'
p2249
g6
F0.9198
tp2250
a(g140
g21
F0.2172
tp2251
a(S'have'
p2252
g6
F0.9992
tp2253
a(S'the'
p2254
g18
F0.9998
tp2255
a(S'time'
p2256
g21
F0.9976
tp2257
a(S'you'
p2258
g3
F0.9967
tp2259
a(S'know'
p2260
g6
F0.9975
tp2261
asI204
(lp2262
(S'mom'
p2263
g21
F0.6265
tp2264
a(S'why'
p2265
g29
F0.9528
tp2266
a(S'can'
p2267
g6
F0.9873
tp2268
a(g140
g6
F0.4314
tp2269
a(g2
g3
F0.986
tp2270
asI205
(lp2271
(S'xxx'
p2272
g117
F0.8437
tp2273
asI206
(lp2274
(S'anna'
p2275
g105
F0.8637
tp2276
a(S'go'
p2277
g6
F0.9621
tp2278
a(S'get'
p2279
g6
F0.9966
tp2280
a(S'the'
p2281
g18
F0.9997
tp2282
a(S'face'
p2283
g21
F0.9704
tp2284
a(S'cloth'
p2285
g21
F0.9832
tp2286
a(S'like'
p2287
g15
F0.9901
tp2288
a(S'she'
p2289
g3
F0.9995
tp2290
a(S'asked'
p2291
g6
F0.9962
tp2292
asI207
(lp2293
(S'where'
p2294
g29
F0.9711
tp2295
a(g162
g37
F0.671
tp2296
a(S'the'
p2297
g18
F0.9867
tp2298
a(S'v'
p2299
g105
F0.4624
tp2300
a(S'c'
p2301
g105
F0.5478
tp2302
a(S'r'
p2303
g6
F0.4927
tp2304
asI208
(lp2305
(S'and'
p2306
g120
F0.9982
tp2307
a(S'that'
p2308
g3
F0.8058
tp2309
a(g162
g6
F0.8584
tp2310
a(S'it'
p2311
g3
F0.9913
tp2312
asI209
(lp2313
(S'you'
p2314
g3
F0.9754
tp2315
a(S're'
p2316
g6
F0.7849
tp2317
a(S'not'
p2318
g29
F0.9949
tp2319
a(S'going'
p2320
g6
F0.9936
tp2321
a(S'xxx'
p2322
g117
F0.7152
tp2323
asI210
(lp2324
(S'you'
p2325
g3
F0.9983
tp2326
a(S'know'
p2327
g6
F0.9996
tp2328
a(S'if'
p2329
g15
F0.9972
tp2330
a(S'you'
p2331
g3
F0.9999
tp2332
a(S'did'
p2333
g6
F0.9991
tp2334
a(S'what'
p2335
g3
F0.9766
tp2336
a(S'you'
p2337
g3
F0.9993
tp2338
a(S'were'
p2339
g6
F0.9981
tp2340
a(S'supposed'
p2341
g32
F0.9665
tp2342
a(S'to'
p2343
g15
F0.9931
tp2344
a(S'do'
p2345
g6
F0.9997
tp2346
a(S'when'
p2347
g29
F0.9859
tp2348
a(S'you'
p2349
g3
F0.9924
tp2350
a(S're'
p2351
g6
F0.6349
tp2352
a(S'told'
p2353
g6
F0.9957
tp2354
a(S'to'
p2355
g15
F0.961
tp2356
a(S'do'
p2357
g6
F1.0
tp2358
a(S'it'
p2359
g3
F0.9727
tp2360
a(S'you'
p2361
g3
F0.9977
tp2362
a(S'might'
p2363
g6
F0.9991
tp2364
a(S'be'
p2365
g6
F0.9995
tp2366
a(S'able'
p2367
g32
F0.9684
tp2368
a(S'to'
p2369
g15
F0.9967
tp2370
a(S'go'
p2371
g6
F0.9998
tp2372
a(S'out'
p2373
g194
F0.5822
tp2374
a(S'at'
p2375
g15
F0.997
tp2376
a(S'night'
p2377
g21
F0.9467
tp2378
a(S'and'
p2379
g120
F0.9984
tp2380
a(S'do'
p2381
g6
F0.9979
tp2382
a(S'things'
p2383
g21
F0.8945
tp2384
a(S'you'
p2385
g3
F0.9975
tp2386
a(S'know'
p2387
g6
F0.9991
tp2388
a(S'like'
p2389
g15
F0.9322
tp2390
a(g54
g18
F0.9907
tp2391
a(S'good'
p2392
g32
F0.9988
tp2393
a(S'girl'
p2394
g21
F0.9985
tp2395
a(S'gets'
p2396
g6
F0.9991
tp2397
a(S'to'
p2398
g15
F0.9674
tp2399
a(S'do'
p2400
g6
F0.9994
tp2401
asI211
(lp2402
(S'but'
p2403
g120
F0.9921
tp2404
a(S'instead'
p2405
g29
F0.9851
tp2406
a(S'you'
p2407
g3
F0.9824
tp2408
a(S'dilly'
p2409
g21
F0.4479
tp2410
a(S'dally'
p2411
g21
F0.9637
tp2412
a(S'and'
p2413
g120
F0.9973
tp2414
a(S'you'
p2415
g3
F0.9993
tp2416
a(S'get'
p2417
g6
F0.9997
tp2418
a(S'yelled'
p2419
g6
F0.967
tp2420
a(S'at'
p2421
g15
F0.9948
tp2422
a(S'anna'
p2423
g105
F0.9378
tp2424
as.