(dp0
I0
(lp1
(S'hey'
p2
S'!'
p3
F0.9866
tp4
a(S'now'
p5
S'R'
p6
F0.9537
tp7
a(S'we'
p8
S'O'
p9
F0.9977
tp10
a(S'can'
p11
S'V'
p12
F0.9995
tp13
a(S'get'
p14
g12
F0.9998
tp15
a(S'ready'
p16
S'A'
p17
F0.9898
tp18
a(S'to'
p19
S'P'
p20
F0.9995
tp21
a(S'eat'
p22
g12
F0.9911
tp23
asI1
(lp24
(S'come'
p25
g12
F0.9897
tp26
a(S'on'
p27
g20
F0.9533
tp28
a(S'you'
p29
g9
F0.9996
tp30
a(S'wanna'
p31
g12
F0.9978
tp32
a(S'say'
p33
g12
F0.9997
tp34
a(S'your'
p35
S'D'
p36
F0.9391
tp37
a(S'grace'
p38
S'^'
p39
F0.6331
tp40
asI2
(lp41
(S'xxx'
p42
S'E'
p43
F0.53
tp44
a(S'gobbling'
p45
g12
F0.985
tp46
a(S'sounds'
p47
g12
F0.6606
tp48
asI3
(lp49
(S'xxx'
p50
g43
F0.6498
tp51
a(S'say'
p52
g12
F0.9959
tp53
a(S'your'
p54
g36
F0.9415
tp55
a(S'grace'
p56
g39
F0.5395
tp57
asI4
(lp58
(S'i'
p59
g9
F0.9635
tp60
a(S'don'
p61
g12
F0.9231
tp62
a(S't'
p63
S'G'
p64
F0.4237
tp65
a(S'ha'
p66
g3
F0.8199
tp67
a(S've'
p68
g12
F0.2382
tp69
a(S'none'
p70
S'N'
p71
F0.9277
tp72
asI5
(lp73
(S'you'
p74
g9
F0.9927
tp75
a(S'll'
p76
g12
F0.6923
tp77
a(S'have'
p78
g12
F0.9994
tp79
a(S'some'
p80
g36
F0.8409
tp81
a(S'in'
p82
g20
F0.9613
tp83
a(S'a'
p84
g36
F0.9942
tp85
a(S'minute'
p86
g71
F0.9354
tp87
asI6
(lp88
(S'say'
p89
g12
F0.9921
tp90
a(S'your'
p91
g36
F0.9411
tp92
a(S'grace'
p93
g39
F0.501
tp94
asI7
(lp95
(S'god'
p96
g39
F0.9057
tp97
a(S'is'
p98
g12
F0.9957
tp99
a(S'great'
p100
g17
F0.9977
tp101
asI8
(lp102
(S'god'
p103
g39
F0.9057
tp104
a(S'is'
p105
g12
F0.9969
tp106
a(S'good'
p107
g17
F0.9975
tp108
asI9
(lp109
(S'god'
p110
g39
F0.9057
tp111
a(S'is'
p112
g12
F0.9969
tp113
a(S'good'
p114
g17
F0.9975
tp115
asI10
(lp116
(S'and'
p117
S'&'
p118
F0.9991
tp119
a(S'we'
p120
g9
F0.9966
tp121
a(S'thank'
p122
g12
F0.999
tp123
a(S'him'
p124
g9
F0.9942
tp125
a(S'for'
p126
g20
F0.9995
tp127
a(S'our'
p128
g36
F0.9966
tp129
a(S'food'
p130
g71
F0.9905
tp131
a(S'amen'
p132
g3
F0.718
tp133
asI11
(lp134
(S'and'
p135
g118
F0.9991
tp136
a(S'we'
p137
g9
F0.9966
tp138
a(S'thank'
p139
g12
F0.999
tp140
a(S'him'
p141
g9
F0.9942
tp142
a(S'for'
p143
g20
F0.9995
tp144
a(S'our'
p145
g36
F0.9966
tp146
a(S'food'
p147
g71
F0.9905
tp148
a(S'amen'
p149
g3
F0.718
tp150
asI12
(lp151
(S'you'
p152
g9
F0.9829
tp153
a(S'too'
p154
g6
F0.9787
tp155
asI13
(lp156
(S'okay'
p157
g3
F0.9121
tp158
a(S'gwen'
p159
g39
F0.9948
tp160
a(S'can'
p161
g12
F0.9894
tp162
a(S'see'
p163
g12
F0.9983
tp164
a(S'help'
p165
g12
F0.9887
tp166
a(S'you'
p167
g9
F0.9971
tp168
a(S'all'
p169
g36
F0.9299
tp170
asI14
(lp171
(g59
g9
F0.9896
tp172
a(S'have'
p173
g12
F0.9995
tp174
a(S'got'
p175
g12
F0.9945
tp176
a(S'my'
p177
g36
F0.9168
tp178
asI15
(lp179
(S'get'
p180
g12
F0.999
tp181
a(S'you'
p182
g9
F0.9997
tp183
a(S'going'
p184
g12
F0.9996
tp185
a(S'on'
p186
g20
F0.9365
tp187
a(S'the'
p188
g36
F0.9993
tp189
a(S'table'
p190
g71
F0.9925
tp191
asI16
(lp192
(S'you'
p193
g9
F0.997
tp194
a(S'want'
p195
g12
F0.9989
tp196
a(S'corn'
p197
g71
F0.9927
tp198
asI17
(lp199
(S'yeah'
p200
g3
F0.9988
tp201
asI18
(lp202
(g59
g9
F0.9897
tp203
a(S'want'
p204
g12
F0.9999
tp205
a(S'that'
p206
g36
F0.7285
tp207
a(S'one'
p208
S'$'
p209
F0.6838
tp210
asI19
(lp211
(S'how'
p212
g6
F0.9647
tp213
a(g84
g36
F0.973
tp214
a(S'bout'
p215
g20
F0.6745
tp216
a(S'you'
p217
g9
F0.9979
tp218
a(S'wink'
p219
g12
F0.9768
tp220
asI20
(lp221
(S'thank'
p222
g12
F0.9661
tp223
a(S'you'
p224
g9
F0.9993
tp225
a(S'for'
p226
g20
F0.9982
tp227
a(S'our'
p228
g36
F0.9469
tp229
a(S'um'
p230
g3
F0.6014
tp231
asI21
(lp232
(S'potatoes'
p233
g71
F0.9793
tp234
a(S'there'
p235
g6
F0.6287
tp236
asI22
(lp237
(S'xxx'
p238
g43
F0.8437
tp239
asI23
(lp240
(S'anybody'
p241
g71
F0.9354
tp242
a(S'want'
p243
g12
F0.9978
tp244
a(S'anything'
p245
g71
F0.9932
tp246
a(S'to'
p247
g20
F0.9985
tp248
a(S'drink'
p249
g12
F0.9787
tp250
asI24
(lp251
(S'me'
p252
g9
F0.9918
tp253
asI25
(lp254
(S'do'
p255
g12
F0.9983
tp256
a(S'you'
p257
g9
F0.9968
tp258
a(S'april'
p259
g39
F0.531
tp260
asI26
(lp261
(S'thank'
p262
g12
F0.4538
tp263
a(g59
g9
F0.9936
tp264
a(S'like'
p265
g12
F0.84
tp266
a(S'potatoes'
p267
g71
F0.9953
tp268
asI27
(lp269
(S'xxx'
p270
g43
F0.693
tp271
a(S'thank'
p272
g12
F0.9742
tp273
a(S'you'
p274
g9
F0.9994
tp275
a(S'for'
p276
g20
F0.9885
tp277
a(S'mommy'
p278
g71
F0.6906
tp279
asI28
(lp280
(S'you'
p281
g9
F0.998
tp282
a(S'want'
p283
g12
F0.9998
tp284
a(S'something'
p285
g71
F0.9922
tp286
a(S'to'
p287
g20
F0.9982
tp288
a(S'drink'
p289
g12
F0.9787
tp290
asI29
(lp291
(S'thank'
p292
g12
F0.9661
tp293
a(S'you'
p294
g9
F0.9993
tp295
a(S'for'
p296
g20
F0.9884
tp297
a(S'xxx'
p298
g43
F0.6551
tp299
asI30
(lp300
(S'thank'
p301
g12
F0.9661
tp302
a(S'you'
p303
g9
F0.9993
tp304
a(S'for'
p305
g20
F0.9906
tp306
a(S'granski'
p307
g39
F0.582
tp308
asI31
(lp309
(S'thank'
p310
g12
F0.9661
tp311
a(S'you'
p312
g9
F0.9993
tp313
a(S'for'
p314
g20
F0.9971
tp315
a(S'god'
p316
g39
F0.8383
tp317
asI32
(lp318
(S'and'
p319
g118
F0.9987
tp320
a(S'thank'
p321
g12
F0.9898
tp322
a(S'you'
p323
g9
F0.9993
tp324
a(S'for'
p325
g20
F0.9996
tp326
a(S'the'
p327
g36
F0.9993
tp328
a(S'kids'
p329
g71
F0.9811
tp330
asI33
(lp331
(S'thank'
p332
g12
F0.9631
tp333
a(S'you'
p334
g9
F0.9987
tp335
asI34
(lp336
(S'and'
p337
g118
F0.9987
tp338
a(S'thank'
p339
g12
F0.9898
tp340
a(S'you'
p341
g9
F0.9993
tp342
a(S'for'
p343
g20
F0.9996
tp344
a(S'the'
p345
g36
F0.9993
tp346
a(S'kids'
p347
g71
F0.9811
tp348
asI35
(lp349
(S'yeah'
p350
g3
F0.9988
tp351
asI36
(lp352
(S'at'
p353
g20
F0.9981
tp354
a(S'my'
p355
g36
F0.9968
tp356
a(S'school'
p357
g71
F0.9996
tp358
asI37
(lp359
(S'what'
p360
g9
F0.6962
tp361
a(S'kids'
p362
g71
F0.9873
tp363
asI38
(lp364
(S'oh'
p365
g3
F0.9981
tp366
a(S'okay'
p367
g3
F0.9822
tp368
asI39
(lp369
(S'thank'
p370
g12
F0.9661
tp371
a(S'you'
p372
g9
F0.9993
tp373
a(S'for'
p374
g20
F0.9985
tp375
a(S'my'
p376
g36
F0.9971
tp377
a(S'teacher'
p378
g71
F0.9963
tp379
asI40
(lp380
(S'thank'
p381
g12
F0.9661
tp382
a(S'you'
p383
g9
F0.9993
tp384
a(S'for'
p385
g20
F0.9987
tp386
a(S'my'
p387
g36
F0.9965
tp388
a(S'food'
p389
g71
F0.9957
tp390
a(S'amen'
p391
g3
F0.7033
tp392
asI41
(lp393
(S'amen'
p394
g3
F0.9835
tp395
asI42
(lp396
(S'amen'
p397
g3
F0.9835
tp398
asI43
(lp399
(S'what'
p400
g9
F0.9898
tp401
a(S'would'
p402
g12
F0.9997
tp403
a(S'you'
p404
g9
F0.9947
tp405
a(S'like'
p406
g12
F0.921
tp407
a(S'to'
p408
g20
F0.9772
tp409
a(S'drink'
p410
g12
F0.9864
tp411
a(S'april'
p412
g39
F0.7237
tp413
asI44
(lp414
(S'what'
p415
g9
F0.9898
tp416
a(S'would'
p417
g12
F0.9997
tp418
a(S'you'
p419
g9
F0.9947
tp420
a(S'like'
p421
g12
F0.921
tp422
a(S'to'
p423
g20
F0.9756
tp424
a(S'have'
p425
g12
F0.9997
tp426
a(S'to'
p427
g20
F0.996
tp428
a(S'drink'
p429
g12
F0.9611
tp430
asI45
(lp431
(g59
g9
F0.9902
tp432
a(S'want'
p433
g12
F0.9997
tp434
a(S'koolaid'
p435
g71
F0.5812
tp436
asI46
(lp437
(S'what'
p438
g9
F0.9898
tp439
a(S'would'
p440
g12
F0.9997
tp441
a(S'you'
p442
g9
F0.9947
tp443
a(S'like'
p444
g12
F0.921
tp445
a(S'to'
p446
g20
F0.9756
tp447
a(S'have'
p448
g12
F0.9995
tp449
a(S'for'
p450
g20
F0.9991
tp451
a(S'drink'
p452
g12
F0.5613
tp453
asI47
(lp454
(S'milk'
p455
g71
F0.9781
tp456
asI48
(lp457
(S'you'
p458
g9
F0.998
tp459
a(S'want'
p460
g12
F0.9999
tp461
a(S'some'
p462
g36
F0.9017
tp463
a(S'whatchu'
p464
S'L'
p465
F0.8165
tp466
a(S'what'
p467
g9
F0.995
tp468
a(S'do'
p469
g12
F0.9991
tp470
a(S'you'
p471
g9
F0.9996
tp472
a(S'want'
p473
g12
F0.9989
tp474
asI49
(lp475
(S'what'
p476
g9
F0.9739
tp477
a(S's'
p478
g12
F0.4505
tp479
a(S'that'
p480
g9
F0.8603
tp481
asI50
(lp482
(S'koolaid'
p483
g39
F0.507
tp484
asI51
(lp485
(S'koolaid'
p486
g39
F0.507
tp487
asI52
(lp488
(S'we'
p489
g9
F0.9973
tp490
a(S'got'
p491
g12
F0.9989
tp492
a(S'koolaid'
p493
g39
F0.5004
tp494
a(S'milk'
p495
g71
F0.982
tp496
a(S'and'
p497
g118
F0.9985
tp498
a(S'water'
p499
g71
F0.9626
tp500
asI53
(lp501
(S'nuhhuh'
p502
g3
F0.533
tp503
asI54
(lp504
(S'and'
p505
g118
F0.9991
tp506
a(S'we'
p507
g9
F0.9983
tp508
a(S'got'
p509
g12
F0.9988
tp510
a(S'air'
p511
g71
F0.98
tp512
asI55
(lp513
(S'mhm'
p514
g3
F0.9747
tp515
asI56
(lp516
(S'anybody'
p517
g71
F0.9578
tp518
a(S'want'
p519
g12
F0.9909
tp520
a(S'air'
p521
g71
F0.9763
tp522
asI57
(lp523
(S'me'
p524
g9
F0.9918
tp525
asI58
(lp526
(S'you'
p527
g9
F0.997
tp528
a(S'want'
p529
g12
F0.9987
tp530
a(S'air'
p531
g71
F0.9763
tp532
asI59
(lp533
(g59
g9
F0.9902
tp534
a(S'want'
p535
g12
F0.9996
tp536
a(S'xxx'
p537
g43
F0.7097
tp538
asI60
(lp539
(S'xxx'
p540
g43
F0.8437
tp541
asI61
(lp542
(S'so'
p543
g20
F0.8572
tp544
a(S'april'
p545
g39
F0.6723
tp546
asI62
(lp547
(S'tell'
p548
g12
F0.9944
tp549
a(S'me'
p550
g9
F0.9993
tp551
a(S'what'
p552
g9
F0.9235
tp553
a(S'you'
p554
g9
F0.9998
tp555
a(S'did'
p556
g12
F0.9991
tp557
asI63
(lp558
(S'xxx'
p559
g43
F0.8437
tp560
asI64
(lp561
(S'tell'
p562
g12
F0.9944
tp563
a(S'me'
p564
g9
F0.9993
tp565
a(S'what'
p566
g9
F0.9763
tp567
a(S'happened'
p568
g12
F0.9953
tp569
a(S'at'
p570
g20
F0.9977
tp571
a(S'your'
p572
g36
F0.9948
tp573
a(S'school'
p574
g71
F0.9997
tp575
a(S'today'
p576
g71
F0.9943
tp577
a(S'whatchu'
p578
g465
F0.789
tp579
a(S'what'
p580
g9
F0.9974
tp581
a(S'did'
p582
g12
F0.9993
tp583
a(S'you'
p584
g9
F0.9985
tp585
a(S'and'
p586
g118
F0.9883
tp587
a(S'the'
p588
g36
F0.9988
tp589
a(S'kids'
p590
g71
F0.9761
tp591
a(S'do'
p592
g12
F0.9978
tp593
a(S'at'
p594
g20
F0.9936
tp595
a(S'school'
p596
g71
F0.9929
tp597
a(S'today'
p598
g71
F0.997
tp599
asI65
(lp600
(S'name'
p601
g71
F0.9138
tp602
a(S'some'
p603
g36
F0.5648
tp604
a(S'of'
p605
g20
F0.9969
tp606
a(S'the'
p607
g36
F0.9994
tp608
a(S'kids'
p609
g71
F0.9845
tp610
a(S'go'
p611
g12
F0.997
tp612
a(S'to'
p613
g20
F0.9976
tp614
a(S'your'
p615
g36
F0.971
tp616
a(S'school'
p617
g71
F0.9997
tp618
asI66
(lp619
(S'what'
p620
g9
F0.9965
tp621
a(S'did'
p622
g12
F0.9994
tp623
a(S'you'
p624
g9
F0.9994
tp625
a(S'do'
p626
g12
F0.9997
tp627
a(S'at'
p628
g20
F0.9899
tp629
a(S'school'
p630
g71
F0.9917
tp631
a(S'today'
p632
g71
F0.9958
tp633
asI67
(lp634
(S'auntie'
p635
g71
F0.4471
tp636
a(S'mary'
p637
g39
F0.8666
tp638
a(S'will'
p639
g12
F0.9705
tp640
a(S'tell'
p641
g12
F0.9994
tp642
a(S'you'
p643
g9
F0.9993
tp644
a(S'something'
p645
g71
F0.9294
tp646
asI68
(lp647
(S'what'
p648
g9
F0.9784
tp649
a(g478
g12
F0.4928
tp650
a(S'your'
p651
g36
F0.9799
tp652
a(S'bus'
p653
g71
F0.9813
tp654
a(S'driver'
p655
g71
F0.9978
tp656
a(g478
g64
F0.7108
tp657
a(S'what'
p658
g9
F0.9818
tp659
a(g478
g12
F0.4721
tp660
a(S'your'
p661
g36
F0.9647
tp662
a(S'van'
p663
g39
F0.7544
tp664
a(S'driver'
p665
g71
F0.9821
tp666
a(g478
g64
F0.712
tp667
a(S'name'
p668
g71
F0.9854
tp669
asI69
(lp670
(S'auntie'
p671
g71
F0.557
tp672
a(S'mary'
p673
g39
F0.6729
tp674
asI70
(lp675
(S'you'
p676
g9
F0.9983
tp677
a(S'know'
p678
g12
F0.9999
tp679
a(S'your'
p680
g36
F0.8388
tp681
a(S'van'
p682
g39
F0.7756
tp683
a(S'driver'
p684
g71
F0.9736
tp685
a(g478
g64
F0.7092
tp686
a(S'name'
p687
g71
F0.9848
tp688
asI71
(lp689
(S'what'
p690
g9
F0.9784
tp691
a(g478
g12
F0.4798
tp692
a(S'some'
p693
g36
F0.7932
tp694
a(S'of'
p695
g20
F0.998
tp696
a(S'the'
p697
g36
F0.9995
tp698
a(S'kids'
p699
g71
F0.964
tp700
a(S'name'
p701
g71
F0.892
tp702
a(S'that'
p703
g20
F0.9487
tp704
a(S'ride'
p705
g12
F0.9231
tp706
a(S'on'
p707
g20
F0.9663
tp708
a(S'your'
p709
g36
F0.986
tp710
a(S'van'
p711
g71
F0.5724
tp712
asI72
(lp713
(S'joey'
p714
g39
F0.982
tp715
asI73
(lp716
(S'eat'
p717
g12
F0.8267
tp718
asI74
(lp719
(S'eat'
p720
g12
F0.9797
tp721
a(S'some'
p722
g36
F0.8856
tp723
a(S'of'
p724
g20
F0.9927
tp725
a(S'your'
p726
g36
F0.9931
tp727
a(S'potatoes'
p728
g71
F0.9986
tp729
asI75
(lp730
(S'anybody'
p731
g71
F0.9578
tp732
a(S'want'
p733
g12
F0.9922
tp734
a(S'chicken'
p735
g71
F0.8656
tp736
asI76
(lp737
(S'me'
p738
g9
F0.9918
tp739
asI77
(lp740
(S'april'
p741
g39
F0.7155
tp742
a(S'you'
p743
g9
F0.9976
tp744
a(S'got'
p745
g12
F0.9998
tp746
a(g84
g36
F0.9991
tp747
a(S'mouth'
p748
g71
F0.9985
tp749
a(S'why'
p750
g6
F0.9399
tp751
a(S'don'
p752
g71
F0.2697
tp753
a(g63
g12
F0.5371
tp754
a(S'you'
p755
g9
F0.9984
tp756
a(S'use'
p757
g12
F0.9984
tp758
a(S'your'
p759
g36
F0.9955
tp760
a(S'mouth'
p761
g71
F0.9996
tp762
a(S'and'
p763
g118
F0.9959
tp764
a(S'stop'
p765
g12
F0.9971
tp766
a(S'it'
p767
g9
F0.9875
tp768
asI78
(lp769
(S'what'
p770
g9
F0.9965
tp771
a(S'did'
p772
g12
F0.9994
tp773
a(S'you'
p774
g9
F0.9994
tp775
a(S'do'
p776
g12
F0.9997
tp777
a(S'at'
p778
g20
F0.9899
tp779
a(S'school'
p780
g71
F0.9917
tp781
a(S'today'
p782
g71
F0.9958
tp783
asI79
(lp784
(S'hm'
p785
g3
F0.995
tp786
asI80
(lp787
(S'april'
p788
g39
F0.8336
tp789
asI81
(lp790
(S'april'
p791
g39
F0.8336
tp792
asI82
(lp793
(S'what'
p794
g9
F0.9965
tp795
a(S'did'
p796
g12
F0.9994
tp797
a(S'you'
p798
g9
F0.9994
tp799
a(S'do'
p800
g12
F0.9997
tp801
a(S'at'
p802
g20
F0.9899
tp803
a(S'school'
p804
g71
F0.9917
tp805
a(S'today'
p806
g71
F0.9958
tp807
asI83
(lp808
(S'mm'
p809
g3
F0.3354
tp810
a(S'no'
p811
g3
F0.961
tp812
asI84
(lp813
(g59
g9
F0.9728
tp814
a(S'dunno'
p815
g12
F0.7665
tp816
a(S'don'
p817
g39
F0.2743
tp818
a(g63
g39
F0.604
tp819
a(S'know'
p820
g12
F0.9676
tp821
asI85
(lp822
(S'what'
p823
g9
F0.9965
tp824
a(S'did'
p825
g12
F0.9994
tp826
a(S'you'
p827
g9
F0.9994
tp828
a(S'do'
p829
g12
F0.9996
tp830
a(S'tell'
p831
g12
F0.9956
tp832
a(S'me'
p833
g9
F0.9965
tp834
a(S'some'
p835
g36
F0.9817
tp836
a(S'games'
p837
g71
F0.9661
tp838
a(S'you'
p839
g9
F0.9964
tp840
a(S'played'
p841
g12
F0.9977
tp842
asI86
(lp843
(S'over'
p844
g20
F0.5098
tp845
a(S'at'
p846
g20
F0.825
tp847
a(S'zayres'
p848
g39
F0.6325
tp849
a(S'yesterday'
p850
g71
F0.672
tp851
a(S'gwen'
p852
g39
F0.9365
tp853
a(g59
g9
F0.9646
tp854
a(S'filled'
p855
g12
F0.9999
tp856
a(S'out'
p857
S'T'
p858
F0.6369
tp859
a(S'one'
p860
g209
F0.9362
tp861
a(S'of'
p862
g20
F0.9991
tp863
a(S'those'
p864
g36
F0.6325
tp865
a(S'parers'
p866
g71
F0.7577
tp867
a(S'over'
p868
g20
F0.9348
tp869
a(S'there'
p870
g6
F0.7758
tp871
a(S'so'
p872
g20
F0.7828
tp873
a(S'that'
p874
g20
F0.5429
tp875
a(S'we'
p876
g9
F0.9989
tp877
a(S'can'
p878
g12
F0.9996
tp879
a(S'go'
p880
g12
F0.9988
tp881
a(S'take'
p882
g12
F0.9912
tp883
a(g84
g36
F0.998
tp884
a(S'portrait'
p885
g71
F0.9988
tp886
a(S'together'
p887
g6
F0.8827
tp888
asI87
(lp889
(S'oh'
p890
g3
F0.9971
tp891
a(S'really'
p892
g6
F0.9779
tp893
asI88
(lp894
(S'yeah'
p895
g3
F0.9963
tp896
a(S'we'
p897
g9
F0.9979
tp898
a(S'go'
p899
g12
F0.9996
tp900
a(S'over'
p901
g6
F0.4706
tp902
a(S'on'
p903
g20
F0.8014
tp904
a(S'thirteenth'
p905
g17
F0.4985
tp906
a(S'of'
p907
g20
F0.9958
tp908
a(S'august'
p909
g39
F0.9006
tp910
a(S'at'
p911
g20
F0.9983
tp912
a(S'three'
p913
g209
F0.8588
tp914
a(S'o'
p915
g20
F0.8453
tp916
a(S'clock'
p917
g71
F0.9562
tp918
a(S'on'
p919
g20
F0.9974
tp920
a(g84
g36
F0.9959
tp921
a(S'sunday'
p922
g71
F0.4751
tp923
a(S'me'
p924
g9
F0.9723
tp925
a(S'erica'
p926
g39
F0.9112
tp927
a(S'and'
p928
g118
F0.9976
tp929
a(S'april'
p930
g39
F0.9161
tp931
a(S'and'
p932
g118
F0.9982
tp933
a(S'salina'
p934
g39
F0.9356
tp935
asI89
(lp936
(S'that'
p937
g9
F0.473
tp938
a(g478
g64
F0.4127
tp939
a(S'next'
p940
g17
F0.8872
tp941
a(S'sunday'
p942
g71
F0.6868
tp943
asI90
(lp944
(S'sunday'
p945
g39
F0.8226
tp946
a(S'after'
p947
g20
F0.9926
tp948
a(S'this'
p949
g36
F0.5604
tp950
a(S'one'
p951
g209
F0.7394
tp952
asI91
(lp953
(S'we'
p954
g9
F0.9968
tp955
a(S'gonna'
p956
g12
F0.9995
tp957
a(S'go'
p958
g12
F0.9957
tp959
a(S'and'
p960
g118
F0.9812
tp961
a(S'have'
p962
g12
F0.9998
tp963
a(S'us'
p964
g9
F0.9423
tp965
a(g84
g36
F0.9956
tp966
a(S'portrait'
p967
g71
F0.9969
tp968
a(S'taken'
p969
g12
F0.9858
tp970
a(S'together'
p971
g6
F0.9368
tp972
asI92
(lp973
(S'sounds'
p974
g12
F0.9027
tp975
a(S'good'
p976
g17
F0.9976
tp977
asI93
(lp978
(S'yeah'
p979
g3
F0.9988
tp980
asI94
(lp981
(S'that'
p982
g9
F0.473
tp983
a(g478
g12
F0.5365
tp984
a(S'the'
p985
g36
F0.9988
tp986
a(S'one'
p987
g209
F0.9133
tp988
a(g59
g9
F0.9727
tp989
a(S'had'
p990
g12
F0.9995
tp991
a(S'dad'
p992
g71
F0.9539
tp993
a(S'and'
p994
g118
F0.9987
tp995
a(g59
g9
F0.9913
tp996
a(S'taken'
p997
g12
F0.9999
tp998
a(S'on'
p999
g20
F0.6765
tp1000
asI95
(lp1001
(S'so'
p1002
g20
F0.8781
tp1003
a(S'we'
p1004
g9
F0.9989
tp1005
a(S'gonna'
p1006
g12
F0.9996
tp1007
a(S'have'
p1008
g12
F0.9997
tp1009
a(S'to'
p1010
g20
F0.9971
tp1011
a(S'make'
p1012
g12
F0.9985
tp1013
a(S'sure'
p1014
g17
F0.9527
tp1015
a(S'that'
p1016
g20
F0.8046
tp1017
a(S'y'
p1018
g6
F0.4575
tp1019
a(S'all'
p1020
g36
F0.8046
tp1021
a(S'd'
p1022
g36
F0.5779
tp1023
a(S'hair'
p1024
g71
F0.9964
tp1025
a(S'has'
p1026
g12
F0.9896
tp1027
a(S'been'
p1028
g12
F0.9562
tp1029
a(S'freshly'
p1030
g6
F0.9998
tp1031
a(S'beautifully'
p1032
g6
F0.8899
tp1033
a(S'done'
p1034
g12
F0.9146
tp1035
asI96
(lp1036
(S'you'
p1037
g9
F0.997
tp1038
a(S'want'
p1039
g12
F0.9987
tp1040
asI97
(lp1041
(S'you'
p1042
g9
F0.9721
tp1043
a(S'better'
p1044
g17
F0.6527
tp1045
a(S'get'
p1046
g12
F0.988
tp1047
a(S'it'
p1048
g9
F0.9967
tp1049
a(S'done'
p1050
g12
F0.992
tp1051
a(S'too'
p1052
g6
F0.9437
tp1053
a(S'be'
p1054
g12
F0.9485
tp1055
a(S'cause'
p1056
g20
F0.665
tp1057
a(g59
g9
F0.9813
tp1058
a(S'm'
p1059
g12
F0.9829
tp1060
a(S'leaving'
p1061
g12
F0.9883
tp1062
a(S'and'
p1063
g118
F0.9973
tp1064
a(g59
g9
F0.9853
tp1065
a(g1059
g12
F0.9822
tp1066
a(S'going'
p1067
g12
F0.9982
tp1068
a(S'away'
p1069
g6
F0.9821
tp1070
a(S'again'
p1071
g6
F0.9987
tp1072
a(S'next'
p1073
g17
F0.9128
tp1074
a(S'weekend'
p1075
g71
F0.9975
tp1076
a(S'too'
p1077
g6
F0.9503
tp1078
asI98
(lp1079
(S'next'
p1080
g17
F0.2996
tp1081
a(S'is'
p1082
g12
F0.9745
tp1083
a(S'the'
p1084
g36
F0.9994
tp1085
a(S'weekend'
p1086
g71
F0.9987
tp1087
a(S'of'
p1088
g20
F0.9991
tp1089
a(S'the'
p1090
g36
F0.9995
tp1091
a(S'seventh'
p1092
g17
F0.9447
tp1093
asI99
(lp1094
(S'um'
p1095
g3
F0.9379
tp1096
a(S'um'
p1097
g3
F0.9683
tp1098
a(S'um'
p1099
g3
F0.9194
tp1100
a(S'gwenski'
p1101
g39
F0.3347
tp1102
asI100
(lp1103
(S'uh'
p1104
g3
F0.976
tp1105
a(S'huh'
p1106
g3
F0.9924
tp1107
a(g59
g9
F0.9832
tp1108
a(g1059
g12
F0.9616
tp1109
a(S'gonna'
p1110
g12
F0.9925
tp1111
a(S'go'
p1112
g12
F0.9995
tp1113
a(S'that'
p1114
g36
F0.569
tp1115
a(S'weekend'
p1116
g71
F0.9953
tp1117
a(S'too'
p1118
g6
F0.9674
tp1119
asI101
(lp1120
(S'that'
p1121
g36
F0.8029
tp1122
a(S'other'
p1123
g17
F0.9966
tp1124
a(S'kids'
p1125
g71
F0.9729
tp1126
a(S'name'
p1127
g71
F0.9943
tp1128
a(S'is'
p1129
g12
F0.9969
tp1130
a(S'ricky'
p1131
g39
F0.9609
tp1132
a(S'and'
p1133
g118
F0.9986
tp1134
a(S'priscilla'
p1135
g39
F0.9732
tp1136
a(S'and'
p1137
g118
F0.9986
tp1138
a(S'joanna'
p1139
g39
F0.9849
tp1140
a(S'and'
p1141
g118
F0.9986
tp1142
a(S'tyrone'
p1143
g39
F0.9928
tp1144
a(S'and'
p1145
g118
F0.9985
tp1146
a(S'ricky'
p1147
g39
F0.9827
tp1148
a(S'and'
p1149
g118
F0.9986
tp1150
asI102
(lp1151
(S'and'
p1152
g118
F0.9986
tp1153
a(S'what'
p1154
g9
F0.9941
tp1155
asI103
(lp1156
(S'and'
p1157
g118
F0.9981
tp1158
a(S'april'
p1159
g39
F0.7554
tp1160
asI104
(lp1161
(S'and'
p1162
g118
F0.9988
tp1163
a(S'what'
p1164
g9
F0.9945
tp1165
a(g478
g64
F0.594
tp1166
a(S'the'
p1167
g36
F0.9991
tp1168
a(S'little'
p1169
g17
F0.9957
tp1170
a(S'girl'
p1171
g71
F0.9897
tp1172
a(S'name'
p1173
g71
F0.9799
tp1174
a(S'on'
p1175
g20
F0.9991
tp1176
a(S'you'
p1177
g9
F0.9857
tp1178
a(S'van'
p1179
g39
F0.8789
tp1180
a(g478
g64
F0.5608
tp1181
a(S'name'
p1182
g71
F0.9437
tp1183
a(S'april'
p1184
g39
F0.4456
tp1185
asI105
(lp1186
(S'your'
p1187
g36
F0.9585
tp1188
a(S'little'
p1189
g17
F0.9965
tp1190
a(S'friend'
p1191
g71
F0.9925
tp1192
asI106
(lp1193
(S'what'
p1194
g9
F0.9784
tp1195
a(g478
g12
F0.6104
tp1196
a(S'her'
p1197
g36
F0.9368
tp1198
a(S'name'
p1199
g71
F0.9997
tp1200
asI107
(lp1201
(S'veronica'
p1202
g39
F0.9166
tp1203
asI108
(lp1204
(S'what'
p1205
g9
F0.9784
tp1206
a(g478
g12
F0.6104
tp1207
a(S'her'
p1208
g36
F0.9368
tp1209
a(S'name'
p1210
g71
F0.9997
tp1211
asI109
(lp1212
(S'veronica'
p1213
g39
F0.9166
tp1214
asI110
(lp1215
(S'what'
p1216
g9
F0.9784
tp1217
a(g478
g12
F0.6104
tp1218
a(S'her'
p1219
g36
F0.9368
tp1220
a(S'name'
p1221
g71
F0.9997
tp1222
asI111
(lp1223
(S'monica'
p1224
g39
F0.972
tp1225
asI112
(lp1226
(S'veronica'
p1227
g39
F0.9166
tp1228
asI113
(lp1229
(S'and'
p1230
g118
F0.9987
tp1231
a(S'maybe'
p1232
g6
F0.9608
tp1233
a(S'if'
p1234
g20
F0.9979
tp1235
a(S'you'
p1236
g9
F0.9996
tp1237
a(S'sit'
p1238
g12
F0.9975
tp1239
a(S'at'
p1240
g20
F0.9972
tp1241
a(S'the'
p1242
g36
F0.9992
tp1243
a(S'table'
p1244
g71
F0.9939
tp1245
a(S'talk'
p1246
g12
F0.7896
tp1247
a(S'and'
p1248
g118
F0.9892
tp1249
a(S'eat'
p1250
g12
F0.9984
tp1251
a(S'your'
p1252
g36
F0.9945
tp1253
a(S'food'
p1254
g71
F0.9988
tp1255
a(S'or'
p1256
g118
F0.9847
tp1257
a(S'and'
p1258
g118
F0.9979
tp1259
a(S'probably'
p1260
g6
F0.9992
tp1261
a(S'can'
p1262
g12
F0.9986
tp1263
a(S'have'
p1264
g12
F0.9999
tp1265
a(S'some'
p1266
g36
F0.9937
tp1267
a(S'ice'
p1268
g71
F0.5716
tp1269
a(S'cream'
p1270
g71
F0.9776
tp1271
a(S'afterwards'
p1272
g6
F0.9287
tp1273
asI114
(lp1274
(S'who'
p1275
g9
F0.9965
tp1276
a(S'want'
p1277
g12
F0.9993
tp1278
a(S'ice'
p1279
g71
F0.791
tp1280
a(S'cream'
p1281
g71
F0.97
tp1282
asI115
(lp1283
(S'not'
p1284
g6
F0.9863
tp1285
a(S'me'
p1286
g9
F0.9981
tp1287
asI116
(lp1288
(g59
g9
F0.953
tp1289
a(g1059
g12
F0.9899
tp1290
a(g84
g36
F0.9392
tp1291
a(S'have'
p1292
g12
F0.4333
tp1293
a(S'to'
p1294
g20
F0.9846
tp1295
a(S'do'
p1296
g12
F1.0
tp1297
a(S'you'
p1298
g9
F0.9688
tp1299
a(S'hair'
p1300
g71
F0.6583
tp1301
a(S'girls'
p1302
g71
F0.9517
tp1303
a(S'hair'
p1304
g71
F0.9723
tp1305
a(S'thursday'
p1306
g71
F0.525
tp1307
a(S'be'
p1308
g12
F0.9631
tp1309
a(S'cause'
p1310
g20
F0.665
tp1311
a(g59
g9
F0.9813
tp1312
a(g1059
g12
F0.9814
tp1313
a(S'leaving'
p1314
g12
F0.9952
tp1315
a(S'friday'
p1316
g39
F0.7707
tp1317
asI117
(lp1318
(S'okay'
p1319
g3
F0.9857
tp1320
asI118
(lp1321
(g84
g36
F0.9899
tp1322
a(S'nice'
p1323
g17
F0.9955
tp1324
a(S'beautiful'
p1325
g17
F0.9934
tp1326
a(S'style'
p1327
g71
F0.9978
tp1328
asI119
(lp1329
(S'so'
p1330
g20
F0.8338
tp1331
a(S'you'
p1332
g9
F0.9995
tp1333
a(S'speaking'
p1334
g12
F0.998
tp1335
a(S'of'
p1336
g20
F0.9951
tp1337
a(S'the'
p1338
g36
F0.9996
tp1339
a(S'tenth'
p1340
g17
F0.5017
tp1341
asI120
(lp1342
(S'mhm'
p1343
g3
F0.9747
tp1344
asI121
(lp1345
(S'be'
p1346
g12
F0.9727
tp1347
a(S'cause'
p1348
g20
F0.906
tp1349
a(S'me'
p1350
g9
F0.999
tp1351
a(S'be'
p1352
g12
F0.9918
tp1353
a(S'cause'
p1354
g20
F0.9033
tp1355
a(S'me'
p1356
g9
F0.999
tp1357
a(S'and'
p1358
g118
F0.9953
tp1359
a(S'her'
p1360
g9
F0.7877
tp1361
a(S'go'
p1362
g12
F0.9902
tp1363
a(S'to'
p1364
g20
F0.996
tp1365
a(S'we'
p1366
g9
F0.9928
tp1367
a(S'go'
p1368
g12
F0.9991
tp1369
a(S'to'
p1370
g20
F0.9943
tp1371
a(S'her'
p1372
g9
F0.6363
tp1373
a(S'um'
p1374
g3
F0.4517
tp1375
a(S'school'
p1376
g71
F0.9435
tp1377
a(S'day'
p1378
g71
F0.9916
tp1379
a(S'thing'
p1380
g71
F0.892
tp1381
a(S'that'
p1382
g20
F0.9494
tp1383
a(S'friday'
p1384
g39
F0.831
tp1385
a(S'the'
p1386
g36
F0.9987
tp1387
a(S'eleventh'
p1388
g17
F0.7078
tp1389
asI122
(lp1390
(S'yeah'
p1391
g3
F0.9988
tp1392
asI123
(lp1393
(S'xxx'
p1394
g43
F0.8437
tp1395
asI124
(lp1396
(S'xxx'
p1397
g43
F0.8437
tp1398
asI125
(lp1399
(S'that'
p1400
g9
F0.473
tp1401
a(g478
g64
F0.4098
tp1402
a(S'next'
p1403
g17
F0.9722
tp1404
a(S'weekend'
p1405
g71
F0.9957
tp1406
a(S'huh'
p1407
g3
F0.949
tp1408
asI126
(lp1409
(S'yeah'
p1410
g3
F0.9983
tp1411
a(S'that'
p1412
g9
F0.6675
tp1413
a(g478
g64
F0.4188
tp1414
a(S'next'
p1415
g17
F0.84
tp1416
a(S'friday'
p1417
g39
F0.6981
tp1418
a(S'uhhuh'
p1419
g3
F0.8738
tp1420
asI127
(lp1421
(S'mhm'
p1422
g3
F0.9747
tp1423
asI128
(lp1424
(S'how'
p1425
g6
F0.9864
tp1426
a(S'you'
p1427
g9
F0.9996
tp1428
a(S'doing'
p1429
g12
F0.9997
tp1430
a(S'xxx'
p1431
g43
F0.735
tp1432
asI129
(lp1433
(S'mm'
p1434
g3
F0.627
tp1435
asI130
(lp1436
(S'xxx'
p1437
g43
F0.8437
tp1438
asI131
(lp1439
(S'this'
p1440
g9
F0.9526
tp1441
a(S'is'
p1442
g12
F0.9969
tp1443
a(S'delicious'
p1444
g17
F0.9981
tp1445
a(S'honey'
p1446
g71
F0.9858
tp1447
a(S'got'
p1448
g12
F0.9955
tp1449
a(S'all'
p1450
g36
F0.8069
tp1451
a(S'up'
p1452
g858
F0.7157
tp1453
a(S'on'
p1454
g20
F0.9952
tp1455
a(S'my'
p1456
g36
F0.9966
tp1457
a(S'dress'
p1458
g71
F0.9948
tp1459
asI132
(lp1460
(S'laughing'
p1461
g12
F0.9384
tp1462
asI133
(lp1463
(S'well'
p1464
g3
F0.8573
tp1465
a(g59
g9
F0.9915
tp1466
a(g1059
g12
F0.9758
tp1467
a(S'trying'
p1468
g12
F0.9981
tp1469
a(S'to'
p1470
g20
F0.9975
tp1471
a(S'get'
p1472
g12
F0.9998
tp1473
a(S'back'
p1474
g6
F0.304
tp1475
a(S'in'
p1476
g20
F0.9782
tp1477
a(S'form'
p1478
g71
F0.9842
tp1479
a(S'again'
p1480
g6
F0.9798
tp1481
a(S'so'
p1482
g20
F0.7851
tp1483
a(S'um'
p1484
g64
F0.3584
tp1485
a(S'on'
p1486
g20
F0.9901
tp1487
a(S'my'
p1488
g36
F0.9964
tp1489
a(S'diet'
p1490
g71
F0.9996
tp1491
a(S'today'
p1492
g71
F0.9959
tp1493
asI134
(lp1494
(g59
g9
F0.9913
tp1495
a(S'been'
p1496
g12
F0.9994
tp1497
a(S'on'
p1498
g20
F0.8746
tp1499
a(S'mine'
p1500
g9
F0.9506
tp1501
a(S'all'
p1502
g36
F0.9872
tp1503
a(S'week'
p1504
g71
F0.9902
tp1505
asI135
(lp1506
(S'that'
p1507
g9
F0.473
tp1508
a(g478
g64
F0.472
tp1509
a(S'why'
p1510
g6
F0.9629
tp1511
a(g59
g9
F0.9827
tp1512
a(g1059
g12
F0.9891
tp1513
a(S'hungry'
p1514
g17
F0.9766
tp1515
a(S'today'
p1516
g71
F0.9951
tp1517
asI136
(lp1518
(S'the'
p1519
g36
F0.999
tp1520
a(S'next'
p1521
g17
F0.9212
tp1522
asI137
(lp1523
(S'when'
p1524
g6
F0.9811
tp1525
a(g59
g9
F0.9877
tp1526
a(S'go'
p1527
g12
F0.9995
tp1528
a(S'to'
p1529
g20
F0.9984
tp1530
a(S'the'
p1531
g36
F0.9991
tp1532
a(S'store'
p1533
g71
F0.994
tp1534
a(S'tomorrow'
p1535
g71
F0.9102
tp1536
a(S'and'
p1537
g118
F0.9926
tp1538
a(S'get'
p1539
g12
F0.9996
tp1540
a(S'my'
p1541
g36
F0.9983
tp1542
a(S'sodas'
p1543
g71
F0.9962
tp1544
asI138
(lp1545
(g59
g9
F0.953
tp1546
a(g1059
g12
F0.9842
tp1547
a(S'buyin'
p1548
g12
F0.773
tp1549
a(S'g'
p1550
g71
F0.3366
tp1551
a(S'everything'
p1552
g71
F0.9909
tp1553
a(S'diet'
p1554
g71
F0.9843
tp1555
asI139
(lp1556
(S'diet'
p1557
g71
F0.9702
tp1558
a(S'sprite'
p1559
g71
F0.9525
tp1560
a(S'diet'
p1561
g71
F0.9987
tp1562
a(S'slice'
p1563
g71
F0.9903
tp1564
a(S'diet'
p1565
g71
F0.99
tp1566
a(S'ginger'
p1567
g71
F0.6935
tp1568
a(S'ale'
p1569
g71
F0.9908
tp1570
asI140
(lp1571
(S'and'
p1572
g118
F0.9992
tp1573
a(S'um'
p1574
g3
F0.8492
tp1575
a(g59
g9
F0.9915
tp1576
a(S'have'
p1577
g12
F1.0
tp1578
a(S'my'
p1579
g36
F0.977
tp1580
a(S'uh'
p1581
g3
F0.4399
tp1582
a(S'slim'
p1583
g17
F0.9775
tp1584
a(S'fast'
p1585
g17
F0.7233
tp1586
asI141
(lp1587
(S'eat'
p1588
g12
F0.9933
tp1589
a(S'it'
p1590
g9
F0.9934
tp1591
a(S'for'
p1592
g20
F0.997
tp1593
a(S'lunch'
p1594
g71
F0.9066
tp1595
a(S'or'
p1596
g118
F0.9857
tp1597
a(S'for'
p1598
g20
F0.9959
tp1599
a(S'dinner'
p1600
g71
F0.9303
tp1601
asI142
(lp1602
(S'and'
p1603
g118
F0.9985
tp1604
a(S'uh'
p1605
g3
F0.9353
tp1606
a(g59
g9
F0.9938
tp1607
a(S'knew'
p1608
g12
F0.9998
tp1609
a(S'this'
p1610
g36
F0.9714
tp1611
a(S'stuff'
p1612
g71
F0.9976
tp1613
a(S'on'
p1614
g20
F0.999
tp1615
a(S'this'
p1616
g36
F0.9693
tp1617
a(S'table'
p1618
g71
F0.9933
tp1619
a(S'was'
p1620
g12
F0.9902
tp1621
a(S'gonna'
p1622
g12
F0.9863
tp1623
a(S'tempt'
p1624
g12
F1.0
tp1625
a(S'me'
p1626
g9
F0.9977
tp1627
asI143
(lp1628
(g59
g9
F0.9913
tp1629
a(S'been'
p1630
g12
F0.9993
tp1631
a(S'living'
p1632
g12
F0.9975
tp1633
a(S'on'
p1634
g20
F0.9445
tp1635
a(S'salad'
p1636
g71
F0.9528
tp1637
asI144
(lp1638
(g59
g9
F0.9156
tp1639
a(S've'
p1640
g12
F0.8384
tp1641
a(S'been'
p1642
g12
F0.9876
tp1643
a(S'living'
p1644
g12
F0.9973
tp1645
a(S'on'
p1646
g20
F0.943
tp1647
a(S'salad'
p1648
g71
F0.9498
tp1649
a(S'for'
p1650
g20
F1.0
tp1651
a(S'the'
p1652
g36
F0.9994
tp1653
a(S'last'
p1654
g17
F0.9959
tp1655
a(S'week'
p1656
g71
F0.9966
tp1657
asI145
(lp1658
(S'and'
p1659
g118
F0.999
tp1660
a(g59
g9
F0.9899
tp1661
a(S'll'
p1662
g12
F0.7521
tp1663
a(S'tell'
p1664
g12
F0.9983
tp1665
a(S'you'
p1666
g9
F0.9979
tp1667
a(S'my'
p1668
g36
F0.9992
tp1669
a(S'body'
p1670
g71
F0.9975
tp1671
a(g478
g64
F0.612
tp1672
a(S'getting'
p1673
g12
F0.9966
tp1674
a(S'weak'
p1675
g17
F0.9868
tp1676
asI146
(lp1677
(S'laughs'
p1678
g12
F0.9102
tp1679
asI147
(lp1680
(S'well'
p1681
g3
F0.7165
tp1682
a(S'well'
p1683
g3
F0.7177
tp1684
a(g59
g9
F0.991
tp1685
a(g1059
g12
F0.9616
tp1686
a(S'gonna'
p1687
g12
F0.9928
tp1688
a(S'try'
p1689
g12
F0.9998
tp1690
a(S'it'
p1691
g9
F0.9702
tp1692
a(S'instead'
p1693
g6
F0.9688
tp1694
a(S'is'
p1695
g12
F0.995
tp1696
a(S'xxx'
p1697
g43
F0.3049
tp1698
a(S'is'
p1699
g12
F0.9953
tp1700
a(S'try'
p1701
g12
F0.9425
tp1702
a(S'to'
p1703
g20
F0.9903
tp1704
a(S'try'
p1705
g12
F0.9983
tp1706
a(S'to'
p1707
g20
F0.976
tp1708
a(S'xxx'
p1709
g12
F0.8093
tp1710
a(S'to'
p1711
g20
F0.9938
tp1712
a(S'eat'
p1713
g12
F0.9949
tp1714
a(S'just'
p1715
g6
F0.9998
tp1716
a(S'about'
p1717
g20
F0.9929
tp1718
a(S'the'
p1719
g36
F0.9993
tp1720
a(S'foods'
p1721
g71
F0.9961
tp1722
a(S'that'
p1723
g20
F0.8635
tp1724
a(g59
g9
F0.9761
tp1725
a(g1022
g12
F0.8755
tp1726
a(S'like'
p1727
g12
F0.5645
tp1728
a(S'to'
p1729
g20
F0.9907
tp1730
a(S'eat'
p1731
g12
F0.9934
tp1732
asI148
(lp1733
(S'but'
p1734
g118
F0.9948
tp1735
a(g59
g9
F0.9881
tp1736
a(g1059
g12
F0.973
tp1737
a(S'just'
p1738
g6
F0.9992
tp1739
a(S'gonna'
p1740
g12
F0.9982
tp1741
a(S'try'
p1742
g12
F0.9985
tp1743
a(S'to'
p1744
g20
F0.9894
tp1745
a(S'cut'
p1746
g12
F0.9718
tp1747
a(S'out'
p1748
g858
F0.8125
tp1749
a(g84
g36
F0.9939
tp1750
a(S'meal'
p1751
g71
F0.9988
tp1752
a(S'and'
p1753
g118
F0.9979
tp1754
a(S'drink'
p1755
g12
F0.5631
tp1756
a(S'diet'
p1757
g71
F0.9925
tp1758
a(S'soda'
p1759
g71
F0.9892
tp1760
asI149
(lp1761
(S'be'
p1762
g12
F0.9727
tp1763
a(S'cause'
p1764
g20
F0.7105
tp1765
a(g59
g9
F0.9916
tp1766
a(S'really'
p1767
g6
F0.9984
tp1768
a(S'don'
p1769
g12
F0.7895
tp1770
a(g63
g20
F0.2528
tp1771
a(S'eat'
p1772
g12
F0.9935
tp1773
a(S'all'
p1774
g36
F0.6894
tp1775
a(S'that'
p1776
g36
F0.4395
tp1777
a(S'much'
p1778
g17
F0.684
tp1779
a(S'anyway'
p1780
g6
F0.9158
tp1781
asI150
(lp1782
(g59
g9
F0.989
tp1783
a(S'think'
p1784
g12
F1.0
tp1785
a(S'it'
p1786
g9
F0.9926
tp1787
a(g478
g12
F0.6519
tp1788
a(S'the'
p1789
g36
F0.9992
tp1790
a(S'soda'
p1791
g71
F0.9947
tp1792
a(S'so'
p1793
g20
F0.803
tp1794
a(g59
g9
F0.9714
tp1795
a(g1059
g12
F0.9607
tp1796
a(S'gonna'
p1797
g12
F0.9895
tp1798
a(S'drink'
p1799
g12
F0.993
tp1800
a(S'nothin'
p1801
g71
F0.9845
tp1802
a(g1550
g64
F0.307
tp1803
a(S'but'
p1804
g118
F0.993
tp1805
a(S'diet'
p1806
g71
F0.9707
tp1807
a(S'sodas'
p1808
g71
F0.9901
tp1809
a(S'and'
p1810
g118
F0.998
tp1811
asI151
(lp1812
(S'so'
p1813
g20
F0.5721
tp1814
a(S'today'
p1815
g71
F0.9771
tp1816
a(g59
g9
F0.9688
tp1817
a(S'had'
p1818
g12
F0.9996
tp1819
a(S'lunch'
p1820
g71
F0.8625
tp1821
a(S'and'
p1822
g118
F0.9968
tp1823
a(S'took'
p1824
g12
F0.9997
tp1825
a(S'me'
p1826
g9
F0.996
tp1827
a(g84
g36
F0.9803
tp1828
a(S'spice'
p1829
g71
F0.9619
tp1830
a(S'ham'
p1831
g71
F0.8143
tp1832
a(S'sandwich'
p1833
g71
F0.9987
tp1834
a(S'to'
p1835
g20
F0.9994
tp1836
a(S'eat'
p1837
g12
F0.9923
tp1838
a(S'lunch'
p1839
g71
F0.918
tp1840
a(S'and'
p1841
g118
F0.9976
tp1842
a(S'then'
p1843
g6
F0.992
tp1844
a(g59
g9
F0.9942
tp1845
a(S'had'
p1846
g12
F0.9999
tp1847
a(S'an'
p1848
g36
F0.9823
tp1849
a(S'apple'
p1850
g71
F0.7431
tp1851
asI152
(lp1852
(S'and'
p1853
g118
F0.999
tp1854
a(g59
g9
F0.9942
tp1855
a(S'had'
p1856
g12
F0.9999
tp1857
a(g84
g36
F0.947
tp1858
a(S'um'
p1859
g64
F0.3449
tp1860
a(S'diet'
p1861
g71
F0.9613
tp1862
a(S'sprite'
p1863
g71
F0.964
tp1864
a(S'for'
p1865
g20
F0.9992
tp1866
a(S'lunch'
p1867
g71
F0.9175
tp1868
asI153
(lp1869
(S'and'
p1870
g118
F0.9992
tp1871
a(S'this'
p1872
g9
F0.5468
tp1873
a(S'right'
p1874
g6
F0.8633
tp1875
a(S'here'
p1876
g6
F0.9839
tp1877
a(S'be'
p1878
g12
F0.9918
tp1879
a(S'my'
p1880
g36
F0.8918
tp1881
a(S'uh'
p1882
g71
F0.3474
tp1883
a(S'dinner'
p1884
g71
F0.9419
tp1885
a(S'right'
p1886
g6
F0.8921
tp1887
a(S'here'
p1888
g6
F0.9775
tp1889
asI154
(lp1890
(S'and'
p1891
g118
F0.9988
tp1892
a(S'tomorrow'
p1893
g71
F0.9549
tp1894
a(g59
g9
F0.9295
tp1895
a(S'll'
p1896
g12
F0.6954
tp1897
a(S'drink'
p1898
g12
F0.9841
tp1899
a(S'this'
p1900
g9
F0.8526
tp1901
a(S'for'
p1902
g20
F0.9942
tp1903
a(S'uh'
p1904
g3
F0.4493
tp1905
a(S'lunch'
p1906
g71
F0.8562
tp1907
asI155
(lp1908
(S'and'
p1909
g118
F0.9986
tp1910
a(S'when'
p1911
g6
F0.9842
tp1912
a(g59
g9
F0.987
tp1913
a(S'come'
p1914
g12
F0.9999
tp1915
a(S'home'
p1916
g6
F0.4786
tp1917
a(S'and'
p1918
g118
F0.9971
tp1919
a(S'cook'
p1920
g12
F0.7878
tp1921
a(S'tomorrow'
p1922
g71
F0.9219
tp1923
asI156
(lp1924
(g59
g9
F0.9892
tp1925
a(S'got'
p1926
g12
F0.9999
tp1927
a(S'some'
p1928
g36
F0.9926
tp1929
a(S'broccoli'
p1930
g71
F0.9973
tp1931
a(S'in'
p1932
g20
F0.9935
tp1933
a(S'there'
p1934
g6
F0.5783
tp1935
asI157
(lp1936
(S'and'
p1937
g118
F0.9985
tp1938
a(S'uh'
p1939
g3
F0.8518
tp1940
a(S'xxx'
p1941
g43
F0.4915
tp1942
a(S'and'
p1943
g118
F0.998
tp1944
a(S'put'
p1945
g12
F0.9469
tp1946
a(S'pork'
p1947
g71
F0.9825
tp1948
a(S'chops'
p1949
g71
F0.9962
tp1950
a(S'to'
p1951
g20
F0.9992
tp1952
a(S'make'
p1953
g12
F0.9987
tp1954
a(S'that'
p1955
g36
F0.9476
tp1956
a(S'baby'
p1957
g71
F0.9945
tp1958
a(S'pork'
p1959
g71
F0.9963
tp1960
a(S'chops'
p1961
g71
F0.9953
tp1962
a(S'and'
p1963
g118
F0.9948
tp1964
a(S'fix'
p1965
g12
F0.9943
tp1966
a(S'the'
p1967
g36
F0.9995
tp1968
a(S'broccoli'
p1969
g71
F0.9925
tp1970
a(S'and'
p1971
g118
F0.9982
tp1972
a(g59
g9
F0.9941
tp1973
a(S'have'
p1974
g12
F0.9989
tp1975
a(S'food'
p1976
g71
F0.9961
tp1977
a(S'tomorrow'
p1978
g71
F0.989
tp1979
asI158
(lp1980
(S'but'
p1981
g118
F0.9948
tp1982
a(g59
g9
F0.9881
tp1983
a(g1059
g12
F0.9644
tp1984
a(S'gonna'
p1985
g12
F0.9925
tp1986
a(S'try'
p1987
g12
F0.9985
tp1988
a(S'to'
p1989
g20
F0.9928
tp1990
a(S'see'
p1991
g12
F0.9987
tp1992
a(S'if'
p1993
g20
F0.9928
tp1994
a(g59
g9
F0.9967
tp1995
a(S'can'
p1996
g12
F0.9999
tp1997
a(S'do'
p1998
g12
F1.0
tp1999
a(S'it'
p2000
g9
F0.9906
tp2001
a(S'that'
p2002
g36
F0.7427
tp2003
a(S'way'
p2004
g71
F0.9605
tp2005
asI159
(lp2006
(S'and'
p2007
g118
F0.9988
tp2008
a(S'tomorrow'
p2009
g71
F0.8315
tp2010
a(S'when'
p2011
g6
F0.9937
tp2012
a(g59
g9
F0.9848
tp2013
a(S'come'
p2014
g12
F0.9999
tp2015
a(S'home'
p2016
g71
F0.7198
tp2017
a(g59
g9
F0.7707
tp2018
a(g1059
g12
F0.9607
tp2019
a(S'gonna'
p2020
g12
F0.9928
tp2021
a(S'come'
p2022
g12
F0.9998
tp2023
a(S'over'
p2024
g20
F0.7305
tp2025
a(S'there'
p2026
g6
F0.6505
tp2027
a(S'see'
p2028
g12
F0.9878
tp2029
a(S'if'
p2030
g20
F0.9928
tp2031
a(g59
g9
F0.9967
tp2032
a(S'can'
p2033
g12
F0.9998
tp2034
a(S'borrow'
p2035
g12
F0.996
tp2036
a(S'xxx'
p2037
g43
F0.3492
tp2038
a(g84
g36
F0.9875
tp2039
a(S'mat'
p2040
g71
F0.98
tp2041
asI160
(lp2042
(S'mhm'
p2043
g3
F0.9747
tp2044
asI161
(lp2045
(S'and'
p2046
g118
F0.9992
tp2047
a(S'um'
p2048
g3
F0.8492
tp2049
a(g59
g9
F0.9715
tp2050
a(g1059
g12
F0.9616
tp2051
a(S'gonna'
p2052
g12
F0.9943
tp2053
a(S'start'
p2054
g12
F0.9997
tp2055
a(S'some'
p2056
g36
F0.994
tp2057
a(S'exercise'
p2058
g71
F0.9832
tp2059
asI162
(lp2060
(g59
g9
F0.953
tp2061
a(g1059
g12
F0.9899
tp2062
a(g84
g36
F0.9728
tp2063
a(S'try'
p2064
g71
F0.9053
tp2065
a(S'to'
p2066
g20
F0.999
tp2067
a(S'get'
p2068
g12
F0.9998
tp2069
a(S'back'
p2070
g6
F0.2993
tp2071
a(S'to'
p2072
g20
F0.9894
tp2073
a(S'in'
p2074
g20
F0.8998
tp2075
a(S'the'
p2076
g36
F0.9993
tp2077
a(S'habit'
p2078
g71
F0.9979
tp2079
a(S'like'
p2080
g20
F0.9543
tp2081
a(g59
g9
F0.9973
tp2082
a(S'had'
p2083
g12
F0.9999
tp2084
a(g84
g36
F0.9974
tp2085
a(S'few'
p2086
g17
F0.9062
tp2087
a(S'years'
p2088
g71
F0.9972
tp2089
a(S'ago'
p2090
g6
F0.7015
tp2091
a(S'while'
p2092
g20
F0.9684
tp2093
a(S'you'
p2094
g9
F0.9998
tp2095
a(S'was'
p2096
g12
F0.9997
tp2097
a(S'used'
p2098
g12
F0.7507
tp2099
a(S'to'
p2100
g20
F0.9703
tp2101
a(S'do'
p2102
g12
F1.0
tp2103
a(S'it'
p2104
g9
F0.9946
tp2105
a(S'in'
p2106
g20
F0.9635
tp2107
a(S'my'
p2108
g36
F0.9975
tp2109
a(S'house'
p2110
g71
F0.9728
tp2111
a(S'four'
p2112
g209
F0.6224
tp2113
a(S'and'
p2114
g118
F0.9979
tp2115
a(S'five'
p2116
g209
F0.7479
tp2117
a(S'days'
p2118
g71
F0.9836
tp2119
a(g84
g36
F0.9854
tp2120
a(S'week'
p2121
g71
F0.9968
tp2122
a(S'steadily'
p2123
g6
F0.9952
tp2124
asI163
(lp2125
(S'year'
p2126
g71
F0.9425
tp2127
a(S'in'
p2128
g20
F0.9733
tp2129
a(S'and'
p2130
g118
F0.9913
tp2131
a(S'year'
p2132
g71
F0.9709
tp2133
a(S'out'
p2134
g20
F0.4828
tp2135
asI164
(lp2136
(S'it'
p2137
g9
F0.9956
tp2138
a(S'was'
p2139
g12
F0.9986
tp2140
a(S'xxx'
p2141
g12
F0.5679
tp2142
a(S'it'
p2143
g9
F0.9964
tp2144
a(S'was'
p2145
g12
F0.9987
tp2146
a(S'just'
p2147
g6
F0.9998
tp2148
a(g84
g36
F0.9915
tp2149
a(S'way'
p2150
g71
F0.9889
tp2151
a(S'of'
p2152
g20
F0.9954
tp2153
a(S'life'
p2154
g71
F0.9825
tp2155
asI165
(lp2156
(S'but'
p2157
g118
F0.9948
tp2158
a(g59
g9
F0.9963
tp2159
a(S'mean'
p2160
g12
F0.9892
tp2161
a(S'but'
p2162
g118
F0.9793
tp2163
a(S'then'
p2164
g6
F0.9967
tp2165
a(g59
g9
F0.994
tp2166
a(S'got'
p2167
g12
F0.9999
tp2168
a(S'out'
p2169
g858
F0.529
tp2170
a(S'of'
p2171
g20
F0.999
tp2172
a(S'the'
p2173
g36
F0.9993
tp2174
a(S'habit'
p2175
g71
F0.9975
tp2176
a(S'when'
p2177
g6
F0.9932
tp2178
a(g59
g9
F0.9917
tp2179
a(S'got'
p2180
g12
F0.9993
tp2181
a(S'work'
p2182
g71
F0.9379
tp2183
a(S'and'
p2184
g118
F0.9972
tp2185
a(S'got'
p2186
g12
F0.9948
tp2187
a(S'lazy'
p2188
g17
F0.9946
tp2189
a(S'and'
p2190
g118
F0.9971
tp2191
a(S'used'
p2192
g12
F0.9567
tp2193
a(S'to'
p2194
g20
F0.9703
tp2195
a(S'do'
p2196
g12
F1.0
tp2197
a(S'it'
p2198
g9
F0.9967
tp2199
a(S'at'
p2200
g20
F0.9913
tp2201
a(S'least'
p2202
g17
F0.9863
tp2203
a(S'four'
p2204
g209
F0.4047
tp2205
a(S'or'
p2206
g118
F0.9907
tp2207
a(S'five'
p2208
g209
F0.7588
tp2209
a(S'days'
p2210
g71
F0.9836
tp2211
a(g84
g36
F0.9854
tp2212
a(S'week'
p2213
g71
F0.9897
tp2214
a(S'every'
p2215
g36
F0.9538
tp2216
a(S'day'
p2217
g71
F0.9985
tp2218
a(S'xxx'
p2219
g43
F0.7382
tp2220
asI166
(lp2221
(S'and'
p2222
g118
F0.9985
tp2223
a(S'see'
p2224
g12
F0.9956
tp2225
a(S'that'
p2226
g9
F0.4617
tp2227
a(S'was'
p2228
g12
F0.9987
tp2229
a(S'good'
p2230
g17
F0.9981
tp2231
a(S'cause'
p2232
g20
F0.9533
tp2233
a(S'it'
p2234
g9
F0.9986
tp2235
a(S'kept'
p2236
g12
F0.9999
tp2237
a(S'it'
p2238
g9
F0.9977
tp2239
a(S'kept'
p2240
g12
F0.9999
tp2241
a(S'it'
p2242
g9
F0.9951
tp2243
a(S'down'
p2244
g6
F0.6568
tp2245
a(S'good'
p2246
g17
F0.9943
tp2247
asI167
(lp2248
(S'never'
p2249
g6
F0.9882
tp2250
a(S'on'
p2251
g20
F0.9699
tp2252
a(S'never'
p2253
g6
F0.9829
tp2254
a(S'on'
p2255
g20
F0.9977
tp2256
a(S'the'
p2257
g36
F0.9996
tp2258
a(S'weekends'
p2259
g71
F0.9884
tp2260
asI168
(lp2261
(S'and'
p2262
g118
F0.9987
tp2263
a(S'then'
p2264
g6
F0.9867
tp2265
a(g59
g9
F0.9922
tp2266
a(S'used'
p2267
g12
F0.9922
tp2268
a(S'to'
p2269
g20
F0.9894
tp2270
a(S'have'
p2271
g12
F0.9995
tp2272
a(S'elka'
p2273
g39
F0.5966
tp2274
a(S'come'
p2275
g12
F0.9977
tp2276
a(S'over'
p2277
g20
F0.5317
tp2278
a(S'here'
p2279
g6
F0.9871
tp2280
a(S'and'
p2281
g118
F0.9973
tp2282
a(S'uh'
p2283
g3
F0.556
tp2284
a(S'do'
p2285
g12
F0.999
tp2286
a(S'it'
p2287
g9
F0.9939
tp2288
a(S'with'
p2289
g20
F0.9985
tp2290
a(S'me'
p2291
g9
F0.9985
tp2292
asI169
(lp2293
(S'but'
p2294
g118
F0.9915
tp2295
a(S'uh'
p2296
g3
F0.8993
tp2297
a(S'she'
p2298
g9
F0.9967
tp2299
a(S'never'
p2300
g6
F0.9982
tp2301
a(S'did'
p2302
g12
F0.9984
tp2303
a(S'come'
p2304
g12
F0.9847
tp2305
asI170
(lp2306
(S'but'
p2307
g118
F0.9948
tp2308
a(g59
g9
F0.9971
tp2309
a(S'was'
p2310
g12
F0.9997
tp2311
a(S'just'
p2312
g6
F0.9999
tp2313
a(S'in'
p2314
g20
F0.9876
tp2315
a(S'that'
p2316
g36
F0.939
tp2317
a(S'habit'
p2318
g71
F0.9992
tp2319
a(S'of'
p2320
g20
F0.9991
tp2321
a(S'every'
p2322
g36
F0.9932
tp2323
a(S'day'
p2324
g71
F0.9983
tp2325
asI171
(lp2326
(S'and'
p2327
g118
F0.9987
tp2328
a(S'ever'
p2329
g6
F0.9838
tp2330
a(S'since'
p2331
g20
F0.9827
tp2332
a(S'my'
p2333
g36
F0.996
tp2334
a(S'mat'
p2335
g71
F0.9921
tp2336
a(S'that'
p2337
g20
F0.864
tp2338
a(g59
g9
F0.9952
tp2339
a(S'used'
p2340
g12
F0.9935
tp2341
a(S'to'
p2342
g20
F0.9703
tp2343
a(S'do'
p2344
g12
F1.0
tp2345
a(S'it'
p2346
g9
F0.9918
tp2347
a(S'on'
p2348
g20
F0.5672
tp2349
asI172
(lp2350
(S'my'
p2351
g36
F0.995
tp2352
a(S'hospital'
p2353
g71
F0.9902
tp2354
a(S'egg'
p2355
g71
F0.9666
tp2356
a(S'crate'
p2357
g71
F0.9873
tp2358
a(S'thing'
p2359
g71
F0.9899
tp2360
a(S'got'
p2361
g12
F0.9948
tp2362
a(S'tore'
p2363
g12
F0.9974
tp2364
a(S'up'
p2365
g858
F0.9719
tp2366
asI173
(lp2367
(S'and'
p2368
g118
F0.999
tp2369
a(g59
g9
F0.9919
tp2370
a(S'tried'
p2371
g12
F0.9991
tp2372
a(S'on'
p2373
g20
F0.9758
tp2374
a(S'the'
p2375
g36
F0.9994
tp2376
a(S'floor'
p2377
g71
F0.994
tp2378
a(g84
g36
F0.9729
tp2379
a(S'couple'
p2380
g71
F0.9919
tp2381
a(S'of'
p2382
g20
F0.9963
tp2383
a(S'time'
p2384
g71
F0.9842
tp2385
a(S'and'
p2386
g118
F0.9971
tp2387
a(S'my'
p2388
g36
F0.9941
tp2389
a(S'backbone'
p2390
g71
F0.9985
tp2391
a(g1022
g71
F0.3529
tp2392
a(S'be'
p2393
g12
F0.996
tp2394
a(S'diggin'
p2395
g12
F0.8494
tp2396
a(g1550
g12
F0.3657
tp2397
a(S'into'
p2398
g20
F0.999
tp2399
a(S'the'
p2400
g36
F0.9992
tp2401
a(S'floor'
p2402
g71
F0.9922
tp2403
asI174
(lp2404
(S'that'
p2405
g9
F0.4727
tp2406
a(g478
g12
F0.3914
tp2407
a(S'horrible'
p2408
g17
F0.9941
tp2409
asI175
(lp2410
(S'and'
p2411
g118
F0.999
tp2412
a(g59
g9
F0.9935
tp2413
a(S'wish'
p2414
g12
F0.9976
tp2415
a(S'and'
p2416
g118
F0.998
tp2417
a(g59
g9
F0.9917
tp2418
a(S'tried'
p2419
g12
F0.9988
tp2420
a(S'on'
p2421
g20
F0.9779
tp2422
a(S'the'
p2423
g36
F0.9993
tp2424
a(S'bed'
p2425
g71
F0.9764
tp2426
a(S'but'
p2427
g118
F0.9461
tp2428
a(S'the'
p2429
g36
F0.9981
tp2430
a(S'bed'
p2431
g71
F0.9878
tp2432
a(S'is'
p2433
g12
F0.9948
tp2434
a(S'too'
p2435
g6
F0.9975
tp2436
a(S'soft'
p2437
g17
F0.9829
tp2438
asI176
(lp2439
(S'you'
p2440
g9
F0.9942
tp2441
a(S'just'
p2442
g6
F0.9992
tp2443
a(S'can'
p2444
g12
F0.9978
tp2445
a(g63
g12
F0.8557
tp2446
a(S'do'
p2447
g12
F0.9991
tp2448
a(S'it'
p2449
g9
F0.9917
tp2450
a(S'on'
p2451
g20
F0.9766
tp2452
a(S'the'
p2453
g36
F0.9993
tp2454
a(S'bed'
p2455
g71
F0.9883
tp2456
a(S'like'
p2457
g20
F0.9673
tp2458
a(S'you'
p2459
g9
F0.9998
tp2460
a(S'could'
p2461
g12
F0.9997
tp2462
a(S'on'
p2463
g20
F0.8594
tp2464
a(S'something'
p2465
g71
F0.9913
tp2466
a(S'hard'
p2467
g6
F0.5034
tp2468
a(S'and'
p2469
g118
F0.9978
tp2470
a(S'firm'
p2471
g71
F0.8634
tp2472
asI177
(lp2473
(S'so'
p2474
g20
F0.5145
tp2475
a(S'tomorrow'
p2476
g71
F0.8486
tp2477
a(g59
g9
F0.8267
tp2478
a(g1059
g12
F0.9616
tp2479
a(S'gonna'
p2480
g12
F0.9928
tp2481
a(S'try'
p2482
g12
F0.9985
tp2483
a(S'to'
p2484
g20
F0.9953
tp2485
a(S'get'
p2486
g12
F0.9998
tp2487
a(S'into'
p2488
g20
F0.985
tp2489
a(S'form'
p2490
g71
F0.9792
tp2491
a(S'so'
p2492
g20
F0.7502
tp2493
a(g59
g9
F0.9935
tp2494
a(S'can'
p2495
g12
F0.9998
tp2496
a(S'see'
p2497
g12
F0.9989
tp2498
a(S'by'
p2499
g20
F0.9986
tp2500
a(S'my'
p2501
g36
F0.9988
tp2502
a(S'birthday'
p2503
g71
F0.9914
tp2504
a(S'october'
p2505
g39
F0.7335
tp2506
a(S'if'
p2507
g20
F0.9932
tp2508
a(g59
g9
F0.9967
tp2509
a(S'can'
p2510
g12
F0.9999
tp2511
a(S'be'
p2512
g12
F0.9996
tp2513
a(S'lost'
p2514
g12
F0.5944
tp2515
a(S'these'
p2516
g36
F0.7974
tp2517
a(S'these'
p2518
g36
F0.8741
tp2519
a(S'pounds'
p2520
g71
F0.966
tp2521
a(g84
g36
F0.9808
tp2522
a(S'round'
p2523
g71
F0.9438
tp2524
a(S'here'
p2525
g6
F0.9571
tp2526
asI178
(lp2527
(S'you'
p2528
g9
F0.9966
tp2529
a(S'make'
p2530
g12
F0.9998
tp2531
a(S'my'
p2532
g36
F0.9995
tp2533
a(S'face'
p2534
g71
F0.9927
tp2535
a(S'kinda'
p2536
g6
F0.8029
tp2537
a(S'xxx'
p2538
g43
F0.4657
tp2539
a(S'the'
p2540
g36
F0.9987
tp2541
a(S'first'
p2542
g17
F0.9449
tp2543
asI179
(lp2544
(g59
g9
F0.9842
tp2545
a(S'start'
p2546
g12
F0.9998
tp2547
a(S'losin'
p2548
g12
F0.5098
tp2549
a(g1550
g64
F0.3939
tp2550
a(S'my'
p2551
g36
F0.8519
tp2552
a(S'xxx'
p2553
g71
F0.5095
tp2554
asI180
(lp2555
(S'xxx'
p2556
g43
F0.7728
tp2557
a(g59
g9
F0.9774
tp2558
a(S'lose'
p2559
g12
F0.9989
tp2560
a(S'xxx'
p2561
g12
F0.351
tp2562
a(S'it'
p2563
g9
F0.9939
tp2564
a(g478
g12
F0.4953
tp2565
a(S'just'
p2566
g6
F0.9988
tp2567
a(g84
g36
F0.9916
tp2568
a(S'little'
p2569
g17
F0.9627
tp2570
a(S'came'
p2571
g12
F0.6603
tp2572
a(S'off'
p2573
g858
F0.8327
tp2574
a(S'around'
p2575
g6
F0.6341
tp2576
a(S'here'
p2577
g6
F0.9864
tp2578
asI181
(lp2579
(S'just'
p2580
g6
F0.9981
tp2581
a(g84
g36
F0.9922
tp2582
a(S'little'
p2583
g17
F0.9692
tp2584
a(S'there'
p2585
g6
F0.6931
tp2586
asI182
(lp2587
(S'well'
p2588
g3
F0.906
tp2589
a(S'they'
p2590
g9
F0.9986
tp2591
a(S'said'
p2592
g12
F0.9992
tp2593
a(S'just'
p2594
g6
F0.9997
tp2595
a(S'earlier'
p2596
g6
F0.9412
tp2597
a(S'where'
p2598
g6
F0.9807
tp2599
a(S'it'
p2600
g9
F0.9979
tp2601
a(S'need'
p2602
g12
F0.9976
tp2603
a(S'to'
p2604
g20
F0.9721
tp2605
a(S'be'
p2606
g12
F0.9976
tp2607
a(S'firm'
p2608
g71
F0.8079
tp2609
a(S'up'
p2610
g858
F0.6548
tp2611
asI183
(lp2612
(S'can'
p2613
g12
F0.9755
tp2614
a(g59
g9
F0.987
tp2615
a(S'have'
p2616
g12
F0.9997
tp2617
a(S'more'
p2618
g17
F0.8852
tp2619
a(S'chicken'
p2620
g71
F0.9716
tp2621
asI184
(lp2622
(S'when'
p2623
g6
F0.9641
tp2624
a(S'it'
p2625
g9
F0.9139
tp2626
a(S'firm'
p2627
g12
F0.9173
tp2628
a(S'it'
p2629
g9
F0.9693
tp2630
a(S'don'
p2631
g12
F0.7936
tp2632
a(g63
g64
F0.2968
tp2633
a(S'necessarily'
p2634
g6
F0.9888
tp2635
asI185
(lp2636
(S'be'
p2637
g12
F0.9727
tp2638
a(S'cause'
p2639
g20
F0.7105
tp2640
a(g59
g9
F0.9916
tp2641
a(S'really'
p2642
g6
F0.9841
tp2643
a(S'haven'
p2644
g12
F0.5919
tp2645
a(g63
g64
F0.3876
tp2646
a(S'even'
p2647
g6
F0.9857
tp2648
a(S'been'
p2649
g12
F0.9959
tp2650
a(S'have'
p2651
g12
F0.9996
tp2652
a(g84
g36
F0.9983
tp2653
a(S'appetite'
p2654
g71
F0.9975
tp2655
a(S'that'
p2656
g20
F0.6053
tp2657
a(S'much'
p2658
g17
F0.7489
tp2659
a(S'for'
p2660
g20
F0.9971
tp2661
a(S'last'
p2662
g17
F0.9896
tp2663
a(S'xxx'
p2664
g43
F0.5301
tp2665
asI186
(lp2666
(S'grandma'
p2667
g71
F0.7343
tp2668
a(S'can'
p2669
g12
F0.9937
tp2670
a(g59
g9
F0.9862
tp2671
a(S'have'
p2672
g12
F0.9999
tp2673
a(S'some'
p2674
g36
F0.9725
tp2675
a(S'more'
p2676
g17
F0.9772
tp2677
a(S'chicken'
p2678
g71
F0.9766
tp2679
asI187
(lp2680
(S'mhm'
p2681
g3
F0.9747
tp2682
asI188
(lp2683
(S'can'
p2684
g12
F0.9855
tp2685
a(S'have'
p2686
g12
F0.9998
tp2687
a(S'some'
p2688
g36
F0.9715
tp2689
a(S'more'
p2690
g17
F0.9795
tp2691
a(S'chicken'
p2692
g71
F0.9716
tp2693
asI189
(lp2694
(S'what'
p2695
g9
F0.9725
tp2696
a(S'about'
p2697
g20
F0.9649
tp2698
a(S'potatoes'
p2699
g71
F0.9946
tp2700
asI190
(lp2701
(S'yeah'
p2702
g3
F0.9988
tp2703
asI191
(lp2704
(S'eat'
p2705
g12
F0.8113
tp2706
a(S'xxx'
p2707
g43
F0.6645
tp2708
a(S'xxx'
p2709
g43
F0.9545
tp2710
a(S'too'
p2711
g6
F0.9366
tp2712
a(S'baby'
p2713
g71
F0.8024
tp2714
asI192
(lp2715
(S'she'
p2716
g9
F0.9969
tp2717
a(S'ate'
p2718
g12
F0.9994
tp2719
a(S'her'
p2720
g36
F0.8757
tp2721
a(S'potatoes'
p2722
g71
F0.9994
tp2723
asI193
(lp2724
(S'you'
p2725
g9
F0.998
tp2726
a(S'want'
p2727
g12
F0.9989
tp2728
a(S'potatoes'
p2729
g71
F0.9384
tp2730
a(S'april'
p2731
g71
F0.401
tp2732
asI194
(lp2733
(S'you'
p2734
g9
F0.9849
tp2735
a(S'whipped'
p2736
g12
F0.9534
tp2737
a(S'yours'
p2738
g9
F0.9327
tp2739
a(S'off'
p2740
g858
F0.5877
tp2741
a(S'too'
p2742
g6
F0.9883
tp2743
a(S'didn'
p2744
g12
F0.6696
tp2745
a(g63
g12
F0.9478
tp2746
a(S'ya'
p2747
g9
F0.696
tp2748
a(S'you'
p2749
g9
F0.9944
tp2750
asI195
(lp2751
(g59
g9
F0.9756
tp2752
a(S'didn'
p2753
g12
F0.9919
tp2754
a(g63
g12
F0.6813
tp2755
a(S'mess'
p2756
g71
F0.4839
tp2757
a(S'th'
p2758
g12
F0.3761
tp2759
a(S'em'
p2760
g9
F0.9734
tp2761
a(S'up'
p2762
g858
F0.9042
tp2763
asI196
(lp2764
(S'you'
p2765
g9
F0.9983
tp2766
a(S'know'
p2767
g12
F0.9998
tp2768
a(S'the'
p2769
g36
F0.999
tp2770
a(S'last'
p2771
g17
F0.9957
tp2772
a(S'time'
p2773
g71
F0.9985
tp2774
a(S'gwen'
p2775
g39
F0.8573
tp2776
asI197
(lp2777
(g59
g9
F0.9896
tp2778
a(S'had'
p2779
g12
F0.9996
tp2780
a(S'xxx'
p2781
g43
F0.516
tp2782
a(g59
g9
F0.9483
tp2783
a(S'don'
p2784
g12
F0.9198
tp2785
a(g63
g71
F0.225
tp2786
a(S'know'
p2787
g12
F0.9916
tp2788
a(S'what'
p2789
g9
F0.9851
tp2790
a(g59
g9
F0.9963
tp2791
a(S'was'
p2792
g12
F0.9998
tp2793
a(S'thinkin'
p2794
g12
F0.9701
tp2795
a(g1550
g64
F0.3812
tp2796
asI198
(lp2797
(g59
g9
F0.9855
tp2798
a(S'put'
p2799
g12
F0.9996
tp2800
a(S'all'
p2801
g36
F0.6858
tp2802
a(S'that'
p2803
g36
F0.8736
tp2804
a(S'water'
p2805
g71
F0.9946
tp2806
a(S'in'
p2807
g20
F0.9967
tp2808
a(S'that'
p2809
g36
F0.965
tp2810
a(S'thing'
p2811
g71
F0.9973
tp2812
asI199
(lp2813
(S'that'
p2814
g36
F0.804
tp2815
a(S'whole'
p2816
g17
F0.9749
tp2817
a(S'big'
p2818
g17
F0.9794
tp2819
a(S'package'
p2820
g71
F0.9998
tp2821
a(S'of'
p2822
g20
F0.9954
tp2823
a(S'potatoes'
p2824
g71
F0.9787
tp2825
asI200
(lp2826
(S'and'
p2827
g118
F0.9987
tp2828
a(S'then'
p2829
g6
F0.9297
tp2830
a(S'the'
p2831
g36
F0.9977
tp2832
a(S'potatoes'
p2833
g71
F0.9932
tp2834
a(S'didn'
p2835
g12
F0.7748
tp2836
a(g63
g12
F0.7396
tp2837
a(S'have'
p2838
g12
F0.9935
tp2839
a(S'enough'
p2840
g17
F0.5051
tp2841
a(S'water'
p2842
g71
F0.9925
tp2843
a(S'in'
p2844
g20
F0.9972
tp2845
a(S'there'
p2846
g6
F0.5188
tp2847
asI201
(lp2848
(g59
g9
F0.9888
tp2849
a(S'tried'
p2850
g12
F0.9987
tp2851
a(S'to'
p2852
g20
F0.9898
tp2853
a(S'add'
p2854
g12
F0.9983
tp2855
a(S'more'
p2856
g17
F0.864
tp2857
a(S'water'
p2858
g71
F0.9973
tp2859
a(S'to'
p2860
g20
F0.9994
tp2861
a(S'it'
p2862
g9
F0.9971
tp2863
asI202
(lp2864
(S'and'
p2865
g118
F0.9977
tp2866
a(S'the'
p2867
g36
F0.9987
tp2868
a(S'things'
p2869
g71
F0.9978
tp2870
a(S'became'
p2871
g12
F0.9951
tp2872
asI203
(lp2873
(S'www'
p2874
g39
F0.3889
tp2875
asI204
(lp2876
(S'it'
p2877
g9
F0.9956
tp2878
a(S'was'
p2879
g12
F0.9997
tp2880
a(g84
g36
F0.9977
tp2881
a(S'great'
p2882
g17
F0.9985
tp2883
a(S'big'
p2884
g17
F0.811
tp2885
a(S'mess'
p2886
g71
F0.9884
tp2887
asI205
(lp2888
(S'laughs'
p2889
g12
F0.9102
tp2890
asI206
(lp2891
(S'so'
p2892
g20
F0.5721
tp2893
a(S'today'
p2894
g71
F0.9771
tp2895
a(g59
g9
F0.9674
tp2896
a(S'said'
p2897
g12
F0.9988
tp2898
a(g59
g9
F0.9891
tp2899
a(g1059
g12
F0.9607
tp2900
a(S'gonna'
p2901
g12
F0.9946
tp2902
a(S'make'
p2903
g12
F0.9982
tp2904
a(S'sure'
p2905
g17
F0.9591
tp2906
a(S'this'
p2907
g9
F0.9346
tp2908
a(S'is'
p2909
g12
F0.9945
tp2910
a(S'gonna'
p2911
g12
F0.9951
tp2912
a(g84
g36
F0.9611
tp2913
a(S'xxx'
p2914
g71
F0.4065
tp2915
asI207
(lp2916
(S'so'
p2917
g20
F0.8513
tp2918
a(S'it'
p2919
g9
F0.9983
tp2920
a(S'turned'
p2921
g12
F0.9998
tp2922
a(S'out'
p2923
g858
F0.781
tp2924
a(S'to'
p2925
g20
F0.9963
tp2926
a(S'be'
p2927
g12
F0.9989
tp2928
a(S'just'
p2929
g6
F0.9999
tp2930
a(S'enough'
p2931
g6
F0.5104
tp2932
a(S'p'
p2933
g64
F0.3227
tp2934
a(S'just'
p2935
g6
F0.9996
tp2936
a(S'enough'
p2937
g17
F0.7536
tp2938
a(S'potatoes'
p2939
g71
F0.9979
tp2940
asI208
(lp2941
(S'what'
p2942
g9
F0.9799
tp2943
a(S'are'
p2944
g12
F0.996
tp2945
a(S'these'
p2946
g9
F0.6367
tp2947
asI209
(lp2948
(S'po'
p2949
g39
F0.294
tp2950
a(S'tatoes'
p2951
g71
F0.7297
tp2952
asI210
(lp2953
(S'and'
p2954
g118
F0.9988
tp2955
a(S'what'
p2956
g9
F0.9989
tp2957
a(S'is'
p2958
g12
F0.9995
tp2959
a(S'this'
p2960
g9
F0.907
tp2961
a(S'here'
p2962
g6
F0.9466
tp2963
asI211
(lp2964
(S'chicken'
p2965
g71
F0.7024
tp2966
asI212
(lp2967
(S'corn'
p2968
g71
F0.9657
tp2969
asI213
(lp2970
(S'corn'
p2971
g71
F0.9657
tp2972
asI214
(lp2973
(g59
g9
F0.9914
tp2974
a(S'was'
p2975
g12
F0.9999
tp2976
a(S'cooking'
p2977
g12
F0.9297
tp2978
a(S'just'
p2979
g6
F0.9998
tp2980
a(S'enough'
p2981
g6
F0.6964
tp2982
a(S'for'
p2983
g20
F0.9999
tp2984
a(S'the'
p2985
g36
F0.9994
tp2986
a(S'folks'
p2987
g71
F0.999
tp2988
a(g59
g9
F0.9695
tp2989
a(S'was'
p2990
g12
F0.9996
tp2991
a(S'gonna'
p2992
g12
F0.9634
tp2993
a(S'feed'
p2994
g12
F0.9924
tp2995
asI215
(lp2996
(g59
g9
F0.9908
tp2997
a(S'know'
p2998
g12
F0.9984
tp2999
a(S'and'
p3000
g118
F0.9983
tp3001
a(S'it'
p3002
g9
F0.9963
tp3003
a(S'come'
p3004
g12
F0.9998
tp3005
a(S'out'
p3006
g858
F0.583
tp3007
a(S'better'
p3008
g6
F0.7914
tp3009
a(S'when'
p3010
g6
F0.9962
tp3011
a(S'you'
p3012
g9
F0.9978
tp3013
a(S'don'
p3014
g12
F0.8626
tp3015
a(g63
g20
F0.2528
tp3016
a(S'cook'
p3017
g12
F0.9915
tp3018
a(S'it'
p3019
g9
F0.9867
tp3020
a(S'too'
p3021
g6
F0.9986
tp3022
a(S'long'
p3023
g17
F0.9763
tp3024
asI216
(lp3025
(S'mhm'
p3026
g3
F0.9747
tp3027
asI217
(lp3028
(S'she'
p3029
g9
F0.9802
tp3030
a(S'she'
p3031
g9
F0.9912
tp3032
a(g478
g12
F0.6021
tp3033
a(S'talking'
p3034
g12
F0.901
tp3035
a(S'alright'
p3036
g3
F0.5446
tp3037
a(S'april'
p3038
g39
F0.907
tp3039
a(S'lips'
p3040
g71
F0.9654
tp3041
a(S'be'
p3042
g12
F0.9849
tp3043
a(S'going'
p3044
g12
F0.9948
tp3045
a(S'together'
p3046
g6
F0.9236
tp3047
a(S'to'
p3048
g20
F0.6763
tp3049
a(S'much'
p3050
g17
F0.5022
tp3051
a(S'when'
p3052
g6
F0.9438
tp3053
a(S'she'
p3054
g9
F0.9947
tp3055
a(S'eat'
p3056
g12
F0.9974
tp3057
a(S'to'
p3058
g20
F0.9871
tp3059
a(S'be'
p3060
g12
F0.9993
tp3061
a(S'conversatin'
p3062
g12
F0.7712
tp3063
a(g1550
g71
F0.2418
tp3064
a(S'wp'
p3065
g71
F0.367
tp3066
asI218
(lp3067
(S'that'
p3068
g9
F0.473
tp3069
a(g478
g12
F0.5365
tp3070
a(S'the'
p3071
g36
F0.9995
tp3072
a(S'thing'
p3073
g71
F0.9988
tp3074
a(S'in'
p3075
g20
F0.9973
tp3076
a(S'front'
p3077
g71
F0.9733
tp3078
a(S'of'
p3079
g20
F0.9992
tp3080
a(S'her'
p3081
g9
F0.6716
tp3082
asI219
(lp3083
(S'oh'
p3084
g3
F0.9988
tp3085
a(S'that'
p3086
g9
F0.7872
tp3087
a(S'xxx'
p3088
g43
F0.5748
tp3089
asI220
(lp3090
(S'don'
p3091
g39
F0.5427
tp3092
a(g63
g12
F0.4091
tp3093
a(S'you'
p3094
g9
F0.9996
tp3095
a(S'want'
p3096
g12
F0.9997
tp3097
a(S'to'
p3098
g20
F0.9941
tp3099
a(S'talk'
p3100
g12
F0.9952
tp3101
a(S'on'
p3102
g20
F0.991
tp3103
a(S'the'
p3104
g36
F0.9994
tp3105
a(S'tape'
p3106
g71
F0.9961
tp3107
a(S'recorder'
p3108
g71
F0.984
tp3109
a(S'that'
p3110
g20
F0.95
tp3111
a(g478
g64
F0.538
tp3112
a(g84
g36
F0.7313
tp3113
a(S'that'
p3114
g9
F0.5818
tp3115
a(g478
g12
F0.5936
tp3116
a(g84
g36
F0.9968
tp3117
a(S'tape'
p3118
g71
F0.998
tp3119
a(S'recorder'
p3120
g71
F0.9223
tp3121
a(S'you'
p3122
g9
F0.9916
tp3123
a(S'talk'
p3124
g12
F0.9976
tp3125
a(S'into'
p3126
g20
F0.9992
tp3127
a(S'it'
p3128
g9
F0.998
tp3129
a(S'and'
p3130
g118
F0.9962
tp3131
a(S'we'
p3132
g9
F0.9979
tp3133
a(S'can'
p3134
g12
F0.9997
tp3135
a(S'play'
p3136
g12
F0.9999
tp3137
a(S'it'
p3138
g9
F0.9937
tp3139
a(S'back'
p3140
g6
F0.893
tp3141
a(S'and'
p3142
g118
F0.9984
tp3143
a(S'hear'
p3144
g12
F0.9954
tp3145
a(S'it'
p3146
g9
F0.981
tp3147
asI221
(lp3148
(S'so'
p3149
g20
F0.8338
tp3150
a(S'you'
p3151
g9
F0.9996
tp3152
a(S'can'
p3153
g12
F0.9998
tp3154
a(S'hear'
p3155
g12
F0.9989
tp3156
a(S'it'
p3157
g9
F0.9784
tp3158
asI222
(lp3159
(S'we'
p3160
g9
F0.9973
tp3161
a(S'need'
p3162
g12
F0.9995
tp3163
a(g84
g36
F0.9961
tp3164
a(S'lot'
p3165
g71
F0.9874
tp3166
a(S'of'
p3167
g20
F0.9982
tp3168
a(S'her'
p3169
g9
F0.6364
tp3170
asI223
(lp3171
(S'not'
p3172
g6
F0.9907
tp3173
a(S'you'
p3174
g9
F0.9989
tp3175
a(S'tonight'
p3176
g6
F0.8364
tp3177
a(S'you'
p3178
g9
F0.9973
tp3179
a(S'tomorrow'
p3180
g71
F0.5151
tp3181
a(S'night'
p3182
g71
F0.906
tp3183
asI224
(lp3184
(S'we'
p3185
g9
F0.9948
tp3186
a(S'll'
p3187
g12
F0.7321
tp3188
a(S'take'
p3189
g12
F0.9926
tp3190
a(S'auntie'
p3191
g71
F0.8325
tp3192
a(g478
g12
F0.576
tp3193
a(S'it'
p3194
g9
F0.9934
tp3195
a(S'don'
p3196
g12
F0.6878
tp3197
a(g63
g64
F0.2902
tp3198
a(S'work'
p3199
g71
F0.8506
tp3200
asI225
(lp3201
(S'you'
p3202
g9
F0.998
tp3203
a(S'remember'
p3204
g12
F0.9987
tp3205
a(S'when'
p3206
g6
F0.9776
tp3207
a(S'we'
p3208
g9
F0.9958
tp3209
a(S'went'
p3210
g12
F0.9994
tp3211
a(S'to'
p3212
g20
F0.9974
tp3213
a(S'the'
p3214
g36
F0.9953
tp3215
a(S'brockton'
p3216
g39
F0.7712
tp3217
a(S'fair'
p3218
g71
F0.5325
tp3219
asI226
(lp3220
(g59
g9
F0.9888
tp3221
a(S'went'
p3222
g12
F0.9996
tp3223
a(S'to'
p3224
g20
F0.9831
tp3225
a(S'brockton'
p3226
g39
F0.7053
tp3227
a(S'fair'
p3228
g71
F0.473
tp3229
asI227
(lp3230
(S'yes'
p3231
g3
F0.9958
tp3232
asI228
(lp3233
(g59
g9
F0.9897
tp3234
a(S'want'
p3235
g12
F0.9998
tp3236
a(S'april'
p3237
g39
F0.8823
tp3238
a(S'to'
p3239
g20
F0.9964
tp3240
a(S'tell'
p3241
g12
F0.9998
tp3242
a(S'me'
p3243
g9
F0.9993
tp3244
a(S'about'
p3245
g20
F0.7681
tp3246
a(S'when'
p3247
g6
F0.9017
tp3248
a(S'we'
p3249
g9
F0.9964
tp3250
a(S'went'
p3251
g12
F0.9994
tp3252
a(S'to'
p3253
g20
F0.9974
tp3254
a(S'the'
p3255
g36
F0.9949
tp3256
a(S'brockton'
p3257
g39
F0.7893
tp3258
a(S'fair'
p3259
g71
F0.5127
tp3260
asI229
(lp3261
(S'do'
p3262
g12
F0.9983
tp3263
a(S'you'
p3264
g9
F0.9997
tp3265
a(S'remember'
p3266
g12
F0.9976
tp3267
asI230
(lp3268
(S'what'
p3269
g9
F0.9965
tp3270
a(S'did'
p3271
g12
F0.9952
tp3272
a(S'we'
p3273
g9
F0.9989
tp3274
a(S'do'
p3275
g12
F0.999
tp3276
asI231
(lp3277
(S'touch'
p3278
g12
F0.7223
tp3279
a(S'the'
p3280
g36
F0.9991
tp3281
a(S'animals'
p3282
g71
F0.9927
tp3283
asI232
(lp3284
(S'speak'
p3285
g12
F0.9945
tp3286
a(S'up'
p3287
g858
F0.9694
tp3288
asI233
(lp3289
(g59
g9
F0.9873
tp3290
a(S'can'
p3291
g12
F0.9996
tp3292
a(g63
g12
F0.7894
tp3293
a(S'hear'
p3294
g12
F0.9732
tp3295
a(S'you'
p3296
g9
F0.997
tp3297
asI234
(lp3298
(S'what'
p3299
g9
F0.9965
tp3300
a(S'did'
p3301
g12
F0.9952
tp3302
a(S'we'
p3303
g9
F0.9989
tp3304
a(S'do'
p3305
g12
F0.999
tp3306
asI235
(lp3307
(S'mhm'
p3308
g3
F0.9747
tp3309
asI236
(lp3310
(S'tell'
p3311
g12
F0.9944
tp3312
a(S'me'
p3313
g9
F0.9993
tp3314
a(S'what'
p3315
g9
F0.9338
tp3316
a(S'we'
p3317
g9
F0.9992
tp3318
a(S'did'
p3319
g12
F0.9993
tp3320
a(S'at'
p3321
g20
F0.9989
tp3322
a(S'the'
p3323
g36
F0.9995
tp3324
a(S'fair'
p3325
g71
F0.6812
tp3326
asI237
(lp3327
(S'didn'
p3328
g12
F0.598
tp3329
a(g63
g12
F0.9478
tp3330
a(S'you'
p3331
g9
F0.9993
tp3332
a(S'enjoy'
p3333
g12
F0.9996
tp3334
a(S'it'
p3335
g9
F0.9871
tp3336
asI238
(lp3337
(S'this'
p3338
g36
F0.9867
tp3339
a(S'stuff'
p3340
g71
F0.9987
tp3341
a(S'is'
p3342
g12
F0.9984
tp3343
a(S'really'
p3344
g6
F0.9997
tp3345
a(S'good'
p3346
g17
F0.9963
tp3347
asI239
(lp3348
(S'even'
p3349
g6
F0.9941
tp3350
a(S'with'
p3351
g20
F0.9994
tp3352
a(S'the'
p3353
g36
F0.9974
tp3354
a(S'skim'
p3355
g71
F0.9266
tp3356
a(S'milk'
p3357
g71
F0.9988
tp3358
asI240
(lp3359
(S'kinda'
p3360
g6
F0.6536
tp3361
a(S'kind'
p3362
g17
F0.5878
tp3363
a(S'of'
p3364
g20
F0.9905
tp3365
a(S'like'
p3366
g20
F0.8516
tp3367
a(g84
g36
F0.993
tp3368
a(S'milk'
p3369
g71
F0.9984
tp3370
a(S'shake'
p3371
g12
F0.5574
tp3372
a(S'xxx'
p3373
g43
F0.7064
tp3374
asI241
(lp3375
(S'mhm'
p3376
g3
F0.857
tp3377
a(S'it'
p3378
g9
F0.9915
tp3379
a(S'sure'
p3380
g17
F0.6973
tp3381
a(S'is'
p3382
g12
F0.935
tp3383
asI242
(lp3384
(S'only'
p3385
g17
F0.7811
tp3386
a(S'thing'
p3387
g71
F0.9766
tp3388
a(S'they'
p3389
g9
F0.9785
tp3390
a(S'do'
p3391
g12
F0.9998
tp3392
a(S'um'
p3393
g9
F0.4176
tp3394
a(S'is'
p3395
g12
F0.9987
tp3396
a(S'sometime'
p3397
g6
F0.972
tp3398
a(S'after'
p3399
g20
F0.9023
tp3400
a(S'so'
p3401
g6
F0.963
tp3402
a(S'many'
p3403
g17
F0.9739
tp3404
a(S'days'
p3405
g71
F0.9994
tp3406
a(S'of'
p3407
g20
F0.9988
tp3408
a(S'it'
p3409
g9
F0.9966
tp3410
asI243
(lp3411
(S'you'
p3412
g9
F0.997
tp3413
a(S'had'
p3414
g12
F0.999
tp3415
a(S'enough'
p3416
g17
F0.4848
tp3417
asI244
(lp3418
(S'yeah'
p3419
g3
F0.9965
tp3420
a(S'mhm'
p3421
g3
F0.9647
tp3422
a(S'but'
p3423
g118
F0.9951
tp3424
a(S'um'
p3425
g3
F0.6589
tp3426
a(S'maybe'
p3427
g6
F0.9359
tp3428
a(S'that'
p3429
g20
F0.4841
tp3430
a(g478
g64
F0.3988
tp3431
a(S'part'
p3432
g71
F0.9874
tp3433
a(S'of'
p3434
g20
F0.9994
tp3435
a(S'the'
p3436
g36
F0.999
tp3437
a(S'program'
p3438
g71
F0.9983
tp3439
asI245
(lp3440
(S'you'
p3441
g9
F0.998
tp3442
a(S'have'
p3443
g12
F0.9994
tp3444
a(S'to'
p3445
g20
F0.9939
tp3446
a(S'shoot'
p3447
g12
F0.9885
tp3448
a(S'it'
p3449
g9
F0.9931
tp3450
a(S'out'
p3451
g858
F0.9374
tp3452
asI246
(lp3453
(S'honey'
p3454
g71
F0.849
tp3455
a(g59
g9
F0.9188
tp3456
a(S'tell'
p3457
g12
F0.9998
tp3458
a(S'you'
p3459
g9
F0.9992
tp3460
a(S'what'
p3461
g9
F0.8975
tp3462
asI247
(lp3463
(g59
g9
F0.8712
tp3464
a(S'haven'
p3465
g12
F0.8356
tp3466
a(g63
g64
F0.6175
tp3467
a(S'xxx'
p3468
g43
F0.4296
tp3469
a(S'eat'
p3470
g12
F0.9939
tp3471
a(S'any'
p3472
g36
F0.9248
tp3473
asI248
(lp3474
(S'what'
p3475
g9
F0.9931
tp3476
a(S'do'
p3477
g12
F0.9993
tp3478
a(S'you'
p3479
g9
F0.9994
tp3480
a(S'call'
p3481
g12
F0.998
tp3482
a(S'it'
p3483
g9
F0.9863
tp3484
asI249
(lp3485
(S'oats'
p3486
g71
F0.9426
tp3487
a(S'and'
p3488
g118
F0.9979
tp3489
a(S'bran'
p3490
g71
F0.9406
tp3491
a(S'cereal'
p3492
g71
F0.9966
tp3493
asI250
(lp3494
(S'oats'
p3495
g71
F0.9426
tp3496
a(S'and'
p3497
g118
F0.9979
tp3498
a(S'oats'
p3499
g71
F0.989
tp3500
a(S'and'
p3501
g118
F0.9978
tp3502
a(S'honey'
p3503
g71
F0.8651
tp3504
asI251
(lp3505
(S'somethin'
p3506
g71
F0.9612
tp3507
a(g1550
g64
F0.3256
tp3508
a(S'nut'
p3509
g71
F0.9303
tp3510
a(S'and'
p3511
g118
F0.9984
tp3512
a(S'honey'
p3513
g71
F0.8651
tp3514
asI252
(lp3515
(S'xxx'
p3516
g43
F0.8437
tp3517
asI253
(lp3518
(g59
g9
F0.9891
tp3519
a(S'ate'
p3520
g12
F0.9997
tp3521
a(S'some'
p3522
g36
F0.9058
tp3523
a(S'this'
p3524
g36
F0.9456
tp3525
a(S'morning'
p3526
g71
F0.9928
tp3527
asI254
(lp3528
(S'oh'
p3529
g3
F0.9873
tp3530
a(S'man'
p3531
g3
F0.9298
tp3532
a(S'what'
p3533
g9
F0.9963
tp3534
a(S'did'
p3535
g12
F0.9682
tp3536
a(g59
g9
F0.996
tp3537
a(S'do'
p3538
g12
F0.9999
tp3539
a(S'that'
p3540
g9
F0.8237
tp3541
a(S'for'
p3542
g20
F0.9914
tp3543
asI255
(lp3544
(S'nothing'
p3545
g71
F0.9678
tp3546
asI256
(lp3547
(S'auntie'
p3548
g71
F0.7084
tp3549
a(S'may'
p3550
g12
F0.9194
tp3551
a(S'xxx'
p3552
g43
F0.5188
tp3553
asI257
(lp3554
(S'mhm'
p3555
g3
F0.9747
tp3556
asI258
(lp3557
(S'can'
p3558
g12
F0.9755
tp3559
a(g59
g9
F0.987
tp3560
a(S'have'
p3561
g12
F0.9999
tp3562
a(S'some'
p3563
g36
F0.976
tp3564
a(S'more'
p3565
g17
F0.8167
tp3566
a(S'fried'
p3567
g17
F0.9918
tp3568
a(S'chicken'
p3569
g71
F0.9761
tp3570
a(S'whispering'
p3571
g12
F0.9896
tp3572
asI259
(lp3573
(S'why'
p3574
g6
F0.8931
tp3575
a(S'are'
p3576
g12
F0.9924
tp3577
a(S'you'
p3578
g9
F0.9997
tp3579
a(S'whispering'
p3580
g12
F0.9992
tp3581
asI260
(lp3582
(S'you'
p3583
g9
F0.9983
tp3584
a(S'know'
p3585
g12
F0.9997
tp3586
a(S'any'
p3587
g36
F0.975
tp3588
a(S'other'
p3589
g17
F0.9968
tp3590
a(S'time'
p3591
g71
F0.9956
tp3592
a(S'she'
p3593
g9
F0.9922
tp3594
a(S'got'
p3595
g12
F0.9996
tp3596
a(g84
g36
F0.9987
tp3597
a(S'big'
p3598
g17
F0.9855
tp3599
a(S'mouth'
p3600
g71
F0.9989
tp3601
asI261
(lp3602
(S'and'
p3603
g118
F0.9986
tp3604
a(S'auntie'
p3605
g71
F0.6869
tp3606
a(S'mabel'
p3607
g39
F0.817
tp3608
a(S'we'
p3609
g9
F0.9912
tp3610
a(S'went'
p3611
g12
F0.9991
tp3612
a(S'on'
p3613
g20
F0.942
tp3614
a(S'an'
p3615
g36
F0.9961
tp3616
a(S'airplane'
p3617
g71
F0.9913
tp3618
a(S'and'
p3619
g118
F0.9975
tp3620
a(S'we'
p3621
g9
F0.9987
tp3622
a(S'was'
p3623
g12
F0.9997
tp3624
a(S'on'
p3625
g20
F0.9264
tp3626
a(g84
g36
F0.953
tp3627
a(S'um'
p3628
g64
F0.2553
tp3629
a(S'on'
p3630
g20
F0.9823
tp3631
a(g84
g36
F0.9965
tp3632
a(S'ladybug'
p3633
g71
F0.9387
tp3634
a(S'and'
p3635
g118
F0.9987
tp3636
a(g59
g9
F0.9958
tp3637
a(S'was'
p3638
g12
F0.9998
tp3639
a(S'sliding'
p3640
g12
F0.9747
tp3641
a(S'on'
p3642
g20
F0.9491
tp3643
a(S'da'
p3644
g36
F0.7674
tp3645
a(S'the'
p3646
g36
F0.9907
tp3647
a(S'slide'
p3648
g71
F0.9733
tp3649
a(S'and'
p3650
g118
F0.9979
tp3651
a(g59
g9
F0.99
tp3652
a(S'cut'
p3653
g12
F0.9994
tp3654
a(S'myself'
p3655
g9
F0.9924
tp3656
a(S'on'
p3657
g20
F0.9817
tp3658
a(S'my'
p3659
g36
F0.9988
tp3660
a(S'face'
p3661
g71
F0.9951
tp3662
asI262
(lp3663
(S'you'
p3664
g9
F0.9984
tp3665
a(S'did'
p3666
g12
F0.9978
tp3667
asI263
(lp3668
(S'yes'
p3669
g3
F0.9836
tp3670
a(S'you'
p3671
g9
F0.9994
tp3672
a(S'did'
p3673
g12
F0.9987
tp3674
asI264
(lp3675
(S'yeah'
p3676
g3
F0.9978
tp3677
a(S'uhhuh'
p3678
g3
F0.9811
tp3679
a(S'she'
p3680
g9
F0.9973
tp3681
a(g478
g12
F0.5989
tp3682
a(S'talking'
p3683
g12
F0.9904
tp3684
a(g84
g36
F0.9895
tp3685
a(S'bout'
p3686
g71
F0.3346
tp3687
a(S'when'
p3688
g6
F0.9669
tp3689
a(S'she'
p3690
g9
F0.9947
tp3691
a(S'sliding'
p3692
g12
F0.9988
tp3693
a(S'on'
p3694
g20
F0.6232
tp3695
asI265
(lp3696
(S'mhm'
p3697
g3
F0.7644
tp3698
a(S'sliding'
p3699
g12
F0.9828
tp3700
a(S'on'
p3701
g20
F0.863
tp3702
a(S'that'
p3703
g9
F0.8928
tp3704
a(S'was'
p3705
g12
F0.9996
tp3706
a(g84
g36
F0.9993
tp3707
a(S'big'
p3708
g17
F0.9599
tp3709
a(S'slide'
p3710
g71
F0.9642
tp3711
a(S'huh'
p3712
g3
F0.9304
tp3713
asI266
(lp3714
(S'it'
p3715
g9
F0.9956
tp3716
a(S'was'
p3717
g12
F0.9997
tp3718
a(g84
g36
F0.9993
tp3719
a(S'big'
p3720
g17
F0.9463
tp3721
a(S'slide'
p3722
g71
F0.974
tp3723
a(S'found'
p3724
g12
F0.9981
tp3725
a(S'out'
p3726
g858
F0.6993
tp3727
a(S'it'
p3728
g9
F0.9985
tp3729
a(S'was'
p3730
g12
F0.9996
tp3731
a(S'to'
p3732
g20
F0.7706
tp3733
a(S'big'
p3734
g17
F0.6494
tp3735
a(S'for'
p3736
g20
F0.9998
tp3737
a(S'you'
p3738
g9
F0.9985
tp3739
a(S'huh'
p3740
g3
F0.6201
tp3741
a(S'salina'
p3742
g39
F0.9252
tp3743
asI267
(lp3744
(S'yeah'
p3745
g3
F0.9988
tp3746
asI268
(lp3747
(S'and'
p3748
g118
F0.9979
tp3749
a(S'heavy'
p3750
g17
F0.9246
tp3751
a(S'headed'
p3752
g12
F0.7999
tp3753
a(S'too'
p3754
g6
F0.9714
tp3755
asI269
(lp3756
(S'but'
p3757
g118
F0.9962
tp3758
a(S'it'
p3759
g9
F0.9988
tp3760
a(S'was'
p3761
g12
F0.999
tp3762
a(S'too'
p3763
g6
F0.9954
tp3764
a(S'xxx'
p3765
g43
F0.787
tp3766
asI270
(lp3767
(S'yep'
p3768
g3
F0.9926
tp3769
a(S'but'
p3770
g118
F0.9924
tp3771
a(S'he'
p3772
g9
F0.9971
tp3773
a(S'came'
p3774
g12
F0.9994
tp3775
a(S'down'
p3776
g858
F0.739
tp3777
a(S'slidin'
p3778
g12
F0.5156
tp3779
a(g1550
g12
F0.5524
tp3780
a(S'to'
p3781
g20
F0.9979
tp3782
a(S'the'
p3783
g36
F0.9768
tp3784
a(S'left'
p3785
g17
F0.472
tp3786
a(S'too'
p3787
g6
F0.9409
tp3788
asI271
(lp3789
(S'he'
p3790
g9
F0.9905
tp3791
a(g478
g12
F0.8639
tp3792
a(S'in'
p3793
g20
F0.8827
tp3794
a(S'new'
p3795
g17
F0.9618
tp3796
a(S'york'
p3797
g71
F0.618
tp3798
a(S'gettin'
p3799
g12
F0.9418
tp3800
a(g1550
g71
F0.2921
tp3801
a(S'beat'
p3802
g12
F0.9955
tp3803
a(S'up'
p3804
g858
F0.9745
tp3805
asI272
(lp3806
(g59
g9
F0.953
tp3807
a(g1059
g12
F0.9871
tp3808
a(S'scared'
p3809
g17
F0.9167
tp3810
a(S'to'
p3811
g20
F0.9953
tp3812
a(S'go'
p3813
g12
F0.9993
tp3814
a(S'back'
p3815
g6
F0.978
tp3816
a(S'down'
p3817
g6
F0.5418
tp3818
a(S'there'
p3819
g6
F0.8882
tp3820
asI273
(lp3821
(S'where'
p3822
g6
F0.9222
tp3823
a(g1018
g6
F0.4835
tp3824
a(S'all'
p3825
g36
F0.8049
tp3826
a(g1022
g36
F0.468
tp3827
a(S'people'
p3828
g71
F0.9982
tp3829
a(g478
g64
F0.6768
tp3830
a(S'and'
p3831
g118
F0.9982
tp3832
a(S'gwen'
p3833
g39
F0.9912
tp3834
a(S'and'
p3835
g118
F0.9981
tp3836
a(S'xxx'
p3837
g43
F0.3491
tp3838
a(S'and'
p3839
g118
F0.9983
tp3840
a(g1018
g6
F0.7218
tp3841
a(S'all'
p3842
g36
F0.8046
tp3843
a(g1022
g71
F0.3057
tp3844
a(S'eat'
p3845
g12
F0.9741
tp3846
a(S'and'
p3847
g118
F0.9961
tp3848
asI274
(lp3849
(S'everybody'
p3850
g71
F0.7713
tp3851
a(S'was'
p3852
g12
F0.9962
tp3853
a(S'laughing'
p3854
g12
F0.9495
tp3855
a(S'at'
p3856
g20
F0.9983
tp3857
a(S'me'
p3858
g9
F0.9985
tp3859
asI275
(lp3860
(S'mhm'
p3861
g3
F0.9747
tp3862
asI276
(lp3863
(S'after'
p3864
g20
F0.9782
tp3865
a(S'this'
p3866
g9
F0.9044
tp3867
a(g1018
g6
F0.5907
tp3868
a(S'all'
p3869
g36
F0.7971
tp3870
a(g1022
g39
F0.3187
tp3871
a(S'can'
p3872
g12
F0.9524
tp3873
a(S'and'
p3874
g118
F0.9969
tp3875
a(S'sit'
p3876
g12
F0.9947
tp3877
a(S'down'
p3878
g858
F0.8936
tp3879
a(g84
g36
F0.8033
tp3880
a(S'while'
p3881
g71
F0.6129
tp3882
a(S'maybe'
p3883
g6
F0.9905
tp3884
a(S'later'
p3885
g6
F0.9027
tp3886
a(S'on'
p3887
g20
F0.97
tp3888
a(S'after'
p3889
g20
F0.8384
tp3890
a(g59
g9
F0.9987
tp3891
a(S'take'
p3892
g12
F1.0
tp3893
a(S'my'
p3894
g36
F0.9985
tp3895
a(S'bath'
p3896
g71
F0.9993
tp3897
asI277
(lp3898
(S'auntie'
p3899
g71
F0.557
tp3900
a(S'mabel'
p3901
g39
F0.8564
tp3902
a(S'everybody'
p3903
g71
F0.9671
tp3904
asI278
(lp3905
(S'about'
p3906
g20
F0.9957
tp3907
a(S'the'
p3908
g36
F0.9993
tp3909
a(S'cat'
p3910
g71
F0.8656
tp3911
asI279
(lp3912
(S'the'
p3913
g36
F0.9985
tp3914
a(S'cat'
p3915
g71
F0.9023
tp3916
a(S'inside'
p3917
g20
F0.9894
tp3918
a(S'the'
p3919
g36
F0.999
tp3920
a(S'red'
p3921
g17
F0.972
tp3922
a(S'book'
p3923
g71
F0.9941
tp3924
asI280
(lp3925
(S'yeah'
p3926
g3
F0.9988
tp3927
asI281
(lp3928
(g59
g9
F0.9793
tp3929
a(S'll'
p3930
g12
F0.7573
tp3931
a(S'read'
p3932
g12
F0.9987
tp3933
a(S'the'
p3934
g36
F0.9988
tp3935
a(S'story'
p3936
g71
F0.9974
tp3937
a(S'about'
p3938
g20
F0.9992
tp3939
a(S'the'
p3940
g36
F0.9994
tp3941
a(S'cat'
p3942
g71
F0.8221
tp3943
a(S'before'
p3944
g20
F0.9941
tp3945
a(S'you'
p3946
g9
F0.9953
tp3947
a(S'two'
p3948
g209
F0.5684
tp3949
a(S'go'
p3950
g12
F0.9266
tp3951
a(S'to'
p3952
g20
F0.9803
tp3953
a(S'bed'
p3954
g71
F0.6568
tp3955
a(S'okay'
p3956
g3
F0.8731
tp3957
asI282
(lp3958
(S'auntie'
p3959
g71
F0.557
tp3960
a(S'mabel'
p3961
g39
F0.7904
tp3962
asI283
(lp3963
(S'xxx'
p3964
g43
F0.8437
tp3965
asI284
(lp3966
(S'um'
p3967
g3
F0.9379
tp3968
a(S'um'
p3969
g3
F0.9395
tp3970
a(S'are'
p3971
g12
F0.9942
tp3972
a(S'we'
p3973
g9
F0.9981
tp3974
asI285
(lp3975
(S'whatchu'
p3976
g465
F0.7303
tp3977
a(S'what'
p3978
g9
F0.9954
tp3979
a(S'do'
p3980
g12
F0.9993
tp3981
a(S'you'
p3982
g9
F0.9996
tp3983
a(S'want'
p3984
g12
F0.9994
tp3985
asI286
(lp3986
(S'and'
p3987
g118
F0.9986
tp3988
a(S'what'
p3989
g9
F0.9857
tp3990
a(S'april'
p3991
g71
F0.3818
tp3992
asI287
(lp3993
(S'dog'
p3994
g71
F0.9772
tp3995
asI288
(lp3996
(S'and'
p3997
g118
F0.9976
tp3998
a(S'the'
p3999
g36
F0.9986
tp4000
a(S'dog'
p4001
g71
F0.9992
tp4002
asI289
(lp4003
(S'you'
p4004
g9
F0.9754
tp4005
a(S're'
p4006
g12
F0.5754
tp4007
a(S'member'
p4008
g71
F0.9657
tp4009
a(S'that'
p4010
g20
F0.6903
tp4011
a(S'story'
p4012
g71
F0.9659
tp4013
a(S'about'
p4014
g20
F0.9993
tp4015
a(S'the'
p4016
g36
F0.9995
tp4017
a(S'dog'
p4018
g71
F0.9986
tp4019
asI290
(lp4020
(S'what'
p4021
g9
F0.988
tp4022
a(S'happened'
p4023
g12
F0.9982
tp4024
a(S'in'
p4025
g20
F0.9524
tp4026
a(S'the'
p4027
g36
F0.999
tp4028
a(S'story'
p4029
g71
F0.9982
tp4030
a(g84
g36
F0.9057
tp4031
a(S'bout'
p4032
g20
F0.8837
tp4033
a(S'the'
p4034
g36
F0.9992
tp4035
a(S'cat'
p4036
g71
F0.6875
tp4037
a(S'and'
p4038
g118
F0.9915
tp4039
a(S'the'
p4040
g36
F0.9989
tp4041
a(S'dog'
p4042
g71
F0.9988
tp4043
a(S'tell'
p4044
g12
F0.9487
tp4045
a(S'gwen'
p4046
g39
F0.9439
tp4047
a(g84
g36
F0.9484
tp4048
a(S'bout'
p4049
g71
F0.4618
tp4050
a(S'that'
p4051
g20
F0.5058
tp4052
a(S'story'
p4053
g71
F0.9918
tp4054
asI291
(lp4055
(S'come'
p4056
g12
F0.9897
tp4057
a(S'on'
p4058
g20
F0.9533
tp4059
a(S'you'
p4060
g9
F0.9993
tp4061
a(S'love'
p4062
g12
F0.9821
tp4063
a(S'to'
p4064
g20
F0.9875
tp4065
a(S'talk'
p4066
g12
F0.9901
tp4067
a(S'talk'
p4068
g12
F0.8064
tp4069
asI292
(lp4070
(S'tell'
p4071
g12
F0.9944
tp4072
a(S'me'
p4073
g9
F0.9994
tp4074
a(S'about'
p4075
g20
F0.955
tp4076
a(S'it'
p4077
g9
F0.9988
tp4078
asI293
(lp4079
(S'tell'
p4080
g12
F0.9944
tp4081
a(S'me'
p4082
g9
F0.9994
tp4083
a(S'about'
p4084
g20
F0.9049
tp4085
a(S'what'
p4086
g9
F0.9969
tp4087
a(S'happened'
p4088
g12
F0.9981
tp4089
a(S'to'
p4090
g20
F0.9968
tp4091
a(S'the'
p4092
g36
F0.9992
tp4093
a(S'dog'
p4094
g71
F0.9979
tp4095
a(S'and'
p4096
g118
F0.9915
tp4097
a(S'the'
p4098
g36
F0.9989
tp4099
a(S'cat'
p4100
g71
F0.8515
tp4101
a(S'in'
p4102
g20
F0.9991
tp4103
a(S'the'
p4104
g36
F0.9991
tp4105
a(S'book'
p4106
g71
F0.9875
tp4107
asI294
(lp4108
(S'tell'
p4109
g12
F0.9944
tp4110
a(S'me'
p4111
g9
F0.9993
tp4112
a(S'so'
p4113
g6
F0.8655
tp4114
a(g59
g9
F0.9918
tp4115
a(S'know'
p4116
g12
F0.9993
tp4117
asI295
(lp4118
(g59
g9
F0.9708
tp4119
a(S'like'
p4120
g12
F0.94
tp4121
a(S'to'
p4122
g20
F0.984
tp4123
a(S'hear'
p4124
g12
F0.9617
tp4125
a(S'stories'
p4126
g71
F0.9909
tp4127
a(S'too'
p4128
g6
F0.9292
tp4129
asI296
(lp4130
(S'do'
p4131
g12
F0.9985
tp4132
a(S'you'
p4133
g9
F0.9997
tp4134
a(S'know'
p4135
g12
F0.9988
tp4136
a(S'how'
p4137
g6
F0.9937
tp4138
a(S'to'
p4139
g20
F0.9942
tp4140
a(S'read'
p4141
g12
F0.9997
tp4142
a(S'the'
p4143
g36
F0.9987
tp4144
a(S'book'
p4145
g71
F0.989
tp4146
a(S'yet'
p4147
g6
F0.9527
tp4148
asI297
(lp4149
(g59
g9
F0.9891
tp4150
a(S'saw'
p4151
g12
F0.9999
tp4152
a(S'this'
p4153
g36
F0.8638
tp4154
a(S'nice'
p4155
g17
F0.9979
tp4156
a(S'thing'
p4157
g71
F0.9961
tp4158
a(S'that'
p4159
g20
F0.9455
tp4160
a(S'gregory'
p4161
g39
F0.9951
tp4162
a(S'had'
p4163
g12
F0.984
tp4164
a(S'would'
p4165
g12
F0.9901
tp4166
a(S'just'
p4167
g6
F0.9997
tp4168
a(S'perfect'
p4169
g17
F0.9956
tp4170
a(S'for'
p4171
g20
F0.9998
tp4172
a(S'you'
p4173
g9
F0.9988
tp4174
a(S'all'
p4175
g36
F0.8584
tp4176
a(S'but'
p4177
g118
F0.9944
tp4178
a(S'it'
p4179
g9
F0.9987
tp4180
a(S'need'
p4181
g12
F0.9976
tp4182
a(S'to'
p4183
g20
F0.9721
tp4184
a(S'be'
p4185
g12
F0.999
tp4186
a(S'laid'
p4187
g12
F0.9707
tp4188
a(S'away'
p4189
g6
F0.989
tp4190
a(S'now'
p4191
g6
F0.9981
tp4192
a(S'because'
p4193
g20
F0.9968
tp4194
a(S'it'
p4195
g9
F0.9984
tp4196
a(g478
g12
F0.7561
tp4197
a(S'like'
p4198
g20
F0.9011
tp4199
a(g84
g36
F0.8361
tp4200
a(S'it'
p4201
g9
F0.9925
tp4202
a(S'comes'
p4203
g12
F0.9999
tp4204
a(S'up'
p4205
g858
F0.962
tp4206
a(S'you'
p4207
g9
F0.9985
tp4208
a(S'carry'
p4209
g12
F0.9997
tp4210
a(S'it'
p4211
g9
F0.9822
tp4212
a(S'in'
p4213
g20
F0.9073
tp4214
a(g84
g36
F0.9955
tp4215
a(S'case'
p4216
g71
F0.9957
tp4217
a(S'and'
p4218
g118
F0.998
tp4219
a(S'when'
p4220
g6
F0.9802
tp4221
a(S'it'
p4222
g9
F0.9955
tp4223
a(S'opens'
p4224
g12
F0.9998
tp4225
a(S'up'
p4226
g858
F0.891
tp4227
a(S'it'
p4228
g9
F0.9928
tp4229
a(g478
g12
F0.7561
tp4230
a(S'like'
p4231
g20
F0.9011
tp4232
a(g84
g36
F0.9947
tp4233
a(S'computer'
p4234
g71
F0.9979
tp4235
a(S'screen'
p4236
g71
F0.7579
tp4237
asI298
(lp4238
(S'mhm'
p4239
g3
F0.9747
tp4240
asI299
(lp4241
(S'the'
p4242
g36
F0.9991
tp4243
a(S'buttons'
p4244
g71
F0.9878
tp4245
a(S'you'
p4246
g9
F0.9951
tp4247
a(S'push'
p4248
g12
F0.9707
tp4249
a(S'got'
p4250
g12
F0.9772
tp4251
a(S'buttons'
p4252
g71
F0.9763
tp4253
a(S'on'
p4254
g20
F0.9959
tp4255
a(S'got'
p4256
g12
F0.8525
tp4257
a(S'keys'
p4258
g71
F0.975
tp4259
a(S'on'
p4260
g20
F0.9984
tp4261
a(S'it'
p4262
g9
F0.9982
tp4263
a(S'like'
p4264
g20
F0.7692
tp4265
a(g84
g36
F0.9949
tp4266
a(S'computer'
p4267
g71
F0.9986
tp4268
a(S'has'
p4269
g12
F0.9916
tp4270
asI300
(lp4271
(S'mhm'
p4272
g3
F0.9747
tp4273
asI301
(lp4274
(S'you'
p4275
g9
F0.9963
tp4276
a(S'push'
p4277
g12
F0.9847
tp4278
a(S'one'
p4279
g209
F0.8671
tp4280
a(S'and'
p4281
g118
F0.9984
tp4282
a(S'it'
p4283
g9
F0.9948
tp4284
a(S'returns'
p4285
g12
F0.9687
tp4286
a(S'and'
p4287
g118
F0.9979
tp4288
a(S'you'
p4289
g9
F0.9991
tp4290
a(S'll'
p4291
g12
F0.5488
tp4292
a(S'get'
p4293
g12
F0.9991
tp4294
a(S'like'
p4295
g20
F0.837
tp4296
a(S'you'
p4297
g9
F0.9998
tp4298
a(S'can'
p4299
g12
F0.9997
tp4300
a(S'make'
p4301
g12
F0.9948
tp4302
a(S'music'
p4303
g71
F0.9974
tp4304
asI302
(lp4305
(S'and'
p4306
g118
F0.9986
tp4307
a(S'when'
p4308
g6
F0.9849
tp4309
a(S'you'
p4310
g9
F0.9993
tp4311
a(S'made'
p4312
g12
F0.9997
tp4313
a(S'the'
p4314
g36
F0.9993
tp4315
a(S'music'
p4316
g71
F0.9972
tp4317
a(S'it'
p4318
g9
F0.9748
tp4319
a(S'will'
p4320
g12
F0.9984
tp4321
a(S'play'
p4322
g12
F0.9986
tp4323
a(S'back'
p4324
g6
F0.7692
tp4325
a(S'just'
p4326
g6
F0.998
tp4327
a(S'what'
p4328
g9
F0.925
tp4329
a(S'you'
p4330
g9
F0.9992
tp4331
a(S'put'
p4332
g12
F0.9948
tp4333
a(S'in'
p4334
g858
F0.5164
tp4335
asI303
(lp4336
(S'then'
p4337
g6
F0.9477
tp4338
a(S'it'
p4339
g9
F0.9981
tp4340
a(S'got'
p4341
g12
F0.9965
tp4342
a(S'one'
p4343
g209
F0.8809
tp4344
a(S'where'
p4345
g6
F0.9632
tp4346
a(S'it'
p4347
g9
F0.9978
tp4348
a(S'has'
p4349
g12
F0.9988
tp4350
a(S'got'
p4351
g12
F0.9836
tp4352
a(S'math'
p4353
g71
F0.9817
tp4354
a(S'in'
p4355
g20
F0.9984
tp4356
a(S'it'
p4357
g9
F0.9957
tp4358
asI304
(lp4359
(S'it'
p4360
g9
F0.996
tp4361
a(S'has'
p4362
g12
F0.9986
tp4363
a(S'got'
p4364
g12
F0.9813
tp4365
a(S'letters'
p4366
g71
F0.9815
tp4367
asI305
(lp4368
(S'mhm'
p4369
g3
F0.9747
tp4370
asI306
(lp4371
(S'and'
p4372
g118
F0.9994
tp4373
a(S'it'
p4374
g9
F0.9983
tp4375
a(S'has'
p4376
g12
F0.9988
tp4377
a(S'got'
p4378
g12
F0.9726
tp4379
a(S'sounds'
p4380
g12
F0.9218
tp4381
asI307
(lp4382
(S'you'
p4383
g9
F0.9966
tp4384
a(S'make'
p4385
g12
F0.9977
tp4386
a(S'certain'
p4387
g17
F0.9587
tp4388
a(S'sounds'
p4389
g71
F0.7614
tp4390
a(S'and'
p4391
g118
F0.9974
tp4392
a(S'it'
p4393
g9
F0.9973
tp4394
a(S'picks'
p4395
g12
F0.9992
tp4396
a(S'it'
p4397
g9
F0.992
tp4398
a(S'up'
p4399
g858
F0.98
tp4400
asI308
(lp4401
(S'mhm'
p4402
g3
F0.9747
tp4403
asI309
(lp4404
(S'it'
p4405
g9
F0.9888
tp4406
a(g478
g12
F0.7285
tp4407
a(g84
g36
F0.943
tp4408
a(S'really'
p4409
g6
F0.9991
tp4410
a(S'nice'
p4411
g17
F0.9994
tp4412
a(S'thing'
p4413
g71
F0.9979
tp4414
asI310
(lp4415
(S'but'
p4416
g118
F0.9889
tp4417
a(S'that'
p4418
g9
F0.7104
tp4419
a(S'sounds'
p4420
g12
F0.9491
tp4421
a(S'xxx'
p4422
g43
F0.8676
tp4423
asI311
(lp4424
(S'it'
p4425
g9
F0.9888
tp4426
a(g478
g12
F0.5381
tp4427
a(S'one'
p4428
g209
F0.9672
tp4429
a(S'of'
p4430
g20
F0.9991
tp4431
a(S'those'
p4432
g36
F0.7806
tp4433
a(S'texas'
p4434
g39
F0.9924
tp4435
a(S'instrument'
p4436
g71
F0.9645
tp4437
a(S'toys'
p4438
g71
F0.9934
tp4439
asI312
(lp4440
(S'oh'
p4441
g3
F0.9957
tp4442
a(S'well'
p4443
g3
F0.9612
tp4444
a(S'xxx'
p4445
g43
F0.5813
tp4446
a(S'texas'
p4447
g39
F0.9847
tp4448
a(S'instrument'
p4449
g71
F0.9754
tp4450
a(S'xxx'
p4451
g43
F0.8154
tp4452
a(S'huh'
p4453
g3
F0.9433
tp4454
asI313
(lp4455
(S'it'
p4456
g9
F0.9888
tp4457
a(g478
g12
F0.4876
tp4458
a(S'really'
p4459
g6
F0.9995
tp4460
a(S'nice'
p4461
g17
F0.9987
tp4462
asI314
(lp4463
(g59
g9
F0.989
tp4464
a(S'think'
p4465
g12
F0.9996
tp4466
a(S'mandi'
p4467
g39
F0.9213
tp4468
a(S'said'
p4469
g12
F0.9917
tp4470
a(S'she'
p4471
g9
F0.9982
tp4472
a(S'paid'
p4473
g12
F0.9789
tp4474
a(S'seventy'
p4475
g17
F0.7464
tp4476
a(S'nine'
p4477
g209
F0.3825
tp4478
a(S'dollars'
p4479
g71
F0.9948
tp4480
a(S'for'
p4481
g20
F0.9999
tp4482
a(S'it'
p4483
g9
F0.9978
tp4484
asI315
(lp4485
(S'mhm'
p4486
g3
F0.9747
tp4487
asI316
(lp4488
(S'but'
p4489
g118
F0.9962
tp4490
a(S'it'
p4491
g9
F0.9972
tp4492
a(g478
g12
F0.4496
tp4493
a(S'real'
p4494
g6
F0.4947
tp4495
a(S'nice'
p4496
g17
F0.9989
tp4497
asI317
(lp4498
(S'xxx'
p4499
g43
F0.7701
tp4500
a(S'he'
p4501
g9
F0.9954
tp4502
a(S'has'
p4503
g12
F0.9999
tp4504
a(S'the'
p4505
g36
F0.9995
tp4506
a(S'time'
p4507
g71
F0.9986
tp4508
a(S'to'
p4509
g20
F0.9956
tp4510
a(S'go'
p4511
g12
F0.9993
tp4512
a(S'in'
p4513
g20
F0.7783
tp4514
a(S'and'
p4515
g118
F0.9968
tp4516
a(S'find'
p4517
g12
F0.9992
tp4518
a(S'it'
p4519
g9
F0.9852
tp4520
a(S'and'
p4521
g118
F0.9941
tp4522
a(S'put'
p4523
g12
F0.9677
tp4524
a(S'in'
p4525
g858
F0.6955
tp4526
a(S'on'
p4527
g20
F0.9126
tp4528
a(S'xxx'
p4529
g43
F0.5349
tp4530
asI318
(lp4531
(S'xxx'
p4532
g43
F0.4545
tp4533
a(S'around'
p4534
g20
F0.8286
tp4535
a(S'christmas'
p4536
g39
F0.9474
tp4537
a(S'time'
p4538
g71
F0.9707
tp4539
a(S'things'
p4540
g71
F0.9887
tp4541
a(S'don'
p4542
g12
F0.5858
tp4543
a(g63
g71
F0.2374
tp4544
a(S'go'
p4545
g12
F0.9709
tp4546
a(S'xxx'
p4547
g43
F0.5746
tp4548
asI319
(lp4549
(S'and'
p4550
g118
F0.999
tp4551
a(g59
g9
F0.996
tp4552
a(S'was'
p4553
g12
F0.9998
tp4554
a(S'havin'
p4555
g12
F0.5295
tp4556
a(g1550
g12
F0.3015
tp4557
a(S'problems'
p4558
g71
F0.9704
tp4559
asI320
(lp4560
(g59
g9
F0.9914
tp4561
a(S'was'
p4562
g12
F0.9999
tp4563
a(S'havin'
p4564
g12
F0.6809
tp4565
a(g1550
g12
F0.2228
tp4566
a(S'problems'
p4567
g71
F0.9543
tp4568
a(S'with'
p4569
g20
F0.9998
tp4570
a(S'it'
p4571
g9
F0.9953
tp4572
a(S'myself'
p4573
g9
F0.9804
tp4574
asI321
(lp4575
(S'and'
p4576
g118
F0.9986
tp4577
a(S'when'
p4578
g6
F0.9849
tp4579
a(S'you'
p4580
g9
F0.9993
tp4581
a(S'do'
p4582
g12
F0.9998
tp4583
a(S'they'
p4584
g9
F0.9964
tp4585
a(S'have'
p4586
g12
F1.0
tp4587
a(S'you'
p4588
g9
F0.9952
tp4589
a(S'wr'
p4590
g12
F0.848
tp4591
a(S'you'
p4592
g9
F0.9973
tp4593
a(S'spell'
p4594
g12
F0.9871
tp4595
a(S'somethin'
p4596
g71
F0.9608
tp4597
a(g1550
g12
F0.4707
tp4598
a(S'wrong'
p4599
g17
F0.9511
tp4600
a(S'or'
p4601
g118
F0.99
tp4602
a(S'you'
p4603
g9
F0.9995
tp4604
a(S'have'
p4605
g12
F0.9998
tp4606
a(S'the'
p4607
g36
F0.9986
tp4608
a(S'wrong'
p4609
g17
F0.9802
tp4610
a(S'number'
p4611
g71
F0.9942
tp4612
a(S'they'
p4613
g9
F0.9405
tp4614
a(S'xxx'
p4615
g12
F0.7995
tp4616
a(S'they'
p4617
g9
F0.9895
tp4618
a(S'teach'
p4619
g12
F0.9999
tp4620
a(S'you'
p4621
g9
F0.9311
tp4622
a(S'letters'
p4623
g12
F0.5612
tp4624
a(S'first'
p4625
g6
F0.5196
tp4626
asI322
(lp4627
(S'then'
p4628
g6
F0.9477
tp4629
a(S'it'
p4630
g9
F0.9972
tp4631
a(S'goes'
p4632
g12
F0.9987
tp4633
a(S'from'
p4634
g20
F0.997
tp4635
a(S'the'
p4636
g36
F0.9993
tp4637
a(S'letters'
p4638
g71
F0.9943
tp4639
a(S'to'
p4640
g20
F0.9992
tp4641
a(S'your'
p4642
g36
F0.99
tp4643
a(S'numbers'
p4644
g71
F0.9974
tp4645
a(S'and'
p4646
g118
F0.997
tp4647
a(S'teach'
p4648
g12
F0.999
tp4649
a(S'you'
p4650
g9
F0.9985
tp4651
a(S'how'
p4652
g6
F0.9975
tp4653
a(S'to'
p4654
g20
F0.9958
tp4655
a(g478
g12
F0.5611
tp4656
a(S'recognize'
p4657
g12
F0.967
tp4658
a(S'th'
p4659
g12
F0.2393
tp4660
a(S'em'
p4661
g9
F0.9794
tp4662
a(S'when'
p4663
g6
F0.9942
tp4664
a(S'you'
p4665
g9
F0.9986
tp4666
a(S'see'
p4667
g12
F0.9998
tp4668
a(S'it'
p4669
g9
F0.9529
tp4670
a(S'and'
p4671
g118
F0.9941
tp4672
a(S'you'
p4673
g9
F0.9992
tp4674
a(S'push'
p4675
g12
F0.9698
tp4676
a(S'th'
p4677
g12
F0.3188
tp4678
a(S'em'
p4679
g9
F0.9767
tp4680
asI323
(lp4681
(S'mhm'
p4682
g3
F0.9747
tp4683
asI324
(lp4684
(g59
g9
F0.9143
tp4685
a(g1022
g12
F0.7604
tp4686
a(S'ask'
p4687
g12
F0.9983
tp4688
a(S'you'
p4689
g9
F0.9997
tp4690
a(S'is'
p4691
g12
F0.9999
tp4692
a(S'this'
p4693
g9
F0.7058
tp4694
a(g84
g36
F0.8806
tp4695
a(S'e'
p4696
g71
F0.4221
tp4697
a(S'l'
p4698
g71
F0.5837
tp4699
a(S'and'
p4700
g118
F0.9972
tp4701
a(S'you'
p4702
g9
F0.9976
tp4703
a(g1022
g12
F0.5927
tp4704
a(S'say'
p4705
g12
F0.9505
tp4706
a(S'yes'
p4707
g3
F0.9731
tp4708
a(S'q'
p4709
g64
F0.405
tp4710
asI325
(lp4711
(S'if'
p4712
g20
F0.9977
tp4713
a(S'you'
p4714
g9
F0.9998
tp4715
a(S'say'
p4716
g12
F0.9957
tp4717
a(S'yes'
p4718
g3
F0.9729
tp4719
a(g4709
g71
F0.384
tp4720
a(S'and'
p4721
g118
F0.9986
tp4722
a(S'it'
p4723
g9
F0.9971
tp4724
a(g478
g12
F0.6997
tp4725
a(S'wrong'
p4726
g17
F0.8927
tp4727
a(S'they'
p4728
g9
F0.9813
tp4729
a(S'say'
p4730
g12
F0.9997
tp4731
a(S'you'
p4732
g9
F0.9984
tp4733
a(S'are'
p4734
g12
F0.9972
tp4735
a(S'wr'
p4736
g64
F0.303
tp4737
a(S'wrong'
p4738
g17
F0.9439
tp4739
asI326
(lp4740
(S'this'
p4741
g9
F0.9526
tp4742
a(S'is'
p4743
g12
F0.9966
tp4744
a(S'not'
p4745
g6
F0.9966
tp4746
a(S'an'
p4747
g36
F0.8865
tp4748
a(g4696
g71
F0.4678
tp4749
a(g4698
g64
F0.4022
tp4750
a(S'this'
p4751
g9
F0.9701
tp4752
a(S'is'
p4753
g12
F0.999
tp4754
a(S'an'
p4755
g36
F0.7938
tp4756
a(g84
g36
F0.7381
tp4757
a(g4698
g71
F0.8638
tp4758
asI327
(lp4759
(S'even'
p4760
g6
F0.9915
tp4761
a(S'if'
p4762
g20
F0.9955
tp4763
a(S'it'
p4764
g9
F0.9979
tp4765
a(S'isn'
p4766
g20
F0.3494
tp4767
a(g63
g64
F0.6174
tp4768
asI328
(lp4769
(S'it'
p4770
g9
F0.9888
tp4771
a(g478
g12
F0.7285
tp4772
a(g84
g36
F0.943
tp4773
a(S'really'
p4774
g6
F0.9991
tp4775
a(S'nice'
p4776
g17
F0.9993
tp4777
a(S'toy'
p4778
g71
F0.9861
tp4779
asI329
(lp4780
(S'wow'
p4781
g3
F0.9948
tp4782
a(S'that'
p4783
g9
F0.6249
tp4784
a(S'sounds'
p4785
g12
F0.9919
tp4786
a(S'like'
p4787
g20
F0.968
tp4788
a(g84
g36
F0.9909
tp4789
a(S'nice'
p4790
g17
F0.996
tp4791
a(S'toy'
p4792
g71
F0.9836
tp4793
asI330
(lp4794
(S'it'
p4795
g9
F0.9888
tp4796
a(g478
g12
F0.7285
tp4797
a(g84
g36
F0.9931
tp4798
a(S'nice'
p4799
g17
F0.9995
tp4800
a(S'one'
p4801
g209
F0.8589
tp4802
asI331
(lp4803
(S'well'
p4804
g3
F0.8994
tp4805
a(S'we'
p4806
g9
F0.9993
tp4807
a(S'gonna'
p4808
g12
F0.9991
tp4809
a(S'xxx'
p4810
g43
F0.6716
tp4811
asI332
(lp4812
(S'yeah'
p4813
g3
F0.99
tp4814
a(S'be'
p4815
g12
F0.9754
tp4816
a(S'cause'
p4817
g20
F0.8364
tp4818
a(S'that'
p4819
g9
F0.5481
tp4820
a(g478
g64
F0.4941
tp4821
a(S'why'
p4822
g6
F0.915
tp4823
a(S'she'
p4824
g9
F0.9989
tp4825
a(S'says'
p4826
g12
F0.9996
tp4827
a(S'she'
p4828
g9
F0.9989
tp4829
a(S'got'
p4830
g12
F0.9999
tp4831
a(S'it'
p4832
g9
F0.9877
tp4833
asI333
(lp4834
(S'xxx'
p4835
g43
F0.769
tp4836
a(S'uhhuh'
p4837
g3
F0.961
tp4838
asI334
(lp4839
(S'they'
p4840
g9
F0.9926
tp4841
a(S'have'
p4842
g12
F0.9998
tp4843
a(S'some'
p4844
g36
F0.9893
tp4845
a(S'nice'
p4846
g17
F0.9993
tp4847
a(S'ones'
p4848
g71
F0.955
tp4849
asI335
(lp4850
(S'that'
p4851
g9
F0.473
tp4852
a(g478
g64
F0.4404
tp4853
a(S'what'
p4854
g9
F0.9606
tp4855
a(S'they'
p4856
g9
F0.9872
tp4857
a(S'all'
p4858
g36
F0.4548
tp4859
a(S'need'
p4860
g12
F0.6594
tp4861
asI336
(lp4862
(S'stuff'
p4863
g71
F0.944
tp4864
a(S'like'
p4865
g20
F0.9004
tp4866
a(S'that'
p4867
g9
F0.9474
tp4868
asI337
(lp4869
(S'something'
p4870
g71
F0.9584
tp4871
a(S'that'
p4872
g20
F0.8939
tp4873
a(g478
g64
F0.3983
tp4874
a(S'learning'
p4875
g12
F0.9715
tp4876
a(S'uhhuh'
p4877
g3
F0.9349
tp4878
asI338
(lp4879
(S'be'
p4880
g12
F0.9727
tp4881
a(S'cause'
p4882
g20
F0.9443
tp4883
a(S'you'
p4884
g9
F0.999
tp4885
a(S'don'
p4886
g12
F0.8611
tp4887
a(g63
g20
F0.2528
tp4888
a(S'play'
p4889
g12
F0.9837
tp4890
a(S'with'
p4891
g20
F0.9994
tp4892
a(S'the'
p4893
g36
F0.9995
tp4894
a(S'babies'
p4895
g71
F0.9979
tp4896
a(S'anyway'
p4897
g6
F0.9896
tp4898
asI339
(lp4899
(S'you'
p4900
g9
F0.9979
tp4901
a(S'do'
p4902
g12
F1.0
tp4903
a(S'them'
p4904
g9
F0.9605
tp4905
a(g84
g36
F0.9782
tp4906
a(S'xxx'
p4907
g43
F0.5231
tp4908
asI340
(lp4909
(S'you'
p4910
g9
F0.998
tp4911
a(S'got'
p4912
g12
F0.999
tp4913
a(S'enough'
p4914
g17
F0.8797
tp4915
a(S'babies'
p4916
g71
F0.9946
tp4917
a(S'to'
p4918
g20
F0.9911
tp4919
a(S'last'
p4920
g12
F0.8642
tp4921
a(S'you'
p4922
g9
F0.998
tp4923
a(S'for'
p4924
g20
F0.9928
tp4925
a(S'ten'
p4926
g209
F0.8128
tp4927
a(S'years'
p4928
g71
F0.9794
tp4929
asI341
(lp4930
(g59
g9
F0.9156
tp4931
a(S've'
p4932
g12
F0.8726
tp4933
a(S'got'
p4934
g12
F0.9944
tp4935
a(S'enough'
p4936
g17
F0.8857
tp4937
a(S'toys'
p4938
g71
F0.9963
tp4939
a(S'at'
p4940
g20
F0.9993
tp4941
a(S'home'
p4942
g71
F0.9483
tp4943
asI342
(lp4944
(S'xxx'
p4945
g43
F0.8252
tp4946
a(S'xxx'
p4947
g43
F0.9293
tp4948
a(S'pampers'
p4949
g12
F0.6849
tp4950
a(S'on'
p4951
g20
F0.9889
tp4952
a(S'the'
p4953
g36
F0.9993
tp4954
a(S'table'
p4955
g71
F0.9899
tp4956
a(S'this'
p4957
g36
F0.9821
tp4958
a(S'morning'
p4959
g71
F0.9946
tp4960
asI343
(lp4961
(S'whose'
p4962
g465
F0.65
tp4963
a(S'baby'
p4964
g71
F0.9701
tp4965
a(g478
g64
F0.7431
tp4966
a(S'panties'
p4967
g71
F0.9929
tp4968
a(S'is'
p4969
g12
F0.9981
tp4970
a(S'this'
p4971
g9
F0.7713
tp4972
asI344
(lp4973
(S'whose'
p4974
g465
F0.6707
tp4975
a(S'babies'
p4976
g71
F0.8909
tp4977
a(S'panties'
p4978
g71
F0.9867
tp4979
a(S'were'
p4980
g12
F0.9777
tp4981
a(S'those'
p4982
g36
F0.6727
tp4983
a(S'april'
p4984
g39
F0.7654
tp4985
asI345
(lp4986
(S'those'
p4987
g36
F0.9739
tp4988
a(S'panties'
p4989
g71
F0.9972
tp4990
a(g59
g9
F0.9541
tp4991
a(S'had'
p4992
g12
F0.9999
tp4993
a(S'the'
p4994
g36
F0.9996
tp4995
a(S'other'
p4996
g17
F0.9923
tp4997
a(S'day'
p4998
g71
F0.9971
tp4999
a(S'for'
p5000
g20
F1.0
tp5001
a(S'the'
p5002
g36
F0.9995
tp5003
a(S'baby'
p5004
g71
F0.9967
tp5005
a(S'whose'
p5006
g465
F0.649
tp5007
a(S'doll'
p5008
g71
F0.8708
tp5009
a(S'panties'
p5010
g71
F0.9937
tp5011
a(S'was'
p5012
g12
F0.9942
tp5013
a(S'those'
p5014
g36
F0.6122
tp5015
asI346
(lp5016
(S'for'
p5017
g20
F0.9993
tp5018
a(S'my'
p5019
g36
F0.9971
tp5020
a(S'baby'
p5021
g71
F0.9991
tp5022
asI347
(lp5023
(S'huh'
p5024
g3
F0.993
tp5025
asI348
(lp5026
(S'for'
p5027
g20
F0.9993
tp5028
a(S'my'
p5029
g36
F0.9971
tp5030
a(S'baby'
p5031
g71
F0.9991
tp5032
asI349
(lp5033
(S'oh'
p5034
g3
F0.9959
tp5035
a(S'they'
p5036
g9
F0.9783
tp5037
a(S'your'
p5038
g36
F0.9721
tp5039
a(S'baby'
p5040
g71
F0.9974
tp5041
a(S'panties'
p5042
g71
F0.9934
tp5043
asI350
(lp5044
(S'my'
p5045
g36
F0.9973
tp5046
a(S'baby'
p5047
g71
F0.9978
tp5048
a(S'don'
p5049
g71
F0.5567
tp5050
a(g63
g64
F0.4484
tp5051
a(S'ha'
p5052
g3
F0.8479
tp5053
a(S've'
p5054
g20
F0.46
tp5055
a(S'no'
p5056
g36
F0.9564
tp5057
a(S'panties'
p5058
g71
F0.9996
tp5059
asI351
(lp5060
(S'does'
p5061
g12
F0.9966
tp5062
a(S'she'
p5063
g9
F0.9992
tp5064
a(S'have'
p5065
g12
F0.9998
tp5066
a(g84
g36
F0.9792
tp5067
a(S'pamper'
p5068
g71
F0.7932
tp5069
asI352
(lp5070
(S'xxx'
p5071
g43
F0.8437
tp5072
asI353
(lp5073
(S'what'
p5074
g9
F0.949
tp5075
asI354
(lp5076
(S'does'
p5077
g12
F0.9993
tp5078
a(S'your'
p5079
g36
F0.9882
tp5080
a(S'baby'
p5081
g71
F0.9991
tp5082
a(S'have'
p5083
g12
F0.9932
tp5084
a(g84
g36
F0.9852
tp5085
a(S'pamper'
p5086
g71
F0.8458
tp5087
asI355
(lp5088
(S'well'
p5089
g3
F0.76
tp5090
a(S'does'
p5091
g12
F0.9961
tp5092
a(S'she'
p5093
g9
F0.9982
tp5094
asI356
(lp5095
(S'do'
p5096
g12
F0.9985
tp5097
a(S'you'
p5098
g9
F0.9997
tp5099
a(S'know'
p5100
g12
F0.9988
tp5101
a(S'how'
p5102
g6
F0.9937
tp5103
a(S'to'
p5104
g20
F0.9944
tp5105
a(S'change'
p5106
g12
F0.9934
tp5107
a(S'her'
p5108
g9
F0.7043
tp5109
a(S'pamper'
p5110
g12
F0.9491
tp5111
asI357
(lp5112
(S'um'
p5113
g3
F0.869
tp5114
a(S'my'
p5115
g36
F0.9899
tp5116
a(S'bar'
p5117
g71
F0.9976
tp5118
a(S'my'
p5119
g36
F0.9922
tp5120
a(S'barbie'
p5121
g71
F0.9149
tp5122
a(S'doll'
p5123
g71
F0.9933
tp5124
a(S'don'
p5125
g71
F0.4092
tp5126
a(g63
g64
F0.4937
tp5127
asI358
(lp5128
(S'my'
p5129
g36
F0.9943
tp5130
a(S'cabbage'
p5131
g71
F0.9879
tp5132
a(S'patch'
p5133
g71
F0.9885
tp5134
a(S'do'
p5135
g12
F0.995
tp5136
a(S'every'
p5137
g36
F0.9892
tp5138
a(S'time'
p5139
g71
F0.9977
tp5140
a(S'she'
p5141
g9
F0.9923
tp5142
a(S'have'
p5143
g12
F0.9998
tp5144
a(g84
g36
F0.9597
tp5145
a(S'um'
p5146
g64
F0.37
tp5147
a(S'bottle'
p5148
g71
F0.8438
tp5149
a(S'and'
p5150
g118
F0.9973
tp5151
a(S'and'
p5152
g118
F0.9996
tp5153
a(g84
g36
F0.9518
tp5154
a(S'pamper'
p5155
g71
F0.8583
tp5156
asI359
(lp5157
(S'really'
p5158
g6
F0.9938
tp5159
asI360
(lp5160
(S'yeah'
p5161
g3
F0.9988
tp5162
asI361
(lp5163
(S'tomorrow'
p5164
g71
F0.9414
tp5165
a(S'afternoon'
p5166
g71
F0.9821
tp5167
a(S'thanksgiving'
p5168
g71
F0.9552
tp5169
asI362
(lp5170
(g59
g9
F0.9897
tp5171
a(S'want'
p5172
g12
F1.0
tp5173
a(S'you'
p5174
g9
F0.9989
tp5175
a(S'to'
p5176
g20
F0.9648
tp5177
a(S'xxx'
p5178
g12
F0.8093
tp5179
a(S'to'
p5180
g20
F0.9976
tp5181
a(S'the'
p5182
g36
F0.998
tp5183
a(S'state'
p5184
g71
F0.9458
tp5185
a(S'house'
p5186
g71
F0.9877
tp5187
a(S'xxx'
p5188
g43
F0.7162
tp5189
asI363
(lp5190
(S'oh'
p5191
g3
F0.9981
tp5192
a(S'okay'
p5193
g3
F0.9822
tp5194
asI364
(lp5195
(S'out'
p5196
g20
F0.5554
tp5197
a(S'there'
p5198
g6
F0.8032
tp5199
a(S'in'
p5200
g20
F0.9595
tp5201
a(S'mattapan'
p5202
g39
F0.4943
tp5203
asI365
(lp5204
(S'xxx'
p5205
g43
F0.8437
tp5206
asI366
(lp5207
(S'on'
p5208
g20
F0.9445
tp5209
a(S'morgan'
p5210
g39
F0.999
tp5211
a(S'street'
p5212
g39
F0.5134
tp5213
asI367
(lp5214
(S'uhhuh'
p5215
g3
F0.9892
tp5216
asI368
(lp5217
(g59
g9
F0.9899
tp5218
a(S'knew'
p5219
g12
F0.9981
tp5220
a(S'xxx'
p5221
g43
F0.7074
tp5222
asI369
(lp5223
(S'it'
p5224
g9
F0.9888
tp5225
a(g478
g12
F0.7975
tp5226
a(S'that'
p5227
g36
F0.7847
tp5228
a(S'building'
p5229
g71
F0.904
tp5230
a(S'where'
p5231
g6
F0.9674
tp5232
a(S'we'
p5233
g9
F0.9975
tp5234
a(S'turn'
p5235
g12
F0.9953
tp5236
a(S'at'
p5237
g20
F0.8974
tp5238
a(S'xxx'
p5239
g43
F0.5598
tp5240
asI370
(lp5241
(S'you'
p5242
g9
F0.9966
tp5243
a(S'turn'
p5244
g12
F0.9997
tp5245
a(S'the'
p5246
g36
F0.9995
tp5247
a(S'corner'
p5248
g71
F0.9961
tp5249
a(S'there'
p5250
g6
F0.8014
tp5251
asI371
(lp5252
(S'mhm'
p5253
g3
F0.9747
tp5254
asI372
(lp5255
(S'it'
p5256
g9
F0.9888
tp5257
a(g478
g12
F0.7475
tp5258
a(S'on'
p5259
g20
F0.9731
tp5260
a(S'the'
p5261
g36
F0.9993
tp5262
a(S'corner'
p5263
g71
F0.9893
tp5264
a(S'xxx'
p5265
g43
F0.8966
tp5266
asI373
(lp5267
(S'okay'
p5268
g3
F0.7543
tp5269
a(S'today'
p5270
g71
F0.9941
tp5271
a(S'is'
p5272
g12
F0.9973
tp5273
a(S'today'
p5274
g71
F0.8979
tp5275
a(S'and'
p5276
g118
F0.9979
tp5277
a(S'tomorrow'
p5278
g71
F0.8742
tp5279
a(g478
g64
F0.7607
tp5280
a(S'tomorrow'
p5281
g71
F0.9193
tp5282
a(S'huh'
p5283
g3
F0.9376
tp5284
asI374
(lp5285
(S'xxx'
p5286
g43
F0.5588
tp5287
a(S'today'
p5288
g71
F0.9864
tp5289
asI375
(lp5290
(S'the'
p5291
g36
F0.999
tp5292
a(S'day'
p5293
g71
F0.9965
tp5294
a(S'the'
p5295
g36
F0.998
tp5296
a(S'day'
p5297
g71
F0.9959
tp5298
a(S'for'
p5299
g20
F1.0
tp5300
a(S'the'
p5301
g36
F0.9995
tp5302
a(S'big'
p5303
g17
F0.9938
tp5304
a(S'one'
p5305
g209
F0.8725
tp5306
asI376
(lp5307
(S'so'
p5308
g20
F0.9008
tp5309
a(S'she'
p5310
g9
F0.9967
tp5311
a(S'xxx'
p5312
g12
F0.3749
tp5313
a(S'and'
p5314
g118
F0.9984
tp5315
a(g59
g9
F0.9902
tp5316
a(S'start'
p5317
g12
F0.9996
tp5318
a(S'making'
p5319
g12
F0.9815
tp5320
a(S'xxx'
p5321
g43
F0.6561
tp5322
asI377
(lp5323
(S'be'
p5324
g12
F0.9727
tp5325
a(S'cause'
p5326
g20
F0.7105
tp5327
a(g59
g9
F0.994
tp5328
a(S'might'
p5329
g12
F0.9994
tp5330
a(S'leave'
p5331
g12
F0.9981
tp5332
a(S'work'
p5333
g71
F0.8838
tp5334
a(S'early'
p5335
g17
F0.8381
tp5336
a(S'tomorrow'
p5337
g71
F0.9843
tp5338
a(S'anyway'
p5339
g6
F0.9881
tp5340
asI378
(lp5341
(g59
g9
F0.9835
tp5342
a(S'definitely'
p5343
g6
F0.9989
tp5344
a(S'am'
p5345
g12
F0.9663
tp5346
a(S'gonna'
p5347
g12
F0.9754
tp5348
a(S'leave'
p5349
g12
F0.9978
tp5350
a(S'early'
p5351
g17
F0.918
tp5352
a(S'thursday'
p5353
g71
F0.5627
tp5354
asI379
(lp5355
(S'to'
p5356
g20
F0.996
tp5357
a(S'get'
p5358
g12
F0.9998
tp5359
a(S'everything'
p5360
g71
F0.9397
tp5361
a(S'straightened'
p5362
g12
F0.9989
tp5363
a(S'out'
p5364
g858
F0.8605
tp5365
a(S'and'
p5366
g118
F0.998
tp5367
a(S'everything'
p5368
g71
F0.9577
tp5369
a(S'done'
p5370
g12
F0.9676
tp5371
asI380
(lp5372
(S'xxx'
p5373
g43
F0.7
tp5374
a(S'are'
p5375
g12
F0.9966
tp5376
a(S'you'
p5377
g9
F0.9993
tp5378
a(S'leavin'
p5379
g12
F0.9976
tp5380
a(g1550
g71
F0.3682
tp5381
a(S'on'
p5382
g20
F0.9958
tp5383
a(S'friday'
p5384
g39
F0.9434
tp5385
asI381
(lp5386
(S'mhm'
p5387
g3
F0.9747
tp5388
asI382
(lp5389
(S'xxx'
p5390
g43
F0.8437
tp5391
asI383
(lp5392
(S'next'
p5393
g17
F0.6755
tp5394
a(S'friday'
p5395
g71
F0.7596
tp5396
a(S'too'
p5397
g6
F0.9062
tp5398
asI384
(lp5399
(S'let'
p5400
g12
F0.8948
tp5401
a(g478
g64
F0.3973
tp5402
a(S'make'
p5403
g12
F0.9972
tp5404
a(S'him'
p5405
g9
F0.9037
tp5406
a(S'xxx'
p5407
g12
F0.4231
tp5408
a(S'no'
p5409
g36
F0.868
tp5410
a(S'school'
p5411
g71
F0.9999
tp5412
asI385
(lp5413
(S'be'
p5414
g12
F0.9727
tp5415
a(S'cause'
p5416
g20
F0.9573
tp5417
a(S'they'
p5418
g9
F0.9584
tp5419
a(S're'
p5420
g12
F0.806
tp5421
a(S'havin'
p5422
g12
F0.7844
tp5423
a(g1550
g12
F0.7008
tp5424
a(S'it'
p5425
g9
F0.9769
tp5426
a(S'the'
p5427
g36
F0.9994
tp5428
a(S'family'
p5429
g71
F0.973
tp5430
a(S'reunion'
p5431
g71
F0.9909
tp5432
a(S'till'
p5433
g20
F0.9875
tp5434
a(S'next'
p5435
g17
F0.6299
tp5436
a(S'friday'
p5437
g39
F0.5597
tp5438
asI386
(lp5439
(S'school'
p5440
g71
F0.9809
tp5441
asI387
(lp5442
(S'it'
p5443
g9
F0.9858
tp5444
a(g478
g64
F0.6822
tp5445
a(S'xxx'
p5446
g43
F0.487
tp5447
asI388
(lp5448
(S'so'
p5449
g6
F0.5368
tp5450
a(g59
g9
F0.963
tp5451
a(g1059
g12
F0.9644
tp5452
a(S'gonna'
p5453
g12
F0.9942
tp5454
a(S'spend'
p5455
g12
F0.9998
tp5456
a(g84
g36
F0.9983
tp5457
a(S'weekend'
p5458
g71
F0.9962
tp5459
a(S'in'
p5460
g20
F0.9902
tp5461
a(S'new'
p5462
g17
F0.9564
tp5463
a(S'york'
p5464
g71
F0.4985
tp5465
a(S'this'
p5466
g36
F0.9737
tp5467
a(S'week'
p5468
g71
F0.9956
tp5469
asI389
(lp5470
(S'you'
p5471
g9
F0.998
tp5472
a(S'had'
p5473
g12
F0.999
tp5474
a(S'enough'
p5475
g17
F0.6635
tp5476
a(S'april'
p5477
g39
F0.4355
tp5478
asI390
(lp5479
(S'are'
p5480
g12
F0.9963
tp5481
a(S'you'
p5482
g9
F0.9985
tp5483
a(S'sure'
p5484
g17
F0.9335
tp5485
asI391
(lp5486
(S'can'
p5487
g12
F0.9627
tp5488
a(g63
g12
F0.9476
tp5489
a(S'you'
p5490
g9
F0.9994
tp5491
a(S'speak'
p5492
g12
F0.9931
tp5493
asI392
(lp5494
(S'hm'
p5495
g3
F0.995
tp5496
asI393
(lp5497
(S'well'
p5498
g3
F0.59
tp5499
a(S'stop'
p5500
g12
F0.935
tp5501
a(S'shaking'
p5502
g12
F0.9995
tp5503
a(S'your'
p5504
g36
F0.9962
tp5505
a(S'head'
p5506
g71
F0.9974
tp5507
a(S'and'
p5508
g118
F0.9971
tp5509
a(S'say'
p5510
g12
F0.9501
tp5511
a(S'yes'
p5512
g3
F0.9721
tp5513
a(g4709
g64
F0.3519
tp5514
asI394
(lp5515
(S'yes'
p5516
g3
F0.9958
tp5517
asI395
(lp5518
(S'hm'
p5519
g3
F0.995
tp5520
asI396
(lp5521
(S'wipe'
p5522
g12
F0.9769
tp5523
a(S'your'
p5524
g36
F0.9958
tp5525
a(S'hands'
p5526
g71
F0.999
tp5527
asI397
(lp5528
(S'that'
p5529
g9
F0.473
tp5530
a(g478
g64
F0.4404
tp5531
a(S'what'
p5532
g9
F0.9509
tp5533
a(S'you'
p5534
g9
F0.9996
tp5535
a(S'have'
p5536
g12
F0.9998
tp5537
a(g84
g36
F0.9981
tp5538
a(S'napkin'
p5539
g71
F0.9979
tp5540
a(S'for'
p5541
g20
F0.9988
tp5542
asI398
(lp5543
(S'wash'
p5544
g12
F0.8979
tp5545
a(S'your'
p5546
g36
F0.9943
tp5547
a(S'hands'
p5548
g71
F0.9979
tp5549
a(S'and'
p5550
g118
F0.9941
tp5551
a(S'wipe'
p5552
g12
F0.9964
tp5553
a(S'your'
p5554
g36
F0.9958
tp5555
a(S'mouth'
p5556
g71
F0.9996
tp5557
asI399
(lp5558
(S'they'
p5559
g9
F0.9104
tp5560
a(S're'
p5561
g12
F0.7741
tp5562
a(S'not'
p5563
g6
F0.9972
tp5564
a(S'just'
p5565
g6
F0.9998
tp5566
a(S'to'
p5567
g20
F0.9947
tp5568
a(S'wrap'
p5569
g12
F0.9953
tp5570
a(S'up'
p5571
g858
F0.8844
tp5572
a(S'popsicles'
p5573
g71
F0.8592
tp5574
a(S'with'
p5575
g20
F0.995
tp5576
asI400
(lp5577
(S'there'
p5578
S'X'
p5579
F0.4664
tp5580
a(g478
g64
F0.6539
tp5581
a(g84
g36
F0.9931
tp5582
a(S'man'
p5583
g71
F0.9928
tp5584
a(S'xxx'
p5585
g43
F0.8868
tp5586
asI401
(lp5587
(S'he'
p5588
g9
F0.9961
tp5589
a(S'said'
p5590
g12
F0.9985
tp5591
a(S'come'
p5592
g12
F0.9735
tp5593
a(S'on'
p5594
g20
F0.4899
tp5595
asI402
(lp5596
(S'xxx'
p5597
g43
F0.6783
tp5598
a(S'work'
p5599
g71
F0.8775
tp5600
a(S'for'
p5601
g20
F0.9995
tp5602
a(S'me'
p5603
g9
F0.9987
tp5604
asI403
(lp5605
(S'xxx'
p5606
g43
F0.6877
tp5607
a(S'come'
p5608
g12
F0.9907
tp5609
a(S'on'
p5610
g20
F0.5942
tp5611
a(S'xxx'
p5612
g43
F0.6055
tp5613
asI404
(lp5614
(S'xxx'
p5615
g43
F0.4548
tp5616
a(S'over'
p5617
g20
F0.7794
tp5618
a(S'here'
p5619
g6
F0.9285
tp5620
a(S'xxx'
p5621
g43
F0.8373
tp5622
asI405
(lp5623
(g59
g9
F0.9912
tp5624
a(S'know'
p5625
g12
F0.9999
tp5626
a(S'it'
p5627
g9
F0.9899
tp5628
asI406
(lp5629
(S'you'
p5630
g9
F0.995
tp5631
a(S'see'
p5632
g12
F0.994
tp5633
asI407
(lp5634
(S'we'
p5635
g9
F0.9849
tp5636
a(S're'
p5637
g12
F0.5579
tp5638
a(S'just'
p5639
g6
F0.9997
tp5640
a(S'talkin'
p5641
g12
F0.951
tp5642
a(g1550
g12
F0.3529
tp5643
a(S'now'
p5644
g6
F0.994
tp5645
asI408
(lp5646
(S'if'
p5647
g20
F0.9977
tp5648
a(S'you'
p5649
g9
F0.9982
tp5650
a(S're'
p5651
g12
F0.7591
tp5652
a(S'not'
p5653
g6
F0.9957
tp5654
a(S'finished'
p5655
g12
F0.9976
tp5656
a(S'get'
p5657
g12
F0.9951
tp5658
a(S'back'
p5659
g17
F0.2356
tp5660
a(S'up'
p5661
g858
F0.4855
tp5662
a(S'there'
p5663
g6
F0.8142
tp5664
asI409
(lp5665
(S'you'
p5666
g9
F0.9954
tp5667
a(S'dropping'
p5668
g12
F0.9999
tp5669
a(S'stuff'
p5670
g71
F0.9643
tp5671
a(S'all'
p5672
g6
F0.459
tp5673
a(S'over'
p5674
g20
F0.9693
tp5675
a(S'the'
p5676
g36
F0.999
tp5677
a(S'floor'
p5678
g71
F0.9939
tp5679
asI410
(lp5680
(S'if'
p5681
g20
F0.9977
tp5682
a(S'you'
p5683
g9
F0.9996
tp5684
a(S'still'
p5685
g6
F0.9927
tp5686
a(S'eating'
p5687
g12
F0.9959
tp5688
a(S'sit'
p5689
g12
F0.9813
tp5690
a(S'down'
p5691
g858
F0.909
tp5692
asI411
(lp5693
(S'and'
p5694
g118
F0.9984
tp5695
a(S'eat'
p5696
g12
F0.9969
tp5697
a(S'some'
p5698
g36
F0.9433
tp5699
a(S'more'
p5700
g17
F0.8941
tp5701
a(S'of'
p5702
g20
F0.9993
tp5703
a(S'those'
p5704
g36
F0.9182
tp5705
a(S'good'
p5706
g17
F0.9975
tp5707
a(S'potatoes'
p5708
g71
F0.9987
tp5709
asI412
(lp5710
(S'eat'
p5711
g12
F0.9797
tp5712
a(S'some'
p5713
g36
F0.9562
tp5714
a(S'more'
p5715
g17
F0.837
tp5716
a(S'of'
p5717
g20
F0.9993
tp5718
a(S'those'
p5719
g36
F0.9635
tp5720
a(S'potatoes'
p5721
g71
F0.9976
tp5722
asI413
(lp5723
(g59
g9
F0.9891
tp5724
a(S'ate'
p5725
g12
F0.9998
tp5726
a(S'all'
p5727
g36
F0.9397
tp5728
a(S'mine'
p5729
g9
F0.739
tp5730
asI414
(lp5731
(S'yep'
p5732
g3
F0.9918
tp5733
a(S'you'
p5734
g9
F0.9992
tp5735
a(S'did'
p5736
g12
F0.9987
tp5737
asI415
(lp5738
(S'xxx'
p5739
g43
F0.7163
tp5740
a(S'just'
p5741
g6
F0.9965
tp5742
a(S'pop'
p5743
g12
F0.9862
tp5744
a(S'it'
p5745
g9
F0.9865
tp5746
a(S'in'
p5747
g20
F0.8643
tp5748
a(S'there'
p5749
g36
F0.6829
tp5750
a(S'ladies'
p5751
g71
F0.9979
tp5752
asI416
(lp5753
(S'it'
p5754
g9
F0.9858
tp5755
a(g478
g12
F0.6231
tp5756
a(S'good'
p5757
g17
F0.991
tp5758
asI417
(lp5759
(S'that'
p5760
g9
F0.4727
tp5761
a(g478
g12
F0.5427
tp5762
a(S'right'
p5763
g3
F0.3487
tp5764
asI418
(lp5765
(S'it'
p5766
g9
F0.992
tp5767
a(S'hit'
p5768
g12
F0.9995
tp5769
a(S'my'
p5770
g36
F0.9974
tp5771
a(S'spot'
p5772
g71
F0.998
tp5773
asI419
(lp5774
(S'yes'
p5775
g3
F0.9785
tp5776
a(S'indeed'
p5777
g6
F0.8067
tp5778
asI420
(lp5779
(S'xxx'
p5780
g43
F0.6084
tp5781
a(S'is'
p5782
g12
F0.9978
tp5783
a(S'on'
p5784
g20
F0.9786
tp5785
a(g84
g36
F0.8946
tp5786
a(S'on'
p5787
g20
F0.9367
tp5788
a(g84
g36
F0.9771
tp5789
a(S'noncooking'
p5790
g71
F0.7161
tp5791
a(S'diet'
p5792
g71
F0.9919
tp5793
asI421
(lp5794
(S'she'
p5795
g9
F0.9954
tp5796
a(S'eats'
p5797
g12
F0.9758
tp5798
a(S'cereal'
p5799
g71
F0.9811
tp5800
asI422
(lp5801
(S'xxx'
p5802
g43
F0.648
tp5803
a(S'no'
p5804
g36
F0.3279
tp5805
a(S'wonder'
p5806
g71
F0.9521
tp5807
a(g59
g9
F0.9584
tp5808
a(S'lost'
p5809
g12
F0.9141
tp5810
a(S'weight'
p5811
g71
F0.9324
tp5812
asI423
(lp5813
(g59
g9
F0.9888
tp5814
a(S'lost'
p5815
g12
F0.7936
tp5816
a(S'eight'
p5817
g209
F0.8623
tp5818
a(S'pounds'
p5819
g71
F0.9831
tp5820
asI424
(lp5821
(S'oh'
p5822
g3
F0.9987
tp5823
a(S'yeah'
p5824
g3
F0.9997
tp5825
asI425
(lp5826
(S'mhm'
p5827
g3
F0.9747
tp5828
asI426
(lp5829
(S'that'
p5830
g9
F0.473
tp5831
a(g478
g12
F0.6118
tp5832
a(g84
g36
F0.9974
tp5833
a(S'old'
p5834
g17
F0.9961
tp5835
a(S'xxx'
p5836
g43
F0.7587
tp5837
asI427
(lp5838
(g59
g9
F0.9892
tp5839
a(S'got'
p5840
g12
F0.9997
tp5841
a(S'find'
p5842
g12
F0.9969
tp5843
a(g84
g36
F0.9986
tp5844
a(S'new'
p5845
g17
F0.9978
tp5846
a(S'cereal'
p5847
g71
F0.9833
tp5848
asI428
(lp5849
(S'xxx'
p5850
g43
F0.8437
tp5851
asI429
(lp5852
(S'get'
p5853
g12
F0.9988
tp5854
a(S'up'
p5855
g858
F0.9264
tp5856
a(S'early'
p5857
g17
F0.7924
tp5858
asI430
(lp5859
(S'drive'
p5860
g12
F0.5339
tp5861
a(S'into'
p5862
g20
F0.996
tp5863
a(S'pennsylvania'
p5864
g39
F0.9839
tp5865
a(S'to'
p5866
g20
F0.9992
tp5867
a(S'the'
p5868
g36
F0.9872
tp5869
a(S'xxx'
p5870
g43
F0.4627
tp5871
asI431
(lp5872
(S'xxx'
p5873
g43
F0.8437
tp5874
asI432
(lp5875
(S'let'
p5876
g12
F0.9951
tp5877
a(S'her'
p5878
g9
F0.8532
tp5879
a(S'hear'
p5880
g12
F0.9309
tp5881
a(S'what'
p5882
g9
F0.979
tp5883
a(S'we'
p5884
g9
F0.9968
tp5885
as.