(dp0
I514
(lp1
(S'(.)'
p2
S'^'
p3
F0.4332
tp4
a(S'do'
p5
S'V'
p6
F0.9988
tp7
a(S'you'
p8
S'O'
p9
F0.999
tp10
a(S'like'
p11
g6
F0.5787
tp12
a(S'lemonade'
p13
S'N'
p14
F0.9767
tp15
a(S'?'
p16
S','
p17
F0.9971
tp18
asI17
(lp19
(S'good'
p20
S'A'
p21
F0.967
tp22
a(S'.'
p23
g17
F0.998
tp24
asI21
(lp25
(S'chinese'
p26
g21
F0.5955
tp27
a(S'food'
p28
g14
F0.9996
tp29
a(g23
g17
F0.9982
tp30
asI24
(lp31
(S'xxx'
p32
S'E'
p33
F0.7114
tp34
a(S'eating'
p35
g6
F0.9943
tp36
a(S'chinese'
p37
g21
F0.5925
tp38
a(S'food'
p39
g14
F0.9997
tp40
a(g23
g17
F0.9985
tp41
asI27
(lp42
(S'xxx'
p43
g33
F0.6137
tp44
a(S'there'
p45
S'R'
p46
F0.6873
tp47
a(g23
g17
F0.9981
tp48
asI30
(lp49
(S'chinese'
p50
g21
F0.6606
tp51
a(S'food'
p52
g14
F0.9994
tp53
a(S'&'
p54
g54
F0.9864
tp55
a(S'='
p56
g17
F0.8941
tp57
a(S'shouts'
p58
g6
F0.9482
tp59
a(S'!'
p60
g17
F0.9972
tp61
asI33
(lp62
(S"don't"
p63
g6
F0.9991
tp64
a(S'yell'
p65
g6
F0.9828
tp66
a(g23
g17
F0.9969
tp67
asI36
(lp68
(S"you're"
p69
S'L'
p70
F0.9903
tp71
a(S'eating'
p72
g6
F0.9925
tp73
a(S'chinese'
p74
g21
F0.6063
tp75
a(S'food'
p76
g14
F0.9996
tp77
a(S'['
p78
g17
F0.975
tp79
a(S'>'
p80
g33
F0.6043
tp81
a(S']'
p82
g17
F0.7541
tp83
a(g23
g17
F0.9962
tp84
asI39
(lp85
(S'<'
p86
S'~'
p87
F0.9112
tp88
a(S'Mommy'
p89
g14
F0.5708
tp90
a(g80
S'G'
p91
F0.4522
tp92
a(g78
g17
F0.9261
tp93
a(g86
g87
F0.9635
tp94
a(g82
g17
F0.9886
tp95
a(S'can'
p96
g6
F0.9998
tp97
a(S'you'
p98
g9
F0.9987
tp99
a(S'give'
p100
g6
F0.9999
tp101
a(S'me'
p102
g9
F0.967
tp103
a(S'one'
p104
S'$'
p105
F0.9842
tp106
a(S'of'
p107
S'P'
p108
F0.9991
tp109
a(S'those'
p110
g9
F0.6267
tp111
a(g16
g17
F0.999
tp112
asI45
(lp113
(S'can'
p114
g6
F0.999
tp115
a(S'you'
p116
g9
F0.9986
tp117
a(S'give'
p118
g6
F0.9999
tp119
a(S'me'
p120
g9
F0.9954
tp121
a(S'a'
p122
S'D'
p123
F0.9921
tp124
a(S'plate'
p125
g14
F0.9977
tp126
a(g16
g17
F0.9981
tp127
asI49
(lp128
(S'please'
p129
g6
F0.7885
tp130
a(g16
g17
F0.9975
tp131
asI53
(lp132
(S'please'
p133
g6
F0.8368
tp134
a(g23
g17
F0.9977
tp135
asI56
(lp136
(S"I'm"
p137
g70
F0.9967
tp138
a(S'starving'
p139
g6
F0.8013
tp140
a(g23
g17
F0.9981
tp141
asI59
(lp142
(S'ah'
p143
g60
F0.9549
tp144
a(S'the'
p145
g123
F0.9956
tp146
a(S'blue'
p147
g21
F0.9456
tp148
a(S'one'
p149
g105
F0.7743
tp150
a(S'the'
p151
g123
F0.9961
tp152
a(S'blue'
p153
g21
F0.9619
tp154
a(S'one'
p155
g105
F0.8705
tp156
a(g23
g17
F0.9977
tp157
asI63
(lp158
(S'oops'
p159
g60
F0.9881
tp160
a(g23
g17
F0.9961
tp161
asI66
(lp162
(S'xxx'
p163
g33
F0.5798
tp164
a(S'the'
p165
g123
F0.9957
tp166
a(S'blue'
p167
g21
F0.9438
tp168
a(S'one'
p169
g105
F0.807
tp170
a(g23
g17
F0.9977
tp171
asI69
(lp172
(S'can'
p173
g6
F0.999
tp174
a(S'you'
p175
g9
F0.9986
tp176
a(S'give'
p177
g6
F0.9999
tp178
a(S'me'
p179
g9
F0.9609
tp180
a(S'one'
p181
g105
F0.9842
tp182
a(S'of'
p183
g108
F0.9991
tp184
a(S'those'
p185
g9
F0.5979
tp186
a(g16
g17
F0.9983
tp187
asI74
(lp188
(S'in'
p189
g108
F0.9543
tp190
a(g122
g123
F0.9956
tp191
a(S'minute'
p192
g14
F0.9809
tp193
a(g23
g17
F0.9985
tp194
asI77
(lp195
(S'please'
p196
g6
F0.9415
tp197
a(S'can'
p198
g6
F0.9998
tp199
a(S'you'
p200
g9
F0.9986
tp201
a(S'give'
p202
g6
F0.9999
tp203
a(S'me'
p204
g9
F0.9962
tp205
a(g122
g123
F0.99
tp206
a(S'plate'
p207
g14
F0.9973
tp208
a(g16
g17
F0.9983
tp209
asI81
(lp210
(S'just'
p211
g46
F0.9981
tp212
a(g122
g123
F0.9875
tp213
a(S'minute'
p214
g14
F0.9333
tp215
a(S'Arlo'
p216
g3
F0.9962
tp217
a(g23
g17
F0.9956
tp218
asI84
(lp219
(S'what'
p220
g9
F0.9962
tp221
a(S'is'
p222
g6
F0.999
tp223
a(S'in'
p224
g108
F0.9455
tp225
a(S'there'
p226
g46
F0.8107
tp227
a(g16
g17
F0.9983
tp228
asI87
(lp229
(S'xxx'
p230
g33
F0.6613
tp231
a(S"that's"
p232
g70
F0.9805
tp233
a(S'salad'
p234
g14
F0.9892
tp235
a(g23
g17
F0.9986
tp236
asI90
(lp237
(S'I'
p238
g9
F0.9983
tp239
a(S'want'
p240
g6
F0.9996
tp241
a(S'one'
p242
g105
F0.9632
tp243
a(S'of'
p244
g108
F0.9991
tp245
a(S'those'
p246
g9
F0.7885
tp247
a(g23
g17
F0.9983
tp248
asI93
(lp249
(g238
g9
F0.9976
tp250
a(S"don't"
p251
g6
F1.0
tp252
a(S'got'
p253
g6
F0.9999
tp254
a(g122
g123
F0.9983
tp255
a(S'plate'
p256
g14
F0.9985
tp257
a(g23
g17
F0.9977
tp258
asI96
(lp259
(S'xxx'
p260
g33
F0.5822
tp261
a(g23
g17
F0.9648
tp262
asI97
(lp263
(S'xxx'
p264
g33
F0.5822
tp265
a(g23
g17
F0.9648
tp266
asI99
(lp267
(S"that's"
p268
g70
F0.9939
tp269
a(S'so'
p270
g46
F0.9636
tp271
a(S'hungry'
p272
g21
F0.914
tp273
a(S'can'
p274
g6
F0.9647
tp275
a(g238
g9
F0.9993
tp276
a(S'have'
p277
g6
F0.998
tp278
a(S'one'
p279
g105
F0.9542
tp280
a(S'of'
p281
g108
F0.999
tp282
a(S'these'
p283
g9
F0.4798
tp284
a(g16
g17
F0.9983
tp285
asI106
(lp286
(S'wait'
p287
g6
F0.9922
tp288
a(g122
g123
F0.9943
tp289
a(S'minute'
p290
g14
F0.9147
tp291
a(S'Arlo'
p292
g3
F0.994
tp293
a(S'wait'
p294
g6
F0.9753
tp295
a(g23
g17
F0.9973
tp296
asI109
(lp297
(S'xxx'
p298
g33
F0.5822
tp299
a(g23
g17
F0.9648
tp300
asI110
(lp301
(S'just'
p302
g46
F0.9981
tp303
a(g122
g123
F0.9872
tp304
a(S'minute'
p305
g14
F0.9809
tp306
a(g23
g17
F0.9985
tp307
asI113
(lp308
(S'Jessie'
p309
g3
F0.9991
tp310
a(S'come'
p311
g6
F0.9787
tp312
a(S'and'
p313
g54
F0.9926
tp314
a(S'eat'
p315
g6
F0.9272
tp316
a(g23
g17
F0.9983
tp317
asI116
(lp318
(S'xxx'
p319
g33
F0.5822
tp320
a(g23
g17
F0.9648
tp321
asI118
(lp322
(S'are'
p323
g6
F0.9928
tp324
a(S'those'
p325
g9
F0.7802
tp326
a(S'all'
p327
g123
F0.9778
tp328
a(S'shrimp'
p329
g14
F0.9807
tp330
a(S'honey'
p331
g14
F0.9773
tp332
a(g16
g17
F0.9975
tp333
asI121
(lp334
(S'Mommy'
p335
g14
F0.8032
tp336
a(g238
g9
F0.9937
tp337
a(S'want'
p338
g6
F0.9998
tp339
a(S'one'
p340
g105
F0.9706
tp341
a(S'of'
p342
g108
F0.9991
tp343
a(S'those'
p344
g123
F0.9779
tp345
a(S'big'
p346
g21
F0.9931
tp347
a(S'things'
p348
g14
F0.9993
tp349
a(g23
g17
F0.9988
tp350
asI126
(lp351
(S'shh'
p352
g60
F0.9974
tp353
a(g60
g17
F0.996
tp354
asI129
(lp355
(S'xxx'
p356
g33
F0.5822
tp357
a(g23
g17
F0.9648
tp358
asI130
(lp359
(g86
g87
F0.9345
tp360
a(S'mommy'
p361
g14
F0.5919
tp362
a(S"what's"
p363
g70
F0.9841
tp364
a(S'those'
p365
g9
F0.5972
tp366
a(g80
g33
F0.4541
tp367
a(g78
g33
F0.5345
tp368
a(g80
g33
F0.9732
tp369
a(g82
g17
F0.6496
tp370
a(g16
g17
F0.9965
tp371
asI134
(lp372
(S'no'
p373
g60
F0.7417
tp374
a(g86
g87
F0.5928
tp375
a(g238
g9
F0.9986
tp376
a(S'want'
p377
g6
F0.9996
tp378
a(S'one'
p379
g105
F0.969
tp380
a(S'of'
p381
g108
F0.9994
tp382
a(S'the'
p383
g123
F0.9996
tp384
a(S'big'
p385
g21
F0.9733
tp386
a(S'things'
p387
g14
F0.9989
tp388
a(g80
g33
F0.5783
tp389
a(g78
g33
F0.535
tp390
a(g86
g87
F0.8058
tp391
a(g82
g17
F0.9804
tp392
a(g23
g17
F0.9977
tp393
asI139
(lp394
(S'shrimp'
p395
g14
F0.987
tp396
a(g23
g17
F0.9983
tp397
asI142
(lp398
(S'yeah'
p399
g60
F0.9971
tp400
a(g238
g9
F0.9992
tp401
a(S'want'
p402
g6
F0.9998
tp403
a(S'shrimp'
p404
g14
F0.9947
tp405
a(g23
g17
F0.9987
tp406
asI145
(lp407
(g238
g9
F0.9983
tp408
a(S'want'
p409
g6
F0.9999
tp410
a(S'those'
p411
g9
F0.8602
tp412
a(g23
g17
F0.9987
tp413
asI148
(lp414
(S'mommy'
p415
g14
F0.611
tp416
a(S'+/'
p417
g14
F0.2804
tp418
a(g23
g17
F0.9979
tp419
asI151
(lp420
(g238
g9
F0.9983
tp421
a(S'want'
p422
g6
F1.0
tp423
a(g122
g123
F0.9976
tp424
a(S'shrimp'
p425
g14
F0.9961
tp426
a(S'xxx'
p427
g33
F0.6459
tp428
a(S'+'
p429
g54
F0.4478
tp430
a(S'...'
p431
g17
F0.6147
tp432
asI154
(lp433
(S'mm'
p434
g60
F0.5842
tp435
a(g23
g17
F0.9932
tp436
asI157
(lp437
(g54
g54
F0.9893
tp438
a(g56
g17
F0.8588
tp439
a(S'coughs'
p440
g14
F0.7594
tp441
a(g23
g17
F0.9982
tp442
asI158
(lp443
(S'mommy'
p444
g14
F0.4798
tp445
a(S'this'
p446
g9
F0.9312
tp447
a(S'is'
p448
g6
F0.9977
tp449
a(S'good'
p450
g21
F0.9975
tp451
a(g23
g17
F0.9985
tp452
asI161
(lp453
(g238
g9
F0.9982
tp454
a(S'ate'
p455
g6
F0.9998
tp456
a(S'this'
p457
g9
F0.8635
tp458
a(S'before'
p459
g108
F0.8122
tp460
a(S'over'
p461
g14
F0.3554
tp462
a(S'at'
p463
g108
F0.9904
tp464
a(S"Pepe's"
p465
g3
F0.7762
tp466
a(g23
g17
F0.9971
tp467
asI166
(lp468
(S'what'
p469
g9
F0.9835
tp470
a(S'are'
p471
g6
F0.9978
tp472
a(S'you'
p473
g9
F0.9994
tp474
a(S'eating'
p475
g6
F0.9986
tp476
a(g78
g17
F0.9839
tp477
a(g80
g33
F0.4438
tp478
a(g82
g17
F0.6889
tp479
a(S'Arlo'
p480
g3
F0.9979
tp481
a(g16
g17
F0.9973
tp482
asI170
(lp483
(S'right'
p484
g60
F0.5567
tp485
a(g78
g17
F0.993
tp486
a(g86
g87
F0.972
tp487
a(g82
g17
F0.974
tp488
a(g16
g17
F0.9963
tp489
asI174
(lp490
(g238
g9
F0.9976
tp491
a(S"don't"
p492
g6
F1.0
tp493
a(S'know'
p494
g6
F0.9986
tp495
a(g23
g17
F0.9981
tp496
asI177
(lp497
(S'teriyaki'
p498
g14
F0.4934
tp499
a(S"that's"
p500
g70
F0.9539
tp501
a(S'teriyaki'
p502
g14
F0.9139
tp503
a(g23
g17
F0.9988
tp504
asI180
(lp505
(S'teriyaki'
p506
g14
F0.7476
tp507
a(g23
g17
F0.9985
tp508
asI183
(lp509
(S'what'
p510
g9
F0.9931
tp511
a(S'does'
p512
g6
F0.9974
tp513
a(S'Steve'
p514
g3
F0.9959
tp515
a(S'give'
p516
g6
F0.9977
tp517
a(S'me'
p518
g9
F0.997
tp519
a(g16
g17
F0.998
tp520
asI186
(lp521
(S'chicken'
p522
g14
F0.7995
tp523
a(g23
g17
F0.9983
tp524
asI189
(lp525
(S'chicken'
p526
g14
F0.7995
tp527
a(g23
g17
F0.9983
tp528
asI192
(lp529
(S'is'
p530
g6
F0.9889
tp531
a(S'Steve'
p532
g3
F0.9828
tp533
a(S'gone'
p534
g6
F0.6834
tp535
a(g16
g17
F0.9988
tp536
asI195
(lp537
(S'(..)'
p538
g33
F0.4234
tp539
a(S"what's"
p540
g70
F0.9968
tp541
a(S'in'
p542
g108
F0.9093
tp543
a(S'there'
p544
g46
F0.8107
tp545
a(g16
g17
F0.9983
tp546
asI198
(lp547
(S'Steve'
p548
g3
F0.9929
tp549
a(S'know'
p550
g6
F0.978
tp551
a(S"what's"
p552
g70
F0.9982
tp553
a(S'in'
p554
g108
F0.9583
tp555
a(S'there'
p556
g46
F0.8592
tp557
a(g16
g17
F0.9977
tp558
asI201
(lp559
(S'yeah'
p560
g60
F0.9986
tp561
a(g23
g17
F0.997
tp562
asI204
(lp563
(S"that's"
p564
g70
F0.9694
tp565
a(S'the'
p566
g123
F0.9979
tp567
a(S'rice'
p568
g14
F0.9949
tp569
a(g23
g17
F0.9986
tp570
asI207
(lp571
(g238
g9
F0.9983
tp572
a(S'want'
p573
g6
F1.0
tp574
a(S'some'
p575
g123
F0.9914
tp576
a(S'rice'
p577
g14
F0.987
tp578
a(g23
g17
F0.9987
tp579
asI210
(lp580
(S'xxx'
p581
g33
F0.5798
tp582
a(S'the'
p583
g123
F0.9979
tp584
a(S'box'
p585
g14
F0.9901
tp586
a(S'please'
p587
g6
F0.9341
tp588
a(g23
g17
F0.9982
tp589
asI213
(lp590
(S'you'
p591
g9
F0.998
tp592
a(S'want'
p593
g6
F0.9999
tp594
a(S'some'
p595
g123
F0.9931
tp596
a(S'rice'
p597
g14
F0.9767
tp598
a(S'please'
p599
g6
F0.9502
tp600
a(g23
g17
F0.9975
tp601
asI216
(lp602
(S'please'
p603
g6
F0.9415
tp604
a(S'can'
p605
g6
F0.9991
tp606
a(g238
g9
F0.9993
tp607
a(S'have'
p608
g6
F0.9999
tp609
a(S'some'
p610
g123
F0.9956
tp611
a(S'rice'
p612
g14
F0.9681
tp613
a(g16
g17
F0.9976
tp614
asI219
(lp615
(S'xxx'
p616
g33
F0.565
tp617
a(S'clean'
p618
g21
F0.5057
tp619
a(S'the'
p620
g123
F0.999
tp621
a(S'car'
p622
g14
F0.9991
tp623
a(g23
g17
F0.9984
tp624
asI222
(lp625
(S'sit'
p626
g6
F0.9868
tp627
a(S'down'
p628
S'T'
p629
F0.8756
tp630
a(S'please'
p631
g6
F0.8907
tp632
a(g23
g17
F0.9982
tp633
asI225
(lp634
(S'no'
p635
g60
F0.7132
tp636
a(S'(.)'
p637
g17
F0.3443
tp638
a(g238
g9
F0.9966
tp639
a(S'putting'
p640
g6
F0.9999
tp641
a(S'with'
p642
g108
F0.9993
tp643
a(S'the'
p644
g123
F0.9993
tp645
a(S'teriyaki'
p646
g14
F0.8968
tp647
a(S'on'
p648
g108
F0.9967
tp649
a(S'there'
p650
g46
F0.838
tp651
a(g54
g54
F0.9924
tp652
a(g56
g17
F0.8922
tp653
a(S'chuckles'
p654
g6
F0.7296
tp655
a(g23
g17
F0.9962
tp656
asI230
(lp657
(S"don't"
p658
g6
F0.9973
tp659
a(g23
g17
F0.9965
tp660
asI233
(lp661
(S"don't"
p662
g6
F0.9995
tp663
a(S"that's"
p664
g70
F0.9938
tp665
a(S'not'
p666
g46
F0.9953
tp667
a(S"mommy's"
p668
g14
F0.3328
tp669
a(g23
g17
F0.9991
tp670
asI236
(lp671
(S'why'
p672
g46
F0.9573
tp673
a(S'you'
p674
g9
F0.9992
tp675
a(S'put'
p676
g6
F0.9994
tp677
a(S'it'
p678
g9
F0.9692
tp679
a(S'on'
p680
g108
F0.5464
tp681
a(g16
g17
F0.9962
tp682
asI239
(lp683
(S"that's"
p684
g70
F0.9874
tp685
a(S'yours'
p686
g9
F0.8088
tp687
a(S'Jessie'
p688
g3
F0.9994
tp689
a(g23
g17
F0.9954
tp690
asI242
(lp691
(S'thank'
p692
g6
F0.9631
tp693
a(S'you'
p694
g9
F0.9987
tp695
a(g23
g17
F0.9995
tp696
asI245
(lp697
(S'xxx'
p698
g33
F0.5702
tp699
a(S'for'
p700
g108
F0.9974
tp701
a(S'Christa'
p702
g3
F0.9998
tp703
a(S'(.)'
p704
g3
F0.5563
tp705
a(S'one'
p706
g105
F0.9766
tp707
a(S'for'
p708
g108
F0.9991
tp709
a(S'Arlo'
p710
g3
F0.9996
tp711
a(S'(.)'
p712
g3
F0.5515
tp713
a(S'one'
p714
g105
F0.9766
tp715
a(S'for'
p716
g108
F0.9987
tp717
a(S'Mom'
p718
g14
F0.5495
tp719
a(S'(.)'
p720
g33
F0.4421
tp721
a(S'one'
p722
g105
F0.9747
tp723
a(S'for'
p724
g108
F0.9983
tp725
a(g429
g54
F0.4184
tp726
a(S'...'
p727
g17
F0.6068
tp728
asI250
(lp729
(S'Jessie'
p730
g3
F0.9986
tp731
a(S'Shamu'
p732
g3
F0.9971
tp733
a(g23
g17
F0.9959
tp734
asI253
(lp735
(S'Shamu'
p736
g3
F0.944
tp737
a(g16
g17
F0.9943
tp738
asI256
(lp739
(S'rice'
p740
g14
F0.9435
tp741
a(g60
g17
F0.9987
tp742
asI259
(lp743
(S'rice'
p744
g14
F0.9435
tp745
a(g60
g17
F0.9987
tp746
asI262
(lp747
(S'(..)'
p748
g33
F0.3551
tp749
a(S'watch'
p750
g6
F0.9949
tp751
a(S'out'
p752
g629
F0.9057
tp753
a(S'Arlo'
p754
g3
F0.9994
tp755
a(g23
g17
F0.9956
tp756
asI265
(lp757
(S'xxx'
p758
g33
F0.5822
tp759
a(g23
g17
F0.9648
tp760
asI266
(lp761
(S'xxx'
p762
g33
F0.5822
tp763
a(g23
g17
F0.9648
tp764
asI267
(lp765
(S'could'
p766
g6
F0.9986
tp767
a(S'you'
p768
g9
F0.999
tp769
a(S'get'
p770
g6
F1.0
tp771
a(S'me'
p772
g9
F0.9981
tp773
a(S'the'
p774
g123
F0.9981
tp775
a(S'butter'
p776
g14
F0.9802
tp777
a(S'please'
p778
g6
F0.8959
tp779
a(g16
g17
F0.9981
tp780
asI272
(lp781
(S'Mom'
p782
g14
F0.8644
tp783
a(g238
g9
F0.9921
tp784
a(S"don't"
p785
g6
F1.0
tp786
a(S'like'
p787
g6
F0.8485
tp788
a(S'this'
p789
g9
F0.9799
tp790
a(g23
g17
F0.9982
tp791
asI275
(lp792
(S'just'
p793
g46
F0.9991
tp794
a(S'leave'
p795
g6
F0.9994
tp796
a(S'it'
p797
g9
F0.9855
tp798
a(S'on'
p799
g108
F0.9601
tp800
a(S'your'
p801
g123
F0.9944
tp802
a(S'plate'
p803
g14
F0.9992
tp804
a(g23
g17
F0.9982
tp805
asI278
(lp806
(S'xxx'
p807
g33
F0.5822
tp808
a(g23
g17
F0.9648
tp809
asI279
(lp810
(S'can'
p811
g6
F0.999
tp812
a(S'you'
p813
g9
F0.9987
tp814
a(S'eat'
p815
g6
F0.9995
tp816
a(S'that'
p817
g108
F0.6979
tp818
a(S'all'
p819
g123
F0.9765
tp820
a(S'Mommy'
p821
g14
F0.5899
tp822
a(g16
g17
F0.9981
tp823
asI283
(lp824
(S"it's"
p825
g70
F0.9911
tp826
a(S'better'
p827
g21
F0.9523
tp828
a(S'than'
p829
g108
F0.9744
tp830
a(S'nothing'
p831
g14
F0.9987
tp832
a(g23
g17
F0.9984
tp833
asI286
(lp834
(S'that'
p835
g9
F0.5115
tp836
a(S'[//]'
p837
g17
F0.5297
tp838
a(S'all'
p839
S'X'
p840
F0.5319
tp841
a(S'that'
p842
g123
F0.9508
tp843
a(S'rice'
p844
g14
F0.9766
tp845
a(g16
g17
F0.9971
tp846
asI290
(lp847
(S'yes'
p848
g60
F0.9961
tp849
a(g23
g17
F0.9972
tp850
asI293
(lp851
(S'oh'
p852
g60
F0.9941
tp853
a(g78
g17
F0.939
tp854
a(g60
g17
F0.9842
tp855
a(g82
g17
F0.9681
tp856
a(S'Jessie'
p857
g3
F0.9988
tp858
a(g86
g87
F0.7342
tp859
a(S'guess'
p860
g6
F0.9874
tp861
a(S'what'
p862
g9
F0.9841
tp863
a(g238
g9
F0.9984
tp864
a(g80
g6
F0.2795
tp865
a(S'[//]'
p866
g3
F0.228
tp867
a(S'guess'
p868
g6
F0.9858
tp869
a(S'what'
p870
g9
F0.9853
tp871
a(S'\xe2\x86\x91'
p872
g91
F0.4975
tp873
a(g238
g9
F0.9981
tp874
a(S'heard'
p875
g6
F0.9993
tp876
a(g16
g17
F0.9971
tp877
asI296
(lp878
(S'Crista'
p879
g3
F0.9433
tp880
a(g60
g17
F0.991
tp881
asI299
(lp882
(S'oh'
p883
g60
F0.9984
tp884
a(g23
g17
F0.9938
tp885
asI302
(lp886
(S'was'
p887
g6
F0.9964
tp888
a(S'that'
p889
g123
F0.7788
tp890
a(S'good'
p891
g21
F0.9812
tp892
a(S'Arlo'
p893
g3
F0.9988
tp894
a(g16
g17
F0.9966
tp895
asI306
(lp896
(S'&-um'
p897
g60
F0.9631
tp898
a(S'yeah'
p899
g60
F0.9989
tp900
a(g23
g17
F0.9975
tp901
asI309
(lp902
(S'anybody'
p903
g14
F0.9354
tp904
a(S'want'
p905
g6
F0.9942
tp906
a(S'sauce'
p907
g14
F0.9887
tp908
a(g78
g17
F0.9874
tp909
a(g80
g33
F0.5563
tp910
a(g82
g17
F0.4947
tp911
a(g16
g17
F0.9959
tp912
asI312
(lp913
(g86
g87
F0.9064
tp914
a(S'is'
p915
g6
F0.9993
tp916
a(S'this'
p917
g9
F0.5811
tp918
a(S'mine'
p919
g9
F0.9674
tp920
a(g80
g33
F0.6519
tp921
a(g78
g33
F0.535
tp922
a(g86
g87
F0.8293
tp923
a(g82
g17
F0.9835
tp924
a(S'dad'
p925
g14
F0.9671
tp926
a(g16
g17
F0.998
tp927
asI315
(lp928
(S'mom'
p929
g14
F0.8988
tp930
a(g23
g17
F0.9981
tp931
asI318
(lp932
(S'yeah'
p933
g60
F0.9986
tp934
a(g23
g17
F0.997
tp935
asI321
(lp936
(S'whatdya'
p937
g60
F0.3558
tp938
a(S'[:'
p939
g33
F0.9621
tp940
a(S'what'
p941
g9
F0.9934
tp942
a(S'do'
p943
g6
F0.9991
tp944
a(S'you'
p945
g9
F0.9987
tp946
a(g82
g17
F0.9964
tp947
a(S'want'
p948
g6
F0.9997
tp949
a(S'it'
p950
g9
F0.9928
tp951
a(S'on'
p952
g108
F0.6991
tp953
a(g16
g17
F0.997
tp954
asI324
(lp955
(S'rice'
p956
g14
F0.9187
tp957
a(g16
g17
F0.9968
tp958
asI327
(lp959
(S'how'
p960
g46
F0.9744
tp961
a(S'('
p962
g17
F0.9809
tp963
a(S'a)bout'
p964
g108
F0.9522
tp965
a(S'you'
p966
g9
F0.9993
tp967
a(g23
g17
F0.9995
tp968
asI330
(lp969
(S'what'
p970
g9
F0.9931
tp971
a(S'do'
p972
g6
F0.9993
tp973
a(S'you'
p974
g9
F0.9997
tp975
a(S'want'
p976
g6
F1.0
tp977
a(S'it'
p978
g9
F0.9877
tp979
a(S'on'
p980
g108
F0.6971
tp981
a(g16
g17
F0.9969
tp982
asI333
(lp983
(S"that's"
p984
g70
F0.9896
tp985
a(S'good'
p986
g21
F0.9992
tp987
a(g23
g17
F0.9981
tp988
asI336
(lp989
(S'what'
p990
g9
F0.9931
tp991
a(S'do'
p992
g6
F0.9993
tp993
a(S'you'
p994
g9
F0.9997
tp995
a(S'want'
p996
g6
F1.0
tp997
a(S'it'
p998
g9
F0.9877
tp999
a(S'on'
p1000
g108
F0.6971
tp1001
a(g16
g17
F0.9969
tp1002
asI339
(lp1003
(S'rice'
p1004
g14
F0.9451
tp1005
a(g23
g17
F0.9983
tp1006
asI342
(lp1007
(S'what'
p1008
g9
F0.9931
tp1009
a(S'do'
p1010
g6
F0.9993
tp1011
a(S'you'
p1012
g9
F0.9997
tp1013
a(S'want'
p1014
g6
F1.0
tp1015
a(S'it'
p1016
g9
F0.9877
tp1017
a(S'on'
p1018
g108
F0.6971
tp1019
a(g16
g17
F0.9969
tp1020
asI345
(lp1021
(g54
g54
F0.9893
tp1022
a(g56
g17
F0.8669
tp1023
a(S'laughs'
p1024
g6
F0.8696
tp1025
a(g23
g17
F0.9983
tp1026
asI346
(lp1027
(S'what'
p1028
g9
F0.9931
tp1029
a(S'do'
p1030
g6
F0.9993
tp1031
a(S'you'
p1032
g9
F0.9997
tp1033
a(S'want'
p1034
g6
F1.0
tp1035
a(S'it'
p1036
g9
F0.9877
tp1037
a(S'on'
p1038
g108
F0.6971
tp1039
a(g16
g17
F0.9969
tp1040
asI349
(lp1041
(S'xxx'
p1042
g33
F0.652
tp1043
a(S'wait'
p1044
g6
F0.9967
tp1045
a(g122
g123
F0.9965
tp1046
a(S'second'
p1047
g21
F0.787
tp1048
a(g23
g17
F0.9987
tp1049
asI352
(lp1050
(S"what's"
p1051
g70
F0.9911
tp1052
a(S'that'
p1053
g9
F0.7339
tp1054
a(g16
g17
F0.9981
tp1055
asI355
(lp1056
(S'you'
p1057
g9
F0.9983
tp1058
a(S'know'
p1059
g6
F0.9986
tp1060
a(S'what'
p1061
g9
F0.9639
tp1062
a(S'this'
p1063
g9
F0.9772
tp1064
a(S'is'
p1065
g6
F0.9962
tp1066
a(g16
g17
F0.9968
tp1067
asI359
(lp1068
(S'what'
p1069
g9
F0.9962
tp1070
a(S'is'
p1071
g6
F0.9994
tp1072
a(S'that'
p1073
g9
F0.9047
tp1074
a(S'Arlo'
p1075
g3
F0.9988
tp1076
a(g16
g17
F0.9966
tp1077
asI363
(lp1078
(S'teriyaki'
p1079
g14
F0.7476
tp1080
a(g23
g17
F0.9985
tp1081
asI366
(lp1082
(S'what'
p1083
g9
F0.8373
tp1084
a(S'kind'
p1085
g14
F0.9635
tp1086
a(S'of'
p1087
g108
F0.9963
tp1088
a(S'food'
p1089
g14
F0.9611
tp1090
a(S'is'
p1091
g6
F0.9977
tp1092
a(S'this'
p1093
g9
F0.8998
tp1094
a(S'that'
p1095
g108
F0.7714
tp1096
a(S"you're"
p1097
g70
F0.9742
tp1098
a(S'eating'
p1099
g6
F0.9923
tp1100
a(S'tonight'
p1101
g46
F0.5365
tp1102
a(g16
g17
F0.9979
tp1103
asI373
(lp1104
(S'huh'
p1105
g60
F0.9936
tp1106
a(g16
g17
F0.9967
tp1107
asI377
(lp1108
(S'rice'
p1109
g14
F0.9187
tp1110
a(g16
g17
F0.9968
tp1111
asI381
(lp1112
(S'chinese'
p1113
g21
F0.5955
tp1114
a(S'food'
p1115
g14
F0.9996
tp1116
a(g23
g17
F0.9982
tp1117
asI384
(lp1118
(S'chinese'
p1119
g21
F0.5955
tp1120
a(S'food'
p1121
g14
F0.9995
tp1122
a(g60
g17
F0.9984
tp1123
asI387
(lp1124
(S'chinese'
p1125
g21
F0.5955
tp1126
a(S'food'
p1127
g14
F0.9996
tp1128
a(g23
g17
F0.9982
tp1129
asI390
(lp1130
(S'chinese'
p1131
g21
F0.5955
tp1132
a(S'food'
p1133
g14
F0.9996
tp1134
a(g23
g17
F0.9982
tp1135
asI395
(lp1136
(S'Arlo'
p1137
g3
F0.997
tp1138
a(S"don't"
p1139
g6
F0.9996
tp1140
a(S'play'
p1141
g6
F0.9995
tp1142
a(S'with'
p1143
g108
F0.9993
tp1144
a(S'the'
p1145
g123
F0.9996
tp1146
a(S'fork'
p1147
g14
F0.9968
tp1148
a(g23
g17
F0.9983
tp1149
asI398
(lp1150
(S'(..)'
p1151
g33
F0.4824
tp1152
a(S'how'
p1153
g46
F0.9366
tp1154
a(S'is'
p1155
g6
F0.9989
tp1156
a(S'that'
p1157
g9
F0.9103
tp1158
a(g16
g17
F0.9987
tp1159
asI402
(lp1160
(S'good'
p1161
g21
F0.967
tp1162
a(g23
g17
F0.998
tp1163
asI405
(lp1164
(g238
g9
F0.994
tp1165
a(S'like'
p1166
g6
F0.9375
tp1167
a(S'it'
p1168
g9
F0.998
tp1169
a(g23
g17
F0.999
tp1170
asI408
(lp1171
(S'(..)'
p1172
g33
F0.3594
tp1173
a(S'give'
p1174
g6
F0.9993
tp1175
a(S'me'
p1176
g9
F0.9985
tp1177
a(S'that'
p1178
g108
F0.8745
tp1179
a(g238
g9
F0.9982
tp1180
a(S'like'
p1181
g6
F0.9237
tp1182
a(S'it'
p1183
g9
F0.9979
tp1184
a(g23
g17
F0.999
tp1185
asI411
(lp1186
(S'you'
p1187
g9
F0.9923
tp1188
a(S'like'
p1189
g6
F0.8738
tp1190
a(S'it'
p1191
g9
F0.9966
tp1192
a(g16
g17
F0.999
tp1193
asI414
(lp1194
(S'(..)'
p1195
g17
F0.4515
tp1196
a(S'you'
p1197
g9
F0.9936
tp1198
a(S'like'
p1199
g6
F0.7679
tp1200
a(S'shrimp'
p1201
g14
F0.9905
tp1202
a(S'Arlo'
p1203
g3
F0.9942
tp1204
a(g16
g17
F0.9951
tp1205
asI418
(lp1206
(g238
g9
F0.994
tp1207
a(S'like'
p1208
g6
F0.8529
tp1209
a(S'this'
p1210
g9
F0.9558
tp1211
a(S'too'
p1212
g46
F0.9799
tp1213
a(g23
g17
F0.9974
tp1214
asI421
(lp1215
(S'those'
p1216
g9
F0.6322
tp1217
a(S'are'
p1218
g6
F0.9893
tp1219
a(S'shrimp'
p1220
g14
F0.9923
tp1221
a(g23
g17
F0.9986
tp1222
asI424
(lp1223
(g238
g9
F0.994
tp1224
a(S'like'
p1225
g6
F0.803
tp1226
a(S'the'
p1227
g123
F0.9983
tp1228
a(S'shrimp'
p1229
g14
F0.9991
tp1230
a(g23
g17
F0.9987
tp1231
asI427
(lp1232
(S'that'
p1233
g123
F0.7214
tp1234
a(S'shrimp'
p1235
g14
F0.9969
tp1236
a(g16
g17
F0.9969
tp1237
asI430
(lp1238
(S'no'
p1239
g60
F0.6931
tp1240
a(S'this'
p1241
g9
F0.6074
tp1242
a(g78
g17
F0.9877
tp1243
a(g60
g17
F0.9922
tp1244
a(g82
g17
F0.985
tp1245
a(S'is'
p1246
g6
F0.9972
tp1247
a(S'shrimp'
p1248
g14
F0.9822
tp1249
a(g23
g17
F0.9987
tp1250
asI433
(lp1251
(S'xxx'
p1252
g33
F0.4267
tp1253
a(S'you'
p1254
g9
F0.9976
tp1255
a(S'can'
p1256
g6
F0.9997
tp1257
a(S'try'
p1258
g6
F0.9997
tp1259
a(S'it'
p1260
g9
F0.9842
tp1261
a(g23
g17
F0.9986
tp1262
asI436
(lp1263
(S'did'
p1264
g6
F0.9982
tp1265
a(S'my'
p1266
g123
F0.997
tp1267
a(S'sister'
p1268
g14
F0.9988
tp1269
a(S'call'
p1270
g6
F0.8798
tp1271
a(S'yet'
p1272
g46
F0.9536
tp1273
a(S'(.)'
p1274
g33
F0.3338
tp1275
a(S'Jessie'
p1276
g3
F0.9992
tp1277
a(g16
g17
F0.9959
tp1278
asI439
(lp1279
(S'which'
p1280
g123
F0.9901
tp1281
a(S'one'
p1282
g105
F0.8166
tp1283
a(g16
g17
F0.9957
tp1284
asI442
(lp1285
(S'Mommy'
p1286
g14
F0.4972
tp1287
a(S'can'
p1288
g6
F0.998
tp1289
a(g238
g9
F0.9993
tp1290
a(S'have'
p1291
g6
F0.9976
tp1292
a(S'one'
p1293
g105
F0.956
tp1294
a(S'more'
p1295
g21
F0.6294
tp1296
a(S'of'
p1297
g108
F0.9993
tp1298
a(S'this'
p1299
g9
F0.8247
tp1300
a(g16
g17
F0.9986
tp1301
asI448
(lp1302
(S'eat'
p1303
g6
F0.9018
tp1304
a(S"what's"
p1305
g70
F0.9845
tp1306
a(S'in'
p1307
g108
F0.9718
tp1308
a(S'your'
p1309
g123
F0.9936
tp1310
a(S'plate'
p1311
g14
F0.996
tp1312
a(S'first'
p1313
g46
F0.5853
tp1314
a(S'okay'
p1315
g21
F0.7237
tp1316
a(g16
g17
F0.9972
tp1317
asI455
(lp1318
(S'xxx'
p1319
g33
F0.5822
tp1320
a(g23
g17
F0.9648
tp1321
asI456
(lp1322
(S'you'
p1323
g9
F0.997
tp1324
a(S'eat'
p1325
g6
F0.9979
tp1326
a(S"what's"
p1327
g70
F0.9917
tp1328
a(S'on'
p1329
g108
F0.983
tp1330
a(S'your'
p1331
g123
F0.9945
tp1332
a(S'plate'
p1333
g14
F0.996
tp1334
a(S'first'
p1335
g21
F0.5116
tp1336
a(S'okay'
p1337
g21
F0.5021
tp1338
a(g16
g17
F0.9974
tp1339
asI463
(lp1340
(g238
g9
F0.9984
tp1341
a(S'hate'
p1342
g6
F0.9999
tp1343
a(S'that'
p1344
g9
F0.8599
tp1345
a(g23
g17
F0.9988
tp1346
asI466
(lp1347
(g238
g9
F0.9984
tp1348
a(S'hate'
p1349
g6
F0.9999
tp1350
a(S'that'
p1351
g9
F0.8599
tp1352
a(g23
g17
F0.9988
tp1353
asI469
(lp1354
(S'Arlo'
p1355
g3
F0.9976
tp1356
a(S'supposed'
p1357
g21
F0.8301
tp1358
a(S'to'
p1359
g108
F0.9976
tp1360
a(S'talk'
p1361
g6
F0.9945
tp1362
a(S'but'
p1363
g54
F0.9589
tp1364
a(S"he's"
p1365
g70
F0.9969
tp1366
a(S'not'
p1367
g46
F0.9977
tp1368
a(g23
g17
F0.9958
tp1369
asI474
(lp1370
(S'not'
p1371
g46
F0.9558
tp1372
a(g60
g17
F0.9958
tp1373
asI477
(lp1374
(S'Arlo'
p1375
g3
F0.996
tp1376
a(S'(.)'
p1377
g3
F0.6678
tp1378
a(S'talk'
p1379
g6
F0.7035
tp1380
a(g23
g17
F0.9982
tp1381
asI480
(lp1382
(S'Mommy'
p1383
g14
F0.4941
tp1384
a(S"I'm"
p1385
g70
F0.9922
tp1386
a(S'eating'
p1387
g6
F0.9876
tp1388
a(g60
g17
F0.998
tp1389
asI483
(lp1390
(S"that's"
p1391
g70
F0.9924
tp1392
a(S'why'
p1393
g46
F0.9774
tp1394
a(S'you'
p1395
g9
F0.9994
tp1396
a(S"can't"
p1397
g6
F0.9998
tp1398
a(S'talk'
p1399
g6
F0.9937
tp1400
a(g16
g17
F0.9974
tp1401
asI488
(lp1402
(S'uhhum'
p1403
g60
F0.9859
tp1404
a(g23
g17
F0.9962
tp1405
asI491
(lp1406
(S'Mom'
p1407
g14
F0.8271
tp1408
a(g86
g87
F0.3091
tp1409
a(S'can'
p1410
g6
F0.9996
tp1411
a(S'you'
p1412
g9
F0.9985
tp1413
a(S'put'
p1414
g6
F0.9982
tp1415
a(S'that'
p1416
g9
F0.7172
tp1417
a(g80
g17
F0.2914
tp1418
a(S'[//]'
p1419
g17
F0.2888
tp1420
a(S'can'
p1421
g6
F0.9997
tp1422
a(S'you'
p1423
g9
F0.9987
tp1424
a(S'put'
p1425
g6
F0.9919
tp1426
a(S'butter'
p1427
g14
F0.9783
tp1428
a(S'on'
p1429
g108
F0.9972
tp1430
a(S'that'
p1431
g9
F0.8573
tp1432
a(g16
g17
F0.9984
tp1433
asI496
(lp1434
(S'please'
p1435
g6
F0.7885
tp1436
a(g16
g17
F0.9975
tp1437
asI500
(lp1438
(S'please'
p1439
g6
F0.8368
tp1440
a(g23
g17
F0.9977
tp1441
asI503
(lp1442
(S'Arlo'
p1443
g3
F0.9967
tp1444
a(S'use'
p1445
g6
F0.9438
tp1446
a(S'this'
p1447
g9
F0.6226
tp1448
a(S'xxx'
p1449
g33
F0.3495
tp1450
a(S'like'
p1451
g108
F0.921
tp1452
a(g238
g9
F0.9994
tp1453
a(S'am'
p1454
g6
F0.9929
tp1455
a(g23
g17
F0.9979
tp1456
asI506
(lp1457
(S'Arlo'
p1458
g3
F0.997
tp1459
a(S"don't"
p1460
g6
F0.9997
tp1461
a(S'drop'
p1462
g6
F0.9994
tp1463
a(S'it'
p1464
g9
F0.9696
tp1465
a(S'on'
p1466
g108
F0.9766
tp1467
a(S'the'
p1468
g123
F0.9991
tp1469
a(S'floor'
p1470
g14
F0.9982
tp1471
a(g23
g17
F0.999
tp1472
asI511
(lp1473
(S'eat'
p1474
g6
F0.9018
tp1475
a(S"what's"
p1476
g70
F0.9845
tp1477
a(S'in'
p1478
g108
F0.9718
tp1479
a(S'your'
p1480
g123
F0.9936
tp1481
a(S'plate'
p1482
g14
F0.9948
tp1483
a(S'first'
p1484
g21
F0.7374
tp1485
a(g23
g17
F0.9985
tp1486
as.