(dp0
I0
(lp1
(S'good'
p2
S'A'
p3
F0.9644
tp4
asI1
(lp5
(S'chinese'
p6
g3
F0.5955
tp7
a(S'food'
p8
S'N'
p9
F0.999
tp10
asI2
(lp11
(S'xxx'
p12
S'E'
p13
F0.7114
tp14
a(S'eating'
p15
S'V'
p16
F0.9908
tp17
a(S'chinese'
p18
g3
F0.5925
tp19
a(S'food'
p20
g9
F0.9994
tp21
asI3
(lp22
(S'xxx'
p23
g13
F0.6137
tp24
a(S'there'
p25
S'R'
p26
F0.4342
tp27
asI4
(lp28
(S'chinese'
p29
g3
F0.5955
tp30
a(S'food'
p31
g9
F0.9994
tp32
a(S'shouts'
p33
g16
F0.7663
tp34
asI5
(lp35
(S'don'
p36
S'^'
p37
F0.4468
tp38
a(S't'
p39
g37
F0.4075
tp40
a(S'yell'
p41
g16
F0.6949
tp42
asI6
(lp43
(S'you'
p44
S'O'
p45
F0.9754
tp46
a(S're'
p47
g16
F0.7607
tp48
a(S'eating'
p49
g16
F0.9939
tp50
a(S'chinese'
p51
g3
F0.6741
tp52
a(S'food'
p53
g9
F0.999
tp54
asI7
(lp55
(S'mommy'
p56
g9
F0.5428
tp57
a(S'can'
p58
g16
F0.9995
tp59
a(S'you'
p60
g45
F0.9986
tp61
a(S'give'
p62
g16
F0.9999
tp63
a(S'me'
p64
g45
F0.967
tp65
a(S'one'
p66
S'$'
p67
F0.985
tp68
a(S'of'
p69
S'P'
p70
F0.9992
tp71
a(S'those'
p72
g45
F0.5534
tp73
asI8
(lp74
(S'can'
p75
g16
F0.999
tp76
a(S'you'
p77
g45
F0.9986
tp78
a(S'give'
p79
g16
F0.9999
tp80
a(S'me'
p81
g45
F0.9958
tp82
a(S'a'
p83
S'D'
p84
F0.9921
tp85
a(S'plate'
p86
g9
F0.998
tp87
asI9
(lp88
(S'please'
p89
g16
F0.8246
tp90
asI10
(lp91
(S'please'
p92
g16
F0.8246
tp93
asI11
(lp94
(S'i'
p95
g45
F0.9586
tp96
a(S'm'
p97
g16
F0.9847
tp98
a(S'starving'
p99
g16
F0.9658
tp100
asI12
(lp101
(S'ah'
p102
S'!'
p103
F0.9549
tp104
a(S'the'
p105
g84
F0.9956
tp106
a(S'blue'
p107
g3
F0.9456
tp108
a(S'one'
p109
g67
F0.7743
tp110
a(S'the'
p111
g84
F0.9964
tp112
a(S'blue'
p113
g3
F0.9619
tp114
a(S'one'
p115
g67
F0.8094
tp116
asI13
(lp117
(S'oops'
p118
g103
F0.9905
tp119
asI14
(lp120
(S'xxx'
p121
g13
F0.5798
tp122
a(S'the'
p123
g84
F0.995
tp124
a(S'blue'
p125
g3
F0.9438
tp126
a(S'one'
p127
g67
F0.7317
tp128
asI15
(lp129
(S'can'
p130
g16
F0.999
tp131
a(S'you'
p132
g45
F0.9986
tp133
a(S'give'
p134
g16
F0.9999
tp135
a(S'me'
p136
g45
F0.9609
tp137
a(S'one'
p138
g67
F0.9788
tp139
a(S'of'
p140
g70
F0.9991
tp141
a(S'those'
p142
g84
F0.5826
tp143
asI16
(lp144
(S'in'
p145
g70
F0.9537
tp146
a(g83
g84
F0.9956
tp147
a(S'minute'
p148
g9
F0.9741
tp149
asI17
(lp150
(S'please'
p151
g16
F0.9415
tp152
a(S'can'
p153
g16
F0.9998
tp154
a(S'you'
p155
g45
F0.9986
tp156
a(S'give'
p157
g16
F0.9999
tp158
a(S'me'
p159
g45
F0.9961
tp160
a(g83
g84
F0.99
tp161
a(S'plate'
p162
g9
F0.9976
tp163
asI18
(lp164
(S'just'
p165
g26
F0.9981
tp166
a(g83
g84
F0.9872
tp167
a(S'minute'
p168
g9
F0.9333
tp169
a(S'arlo'
p170
g37
F0.9216
tp171
asI19
(lp172
(S'what'
p173
g45
F0.9962
tp174
a(S'is'
p175
g16
F0.9987
tp176
a(S'in'
p177
g70
F0.9455
tp178
a(S'there'
p179
g26
F0.5423
tp180
asI20
(lp181
(S'xxx'
p182
g13
F0.6042
tp183
a(S'that'
p184
g70
F0.5392
tp185
a(S's'
p186
S'G'
p187
F0.4648
tp188
a(S'salad'
p189
g9
F0.978
tp190
asI21
(lp191
(g95
g45
F0.9897
tp192
a(S'want'
p193
g16
F0.9997
tp194
a(S'one'
p195
g67
F0.9488
tp196
a(S'of'
p197
g70
F0.9991
tp198
a(S'those'
p199
g84
F0.5069
tp200
asI22
(lp201
(g95
g45
F0.9635
tp202
a(S'don'
p203
g16
F0.9231
tp204
a(g39
g9
F0.3191
tp205
a(S'got'
p206
g16
F0.996
tp207
a(g83
g84
F0.9985
tp208
a(S'plate'
p209
g9
F0.998
tp210
asI23
(lp211
(S'xxx'
p212
g13
F0.8437
tp213
asI24
(lp214
(S'xxx'
p215
g13
F0.8437
tp216
asI25
(lp217
(S'that'
p218
g45
F0.473
tp219
a(g186
g187
F0.4291
tp220
a(S'so'
p221
g26
F0.9041
tp222
a(S'hungry'
p223
g3
F0.9416
tp224
a(S'can'
p225
g16
F0.8812
tp226
a(g95
g45
F0.9868
tp227
a(S'have'
p228
g16
F0.9985
tp229
a(S'one'
p230
g67
F0.9519
tp231
a(S'of'
p232
g70
F0.9989
tp233
a(S'these'
p234
g84
F0.7672
tp235
asI26
(lp236
(S'wait'
p237
g16
F0.9922
tp238
a(g83
g84
F0.9943
tp239
a(S'minute'
p240
g9
F0.9333
tp241
a(S'arlo'
p242
g37
F0.9315
tp243
a(S'wait'
p244
g16
F0.9842
tp245
asI27
(lp246
(S'xxx'
p247
g13
F0.8437
tp248
asI28
(lp249
(S'just'
p250
g26
F0.9979
tp251
a(g83
g84
F0.9872
tp252
a(S'minute'
p253
g9
F0.9741
tp254
asI29
(lp255
(S'jessie'
p256
g37
F0.9985
tp257
a(S'come'
p258
g16
F0.975
tp259
a(S'and'
p260
S'&'
p261
F0.9926
tp262
a(S'eat'
p263
g16
F0.9602
tp264
asI30
(lp265
(S'xxx'
p266
g13
F0.8437
tp267
asI31
(lp268
(S'are'
p269
g16
F0.9928
tp270
a(S'those'
p271
g45
F0.7802
tp272
a(S'all'
p273
g84
F0.9785
tp274
a(S'shrimp'
p275
g9
F0.9807
tp276
a(S'honey'
p277
g9
F0.9649
tp278
asI32
(lp279
(S'mommy'
p280
g9
F0.7607
tp281
a(g95
g45
F0.9555
tp282
a(S'want'
p283
g16
F0.9998
tp284
a(S'one'
p285
g67
F0.9706
tp286
a(S'of'
p287
g70
F0.9991
tp288
a(S'those'
p289
g84
F0.9721
tp290
a(S'big'
p291
g3
F0.9931
tp292
a(S'things'
p293
g9
F0.9984
tp294
asI33
(lp295
(S'shh'
p296
g103
F0.9933
tp297
asI34
(lp298
(S'xxx'
p299
g13
F0.8437
tp300
asI35
(lp301
(S'mommy'
p302
g103
F0.3225
tp303
a(S'what'
p304
g45
F0.9764
tp305
a(g186
g16
F0.4534
tp306
a(S'those'
p307
g45
F0.6379
tp308
asI36
(lp309
(S'no'
p310
g103
F0.6532
tp311
a(g95
g45
F0.9612
tp312
a(S'want'
p313
g16
F0.9998
tp314
a(S'one'
p315
g67
F0.9706
tp316
a(S'of'
p317
g70
F0.9994
tp318
a(S'the'
p319
g84
F0.9995
tp320
a(S'big'
p321
g3
F0.9837
tp322
a(S'things'
p323
g9
F0.9984
tp324
asI37
(lp325
(S'shrimp'
p326
g9
F0.9676
tp327
asI38
(lp328
(S'yeah'
p329
g103
F0.9968
tp330
a(g95
g45
F0.9966
tp331
a(S'want'
p332
g16
F0.9998
tp333
a(S'shrimp'
p334
g9
F0.9897
tp335
asI39
(lp336
(g95
g45
F0.9902
tp337
a(S'want'
p338
g16
F0.9999
tp339
a(S'those'
p340
g45
F0.6164
tp341
asI40
(lp342
(S'mommy'
p343
g9
F0.5271
tp344
asI41
(lp345
(g95
g45
F0.9897
tp346
a(S'want'
p347
g16
F1.0
tp348
a(g83
g84
F0.9971
tp349
a(S'shrimp'
p350
g9
F0.9974
tp351
a(S'xxx'
p352
g13
F0.779
tp353
asI42
(lp354
(S'mm'
p355
g103
F0.627
tp356
asI43
(lp357
(S'coughs'
p358
g9
F0.5349
tp359
asI44
(lp360
(S'mommy'
p361
g9
F0.4798
tp362
a(S'this'
p363
g45
F0.9413
tp364
a(S'is'
p365
g16
F0.9977
tp366
a(S'good'
p367
g3
F0.998
tp368
asI45
(lp369
(g95
g45
F0.9891
tp370
a(S'ate'
p371
g16
F0.9997
tp372
a(S'this'
p373
g45
F0.8635
tp374
a(S'before'
p375
g70
F0.8122
tp376
a(S'over'
p377
g9
F0.3554
tp378
a(S'at'
p379
g70
F0.9932
tp380
a(S'pepe'
p381
g37
F0.9996
tp382
a(g186
g187
F0.8028
tp383
asI46
(lp384
(S'what'
p385
g45
F0.9835
tp386
a(S'are'
p387
g16
F0.9978
tp388
a(S'you'
p389
g45
F0.9994
tp390
a(S'eating'
p391
g16
F0.9991
tp392
a(S'arlo'
p393
g37
F0.9814
tp394
asI47
(lp395
(S'right'
p396
g103
F0.861
tp397
asI48
(lp398
(g95
g45
F0.9635
tp399
a(S'don'
p400
g16
F0.9156
tp401
a(g39
g9
F0.3074
tp402
a(S'know'
p403
g16
F0.965
tp404
asI49
(lp405
(S'teriyaki'
p406
g9
F0.5678
tp407
a(S'that'
p408
g70
F0.9127
tp409
a(g186
g187
F0.5466
tp410
a(S'teriyaki'
p411
g9
F0.7804
tp412
asI50
(lp413
(S'teriyaki'
p414
g9
F0.6459
tp415
asI51
(lp416
(S'what'
p417
g45
F0.9931
tp418
a(S'does'
p419
g16
F0.9973
tp420
a(S'steve'
p421
g37
F0.9299
tp422
a(S'give'
p423
g16
F0.9977
tp424
a(S'me'
p425
g45
F0.9983
tp426
asI52
(lp427
(S'chicken'
p428
g9
F0.7024
tp429
asI53
(lp430
(S'chicken'
p431
g9
F0.7024
tp432
asI54
(lp433
(S'is'
p434
g16
F0.9899
tp435
a(S'steve'
p436
g37
F0.8216
tp437
a(S'gone'
p438
g16
F0.8281
tp439
asI55
(lp440
(S'what'
p441
g45
F0.9784
tp442
a(g186
g16
F0.4265
tp443
a(S'in'
p444
g70
F0.8818
tp445
a(S'there'
p446
g26
F0.5423
tp447
asI56
(lp448
(S'steve'
p449
g37
F0.9876
tp450
a(S'know'
p451
g16
F0.9794
tp452
a(S'what'
p453
g45
F0.9936
tp454
a(g186
g187
F0.5523
tp455
a(S'in'
p456
g70
F0.9704
tp457
a(S'there'
p458
g26
F0.5783
tp459
asI57
(lp460
(S'yeah'
p461
g103
F0.9988
tp462
asI58
(lp463
(S'that'
p464
g45
F0.473
tp465
a(g186
g16
F0.509
tp466
a(S'the'
p467
g84
F0.999
tp468
a(S'rice'
p469
g9
F0.9811
tp470
asI59
(lp471
(g95
g45
F0.9897
tp472
a(S'want'
p473
g16
F0.9999
tp474
a(S'some'
p475
g84
F0.9914
tp476
a(S'rice'
p477
g9
F0.9808
tp478
asI60
(lp479
(S'xxx'
p480
g13
F0.5798
tp481
a(S'the'
p482
g84
F0.9973
tp483
a(S'box'
p484
g9
F0.9901
tp485
a(S'please'
p486
g16
F0.9557
tp487
asI61
(lp488
(S'you'
p489
g45
F0.998
tp490
a(S'want'
p491
g16
F0.9999
tp492
a(S'some'
p493
g84
F0.9914
tp494
a(S'rice'
p495
g9
F0.9767
tp496
a(S'please'
p497
g16
F0.9688
tp498
asI62
(lp499
(S'please'
p500
g16
F0.9415
tp501
a(S'can'
p502
g16
F0.9967
tp503
a(g95
g45
F0.9862
tp504
a(S'have'
p505
g16
F0.9998
tp506
a(S'some'
p507
g84
F0.9956
tp508
a(S'rice'
p509
g9
F0.9695
tp510
asI63
(lp511
(S'xxx'
p512
g13
F0.565
tp513
a(S'clean'
p514
g3
F0.6507
tp515
a(S'the'
p516
g84
F0.999
tp517
a(S'car'
p518
g9
F0.997
tp519
asI64
(lp520
(S'sit'
p521
g16
F0.9825
tp522
a(S'down'
p523
S'T'
p524
F0.8756
tp525
a(S'please'
p526
g16
F0.9301
tp527
asI65
(lp528
(S'no'
p529
g103
F0.6532
tp530
a(g95
g45
F0.9473
tp531
a(S'putting'
p532
g16
F0.9999
tp533
a(S'with'
p534
g70
F0.9993
tp535
a(S'the'
p536
g84
F0.9993
tp537
a(S'teriyaki'
p538
g9
F0.8968
tp539
a(S'on'
p540
g70
F0.9973
tp541
a(S'there'
p542
g26
F0.4958
tp543
a(S'chuckles'
p544
g16
F0.942
tp545
asI66
(lp546
(S'don'
p547
g37
F0.4468
tp548
a(g39
g187
F0.4162
tp549
asI67
(lp550
(S'don'
p551
g37
F0.5427
tp552
a(g39
g16
F0.2844
tp553
a(S'that'
p554
g45
F0.5757
tp555
a(g186
g16
F0.4434
tp556
a(S'not'
p557
g26
F0.9972
tp558
a(S'mommy'
p559
g9
F0.5682
tp560
a(g186
g187
F0.8606
tp561
asI68
(lp562
(S'why'
p563
g26
F0.9573
tp564
a(S'you'
p565
g45
F0.9992
tp566
a(S'put'
p567
g16
F0.9994
tp568
a(S'it'
p569
g45
F0.9692
tp570
a(S'on'
p571
g524
F0.5641
tp572
asI69
(lp573
(S'that'
p574
g45
F0.473
tp575
a(g186
g16
F0.8206
tp576
a(S'yours'
p577
g45
F0.9525
tp578
a(S'jessie'
p579
g37
F0.9909
tp580
asI70
(lp581
(S'thank'
p582
g16
F0.9631
tp583
a(S'you'
p584
g45
F0.9987
tp585
asI71
(lp586
(S'xxx'
p587
g13
F0.5702
tp588
a(S'for'
p589
g70
F0.9974
tp590
a(S'christa'
p591
g37
F0.997
tp592
a(S'one'
p593
g67
F0.9769
tp594
a(S'for'
p595
g70
F0.9991
tp596
a(S'arlo'
p597
g37
F0.9846
tp598
a(S'one'
p599
g67
F0.9769
tp600
a(S'for'
p601
g70
F0.9987
tp602
a(S'mom'
p603
g9
F0.7316
tp604
a(S'one'
p605
g67
F0.9832
tp606
a(S'for'
p607
g70
F0.9985
tp608
asI72
(lp609
(S'jessie'
p610
g37
F0.9967
tp611
a(S'shamu'
p612
g37
F0.945
tp613
asI73
(lp614
(S'shamu'
p615
g37
F0.759
tp616
asI74
(lp617
(S'rice'
p618
g9
F0.9127
tp619
asI75
(lp620
(S'rice'
p621
g9
F0.9127
tp622
asI76
(lp623
(S'watch'
p624
g16
F0.9883
tp625
a(S'out'
p626
g524
F0.8364
tp627
a(S'arlo'
p628
g37
F0.9889
tp629
asI77
(lp630
(S'xxx'
p631
g13
F0.8437
tp632
asI78
(lp633
(S'xxx'
p634
g13
F0.8437
tp635
asI79
(lp636
(S'could'
p637
g16
F0.9986
tp638
a(S'you'
p639
g45
F0.999
tp640
a(S'get'
p641
g16
F1.0
tp642
a(S'me'
p643
g45
F0.9981
tp644
a(S'the'
p645
g84
F0.9981
tp646
a(S'butter'
p647
g9
F0.9802
tp648
a(S'please'
p649
g16
F0.9472
tp650
asI80
(lp651
(S'mom'
p652
g9
F0.8909
tp653
a(g95
g45
F0.8369
tp654
a(S'don'
p655
g16
F0.9187
tp656
a(g39
g187
F0.2928
tp657
a(S'like'
p658
g70
F0.8645
tp659
a(S'this'
p660
g45
F0.9025
tp661
asI81
(lp662
(S'just'
p663
g26
F0.9991
tp664
a(S'leave'
p665
g16
F0.9994
tp666
a(S'it'
p667
g45
F0.9855
tp668
a(S'on'
p669
g70
F0.9648
tp670
a(S'your'
p671
g84
F0.9944
tp672
a(S'plate'
p673
g9
F0.9986
tp674
asI82
(lp675
(S'xxx'
p676
g13
F0.8437
tp677
asI83
(lp678
(S'can'
p679
g16
F0.999
tp680
a(S'you'
p681
g45
F0.9987
tp682
a(S'eat'
p683
g16
F0.9995
tp684
a(S'that'
p685
g70
F0.6855
tp686
a(S'all'
p687
g84
F0.966
tp688
a(S'mommy'
p689
g9
F0.8761
tp690
asI84
(lp691
(S'it'
p692
g45
F0.9888
tp693
a(g186
g16
F0.6103
tp694
a(S'better'
p695
g3
F0.8831
tp696
a(S'than'
p697
g70
F0.9831
tp698
a(S'nothing'
p699
g9
F0.9905
tp700
asI85
(lp701
(S'that'
p702
g70
F0.6793
tp703
a(S'all'
p704
S'X'
p705
F0.4767
tp706
a(S'that'
p707
g84
F0.9588
tp708
a(S'rice'
p709
g9
F0.9875
tp710
asI86
(lp711
(S'yes'
p712
g103
F0.9958
tp713
asI87
(lp714
(S'oh'
p715
g103
F0.9932
tp716
a(S'jessie'
p717
g37
F0.9988
tp718
a(S'guess'
p719
g16
F0.9871
tp720
a(S'what'
p721
g45
F0.9807
tp722
a(g95
g45
F0.9941
tp723
a(S'guess'
p724
g16
F0.9997
tp725
a(S'what'
p726
g45
F0.979
tp727
a(g95
g45
F0.9968
tp728
a(S'heard'
p729
g16
F0.9995
tp730
asI88
(lp731
(S'crista'
p732
g37
F0.8922
tp733
asI89
(lp734
(S'oh'
p735
g103
F0.9988
tp736
asI90
(lp737
(S'was'
p738
g16
F0.9964
tp739
a(S'that'
p740
g84
F0.7608
tp741
a(S'good'
p742
g3
F0.9812
tp743
a(S'arlo'
p744
g37
F0.9742
tp745
asI91
(lp746
(S'um'
p747
g103
F0.9786
tp748
a(S'yeah'
p749
g103
F0.9985
tp750
asI92
(lp751
(S'anybody'
p752
g9
F0.9578
tp753
a(S'want'
p754
g16
F0.9922
tp755
a(S'sauce'
p756
g9
F0.9889
tp757
asI93
(lp758
(S'is'
p759
g16
F0.9983
tp760
a(S'this'
p761
g45
F0.6187
tp762
a(S'mine'
p763
g45
F0.7254
tp764
a(S'dad'
p765
g9
F0.9045
tp766
asI94
(lp767
(S'mom'
p768
g9
F0.7188
tp769
asI95
(lp770
(S'yeah'
p771
g103
F0.9988
tp772
asI96
(lp773
(S'whatdya'
p774
g103
F0.4137
tp775
a(S'what'
p776
g45
F0.9926
tp777
a(S'do'
p778
g16
F0.9993
tp779
a(S'you'
p780
g45
F0.9996
tp781
a(S'want'
p782
g16
F1.0
tp783
a(S'it'
p784
g45
F0.9892
tp785
a(S'on'
p786
g70
F0.6441
tp787
asI97
(lp788
(S'rice'
p789
g9
F0.9127
tp790
asI98
(lp791
(S'how'
p792
g26
F0.9647
tp793
a(g83
g84
F0.9714
tp794
a(S'bout'
p795
g70
F0.6745
tp796
a(S'you'
p797
g45
F0.9985
tp798
asI99
(lp799
(S'what'
p800
g45
F0.9931
tp801
a(S'do'
p802
g16
F0.9993
tp803
a(S'you'
p804
g45
F0.9997
tp805
a(S'want'
p806
g16
F0.9999
tp807
a(S'it'
p808
g45
F0.9877
tp809
a(S'on'
p810
g70
F0.58
tp811
asI100
(lp812
(S'that'
p813
g45
F0.4727
tp814
a(g186
g16
F0.4689
tp815
a(S'good'
p816
g3
F0.991
tp817
asI101
(lp818
(S'what'
p819
g45
F0.9931
tp820
a(S'do'
p821
g16
F0.9993
tp822
a(S'you'
p823
g45
F0.9997
tp824
a(S'want'
p825
g16
F0.9999
tp826
a(S'it'
p827
g45
F0.9877
tp828
a(S'on'
p829
g70
F0.58
tp830
asI102
(lp831
(S'rice'
p832
g9
F0.9127
tp833
asI103
(lp834
(S'what'
p835
g45
F0.9931
tp836
a(S'do'
p837
g16
F0.9993
tp838
a(S'you'
p839
g45
F0.9997
tp840
a(S'want'
p841
g16
F0.9999
tp842
a(S'it'
p843
g45
F0.9877
tp844
a(S'on'
p845
g70
F0.58
tp846
asI104
(lp847
(S'laughs'
p848
g16
F0.9102
tp849
asI105
(lp850
(S'what'
p851
g45
F0.9931
tp852
a(S'do'
p853
g16
F0.9993
tp854
a(S'you'
p855
g45
F0.9997
tp856
a(S'want'
p857
g16
F0.9999
tp858
a(S'it'
p859
g45
F0.9877
tp860
a(S'on'
p861
g70
F0.58
tp862
asI106
(lp863
(S'xxx'
p864
g13
F0.652
tp865
a(S'wait'
p866
g16
F0.9957
tp867
a(g83
g84
F0.9965
tp868
a(S'second'
p869
g3
F0.8385
tp870
asI107
(lp871
(S'what'
p872
g45
F0.9739
tp873
a(g186
g16
F0.4505
tp874
a(S'that'
p875
g45
F0.8603
tp876
asI108
(lp877
(S'you'
p878
g45
F0.9983
tp879
a(S'know'
p880
g16
F0.9986
tp881
a(S'what'
p882
g45
F0.973
tp883
a(S'this'
p884
g45
F0.9772
tp885
a(S'is'
p886
g16
F0.9969
tp887
asI109
(lp888
(S'what'
p889
g45
F0.9962
tp890
a(S'is'
p891
g16
F0.9992
tp892
a(S'that'
p893
g45
F0.9047
tp894
a(S'arlo'
p895
g37
F0.9714
tp896
asI110
(lp897
(S'teriyaki'
p898
g9
F0.6459
tp899
asI111
(lp900
(S'what'
p901
g45
F0.8373
tp902
a(S'kind'
p903
g9
F0.9635
tp904
a(S'of'
p905
g70
F0.9963
tp906
a(S'food'
p907
g9
F0.9611
tp908
a(S'is'
p909
g16
F0.9977
tp910
a(S'this'
p911
g45
F0.8998
tp912
a(S'that'
p913
g70
F0.8584
tp914
a(S'you'
p915
g45
F0.9969
tp916
a(S're'
p917
g16
F0.7085
tp918
a(S'eating'
p919
g16
F0.994
tp920
a(S'tonight'
p921
g9
F0.6406
tp922
asI112
(lp923
(S'huh'
p924
g103
F0.993
tp925
asI113
(lp926
(S'rice'
p927
g9
F0.9127
tp928
asI114
(lp929
(S'chinese'
p930
g3
F0.5955
tp931
a(S'food'
p932
g9
F0.999
tp933
asI115
(lp934
(S'chinese'
p935
g3
F0.5955
tp936
a(S'food'
p937
g9
F0.999
tp938
asI116
(lp939
(S'chinese'
p940
g3
F0.5955
tp941
a(S'food'
p942
g9
F0.999
tp943
asI117
(lp944
(S'chinese'
p945
g3
F0.5955
tp946
a(S'food'
p947
g9
F0.999
tp948
asI118
(lp949
(S'arlo'
p950
g37
F0.9957
tp951
a(S'don'
p952
g37
F0.8194
tp953
a(g39
g37
F0.5692
tp954
a(S'play'
p955
g16
F0.9368
tp956
a(S'with'
p957
g70
F0.999
tp958
a(S'the'
p959
g84
F0.9994
tp960
a(S'fork'
p961
g9
F0.9908
tp962
asI119
(lp963
(S'how'
p964
g26
F0.9016
tp965
a(S'is'
p966
g16
F0.9985
tp967
a(S'that'
p968
g45
F0.9565
tp969
asI120
(lp970
(S'good'
p971
g3
F0.9644
tp972
asI121
(lp973
(g95
g45
F0.9718
tp974
a(S'like'
p975
g16
F0.8854
tp976
a(S'it'
p977
g45
F0.9985
tp978
asI122
(lp979
(S'give'
p980
g16
F0.9985
tp981
a(S'me'
p982
g45
F0.9986
tp983
a(S'that'
p984
g70
F0.4207
tp985
a(g95
g45
F0.9877
tp986
a(S'like'
p987
g16
F0.9329
tp988
a(S'it'
p989
g45
F0.9985
tp990
asI123
(lp991
(S'you'
p992
g45
F0.9876
tp993
a(S'like'
p994
g16
F0.8738
tp995
a(S'it'
p996
g45
F0.9985
tp997
asI124
(lp998
(S'you'
p999
g45
F0.9923
tp1000
a(S'like'
p1001
g16
F0.675
tp1002
a(S'shrimp'
p1003
g9
F0.9921
tp1004
a(S'arlo'
p1005
g37
F0.864
tp1006
asI125
(lp1007
(g95
g45
F0.9708
tp1008
a(S'like'
p1009
g16
F0.7402
tp1010
a(S'this'
p1011
g45
F0.9558
tp1012
a(S'too'
p1013
g26
F0.9564
tp1014
asI126
(lp1015
(S'those'
p1016
g45
F0.6273
tp1017
a(S'are'
p1018
g16
F0.9893
tp1019
a(S'shrimp'
p1020
g9
F0.9863
tp1021
asI127
(lp1022
(g95
g45
F0.9708
tp1023
a(S'like'
p1024
g16
F0.6661
tp1025
a(S'the'
p1026
g84
F0.9983
tp1027
a(S'shrimp'
p1028
g9
F0.9971
tp1029
asI128
(lp1030
(S'that'
p1031
g84
F0.7214
tp1032
a(S'shrimp'
p1033
g9
F0.9968
tp1034
asI129
(lp1035
(S'no'
p1036
g103
F0.6931
tp1037
a(S'this'
p1038
g45
F0.941
tp1039
a(S'is'
p1040
g16
F0.9952
tp1041
a(S'shrimp'
p1042
g9
F0.9817
tp1043
asI130
(lp1044
(S'xxx'
p1045
g13
F0.4267
tp1046
a(S'you'
p1047
g45
F0.9976
tp1048
a(S'can'
p1049
g16
F0.9997
tp1050
a(S'try'
p1051
g16
F0.9997
tp1052
a(S'it'
p1053
g45
F0.9871
tp1054
asI131
(lp1055
(S'did'
p1056
g16
F0.9982
tp1057
a(S'my'
p1058
g84
F0.997
tp1059
a(S'sister'
p1060
g9
F0.9988
tp1061
a(S'call'
p1062
g16
F0.7607
tp1063
a(S'yet'
p1064
g26
F0.9617
tp1065
a(S'jessie'
p1066
g37
F0.9948
tp1067
asI132
(lp1068
(S'which'
p1069
g84
F0.9901
tp1070
a(S'one'
p1071
g67
F0.7682
tp1072
asI133
(lp1073
(S'mommy'
p1074
g9
F0.5428
tp1075
a(S'can'
p1076
g16
F0.9939
tp1077
a(g95
g45
F0.9862
tp1078
a(S'have'
p1079
g16
F0.9982
tp1080
a(S'one'
p1081
g67
F0.956
tp1082
a(S'more'
p1083
g3
F0.6209
tp1084
a(S'of'
p1085
g70
F0.9993
tp1086
a(S'this'
p1087
g45
F0.6355
tp1088
asI134
(lp1089
(S'eat'
p1090
g16
F0.8777
tp1091
a(S'what'
p1092
g45
F0.9901
tp1093
a(g186
g16
F0.4685
tp1094
a(S'in'
p1095
g70
F0.9774
tp1096
a(S'your'
p1097
g84
F0.9936
tp1098
a(S'plate'
p1099
g9
F0.9955
tp1100
a(S'first'
p1101
g3
F0.5116
tp1102
a(S'okay'
p1103
g103
F0.6392
tp1104
asI135
(lp1105
(S'xxx'
p1106
g13
F0.8437
tp1107
asI136
(lp1108
(S'you'
p1109
g45
F0.997
tp1110
a(S'eat'
p1111
g16
F0.9978
tp1112
a(S'what'
p1113
g45
F0.9899
tp1114
a(g186
g187
F0.4286
tp1115
a(S'on'
p1116
g70
F0.9937
tp1117
a(S'your'
p1118
g84
F0.9945
tp1119
a(S'plate'
p1120
g9
F0.9953
tp1121
a(S'first'
p1122
g26
F0.5248
tp1123
a(S'okay'
p1124
g103
F0.6034
tp1125
asI137
(lp1126
(g95
g45
F0.9912
tp1127
a(S'hate'
p1128
g16
F0.9999
tp1129
a(S'that'
p1130
g45
F0.7357
tp1131
asI138
(lp1132
(g95
g45
F0.9912
tp1133
a(S'hate'
p1134
g16
F0.9999
tp1135
a(S'that'
p1136
g45
F0.7357
tp1137
asI139
(lp1138
(S'arlo'
p1139
g37
F0.9949
tp1140
a(S'supposed'
p1141
g3
F0.8301
tp1142
a(S'to'
p1143
g70
F0.9976
tp1144
a(S'talk'
p1145
g16
F0.9945
tp1146
a(S'but'
p1147
g261
F0.9396
tp1148
a(S'he'
p1149
g45
F0.997
tp1150
a(g186
g16
F0.6917
tp1151
a(S'not'
p1152
g26
F0.9923
tp1153
asI140
(lp1154
(S'not'
p1155
g26
F0.9628
tp1156
asI141
(lp1157
(S'arlo'
p1158
g37
F0.99
tp1159
a(S'talk'
p1160
g16
F0.8851
tp1161
asI142
(lp1162
(S'mommy'
p1163
g9
F0.7607
tp1164
a(g95
g45
F0.8587
tp1165
a(g97
g16
F0.9828
tp1166
a(S'eating'
p1167
g16
F0.9866
tp1168
asI143
(lp1169
(S'that'
p1170
g45
F0.473
tp1171
a(g186
g187
F0.472
tp1172
a(S'why'
p1173
g26
F0.9575
tp1174
a(S'you'
p1175
g45
F0.9994
tp1176
a(S'can'
p1177
g16
F0.9995
tp1178
a(g39
g16
F0.7416
tp1179
a(S'talk'
p1180
g16
F0.91
tp1181
asI144
(lp1182
(S'uhhum'
p1183
g103
F0.9859
tp1184
asI145
(lp1185
(S'mom'
p1186
g9
F0.8391
tp1187
a(S'can'
p1188
g16
F0.9996
tp1189
a(S'you'
p1190
g45
F0.9987
tp1191
a(S'put'
p1192
g16
F0.9981
tp1193
a(S'that'
p1194
g45
F0.7401
tp1195
a(S'can'
p1196
g16
F0.9999
tp1197
a(S'you'
p1198
g45
F0.9987
tp1199
a(S'put'
p1200
g16
F0.9919
tp1201
a(S'butter'
p1202
g9
F0.9835
tp1203
a(S'on'
p1204
g70
F0.9983
tp1205
a(S'that'
p1206
g45
F0.8141
tp1207
asI146
(lp1208
(S'please'
p1209
g16
F0.8246
tp1210
asI147
(lp1211
(S'please'
p1212
g16
F0.8246
tp1213
asI148
(lp1214
(S'arlo'
p1215
g37
F0.9926
tp1216
a(S'use'
p1217
g16
F0.9438
tp1218
a(S'this'
p1219
g45
F0.6226
tp1220
a(S'xxx'
p1221
g13
F0.3495
tp1222
a(S'like'
p1223
g70
F0.7468
tp1224
a(g95
g45
F0.997
tp1225
a(S'am'
p1226
g16
F0.994
tp1227
asI149
(lp1228
(S'arlo'
p1229
g37
F0.9957
tp1230
a(S'don'
p1231
g37
F0.8194
tp1232
a(g39
g37
F0.5364
tp1233
a(S'drop'
p1234
g16
F0.9819
tp1235
a(S'it'
p1236
g45
F0.9771
tp1237
a(S'on'
p1238
g70
F0.9785
tp1239
a(S'the'
p1240
g84
F0.9994
tp1241
a(S'floor'
p1242
g9
F0.9943
tp1243
asI150
(lp1244
(S'eat'
p1245
g16
F0.8777
tp1246
a(S'what'
p1247
g45
F0.9901
tp1248
a(g186
g16
F0.4685
tp1249
a(S'in'
p1250
g70
F0.9774
tp1251
a(S'your'
p1252
g84
F0.9937
tp1253
a(S'plate'
p1254
g9
F0.9955
tp1255
a(S'first'
p1256
g3
F0.7997
tp1257
asI151
(lp1258
(S'do'
p1259
g16
F0.9985
tp1260
a(S'you'
p1261
g45
F0.9989
tp1262
a(S'like'
p1263
g16
F0.8017
tp1264
a(S'lemonade'
p1265
g9
F0.986
tp1266
as.