(dp0
I17
(lp1
(S'alright'
p2
S'!'
p3
F0.8684
tp4
a(S'give'
p5
S'V'
p6
F0.9986
tp7
a(S'me'
p8
S'O'
p9
F0.9976
tp10
a(S'the'
p11
S'D'
p12
F0.998
tp13
a(S'fish'
p14
S'N'
p15
F0.9983
tp16
a(S'.'
p17
S','
p18
F0.9982
tp19
asI20
(lp20
(S'I'
p21
g9
F0.9967
tp22
a(S'love'
p23
g6
F0.9877
tp24
a(S'fish'
p25
g15
F0.9877
tp26
a(g17
g18
F0.9986
tp27
asI23
(lp28
(S'okay'
p29
g3
F0.9741
tp30
a(g17
g18
F0.9977
tp31
asI26
(lp32
(S'Daddy'
p33
g15
F0.8097
tp34
a(S'use'
p35
g6
F0.9442
tp36
a(S'this'
p37
g12
F0.9507
tp38
a(S'bowl'
p39
g15
F0.9994
tp40
a(g17
g18
F0.9989
tp41
asI29
(lp42
(S'Daddy'
p43
g15
F0.911
tp44
a(S'?'
p45
g18
F0.9974
tp46
asI34
(lp47
(S'that'
p48
g9
F0.9115
tp49
a(S'is'
p50
g6
F0.9991
tp51
a(S'enough'
p52
S'A'
p53
F0.7806
tp54
a(S'Astra'
p55
S'^'
p56
F0.5172
tp57
a(g45
g18
F0.998
tp58
asI38
(lp59
(S'yeah'
p60
g3
F0.9986
tp61
a(g17
g18
F0.997
tp62
asI41
(lp63
(S'and'
p64
S'&'
p65
F0.9996
tp66
a(S'a'
p67
g12
F0.9921
tp68
a(S'piece'
p69
g15
F0.9991
tp70
a(S'of'
p71
S'P'
p72
F0.997
tp73
a(S'cucumber'
p74
g15
F0.9662
tp75
a(S'okay'
p76
g3
F0.6073
tp77
a(S'(.)'
p78
g56
F0.457
tp79
a(g45
g18
F0.995
tp80
asI45
(lp81
(S'you'
p82
g9
F0.9966
tp83
a(S'give'
p84
g6
F0.9999
tp85
a(S'me'
p86
g9
F0.9959
tp87
a(g67
g12
F0.9903
tp88
a(S'big'
p89
g53
F0.9638
tp90
a(S'big'
p91
g53
F0.9304
tp92
a(S'big'
p93
g53
F0.8979
tp94
a(g17
g18
F0.9986
tp95
asI49
(lp96
(S'you'
p97
g9
F0.9968
tp98
a(S'gonna'
p99
g6
F0.9997
tp100
a(S'give'
p101
g6
F0.9999
tp102
a(S'me'
p103
g9
F0.9954
tp104
a(g67
g12
F0.9903
tp105
a(S'big'
p106
g53
F0.9638
tp107
a(S'big'
p108
g53
F0.9326
tp109
a(S'big'
p110
g53
F0.9326
tp111
a(S'big'
p112
g53
F0.9448
tp113
a(S'chicken'
p114
g15
F0.9585
tp115
a(S'mommy'
p116
g15
F0.9832
tp117
a(S'['
p118
g18
F0.9862
tp119
a(S'>'
p120
S'E'
p121
F0.4371
tp122
a(S']'
p123
g18
F0.7576
tp124
a(g45
g18
F0.9957
tp125
asI55
(lp126
(S'<'
p127
S'~'
p128
F0.9001
tp129
a(S'you'
p130
g9
F0.9971
tp131
a(S"don't"
p132
g6
F1.0
tp133
a(S'wan'
p134
g6
F0.7425
tp135
a(S'('
p136
g18
F0.9686
tp137
a(S't)a'
p138
g72
F0.3061
tp139
a(g120
g121
F0.4949
tp140
a(g118
g121
F0.535
tp141
a(g127
g128
F0.8293
tp142
a(g123
g18
F0.9868
tp143
a(S'big'
p144
g53
F0.9931
tp145
a(S'one'
p146
S'$'
p147
F0.8648
tp148
a(S'do'
p149
g6
F0.99
tp150
a(S'you'
p151
g9
F0.9974
tp152
a(g45
g18
F0.9994
tp153
asI61
(lp154
(g127
g128
F0.9467
tp155
a(S'&n'
p156
S'G'
p157
F0.4317
tp158
a(g120
g128
F0.5357
tp159
a(S'[//]'
p160
g18
F0.308
tp161
a(S'no'
p162
g3
F0.8366
tp163
a(g17
g18
F0.9989
tp164
asI65
(lp165
(S'Astra'
p166
g56
F0.8513
tp167
a(S'stop'
p168
g6
F0.7752
tp169
a(S'xxx'
p170
g121
F0.6843
tp171
a(g118
g18
F0.6965
tp172
a(g120
g121
F0.5563
tp173
a(g123
g18
F0.6899
tp174
a(g17
g18
F0.9959
tp175
asI68
(lp176
(S'xxx'
p177
g121
F0.8981
tp178
a(g118
g18
F0.6622
tp179
a(g127
g128
F0.972
tp180
a(g123
g18
F0.9847
tp181
a(g17
g18
F0.9962
tp182
asI69
(lp183
(g21
g9
F0.9957
tp184
a(S'wan'
p185
g6
F0.5942
tp186
a(g136
g18
F0.9634
tp187
a(S't)a'
p188
g72
F0.7086
tp189
a(g67
g12
F0.9959
tp190
a(S'small'
p191
g53
F0.9941
tp192
a(S'piece'
p193
g15
F0.9956
tp194
a(g17
g18
F0.998
tp195
asI73
(lp196
(g21
g9
F0.9983
tp197
a(S'want'
p198
g6
F1.0
tp199
a(g67
g12
F0.9987
tp200
a(S'small'
p201
g53
F0.9908
tp202
a(S'tiny'
p203
g53
F0.9056
tp204
a(S'fishy'
p205
g53
F0.7358
tp206
a(g17
g18
F0.9982
tp207
asI77
(lp208
(S'just'
p209
S'R'
p210
F0.9997
tp211
a(S'like'
p212
g72
F0.6716
tp213
a(S'peas'
p214
g15
F0.9915
tp215
a(g17
g18
F0.9982
tp216
asI80
(lp217
(S'xxx'
p218
g121
F0.5695
tp219
a(S'ready'
p220
g53
F0.9742
tp221
a(S'like'
p222
g72
F0.9699
tp223
a(S'xxx'
p224
g15
F0.506
tp225
a(g17
g18
F0.9984
tp226
asI83
(lp227
(S'you'
p228
g9
F0.9968
tp229
a(S'have_to'
p230
g6
F0.9989
tp231
a(S'say'
p232
g6
F0.9997
tp233
a(S'your'
p234
g12
F0.952
tp235
a(S'grace'
p236
g56
F0.544
tp237
a(S'now'
p238
g210
F0.9908
tp239
a(g17
g18
F0.9985
tp240
asI86
(lp241
(S'when'
p242
g210
F0.9644
tp243
a(S'Ronny'
p244
g56
F0.998
tp245
a(S'comes'
p246
g6
F0.9716
tp247
a(S'and'
p248
g65
F0.9961
tp249
a(S'my'
p250
g12
F0.9923
tp251
a(S'Auntie'
p252
g15
F0.9748
tp253
a(g17
g18
F0.9986
tp254
asI90
(lp255
(S'Ronny'
p256
g56
F0.998
tp257
a(S'come'
p258
g6
F0.9923
tp259
a(S'on'
p260
S'T'
p261
F0.6505
tp262
a(g3
g18
F0.9967
tp263
asI93
(lp264
(S'Ronny'
p265
g56
F0.998
tp266
a(S'come'
p267
g6
F0.9923
tp268
a(S'on'
p269
g261
F0.6505
tp270
a(g3
g18
F0.9967
tp271
asI96
(lp272
(g21
g9
F0.9981
tp273
a(S'need'
p274
g6
F0.9994
tp275
a(S'to'
p276
g72
F0.9635
tp277
a(S'say'
p278
g6
F0.9998
tp279
a(S'your'
p280
g12
F0.9457
tp281
a(S'grace'
p282
g56
F0.5892
tp283
a(g17
g18
F0.9951
tp284
asI99
(lp285
(S'say'
p286
g6
F0.9934
tp287
a(S'your'
p288
g12
F0.9411
tp289
a(S'grace'
p290
g15
F0.5785
tp291
a(g17
g18
F0.9976
tp292
asI102
(lp293
(S'Ronny'
p294
g56
F0.9976
tp295
a(S'sleeping'
p296
g6
F0.9987
tp297
a(S'still'
p298
g210
F0.9927
tp299
a(g45
g18
F0.9968
tp300
asI105
(lp301
(S"she's"
p302
S'L'
p303
F0.9801
tp304
a(S'up'
p305
g53
F0.4341
tp306
a(g17
g18
F0.9985
tp307
asI108
(lp308
(S'hm'
p309
g3
F0.9811
tp310
a(S':'
p311
g18
F0.936
tp312
a(g17
g18
F0.9898
tp313
asI111
(lp314
(S'Mommy'
p315
g15
F0.7586
tp316
a(g3
g18
F0.9986
tp317
asI114
(lp318
(S"let's"
p319
g303
F0.9625
tp320
a(S'wait'
p321
g6
F0.9993
tp322
a(S'for'
p323
g72
F0.989
tp324
a(S'Ronny'
p325
g56
F0.9996
tp326
a(g17
g18
F0.9956
tp327
asI117
(lp328
(S'Mommy'
p329
g15
F0.7586
tp330
a(g3
g18
F0.9986
tp331
asI120
(lp332
(g127
g128
F0.9001
tp333
a(S'you'
p334
g9
F0.9985
tp335
a(S'know'
p336
g6
F0.9978
tp337
a(g120
g18
F0.2956
tp338
a(S'[/]'
p339
g18
F0.3313
tp340
a(S'you'
p341
g9
F0.9991
tp342
a(S'know'
p343
g6
F0.9999
tp344
a(S'your'
p345
g12
F0.8403
tp346
a(S'grace'
p347
g15
F0.6586
tp348
a(S'now'
p349
g210
F0.9918
tp350
a(g45
g18
F0.9987
tp351
asI124
(lp352
(S'no'
p353
g3
F0.9704
tp354
a(g17
g18
F0.9989
tp355
asI127
(lp356
(g21
g9
F0.9959
tp357
a(S'never'
p358
g210
F0.9893
tp359
a(S'learn'
p360
g6
F0.9997
tp361
a(S'it'
p362
g9
F0.9873
tp363
a(g17
g18
F0.9989
tp364
asI130
(lp365
(S'you'
p366
g9
F0.9968
tp367
a(S'have_to'
p368
g6
F0.9992
tp369
a(S'teach'
p370
g6
F0.9998
tp371
a(S'it'
p372
g9
F0.985
tp373
a(S'to'
p374
g72
F0.99
tp375
a(S'me'
p376
g9
F0.9969
tp377
a(S'right'
p378
g210
F0.745
tp379
a(g45
g18
F0.9987
tp380
asI135
(lp381
(S'okay'
p382
g3
F0.9741
tp383
a(g17
g18
F0.9977
tp384
asI138
(lp385
(S'Ronny'
p386
g56
F0.9858
tp387
a(S'you'
p388
g9
F0.9986
tp389
a(S'know'
p390
g6
F0.9999
tp391
a(S'your'
p392
g12
F0.8444
tp393
a(S'grace'
p394
g56
F0.6912
tp395
a(g45
g18
F0.9945
tp396
asI141
(lp397
(S'yeah'
p398
g3
F0.9986
tp399
a(g17
g18
F0.997
tp400
asI144
(lp401
(S'let'
p402
g6
F0.9975
tp403
a(S'me'
p404
g9
F0.9995
tp405
a(S'hear'
p406
g6
F0.9833
tp407
a(S'you'
p408
g9
F0.9974
tp409
a(g17
g18
F0.9995
tp410
asI147
(lp411
(S'God'
p412
g56
F0.9931
tp413
a(S'is'
p414
g6
F0.9965
tp415
a(S'good'
p416
g53
F0.9968
tp417
a(g17
g18
F0.9984
tp418
asI150
(lp419
(S'God'
p420
g56
F0.9931
tp421
a(S'is'
p422
g6
F0.9952
tp423
a(S'great'
p424
g53
F0.9977
tp425
a(g17
g18
F0.9986
tp426
asI153
(lp427
(S'let'
p428
g6
F0.9975
tp429
a(S'us'
p430
g9
F0.994
tp431
a(S'thank'
p432
g6
F0.987
tp433
a(S'him'
p434
g9
F0.9942
tp435
a(S'for'
p436
g72
F0.9995
tp437
a(S'our'
p438
g12
F0.9966
tp439
a(S'food'
p440
g15
F0.9956
tp441
a(g17
g18
F0.9984
tp442
asI158
(lp443
(S'let'
p444
g6
F0.9975
tp445
a(S'me'
p446
g9
F0.9995
tp447
a(S'hear'
p448
g6
F0.8536
tp449
a(g127
g128
F0.7578
tp450
a(S'it'
p451
g9
F0.9784
tp452
a(S'end'
p453
g6
F0.485
tp454
a(g120
g121
F0.6637
tp455
a(g118
g121
F0.5345
tp456
a(g120
g121
F0.9577
tp457
a(g123
g18
F0.795
tp458
a(g17
g18
F0.9964
tp459
asI161
(lp460
(S'amen'
p461
g3
F0.9287
tp462
a(g118
g18
F0.9841
tp463
a(g127
g128
F0.972
tp464
a(g123
g18
F0.9847
tp465
a(g17
g18
F0.9962
tp466
asI164
(lp467
(S'God'
p468
g56
F0.9931
tp469
a(S'is'
p470
g6
F0.9965
tp471
a(S'good'
p472
g53
F0.9968
tp473
a(g17
g18
F0.9984
tp474
asI167
(lp475
(S'let'
p476
g6
F0.9975
tp477
a(S'us'
p478
g9
F0.994
tp479
a(S'thank'
p480
g6
F0.987
tp481
a(S'him'
p482
g9
F0.9942
tp483
a(S'for'
p484
g72
F0.999
tp485
a(S'us'
p486
g9
F0.8681
tp487
a(S'food'
p488
g15
F0.9926
tp489
a(g17
g18
F0.9984
tp490
asI171
(lp491
(S'amen'
p492
g3
F0.9762
tp493
a(g17
g18
F0.9969
tp494
asI174
(lp495
(S'thank'
p496
g6
F0.9661
tp497
a(S'you'
p498
g9
F0.9976
tp499
a(S'God'
p500
g56
F0.9306
tp501
a(g17
g18
F0.9961
tp502
asI178
(lp503
(S'good'
p504
g53
F0.967
tp505
a(g17
g18
F0.998
tp506
asI181
(lp507
(S"I'm"
p508
g303
F0.9981
tp509
a(S'not'
p510
g210
F0.9925
tp511
a(g118
g18
F0.9584
tp512
a(g3
g18
F0.9922
tp513
a(g123
g18
F0.9849
tp514
a(S'eating'
p515
g6
F0.9996
tp516
a(S'the'
p517
g12
F0.9996
tp518
a(S'salad'
p519
g15
F0.9964
tp520
a(g17
g18
F0.9989
tp521
asI184
(lp522
(S'you'
p523
g9
F0.9968
tp524
a(S'have_to'
p525
g6
F0.9991
tp526
a(S'eat'
p527
g6
F0.9989
tp528
a(S'the'
p529
g12
F0.9996
tp530
a(S'salad'
p531
g15
F0.9902
tp532
a(S'before'
p533
g72
F0.9714
tp534
a(S'xxx'
p535
g15
F0.3581
tp536
a(S'[///]'
p537
g18
F0.375
tp538
a(S'Eliot'
p539
g56
F0.9554
tp540
a(g118
g18
F0.9798
tp541
a(g45
g18
F0.9841
tp542
a(g123
g18
F0.9323
tp543
a(S'you'
p544
g9
F0.9981
tp545
a(S'want'
p546
g6
F0.9999
tp547
a(S'some'
p548
g12
F0.9404
tp549
a(S'more'
p550
g53
F0.8776
tp551
a(S'of'
p552
g72
F0.9981
tp553
a(S'that'
p554
g9
F0.8456
tp555
a(S'now'
p556
g210
F0.9966
tp557
a(g45
g18
F0.9983
tp558
asI190
(lp559
(S'well'
p560
g3
F0.6518
tp561
a(S'give'
p562
g6
F0.9983
tp563
a(S'me'
p564
g9
F0.9987
tp565
a(S'that'
p566
g9
F0.5028
tp567
a(g17
g18
F0.9988
tp568
asI193
(lp569
(g21
g9
F0.9983
tp570
a(S'want'
p571
g6
F1.0
tp572
a(S'some'
p573
g12
F0.9916
tp574
a(S'Mommy'
p575
g15
F0.7769
tp576
a(g17
g18
F0.9988
tp577
asI196
(lp578
(g21
g9
F0.9982
tp579
a(S'thought'
p580
g6
F0.9999
tp581
a(S'you'
p582
g9
F0.9994
tp583
a(S'was'
p584
g6
F0.9992
tp585
a(S'gonna'
p586
g6
F0.9912
tp587
a(S'give'
p588
g6
F0.9999
tp589
a(S'me'
p590
g9
F0.9909
tp591
a(S'some'
p592
g210
F0.4739
tp593
a(g45
g18
F0.9987
tp594
asI202
(lp595
(S'xxx'
p596
g121
F0.5822
tp597
a(g17
g18
F0.9648
tp598
asI203
(lp599
(S'yeah'
p600
g3
F0.9986
tp601
a(g17
g18
F0.997
tp602
asI206
(lp603
(S'yes'
p604
g3
F0.9961
tp605
a(g17
g18
F0.9972
tp606
asI209
(lp607
(S'you'
p608
g9
F0.9968
tp609
a(S'gonna'
p610
g6
F0.9995
tp611
a(S'have'
p612
g6
F0.9999
tp613
a(S'some'
p614
g12
F0.5805
tp615
a(g17
g18
F0.9979
tp616
asI212
(lp617
(S'(..)'
p618
g18
F0.4515
tp619
a(S'you'
p620
g9
F0.9983
tp621
a(S'want'
p622
g6
F0.9993
tp623
a(S'bread'
p624
g15
F0.9938
tp625
a(g45
g18
F0.9981
tp626
asI216
(lp627
(S'hm'
p628
g3
F0.9811
tp629
a(g311
g18
F0.936
tp630
a(g17
g18
F0.9898
tp631
asI219
(lp632
(S'taste'
p633
g6
F0.8477
tp634
a(S'good'
p635
g53
F0.9975
tp636
a(S'what'
p637
g9
F0.971
tp638
a(g127
g128
F0.8337
tp639
a(S'he'
p640
g9
F0.9972
tp641
a(S'has'
p642
g6
F0.9991
tp643
a(g120
g121
F0.2721
tp644
a(S'[/]'
p645
g121
F0.6055
tp646
a(S'he'
p647
g9
F0.9962
tp648
a(S'has'
p649
g6
F0.9996
tp650
a(S'got'
p651
g6
F0.9491
tp652
a(g17
g18
F0.9892
tp653
asI223
(lp654
(S"don't"
p655
g6
F0.9988
tp656
a(S'taste'
p657
g6
F0.9982
tp658
a(S'like'
p659
g72
F0.8974
tp660
a(S'pepper'
p661
g15
F0.713
tp662
a(S'Ronny'
p663
g56
F0.9942
tp664
a(g17
g18
F0.9935
tp665
asI226
(lp666
(S'Ronny'
p667
g56
F0.9858
tp668
a(S'you'
p669
g9
F0.9984
tp670
a(S'want'
p671
g6
F0.9999
tp672
a(S'some'
p673
g12
F0.8829
tp674
a(S'of'
p675
g72
F0.9903
tp676
a(S'that'
p677
g12
F0.9428
tp678
a(S'stuff'
p679
g15
F0.9968
tp680
a(g45
g18
F0.9984
tp681
asI230
(lp682
(S'not'
p683
g210
F0.9654
tp684
a(S'pepper'
p685
g15
F0.3874
tp686
a(S'(.)'
p687
g157
F0.2914
tp688
a(g17
g18
F0.9919
tp689
asI233
(lp690
(S'okay'
p691
g3
F0.9732
tp692
a(g45
g18
F0.9976
tp693
asI236
(lp694
(S'Astra'
p695
g56
F0.8992
tp696
a(S'do'
p697
g6
F0.997
tp698
a(S'you'
p699
g9
F0.9997
tp700
a(S'want'
p701
g6
F0.9987
tp702
a(S'bread'
p703
g15
F0.9893
tp704
a(g45
g18
F0.9971
tp705
asI240
(lp706
(S'you'
p707
g9
F0.998
tp708
a(S'had'
p709
g6
F0.9988
tp710
a(S'bread'
p711
g15
F0.9957
tp712
a(S'already'
p713
g210
F0.9857
tp714
a(g17
g18
F0.9978
tp715
asI243
(lp716
(g127
g128
F0.9171
tp717
a(S'it'
p718
g9
F0.9925
tp719
a(S'just'
p720
g210
F0.9994
tp721
a(S'xxx'
p722
g121
F0.6944
tp723
a(g120
g121
F0.9474
tp724
a(g118
g121
F0.5345
tp725
a(g120
g121
F0.9732
tp726
a(g123
g18
F0.8062
tp727
a(g17
g18
F0.9969
tp728
asI246
(lp729
(g127
g128
F0.9531
tp730
a(S'sit'
p731
g6
F0.9847
tp732
a(S'properly'
p733
g210
F0.9938
tp734
a(S'at'
p735
g72
F0.9997
tp736
a(S'the'
p737
g12
F0.9992
tp738
a(S'table'
p739
g15
F0.9959
tp740
a(g120
g121
F0.6734
tp741
a(g118
g121
F0.535
tp742
a(g127
g128
F0.7815
tp743
a(g123
g18
F0.9822
tp744
a(g17
g18
F0.9964
tp745
asI249
(lp746
(S'sit'
p747
g6
F0.9696
tp748
a(S'properly'
p749
g210
F0.9909
tp750
a(S'at'
p751
g72
F0.9995
tp752
a(S'the'
p753
g12
F0.9991
tp754
a(S'table'
p755
g15
F0.9976
tp756
a(g17
g18
F0.9977
tp757
asI252
(lp758
(S'Ronny'
p759
g56
F0.9956
tp760
a(S'how'
p761
g210
F0.9992
tp762
a(S'much'
p763
g53
F0.976
tp764
a(S'pieces'
p765
g15
F0.9619
tp766
a(S'you'
p767
g9
F0.9972
tp768
a(S'want'
p769
g6
F0.9982
tp770
a(g45
g18
F0.9974
tp771
asI255
(lp772
(S'one'
p773
g147
F0.8895
tp774
a(g21
g9
F0.9967
tp775
a(S'want'
p776
g6
F0.9998
tp777
a(S'two'
p778
g147
F0.9293
tp779
a(g17
g18
F0.9977
tp780
asI258
(lp781
(S'mm'
p782
g3
F0.2906
tp783
a(g118
g18
F0.9596
tp784
a(g120
g121
F0.3811
tp785
a(g123
g18
F0.7604
tp786
a(g17
g18
F0.9962
tp787
asI261
(lp788
(g127
g128
F0.9511
tp789
a(S'Ronny'
p790
g56
F0.9918
tp791
a(S'you'
p792
g9
F0.9986
tp793
a(S'want'
p794
g6
F0.9993
tp795
a(S'bread'
p796
g15
F0.9926
tp797
a(g120
g121
F0.5184
tp798
a(g118
g121
F0.535
tp799
a(g127
g128
F0.7916
tp800
a(g123
g18
F0.9773
tp801
a(g45
g18
F0.9957
tp802
asI264
(lp803
(S'yes'
p804
g3
F0.9878
tp805
a(S'please'
p806
g6
F0.8595
tp807
a(g17
g18
F0.9979
tp808
asI268
(lp809
(S'Mommy'
p810
g15
F0.7911
tp811
a(g17
g18
F0.9983
tp812
asI271
(lp813
(S'you'
p814
g9
F0.998
tp815
a(S'gave'
p816
g6
F0.9999
tp817
a(S'me'
p818
g9
F0.9943
tp819
a(S'some'
p820
g210
F0.4564
tp821
a(g45
g18
F0.9987
tp822
asI275
(lp823
(S'mhm'
p824
g3
F0.9761
tp825
a(g17
g18
F0.9962
tp826
asI278
(lp827
(S'well'
p828
g3
F0.8594
tp829
a(S'where'
p830
g210
F0.8266
tp831
a(S'is'
p832
g6
F0.9994
tp833
a(S'it'
p834
g9
F0.9964
tp835
a(g45
g18
F0.999
tp836
asI282
(lp837
(S'on'
p838
g72
F0.989
tp839
a(S'your'
p840
g12
F0.9919
tp841
a(S'salad'
p842
g15
F0.9993
tp843
a(g21
g9
F0.988
tp844
a(S'put'
p845
g6
F0.9998
tp846
a(S'it'
p847
g9
F0.9731
tp848
a(g17
g18
F0.9989
tp849
asI285
(lp850
(g21
g9
F0.9976
tp851
a(S"don't"
p852
g6
F1.0
tp853
a(S'see'
p854
g6
F0.9999
tp855
a(S'it'
p856
g9
F0.9073
tp857
a(g17
g18
F0.9989
tp858
asI288
(lp859
(S'you'
p860
g9
F0.9968
tp861
a(S"don't"
p862
g6
F1.0
tp863
a(S'have_to'
p864
g6
F0.9998
tp865
a(S'see'
p866
g6
F0.9997
tp867
a(S'it'
p868
g9
F0.9075
tp869
a(S'(.)'
p870
g18
F0.4047
tp871
a(S'but'
p872
g65
F0.9935
tp873
a(S"it's"
p874
g303
F0.9975
tp875
a(S'there'
p876
g210
F0.8386
tp877
a(S'(.)'
p878
g157
F0.2395
tp879
a(g17
g18
F0.992
tp880
asI293
(lp881
(S'xxx'
p882
g121
F0.5822
tp883
a(g17
g18
F0.9648
tp884
asI294
(lp885
(S'Daddy'
p886
g15
F0.8277
tp887
a(S'can'
p888
g6
F0.9995
tp889
a(S'you'
p890
g9
F0.9987
tp891
a(S'throw'
p892
g6
F0.9975
tp893
a(S'this'
p894
g9
F0.7167
tp895
a(S'in'
p896
g72
F0.9713
tp897
a(S'the'
p898
g12
F0.9993
tp899
a(S'garbage'
p900
g15
F0.9949
tp901
a(g45
g18
F0.9982
tp902
asI300
(lp903
(S'sure'
p904
g53
F0.872
tp905
a(g17
g18
F0.9978
tp906
asI304
(lp907
(S'thank'
p908
g6
F0.9661
tp909
a(S'you'
p910
g9
F0.9891
tp911
a(S'Daddy'
p912
g15
F0.8709
tp913
a(g17
g18
F0.9987
tp914
asI307
(lp915
(S"you're"
p916
g303
F0.9777
tp917
a(S'welcome'
p918
g53
F0.8002
tp919
a(g17
g18
F0.9976
tp920
asI310
(lp921
(S'you'
p922
g9
F0.9923
tp923
a(S'like'
p924
g6
F0.6543
tp925
a(S'the'
p926
g12
F0.9983
tp927
a(S'fish'
p928
g15
F0.9967
tp929
a(g45
g18
F0.9981
tp930
asI314
(lp931
(S'uhhuh'
p932
g3
F0.9881
tp933
a(g17
g18
F0.997
tp934
asI317
(lp935
(S'remember'
p936
g6
F0.9982
tp937
a(S'you'
p938
g9
F0.9992
tp939
a(S'have_to'
p940
g6
F0.9992
tp941
a(S'eat'
p942
g6
F0.9988
tp943
a(S'the'
p944
g12
F0.9996
tp945
a(S'salad'
p946
g15
F0.9959
tp947
a(g17
g18
F0.9985
tp948
asI320
(lp949
(S'okay'
p950
g3
F0.6237
tp951
a(S'Mommy'
p952
g56
F0.7609
tp953
a(S'(.)'
p954
g56
F0.7416
tp955
a(g17
g18
F0.9942
tp956
asI323
(lp957
(S'remember'
p958
g6
F0.9831
tp959
a(g21
g9
F0.9993
tp960
a(S'ate'
p961
g6
F0.9999
tp962
a(S'that'
p963
g12
F0.676
tp964
a(S'salad'
p965
g15
F0.9925
tp966
a(S'before'
p967
g72
F0.9129
tp968
a(S'with'
p969
g72
F0.985
tp970
a(S'that'
p971
g12
F0.9206
tp972
a(S'other'
p973
g53
F0.9929
tp974
a(S'day'
p975
g15
F0.9958
tp976
a(g45
g18
F0.9987
tp977
asI329
(lp978
(S'that'
p979
g9
F0.8288
tp980
a(S'was'
p981
g6
F0.9989
tp982
a(S'good'
p983
g53
F0.9933
tp984
a(g118
g18
F0.9897
tp985
a(g3
g18
F0.9901
tp986
a(g123
g18
F0.9866
tp987
a(S'and'
p988
g65
F0.9996
tp989
a(g21
g9
F0.9991
tp990
a(S'ate'
p991
g6
F0.9998
tp992
a(S'that'
p993
g9
F0.5643
tp994
a(S'too'
p995
g210
F0.9883
tp996
a(g17
g18
F0.9956
tp997
asI334
(lp998
(S'mhm'
p999
g3
F0.9761
tp1000
a(g17
g18
F0.9962
tp1001
asI338
(lp1002
(S'it'
p1003
g9
F0.9956
tp1004
a(S'was'
p1005
g6
F0.9989
tp1006
a(S'so'
p1007
g210
F0.9956
tp1008
a(S'good'
p1009
g53
F0.9866
tp1010
a(S'good'
p1011
g53
F0.9696
tp1012
a(S'good'
p1013
g53
F0.9651
tp1014
a(g17
g18
F0.9983
tp1015
asI341
(lp1016
(g21
g9
F0.9967
tp1017
a(S'love'
p1018
g6
F0.9995
tp1019
a(S'it'
p1020
g9
F0.9929
tp1021
a(S'(.)'
p1022
g18
F0.2714
tp1023
a(g17
g18
F0.9962
tp1024
asI344
(lp1025
(S'but'
p1026
g65
F0.9903
tp1027
a(S"I'm"
p1028
g303
F0.9965
tp1029
a(S'gonna'
p1030
g6
F0.9954
tp1031
a(S'eat'
p1032
g6
F0.9993
tp1033
a(S'down'
p1034
g261
F0.6291
tp1035
a(S'that'
p1036
g9
F0.6934
tp1037
a(g118
g18
F0.9904
tp1038
a(g3
g18
F0.9901
tp1039
a(g123
g18
F0.9606
tp1040
a(S'(.)'
p1041
g157
F0.3401
tp1042
a(g17
g18
F0.992
tp1043
asI348
(lp1044
(S'that'
p1045
g9
F0.4576
tp1046
a(S'tastes'
p1047
g6
F0.979
tp1048
a(S'so'
p1049
g210
F0.9283
tp1050
a(S'good'
p1051
g53
F0.999
tp1052
a(S'Mommy'
p1053
g15
F0.8673
tp1054
a(g17
g18
F0.9983
tp1055
asI351
(lp1056
(S'mhm'
p1057
g3
F0.9266
tp1058
a(S'(.)'
p1059
g3
F0.282
tp1060
a(g17
g18
F0.9973
tp1061
asI354
(lp1062
(g127
g128
F0.8896
tp1063
a(S'and'
p1064
g65
F0.9988
tp1065
a(S'never'
p1066
g210
F0.9917
tp1067
a(S'(.)'
p1068
g121
F0.2498
tp1069
a(S'ever'
p1070
g210
F0.9518
tp1071
a(g120
g121
F0.5293
tp1072
a(g118
g121
F0.5345
tp1073
a(g120
g121
F0.9555
tp1074
a(g123
g18
F0.8291
tp1075
a(g17
g18
F0.9959
tp1076
asI357
(lp1077
(S'xxx'
p1078
g121
F0.8981
tp1079
a(g118
g18
F0.6622
tp1080
a(g127
g128
F0.972
tp1081
a(g123
g18
F0.9847
tp1082
a(g17
g18
F0.9962
tp1083
asI358
(lp1084
(g21
g9
F0.9982
tp1085
a(S'got'
p1086
g6
F0.9985
tp1087
a(S'one'
p1088
g147
F0.7892
tp1089
a(S'Daddy'
p1090
g15
F0.9771
tp1091
a(g17
g18
F0.9988
tp1092
asI362
(lp1093
(S'be'
p1094
g6
F0.9805
tp1095
a(S'careful'
p1096
g53
F0.9695
tp1097
a(g17
g18
F0.9984
tp1098
asI365
(lp1099
(S'okay'
p1100
g3
F0.774
tp1101
a(S'Daddy'
p1102
g15
F0.7514
tp1103
a(g17
g18
F0.9986
tp1104
asI368
(lp1105
(S'push'
p1106
g6
F0.963
tp1107
a(S'your'
p1108
g12
F0.9932
tp1109
a(S'glass'
p1110
g15
F0.9977
tp1111
a(S'inside'
p1112
g72
F0.8931
tp1113
a(S'xxx'
p1114
g121
F0.3972
tp1115
a(g17
g18
F0.9527
tp1116
asI371
(lp1117
(S'okay'
p1118
g3
F0.9741
tp1119
a(g17
g18
F0.9977
tp1120
asI375
(lp1121
(S'xxx'
p1122
g121
F0.5822
tp1123
a(g17
g18
F0.9648
tp1124
asI376
(lp1125
(S'mhm'
p1126
g3
F0.9761
tp1127
a(g17
g18
F0.9962
tp1128
asI380
(lp1129
(S'you'
p1130
g9
F0.9721
tp1131
a(S'better'
p1132
g53
F0.6265
tp1133
a(S'eat'
p1134
g6
F0.9452
tp1135
a(S'your'
p1136
g12
F0.9936
tp1137
a(S'salad'
p1138
g15
F0.9979
tp1139
a(g17
g18
F0.9982
tp1140
asI383
(lp1141
(S'Astra'
p1142
g56
F0.8246
tp1143
a(S"don't"
p1144
g6
F0.9991
tp1145
a(S'eat'
p1146
g6
F0.9994
tp1147
a(S'like'
p1148
g72
F0.9085
tp1149
a(S'that'
p1150
g9
F0.9637
tp1151
a(g17
g18
F0.9984
tp1152
asI386
(lp1153
(S'make'
p1154
g6
F0.8805
tp1155
a(S'noise'
p1156
g15
F0.9924
tp1157
a(S'with'
p1158
g72
F0.9998
tp1159
a(S'your'
p1160
g12
F0.9979
tp1161
a(S'mouth'
p1162
g15
F0.9997
tp1163
a(S'like'
p1164
g72
F0.9694
tp1165
a(S'that'
p1166
g9
F0.9468
tp1167
a(g17
g18
F0.9987
tp1168
asI390
(lp1169
(S'eat'
p1170
g6
F0.9753
tp1171
a(g67
g12
F0.9989
tp1172
a(S'small'
p1173
g53
F0.9916
tp1174
a(S'piece'
p1175
g15
F0.9984
tp1176
a(S'of'
p1177
g72
F0.9968
tp1178
a(S'salad'
p1179
g15
F0.8417
tp1180
a(S'Astra'
p1181
g15
F0.6997
tp1182
a(g17
g18
F0.9989
tp1183
asI393
(lp1184
(S'okay'
p1185
g3
F0.9741
tp1186
a(g17
g18
F0.9977
tp1187
asI396
(lp1188
(S'you'
p1189
g9
F0.9923
tp1190
a(S'sure'
p1191
g53
F0.9907
tp1192
a(S'Mommy'
p1193
g15
F0.7802
tp1194
a(g45
g18
F0.9979
tp1195
asI400
(lp1196
(S'yes'
p1197
g3
F0.9921
tp1198
a(S"I'm"
p1199
g303
F0.9982
tp1200
a(S'sure'
p1201
g53
F0.9832
tp1202
a(g17
g18
F0.9982
tp1203
asI403
(lp1204
(S'okay'
p1205
g3
F0.9741
tp1206
a(g17
g18
F0.9977
tp1207
asI406
(lp1208
(S'want'
p1209
g6
F0.9993
tp1210
a(S'me'
p1211
g9
F0.9985
tp1212
a(S'to'
p1213
g72
F0.9296
tp1214
a(S'xxx'
p1215
g6
F0.5761
tp1216
a(S'tiny'
p1217
g53
F0.9591
tp1218
a(S'piece'
p1219
g15
F0.9979
tp1220
a(g17
g18
F0.9978
tp1221
asI409
(lp1222
(S'oh'
p1223
g3
F0.9835
tp1224
a(S'Mommy'
p1225
g56
F0.7615
tp1226
a(S'watch'
p1227
g6
F0.9974
tp1228
a(S'me'
p1229
g9
F0.9983
tp1230
a(S'swallow'
p1231
g6
F0.9988
tp1232
a(S'it'
p1233
g9
F0.995
tp1234
a(S'up'
p1235
g261
F0.9556
tp1236
a(g17
g18
F0.998
tp1237
asI412
(lp1238
(S'mhm'
p1239
g3
F0.9761
tp1240
a(g17
g18
F0.9962
tp1241
asI415
(lp1242
(S'you'
p1243
g9
F0.9968
tp1244
a(S'have_to'
p1245
g6
F0.9991
tp1246
a(S'eat'
p1247
g6
F0.9992
tp1248
a(S'all'
p1249
g12
F0.9047
tp1250
a(S'of'
p1251
g72
F0.9947
tp1252
a(S'it'
p1253
g9
F0.9942
tp1254
a(S'okay'
p1255
g53
F0.6017
tp1256
a(g17
g18
F0.998
tp1257
asI419
(lp1258
(S"I'm"
p1259
g303
F0.997
tp1260
a(S'going'
p1261
g6
F0.9912
tp1262
a(S'to'
p1263
g72
F0.912
tp1264
a(S'like'
p1265
g6
F0.958
tp1266
a(S'after'
p1267
g72
F0.8677
tp1268
a(S'that'
p1269
g9
F0.9874
tp1270
a(g17
g18
F0.9987
tp1271
asI423
(lp1272
(S'yes'
p1273
g3
F0.9701
tp1274
a(S'you'
p1275
g9
F0.9981
tp1276
a(S'will'
p1277
g6
F0.9983
tp1278
a(g17
g18
F0.9974
tp1279
asI426
(lp1280
(S'but'
p1281
g65
F0.993
tp1282
a(S'you'
p1283
g9
F0.9995
tp1284
a(S'have_to'
p1285
g6
F0.9992
tp1286
a(S'eat'
p1287
g6
F0.9939
tp1288
a(S'salad'
p1289
g15
F0.9328
tp1290
a(S'first'
p1291
g53
F0.6435
tp1292
a(g17
g18
F0.9985
tp1293
asI429
(lp1294
(S'no'
p1295
g3
F0.9704
tp1296
a(g17
g18
F0.9989
tp1297
asI432
(lp1298
(S'have_to'
p1299
g6
F0.985
tp1300
a(S'eat'
p1301
g6
F0.9989
tp1302
a(S'the'
p1303
g12
F0.9996
tp1304
a(S'salad'
p1305
g15
F0.9872
tp1306
a(S'xxx'
p1307
g121
F0.4004
tp1308
a(g17
g18
F0.9527
tp1309
asI435
(lp1310
(S'you'
p1311
g9
F0.9966
tp1312
a(S'see'
p1313
g6
F0.9972
tp1314
a(S'Ronny'
p1315
g56
F0.9997
tp1316
a(S'eating'
p1317
g6
F0.9895
tp1318
a(S'salad'
p1319
g15
F0.9904
tp1320
a(g45
g18
F0.9971
tp1321
asI439
(lp1322
(S'mhm'
p1323
g3
F0.9761
tp1324
a(g17
g18
F0.9962
tp1325
asI442
(lp1326
(g127
g128
F0.7508
tp1327
a(S'&m'
p1328
g3
F0.207
tp1329
a(g120
g121
F0.4221
tp1330
a(g118
g121
F0.4959
tp1331
a(g120
g121
F0.9698
tp1332
a(g123
g18
F0.6899
tp1333
a(g17
g18
F0.9959
tp1334
asI443
(lp1335
(g127
g128
F0.9177
tp1336
a(S'he'
p1337
g9
F0.9911
tp1338
a(g118
g18
F0.974
tp1339
a(g45
g18
F0.9878
tp1340
a(g123
g18
F0.7796
tp1341
a(g120
g121
F0.5377
tp1342
a(g118
g121
F0.535
tp1343
a(g127
g128
F0.8293
tp1344
a(g123
g18
F0.9893
tp1345
a(S'almost'
p1346
g210
F0.9889
tp1347
a(S'reach'
p1348
g6
F0.9993
tp1349
a(S'the'
p1350
g12
F0.9995
tp1351
a(S'light'
p1352
g15
F0.9585
tp1353
a(S'(.)'
p1354
g121
F0.2917
tp1355
a(g17
g18
F0.9702
tp1356
asI446
(lp1357
(S'all'
p1358
g12
F0.752
tp1359
a(S'of'
p1360
g72
F0.994
tp1361
a(S'us'
p1362
g9
F0.9857
tp1363
a(S'almost'
p1364
g210
F0.997
tp1365
a(S'reach'
p1366
g6
F0.996
tp1367
a(S'[/]'
p1368
g18
F0.3716
tp1369
a(S'reach'
p1370
g6
F0.9973
tp1371
a(S'the'
p1372
g12
F0.9992
tp1373
a(S'light'
p1374
g15
F0.9961
tp1375
a(g17
g18
F0.9982
tp1376
asI451
(lp1377
(S'mhm'
p1378
g3
F0.9761
tp1379
a(g17
g18
F0.9962
tp1380
asI454
(lp1381
(S'when'
p1382
g210
F0.9622
tp1383
a(S'summer'
p1384
g15
F0.9568
tp1385
a(g118
g18
F0.9847
tp1386
a(g45
g18
F0.9878
tp1387
a(g123
g18
F0.9395
tp1388
a(S'comes'
p1389
g6
F0.9992
tp1390
a(S'the'
p1391
g12
F0.9983
tp1392
a(S'right'
p1393
g53
F0.9015
tp1394
a(S'way'
p1395
g15
F0.9186
tp1396
a(S'he'
p1397
g9
F0.9759
tp1398
a(S'jumps'
p1399
g6
F0.9127
tp1400
a(S'and'
p1401
g65
F0.9975
tp1402
a(S'xxx'
p1403
g121
F0.4564
tp1404
a(g21
g9
F0.9963
tp1405
a(S'came'
p1406
g6
F0.9989
tp1407
a(S'faster'
p1408
g210
F0.7148
tp1409
a(S'than'
p1410
g72
F0.9863
tp1411
a(S'running'
p1412
g6
F0.9702
tp1413
a(g17
g18
F0.9989
tp1414
asI461
(lp1415
(S"don't"
p1416
g6
F0.9992
tp1417
a(S'eat'
p1418
g6
F0.9989
tp1419
a(S'too'
p1420
g210
F0.9982
tp1421
a(S'fast'
p1422
g53
F0.9706
tp1423
a(S'Astra'
p1424
g15
F0.5415
tp1425
a(g17
g18
F0.9986
tp1426
asI464
(lp1427
(S"you'll"
p1428
g303
F0.9831
tp1429
a(S'choke'
p1430
g6
F0.9997
tp1431
a(S'yourself'
p1432
g9
F0.9921
tp1433
a(g17
g18
F0.9985
tp1434
asI467
(lp1435
(S'okay'
p1436
g3
F0.9573
tp1437
a(S'(.)'
p1438
g56
F0.3874
tp1439
a(g17
g18
F0.9933
tp1440
asI470
(lp1441
(S'not'
p1442
g210
F0.9926
tp1443
a(S'too'
p1444
g210
F0.9984
tp1445
a(S'fast'
p1446
g53
F0.9195
tp1447
a(g17
g18
F0.9986
tp1448
asI475
(lp1449
(S'can'
p1450
g6
F0.9946
tp1451
a(S'we'
p1452
g9
F0.9879
tp1453
a(S'eat'
p1454
g6
F0.9994
tp1455
a(g67
g12
F0.9988
tp1456
a(S'little'
p1457
g53
F0.9968
tp1458
a(S'bit'
p1459
g15
F0.79
tp1460
a(S'fast'
p1461
g53
F0.7582
tp1462
a(S'(.)'
p1463
g121
F0.2668
tp1464
a(g45
g18
F0.9799
tp1465
asI479
(lp1466
(S'huh'
p1467
g3
F0.9936
tp1468
a(g45
g18
F0.9967
tp1469
asI483
(lp1470
(S'you'
p1471
g9
F0.9969
tp1472
a(S'can'
p1473
g6
F0.9998
tp1474
a(S'eat'
p1475
g6
F0.9957
tp1476
a(S'fast'
p1477
g53
F0.8627
tp1478
a(S'(.)'
p1479
g18
F0.3135
tp1480
a(S'but'
p1481
g65
F0.9922
tp1482
a(S'not'
p1483
g210
F0.9993
tp1484
a(S'too'
p1485
g210
F0.999
tp1486
a(S'fast'
p1487
g53
F0.8336
tp1488
a(g17
g18
F0.9986
tp1489
asI488
(lp1490
(S'okay'
p1491
g3
F0.9741
tp1492
a(g17
g18
F0.9977
tp1493
asI491
(lp1494
(S'but'
p1495
g65
F0.9911
tp1496
a(S'there'
p1497
S'X'
p1498
F0.4826
tp1499
a(S'is'
p1500
g6
F0.9983
tp1501
a(S'no'
p1502
g12
F0.9801
tp1503
a(S'rush'
p1504
g15
F0.9962
tp1505
a(S'(.)'
p1506
g121
F0.3936
tp1507
a(S'so'
p1508
g72
F0.7333
tp1509
a(S'take'
p1510
g6
F0.9957
tp1511
a(S'your'
p1512
g12
F0.9962
tp1513
a(S'time'
p1514
g15
F0.9993
tp1515
a(g17
g18
F0.9981
tp1516
asI496
(lp1517
(S'okay'
p1518
g3
F0.9741
tp1519
a(g17
g18
F0.9977
tp1520
asI502
(lp1521
(S'Daddy'
p1522
g15
F0.9002
tp1523
a(S"don't"
p1524
g6
F0.9998
tp1525
a(S'put'
p1526
g6
F0.9981
tp1527
a(S'salt'
p1528
g15
F0.8556
tp1529
a(S'in'
p1530
g72
F0.9962
tp1531
a(S'yours'
p1532
g9
F0.8222
tp1533
a(g17
g18
F0.9983
tp1534
asI506
(lp1535
(g21
g9
F0.9983
tp1536
a(S'have'
p1537
g6
F0.9998
tp1538
a(S'no'
p1539
g12
F0.9791
tp1540
a(S'salt'
p1541
g15
F0.9951
tp1542
a(S'on'
p1543
g72
F0.9985
tp1544
a(S'it'
p1545
g9
F0.9653
tp1546
a(S'Astra'
p1547
g56
F0.9004
tp1548
a(g17
g18
F0.9974
tp1549
asI509
(lp1550
(S'huh'
p1551
g3
F0.9936
tp1552
a(g45
g18
F0.9967
tp1553
asI513
(lp1554
(g21
g9
F0.9983
tp1555
a(S'have'
p1556
g6
F0.9998
tp1557
a(S'no'
p1558
g12
F0.9791
tp1559
a(S'salt'
p1560
g15
F0.9951
tp1561
a(S'on'
p1562
g72
F0.9985
tp1563
a(S'it'
p1564
g9
F0.9975
tp1565
a(g118
g18
F0.9932
tp1566
a(g3
g18
F0.991
tp1567
a(g123
g18
F0.9802
tp1568
a(g17
g18
F0.9959
tp1569
asI516
(lp1570
(S'that'
p1571
g12
F0.7768
tp1572
a(S'fat'
p1573
g53
F0.7507
tp1574
a(S'is'
p1575
g6
F0.86
tp1576
a(g118
g18
F0.9901
tp1577
a(g3
g18
F0.9901
tp1578
a(g123
g18
F0.9773
tp1579
a(S'salt'
p1580
g15
F0.6136
tp1581
a(S'(.)'
p1582
g121
F0.3101
tp1583
a(S'Mommy'
p1584
g15
F0.5044
tp1585
a(S'(.)'
p1586
g157
F0.5418
tp1587
a(g17
g18
F0.992
tp1588
asI519
(lp1589
(S'if'
p1590
g72
F0.9977
tp1591
a(S'you'
p1592
g9
F0.9996
tp1593
a(S'put'
p1594
g6
F0.9934
tp1595
a(S'salt'
p1596
g15
F0.6781
tp1597
a(S'and'
p1598
g65
F0.998
tp1599
a(S'some'
p1600
g12
F0.9818
tp1601
a(S'beans'
p1602
g15
F0.9765
tp1603
a(g118
g18
F0.9877
tp1604
a(g45
g18
F0.9841
tp1605
a(g123
g18
F0.9242
tp1606
a(S'in'
p1607
g72
F0.9852
tp1608
a(S'your'
p1609
g12
F0.9963
tp1610
a(S'mouth'
p1611
g15
F0.9997
tp1612
a(S"it's"
p1613
g303
F0.9799
tp1614
a(S'salt'
p1615
g15
F0.522
tp1616
a(S'and'
p1617
g65
F0.9982
tp1618
a(S'pepper'
p1619
g56
F0.3794
tp1620
a(S'(.)'
p1621
g56
F0.6215
tp1622
a(g17
g18
F0.9935
tp1623
asI527
(lp1624
(g65
g65
F0.9981
tp1625
a(g67
g12
F0.6166
tp1626
a(g311
g18
F0.7357
tp1627
a(S'h'
p1628
g15
F0.584
tp1629
a(g17
g18
F0.9939
tp1630
asI528
(lp1631
(S'but'
p1632
g65
F0.9917
tp1633
a(S'(.)'
p1634
g157
F0.2233
tp1635
a(S'you'
p1636
g9
F0.9963
tp1637
a(S'only'
p1638
g210
F0.8452
tp1639
a(S'have_to'
p1640
g6
F0.9971
tp1641
a(S'put'
p1642
g6
F0.9972
tp1643
a(S'that'
p1644
g9
F0.6599
tp1645
a(S'in'
p1646
g72
F0.9797
tp1647
a(S'it'
p1648
g9
F0.9931
tp1649
a(g17
g18
F0.9988
tp1650
asI535
(lp1651
(S'only'
p1652
g210
F0.7765
tp1653
a(S'that'
p1654
g12
F0.7559
tp1655
a(S'thing'
p1656
g15
F0.9966
tp1657
a(S'in'
p1658
g72
F0.9982
tp1659
a(S'it'
p1660
g9
F0.9935
tp1661
a(S'(.)'
p1662
g18
F0.3085
tp1663
a(S'not'
p1664
g210
F0.9937
tp1665
a(g17
g18
F0.9958
tp1666
asI539
(lp1667
(S'sit'
p1668
g6
F0.9696
tp1669
a(S'properly'
p1670
g210
F0.9909
tp1671
a(S'at'
p1672
g72
F0.9995
tp1673
a(S'the'
p1674
g12
F0.9991
tp1675
a(S'table'
p1676
g15
F0.989
tp1677
a(S'and'
p1678
g65
F0.9962
tp1679
a(S'eat'
p1680
g6
F0.9977
tp1681
a(S'up'
p1682
g261
F0.924
tp1683
a(g17
g18
F0.9984
tp1684
asI544
(lp1685
(S'she'
p1686
g9
F0.9959
tp1687
a(S'gonna'
p1688
g6
F0.9992
tp1689
a(S'eat'
p1690
g6
F0.9995
tp1691
a(S'all'
p1692
g12
F0.878
tp1693
a(g118
g18
F0.9744
tp1694
a(g3
g18
F0.9901
tp1695
a(g123
g18
F0.981
tp1696
a(S'that'
p1697
g12
F0.6419
tp1698
a(S'salad'
p1699
g15
F0.9966
tp1700
a(g17
g18
F0.9985
tp1701
asI547
(lp1702
(S"don't"
p1703
g6
F0.9987
tp1704
a(S'forget'
p1705
g6
F0.9999
tp1706
a(S'that'
p1707
g9
F0.9105
tp1708
a(g17
g18
F0.9988
tp1709
asI550
(lp1710
(S'okay'
p1711
g3
F0.774
tp1712
a(S'Mommy'
p1713
g56
F0.5599
tp1714
a(g17
g18
F0.9959
tp1715
asI553
(lp1716
(S'you'
p1717
g9
F0.998
tp1718
a(S'told'
p1719
g6
F0.9999
tp1720
a(S'me'
p1721
g9
F0.9985
tp1722
a(S'that'
p1723
g9
F0.3571
tp1724
a(S'before'
p1725
g210
F0.6622
tp1726
a(g17
g18
F0.9967
tp1727
asI556
(lp1728
(g21
g9
F0.9984
tp1729
a(S'know'
p1730
g6
F0.9993
tp1731
a(S'but'
p1732
g65
F0.9845
tp1733
a(S"you're"
p1734
g303
F0.9966
tp1735
a(S'not'
p1736
g210
F0.9984
tp1737
a(S'making'
p1738
g6
F0.9995
tp1739
a(g67
g12
F0.9926
tp1740
a(S'move'
p1741
g15
F0.9785
tp1742
a(S'to'
p1743
g72
F0.9975
tp1744
a(S'eat'
p1745
g6
F0.9998
tp1746
a(S'it'
p1747
g9
F0.9886
tp1748
a(g17
g18
F0.9982
tp1749
asI561
(lp1750
(g21
g9
F0.9976
tp1751
a(S'am'
p1752
g6
F0.995
tp1753
a(g3
g18
F0.9978
tp1754
asI564
(lp1755
(S'watch'
p1756
g6
F0.9957
tp1757
a(S'me'
p1758
g9
F0.9985
tp1759
a(S'make'
p1760
g6
F0.9967
tp1761
a(g67
g12
F0.9924
tp1762
a(S'move'
p1763
g15
F0.9811
tp1764
a(S'again'
p1765
g210
F0.9775
tp1766
a(g17
g18
F0.9974
tp1767
asI567
(lp1768
(S'oops'
p1769
g3
F0.9768
tp1770
a(g21
g9
F0.9988
tp1771
a(S'made'
p1772
g6
F1.0
tp1773
a(S'it'
p1774
g9
F0.9853
tp1775
a(S'(.)'
p1776
g18
F0.2761
tp1777
a(g17
g18
F0.9951
tp1778
asI571
(lp1779
(S'Mommy'
p1780
g15
F0.711
tp1781
a(g45
g18
F0.9974
tp1782
asI575
(lp1783
(S'hm'
p1784
g3
F0.9811
tp1785
a(g311
g18
F0.891
tp1786
a(g45
g18
F0.9885
tp1787
asI579
(lp1788
(S'know'
p1789
g6
F0.9631
tp1790
a(S'what'
p1791
g9
F0.9907
tp1792
a(S'(.)'
p1793
g121
F0.2708
tp1794
a(g45
g18
F0.9716
tp1795
asI584
(lp1796
(S'this'
p1797
g9
F0.9526
tp1798
a(S'is'
p1799
g6
F0.999
tp1800
a(S'like'
p1801
g72
F0.6169
tp1802
a(S'&-um'
p1803
g157
F0.5071
tp1804
a(S'[/]'
p1805
g157
F0.383
tp1806
a(S'&-um'
p1807
g157
F0.655
tp1808
a(S'flower'
p1809
g15
F0.5393
tp1810
a(g17
g18
F0.9975
tp1811
asI587
(lp1812
(S'these'
p1813
g12
F0.5444
tp1814
a(S'are'
p1815
g6
F0.9144
tp1816
a(S'lettuce'
p1817
g15
F0.9291
tp1818
a(S'leaf'
p1819
g15
F0.9987
tp1820
a(g17
g18
F0.9984
tp1821
asI590
(lp1822
(S'huh'
p1823
g3
F0.9936
tp1824
a(g45
g18
F0.9967
tp1825
asI594
(lp1826
(S"it's"
p1827
g303
F0.9785
tp1828
a(S'lettuce'
p1829
g15
F0.986
tp1830
a(g17
g18
F0.9985
tp1831
asI597
(lp1832
(S'lettuce'
p1833
g15
F0.7578
tp1834
a(S'leaf'
p1835
g15
F0.9963
tp1836
a(S'too'
p1837
g210
F0.9684
tp1838
a(g17
g18
F0.9973
tp1839
asI600
(lp1840
(S'mhm'
p1841
g3
F0.9761
tp1842
a(g17
g18
F0.9962
tp1843
asI603
(lp1844
(S'yeah'
p1845
g3
F0.9951
tp1846
a(g118
g18
F0.9838
tp1847
a(g120
g121
F0.3811
tp1848
a(g123
g18
F0.7604
tp1849
a(g17
g18
F0.9962
tp1850
asI606
(lp1851
(g127
g128
F0.9209
tp1852
a(S'but'
p1853
g65
F0.9921
tp1854
a(S"it's"
p1855
g303
F0.9959
tp1856
a(S'good'
p1857
g53
F0.9943
tp1858
a(S'for'
p1859
g72
F0.9997
tp1860
a(S'you'
p1861
g9
F0.9994
tp1862
a(g120
g121
F0.3773
tp1863
a(g118
g121
F0.5345
tp1864
a(g120
g121
F0.9577
tp1865
a(g123
g18
F0.795
tp1866
a(g17
g18
F0.9964
tp1867
asI610
(lp1868
(g127
g128
F0.9351
tp1869
a(S'eat'
p1870
g6
F0.9974
tp1871
a(S'it'
p1872
g9
F0.994
tp1873
a(g120
g121
F0.4803
tp1874
a(g118
g121
F0.535
tp1875
a(g127
g128
F0.6902
tp1876
a(g123
g18
F0.9839
tp1877
a(g17
g18
F0.9962
tp1878
asI613
(lp1879
(S'eat'
p1880
g6
F0.9929
tp1881
a(S'it'
p1882
g9
F0.9894
tp1883
a(g17
g18
F0.9987
tp1884
asI616
(lp1885
(g127
g128
F0.9001
tp1886
a(S'you'
p1887
g9
F0.9985
tp1888
a(S'know'
p1889
g6
F0.9989
tp1890
a(S'what'
p1891
g9
F0.9822
tp1892
a(S'the'
p1893
g12
F0.9992
tp1894
a(S'doctor'
p1895
g15
F0.9973
tp1896
a(S'said'
p1897
g6
F0.9786
tp1898
a(g120
g121
F0.5358
tp1899
a(g118
g121
F0.5345
tp1900
a(g120
g121
F0.949
tp1901
a(g123
g18
F0.7992
tp1902
a(g17
g18
F0.9936
tp1903
asI619
(lp1904
(g127
g128
F0.9117
tp1905
a(S"I'm"
p1906
g303
F0.9968
tp1907
a(S'going'
p1908
g6
F0.9951
tp1909
a(S'to'
p1910
g72
F0.9587
tp1911
a(g120
g121
F0.3347
tp1912
a(g118
g121
F0.535
tp1913
a(g127
g128
F0.7057
tp1914
a(g123
g18
F0.9842
tp1915
a(g17
g18
F0.9969
tp1916
asI622
(lp1917
(S'huh'
p1918
g3
F0.9936
tp1919
a(g45
g18
F0.9967
tp1920
asI626
(lp1921
(g127
g128
F0.9526
tp1922
a(g21
g9
F0.9959
tp1923
a(S"won't>"
p1924
g6
F0.9879
tp1925
a(S'[/]'
p1926
g18
F0.4073
tp1927
a(g21
g9
F0.9945
tp1928
a(S"won't"
p1929
g6
F0.9984
tp1930
a(S'ask'
p1931
g6
F0.9997
tp1932
a(S'you'
p1933
g9
F0.999
tp1934
a(S'for'
p1935
g72
F0.9988
tp1936
a(S'no'
p1937
g12
F0.8142
tp1938
a(S'more'
p1939
g15
F0.5428
tp1940
a(g17
g18
F0.9983
tp1941
asI631
(lp1942
(g21
g9
F0.9984
tp1943
a(S'know'
p1944
g6
F0.9985
tp1945
a(S'and'
p1946
g65
F0.9977
tp1947
a(S'vegetables'
p1948
g15
F0.8697
tp1949
a(S'you'
p1950
g9
F0.9953
tp1951
a(S'have_to'
p1952
g6
F0.9991
tp1953
a(S'eat'
p1954
g6
F0.9941
tp1955
a(S'vegetables'
p1956
g15
F0.9903
tp1957
a(S'and'
p1958
g65
F0.9979
tp1959
a(S'salad'
p1960
g15
F0.9787
tp1961
a(g17
g18
F0.9987
tp1962
asI636
(lp1963
(S'oh'
p1964
g3
F0.9984
tp1965
a(g17
g18
F0.9938
tp1966
asI639
(lp1967
(S'is'
p1968
g6
F0.9981
tp1969
a(S'that'
p1970
g9
F0.8927
tp1971
a(S'what'
p1972
g9
F0.9854
tp1973
a(S'the'
p1974
g12
F0.9992
tp1975
a(S'doctor'
p1976
g15
F0.9965
tp1977
a(S'said'
p1978
g6
F0.9612
tp1979
a(g45
g18
F0.9967
tp1980
asI644
(lp1981
(S'uhhuh'
p1982
g3
F0.9529
tp1983
a(g118
g18
F0.9835
tp1984
a(g120
g121
F0.3811
tp1985
a(g123
g18
F0.7604
tp1986
a(g17
g18
F0.9962
tp1987
asI647
(lp1988
(S'yup'
p1989
g3
F0.9902
tp1990
a(g118
g18
F0.9844
tp1991
a(g127
g128
F0.972
tp1992
a(g123
g18
F0.9847
tp1993
a(g17
g18
F0.9962
tp1994
asI651
(lp1995
(S'yay'
p1996
g3
F0.9975
tp1997
a(g3
g18
F0.995
tp1998
asI654
(lp1999
(g21
g9
F0.9967
tp2000
a(S'love'
p2001
g6
F0.9877
tp2002
a(S'vegetables'
p2003
g15
F0.9917
tp2004
a(g3
g18
F0.9989
tp2005
asI657
(lp2006
(S'you'
p2007
g9
F0.9969
tp2008
a(S'can'
p2009
g6
F0.9996
tp2010
a(S'get'
p2011
g6
F0.9997
tp2012
a(S'seconds'
p2013
g15
F0.9814
tp2014
a(S'in'
p2015
g72
F0.9929
tp2016
a(S'vegetables'
p2017
g15
F0.9954
tp2018
a(g17
g18
F0.9985
tp2019
asI660
(lp2020
(S'okay'
p2021
g3
F0.6237
tp2022
a(S'Daddy'
p2023
g15
F0.4565
tp2024
a(S'(.)'
p2025
g157
F0.4629
tp2026
a(g17
g18
F0.9919
tp2027
asI663
(lp2028
(S'come'
p2029
g6
F0.9897
tp2030
a(S'on'
p2031
g72
F0.7981
tp2032
a(S'go'
p2033
g6
F0.6345
tp2034
a(S'look'
p2035
g6
F0.5737
tp2036
a(g17
g18
F0.998
tp2037
asI667
(lp2038
(S"who's"
p2039
g303
F0.9713
tp2040
a(S'that'
p2041
g9
F0.5283
tp2042
a(S'(.)'
p2043
g157
F0.253
tp2044
a(g45
g18
F0.9891
tp2045
asI671
(lp2046
(S'Mommy'
p2047
g15
F0.711
tp2048
a(g45
g18
F0.9974
tp2049
asI675
(lp2050
(g127
g128
F0.9608
tp2051
a(S"what's>"
p2052
g303
F0.8359
tp2053
a(S'[//]'
p2054
g18
F0.3085
tp2055
a(S"I'm"
p2056
g303
F0.9966
tp2057
a(S'going'
p2058
g6
F0.9953
tp2059
a(S'in'
p2060
g72
F0.9685
tp2061
a(S'the'
p2062
g12
F0.9996
tp2063
a(S'first'
p2064
g53
F0.9899
tp2065
a(S'grade'
p2066
g15
F0.993
tp2067
a(S'when'
p2068
g210
F0.9834
tp2069
a(g21
g9
F0.998
tp2070
a(S'grow'
p2071
g6
F0.9999
tp2072
a(S'up'
p2073
g261
F0.9796
tp2074
a(g45
g18
F0.9987
tp2075
asI681
(lp2076
(S'huh'
p2077
g3
F0.9936
tp2078
a(g45
g18
F0.9967
tp2079
asI685
(lp2080
(S"I'm"
p2081
g303
F0.997
tp2082
a(S'going'
p2083
g6
F0.9938
tp2084
a(S'in'
p2085
g72
F0.9433
tp2086
a(S'the'
p2087
g12
F0.9996
tp2088
a(S'first'
p2089
g53
F0.9899
tp2090
a(S'grade'
p2091
g15
F0.993
tp2092
a(S'when'
p2093
g210
F0.9834
tp2094
a(g21
g9
F0.998
tp2095
a(S'grow'
p2096
g6
F0.9999
tp2097
a(S'up'
p2098
g261
F0.9726
tp2099
a(g45
g18
F0.9979
tp2100
asI691
(lp2101
(S'uhhuh'
p2102
g3
F0.9881
tp2103
a(g17
g18
F0.997
tp2104
asI694
(lp2105
(S'Ronny'
p2106
g56
F0.9971
tp2107
a(g45
g18
F0.9956
tp2108
asI697
(lp2109
(S"I'm"
p2110
g303
F0.9951
tp2111
a(S'gonna'
p2112
g6
F0.9956
tp2113
a(S'be'
p2114
g6
F0.9996
tp2115
a(S'in'
p2116
g72
F0.9906
tp2117
a(S'the'
p2118
g12
F0.9996
tp2119
a(S'first'
p2120
g53
F0.9894
tp2121
a(S'grade'
p2122
g15
F0.9969
tp2123
a(g17
g18
F0.9985
tp2124
asI702
(lp2125
(S"I'm"
p2126
g303
F0.997
tp2127
a(S'going'
p2128
g6
F0.9938
tp2129
a(S'in'
p2130
g72
F0.9433
tp2131
a(S'the'
p2132
g12
F0.9996
tp2133
a(S'first'
p2134
g53
F0.9899
tp2135
a(S'grade'
p2136
g15
F0.9935
tp2137
a(S'and'
p2138
g65
F0.9982
tp2139
a(S'when'
p2140
g210
F0.9913
tp2141
a(g21
g9
F0.998
tp2142
a(S'grow'
p2143
g6
F0.9999
tp2144
a(S'up'
p2145
g261
F0.9711
tp2146
a(g17
g18
F0.9967
tp2147
asI707
(lp2148
(S'going'
p2149
g6
F0.9966
tp2150
a(S'in'
p2151
g72
F0.9688
tp2152
a(S'the'
p2153
g12
F0.9996
tp2154
a(S'first'
p2155
g53
F0.9902
tp2156
a(S'grade'
p2157
g15
F0.9969
tp2158
a(g17
g18
F0.9979
tp2159
asI711
(lp2160
(S'cars'
p2161
g15
F0.9492
tp2162
a(S'(.)'
p2163
g121
F0.3552
tp2164
a(g45
g18
F0.9749
tp2165
asI714
(lp2166
(g21
g9
F0.9983
tp2167
a(S'knew'
p2168
g6
F0.9999
tp2169
a(S'it'
p2170
g9
F0.9885
tp2171
a(g17
g18
F0.999
tp2172
asI717
(lp2173
(g21
g9
F0.9983
tp2174
a(S'knew'
p2175
g6
F0.9999
tp2176
a(S'it'
p2177
g9
F0.9569
tp2178
a(S'he'
p2179
g9
F0.9918
tp2180
a(S"don't"
p2181
g6
F1.0
tp2182
a(S'have'
p2183
g6
F0.9996
tp2184
a(S'cars'
p2185
g15
F0.9896
tp2186
a(S'(.)'
p2187
g157
F0.2902
tp2188
a(g17
g18
F0.9932
tp2189
asI722
(lp2190
(S"don't"
p2191
g6
F0.9992
tp2192
a(S'pick'
p2193
g6
F0.9988
tp2194
a(S'at'
p2195
g72
F0.9933
tp2196
a(S'me'
p2197
g9
F0.9954
tp2198
a(S'okay'
p2199
g3
F0.8173
tp2200
a(g45
g18
F0.9978
tp2201
asI725
(lp2202
(S"don't"
p2203
g6
F0.9992
tp2204
a(S'pick'
p2205
g6
F0.9999
tp2206
a(S'me'
p2207
g9
F0.9977
tp2208
a(g17
g18
F0.9985
tp2209
asI728
(lp2210
(S'(..)'
p2211
g121
F0.6089
tp2212
a(S'xxx'
p2213
g121
F0.9243
tp2214
a(g17
g18
F0.9721
tp2215
asI729
(lp2216
(S'huh'
p2217
g3
F0.9936
tp2218
a(g45
g18
F0.9967
tp2219
asI733
(lp2220
(S'no'
p2221
g3
F0.9704
tp2222
a(g17
g18
F0.9989
tp2223
asI736
(lp2224
(S'(..)'
p2225
g18
F0.4515
tp2226
a(S'you'
p2227
g9
F0.9973
tp2228
a(S"don't"
p2229
g6
F1.0
tp2230
a(S'eat'
p2231
g6
F0.9976
tp2232
a(S'fish'
p2233
g15
F0.9875
tp2234
a(g45
g18
F0.9971
tp2235
asI739
(lp2236
(S'xxx'
p2237
g121
F0.5822
tp2238
a(g17
g18
F0.9648
tp2239
asI740
(lp2240
(S'huh'
p2241
g3
F0.9936
tp2242
a(g45
g18
F0.9967
tp2243
asI743
(lp2244
(g21
g9
F0.9976
tp2245
a(S"don't"
p2246
g6
F1.0
tp2247
a(S'eat'
p2248
g6
F0.9975
tp2249
a(S'xxx'
p2250
g15
F0.416
tp2251
a(g17
g18
F0.9984
tp2252
asI746
(lp2253
(S'xxx'
p2254
g121
F0.5822
tp2255
a(g17
g18
F0.9648
tp2256
asI747
(lp2257
(S'oh'
p2258
g3
F0.9984
tp2259
a(g17
g18
F0.9938
tp2260
asI750
(lp2261
(S'zzz'
p2262
g3
F0.3756
tp2263
a(g17
g18
F0.9972
tp2264
asI754
(lp2265
(S'no'
p2266
g3
F0.8389
tp2267
a(g118
g18
F0.9909
tp2268
a(g3
g18
F0.9842
tp2269
a(g123
g18
F0.9915
tp2270
a(S'never'
p2271
g210
F0.9895
tp2272
a(S'put'
p2273
g6
F0.9961
tp2274
a(S'that'
p2275
g9
F0.6599
tp2276
a(S'in'
p2277
g72
F0.984
tp2278
a(S'your'
p2279
g12
F0.9245
tp2280
a(S'+'
p2281
g157
F0.7927
tp2282
a(S'...'
p2283
g128
F0.6984
tp2284
asI757
(lp2285
(S'Daddy'
p2286
g15
F0.8388
tp2287
a(S"that's"
p2288
g303
F0.947
tp2289
a(S'pepper'
p2290
g15
F0.509
tp2291
a(S'right'
p2292
g210
F0.6176
tp2293
a(S'there'
p2294
g210
F0.9427
tp2295
a(g45
g18
F0.9977
tp2296
asI761
(lp2297
(g21
g9
F0.9982
tp2298
a(S'thought'
p2299
g6
F0.9999
tp2300
a(S'it'
p2301
g9
F0.9958
tp2302
a(S'was'
p2303
g6
F0.9987
tp2304
a(S'pepper'
p2305
g15
F0.3968
tp2306
a(S'like'
p2307
g72
F0.8531
tp2308
a(S'peppers'
p2309
g15
F0.9928
tp2310
a(g17
g18
F0.9987
tp2311
asI766
(lp2312
(S'xxx'
p2313
g121
F0.5822
tp2314
a(g17
g18
F0.9648
tp2315
asI767
(lp2316
(S'if'
p2317
g72
F0.9899
tp2318
a(S"it's"
p2319
g303
F0.9973
tp2320
a(S'good'
p2321
g53
F0.9894
tp2322
a(S'for'
p2323
g72
F0.9982
tp2324
a(S'Ronny'
p2325
g56
F0.9995
tp2326
a(S"it's"
p2327
g303
F0.9912
tp2328
a(S'good'
p2329
g53
F0.9934
tp2330
a(S'for'
p2331
g72
F0.9998
tp2332
a(S'my'
p2333
g12
F0.9967
tp2334
a(S'daddy'
p2335
g15
F0.9984
tp2336
a(g17
g18
F0.9985
tp2337
asI772
(lp2338
(S'yeah'
p2339
g3
F0.9986
tp2340
a(g17
g18
F0.997
tp2341
asI775
(lp2342
(S'good'
p2343
g53
F0.952
tp2344
a(S'for'
p2345
g72
F0.9996
tp2346
a(S'me'
p2347
g9
F0.9979
tp2348
a(g45
g18
F0.9984
tp2349
asI778
(lp2350
(S"it's"
p2351
g303
F0.9984
tp2352
a(S'not'
p2353
g210
F0.9994
tp2354
a(S'good'
p2355
g53
F0.9743
tp2356
a(S'for'
p2357
g72
F0.9996
tp2358
a(S'me'
p2359
g9
F0.9988
tp2360
a(g17
g18
F0.998
tp2361
asI781
(lp2362
(S'yes'
p2363
g3
F0.965
tp2364
a(S'it'
p2365
g9
F0.9987
tp2366
a(S'is'
p2367
g6
F0.9995
tp2368
a(g17
g18
F0.9979
tp2369
asI784
(lp2370
(S'uhhuh'
p2371
g3
F0.9699
tp2372
a(S'(.)'
p2373
g3
F0.2602
tp2374
a(g17
g18
F0.9973
tp2375
asI787
(lp2376
(S'not'
p2377
g210
F0.9571
tp2378
a(S'pepper'
p2379
g15
F0.7603
tp2380
a(g17
g18
F0.9979
tp2381
asI790
(lp2382
(S'this'
p2383
g9
F0.9526
tp2384
a(S'is'
p2385
g6
F0.9949
tp2386
a(S'pepper'
p2387
g15
F0.8148
tp2388
a(g17
g18
F0.998
tp2389
asI793
(lp2390
(S'Mommy'
p2391
g56
F0.4719
tp2392
a(S'(.)'
p2393
g56
F0.867
tp2394
a(S'is'
p2395
g6
F0.9988
tp2396
a(S'that'
p2397
g9
F0.7559
tp2398
a(S'pepper'
p2399
g15
F0.6288
tp2400
a(g45
g18
F0.9965
tp2401
asI797
(lp2402
(S'what'
p2403
g9
F0.9171
tp2404
a(g45
g18
F0.9924
tp2405
asI801
(lp2406
(S'that'
p2407
g9
F0.6231
tp2408
a(S'xxx'
p2409
g6
F0.615
tp2410
a(S'right'
p2411
g210
F0.6619
tp2412
a(S'there'
p2413
g210
F0.9114
tp2414
a(g17
g18
F0.9982
tp2415
asI804
(lp2416
(S'yeah'
p2417
g3
F0.9986
tp2418
a(g17
g18
F0.997
tp2419
asI807
(lp2420
(S'oh'
p2421
g3
F0.9984
tp2422
a(g17
g18
F0.9938
tp2423
asI810
(lp2424
(S"it's"
p2425
g303
F0.9786
tp2426
a(S'salad'
p2427
g15
F0.9575
tp2428
a(S'dressing'
p2429
g6
F0.967
tp2430
a(g21
g9
F0.9986
tp2431
a(S'thought'
p2432
g6
F0.9999
tp2433
a(S'you'
p2434
g9
F0.999
tp2435
a(S'were'
p2436
g6
F0.9978
tp2437
a(S'talking'
p2438
g6
F0.9723
tp2439
a(S'about'
p2440
g72
F0.9975
tp2441
a(S'the'
p2442
g12
F0.9954
tp2443
a(S'pepper'
p2444
g15
F0.9452
tp2445
a(g17
g18
F0.9967
tp2446
asI816
(lp2447
(S'that'
p2448
g9
F0.7548
tp2449
a(g118
g18
F0.9902
tp2450
a(g3
g18
F0.9842
tp2451
a(g123
g18
F0.9604
tp2452
a(S'pepper'
p2453
g15
F0.6796
tp2454
a(g3
g18
F0.9982
tp2455
asI819
(lp2456
(S'not'
p2457
g210
F0.9697
tp2458
a(S'that'
p2459
g9
F0.7073
tp2460
a(S'already'
p2461
g210
F0.9971
tp2462
a(S'not'
p2463
g210
F0.9947
tp2464
a(S'pepper'
p2465
g15
F0.6324
tp2466
a(g17
g18
F0.9974
tp2467
asI823
(lp2468
(S"it's"
p2469
g303
F0.9984
tp2470
a(S'not'
p2471
g210
F0.9804
tp2472
a(S'food'
p2473
g15
F0.9869
tp2474
a(g118
g18
F0.9853
tp2475
a(g45
g18
F0.9841
tp2476
a(g123
g18
F0.9303
tp2477
a(S"that's"
p2478
g303
F0.991
tp2479
a(S'callaloo'
p2480
g56
F0.3686
tp2481
a(S'[='
p2482
g121
F0.8921
tp2483
a(S'West'
p2484
g56
F0.7997
tp2485
a(S'Indian'
p2486
g56
F0.9515
tp2487
a(S'vegetable'
p2488
g15
F0.9559
tp2489
a(g123
g18
F0.9912
tp2490
a(g17
g18
F0.9977
tp2491
asI827
(lp2492
(S"I'm"
p2493
g303
F0.9951
tp2494
a(S'gonna'
p2495
g6
F0.9948
tp2496
a(S'make'
p2497
g6
F0.9995
tp2498
a(g67
g12
F0.99
tp2499
a(S'move'
p2500
g15
F0.9846
tp2501
a(g17
g18
F0.9978
tp2502
asI831
(lp2503
(S"I'm"
p2504
g303
F0.9951
tp2505
a(S'gonna'
p2506
g6
F0.9948
tp2507
a(S'make'
p2508
g6
F0.9995
tp2509
a(g67
g12
F0.9924
tp2510
a(S'move'
p2511
g15
F0.889
tp2512
a(S'Mommy'
p2513
g15
F0.8385
tp2514
a(g17
g18
F0.9986
tp2515
asI835
(lp2516
(S'want'
p2517
g6
F0.9993
tp2518
a(S'me'
p2519
g9
F0.9987
tp2520
a(S'see'
p2521
g6
F0.9967
tp2522
a(S'you'
p2523
g9
F0.9903
tp2524
a(S'when'
p2525
g210
F0.9967
tp2526
a(g21
g9
F0.9982
tp2527
a(S'make'
p2528
g6
F0.9998
tp2529
a(g67
g12
F0.9911
tp2530
a(S'move'
p2531
g15
F0.9809
tp2532
a(g45
g18
F0.9978
tp2533
asI841
(lp2534
(S'uhhuh'
p2535
g3
F0.9881
tp2536
a(g17
g18
F0.997
tp2537
asI844
(lp2538
(S'okay'
p2539
g3
F0.881
tp2540
a(S'watch'
p2541
g6
F0.9887
tp2542
a(S'me'
p2543
g9
F0.9974
tp2544
a(g17
g18
F0.9985
tp2545
asI847
(lp2546
(S"that's"
p2547
g303
F0.9896
tp2548
a(S'good'
p2549
g53
F0.9992
tp2550
a(g17
g18
F0.9981
tp2551
asI850
(lp2552
(S'now'
p2553
g210
F0.9913
tp2554
a(S'you'
p2555
g9
F0.9991
tp2556
a(S'have_to'
p2557
g6
F0.9992
tp2558
a(S'eat'
p2559
g6
F0.9962
tp2560
a(S'everything'
p2561
g15
F0.9934
tp2562
a(g17
g18
F0.9979
tp2563
asI853
(lp2564
(S'do'
p2565
g6
F0.9985
tp2566
a(S'you'
p2567
g9
F0.9989
tp2568
a(S'like'
p2569
g6
F0.9263
tp2570
a(S'me'
p2571
g9
F0.9984
tp2572
a(g45
g18
F0.9984
tp2573
asI857
(lp2574
(S'me'
p2575
g9
F0.985
tp2576
a(g45
g18
F0.9978
tp2577
asI861
(lp2578
(S'do'
p2579
g6
F0.9985
tp2580
a(S'you'
p2581
g9
F0.9989
tp2582
a(S'like'
p2583
g6
F0.9263
tp2584
a(S'me'
p2585
g9
F0.9984
tp2586
a(g45
g18
F0.9984
tp2587
asI865
(lp2588
(S"it's"
p2589
g303
F0.9932
tp2590
a(S'good'
p2591
g53
F0.9985
tp2592
a(S'(.)'
p2593
g121
F0.2371
tp2594
a(S'alright'
p2595
g3
F0.8417
tp2596
a(g45
g18
F0.9981
tp2597
asI869
(lp2598
(S'uhhuh'
p2599
g3
F0.9699
tp2600
a(S'(.)'
p2601
g3
F0.2602
tp2602
a(g17
g18
F0.9973
tp2603
asI872
(lp2604
(g21
g9
F0.9967
tp2605
a(S'love'
p2606
g6
F0.9995
tp2607
a(S'you'
p2608
g9
F0.9947
tp2609
a(S'Mommy'
p2610
g15
F0.6316
tp2611
a(g17
g18
F0.9988
tp2612
asI875
(lp2613
(g21
g9
F0.9967
tp2614
a(S'love'
p2615
g6
F0.9995
tp2616
a(S'you'
p2617
g9
F0.9992
tp2618
a(S'too'
p2619
g210
F0.949
tp2620
a(S'Astra'
p2621
g56
F0.9429
tp2622
a(g17
g18
F0.9964
tp2623
asI878
(lp2624
(S'eat'
p2625
g6
F0.99
tp2626
a(S'your'
p2627
g12
F0.9928
tp2628
a(S'salad'
p2629
g15
F0.999
tp2630
a(g17
g18
F0.9986
tp2631
asI881
(lp2632
(S'okay'
p2633
g3
F0.9741
tp2634
a(g17
g18
F0.9977
tp2635
asI884
(lp2636
(S'xxx'
p2637
g121
F0.5822
tp2638
a(g17
g18
F0.9648
tp2639
asI885
(lp2640
(S'Mommy'
p2641
g15
F0.8032
tp2642
a(g21
g9
F0.9937
tp2643
a(S'want'
p2644
g6
F1.0
tp2645
a(S'the'
p2646
g12
F0.9934
tp2647
a(g2281
g157
F0.4734
tp2648
a(S'...'
p2649
g128
F0.7255
tp2650
asI888
(lp2651
(S'xxx'
p2652
g121
F0.5822
tp2653
a(g17
g18
F0.9648
tp2654
asI889
(lp2655
(S'what'
p2656
g9
F0.9461
tp2657
a(S'you'
p2658
g9
F0.9996
tp2659
a(S'say'
p2660
g6
F0.996
tp2661
a(S'Astra'
p2662
g56
F0.9495
tp2663
a(g45
g18
F0.998
tp2664
asI893
(lp2665
(S'can'
p2666
g6
F0.9938
tp2667
a(g21
g9
F0.9994
tp2668
a(S'have'
p2669
g6
F1.0
tp2670
a(g67
g12
F0.9976
tp2671
a(S'piece'
p2672
g15
F0.9989
tp2673
a(S'of'
p2674
g72
F0.9971
tp2675
a(S'fish'
p2676
g15
F0.979
tp2677
a(g45
g18
F0.9977
tp2678
asI897
(lp2679
(S'yeah'
p2680
g3
F0.9922
tp2681
a(S'you'
p2682
g9
F0.9984
tp2683
a(S'can'
p2684
g6
F0.9997
tp2685
a(S'have'
p2686
g6
F0.9999
tp2687
a(g67
g12
F0.9975
tp2688
a(S'piece'
p2689
g15
F0.9989
tp2690
a(S'of'
p2691
g72
F0.9968
tp2692
a(S'fish'
p2693
g15
F0.9651
tp2694
a(S'but'
p2695
g65
F0.9717
tp2696
a(S'you'
p2697
g9
F0.9995
tp2698
a(S'have_to'
p2699
g6
F0.9991
tp2700
a(S'eat'
p2701
g6
F0.9995
tp2702
a(S'your'
p2703
g12
F0.9941
tp2704
a(S'salad'
p2705
g15
F0.9986
tp2706
a(g17
g18
F0.9985
tp2707
asI902
(lp2708
(S'okay'
p2709
g3
F0.9741
tp2710
a(g17
g18
F0.9977
tp2711
asI905
(lp2712
(g21
g9
F0.9969
tp2713
a(S'eating'
p2714
g6
F1.0
tp2715
a(S'the'
p2716
g12
F0.9995
tp2717
a(S'salad'
p2718
g15
F0.9949
tp2719
a(S'up'
p2720
g261
F0.6212
tp2721
a(g17
g18
F0.9974
tp2722
asI908
(lp2723
(S'thank'
p2724
g6
F0.9661
tp2725
a(S'you'
p2726
g9
F0.9891
tp2727
a(S'Mommy'
p2728
g15
F0.671
tp2729
a(g17
g18
F0.9987
tp2730
asI911
(lp2731
(S"you're"
p2732
g303
F0.9777
tp2733
a(S'welcome'
p2734
g53
F0.8002
tp2735
a(g17
g18
F0.9976
tp2736
asI914
(lp2737
(S"it's"
p2738
g303
F0.9964
tp2739
a(S'too'
p2740
g210
F0.9989
tp2741
a(S'much'
p2742
g53
F0.6493
tp2743
a(S'to'
p2744
g72
F0.9988
tp2745
a(S'eat'
p2746
g6
F0.9928
tp2747
a(S'meat'
p2748
g15
F0.9836
tp2749
a(g118
g18
F0.9864
tp2750
a(g3
g18
F0.9901
tp2751
a(g123
g18
F0.9874
tp2752
a(S'me'
p2753
g9
F0.9897
tp2754
a(g17
g18
F0.9985
tp2755
asI920
(lp2756
(S"I'm"
p2757
g303
F0.9955
tp2758
a(S'watching'
p2759
g6
F0.9997
tp2760
a(S'you'
p2761
g9
F0.9988
tp2762
a(g118
g18
F0.9957
tp2763
a(g3
g18
F0.9917
tp2764
a(g123
g18
F0.9703
tp2765
a(g17
g18
F0.9959
tp2766
asI923
(lp2767
(S"I'm"
p2768
g303
F0.9955
tp2769
a(S'eating'
p2770
g6
F0.9989
tp2771
a(S'the'
p2772
g12
F0.9995
tp2773
a(S'salad'
p2774
g15
F0.9801
tp2775
a(S'(.)'
p2776
g121
F0.3708
tp2777
a(g3
g18
F0.9733
tp2778
asI927
(lp2779
(S'what'
p2780
g9
F0.9461
tp2781
a(S'you'
p2782
g9
F0.9992
tp2783
a(S'watching'
p2784
g6
F1.0
tp2785
a(S'me'
p2786
g9
F0.9984
tp2787
a(S'for'
p2788
g72
F0.9889
tp2789
a(S'why'
p2790
g210
F0.9291
tp2791
a(g45
g18
F0.9958
tp2792
asI933
(lp2793
(S'go'
p2794
g6
F0.9625
tp2795
a(S'ahead'
p2796
g210
F0.9526
tp2797
a(S'and'
p2798
g65
F0.9967
tp2799
a(S'eat'
p2800
g6
F0.9984
tp2801
a(S'your'
p2802
g12
F0.9934
tp2803
a(S'salad'
p2804
g15
F0.998
tp2805
a(g17
g18
F0.9985
tp2806
asI936
(lp2807
(g21
g9
F0.9984
tp2808
a(S'know'
p2809
g6
F0.9995
tp2810
a(S'how'
p2811
g210
F0.9797
tp2812
a(S'eat'
p2813
g6
F0.9941
tp2814
a(S'my'
p2815
g12
F0.9975
tp2816
a(S'salad'
p2817
g15
F0.988
tp2818
a(S'Mommy'
p2819
g15
F0.9589
tp2820
a(g17
g18
F0.9987
tp2821
asI940
(lp2822
(S'you'
p2823
g9
F0.9983
tp2824
a(S'know'
p2825
g6
F0.9988
tp2826
a(S'how'
p2827
g210
F0.987
tp2828
a(S'to'
p2829
g72
F0.9624
tp2830
a(g45
g18
F0.995
tp2831
asI944
(lp2832
(S'yes'
p2833
g3
F0.9893
tp2834
a(g21
g9
F0.9992
tp2835
a(S'do'
p2836
g6
F0.9997
tp2837
a(g3
g18
F0.9971
tp2838
asI947
(lp2839
(S'uhhuh'
p2840
g3
F0.9881
tp2841
a(g17
g18
F0.997
tp2842
asI950
(lp2843
(S'zzz'
p2844
g3
F0.3756
tp2845
a(g17
g18
F0.9972
tp2846
asI954
(lp2847
(S'and'
p2848
g65
F0.9994
tp2849
a(g21
g9
F0.999
tp2850
a(S"don't"
p2851
g6
F1.0
tp2852
a(S'know'
p2853
g6
F0.9995
tp2854
a(S'how'
p2855
g210
F0.9928
tp2856
a(S'to'
p2857
g72
F0.9946
tp2858
a(S'lie'
p2859
g6
F0.9982
tp2860
a(S'down'
p2861
g261
F0.5539
tp2862
a(g17
g18
F0.9984
tp2863
asI960
(lp2864
(S'you'
p2865
g9
F0.9956
tp2866
a(S'doing'
p2867
g6
F0.9998
tp2868
a(S'good'
p2869
g53
F0.9894
tp2870
a(S'Astra'
p2871
g56
F0.7543
tp2872
a(S'eat'
p2873
g6
F0.9879
tp2874
a(S'up'
p2875
g261
F0.9395
tp2876
a(g127
g128
F0.8428
tp2877
a(g67
g12
F0.9923
tp2878
a(S'lot'
p2879
g15
F0.9314
tp2880
a(g120
g157
F0.3344
tp2881
a(S'[/]'
p2882
g157
F0.3636
tp2883
a(g67
g12
F0.9887
tp2884
a(S'lot'
p2885
g15
F0.9597
tp2886
a(S'already'
p2887
g210
F0.9926
tp2888
a(g17
g18
F0.9977
tp2889
asI965
(lp2890
(S'eat'
p2891
g6
F0.9929
tp2892
a(S'up'
p2893
g261
F0.9405
tp2894
a(g17
g18
F0.9978
tp2895
asI968
(lp2896
(S'Mommy'
p2897
g15
F0.4941
tp2898
a(S"I'm"
p2899
g303
F0.9915
tp2900
a(S'doing'
p2901
g6
F0.9982
tp2902
a(S'good'
p2903
g53
F0.9853
tp2904
a(S'too'
p2905
g210
F0.988
tp2906
a(g17
g18
F0.9964
tp2907
asI971
(lp2908
(S'mhm'
p2909
g3
F0.9761
tp2910
a(g17
g18
F0.9962
tp2911
asI974
(lp2912
(S"that's"
p2913
g303
F0.9949
tp2914
a(S'what'
p2915
g9
F0.9854
tp2916
a(g21
g9
F0.9995
tp2917
a(S'said'
p2918
g6
F0.9999
tp2919
a(S'you'
p2920
g9
F0.9986
tp2921
a(S'doing'
p2922
g6
F0.9998
tp2923
a(S'good'
p2924
g53
F0.9823
tp2925
a(S'eating'
p2926
g6
F0.9578
tp2927
a(S'your'
p2928
g12
F0.9904
tp2929
a(S'salad'
p2930
g15
F0.9972
tp2931
a(S'right'
p2932
g53
F0.3667
tp2933
a(S'(.)'
p2934
g56
F0.3139
tp2935
a(g45
g18
F0.9936
tp2936
asI982
(lp2937
(S'Mommy'
p2938
g15
F0.3919
tp2939
a(S'you'
p2940
g9
F0.9953
tp2941
a(S"didn't"
p2942
g6
F1.0
tp2943
a(S'give'
p2944
g6
F1.0
tp2945
a(S'me'
p2946
g9
F0.9925
tp2947
a(S'no'
p2948
g12
F0.6777
tp2949
a(S'bread'
p2950
g15
F0.9999
tp2951
a(g3
g18
F0.999
tp2952
asI987
(lp2953
(S'you'
p2954
g9
F0.998
tp2955
a(S'have'
p2956
g6
F0.9992
tp2957
a(S'not'
p2958
g210
F0.98
tp2959
a(S'finished'
p2960
g6
F0.9984
tp2961
a(S'eating'
p2962
g6
F0.9995
tp2963
a(S'your'
p2964
g12
F0.9904
tp2965
a(S'salad'
p2966
g15
F0.9982
tp2967
a(S'yet'
p2968
g210
F0.9421
tp2969
a(g17
g18
F0.9987
tp2970
asI992
(lp2971
(g127
g128
F0.9121
tp2972
a(S"that's>"
p2973
g303
F0.6673
tp2974
a(g118
g18
F0.9665
tp2975
a(g120
g121
F0.4857
tp2976
a(g123
g18
F0.7304
tp2977
a(S'[/]'
p2978
g18
F0.2062
tp2979
a(g17
g18
F0.9961
tp2980
asI993
(lp2981
(S'and'
p2982
g65
F0.9973
tp2983
a(g118
g18
F0.9732
tp2984
a(g127
g128
F0.9843
tp2985
a(g123
g18
F0.9916
tp2986
a(S'you'
p2987
g9
F0.998
tp2988
a(S'had'
p2989
g6
F0.999
tp2990
a(S'bread'
p2991
g15
F0.993
tp2992
a(S'already'
p2993
g210
F0.9797
tp2994
a(S'this'
p2995
g12
F0.9753
tp2996
a(S'morning'
p2997
g15
F0.9868
tp2998
a(S'(.)'
p2999
g157
F0.2736
tp3000
a(g17
g18
F0.9862
tp3001
asI997
(lp3002
(S'mm'
p3003
g3
F0.5842
tp3004
a(g17
g18
F0.9932
tp3005
asI1001
(lp3006
(S"that's"
p3007
g303
F0.9694
tp3008
a(S'the'
p3009
g12
F0.9984
tp3010
a(S'fish'
p3011
g15
F0.995
tp3012
a(S'you'
p3013
g9
F0.9956
tp3014
a(S'ate'
p3015
g6
F0.9978
tp3016
a(g17
g18
F0.9967
tp3017
asI1004
(lp3018
(S"that's"
p3019
g303
F0.9974
tp3020
a(S'not'
p3021
g210
F0.9883
tp3022
a(S'your'
p3023
g12
F0.9511
tp3024
a(S'salad'
p3025
g15
F0.9988
tp3026
a(g17
g18
F0.9987
tp3027
asI1007
(lp3028
(S'because'
p3029
g72
F0.997
tp3030
a(S"I'm"
p3031
g303
F0.9977
tp3032
a(S'not'
p3033
g210
F0.9974
tp3034
a(S'eating'
p3035
g6
F0.9997
tp3036
a(S'it'
p3037
g9
F0.993
tp3038
a(g17
g18
F0.9986
tp3039
asI1011
(lp3040
(S"I'm"
p3041
g303
F0.9953
tp3042
a(S'taking'
p3043
g6
F0.9996
tp3044
a(S'my'
p3045
g12
F0.9972
tp3046
a(S'bread'
p3047
g15
F0.9972
tp3048
a(S'and'
p3049
g65
F0.9972
tp3050
a(S'xxx'
p3051
g121
F0.4348
tp3052
a(S'light'
p3053
g15
F0.8947
tp3054
a(g17
g18
F0.9984
tp3055
asI1015
(lp3056
(S"don't"
p3057
g6
F0.999
tp3058
a(S'talk'
p3059
g6
F0.999
tp3060
a(S'to'
p3061
g72
F0.9958
tp3062
a(S'me'
p3063
g9
F0.9984
tp3064
a(S'back'
p3065
g210
F0.9021
tp3066
a(g17
g18
F0.9981
tp3067
asI1018
(lp3068
(S'be'
p3069
g6
F0.9862
tp3070
a(S'quiet'
p3071
g53
F0.9844
tp3072
a(S'Astra'
p3073
g56
F0.6896
tp3074
a(S'(.)'
p3075
g56
F0.6618
tp3076
a(g17
g18
F0.9943
tp3077
asI1021
(lp3078
(S'none'
p3079
g15
F0.978
tp3080
a(S'of'
p3081
g72
F0.9979
tp3082
a(S'that'
p3083
g9
F0.9514
tp3084
a(g17
g18
F0.9988
tp3085
asI1024
(lp3086
(S'xxx'
p3087
g121
F0.5822
tp3088
a(g17
g18
F0.9648
tp3089
asI1025
(lp3090
(S'oh'
p3091
g3
F0.9887
tp3092
a(S'let'
p3093
g6
F0.9975
tp3094
a(S'me'
p3095
g9
F0.9994
tp3096
a(S'tell'
p3097
g6
F0.9956
tp3098
a(S'you'
p3099
g9
F0.9994
tp3100
a(S'something'
p3101
g15
F0.8219
tp3102
a(S'Mommy'
p3103
g15
F0.7282
tp3104
a(g3
g18
F0.9989
tp3105
asI1029
(lp3106
(S'let'
p3107
g6
F0.9975
tp3108
a(S'me'
p3109
g9
F0.9995
tp3110
a(S'tell'
p3111
g6
F0.996
tp3112
a(S'you'
p3113
g9
F0.9993
tp3114
a(S'something'
p3115
g15
F0.9424
tp3116
a(g17
g18
F0.9978
tp3117
asI1032
(lp3118
(S'just'
p3119
g210
F0.9991
tp3120
a(S"don't"
p3121
g6
F0.9999
tp3122
a(S'believe'
p3123
g6
F1.0
tp3124
a(S'me'
p3125
g9
F0.9961
tp3126
a(S'okay'
p3127
g3
F0.8173
tp3128
a(g45
g18
F0.9978
tp3129
asI1036
(lp3130
(S'Dad'
p3131
g15
F0.8115
tp3132
a(S'let'
p3133
g6
F0.9986
tp3134
a(S'me'
p3135
g9
F0.9994
tp3136
a(S'tell'
p3137
g6
F0.9956
tp3138
a(S'you'
p3139
g9
F0.9993
tp3140
a(S'something'
p3141
g15
F0.9672
tp3142
a(g17
g18
F0.9982
tp3143
asI1040
(lp3144
(S'okay'
p3145
g3
F0.9732
tp3146
a(g45
g18
F0.9976
tp3147
asI1044
(lp3148
(S'eat'
p3149
g6
F0.99
tp3150
a(S'your'
p3151
g12
F0.9928
tp3152
a(S'salad'
p3153
g15
F0.999
tp3154
a(g17
g18
F0.9986
tp3155
asI1047
(lp3156
(g21
g9
F0.9976
tp3157
a(S"don't"
p3158
g6
F1.0
tp3159
a(S'want'
p3160
g6
F0.9999
tp3161
a(S'to'
p3162
g72
F0.9955
tp3163
a(S'hear'
p3164
g6
F0.9993
tp3165
a(S'you'
p3166
g9
F0.9984
tp3167
a(S'talk'
p3168
g6
F0.9986
tp3169
a(S'like'
p3170
g72
F0.9448
tp3171
a(S'that'
p3172
g9
F0.954
tp3173
a(g17
g18
F0.9987
tp3174
asI1052
(lp3175
(S'okay'
p3176
g3
F0.9732
tp3177
a(g45
g18
F0.9976
tp3178
asI1056
(lp3179
(S'good'
p3180
g53
F0.9787
tp3181
a(S'(.)'
p3182
g15
F0.3148
tp3183
a(g17
g18
F0.9976
tp3184
asI1059
(lp3185
(S'zzz'
p3186
g3
F0.3756
tp3187
a(g17
g18
F0.9972
tp3188
asI1064
(lp3189
(S'Mom'
p3190
g15
F0.7184
tp3191
a(S"what's"
p3192
g303
F0.9832
tp3193
a(S'this'
p3194
g12
F0.9771
tp3195
a(S'thing'
p3196
g15
F0.9991
tp3197
a(g45
g18
F0.9962
tp3198
asI1068
(lp3199
(S'xxx'
p3200
g121
F0.8981
tp3201
a(g118
g18
F0.661
tp3202
a(g120
g121
F0.3811
tp3203
a(g123
g18
F0.7604
tp3204
a(g17
g18
F0.9962
tp3205
asI1069
(lp3206
(g127
g128
F0.9328
tp3207
a(S"it's"
p3208
g303
F0.9956
tp3209
a(g67
g12
F0.9561
tp3210
a(g120
g121
F0.3094
tp3211
a(g118
g121
F0.535
tp3212
a(g127
g128
F0.8293
tp3213
a(g123
g18
F0.9786
tp3214
a(S'piece'
p3215
g15
F0.9751
tp3216
a(S'of'
p3217
g72
F0.9966
tp3218
a(S'fish'
p3219
g15
F0.9802
tp3220
a(g17
g18
F0.9987
tp3221
asI1072
(lp3222
(S'eat'
p3223
g6
F0.9753
tp3224
a(g67
g12
F0.9976
tp3225
a(S'piece'
p3226
g15
F0.9991
tp3227
a(S'of'
p3228
g72
F0.997
tp3229
a(S'cucumber'
p3230
g15
F0.8839
tp3231
a(S'Astra'
p3232
g15
F0.6719
tp3233
a(g17
g18
F0.9989
tp3234
asI1075
(lp3235
(S'yyy'
p3236
g210
F0.4629
tp3237
a(g17
g18
F0.9941
tp3238
asI1076
(lp3239
(S'cucumber'
p3240
g15
F0.9831
tp3241
a(g17
g18
F0.9983
tp3242
asI1079
(lp3243
(S'cucumber'
p3244
g15
F0.9744
tp3245
a(g45
g18
F0.9968
tp3246
asI1083
(lp3247
(S'uhhuh'
p3248
g3
F0.9881
tp3249
a(g17
g18
F0.997
tp3250
asI1086
(lp3251
(S'this'
p3252
g12
F0.9704
tp3253
a(S'one'
p3254
g147
F0.8205
tp3255
a(g17
g18
F0.9975
tp3256
asI1089
(lp3257
(S"it's"
p3258
g303
F0.9932
tp3259
a(S'good'
p3260
g53
F0.9956
tp3261
a(S'for'
p3262
g72
F0.9995
tp3263
a(S'you'
p3264
g9
F0.999
tp3265
a(g17
g18
F0.9995
tp3266
asI1092
(lp3267
(S'you'
p3268
g9
F0.998
tp3269
a(S'want'
p3270
g6
F0.9997
tp3271
a(S'to'
p3272
g72
F0.9937
tp3273
a(S'reach'
p3274
g6
F0.9998
tp3275
a(S'the'
p3276
g12
F0.9995
tp3277
a(S'light'
p3278
g15
F0.9634
tp3279
a(S'right'
p3280
g53
F0.4194
tp3281
a(g45
g18
F0.9983
tp3282
asI1096
(lp3283
(g21
g9
F0.9976
tp3284
a(S"can't"
p3285
g6
F0.9999
tp3286
a(g17
g18
F0.9971
tp3287
asI1099
(lp3288
(g21
g9
F0.9937
tp3289
a(g127
g128
F0.7956
tp3290
a(S'wan'
p3291
g53
F0.4682
tp3292
a(g136
g18
F0.9753
tp3293
a(S't)a'
p3294
g72
F0.3061
tp3295
a(g120
g157
F0.3336
tp3296
a(S'[/]'
p3297
g157
F0.3115
tp3298
a(g21
g9
F0.9943
tp3299
a(S'wan'
p3300
g6
F0.6395
tp3301
a(g136
g18
F0.9686
tp3302
a(S't)a'
p3303
g72
F0.2972
tp3304
a(S'xxx'
p3305
g121
F0.3205
tp3306
a(S'the'
p3307
g12
F0.9981
tp3308
a(S'light'
p3309
g15
F0.9787
tp3310
a(S'xxx'
p3311
g121
F0.5551
tp3312
a(S'because'
p3313
g72
F0.9995
tp3314
a(S'the'
p3315
g12
F0.999
tp3316
a(S'cucumber'
p3317
g15
F0.9852
tp3318
a(S'has'
p3319
g6
F0.9844
tp3320
a(S'seeds'
p3321
g15
F0.9741
tp3322
a(S'in'
p3323
g72
F0.9973
tp3324
a(S'it'
p3325
g9
F0.9928
tp3326
a(g17
g18
F0.9982
tp3327
asI1104
(lp3328
(g21
g9
F0.9976
tp3329
a(S"can't"
p3330
g6
F1.0
tp3331
a(S'eat'
p3332
g6
F0.9978
tp3333
a(S'seeds'
p3334
g15
F0.997
tp3335
a(g17
g18
F0.9986
tp3336
asI1107
(lp3337
(S'alright'
p3338
g3
F0.8457
tp3339
a(S'eat'
p3340
g6
F0.9848
tp3341
a(S'the'
p3342
g12
F0.994
tp3343
a(g127
g128
F0.886
tp3344
a(S'&c'
p3345
g157
F0.3721
tp3346
a(g120
g157
F0.6252
tp3347
a(S'[//]'
p3348
g157
F0.441
tp3349
a(g127
g128
F0.9346
tp3350
a(S'eat'
p3351
g6
F0.9917
tp3352
a(S'the'
p3353
g12
F0.9962
tp3354
a(S'&-um'
p3355
g157
F0.3951
tp3356
a(S'leaf'
p3357
g15
F0.9493
tp3358
a(g120
g121
F0.3491
tp3359
a(S'[//]'
p3360
g121
F0.424
tp3361
a(S'lettuce'
p3362
g15
F0.9502
tp3363
a(S'leaf'
p3364
g15
F0.9981
tp3365
a(g17
g18
F0.9978
tp3366
asI1110
(lp3367
(S"where's"
p3368
g303
F0.9381
tp3369
a(S'the'
p3370
g12
F0.9986
tp3371
a(S'lettuce'
p3372
g15
F0.9937
tp3373
a(g45
g18
F0.9974
tp3374
asI1114
(lp3375
(S'the'
p3376
g12
F0.999
tp3377
a(S'other'
p3378
g53
F0.9978
tp3379
a(S'one'
p3380
g147
F0.9776
tp3381
a(S'on'
p3382
g72
F0.9977
tp3383
a(S'your'
p3384
g12
F0.9944
tp3385
a(S'plate'
p3386
g15
F0.9992
tp3387
a(g17
g18
F0.9982
tp3388
asI1117
(lp3389
(S'not'
p3390
g210
F0.954
tp3391
a(S'that'
p3392
g9
F0.8174
tp3393
a(g17
g18
F0.9986
tp3394
asI1120
(lp3395
(S'yes'
p3396
g3
F0.9961
tp3397
a(g17
g18
F0.9972
tp3398
asI1123
(lp3399
(S'turn'
p3400
g6
F0.9848
tp3401
a(S'around'
p3402
g261
F0.5173
tp3403
a(S'Astra'
p3404
g56
F0.9595
tp3405
a(S'and'
p3406
g65
F0.9979
tp3407
a(S'eat'
p3408
g6
F0.9954
tp3409
a(S'that'
p3410
g72
F0.6808
tp3411
a(g21
g9
F0.9993
tp3412
a(S"don't"
p3413
g6
F1.0
tp3414
a(S'play'
p3415
g6
F0.9996
tp3416
a(S'with'
p3417
g72
F0.9992
tp3418
a(S'you'
p3419
g9
F0.9997
tp3420
a(S'know'
p3421
g6
F0.9961
tp3422
a(g17
g18
F0.9974
tp3423
asI1128
(lp3424
(S'sit'
p3425
g6
F0.9868
tp3426
a(S'down'
p3427
g261
F0.7639
tp3428
a(S'and'
p3429
g65
F0.9958
tp3430
a(S'eat'
p3431
g6
F0.9978
tp3432
a(S'it'
p3433
g9
F0.9873
tp3434
a(g3
g18
F0.9989
tp3435
asI1131
(lp3436
(S'zzz'
p3437
g3
F0.3756
tp3438
a(g17
g18
F0.9972
tp3439
asI1135
(lp3440
(S'use'
p3441
g6
F0.8896
tp3442
a(g67
g12
F0.9976
tp3443
a(S'napkin'
p3444
g15
F0.9991
tp3445
a(S'to'
p3446
g72
F0.9987
tp3447
a(S'wipe'
p3448
g6
F0.9993
tp3449
a(S'your'
p3450
g12
F0.9965
tp3451
a(S'hands'
p3452
g15
F0.998
tp3453
a(S'and'
p3454
g65
F0.9936
tp3455
a(S'your'
p3456
g12
F0.9547
tp3457
a(S'mouth'
p3458
g15
F0.9998
tp3459
a(g17
g18
F0.9985
tp3460
asI1140
(lp3461
(S"I'm"
p3462
g303
F0.9949
tp3463
a(S'full'
p3464
g53
F0.9938
tp3465
a(g3
g18
F0.9983
tp3466
asI1143
(lp3467
(S'wipe'
p3468
g6
F0.9829
tp3469
a(S'your'
p3470
g12
F0.9958
tp3471
a(S'hands'
p3472
g15
F0.9995
tp3473
a(g17
g18
F0.9984
tp3474
asI1146
(lp3475
(S'xxx'
p3476
g121
F0.7049
tp3477
a(S"you're"
p3478
g303
F0.9922
tp3479
a(S'gonna'
p3480
g6
F0.9971
tp3481
a(S'be'
p3482
g6
F0.9994
tp3483
a(S'full'
p3484
g53
F0.9192
tp3485
a(S'in'
p3486
g72
F0.9923
tp3487
a(g67
g12
F0.996
tp3488
a(S'minute'
p3489
g15
F0.9583
tp3490
a(g17
g18
F0.9988
tp3491
asI1151
(lp3492
(g21
g9
F0.9975
tp3493
a(S'am'
p3494
g6
F0.9972
tp3495
a(S'full'
p3496
g53
F0.9548
tp3497
a(S'now'
p3498
g210
F0.9854
tp3499
a(S'(.)'
p3500
g121
F0.248
tp3501
a(g17
g18
F0.9509
tp3502
asI1154
(lp3503
(g21
g9
F0.9955
tp3504
a(S'not'
p3505
g210
F0.996
tp3506
a(S'full'
p3507
g53
F0.9344
tp3508
a(g17
g18
F0.9984
tp3509
asI1157
(lp3510
(S"I'm"
p3511
g303
F0.9981
tp3512
a(S'not'
p3513
g210
F0.999
tp3514
a(S'joking'
p3515
g6
F0.9904
tp3516
a(S'Mommy'
p3517
g15
F0.5967
tp3518
a(g17
g18
F0.9988
tp3519
asI1160
(lp3520
(S"I'm"
p3521
g303
F0.9981
tp3522
a(S'not'
p3523
g210
F0.9989
tp3524
a(S'joking'
p3525
g6
F0.9879
tp3526
a(g3
g18
F0.9983
tp3527
asI1164
(lp3528
(S"I'm"
p3529
g303
F0.9981
tp3530
a(S'not'
p3531
g210
F0.9989
tp3532
a(S'joking'
p3533
g6
F0.9879
tp3534
a(g3
g18
F0.9983
tp3535
asI1168
(lp3536
(S'you'
p3537
g9
F0.9542
tp3538
a(S'full'
p3539
g53
F0.9921
tp3540
a(g45
g18
F0.9937
tp3541
asI1172
(lp3542
(S'yeah'
p3543
g3
F0.9986
tp3544
a(g17
g18
F0.997
tp3545
asI1175
(lp3546
(S'okay'
p3547
g3
F0.9741
tp3548
a(g17
g18
F0.9977
tp3549
asI1178
(lp3550
(S'go'
p3551
g6
F0.9653
tp3552
a(S'wash'
p3553
g6
F0.9112
tp3554
a(S'your'
p3555
g12
F0.9943
tp3556
a(S'hands'
p3557
g15
F0.9987
tp3558
a(S'in'
p3559
g72
F0.9996
tp3560
a(S'the'
p3561
g12
F0.9993
tp3562
a(S'bath+room'
p3563
g15
F0.9929
tp3564
a(S'and'
p3565
g65
F0.9979
tp3566
a(S'xxx'
p3567
g121
F0.445
tp3568
a(S'[/]'
p3569
g121
F0.2439
tp3570
a(g17
g18
F0.9681
tp3571
asI1183
(lp3572
(S'wait'
p3573
g6
F0.9922
tp3574
a(g67
g12
F0.994
tp3575
a(S'minute'
p3576
g15
F0.9844
tp3577
a(g3
g18
F0.9989
tp3578
asI1187
(lp3579
(S'hold'
p3580
g6
F0.996
tp3581
a(S'it'
p3582
g9
F0.9646
tp3583
a(g3
g18
F0.999
tp3584
asI1190
(lp3585
(S'hold'
p3586
g6
F0.996
tp3587
a(S'it'
p3588
g9
F0.9646
tp3589
a(g3
g18
F0.999
tp3590
asI1193
(lp3591
(S"don't"
p3592
g6
F0.9992
tp3593
a(S'make'
p3594
g6
F0.9999
tp3595
a(S'me'
p3596
g9
F0.9614
tp3597
a(g17
g18
F0.9985
tp3598
asI1197
(lp3599
(S'alright'
p3600
g3
F0.8235
tp3601
a(S'go'
p3602
g6
F0.9603
tp3603
a(S'wash'
p3604
g6
F0.9013
tp3605
a(S'your'
p3606
g12
F0.9947
tp3607
a(S'hands'
p3608
g15
F0.998
tp3609
a(S'and'
p3610
g65
F0.9936
tp3611
a(S'your'
p3612
g12
F0.9597
tp3613
a(S'mouth'
p3614
g15
F0.9997
tp3615
a(S'now'
p3616
g210
F0.991
tp3617
a(S'(.)'
p3618
g157
F0.2617
tp3619
a(g17
g18
F0.992
tp3620
asI1202
(lp3621
(S'none'
p3622
g15
F0.978
tp3623
a(S'of'
p3624
g72
F0.9979
tp3625
a(S'that'
p3626
g9
F0.9358
tp3627
a(g3
g18
F0.9989
tp3628
asI1205
(lp3629
(S'that'
p3630
g9
F0.9115
tp3631
a(S'is'
p3632
g6
F0.9999
tp3633
a(S'it'
p3634
g9
F0.9984
tp3635
a(g17
g18
F0.999
tp3636
asI1208
(lp3637
(S'the'
p3638
g12
F0.9972
tp3639
a(S'end'
p3640
g15
F0.9921
tp3641
a(g3
g18
F0.9992
tp3642
asI1211
(lp3643
(S'put'
p3644
g6
F0.9661
tp3645
a(S'that'
p3646
g12
F0.8568
tp3647
a(S'glass'
p3648
g15
F0.9902
tp3649
a(S'back'
p3650
g15
F0.5376
tp3651
a(g3
g18
F0.9992
tp3652
asI1214
(lp3653
(S'zzz'
p3654
g3
F0.3756
tp3655
a(g17
g18
F0.9972
tp3656
asI1218
(lp3657
(S'go'
p3658
g6
F0.9653
tp3659
a(S'wash'
p3660
g6
F0.9112
tp3661
a(S'your'
p3662
g12
F0.9943
tp3663
a(S'hands'
p3664
g15
F0.9987
tp3665
a(g127
g128
F0.5325
tp3666
a(S'and'
p3667
g65
F0.9989
tp3668
a(S'your'
p3669
g12
F0.9597
tp3670
a(S'mouth'
p3671
g15
F0.9996
tp3672
a(S'xxx'
p3673
g121
F0.8233
tp3674
a(g120
g121
F0.9474
tp3675
a(g118
g121
F0.5345
tp3676
a(g120
g121
F0.9607
tp3677
a(g123
g18
F0.7758
tp3678
a(g17
g18
F0.9977
tp3679
asI1222
(lp3680
(g127
g128
F0.9526
tp3681
a(g21
g9
F0.9987
tp3682
a(S'made'
p3683
g6
F1.0
tp3684
a(S'it'
p3685
g9
F0.926
tp3686
a(S'Mommy'
p3687
g15
F0.3965
tp3688
a(g120
g157
F0.4592
tp3689
a(g118
g18
F0.9049
tp3690
a(g127
g128
F0.9531
tp3691
a(g123
g18
F0.9861
tp3692
a(g17
g18
F0.9959
tp3693
asI1225
(lp3694
(g21
g9
F0.9984
tp3695
a(S'know'
p3696
g6
F0.9999
tp3697
a(S'you'
p3698
g9
F0.9998
tp3699
a(S'did'
p3700
g6
F0.9958
tp3701
a(g17
g18
F0.9976
tp3702
asI1228
(lp3703
(S'zzz'
p3704
g3
F0.3756
tp3705
a(g17
g18
F0.9972
tp3706
asI1232
(lp3707
(S'Astra'
p3708
g56
F0.6537
tp3709
a(g3
g18
F0.9954
tp3710
asI1235
(lp3711
(S"don't"
p3712
g6
F0.9995
tp3713
a(S'do'
p3714
g6
F0.9999
tp3715
a(S'that'
p3716
g9
F0.9402
tp3717
a(g3
g18
F0.9989
tp3718
asI1238
(lp3719
(S'get'
p3720
g6
F0.9991
tp3721
a(S'up'
p3722
g261
F0.9753
tp3723
a(S'from'
p3724
g72
F0.9979
tp3725
a(S'that'
p3726
g12
F0.9065
tp3727
a(S'table'
p3728
g15
F0.974
tp3729
a(S'the'
p3730
g12
F0.9932
tp3731
a(S'right'
p3732
g53
F0.9374
tp3733
a(S'way'
p3734
g15
F0.9663
tp3735
a(g17
g18
F0.9988
tp3736
asI1243
(lp3737
(S"I'm"
p3738
g303
F0.9981
tp3739
a(S'not'
p3740
g210
F0.9963
tp3741
a(S'full'
p3742
g53
F0.9344
tp3743
a(g17
g18
F0.9984
tp3744
asI1246
(lp3745
(S"you're"
p3746
g303
F0.9937
tp3747
a(S'not'
p3748
g210
F0.9964
tp3749
a(g45
g18
F0.9947
tp3750
asI1250
(lp3751
(S'too'
p3752
g210
F0.9971
tp3753
a(S'bad'
p3754
g53
F0.9983
tp3755
a(S'(.)'
p3756
g15
F0.3537
tp3757
a(g17
g18
F0.9979
tp3758
asI1253
(lp3759
(g136
g18
F0.9413
tp3760
a(S'good)bye'
p3761
g3
F0.9697
tp3762
a(g17
g18
F0.9975
tp3763
asI1257
(lp3764
(S'bye'
p3765
g3
F0.8593
tp3766
a(S'Ronny'
p3767
g56
F0.9996
tp3768
a(S'and'
p3769
g65
F0.9978
tp3770
a(S'bye'
p3771
g6
F0.5417
tp3772
a(S'Mommy'
p3773
g56
F0.5998
tp3774
a(g17
g18
F0.9947
tp3775
asI1260
(lp3776
(S"I'm"
p3777
g303
F0.997
tp3778
a(S'going'
p3779
g6
F0.9912
tp3780
a(S'to'
p3781
g72
F0.9914
tp3782
a(S'the'
p3783
g12
F0.9991
tp3784
a(S'shop'
p3785
g15
F0.9984
tp3786
a(g17
g18
F0.9981
tp3787
as.