(dp0
I0
(lp1
(S'what'
p2
S'O'
p3
F0.9777
tp4
a(S'don'
p5
S'N'
p6
F0.4522
tp7
a(S't'
p8
S'V'
p9
F0.5898
tp10
a(S'you'
p11
g3
F0.9996
tp12
a(S'want'
p13
g9
F0.9997
tp14
a(S'ryan'
p15
S'^'
p16
F0.9958
tp17
asI1
(lp18
(S'guess'
p19
g9
F0.9298
tp20
asI2
(lp21
(S'what'
p22
g3
F0.9898
tp23
a(S'would'
p24
g9
F0.9996
tp25
a(S'you'
p26
g3
F0.9958
tp27
a(S'like'
p28
g9
F0.6164
tp29
asI3
(lp30
(S'a'
p31
S'D'
p32
F0.9921
tp33
a(S'cup'
p34
g6
F0.9937
tp35
asI4
(lp36
(S'uhuh'
p37
S'!'
p38
F0.9919
tp39
asI5
(lp40
(S'what'
p41
g3
F0.949
tp42
asI6
(lp43
(S'i'
p44
g3
F0.9895
tp45
a(S'got'
p46
g9
F0.9986
tp47
a(S'yyy'
p48
g3
F0.4547
tp49
asI7
(lp50
(S'you'
p51
g3
F0.998
tp52
a(S'have'
p53
g9
F0.9994
tp54
a(S'to'
p55
S'P'
p56
F0.9942
tp57
a(S'pick'
p58
g9
F0.997
tp59
a(S'one'
p60
S'$'
p61
F0.8987
tp62
a(S'or'
p63
S'&'
p64
F0.965
tp65
a(S'the'
p66
g32
F0.9991
tp67
a(S'other'
p68
S'A'
p69
F0.9476
tp70
a(S'we'
p71
g3
F0.9958
tp72
a(S'can'
p73
g9
F0.9994
tp74
a(g8
g9
F0.6626
tp75
a(S'have'
p76
g9
F0.983
tp77
a(S'two'
p78
g61
F0.9016
tp79
asI8
(lp80
(g44
g3
F0.9793
tp81
a(S'll'
p82
g9
F0.7217
tp83
a(S'get'
p84
g9
F0.9998
tp85
a(S'you'
p86
g3
F0.9978
tp87
a(g31
g32
F0.9956
tp88
a(S'cup'
p89
g6
F0.994
tp90
asI9
(lp91
(S'hm'
p92
g38
F0.995
tp93
asI10
(lp94
(S'ma'
p95
g38
F0.3265
tp96
asI11
(lp97
(S'no'
p98
g38
F0.9253
tp99
asI12
(lp100
(S'what'
p101
g3
F0.9931
tp102
a(S'do'
p103
g9
F0.9991
tp104
a(S'you'
p105
g3
F0.9997
tp106
a(S'want'
p107
g9
F0.9982
tp108
asI13
(lp109
(S'this'
p110
g3
F0.5028
tp111
asI14
(lp112
(S'is'
p113
g9
F0.9981
tp114
a(S'that'
p115
g3
F0.8927
tp116
a(S'what'
p117
g3
F0.9798
tp118
a(S'you'
p119
g3
F0.9996
tp120
a(S'want'
p121
g9
F0.9994
tp122
asI15
(lp123
(S'you'
p124
g3
F0.9495
tp125
a(S'happy'
p126
g69
F0.956
tp127
a(S'now'
p128
S'R'
p129
F0.985
tp130
asI16
(lp131
(S'zzz'
p132
g38
F0.361
tp133
asI17
(lp134
(S'who'
p135
g3
F0.9605
tp136
a(S'um'
p137
g38
F0.6253
tp138
a(S'put'
p139
g9
F0.9867
tp140
a(S'the'
p141
g32
F0.9997
tp142
a(S'paintings'
p143
g6
F0.9972
tp144
a(S'on'
p145
g56
F0.9993
tp146
a(S'the'
p147
g32
F0.9994
tp148
a(S'floor'
p149
g6
F0.9965
tp150
a(S'that'
p151
g56
F0.9893
tp152
a(S'you'
p153
g3
F0.9996
tp154
a(S'made'
p155
g9
F0.9956
tp156
asI18
(lp157
(S'brian'
p158
g16
F0.9952
tp159
a(S'did'
p160
g9
F0.9804
tp161
asI19
(lp162
(S'mm'
p163
g38
F0.627
tp164
asI20
(lp165
(S'those'
p166
g3
F0.6322
tp167
a(S'are'
p168
g9
F0.9921
tp169
a(S'pretty'
p170
g129
F0.8618
tp171
a(S'with'
p172
g56
F0.9992
tp173
a(S'all'
p174
g32
F0.601
tp175
a(S'the'
p176
g32
F0.991
tp177
a(S'all'
p178
S'X'
p179
F0.859
tp180
a(S'the'
p181
g32
F0.9998
tp182
a(S'colors'
p183
g6
F0.9972
tp184
a(S'brian'
p185
g16
F0.864
tp186
asI21
(lp187
(S'are'
p188
g9
F0.9904
tp189
a(S'they'
p190
g3
F0.9935
tp191
a(S'yours'
p192
g3
F0.8819
tp193
a(S'over'
p194
g56
F0.5483
tp195
a(S'here'
p196
g129
F0.9577
tp197
asI22
(lp198
(S'yeah'
p199
g38
F0.9988
tp200
asI23
(lp201
(S'think'
p202
g9
F0.9989
tp203
a(S'it'
p204
g3
F0.9938
tp205
a(S's'
p206
g9
F0.6974
tp207
a(S'raining'
p208
g9
F0.9852
tp209
a(S'again'
p210
g129
F0.983
tp211
asI24
(lp212
(g44
g3
F0.953
tp213
a(S'm'
p214
g9
F0.9834
tp215
a(S'going'
p216
g9
F0.9985
tp217
a(S'back'
p218
g129
F0.6824
tp219
a(S'out'
p220
g56
F0.4634
tp221
a(S'though'
p222
g56
F0.8235
tp223
asI25
(lp224
(g44
g3
F0.989
tp225
a(S'think'
p226
g9
F0.9999
tp227
a(S'we'
p228
g3
F0.9943
tp229
a(S're'
p230
g9
F0.6733
tp231
a(S'getting'
p232
g9
F0.9945
tp233
a(S'thunder'
p234
g6
F0.7789
tp235
a(S'and'
p236
g64
F0.9974
tp237
a(S'lightning'
p238
g6
F0.8253
tp239
a(g44
g3
F0.8274
tp240
a(S'don'
p241
g9
F0.9198
tp242
a(g8
g9
F0.3142
tp243
a(S'think'
p244
g9
F0.9992
tp245
a(S'you'
p246
g3
F0.9989
tp247
a(S'll'
p248
g9
F0.6833
tp249
a(S'be'
p250
g9
F0.997
tp251
a(S'going'
p252
g9
F0.9953
tp253
a(S'back'
p254
g129
F0.7568
tp255
a(S'out'
p256
g56
F0.5131
tp257
a(S'again'
p258
g129
F0.975
tp259
asI26
(lp260
(S'if'
p261
g56
F0.9893
tp262
a(S'there'
p263
g179
F0.635
tp264
a(g206
S'G'
p265
F0.5446
tp266
a(S'no'
p267
g32
F0.907
tp268
a(S'thunder'
p269
g6
F0.9989
tp270
a(S'or'
p271
g64
F0.9883
tp272
a(S'um'
p273
g38
F0.7365
tp274
a(S'if'
p275
g56
F0.9865
tp276
a(S'there'
p277
g179
F0.5024
tp278
a(g206
g265
F0.5375
tp279
a(S'thunder'
p280
g6
F0.7035
tp281
a(S'out'
p282
g56
F0.735
tp283
asI27
(lp284
(S'you'
p285
g3
F0.9926
tp286
a(S'don'
p287
g9
F0.8675
tp288
a(g8
g6
F0.2503
tp289
a(S'want'
p290
g9
F0.9959
tp291
a(S'to'
p292
g56
F0.9912
tp293
a(S'be'
p294
g9
F0.9997
tp295
a(S'outside'
p296
g129
F0.6533
tp297
a(S'in'
p298
g56
F0.9911
tp299
a(S'thunder'
p300
g6
F0.8958
tp301
a(S'and'
p302
g64
F0.9974
tp303
a(S'lightning'
p304
g6
F0.5832
tp305
a(S'do'
p306
g9
F0.994
tp307
a(S'you'
p308
g3
F0.9979
tp309
asI28
(lp310
(S'there'
p311
g179
F0.4664
tp312
a(g206
g265
F0.6833
tp313
a(S'only'
p314
g69
F0.8744
tp315
a(S'thunder'
p316
g6
F0.9785
tp317
asI29
(lp318
(g44
g3
F0.9912
tp319
a(S'know'
p320
g9
F0.9989
tp321
asI30
(lp322
(S'remember'
p323
g9
F0.9956
tp324
a(S'the'
p325
g32
F0.9995
tp326
a(S'other'
p327
g69
F0.9864
tp328
a(S'night'
p329
g6
F0.9703
tp330
a(S'brian'
p331
g16
F0.6744
tp332
a(S'all'
p333
g179
F0.7616
tp334
a(S'the'
p335
g32
F0.9999
tp336
a(S'thunder'
p337
g6
F0.9304
tp338
a(S'and'
p339
g64
F0.9972
tp340
a(S'lightning'
p341
g6
F0.4753
tp342
asI31
(lp343
(S'you'
p344
g3
F0.9968
tp345
a(S'should'
p346
g9
F0.9995
tp347
a(S'have'
p348
g9
F0.9995
tp349
a(S'saw'
p350
g9
F0.9843
tp351
a(S'the'
p352
g32
F0.9995
tp353
a(S'big'
p354
g69
F0.9603
tp355
a(S'mom'
p356
g6
F0.9854
tp357
asI32
(lp358
(S'put'
p359
g9
F0.9896
tp360
a(S'your'
p361
g32
F0.9347
tp362
a(S'put'
p363
g9
F0.4946
tp364
a(S'your'
p365
g32
F0.9939
tp366
a(S'butter'
p367
g6
F0.9974
tp368
a(S'on'
p369
g56
F0.9994
tp370
a(S'the'
p371
g32
F0.9994
tp372
a(S'noodles'
p373
g6
F0.9916
tp374
a(S'okay'
p375
g38
F0.8639
tp376
asI33
(lp377
(S'what'
p378
g3
F0.949
tp379
asI34
(lp380
(S'you'
p381
g3
F0.9968
tp382
a(S'should'
p383
g9
F0.9995
tp384
a(S'have'
p385
g9
F0.9994
tp386
a(S'saw'
p387
g9
F0.8304
tp388
a(S'today'
p389
g6
F0.9719
tp390
asI35
(lp391
(S'it'
p392
g3
F0.9956
tp393
a(S'was'
p394
g9
F0.9987
tp395
a(S'pouring'
p396
g9
F0.5821
tp397
a(S'hard'
p398
g69
F0.6781
tp399
a(S'coming'
p400
g9
F0.9721
tp401
a(S'down'
p402
g129
F0.6977
tp403
a(S'hard'
p404
g69
F0.8656
tp405
asI36
(lp406
(g44
g3
F0.9917
tp407
a(S'was'
p408
g9
F0.9999
tp409
a(S'outside'
p410
g129
F0.5638
tp411
asI37
(lp412
(S'did'
p413
g9
F0.9986
tp414
a(S'you'
p415
g3
F0.9986
tp416
a(S'get'
p417
g9
F0.9999
tp418
a(S'all'
p419
g32
F0.9913
tp420
a(S'wet'
p421
g69
F0.9642
tp422
asI38
(lp423
(S'no'
p424
g38
F0.9253
tp425
asI39
(lp426
(S'we'
p427
g3
F0.9973
tp428
a(S'had'
p429
g9
F0.9998
tp430
a(S'to'
p431
g56
F0.9587
tp432
a(S'go'
p433
g9
F0.9968
tp434
a(S'zzz'
p435
g265
F0.4251
tp436
a(S'my'
p437
g32
F0.8555
tp438
a(S'zzz'
p439
g265
F0.4954
tp440
asI40
(lp441
(S'zzz'
p442
g38
F0.361
tp443
asI41
(lp444
(g44
g3
F0.9914
tp445
a(S'was'
p446
g9
F0.9998
tp447
a(S'riding'
p448
g9
F0.999
tp449
a(S'my'
p450
g32
F0.999
tp451
a(S'bike'
p452
g6
F0.9909
tp453
a(S'and'
p454
g64
F0.9982
tp455
a(S'then'
p456
g129
F0.9867
tp457
asI42
(lp458
(S'who'
p459
g3
F0.9946
tp460
a(S'put'
p461
g9
F0.9994
tp462
a(S'your'
p463
g32
F0.9952
tp464
a(S'bike'
p465
g6
F0.9978
tp466
a(S'away'
p467
g129
F0.9693
tp468
asI43
(lp469
(S'me'
p470
g3
F0.9918
tp471
asI44
(lp472
(S'did'
p473
g9
F0.9986
tp474
a(S'you'
p475
g3
F0.9993
tp476
a(S'have'
p477
g9
F0.9999
tp478
a(S'your'
p479
g32
F0.9949
tp480
a(S'bike'
p481
g6
F0.9948
tp482
a(S'huh'
p483
g38
F0.8169
tp484
a(S'brian'
p485
g16
F0.9849
tp486
asI45
(lp487
(S'he'
p488
g3
F0.996
tp489
a(S'had'
p490
g9
F1.0
tp491
a(S'his'
p492
g32
F0.9986
tp493
a(S'big'
p494
g69
F0.9901
tp495
a(S'wheel'
p496
g6
F0.9953
tp497
asI46
(lp498
(S'not'
p499
g129
F0.9702
tp500
a(S'my'
p501
g32
F0.9935
tp502
a(S'big'
p503
g69
F0.9939
tp504
a(S'one'
p505
g61
F0.8352
tp506
asI47
(lp507
(S'the'
p508
g32
F0.999
tp509
a(S'little'
p510
g69
F0.9974
tp511
a(S'bike'
p512
g6
F0.9958
tp513
asI48
(lp514
(S'yeah'
p515
g38
F0.9988
tp516
asI49
(lp517
(S'not'
p518
g129
F0.9682
tp519
a(S'the'
p520
g32
F0.9988
tp521
a(S'big'
p522
g69
F0.9863
tp523
a(S'one'
p524
g61
F0.8352
tp525
asI50
(lp526
(g44
g3
F0.9912
tp527
a(S'hate'
p528
g9
F0.9999
tp529
a(S'the'
p530
g32
F0.9924
tp531
asI51
(lp532
(S'you'
p533
g3
F0.998
tp534
a(S'liked'
p535
g9
F0.9998
tp536
a(S'that'
p537
g32
F0.6407
tp538
a(S'nice'
p539
g69
F0.9901
tp540
a(S'black'
p541
g69
F0.8969
tp542
a(S'and'
p543
g64
F0.997
tp544
a(S'red'
p545
g69
F0.9917
tp546
a(S'bike'
p547
g6
F0.9955
tp548
asI52
(lp549
(S'bought'
p550
g9
F0.9936
tp551
a(S'you'
p552
g3
F0.9945
tp553
a(g31
g32
F0.9961
tp554
a(S'little'
p555
g69
F0.9981
tp556
a(S'basket'
p557
g6
F0.9984
tp558
a(S'for'
p559
g56
F0.9999
tp560
a(S'it'
p561
g3
F0.9981
tp562
a(S'didn'
p563
g9
F0.9643
tp564
a(g8
g9
F0.5637
tp565
a(g44
g3
F0.9751
tp566
asI53
(lp567
(S'that'
p568
g3
F0.4727
tp569
a(g206
g265
F0.3568
tp570
a(S'old'
p571
g69
F0.9924
tp572
asI54
(lp573
(S'nuhhuh'
p574
g38
F0.533
tp575
asI55
(lp576
(S'do'
p577
g9
F0.9985
tp578
a(S'you'
p579
g3
F0.9996
tp580
a(S'want'
p581
g9
F0.9996
tp582
a(S'more'
p583
g69
F0.7012
tp584
a(S'sean'
p585
g16
F0.9283
tp586
asI56
(lp587
(g44
g3
F0.9756
tp588
a(S'didn'
p589
g9
F0.9919
tp590
a(g8
g9
F0.8326
tp591
a(S'think'
p592
g9
F0.9775
tp593
a(S'so'
p594
g129
F0.8655
tp595
asI57
(lp596
(S'hm'
p597
g38
F0.995
tp598
asI58
(lp599
(g31
g32
F0.9953
tp600
a(S'little'
p601
g69
F0.9942
tp602
asI59
(lp603
(S'no'
p604
g38
F0.9253
tp605
asI60
(lp606
(S'no'
p607
g38
F0.9253
tp608
asI61
(lp609
(S'what'
p610
g3
F0.9898
tp611
a(S'shall'
p612
g9
F0.9945
tp613
a(S'we'
p614
g3
F0.9899
tp615
a(S'do'
p616
g9
F0.9999
tp617
a(S'this'
p618
g32
F0.9732
tp619
a(S'week'
p620
g6
F0.9803
tp621
a(S'end'
p622
g6
F0.666
tp623
a(S'fourth'
p624
g69
F0.749
tp625
a(S'of'
p626
g56
F0.9975
tp627
a(S'july'
p628
g16
F0.9772
tp629
asI62
(lp630
(S'well'
p631
g38
F0.9664
tp632
asI63
(lp633
(S'when'
p634
g129
F0.9219
tp635
a(S'the'
p636
g32
F0.9913
tp637
a(S'xxx'
p638
g6
F0.5795
tp639
a(S'taperecorder'
p640
g6
F0.4897
tp641
a(S'gonna'
p642
g9
F0.9978
tp643
a(S'come'
p644
g9
F0.9995
tp645
a(S'on'
p646
g56
F0.5684
tp647
asI64
(lp648
(S'this'
p649
g3
F0.9526
tp650
a(S'is'
p651
g9
F0.9987
tp652
a(S'the'
p653
g32
F0.9994
tp654
a(S'first'
p655
g69
F0.9358
tp656
asI65
(lp657
(S'it'
p658
g3
F0.9888
tp659
a(g206
g9
F0.585
tp660
a(S'not'
p661
g129
F0.9957
tp662
a(S'going'
p663
g9
F0.9991
tp664
a(S'to'
p665
g56
F0.9824
tp666
a(S'come'
p667
g9
F0.9995
tp668
a(S'on'
p669
g56
F0.9392
tp670
a(S'it'
p671
g3
F0.9973
tp672
a(g206
g9
F0.6524
tp673
a(S'going'
p674
g9
F0.9977
tp675
a(S'to'
p676
g56
F0.9825
tp677
a(S'listen'
p678
g9
F0.9998
tp679
a(S'to'
p680
g56
F0.9922
tp681
a(S'us'
p682
g3
F0.9586
tp683
a(S'brian'
p684
g16
F0.957
tp685
asI66
(lp686
(S'me'
p687
g3
F0.9918
tp688
asI67
(lp689
(S'today'
p690
g6
F0.976
tp691
a(g206
g265
F0.7137
tp692
a(S'the'
p693
g32
F0.9901
tp694
a(S'fir'
p695
g6
F0.7814
tp696
a(S'st'
p697
g9
F0.4872
tp698
a(S'it'
p699
g3
F0.9886
tp700
a(g206
g9
F0.6087
tp701
a(S'listening'
p702
g9
F0.9966
tp703
a(S'to'
p704
g56
F0.996
tp705
a(S'us'
p706
g3
F0.9385
tp707
a(S'okay'
p708
g38
F0.664
tp709
asI68
(lp710
(S'it'
p711
g3
F0.9888
tp712
a(g206
g9
F0.585
tp713
a(S'not'
p714
g129
F0.9939
tp715
a(S'playing'
p716
g9
F0.9999
tp717
a(S'you'
p718
g3
F0.9968
tp719
a(g31
g32
F0.9974
tp720
a(S'song'
p721
g6
F0.999
tp722
asI69
(lp723
(S'brian'
p724
g16
F0.9934
tp725
a(S'tomorrow'
p726
g6
F0.9766
tp727
a(S'is'
p728
g9
F0.9971
tp729
a(S'today'
p730
g6
F0.9356
tp731
a(g206
g265
F0.724
tp732
a(S'the'
p733
g32
F0.999
tp734
a(S'first'
p735
g69
F0.9123
tp736
a(S'of'
p737
g56
F0.9976
tp738
a(S'july'
p739
g16
F0.963
tp740
asI70
(lp741
(S'tomorrow'
p742
g6
F0.9841
tp743
a(S'is'
p744
g9
F0.9975
tp745
a(S'the'
p746
g32
F0.9994
tp747
a(S'second'
p748
g69
F0.778
tp749
asI71
(lp750
(S'and'
p751
g64
F0.9987
tp752
a(S'then'
p753
g129
F0.9702
tp754
a(S'sunday'
p755
g16
F0.9709
tp756
a(g206
g265
F0.7955
tp757
a(S'the'
p758
g32
F0.999
tp759
a(S'third'
p760
g69
F0.9691
tp761
a(S'and'
p762
g64
F0.9981
tp763
a(S'then'
p764
g129
F0.9825
tp765
a(S'monday'
p766
g16
F0.9142
tp767
a(S'brian'
p768
g16
F0.9915
tp769
a(S'we'
p770
g3
F0.9172
tp771
a(S'light'
p772
g9
F0.8413
tp773
a(S'off'
p774
S'T'
p775
F0.601
tp776
a(S'firecrackers'
p777
g6
F0.9911
tp778
a(S'at'
p779
g56
F0.9992
tp780
a(S'night'
p781
g6
F0.9636
tp782
asI72
(lp783
(S'what'
p784
g3
F0.9931
tp785
a(S'do'
p786
g9
F0.9993
tp787
a(S'you'
p788
g3
F0.9997
tp789
a(S'have'
p790
g9
F0.9993
tp791
a(S'some'
p792
g32
F0.998
tp793
a(S'firecrackers'
p794
g6
F0.9793
tp795
asI73
(lp796
(S'me'
p797
g3
F0.9918
tp798
asI74
(lp799
(S'yeah'
p800
g38
F0.9988
tp801
asI75
(lp802
(S'yeah'
p803
g38
F0.9988
tp804
asI76
(lp805
(S'zzz'
p806
g38
F0.361
tp807
asI77
(lp808
(g44
g3
F0.9764
tp809
a(S'hope'
p810
g9
F0.9998
tp811
a(S'you'
p812
g3
F0.9989
tp813
a(S'don'
p814
g9
F0.7693
tp815
a(g8
g265
F0.4257
tp816
asI78
(lp817
(S'up'
p818
g775
F0.7365
tp819
a(S'there'
p820
g129
F0.5845
tp821
asI79
(lp822
(S'xxx'
p823
S'E'
p824
F0.8437
tp825
asI80
(lp826
(S'up'
p827
g775
F0.7365
tp828
a(S'there'
p829
g129
F0.5845
tp830
asI81
(lp831
(S'and'
p832
g64
F0.9981
tp833
a(S'one'
p834
g61
F0.8325
tp835
asI82
(lp836
(g44
g3
F0.9896
tp837
a(S'have'
p838
g9
F0.9999
tp839
a(S'some'
p840
g32
F0.879
tp841
a(S'of'
p842
g56
F0.9964
tp843
a(S'those'
p844
g32
F0.7114
tp845
a(S'snap'
p846
g6
F0.6213
tp847
a(S'things'
p848
g6
F0.9957
tp849
a(S'that'
p850
g56
F0.9917
tp851
a(S'you'
p852
g3
F0.9994
tp853
a(S'throw'
p854
g9
F0.9922
tp855
a(S'on'
p856
g56
F0.9147
tp857
a(S'the'
p858
g32
F0.9995
tp859
a(S'ground'
p860
g6
F0.7077
tp861
asI83
(lp862
(S'yeah'
p863
g38
F0.9967
tp864
a(S'they'
p865
g3
F0.9723
tp866
a(S're'
p867
g9
F0.8575
tp868
a(S'right'
p869
g129
F0.6679
tp870
a(S'up'
p871
g775
F0.5826
tp872
a(S'there'
p873
g129
F0.7427
tp874
asI84
(lp875
(S'they'
p876
g3
F0.9104
tp877
a(S're'
p878
g9
F0.7741
tp879
a(S'not'
p880
g129
F0.9809
tp881
a(S'firecrackers'
p882
g6
F0.9434
tp883
a(S'though'
p884
g56
F0.8593
tp885
asI85
(lp886
(S'alright'
p887
g38
F0.9864
tp888
asI86
(lp889
(S'can'
p890
g9
F0.9755
tp891
a(g44
g3
F0.987
tp892
a(S'have'
p893
g9
F1.0
tp894
a(g31
g32
F0.9869
tp895
a(S'bite'
p896
g6
F0.9167
tp897
a(S'brian'
p898
g16
F0.9565
tp899
asI87
(lp900
(g44
g3
F0.9635
tp901
a(S'don'
p902
g9
F0.9231
tp903
a(g8
g6
F0.2457
tp904
a(S'know'
p905
g9
F0.9915
tp906
a(S'what'
p907
g3
F0.992
tp908
a(S'else'
p909
g129
F0.8584
tp910
a(S'we'
p911
g3
F0.9911
tp912
a(S're'
p913
g9
F0.6673
tp914
a(S'going'
p915
g9
F0.9975
tp916
a(S'to'
p917
g56
F0.8993
tp918
a(S'do'
p919
g9
F0.999
tp920
asI88
(lp921
(S'maybe'
p922
g129
F0.9387
tp923
a(S'we'
p924
g3
F0.9975
tp925
a(S'll'
p926
g9
F0.5786
tp927
a(S'get'
p928
g9
F0.999
tp929
a(S'to'
p930
g56
F0.9715
tp931
a(S'go'
p932
g9
F0.9963
tp933
a(S'boating'
p934
g6
F0.7856
tp935
a(S'again'
p936
g129
F0.9597
tp937
asI89
(lp938
(S'did'
p939
g9
F0.9606
tp940
a(S'uh'
p941
g38
F0.949
tp942
a(S'did'
p943
g9
F0.9988
tp944
a(S'you'
p945
g3
F0.9982
tp946
a(S'look'
p947
g9
F0.9961
tp948
a(S'at'
p949
g56
F0.9994
tp950
a(S'any'
p951
g32
F0.9499
tp952
a(S'of'
p953
g56
F0.9985
tp954
a(S'the'
p955
g32
F0.9996
tp956
a(S'books'
p957
g6
F0.9828
tp958
a(S'from'
p959
g56
F0.9999
tp960
a(S'the'
p961
g32
F0.999
tp962
a(S'library'
p963
g6
F0.9931
tp964
a(S'today'
p965
g6
F0.9943
tp966
asI90
(lp967
(S'no'
p968
g38
F0.9253
tp969
asI91
(lp970
(S'but'
p971
g64
F0.993
tp972
a(S'you'
p973
g3
F0.9997
tp974
a(S'have'
p975
g9
F0.9996
tp976
a(S'to'
p977
g56
F0.9971
tp978
a(S'take'
p979
g9
F0.9999
tp980
a(S'them'
p981
g3
F0.8824
tp982
a(S'back'
p983
g129
F0.7156
tp984
a(S'y'
p985
g129
F0.6879
tp986
a(S'ou'
p987
g3
F0.6521
tp988
a(S'know'
p989
g9
F0.9944
tp990
asI92
(lp991
(S'well'
p992
g38
F0.8573
tp993
a(g44
g3
F0.9928
tp994
a(S'don'
p995
g9
F0.9162
tp996
a(g8
g6
F0.3073
tp997
a(S'care'
p998
g9
F0.7677
tp999
asI93
(lp1000
(S'today'
p1001
g6
F0.9895
tp1002
asI94
(lp1003
(S'not'
p1004
g129
F0.9977
tp1005
a(S'yet'
p1006
g129
F0.9738
tp1007
a(S'but'
p1008
g64
F0.9863
tp1009
a(S'we'
p1010
g3
F0.9742
tp1011
a(S'better'
p1012
g129
F0.8101
tp1013
a(S'start'
p1014
g9
F0.9751
tp1015
a(S'readin'
p1016
g9
F0.8778
tp1017
a(S'g'
p1018
g265
F0.4998
tp1019
a(S'th'
p1020
g265
F0.7034
tp1021
a(S'em'
p1022
g3
F0.8442
tp1023
asI95
(lp1024
(S'maybe'
p1025
g129
F0.9835
tp1026
a(S'after'
p1027
g56
F0.9532
tp1028
a(S'dinner'
p1029
g6
F0.9663
tp1030
a(S'we'
p1031
g3
F0.9885
tp1032
a(S'can'
p1033
g9
F0.9998
tp1034
a(S'do'
p1035
g9
F0.9999
tp1036
a(S'another'
p1037
g32
F0.9884
tp1038
a(S'one'
p1039
g61
F0.7852
tp1040
asI96
(lp1041
(S'huh'
p1042
g38
F0.993
tp1043
asI97
(lp1044
(S'me'
p1045
g3
F0.9918
tp1046
asI98
(lp1047
(S'one'
p1048
g61
F0.9869
tp1049
a(S'of'
p1050
g56
F0.9994
tp1051
a(S'the'
p1052
g32
F0.9996
tp1053
a(S'books'
p1054
g6
F0.9789
tp1055
a(S'that'
p1056
g56
F0.9888
tp1057
a(S'you'
p1058
g3
F0.9997
tp1059
a(S'brought'
p1060
g9
F0.9984
tp1061
a(S'maybe'
p1062
g129
F0.9732
tp1063
a(S'brian'
p1064
g16
F0.9837
tp1065
a(S'and'
p1066
g64
F0.9987
tp1067
a(S'then'
p1068
g129
F0.9736
tp1069
a(S'another'
p1070
g32
F0.963
tp1071
a(S'one'
p1072
g61
F0.9372
tp1073
a(S'that'
p1074
g56
F0.771
tp1075
a(S'sean'
p1076
g16
F0.9873
tp1077
a(S'got'
p1078
g9
F0.974
tp1079
asI99
(lp1080
(S'then'
p1081
g129
F0.9476
tp1082
a(S'we'
p1083
g3
F0.9971
tp1084
a(S'll'
p1085
g9
F0.7952
tp1086
a(S'do'
p1087
g9
F0.9997
tp1088
a(S'another'
p1089
g32
F0.991
tp1090
a(S'one'
p1091
g61
F0.9152
tp1092
a(S'then'
p1093
g129
F0.9778
tp1094
a(g44
g3
F0.994
tp1095
a(S'got'
p1096
g9
F0.9991
tp1097
a(S'and'
p1098
g64
F0.9974
tp1099
a(S'then'
p1100
g129
F0.9857
tp1101
a(S'sean'
p1102
g16
F0.9644
tp1103
a(S'then'
p1104
g129
F0.9636
tp1105
a(S'me'
p1106
g3
F0.9972
tp1107
a(S'me'
p1108
g3
F0.9935
tp1109
a(S'then'
p1110
g129
F0.9941
tp1111
asI100
(lp1112
(S'sean'
p1113
g16
F0.9771
tp1114
a(S'when'
p1115
g129
F0.9681
tp1116
a(S'we'
p1117
g3
F0.9977
tp1118
a(S'have'
p1119
g9
F0.9976
tp1120
a(S'time'
p1121
g6
F0.9925
tp1122
a(S'we'
p1123
g3
F0.9792
tp1124
a(S'didn'
p1125
g9
F0.9869
tp1126
a(g8
g9
F0.7869
tp1127
a(S'take'
p1128
g9
F0.9953
tp1129
a(S'that'
p1130
g32
F0.7692
tp1131
a(S'many'
p1132
g69
F0.8199
tp1133
a(S'out'
p1134
g56
F0.5097
tp1135
asI101
(lp1136
(S'we'
p1137
g3
F0.9972
tp1138
a(S'have'
p1139
g9
F0.9987
tp1140
a(S'enough'
p1141
g6
F0.6612
tp1142
asI102
(lp1143
(S'is'
p1144
g9
F0.9993
tp1145
a(S'it'
p1146
g3
F0.9991
tp1147
a(S'raining'
p1148
g9
F0.9975
tp1149
asI103
(lp1150
(S'is'
p1151
g9
F0.9993
tp1152
a(S'it'
p1153
g3
F0.9991
tp1154
a(S'raining'
p1155
g9
F0.9998
tp1156
a(S'out'
p1157
g775
F0.9028
tp1158
asI104
(lp1159
(S'oh'
p1160
g38
F0.9988
tp1161
asI105
(lp1162
(S'oh'
p1163
g38
F0.9988
tp1164
asI106
(lp1165
(S'sean'
p1166
g16
F0.992
tp1167
a(S'are'
p1168
g9
F0.9979
tp1169
a(S'you'
p1170
g3
F0.9997
tp1171
a(S'done'
p1172
g9
F0.9939
tp1173
a(S'eating'
p1174
g9
F0.9907
tp1175
asI107
(lp1176
(S'yeah'
p1177
g38
F0.9988
tp1178
asI108
(lp1179
(S'can'
p1180
g9
F0.9755
tp1181
a(g44
g3
F0.9857
tp1182
a(S'go'
p1183
g9
F0.9999
tp1184
a(S'out'
p1185
g775
F0.7133
tp1186
asI109
(lp1187
(S'you'
p1188
g3
F0.998
tp1189
a(S'want'
p1190
g9
F0.9999
tp1191
a(S'some'
p1192
g32
F0.9867
tp1193
a(S'applesauce'
p1194
g6
F0.9407
tp1195
a(S'or'
p1196
g64
F0.9926
tp1197
a(S'somethin'
p1198
g6
F0.9922
tp1199
a(g1018
g265
F0.393
tp1200
asI110
(lp1201
(S'no'
p1202
g38
F0.9253
tp1203
asI111
(lp1204
(S'dessert'
p1205
g6
F0.9304
tp1206
asI112
(lp1207
(S'you'
p1208
g3
F0.9936
tp1209
a(S'wan'
p1210
g69
F0.5417
tp1211
a(g8
g6
F0.352
tp1212
a(g8
g265
F0.3756
tp1213
a(g31
g32
F0.7919
tp1214
a(S'wait'
p1215
g6
F0.6779
tp1216
a(S'un'
p1217
g6
F0.44
tp1218
a(S'til'
p1219
g56
F0.8557
tp1220
a(S'later'
p1221
g129
F0.9174
tp1222
asI113
(lp1223
(S'can'
p1224
g9
F0.9701
tp1225
a(g44
g3
F0.9799
tp1226
asI114
(lp1227
(S'is'
p1228
g9
F0.9993
tp1229
a(S'it'
p1230
g3
F0.9991
tp1231
a(S'raining'
p1232
g9
F0.9997
tp1233
a(S'outside'
p1234
g775
F0.3729
tp1235
asI115
(lp1236
(S'oh'
p1237
g38
F0.9988
tp1238
asI116
(lp1239
(S'no'
p1240
g38
F0.9253
tp1241
asI117
(lp1242
(S'doesn'
p1243
g9
F0.8416
tp1244
a(g8
g6
F0.2372
tp1245
a(S'look'
p1246
g9
F0.9955
tp1247
a(S'it'
p1248
g3
F0.9953
tp1249
asI118
(lp1250
(S'okay'
p1251
g38
F0.9857
tp1252
asI119
(lp1253
(S'can'
p1254
g9
F0.9701
tp1255
a(g44
g3
F0.9799
tp1256
asI120
(lp1257
(S'your'
p1258
g32
F0.9719
tp1259
a(S'plate'
p1260
g6
F0.997
tp1261
a(g206
g265
F0.7219
tp1262
a(S'full'
p1263
g69
F0.942
tp1264
a(S'you'
p1265
g3
F0.9943
tp1266
a(S'll'
p1267
g9
F0.628
tp1268
a(S'have'
p1269
g9
F0.9987
tp1270
a(S'to'
p1271
g56
F0.9964
tp1272
a(S'wait'
p1273
g9
F0.997
tp1274
a(S'un'
p1275
g16
F0.2995
tp1276
a(S'til'
p1277
g56
F0.9638
tp1278
a(S'we'
p1279
g3
F0.9981
tp1280
a(S'eat'
p1281
g9
F0.9972
tp1282
a(S'supper'
p1283
g6
F0.9586
tp1284
a(S'and'
p1285
g64
F0.9976
tp1286
a(S'then'
p1287
g129
F0.9839
tp1288
a(S'you'
p1289
g3
F0.9995
tp1290
a(S'can'
p1291
g9
F0.9996
tp1292
a(S'go'
p1293
g9
F0.9998
tp1294
a(S'out'
p1295
g775
F0.7379
tp1296
asI121
(lp1297
(g44
g3
F0.9635
tp1298
a(S'don'
p1299
g9
F0.9231
tp1300
a(g8
g6
F0.3137
tp1301
a(S'want'
p1302
g9
F0.9948
tp1303
a(S'mine'
p1304
g3
F0.975
tp1305
asI122
(lp1306
(S'brian'
p1307
g16
F0.9666
tp1308
a(S'you'
p1309
g3
F0.9972
tp1310
a(S'finish'
p1311
g9
F0.9977
tp1312
a(S'first'
p1313
g69
F0.724
tp1314
asI123
(lp1315
(S'you'
p1316
g3
F0.9754
tp1317
a(S're'
p1318
g9
F0.589
tp1319
a(S'almost'
p1320
g129
F0.9946
tp1321
a(S'done'
p1322
g9
F0.9518
tp1323
asI124
(lp1324
(S'oh'
p1325
g38
F0.9988
tp1326
asI125
(lp1327
(S'is'
p1328
g9
F0.9983
tp1329
a(S'this'
p1330
g3
F0.7067
tp1331
a(g31
g32
F0.9904
tp1332
a(S'cap'
p1333
g6
F0.9929
tp1334
a(S'gun'
p1335
g6
F0.8972
tp1336
asI126
(lp1337
(S'mhm'
p1338
g38
F0.9747
tp1339
asI127
(lp1340
(S'you'
p1341
g3
F0.9979
tp1342
a(S'do'
p1343
g9
F0.9998
tp1344
a(S'the'
p1345
g32
F0.9937
tp1346
a(S'cackles'
p1347
g6
F0.9556
tp1348
a(S'in'
p1349
g56
F0.9324
tp1350
asI128
(lp1351
(g44
g3
F0.9635
tp1352
a(S'don'
p1353
g9
F0.9231
tp1354
a(g8
g6
F0.2457
tp1355
a(S'know'
p1356
g9
F0.9991
tp1357
a(S'it'
p1358
g3
F0.9934
tp1359
a(g206
g9
F0.5675
tp1360
a(S'not'
p1361
g129
F0.9935
tp1362
a(S'mine'
p1363
g3
F0.9853
tp1364
a(S'is'
p1365
g9
F0.9997
tp1366
a(S'it'
p1367
g3
F0.9976
tp1368
asI129
(lp1369
(S'in'
p1370
g56
F0.9325
tp1371
a(S'here'
p1372
g129
F0.8209
tp1373
asI130
(lp1374
(S'mhm'
p1375
g38
F0.9747
tp1376
asI131
(lp1377
(S'this'
p1378
g32
F0.9834
tp1379
a(S'way'
p1380
g6
F0.9636
tp1381
asI132
(lp1382
(S'you'
p1383
g3
F0.9981
tp1384
a(S'done'
p1385
g9
F0.9976
tp1386
a(S'with'
p1387
g56
F0.9974
tp1388
a(S'all'
p1389
g32
F0.5767
tp1390
a(S'the'
p1391
g32
F0.9993
tp1392
a(S'legos'
p1393
g6
F0.6194
tp1394
asI133
(lp1395
(S'0'
p1396
g61
F0.9638
tp1397
asI134
(lp1398
(S'hm'
p1399
g38
F0.995
tp1400
asI135
(lp1401
(S'are'
p1402
g9
F0.9964
tp1403
a(S'you'
p1404
g3
F0.9994
tp1405
a(S'gonna'
p1406
g9
F0.9996
tp1407
a(S'still'
p1408
g129
F0.9936
tp1409
a(S'play'
p1410
g9
F0.995
tp1411
a(S'with'
p1412
g56
F0.9973
tp1413
a(S'th'
p1414
g265
F0.259
tp1415
a(S'em'
p1416
g3
F0.9224
tp1417
asI136
(lp1418
(S'okay'
p1419
g38
F0.9364
tp1420
a(S'don'
p1421
g16
F0.6508
tp1422
a(g8
g16
F0.6992
tp1423
a(S'forget'
p1424
g9
F0.9985
tp1425
a(S'you'
p1426
g3
F0.9996
tp1427
a(S'have'
p1428
g9
F0.9995
tp1429
a(S'to'
p1430
g56
F0.9965
tp1431
a(S'pick'
p1432
g9
F0.9998
tp1433
a(S'them'
p1434
g3
F0.949
tp1435
a(S'all'
p1436
g32
F0.8279
tp1437
a(S'up'
p1438
g775
F0.5063
tp1439
a(S'after'
p1440
g56
F0.9876
tp1441
a(S'we'
p1442
g3
F0.999
tp1443
a(S're'
p1444
g9
F0.7181
tp1445
a(S'done'
p1446
g9
F0.9257
tp1447
asI137
(lp1448
(S'after'
p1449
g56
F0.9204
tp1450
a(S'supper'
p1451
g6
F0.9192
tp1452
a(S'you'
p1453
g3
F0.9954
tp1454
a(S'can'
p1455
g9
F0.9997
tp1456
a(S'finish'
p1457
g9
F0.9987
tp1458
a(S'playin'
p1459
g9
F0.9853
tp1460
a(g1018
g6
F0.349
tp1461
asI138
(lp1462
(g1396
g61
F0.9638
tp1463
asI139
(lp1464
(S'show'
p1465
g9
F0.869
tp1466
a(S'me'
p1467
g3
F0.9955
tp1468
a(S'what'
p1469
g3
F0.9235
tp1470
a(S'you'
p1471
g3
F0.9995
tp1472
a(S'made'
p1473
g9
F0.9982
tp1474
asI140
(lp1475
(g1396
g61
F0.9638
tp1476
asI141
(lp1477
(S'did'
p1478
g9
F0.9986
tp1479
a(S'you'
p1480
g3
F0.9986
tp1481
a(S'find'
p1482
g9
F0.9998
tp1483
a(S'the'
p1484
g32
F0.9997
tp1485
a(S'little'
p1486
g69
F0.9922
tp1487
a(S'house'
p1488
g6
F0.9863
tp1489
asI142
(lp1490
(g1396
g61
F0.9638
tp1491
asI143
(lp1492
(S'can'
p1493
g9
F0.999
tp1494
a(S'you'
p1495
g3
F0.9985
tp1496
a(S'finish'
p1497
g9
F0.9979
tp1498
a(S'eating'
p1499
g9
F0.9993
tp1500
a(S'your'
p1501
g32
F0.9911
tp1502
a(S'supper'
p1503
g6
F0.9961
tp1504
a(S'before'
p1505
g56
F0.9952
tp1506
a(S'you'
p1507
g3
F0.9996
tp1508
a(S'play'
p1509
g9
F0.9988
tp1510
a(S'with'
p1511
g56
F0.9994
tp1512
a(S'the'
p1513
g32
F0.9996
tp1514
a(S'gun'
p1515
g6
F0.9847
tp1516
a(S'sean'
p1517
g16
F0.9092
tp1518
asI144
(lp1519
(S'brain'
p1520
g6
F0.9605
tp1521
asI145
(lp1522
(S'shoots'
p1523
g9
F0.629
tp1524
asI146
(lp1525
(S'brian'
p1526
g16
F0.9798
tp1527
asI147
(lp1528
(S'put'
p1529
g9
F0.9811
tp1530
a(S'the'
p1531
g32
F0.9995
tp1532
a(S'toy'
p1533
g6
F0.9958
tp1534
a(S'down'
p1535
g56
F0.4096
tp1536
asI148
(lp1537
(S'and'
p1538
g64
F0.9987
tp1539
a(S'then'
p1540
g129
F0.9791
tp1541
a(S'finish'
p1542
g9
F0.9471
tp1543
a(S'and'
p1544
g64
F0.9954
tp1545
a(S'then'
p1546
g129
F0.9886
tp1547
a(S'play'
p1548
g9
F0.9607
tp1549
asI149
(lp1550
(S'shoots'
p1551
g9
F0.629
tp1552
asI150
(lp1553
(S'zzz'
p1554
g38
F0.361
tp1555
asI151
(lp1556
(S'ryan'
p1557
g16
F0.9868
tp1558
asI152
(lp1559
(g1396
g61
F0.9638
tp1560
asI153
(lp1561
(S'brian'
p1562
g16
F0.9798
tp1563
asI154
(lp1564
(S'oh'
p1565
g38
F0.9965
tp1566
a(S'brian'
p1567
g16
F0.9566
tp1568
asI155
(lp1569
(S'one'
p1570
g61
F0.7703
tp1571
asI156
(lp1572
(g1396
g61
F0.9638
tp1573
asI157
(lp1574
(S'two'
p1575
g61
F0.9238
tp1576
asI158
(lp1577
(g1396
g61
F0.9638
tp1578
asI159
(lp1579
(S'three'
p1580
g61
F0.8849
tp1581
asI160
(lp1582
(g44
g3
F0.9635
tp1583
a(S'don'
p1584
g9
F0.9156
tp1585
a(g8
g6
F0.3137
tp1586
a(S'want'
p1587
g9
F0.9774
tp1588
asI161
(lp1589
(g44
g3
F0.9866
tp1590
a(S'would'
p1591
g9
F0.9999
tp1592
a(S'like'
p1593
g9
F0.9876
tp1594
a(S'to'
p1595
g56
F0.9893
tp1596
a(S'hold'
p1597
g9
F0.9998
tp1598
a(S'the'
p1599
g32
F0.9995
tp1600
a(S'toy'
p1601
g6
F0.9868
tp1602
asI162
(lp1603
(g1396
g61
F0.9638
tp1604
asI163
(lp1605
(S'un'
p1606
g16
F0.387
tp1607
a(S'til'
p1608
g56
F0.9723
tp1609
a(S'you'
p1610
g3
F0.9964
tp1611
a(S're'
p1612
g9
F0.6453
tp1613
a(S'done'
p1614
g9
F0.9766
tp1615
a(S'eating'
p1616
g9
F0.9853
tp1617
asI164
(lp1618
(g44
g3
F0.9635
tp1619
a(S'don'
p1620
g9
F0.9156
tp1621
a(g8
g6
F0.3137
tp1622
a(S'want'
p1623
g9
F0.9774
tp1624
asI165
(lp1625
(S'you'
p1626
g3
F0.9926
tp1627
a(S'don'
p1628
g9
F0.8675
tp1629
a(g8
g6
F0.2503
tp1630
a(S'want'
p1631
g9
F0.9974
tp1632
a(S'any'
p1633
g32
F0.8779
tp1634
a(S'more'
p1635
g69
F0.8076
tp1636
asI166
(lp1637
(S'mhm'
p1638
g38
F0.9747
tp1639
asI167
(lp1640
(S'you'
p1641
g3
F0.9754
tp1642
a(S're'
p1643
g9
F0.94
tp1644
a(S'all'
p1645
g32
F0.757
tp1646
a(S'done'
p1647
g9
F0.4507
tp1648
asI168
(lp1649
(S'there'
p1650
g179
F0.4664
tp1651
a(g206
g265
F0.6897
tp1652
a(S'only'
p1653
g69
F0.8317
tp1654
a(S'one'
p1655
g61
F0.7955
tp1656
a(S'bite'
p1657
g6
F0.5158
tp1658
a(S'left'
p1659
g9
F0.8826
tp1660
a(S'in'
p1661
g56
F0.9445
tp1662
a(S'here'
p1663
g129
F0.9062
tp1664
asI169
(lp1665
(S'shoots'
p1666
g9
F0.629
tp1667
asI170
(lp1668
(S'two'
p1669
g61
F0.9668
tp1670
a(S'bites'
p1671
g6
F0.7979
tp1672
asI171
(lp1673
(S'look'
p1674
g9
F0.8183
tp1675
asI172
(lp1676
(S'two'
p1677
g61
F0.9668
tp1678
a(S'bites'
p1679
g6
F0.7979
tp1680
asI173
(lp1681
(S'shoots'
p1682
g9
F0.629
tp1683
asI174
(lp1684
(S'you'
p1685
g3
F0.9969
tp1686
a(S'can'
p1687
g9
F0.9998
tp1688
a(S'finish'
p1689
g9
F0.9993
tp1690
a(S'that'
p1691
g3
F0.7248
tp1692
a(S'for'
p1693
g56
F0.9977
tp1694
a(S'me'
p1695
g3
F0.999
tp1696
asI175
(lp1697
(S'please'
p1698
g9
F0.8246
tp1699
asI176
(lp1700
(g1396
g61
F0.9638
tp1701
asI177
(lp1702
(S'mom'
p1703
g6
F0.7188
tp1704
asI178
(lp1705
(S'mm'
p1706
g38
F0.627
tp1707
asI179
(lp1708
(S'one'
p1709
g61
F0.864
tp1710
a(S'bite'
p1711
g6
F0.7411
tp1712
asI180
(lp1713
(S'how'
p1714
g129
F0.9647
tp1715
a(g31
g32
F0.973
tp1716
a(S'bout'
p1717
g56
F0.3725
tp1718
a(S'one'
p1719
g61
F0.8618
tp1720
a(S'bite'
p1721
g9
F0.5417
tp1722
a(S'not'
p1723
g129
F0.9963
tp1724
a(S'two'
p1725
g61
F0.9046
tp1726
asI181
(lp1727
(g1396
g61
F0.9638
tp1728
asI182
(lp1729
(S'okay'
p1730
g38
F0.7364
tp1731
a(S'and'
p1732
g64
F0.9978
tp1733
a(S'if'
p1734
g56
F0.9834
tp1735
a(S'it'
p1736
g3
F0.997
tp1737
a(S'stops'
p1738
g9
F0.9895
tp1739
a(S'rainin'
p1740
g9
F0.4872
tp1741
a(g1018
g6
F0.3094
tp1742
a(g44
g3
F0.9525
tp1743
a(S'll'
p1744
g9
F0.7524
tp1745
a(S'take'
p1746
g9
F0.9994
tp1747
a(S'you'
p1748
g3
F0.9972
tp1749
a(S'outside'
p1750
g129
F0.6919
tp1751
a(S'again'
p1752
g129
F0.995
tp1753
asI183
(lp1754
(g1396
g61
F0.9638
tp1755
asI184
(lp1756
(S'zzz'
p1757
g38
F0.361
tp1758
asI185
(lp1759
(S'okay'
p1760
g38
F0.9857
tp1761
asI186
(lp1762
(S'it'
p1763
g3
F0.9858
tp1764
a(g206
g9
F0.5117
tp1765
a(S'magic'
p1766
g69
F0.6134
tp1767
asI187
(lp1768
(S'cat'
p1769
g16
F0.8028
tp1770
a(g206
g16
F0.5982
tp1771
a(S'going'
p1772
g9
F0.9973
tp1773
a(S'to'
p1774
g56
F0.9914
tp1775
a(S'get'
p1776
g9
F1.0
tp1777
a(S'your'
p1778
g32
F0.9932
tp1779
a(S'legos'
p1780
g6
F0.8979
tp1781
asI188
(lp1782
(S'shoots'
p1783
g9
F0.629
tp1784
asI189
(lp1785
(S'one'
p1786
g61
F0.9677
tp1787
a(S'more'
p1788
g69
F0.7693
tp1789
a(S'bite'
p1790
g6
F0.8986
tp1791
asI190
(lp1792
(S'one'
p1793
g61
F0.9677
tp1794
a(S'more'
p1795
g69
F0.7693
tp1796
a(S'bite'
p1797
g6
F0.8986
tp1798
asI191
(lp1799
(g1396
g61
F0.9638
tp1800
asI192
(lp1801
(S'no'
p1802
g38
F0.9253
tp1803
asI193
(lp1804
(S'freeze'
p1805
g9
F0.5776
tp1806
asI194
(lp1807
(S'wan'
p1808
g69
F0.4967
tp1809
a(g8
g6
F0.7472
tp1810
a(g44
g3
F0.9583
tp1811
a(S'put'
p1812
g9
F0.9993
tp1813
a(g31
g32
F0.9984
tp1814
a(S'cap'
p1815
g6
F0.9973
tp1816
a(S'in'
p1817
g56
F0.9982
tp1818
a(S'this'
p1819
g3
F0.8059
tp1820
a(S'and'
p1821
g64
F0.9968
tp1822
a(S'shoot'
p1823
g9
F0.9736
tp1824
a(S'you'
p1825
g3
F0.9981
tp1826
asI195
(lp1827
(S'that'
p1828
g3
F0.6399
tp1829
a(S'wouldn'
p1830
g9
F0.9503
tp1831
a(g8
g9
F0.8329
tp1832
a(S'be'
p1833
g9
F0.9734
tp1834
a(S'very'
p1835
g129
F0.9987
tp1836
a(S'nice'
p1837
g69
F0.9997
tp1838
a(S'would'
p1839
g9
F0.9932
tp1840
a(S'it'
p1841
g3
F0.9917
tp1842
asI196
(lp1843
(g1396
g61
F0.9638
tp1844
asI197
(lp1845
(S'zzz'
p1846
g38
F0.361
tp1847
asI198
(lp1848
(S'silly'
p1849
g69
F0.9967
tp1850
a(S'kid'
p1851
g6
F0.9794
tp1852
asI199
(lp1853
(S'ow'
p1854
g38
F0.9682
tp1855
as.