(dp0
I514
(lp1
(S'you'
p2
S'O'
p3
F0.9979
tp4
a(S'do'
p5
S'V'
p6
F0.9998
tp7
a(S'the'
p8
S'D'
p9
F0.9948
tp10
a(S'cackles'
p11
S'N'
p12
F0.9556
tp13
a(S'in'
p14
S'P'
p15
F0.8452
tp16
a(S'.'
p17
S','
p18
F0.9941
tp19
asI519
(lp20
(S'I'
p21
g3
F0.9976
tp22
a(S"don't"
p23
g6
F1.0
tp24
a(S'know'
p25
g6
F0.9995
tp26
a(S"it's"
p27
S'L'
p28
F0.9994
tp29
a(S'not'
p30
S'R'
p31
F0.9964
tp32
a(S'mine'
p33
g3
F0.9805
tp34
a(S'is'
p35
g6
F0.9996
tp36
a(S'it'
p37
g3
F0.9974
tp38
a(S'?'
p39
g18
F0.9991
tp40
asI525
(lp41
(S'in'
p42
g15
F0.9325
tp43
a(S'here'
p44
g31
F0.8824
tp45
a(g39
g18
F0.9985
tp46
asI15
(lp47
(S'what'
p48
g3
F0.9899
tp49
a(S"don't"
p50
g6
F1.0
tp51
a(S'you'
p52
g3
F0.9991
tp53
a(S'want'
p54
g6
F0.9993
tp55
a(S'Ryan'
p56
S'^'
p57
F0.9998
tp58
a(g39
g18
F0.9946
tp59
asI530
(lp60
(S'mhm'
p61
S'!'
p62
F0.9761
tp63
a(g17
g18
F0.9962
tp64
asI20
(lp65
(S'guess'
p66
g6
F0.8797
tp67
a(S'['
p68
g18
F0.9876
tp69
a(g39
g18
F0.979
tp70
a(S']'
p71
g18
F0.8218
tp72
a(g62
g18
F0.997
tp73
asI533
(lp74
(S'this'
p75
g9
F0.9834
tp76
a(S'way'
p77
g12
F0.9743
tp78
a(g39
g18
F0.9983
tp79
asI25
(lp80
(S'what'
p81
g3
F0.9898
tp82
a(S'would'
p83
g6
F0.9997
tp84
a(S'you'
p85
g3
F0.9958
tp86
a(S'like'
p87
g6
F0.5137
tp88
a(g39
g18
F0.997
tp89
asI538
(lp90
(S'you'
p91
g3
F0.9981
tp92
a(S'done'
p93
g6
F0.9976
tp94
a(S'with'
p95
g15
F0.9974
tp96
a(S'all'
p97
g9
F0.5775
tp98
a(S'the'
p99
g9
F0.9993
tp100
a(S'legos'
p101
g12
F0.6027
tp102
a(g39
g18
F0.9985
tp103
asI29
(lp104
(S'a'
p105
g9
F0.9921
tp106
a(S'cup'
p107
g12
F0.9931
tp108
a(g39
g18
F0.9961
tp109
asI542
(lp110
(S'0'
p111
S'$'
p112
F0.9876
tp113
a(g17
g18
F0.9949
tp114
asI544
(lp115
(S'hm'
p116
g62
F0.9811
tp117
a(S':'
p118
g18
F0.891
tp119
a(g39
g18
F0.9885
tp120
asI33
(lp121
(S'uhuh'
p122
g62
F0.9924
tp123
a(g17
g18
F0.9962
tp124
asI36
(lp125
(S'what'
p126
g3
F0.9171
tp127
a(g39
g18
F0.9924
tp128
asI689
(lp129
(S'how'
p130
g31
F0.9744
tp131
a(S'('
p132
g18
F0.9809
tp133
a(S'a)bout'
p134
g15
F0.7902
tp135
a(S'one'
p136
g112
F0.7962
tp137
a(S'bite'
p138
g12
F0.5473
tp139
a(S'not'
p140
g31
F0.9937
tp141
a(S'two'
p142
g112
F0.9258
tp143
a(g39
g18
F0.9965
tp144
asI40
(lp145
(g21
g3
F0.9982
tp146
a(S'got'
p147
g6
F0.9989
tp148
a(S'yyy'
p149
g31
F0.3117
tp150
a(g17
g18
F0.9953
tp151
asI554
(lp152
(S'okay'
p153
g62
F0.8864
tp154
a(S"don't"
p155
g6
F0.9982
tp156
a(S'forget'
p157
g6
F1.0
tp158
a(S'you'
p159
g3
F0.9992
tp160
a(S'have_to'
p161
g6
F0.999
tp162
a(S'pick'
p163
g6
F0.9997
tp164
a(S'them'
p165
g3
F0.949
tp166
a(S'all'
p167
g9
F0.8279
tp168
a(S'up'
p169
S'T'
p170
F0.5063
tp171
a(S'after'
p172
g15
F0.9511
tp173
a(S"we're"
p174
g28
F0.8834
tp175
a(S'done'
p176
g6
F0.804
tp177
a(g17
g18
F0.9986
tp178
asI44
(lp179
(S'you'
p180
g3
F0.9968
tp181
a(S'have_to'
p182
g6
F0.999
tp183
a(S'pick'
p184
g6
F0.9953
tp185
a(S'one'
p186
g112
F0.9009
tp187
a(S'or'
p188
S'&'
p189
F0.965
tp190
a(S'the'
p191
g9
F0.9991
tp192
a(S'other'
p193
S'A'
p194
F0.9476
tp195
a(S'we'
p196
g3
F0.9956
tp197
a(S"can't"
p198
g6
F0.9999
tp199
a(S'have'
p200
g6
F0.9995
tp201
a(S'two'
p202
g112
F0.9254
tp203
a(g17
g18
F0.9959
tp204
asI605
(lp205
(S'Brian'
p206
g57
F0.9971
tp207
a(g17
g18
F0.9946
tp208
asI560
(lp209
(S'after'
p210
g15
F0.9204
tp211
a(S'supper'
p212
g12
F0.9192
tp213
a(S'you'
p214
g3
F0.9954
tp215
a(S'can'
p216
g6
F0.9997
tp217
a(S'finish'
p218
g6
F0.998
tp219
a(S'playin(g'
p220
g6
F0.898
tp221
a(S')'
p222
g18
F0.989
tp223
a(g17
g18
F0.9961
tp224
asI50
(lp225
(S"I'll"
p226
g28
F0.9865
tp227
a(S'get'
p228
g6
F1.0
tp229
a(S'you'
p230
g3
F0.9977
tp231
a(g105
g9
F0.9968
tp232
a(S'cup'
p233
g12
F0.9929
tp234
a(g39
g18
F0.9963
tp235
asI563
(lp236
(g111
g112
F0.9876
tp237
a(g17
g18
F0.9949
tp238
asI565
(lp239
(S'show'
p240
g6
F0.869
tp241
a(S'me'
p242
g3
F0.9955
tp243
a(S'what'
p244
g3
F0.8881
tp245
a(S'you'
p246
g3
F0.9995
tp247
a(S'made'
p248
g6
F0.9969
tp249
a(g17
g18
F0.9967
tp250
asI54
(lp251
(S'hm'
p252
g62
F0.9811
tp253
a(g118
g18
F0.8492
tp254
a(g62
g18
F0.9917
tp255
asI568
(lp256
(g111
g112
F0.9876
tp257
a(g17
g18
F0.9949
tp258
asI57
(lp259
(S'Ma'
p260
g62
F0.457
tp261
a(g62
g18
F0.9949
tp262
asI570
(lp263
(S'did'
p264
g6
F0.9986
tp265
a(S'you'
p266
g3
F0.9986
tp267
a(S'find'
p268
g6
F0.9998
tp269
a(S'the'
p270
g9
F0.9997
tp271
a(S'little'
p272
g194
F0.9922
tp273
a(S'house'
p274
g12
F0.9881
tp275
a(g39
g18
F0.9987
tp276
asI61
(lp277
(S'no'
p278
g62
F0.9847
tp279
a(g62
g18
F0.999
tp280
asI574
(lp281
(g111
g112
F0.9876
tp282
a(g17
g18
F0.9949
tp283
asI576
(lp284
(S'can'
p285
g6
F0.999
tp286
a(S'you'
p287
g3
F0.9985
tp288
a(S'finish'
p289
g6
F0.9979
tp290
a(S'eating'
p291
g6
F0.9993
tp292
a(S'your'
p293
g9
F0.9911
tp294
a(S'supper'
p295
g12
F0.9961
tp296
a(S'before'
p297
g15
F0.9952
tp298
a(S'you'
p299
g3
F0.9996
tp300
a(S'play'
p301
g6
F0.9988
tp302
a(S'with'
p303
g15
F0.9994
tp304
a(S'the'
p305
g9
F0.9996
tp306
a(S'gun'
p307
g12
F0.9758
tp308
a(S'Sean'
p309
g57
F0.9966
tp310
a(g39
g18
F0.9977
tp311
asI65
(lp312
(S'what'
p313
g3
F0.9931
tp314
a(S'do'
p315
g6
F0.9993
tp316
a(S'you'
p317
g3
F0.9997
tp318
a(S'want'
p319
g6
F0.9966
tp320
a(g39
g18
F0.9978
tp321
asI69
(lp322
(S'this'
p323
g3
F0.8289
tp324
a(g17
g18
F0.9982
tp325
asI582
(lp326
(S'<'
p327
S'~'
p328
F0.9115
tp329
a(S'Brain'
p330
g12
F0.8185
tp331
a(S'>'
p332
S'G'
p333
F0.3469
tp334
a(g68
g18
F0.9218
tp335
a(g332
S'E'
p336
F0.5563
tp337
a(g71
g336
F0.5168
tp338
a(g62
g18
F0.9723
tp339
asI72
(lp340
(S'is'
p341
g6
F0.9981
tp342
a(S'that'
p343
g3
F0.8927
tp344
a(S'what'
p345
g3
F0.9727
tp346
a(S'you'
p347
g3
F0.9996
tp348
a(S'want'
p349
g6
F0.999
tp350
a(g39
g18
F0.997
tp351
asI585
(lp352
(g189
g189
F0.9893
tp353
a(S'='
p354
g18
F0.8797
tp355
a(S'shoots'
p356
g12
F0.4853
tp357
a(g17
g18
F0.9994
tp358
asI586
(lp359
(S'Brian'
p360
g57
F0.9954
tp361
a(g62
g18
F0.9903
tp362
asI76
(lp363
(S'you'
p364
g3
F0.9689
tp365
a(S'happy'
p366
g194
F0.956
tp367
a(S'now'
p368
g31
F0.989
tp369
a(g39
g18
F0.9987
tp370
asI589
(lp371
(S'put'
p372
g6
F0.9811
tp373
a(S'the'
p374
g9
F0.9996
tp375
a(S'toy'
p376
g12
F0.9958
tp377
a(S'down'
p378
g31
F0.4404
tp379
a(g62
g18
F0.9985
tp380
asI80
(lp381
(S'zzz'
p382
g62
F0.3756
tp383
a(g17
g18
F0.9972
tp384
asI595
(lp385
(g189
g189
F0.9893
tp386
a(g354
g18
F0.8797
tp387
a(S'shoots'
p388
g12
F0.4853
tp389
a(g17
g18
F0.9994
tp390
asI596
(lp391
(S'zzz'
p392
g62
F0.3756
tp393
a(g17
g18
F0.9972
tp394
asI85
(lp395
(S'who'
p396
g3
F0.9771
tp397
a(S'&-um'
p398
g62
F0.5005
tp399
a(S'put'
p400
g6
F0.9843
tp401
a(S'the'
p402
g9
F0.9997
tp403
a(S'paintings'
p404
g12
F0.9972
tp405
a(S'on'
p406
g15
F0.9993
tp407
a(S'the'
p408
g9
F0.9994
tp409
a(S'floor'
p410
g12
F0.9965
tp411
a(S'that'
p412
g15
F0.9902
tp413
a(S'you'
p414
g3
F0.9996
tp415
a(S'made'
p416
g6
F0.9906
tp417
a(g39
g18
F0.9962
tp418
asI600
(lp419
(S'Ryan'
p420
g57
F0.9987
tp421
a(g17
g18
F0.9946
tp422
asI90
(lp423
(S'Brian'
p424
g57
F0.9979
tp425
a(S'did'
p426
g6
F0.9654
tp427
a(g17
g18
F0.9974
tp428
asI603
(lp429
(g111
g112
F0.9876
tp430
a(g17
g18
F0.9949
tp431
asI93
(lp432
(S'mm'
p433
g62
F0.5842
tp434
a(g17
g18
F0.9932
tp435
asI96
(lp436
(S'those'
p437
g3
F0.6322
tp438
a(S'are'
p439
g6
F0.9921
tp440
a(S'pretty'
p441
g31
F0.8618
tp442
a(S'with'
p443
g15
F0.9945
tp444
a(g327
g328
F0.8943
tp445
a(S'all'
p446
S'X'
p447
F0.729
tp448
a(S'the'
p449
g9
F0.9984
tp450
a(g332
g333
F0.2983
tp451
a(S'[/]'
p452
g18
F0.2817
tp453
a(S'all'
p454
g447
F0.7132
tp455
a(S'the'
p456
g9
F0.9999
tp457
a(S'colors'
p458
g12
F0.9939
tp459
a(S'Brian'
p460
g57
F0.9953
tp461
a(g17
g18
F0.9971
tp462
asI612
(lp463
(S'one'
p464
g112
F0.7288
tp465
a(g62
g18
F0.9976
tp466
asI101
(lp467
(S'are'
p468
g6
F0.9904
tp469
a(S'they'
p470
g3
F0.9935
tp471
a(S'yours'
p472
g3
F0.858
tp473
a(S'over'
p474
g15
F0.5483
tp475
a(S'here'
p476
g31
F0.9854
tp477
a(g39
g18
F0.9983
tp478
asI104
(lp479
(S'yeah'
p480
g62
F0.9986
tp481
a(g17
g18
F0.997
tp482
asI618
(lp483
(S'two'
p484
g112
F0.9184
tp485
a(g62
g18
F0.9972
tp486
asI107
(lp487
(S'think'
p488
g6
F0.9828
tp489
a(S"it's"
p490
g28
F0.9988
tp491
a(S'raining'
p492
g6
F0.9839
tp493
a(S'again'
p494
g31
F0.9811
tp495
a(g17
g18
F0.9977
tp496
asI621
(lp497
(g111
g112
F0.9876
tp498
a(g17
g18
F0.9949
tp499
asI110
(lp500
(S"I'm"
p501
g28
F0.997
tp502
a(S'going'
p503
g6
F0.9946
tp504
a(S'back'
p505
g31
F0.6114
tp506
a(S'out'
p507
g15
F0.5965
tp508
a(S'though'
p509
g15
F0.5102
tp510
a(g17
g18
F0.9962
tp511
asI623
(lp512
(S'three'
p513
g112
F0.8722
tp514
a(g62
g18
F0.997
tp515
asI616
(lp516
(g111
g112
F0.9876
tp517
a(g17
g18
F0.9949
tp518
asI114
(lp519
(g21
g3
F0.9982
tp520
a(S'think'
p521
g6
F0.9997
tp522
a(S"we're"
p523
g28
F0.9759
tp524
a(S'getting'
p525
g6
F0.9877
tp526
a(S'thunder'
p527
g12
F0.7789
tp528
a(S'and'
p529
g189
F0.9974
tp530
a(S'lightning'
p531
g12
F0.6345
tp532
a(g21
g3
F0.9916
tp533
a(S"don't"
p534
g6
F1.0
tp535
a(S'think'
p536
g6
F0.9999
tp537
a(S"you'll"
p538
g28
F0.9924
tp539
a(S'be'
p540
g6
F0.9994
tp541
a(S'going'
p542
g6
F0.9953
tp543
a(S'back'
p544
g31
F0.6351
tp545
a(S'out'
p546
g15
F0.5112
tp547
a(S'again'
p548
g31
F0.9656
tp549
a(g17
g18
F0.9967
tp550
asI702
(lp551
(S'zzz'
p552
g62
F0.3756
tp553
a(g17
g18
F0.9972
tp554
asI630
(lp555
(g21
g3
F0.9976
tp556
a(S'would'
p557
g6
F0.9999
tp558
a(S'like'
p559
g6
F0.9876
tp560
a(S'to'
p561
g15
F0.9893
tp562
a(S'hold'
p563
g6
F0.9998
tp564
a(S'the'
p565
g9
F0.9995
tp566
a(S'toy'
p567
g12
F0.9961
tp568
a(g17
g18
F0.9988
tp569
asI634
(lp570
(g111
g112
F0.9876
tp571
a(g17
g18
F0.9949
tp572
asI123
(lp573
(S'if'
p574
g15
F0.9912
tp575
a(S"there's"
p576
g28
F0.7467
tp577
a(S'no'
p578
g9
F0.9827
tp579
a(S'thunder'
p580
g12
F0.9986
tp581
a(g327
g328
F0.5675
tp582
a(S'or'
p583
g189
F0.9919
tp584
a(S'&-um'
p585
g62
F0.5964
tp586
a(g332
g336
F0.3036
tp587
a(S'[//]'
p588
g336
F0.438
tp589
a(S'if'
p590
g15
F0.994
tp591
a(S"there's"
p592
g28
F0.7935
tp593
a(S'thunder'
p594
g12
F0.681
tp595
a(S'out'
p596
g15
F0.4354
tp597
a(g17
g18
F0.9987
tp598
asI636
(lp599
(g132
g18
F0.9628
tp600
a(S'un)til'
p601
g15
F0.9968
tp602
a(S"you're"
p603
g28
F0.9789
tp604
a(S'done'
p605
g6
F0.9462
tp606
a(S'eating'
p607
g6
F0.9827
tp608
a(g17
g18
F0.9972
tp609
asI639
(lp610
(g21
g3
F0.9976
tp611
a(S"don't"
p612
g6
F1.0
tp613
a(S'want'
p614
g6
F0.9991
tp615
a(g17
g18
F0.9979
tp616
asI128
(lp617
(S'you'
p618
g3
F0.9968
tp619
a(S"don't"
p620
g6
F1.0
tp621
a(S'want'
p622
g6
F0.9999
tp623
a(S'to'
p624
g15
F0.9909
tp625
a(S'be'
p626
g6
F0.9997
tp627
a(S'outside'
p628
g31
F0.6533
tp629
a(S'in'
p630
g15
F0.9911
tp631
a(S'thunder'
p632
g12
F0.8958
tp633
a(S'and'
p634
g189
F0.9974
tp635
a(S'lightning'
p636
g12
F0.4962
tp637
a(S'do'
p638
g6
F0.9906
tp639
a(S'you'
p640
g3
F0.9958
tp641
a(g39
g18
F0.9993
tp642
asI642
(lp643
(S'you'
p644
g3
F0.9968
tp645
a(S"don't"
p646
g6
F1.0
tp647
a(S'want'
p648
g6
F1.0
tp649
a(S'any'
p650
g9
F0.8985
tp651
a(S'more'
p652
g194
F0.7482
tp653
a(g39
g18
F0.9969
tp654
asI133
(lp655
(S"there's"
p656
g28
F0.8612
tp657
a(S'only'
p658
g194
F0.9343
tp659
a(S'thunder'
p660
g12
F0.9893
tp661
a(g62
g18
F0.9991
tp662
asI646
(lp663
(S'mhm'
p664
g62
F0.9761
tp665
a(g17
g18
F0.9962
tp666
asI136
(lp667
(g21
g3
F0.9984
tp668
a(S'know'
p669
g6
F0.9986
tp670
a(g68
g18
F0.9862
tp671
a(g39
g18
F0.9842
tp672
a(g71
g18
F0.9156
tp673
a(g17
g18
F0.995
tp674
asI650
(lp675
(S"you're"
p676
g28
F0.9782
tp677
a(S'all'
p678
g9
F0.7894
tp679
a(S'done'
p680
g194
F0.4068
tp681
a(g39
g18
F0.9978
tp682
asI140
(lp683
(S'remember'
p684
g6
F0.9956
tp685
a(S'the'
p686
g9
F0.9995
tp687
a(S'other'
p688
g194
F0.9864
tp689
a(S'night'
p690
g12
F0.9751
tp691
a(S'Brian'
p692
g57
F0.9542
tp693
a(S'all'
p694
g447
F0.6867
tp695
a(S'the'
p696
g9
F0.9999
tp697
a(S'thunder'
p698
g12
F0.9361
tp699
a(S'and'
p700
g189
F0.9972
tp701
a(S'lightning'
p702
g12
F0.5915
tp703
a(g39
g18
F0.9959
tp704
asI706
(lp705
(S'okay'
p706
g62
F0.9732
tp707
a(g39
g18
F0.9976
tp708
asI654
(lp709
(S"there's"
p710
g28
F0.8612
tp711
a(S'only'
p712
g194
F0.9214
tp713
a(S'one'
p714
g112
F0.8917
tp715
a(g327
g328
F0.8068
tp716
a(S'bite'
p717
g6
F0.9025
tp718
a(S'left'
p719
g6
F0.8632
tp720
a(S'in'
p721
g15
F0.9261
tp722
a(S'here'
p723
g31
F0.8791
tp724
a(g332
g336
F0.5738
tp725
a(g68
g336
F0.5345
tp726
a(g332
g336
F0.9597
tp727
a(g71
g18
F0.6916
tp728
a(g17
g18
F0.9952
tp729
asI145
(lp730
(S'<<'
p731
g328
F0.8308
tp732
a(S'you'
p733
g3
F0.9986
tp734
a(S'should'
p735
g6
F0.9996
tp736
a(S'have'
p737
g6
F0.9994
tp738
a(S'saw'
p739
g6
F0.9849
tp740
a(S'the'
p741
g9
F0.9995
tp742
a(S'big'
p743
g194
F0.8677
tp744
a(g332
g18
F0.297
tp745
a(S'[///]'
p746
g18
F0.2042
tp747
a(S'Mom'
p748
g12
F0.8822
tp749
a(g332
g336
F0.601
tp750
a(g68
g336
F0.5345
tp751
a(g332
g336
F0.9519
tp752
a(g71
g18
F0.7316
tp753
a(g62
g18
F0.9968
tp754
asI659
(lp755
(g189
g189
F0.9893
tp756
a(g354
g18
F0.8797
tp757
a(S'shoots'
p758
g12
F0.4853
tp759
a(g17
g18
F0.9994
tp760
asI148
(lp761
(S'<<'
p762
g328
F0.8961
tp763
a(S'put'
p764
g6
F0.9979
tp765
a(S'your'
p766
g9
F0.9161
tp767
a(g332
g333
F0.5276
tp768
a(S'[/]'
p769
g333
F0.2325
tp770
a(S'put'
p771
g6
F0.9925
tp772
a(S'your'
p773
g9
F0.9938
tp774
a(S'butter'
p775
g12
F0.9974
tp776
a(S'on'
p777
g15
F0.9994
tp778
a(S'the'
p779
g9
F0.9993
tp780
a(S'noodles'
p781
g12
F0.9957
tp782
a(g332
g336
F0.5184
tp783
a(g68
g336
F0.535
tp784
a(g327
g328
F0.8293
tp785
a(g71
g18
F0.9851
tp786
a(S'okay'
p787
g62
F0.8497
tp788
a(g39
g18
F0.9976
tp789
asI663
(lp790
(S'look'
p791
g6
F0.713
tp792
a(g62
g18
F0.9975
tp793
asI152
(lp794
(S'what'
p795
g3
F0.9171
tp796
a(g39
g18
F0.9924
tp797
asI666
(lp798
(g327
g328
F0.9324
tp799
a(S'two'
p800
g112
F0.9534
tp801
a(S'bites'
p802
g12
F0.8491
tp803
a(g332
g336
F0.5448
tp804
a(g68
g336
F0.5345
tp805
a(g332
g336
F0.9749
tp806
a(g71
g18
F0.7541
tp807
a(g17
g18
F0.9962
tp808
asI155
(lp809
(S'you'
p810
g3
F0.9968
tp811
a(S'should'
p812
g6
F0.9995
tp813
a(S'have'
p814
g6
F0.9995
tp815
a(S'saw'
p816
g6
F0.8304
tp817
a(S'today'
p818
g12
F0.9862
tp819
a(g17
g18
F0.9969
tp820
asI669
(lp821
(g189
g189
F0.9893
tp822
a(g354
g18
F0.8797
tp823
a(S'shoots'
p824
g12
F0.4853
tp825
a(g17
g18
F0.9994
tp826
asI158
(lp827
(S'it'
p828
g3
F0.9956
tp829
a(S'was'
p830
g6
F0.9987
tp831
a(S'pouring'
p832
g6
F0.5821
tp833
a(S'hard'
p834
g194
F0.6781
tp835
a(S'coming'
p836
g6
F0.9538
tp837
a(S'down'
p838
g31
F0.6977
tp839
a(S'hard'
p840
g194
F0.8723
tp841
a(g17
g18
F0.9985
tp842
asI673
(lp843
(S'please'
p844
g6
F0.7885
tp845
a(g39
g18
F0.9975
tp846
asI162
(lp847
(g21
g3
F0.9983
tp848
a(S'was'
p849
g6
F0.9999
tp850
a(S'outside'
p851
g31
F0.5956
tp852
a(g17
g18
F0.9984
tp853
asI165
(lp854
(S'did'
p855
g6
F0.9986
tp856
a(S'you'
p857
g3
F0.9986
tp858
a(S'get'
p859
g6
F0.9999
tp860
a(S'all'
p861
g9
F0.9913
tp862
a(S'wet'
p863
g194
F0.9687
tp864
a(g39
g18
F0.9968
tp865
asI679
(lp866
(S'Mom'
p867
g12
F0.8533
tp868
a(g62
g18
F0.9985
tp869
asI169
(lp870
(S'no'
p871
g62
F0.9847
tp872
a(g62
g18
F0.999
tp873
asI683
(lp874
(S'mm'
p875
g62
F0.5842
tp876
a(g17
g18
F0.9932
tp877
asI172
(lp878
(S'we'
p879
g3
F0.9973
tp880
a(S'had'
p881
g6
F0.9998
tp882
a(S'to'
p883
g15
F0.9587
tp884
a(S'go'
p885
g6
F0.9968
tp886
a(S'zzz'
p887
g333
F0.4486
tp888
a(S'my'
p889
g9
F0.8555
tp890
a(S'zzz'
p891
g12
F0.4684
tp892
a(g17
g18
F0.9984
tp893
asI626
(lp894
(g21
g3
F0.9976
tp895
a(S"don't"
p896
g6
F1.0
tp897
a(S'want'
p898
g6
F0.9991
tp899
a(g17
g18
F0.9979
tp900
asI686
(lp901
(S'one'
p902
g112
F0.864
tp903
a(S'bite'
p904
g12
F0.8939
tp905
a(g17
g18
F0.9986
tp906
asI177
(lp907
(S'zzz'
p908
g62
F0.3756
tp909
a(g17
g18
F0.9972
tp910
asI693
(lp911
(g111
g112
F0.9876
tp912
a(g17
g18
F0.9949
tp913
asI182
(lp914
(g21
g3
F0.9983
tp915
a(S'was'
p916
g6
F0.9999
tp917
a(S'riding'
p918
g6
F0.999
tp919
a(S'my'
p920
g9
F0.999
tp921
a(S'bike'
p922
g12
F0.9924
tp923
a(S'and'
p924
g189
F0.9983
tp925
a(S'then'
p926
g31
F0.9889
tp927
a(S'+'
p928
g189
F0.4432
tp929
a(S'...'
p930
g18
F0.6222
tp931
asI695
(lp932
(S'okay'
p933
g62
F0.7364
tp934
a(S'and'
p935
g189
F0.9978
tp936
a(S'if'
p937
g15
F0.9834
tp938
a(S'it'
p939
g3
F0.997
tp940
a(S'stops'
p941
g6
F0.987
tp942
a(S'rainin(g'
p943
g6
F0.7624
tp944
a(g222
g18
F0.9969
tp945
a(S"I'll"
p946
g28
F0.9806
tp947
a(S'take'
p948
g6
F0.9999
tp949
a(S'you'
p950
g3
F0.9972
tp951
a(S'outside'
p952
g31
F0.7443
tp953
a(S'again'
p954
g31
F0.9932
tp955
a(g17
g18
F0.997
tp956
asI187
(lp957
(S'who'
p958
g3
F0.9946
tp959
a(S'put'
p960
g6
F0.9994
tp961
a(S'your'
p962
g9
F0.9958
tp963
a(S'bike'
p964
g12
F0.9978
tp965
a(S'away'
p966
g31
F0.9834
tp967
a(g39
g18
F0.9975
tp968
asI700
(lp969
(g111
g112
F0.9876
tp970
a(g17
g18
F0.9949
tp971
asI714
(lp972
(S"cat's"
p973
g12
F0.7031
tp974
a(S'going'
p975
g6
F0.9984
tp976
a(S'to'
p977
g15
F0.9864
tp978
a(S'get'
p979
g6
F1.0
tp980
a(S'your'
p981
g9
F0.9945
tp982
a(S'legos'
p983
g12
F0.9193
tp984
a(g17
g18
F0.9989
tp985
asI190
(lp986
(S'me'
p987
g3
F0.9781
tp988
a(g62
g18
F0.9983
tp989
asI194
(lp990
(S'did'
p991
g6
F0.9986
tp992
a(S'you'
p993
g3
F0.9993
tp994
a(S'have'
p995
g6
F0.9999
tp996
a(S'your'
p997
g9
F0.9949
tp998
a(S'bike'
p999
g12
F0.9959
tp1000
a(S'huh'
p1001
g62
F0.7698
tp1002
a(S'Brian'
p1003
g57
F0.9995
tp1004
a(g39
g18
F0.9959
tp1005
asI710
(lp1006
(S"it's"
p1007
g28
F0.9914
tp1008
a(S'magic'
p1009
g194
F0.8844
tp1010
a(g17
g18
F0.997
tp1011
asI199
(lp1012
(S'he'
p1013
g3
F0.996
tp1014
a(S'had'
p1015
g6
F1.0
tp1016
a(S'his'
p1017
g9
F0.9988
tp1018
a(S'big'
p1019
g194
F0.9901
tp1020
a(S'wheel'
p1021
g12
F0.9978
tp1022
a(g17
g18
F0.9977
tp1023
asI202
(lp1024
(S'not'
p1025
g31
F0.9702
tp1026
a(S'my'
p1027
g9
F0.9943
tp1028
a(S'big'
p1029
g194
F0.9939
tp1030
a(S'one'
p1031
g112
F0.8881
tp1032
a(g17
g18
F0.9977
tp1033
asI205
(lp1034
(S'the'
p1035
g9
F0.999
tp1036
a(S'little'
p1037
g194
F0.9974
tp1038
a(S'bike'
p1039
g12
F0.9963
tp1040
a(g39
g18
F0.9982
tp1041
asI718
(lp1042
(g189
g189
F0.9893
tp1043
a(g354
g18
F0.8797
tp1044
a(S'shoots'
p1045
g12
F0.4853
tp1046
a(g17
g18
F0.9994
tp1047
asI719
(lp1048
(g327
g328
F0.9273
tp1049
a(S'one'
p1050
g112
F0.9586
tp1051
a(S'more'
p1052
g31
F0.5136
tp1053
a(S'bite'
p1054
g6
F0.7838
tp1055
a(g332
g336
F0.4758
tp1056
a(g68
g336
F0.535
tp1057
a(g327
g328
F0.7057
tp1058
a(g71
g18
F0.9653
tp1059
a(g62
g18
F0.9975
tp1060
asI209
(lp1061
(S'yeah'
p1062
g62
F0.9986
tp1063
a(g17
g18
F0.997
tp1064
asI722
(lp1065
(g327
g328
F0.9273
tp1066
a(S'one'
p1067
g112
F0.9586
tp1068
a(S'more'
p1069
g31
F0.5136
tp1070
a(S'bite'
p1071
g6
F0.7838
tp1072
a(g332
g336
F0.4758
tp1073
a(g68
g336
F0.535
tp1074
a(g327
g328
F0.7057
tp1075
a(g71
g18
F0.9653
tp1076
a(g62
g18
F0.9975
tp1077
asI212
(lp1078
(S'not'
p1079
g31
F0.9682
tp1080
a(S'the'
p1081
g9
F0.9989
tp1082
a(S'big'
p1083
g194
F0.9863
tp1084
a(S'one'
p1085
g112
F0.7937
tp1086
a(g62
g18
F0.9982
tp1087
asI725
(lp1088
(g111
g112
F0.9876
tp1089
a(g17
g18
F0.9949
tp1090
asI215
(lp1091
(g21
g3
F0.9984
tp1092
a(S'hate'
p1093
g6
F1.0
tp1094
a(S'the'
p1095
g9
F0.9928
tp1096
a(g928
g333
F0.5598
tp1097
a(S'...'
p1098
g328
F0.6673
tp1099
asI548
(lp1100
(S'are'
p1101
g6
F0.9964
tp1102
a(S'you'
p1103
g3
F0.9994
tp1104
a(S'gonna'
p1105
g6
F0.9996
tp1106
a(S'still'
p1107
g31
F0.9936
tp1108
a(S'play'
p1109
g6
F0.995
tp1110
a(S'with'
p1111
g15
F0.9733
tp1112
a(g132
g18
F0.987
tp1113
a(S'th)em'
p1114
g3
F0.6338
tp1115
a(g39
g18
F0.9978
tp1116
asI218
(lp1117
(S'you'
p1118
g3
F0.998
tp1119
a(S'liked'
p1120
g6
F0.9998
tp1121
a(S'that'
p1122
g9
F0.6407
tp1123
a(S'nice'
p1124
g194
F0.9901
tp1125
a(S'black'
p1126
g194
F0.8969
tp1127
a(S'and'
p1128
g189
F0.9971
tp1129
a(S'red'
p1130
g194
F0.9864
tp1131
a(S'bike'
p1132
g12
F0.9899
tp1133
a(S'(.)'
p1134
g336
F0.2637
tp1135
a(g17
g18
F0.9694
tp1136
asI731
(lp1137
(S'freeze'
p1138
g12
F0.5132
tp1139
a(g62
g18
F0.9986
tp1140
asI223
(lp1141
(S'bought'
p1142
g6
F0.9936
tp1143
a(S'you'
p1144
g3
F0.9945
tp1145
a(g105
g9
F0.9961
tp1146
a(S'little'
p1147
g194
F0.9981
tp1148
a(S'basket'
p1149
g12
F0.9984
tp1150
a(S'for'
p1151
g15
F0.9999
tp1152
a(S'it'
p1153
g3
F0.999
tp1154
a(S"didn't"
p1155
g6
F0.9999
tp1156
a(g21
g3
F0.9963
tp1157
a(g39
g18
F0.9952
tp1158
asI229
(lp1159
(S"that's"
p1160
g28
F0.9734
tp1161
a(S'old'
p1162
g194
F0.9993
tp1163
a(g17
g18
F0.9984
tp1164
asI742
(lp1165
(S'that'
p1166
g3
F0.5634
tp1167
a(S"wouldn't"
p1168
g6
F0.9918
tp1169
a(S'be'
p1170
g6
F0.9981
tp1171
a(S'very'
p1172
g31
F0.9986
tp1173
a(S'nice'
p1174
g194
F0.9997
tp1175
a(S'would'
p1176
g6
F0.9948
tp1177
a(S'it'
p1178
g3
F0.9754
tp1179
a(g39
g18
F0.999
tp1180
asI232
(lp1181
(S'nuhhuh'
p1182
g62
F0.4209
tp1183
a(g17
g18
F0.9969
tp1184
asI236
(lp1185
(S'do'
p1186
g6
F0.9985
tp1187
a(S'you'
p1188
g3
F0.9996
tp1189
a(S'want'
p1190
g6
F0.9996
tp1191
a(S'more'
p1192
g194
F0.7534
tp1193
a(S'Sean'
p1194
g57
F0.9963
tp1195
a(g39
g18
F0.9946
tp1196
asI750
(lp1197
(S'zzz'
p1198
g62
F0.3756
tp1199
a(g17
g18
F0.9972
tp1200
asI239
(lp1201
(g21
g3
F0.9978
tp1202
a(S"didn't"
p1203
g6
F1.0
tp1204
a(S'think'
p1205
g6
F0.9992
tp1206
a(S'so'
p1207
g31
F0.9199
tp1208
a(g17
g18
F0.9966
tp1209
asI242
(lp1210
(S'hm'
p1211
g62
F0.9811
tp1212
a(g118
g18
F0.891
tp1213
a(g39
g18
F0.9885
tp1214
asI755
(lp1215
(S'silly'
p1216
g194
F0.9967
tp1217
a(S'kid'
p1218
g12
F0.9883
tp1219
a(g62
g18
F0.9988
tp1220
asI245
(lp1221
(g105
g9
F0.9953
tp1222
a(S'little'
p1223
g194
F0.9942
tp1224
a(g39
g18
F0.9961
tp1225
asI248
(lp1226
(S'no'
p1227
g62
F0.9596
tp1228
a(g39
g18
F0.9962
tp1229
asI251
(lp1230
(S'no'
p1231
g62
F0.9704
tp1232
a(g17
g18
F0.9989
tp1233
asI254
(lp1234
(S'what'
p1235
g3
F0.9898
tp1236
a(S'shall'
p1237
g6
F0.9945
tp1238
a(S'we'
p1239
g3
F0.9899
tp1240
a(S'do'
p1241
g6
F0.9999
tp1242
a(S'this'
p1243
g9
F0.9732
tp1244
a(S'week'
p1245
g12
F0.9803
tp1246
a(S'end'
p1247
g12
F0.7371
tp1248
a(S'Fourth'
p1249
g12
F0.6753
tp1250
a(S'of'
p1251
g15
F0.9981
tp1252
a(S'July'
p1253
g57
F0.999
tp1254
a(g39
g18
F0.9956
tp1255
asI259
(lp1256
(S'well'
p1257
g62
F0.9013
tp1258
a(S'[/]'
p1259
g18
F0.2979
tp1260
a(g17
g18
F0.996
tp1261
asI262
(lp1262
(g132
g18
F0.9767
tp1263
a(S'when'
p1264
g31
F0.9385
tp1265
a(g222
g18
F0.9099
tp1266
a(g68
g18
F0.9813
tp1267
a(g39
g18
F0.9841
tp1268
a(g71
g18
F0.8668
tp1269
a(S'the'
p1270
g9
F0.9859
tp1271
a(S'xxx'
p1272
g12
F0.5188
tp1273
a(S'[='
p1274
g336
F0.9225
tp1275
a(S'taperecorder'
p1276
g12
F0.372
tp1277
a(g71
g18
F0.9939
tp1278
a(S'gonna'
p1279
g6
F0.9963
tp1280
a(S'come'
p1281
g6
F0.9995
tp1282
a(S'on'
p1283
g15
F0.5646
tp1284
a(g17
g18
F0.9972
tp1285
asI266
(lp1286
(S'this'
p1287
g3
F0.9526
tp1288
a(S'is'
p1289
g6
F0.9989
tp1290
a(S'the'
p1291
g9
F0.9994
tp1292
a(S'first'
p1293
g194
F0.9043
tp1294
a(g17
g18
F0.9987
tp1295
asI727
(lp1296
(S'no'
p1297
g62
F0.9596
tp1298
a(g39
g18
F0.9962
tp1299
asI269
(lp1300
(S"it's"
p1301
g28
F0.9984
tp1302
a(S'not'
p1303
g31
F0.9969
tp1304
a(S'going'
p1305
g6
F0.9994
tp1306
a(S'to'
p1307
g15
F0.9818
tp1308
a(S'come'
p1309
g6
F0.9995
tp1310
a(S'on'
p1311
g15
F0.8148
tp1312
a(S"it's"
p1313
g28
F0.9858
tp1314
a(S'going'
p1315
g6
F0.9933
tp1316
a(S'to'
p1317
g15
F0.9825
tp1318
a(S'listen'
p1319
g6
F0.9998
tp1320
a(S'to'
p1321
g15
F0.9936
tp1322
a(S'us'
p1323
g3
F0.912
tp1324
a(S'Brian'
p1325
g57
F0.9984
tp1326
a(g17
g18
F0.9971
tp1327
asI276
(lp1328
(S'me'
p1329
g3
F0.985
tp1330
a(g39
g18
F0.9978
tp1331
asI670
(lp1332
(S'you'
p1333
g3
F0.9969
tp1334
a(S'can'
p1335
g6
F0.9998
tp1336
a(S'finish'
p1337
g6
F0.9993
tp1338
a(S'that'
p1339
g3
F0.7081
tp1340
a(S'for'
p1341
g15
F0.9977
tp1342
a(S'me'
p1343
g3
F0.9979
tp1344
a(g39
g18
F0.9983
tp1345
asI280
(lp1346
(S"today's"
p1347
S'S'
p1348
F0.9033
tp1349
a(S'the'
p1350
g9
F0.999
tp1351
a(S'fir(st'
p1352
g194
F0.875
tp1353
a(g222
g18
F0.9938
tp1354
a(S'[///]'
p1355
g18
F0.3859
tp1356
a(S"it's"
p1357
g28
F0.9972
tp1358
a(S'listening'
p1359
g6
F0.9932
tp1360
a(S'to'
p1361
g15
F0.9963
tp1362
a(S'us'
p1363
g3
F0.9603
tp1364
a(g68
g18
F0.9858
tp1365
a(g62
g18
F0.9901
tp1366
a(g71
g18
F0.9773
tp1367
a(S'okay'
p1368
g62
F0.7609
tp1369
a(S'(.)'
p1370
g57
F0.4378
tp1371
a(g39
g18
F0.9949
tp1372
asI286
(lp1373
(S"it's"
p1374
g28
F0.9984
tp1375
a(S'not'
p1376
g31
F0.9955
tp1377
a(S'playing'
p1378
g6
F0.9974
tp1379
a(g68
g18
F0.9885
tp1380
a(g62
g18
F0.9901
tp1381
a(g71
g18
F0.9821
tp1382
a(S'you'
p1383
g3
F0.9725
tp1384
a(g105
g9
F0.9975
tp1385
a(S'song'
p1386
g12
F0.9996
tp1387
a(g17
g18
F0.9983
tp1388
asI291
(lp1389
(S'Brian'
p1390
g57
F0.9959
tp1391
a(g327
g328
F0.4318
tp1392
a(S'tomorrow'
p1393
g12
F0.9789
tp1394
a(S'is'
p1395
g6
F0.9953
tp1396
a(g332
g18
F0.2634
tp1397
a(S'[//]'
p1398
g18
F0.2162
tp1399
a(S"today's"
p1400
g1348
F0.8659
tp1401
a(S'the'
p1402
g9
F0.9989
tp1403
a(S'first'
p1404
g194
F0.8711
tp1405
a(S'of'
p1406
g15
F0.9986
tp1407
a(S'July'
p1408
g57
F0.9986
tp1409
a(g17
g18
F0.9928
tp1410
asI296
(lp1411
(S'tomorrow'
p1412
g12
F0.9841
tp1413
a(S'is'
p1414
g6
F0.9976
tp1415
a(S'the'
p1416
g9
F0.9994
tp1417
a(S'second'
p1418
g194
F0.504
tp1419
a(g17
g18
F0.9987
tp1420
asI299
(lp1421
(S'and'
p1422
g189
F0.9987
tp1423
a(S'then'
p1424
g31
F0.9739
tp1425
a(S"Sunday's"
p1426
S'Z'
p1427
F0.7123
tp1428
a(S'the'
p1429
g9
F0.9993
tp1430
a(S'third'
p1431
g194
F0.9691
tp1432
a(S'and'
p1433
g189
F0.9981
tp1434
a(S'then'
p1435
g31
F0.9727
tp1436
a(S'Monday'
p1437
g57
F0.9873
tp1438
a(g68
g18
F0.9843
tp1439
a(g62
g18
F0.9901
tp1440
a(g71
g18
F0.9571
tp1441
a(S'Brian'
p1442
g57
F0.9943
tp1443
a(S'we'
p1444
g3
F0.9022
tp1445
a(S'light'
p1446
g6
F0.8413
tp1447
a(S'off'
p1448
g170
F0.601
tp1449
a(S'firecrackers'
p1450
g12
F0.9904
tp1451
a(S'at'
p1452
g15
F0.9992
tp1453
a(S'night'
p1454
g12
F0.9475
tp1455
a(g928
g189
F0.4165
tp1456
a(S'...'
p1457
g328
F0.6467
tp1458
asI760
(lp1459
(S'ow'
p1460
g62
F0.9684
tp1461
a(g17
g18
F0.9969
tp1462
asI306
(lp1463
(S'what'
p1464
g3
F0.9931
tp1465
a(S'do'
p1466
g6
F0.9993
tp1467
a(S'you'
p1468
g3
F0.9997
tp1469
a(S'have'
p1470
g6
F0.9996
tp1471
a(S'some'
p1472
g9
F0.998
tp1473
a(S'firecrackers'
p1474
g12
F0.9832
tp1475
a(g39
g18
F0.9984
tp1476
asI310
(lp1477
(S'me'
p1478
g3
F0.985
tp1479
a(g39
g18
F0.9978
tp1480
asI313
(lp1481
(S'yeah'
p1482
g62
F0.9994
tp1483
a(g62
g18
F0.9967
tp1484
asI735
(lp1485
(S'wan(t'
p1486
g6
F0.9557
tp1487
a(g222
g18
F0.9916
tp1488
a(g21
g3
F0.9963
tp1489
a(S'put'
p1490
g6
F0.9994
tp1491
a(g105
g9
F0.9984
tp1492
a(S'cap'
p1493
g12
F0.9973
tp1494
a(S'in'
p1495
g15
F0.9982
tp1496
a(S'this'
p1497
g3
F0.8059
tp1498
a(S'and'
p1499
g189
F0.9973
tp1500
a(S'shoot'
p1501
g6
F0.9736
tp1502
a(S'you'
p1503
g3
F0.9969
tp1504
a(g39
g18
F0.9991
tp1505
asI316
(lp1506
(S'yeah'
p1507
g62
F0.9986
tp1508
a(g17
g18
F0.997
tp1509
asI319
(lp1510
(S'zzz'
p1511
g62
F0.3756
tp1512
a(g17
g18
F0.9972
tp1513
asI323
(lp1514
(g21
g3
F0.9957
tp1515
a(S'hope'
p1516
g6
F0.9998
tp1517
a(S'you'
p1518
g3
F0.9995
tp1519
a(S"don't"
p1520
g6
F0.9999
tp1521
a(g17
g18
F0.9971
tp1522
asI326
(lp1523
(g327
g328
F0.874
tp1524
a(S'up'
p1525
g170
F0.6879
tp1526
a(S'there'
p1527
g31
F0.71
tp1528
a(g332
g336
F0.5737
tp1529
a(g68
g336
F0.5345
tp1530
a(g332
g336
F0.9749
tp1531
a(g71
g18
F0.7541
tp1532
a(g17
g18
F0.9962
tp1533
asI329
(lp1534
(S'xxx'
p1535
g336
F0.8981
tp1536
a(g68
g18
F0.6622
tp1537
a(g327
g328
F0.972
tp1538
a(g71
g18
F0.9847
tp1539
a(g17
g18
F0.9962
tp1540
asI330
(lp1541
(S'up'
p1542
g170
F0.7394
tp1543
a(S'there'
p1544
g31
F0.5715
tp1545
a(S'(.)'
p1546
g333
F0.2062
tp1547
a(g17
g18
F0.9919
tp1548
asI333
(lp1549
(S'and'
p1550
g189
F0.998
tp1551
a(S'one'
p1552
g112
F0.9297
tp1553
a(g928
g189
F0.4735
tp1554
a(S'...'
p1555
g18
F0.675
tp1556
asI336
(lp1557
(g21
g3
F0.9983
tp1558
a(S'have'
p1559
g6
F0.9999
tp1560
a(S'some'
p1561
g9
F0.879
tp1562
a(S'of'
p1563
g15
F0.9964
tp1564
a(S'those'
p1565
g9
F0.7114
tp1566
a(S'snap'
p1567
g12
F0.6213
tp1568
a(S'things'
p1569
g12
F0.9957
tp1570
a(S'that'
p1571
g15
F0.9917
tp1572
a(S'you'
p1573
g3
F0.9994
tp1574
a(S'throw'
p1575
g6
F0.9922
tp1576
a(S'on'
p1577
g15
F0.9147
tp1578
a(S'the'
p1579
g9
F0.9995
tp1580
a(S'ground'
p1581
g12
F0.887
tp1582
a(g17
g18
F0.9994
tp1583
asI341
(lp1584
(S'yeah'
p1585
g62
F0.9973
tp1586
a(S"they're"
p1587
g28
F0.9387
tp1588
a(S'right'
p1589
g31
F0.574
tp1590
a(S'up'
p1591
g170
F0.4895
tp1592
a(S'there'
p1593
g31
F0.8032
tp1594
a(g68
g18
F0.984
tp1595
a(g332
g336
F0.5886
tp1596
a(g71
g18
F0.8062
tp1597
a(g17
g18
F0.9969
tp1598
asI344
(lp1599
(g327
g328
F0.9262
tp1600
a(S"they're>"
p1601
g28
F0.4765
tp1602
a(g68
g18
F0.9656
tp1603
a(g327
g328
F0.9566
tp1604
a(g71
g18
F0.989
tp1605
a(S'not'
p1606
g31
F0.9613
tp1607
a(S'firecrackers'
p1608
g12
F0.8921
tp1609
a(S'though'
p1610
g15
F0.9586
tp1611
a(S'(.)'
p1612
g57
F0.479
tp1613
a(g17
g18
F0.9933
tp1614
asI608
(lp1615
(S'oh'
p1616
g62
F0.9949
tp1617
a(S'Brian'
p1618
g57
F0.9972
tp1619
a(g62
g18
F0.9893
tp1620
asI348
(lp1621
(S'alright'
p1622
g62
F0.9792
tp1623
a(g39
g18
F0.9969
tp1624
asI351
(lp1625
(S'can'
p1626
g6
F0.9938
tp1627
a(g21
g3
F0.9994
tp1628
a(S'have'
p1629
g6
F1.0
tp1630
a(g105
g9
F0.9899
tp1631
a(S'bite'
p1632
g12
F0.9164
tp1633
a(S'Brian'
p1634
g57
F0.9974
tp1635
a(g39
g18
F0.9957
tp1636
asI355
(lp1637
(g21
g3
F0.9976
tp1638
a(S"don't"
p1639
g6
F1.0
tp1640
a(S'know'
p1641
g6
F0.9996
tp1642
a(S'what'
p1643
g3
F0.9904
tp1644
a(S'else'
p1645
g31
F0.8999
tp1646
a(S"we're"
p1647
g28
F0.9036
tp1648
a(S'going'
p1649
g6
F0.9941
tp1650
a(S'to'
p1651
g15
F0.8893
tp1652
a(S'do'
p1653
g6
F0.9987
tp1654
a(g17
g18
F0.9972
tp1655
asI360
(lp1656
(S'maybe'
p1657
g31
F0.9792
tp1658
a(S"we'll"
p1659
g28
F0.9602
tp1660
a(S'get'
p1661
g6
F0.9998
tp1662
a(S'to'
p1663
g15
F0.9698
tp1664
a(S'go'
p1665
g6
F0.9968
tp1666
a(S'boating'
p1667
g12
F0.7655
tp1668
a(S'again'
p1669
g31
F0.9657
tp1670
a(S'(.)'
p1671
g57
F0.2936
tp1672
a(g17
g18
F0.9959
tp1673
asI366
(lp1674
(S'did'
p1675
g6
F0.9642
tp1676
a(S'&-uh'
p1677
g62
F0.8278
tp1678
a(S'did'
p1679
g6
F0.9988
tp1680
a(S'you'
p1681
g3
F0.9982
tp1682
a(S'look'
p1683
g6
F0.9961
tp1684
a(S'at'
p1685
g15
F0.9994
tp1686
a(S'any'
p1687
g9
F0.9499
tp1688
a(S'of'
p1689
g15
F0.9985
tp1690
a(S'the'
p1691
g9
F0.9996
tp1692
a(S'books'
p1693
g12
F0.9828
tp1694
a(S'from'
p1695
g15
F0.9999
tp1696
a(S'the'
p1697
g9
F0.9989
tp1698
a(S'library'
p1699
g12
F0.9931
tp1700
a(S'today'
p1701
g12
F0.9951
tp1702
a(g39
g18
F0.9977
tp1703
asI372
(lp1704
(S'no'
p1705
g62
F0.9704
tp1706
a(g17
g18
F0.9989
tp1707
asI376
(lp1708
(S'but'
p1709
g189
F0.993
tp1710
a(S'you'
p1711
g3
F0.9995
tp1712
a(S'have_to'
p1713
g6
F0.9993
tp1714
a(S'take'
p1715
g6
F0.9999
tp1716
a(S'them'
p1717
g3
F0.8824
tp1718
a(S'back'
p1719
g31
F0.9284
tp1720
a(S'y(ou'
p1721
g3
F0.7868
tp1722
a(g222
g18
F0.9911
tp1723
a(S'know'
p1724
g6
F0.9436
tp1725
a(g17
g18
F0.9979
tp1726
asI660
(lp1727
(S'two'
p1728
g112
F0.9668
tp1729
a(S'bites'
p1730
g12
F0.9168
tp1731
a(g17
g18
F0.999
tp1732
asI381
(lp1733
(S'well'
p1734
g62
F0.8747
tp1735
a(g21
g3
F0.9994
tp1736
a(S"don't"
p1737
g6
F1.0
tp1738
a(S'care'
p1739
g6
F0.9439
tp1740
a(g17
g18
F0.9964
tp1741
asI384
(lp1742
(S'today'
p1743
g12
F0.992
tp1744
a(g39
g18
F0.9973
tp1745
asI388
(lp1746
(S'not'
p1747
g31
F0.9977
tp1748
a(S'yet'
p1749
g31
F0.9738
tp1750
a(S'but'
p1751
g189
F0.9863
tp1752
a(S'we'
p1753
g3
F0.9742
tp1754
a(S'better'
p1755
g31
F0.8101
tp1756
a(S'start'
p1757
g6
F0.9816
tp1758
a(S'readin(g'
p1759
g6
F0.5915
tp1760
a(g222
g18
F0.9377
tp1761
a(g132
g18
F0.985
tp1762
a(S'th)em'
p1763
g3
F0.6088
tp1764
a(g17
g18
F0.9979
tp1765
asI748
(lp1766
(g111
g112
F0.9876
tp1767
a(g17
g18
F0.9949
tp1768
asI394
(lp1769
(S'maybe'
p1770
g31
F0.9835
tp1771
a(S'after'
p1772
g15
F0.9532
tp1773
a(S'dinner'
p1774
g12
F0.9663
tp1775
a(S'we'
p1776
g3
F0.9885
tp1777
a(S'can'
p1778
g6
F0.9998
tp1779
a(S'do'
p1780
g6
F0.9999
tp1781
a(S'another'
p1782
g9
F0.991
tp1783
a(S'one'
p1784
g112
F0.9111
tp1785
a(S'(.)'
p1786
g336
F0.3598
tp1787
a(g39
g18
F0.9751
tp1788
asI400
(lp1789
(S'huh'
p1790
g62
F0.9936
tp1791
a(g39
g18
F0.9967
tp1792
asI404
(lp1793
(S'me'
p1794
g3
F0.985
tp1795
a(g39
g18
F0.9978
tp1796
asI408
(lp1797
(S'one'
p1798
g112
F0.9869
tp1799
a(S'of'
p1800
g15
F0.9994
tp1801
a(S'the'
p1802
g9
F0.9996
tp1803
a(S'books'
p1804
g12
F0.9789
tp1805
a(S'that'
p1806
g15
F0.9888
tp1807
a(S'you'
p1808
g3
F0.9997
tp1809
a(S'brought'
p1810
g6
F0.9984
tp1811
a(S'maybe'
p1812
g31
F0.9629
tp1813
a(S'Brian'
p1814
g57
F0.9988
tp1815
a(S'and'
p1816
g189
F0.9987
tp1817
a(S'then'
p1818
g31
F0.9736
tp1819
a(S'another'
p1820
g9
F0.963
tp1821
a(S'one'
p1822
g112
F0.9372
tp1823
a(S'that'
p1824
g15
F0.8352
tp1825
a(S'Sean'
p1826
g57
F0.9988
tp1827
a(S'got'
p1828
g6
F0.969
tp1829
a(g17
g18
F0.991
tp1830
asI415
(lp1831
(S'then'
p1832
g31
F0.9877
tp1833
a(S"we'll"
p1834
g28
F0.9642
tp1835
a(S'do'
p1836
g6
F0.9999
tp1837
a(S'another'
p1838
g9
F0.9902
tp1839
a(S'one'
p1840
g112
F0.9152
tp1841
a(S'then'
p1842
g31
F0.9402
tp1843
a(g21
g3
F0.999
tp1844
a(S'got'
p1845
g6
F0.9991
tp1846
a(S'and'
p1847
g189
F0.9974
tp1848
a(S'then'
p1849
g31
F0.9799
tp1850
a(S'Sean'
p1851
g57
F0.9968
tp1852
a(S'then'
p1853
g31
F0.9706
tp1854
a(g327
g328
F0.7999
tp1855
a(S'me'
p1856
g3
F0.9962
tp1857
a(S'[/]'
p1858
g18
F0.4848
tp1859
a(S'me'
p1860
g3
F0.997
tp1861
a(S'then'
p1862
g31
F0.994
tp1863
a(g332
g333
F0.3522
tp1864
a(S'[/]'
p1865
g333
F0.3247
tp1866
a(g68
g18
F0.9142
tp1867
a(g332
g336
F0.3965
tp1868
a(g71
g18
F0.7871
tp1869
a(g17
g18
F0.9937
tp1870
asI421
(lp1871
(g327
g328
F0.9409
tp1872
a(S'Sean'
p1873
g57
F0.9955
tp1874
a(S'when'
p1875
g31
F0.979
tp1876
a(S'we'
p1877
g3
F0.9966
tp1878
a(g332
g336
F0.4051
tp1879
a(g68
g336
F0.535
tp1880
a(g327
g328
F0.8293
tp1881
a(g71
g18
F0.9822
tp1882
a(S'have'
p1883
g6
F0.987
tp1884
a(S'time'
p1885
g12
F0.9925
tp1886
a(S'we'
p1887
g3
F0.9889
tp1888
a(S"didn't"
p1889
g6
F1.0
tp1890
a(S'take'
p1891
g6
F0.9997
tp1892
a(S'that'
p1893
g9
F0.7833
tp1894
a(S'many'
p1895
g194
F0.8064
tp1896
a(S'out'
p1897
g170
F0.4315
tp1898
a(g17
g18
F0.9975
tp1899
asI426
(lp1900
(S'we'
p1901
g3
F0.9973
tp1902
a(S'have'
p1903
g6
F0.9987
tp1904
a(S'enough'
p1905
g12
F0.781
tp1906
a(g17
g18
F0.9991
tp1907
asI430
(lp1908
(S'is'
p1909
g6
F0.9993
tp1910
a(S'it'
p1911
g3
F0.9991
tp1912
a(S'raining'
p1913
g6
F0.9957
tp1914
a(g39
g18
F0.9988
tp1915
asI433
(lp1916
(S'is'
p1917
g6
F0.9993
tp1918
a(S'it'
p1919
g3
F0.999
tp1920
a(S'raining'
p1921
g6
F0.9998
tp1922
a(S'out'
p1923
g170
F0.8944
tp1924
a(g39
g18
F0.9977
tp1925
asI437
(lp1926
(S'oh'
p1927
g62
F0.9984
tp1928
a(g17
g18
F0.9938
tp1929
asI440
(lp1930
(S'oh'
p1931
g62
F0.9984
tp1932
a(g17
g18
F0.9938
tp1933
asI443
(lp1934
(S'Sean'
p1935
g57
F0.9969
tp1936
a(S'are'
p1937
g6
F0.998
tp1938
a(S'you'
p1939
g3
F0.9996
tp1940
a(S'done'
p1941
g6
F0.9939
tp1942
a(S'eating'
p1943
g6
F0.9786
tp1944
a(g39
g18
F0.9961
tp1945
asI446
(lp1946
(S'yeah'
p1947
g62
F0.9986
tp1948
a(g17
g18
F0.997
tp1949
asI449
(lp1950
(S'can'
p1951
g6
F0.9938
tp1952
a(g21
g3
F0.9989
tp1953
a(S'go'
p1954
g6
F0.9999
tp1955
a(S'out'
p1956
g170
F0.5404
tp1957
a(S'(.)'
p1958
g57
F0.4226
tp1959
a(g39
g18
F0.9934
tp1960
asI452
(lp1961
(S'you'
p1962
g3
F0.998
tp1963
a(S'want'
p1964
g6
F0.9999
tp1965
a(S'some'
p1966
g9
F0.9867
tp1967
a(S'applesauce'
p1968
g12
F0.9407
tp1969
a(S'or'
p1970
g189
F0.991
tp1971
a(S'somethin(g'
p1972
g12
F0.9965
tp1973
a(g222
g18
F0.9788
tp1974
a(g39
g18
F0.9966
tp1975
asI456
(lp1976
(S'no'
p1977
g62
F0.9596
tp1978
a(g39
g18
F0.9962
tp1979
asI459
(lp1980
(S'dessert'
p1981
g12
F0.9626
tp1982
a(g39
g18
F0.9966
tp1983
asI462
(lp1984
(S'you'
p1985
g3
F0.998
tp1986
a(S'wan(t'
p1987
g6
F0.9988
tp1988
a(g222
g18
F0.9323
tp1989
a(g132
g18
F0.9591
tp1990
a(S't)a'
p1991
g15
F0.6516
tp1992
a(S'wait'
p1993
g6
F0.9128
tp1994
a(g132
g18
F0.988
tp1995
a(S'un)til'
p1996
g15
F0.9866
tp1997
a(S'later'
p1998
g31
F0.9207
tp1999
a(g39
g18
F0.9976
tp2000
asI465
(lp2001
(S'can'
p2002
g6
F0.9922
tp2003
a(g21
g3
F0.997
tp2004
a(g39
g18
F0.9952
tp2005
asI468
(lp2006
(S'is'
p2007
g6
F0.9993
tp2008
a(S'it'
p2009
g3
F0.999
tp2010
a(S'raining'
p2011
g6
F0.9997
tp2012
a(S'outside'
p2013
g31
F0.3836
tp2014
a(g39
g18
F0.9985
tp2015
asI471
(lp2016
(S'oh'
p2017
g62
F0.9984
tp2018
a(g17
g18
F0.9938
tp2019
asI474
(lp2020
(S'no'
p2021
g62
F0.9704
tp2022
a(g17
g18
F0.9989
tp2023
asI477
(lp2024
(S"doesn't"
p2025
g6
F0.9858
tp2026
a(S'look'
p2027
g6
F0.9996
tp2028
a(S'it'
p2029
g3
F0.9952
tp2030
a(g17
g18
F0.999
tp2031
asI677
(lp2032
(g111
g112
F0.9876
tp2033
a(g17
g18
F0.9949
tp2034
asI480
(lp2035
(S'okay'
p2036
g62
F0.9741
tp2037
a(g17
g18
F0.9977
tp2038
asI592
(lp2039
(g327
g328
F0.8896
tp2040
a(S'and'
p2041
g189
F0.9988
tp2042
a(S'then'
p2043
g31
F0.9875
tp2044
a(S'finish'
p2045
g6
F0.9471
tp2046
a(S'and'
p2047
g189
F0.9959
tp2048
a(S'then'
p2049
g31
F0.9856
tp2050
a(S'play'
p2051
g6
F0.976
tp2052
a(S'>[>'
p2053
g336
F0.2598
tp2054
a(g71
g18
F0.7886
tp2055
a(g62
g18
F0.9965
tp2056
asI483
(lp2057
(S'can'
p2058
g6
F0.9922
tp2059
a(g21
g3
F0.997
tp2060
a(g39
g18
F0.9952
tp2061
asI487
(lp2062
(S'your'
p2063
g9
F0.9783
tp2064
a(S"plate's"
p2065
g12
F0.6643
tp2066
a(S'full'
p2067
g194
F0.7345
tp2068
a(S"you'll"
p2069
g28
F0.9839
tp2070
a(S'have_to'
p2071
g6
F0.9997
tp2072
a(S'wait'
p2073
g6
F0.993
tp2074
a(g132
g18
F0.988
tp2075
a(S'un)til'
p2076
g15
F0.9971
tp2077
a(S'we'
p2078
g3
F0.9991
tp2079
a(S'eat'
p2080
g6
F0.9972
tp2081
a(S'supper'
p2082
g12
F0.9586
tp2083
a(S'and'
p2084
g189
F0.9976
tp2085
a(S'then'
p2086
g31
F0.9839
tp2087
a(S'you'
p2088
g3
F0.9995
tp2089
a(S'can'
p2090
g6
F0.9996
tp2091
a(S'go'
p2092
g6
F0.9998
tp2093
a(S'out'
p2094
g170
F0.5668
tp2095
a(g17
g18
F0.9986
tp2096
asI494
(lp2097
(g21
g3
F0.9976
tp2098
a(S"don't"
p2099
g6
F1.0
tp2100
a(S'want'
p2101
g6
F0.9999
tp2102
a(S'mine'
p2103
g3
F0.8853
tp2104
a(g17
g18
F0.9972
tp2105
asI497
(lp2106
(S'Brian'
p2107
g57
F0.9789
tp2108
a(S'you'
p2109
g3
F0.9967
tp2110
a(S'finish'
p2111
g6
F0.9977
tp2112
a(S'first'
p2113
g194
F0.7354
tp2114
a(g17
g18
F0.9987
tp2115
asI500
(lp2116
(S"you're"
p2117
g28
F0.9925
tp2118
a(S'almost'
p2119
g31
F0.9928
tp2120
a(S'done'
p2121
g6
F0.9625
tp2122
a(g17
g18
F0.999
tp2123
asI503
(lp2124
(S'oh'
p2125
g62
F0.9984
tp2126
a(g17
g18
F0.9938
tp2127
asI507
(lp2128
(S'is'
p2129
g6
F0.9983
tp2130
a(S'this'
p2131
g3
F0.7067
tp2132
a(g105
g9
F0.9921
tp2133
a(S'cap'
p2134
g12
F0.9929
tp2135
a(S'gun'
p2136
g12
F0.9559
tp2137
a(g39
g18
F0.9977
tp2138
asI511
(lp2139
(S'mhm'
p2140
g62
F0.9761
tp2141
a(g17
g18
F0.9962
tp2142
as.