(dp0
I0
(lp1
(S'thank'
p2
S'V'
p3
F0.9661
tp4
a(S'you'
p5
S'O'
p6
F0.9993
tp7
a(S'for'
p8
S'P'
p9
F0.9985
tp10
a(S'our'
p11
S'D'
p12
F0.9972
tp13
a(S'food'
p14
S'N'
p15
F0.9912
tp16
a(S'amen'
p17
S'!'
p18
F0.7033
tp19
asI1
(lp20
(S'thank'
p21
g3
F0.9661
tp22
a(S'you'
p23
g6
F0.9993
tp24
a(S'for'
p25
g9
F0.9985
tp26
a(S'our'
p27
g12
F0.9972
tp28
a(S'food'
p29
g15
F0.9912
tp30
a(S'amen'
p31
g18
F0.7033
tp32
asI2
(lp33
(S'time'
p34
g15
F0.9842
tp35
a(S'to'
p36
g9
F0.9988
tp37
a(S'eat'
p38
g3
F0.9924
tp39
asI3
(lp40
(S'it'
p41
g6
F0.9956
tp42
a(S'was'
p43
g3
F0.9984
tp44
a(S'gonna'
p45
g3
F0.9875
tp46
a(S'come'
p47
g3
F0.9991
tp48
a(S'on'
p49
S'T'
p50
F0.6227
tp51
asI4
(lp52
(S'mhm'
p53
g18
F0.9747
tp54
asI5
(lp55
(S'god'
p56
S'^'
p57
F0.948
tp58
a(S'is'
p59
g3
F0.9974
tp60
a(S'good'
p61
S'A'
p62
F0.9971
tp63
a(S'god'
p64
g57
F0.637
tp65
a(S'is'
p66
g3
F0.9962
tp67
a(S'great'
p68
g62
F0.9969
tp69
a(S'thank'
p70
g3
F0.624
tp71
a(S'him'
p72
g6
F0.9951
tp73
a(S'for'
p74
g9
F0.9994
tp75
a(S'our'
p76
g12
F0.997
tp77
a(S'food'
p78
g15
F0.9949
tp79
asI6
(lp80
(S'amen'
p81
g18
F0.9835
tp82
asI7
(lp83
(S'hm'
p84
g18
F0.995
tp85
asI8
(lp86
(S'amen'
p87
g18
F0.9835
tp88
asI9
(lp89
(S'mhm'
p90
g18
F0.9747
tp91
asI10
(lp92
(S'did'
p93
g3
F0.9986
tp94
a(S'you'
p95
g6
F0.9993
tp96
a(S'have'
p97
g3
F0.9972
tp98
a(S'fun'
p99
g15
F0.842
tp100
a(S'today'
p101
g15
F0.9808
tp102
asI11
(lp103
(S'hm'
p104
g18
F0.995
tp105
asI12
(lp106
(S'did'
p107
g3
F0.9986
tp108
a(S'you'
p109
g6
F0.9993
tp110
a(S'have'
p111
g3
F0.9977
tp112
a(S'fun'
p113
g15
F0.9351
tp114
a(S'at'
p115
g9
F0.9998
tp116
a(S'the'
p117
g12
F0.9989
tp118
a(S'clinic'
p119
g15
F0.9043
tp120
asI13
(lp121
(S'uhhum'
p122
g18
F0.9859
tp123
asI14
(lp124
(S'what'
p125
g6
F0.9965
tp126
a(S'did'
p127
g3
F0.9994
tp128
a(S'you'
p129
g6
F0.9979
tp130
a(S'like'
p131
g3
F0.7563
tp132
a(S'about'
p133
g9
F0.9554
tp134
a(S'it'
p135
g6
F0.999
tp136
asI15
(lp137
(S'nothing'
p138
g15
F0.9678
tp139
asI16
(lp140
(S'i'
p141
g6
F0.9893
tp142
a(S'thought'
p143
g3
F0.9998
tp144
a(S'you'
p145
g6
F0.9995
tp146
a(S'said'
p147
g3
F0.9998
tp148
a(S'you'
p149
g6
F0.9992
tp150
a(S'liked'
p151
g3
F0.9999
tp152
a(S'it'
p153
g6
F0.9901
tp154
asI17
(lp155
(g141
g6
F0.9896
tp156
a(S'told'
p157
g3
F1.0
tp158
a(S'you'
p159
g6
F0.9977
tp160
asI18
(lp161
(S'hm'
p162
g18
F0.995
tp163
asI19
(lp164
(g141
g6
F0.9896
tp165
a(S'told'
p166
g3
F1.0
tp167
a(S'you'
p168
g6
F0.9977
tp169
asI20
(lp170
(S'no'
p171
g18
F0.6766
tp172
a(S'and'
p173
S'&'
p174
F0.9959
tp175
a(g141
g6
F0.9852
tp176
a(S'm'
p177
g3
F0.9746
tp178
a(S'asking'
p179
g3
F0.9996
tp180
a(S'you'
p181
g6
F0.9987
tp182
asI21
(lp183
(S'nothing'
p184
g15
F0.9678
tp185
asI22
(lp186
(S'you'
p187
g6
F0.9971
tp188
a(S'was'
p189
g3
F0.9999
tp190
a(S'a'
p191
g12
F0.9989
tp192
a(S'brave'
p193
g62
F0.9996
tp194
a(S'girl'
p195
g15
F0.996
tp196
a(S'today'
p197
g15
F0.9903
tp198
a(S'huh'
p199
g18
F0.9475
tp200
asI23
(lp201
(g141
g6
F0.9635
tp202
a(S'don'
p203
g3
F0.9231
tp204
a(S't'
p205
g15
F0.2503
tp206
a(S'want'
p207
g3
F0.9987
tp208
a(S'this'
p209
g12
F0.9596
tp210
a(S'ice'
p211
g15
F0.8926
tp212
a(S'xxx'
p213
S'E'
p214
F0.8152
tp215
asI24
(lp216
(S'just'
p217
S'R'
p218
F0.9991
tp219
a(S'leave'
p220
g3
F0.9994
tp221
a(S'it'
p222
g6
F0.9907
tp223
a(S'in'
p224
g9
F0.9123
tp225
a(S'there'
p226
g218
F0.551
tp227
a(S'it'
p228
g6
F0.9933
tp229
a(S'll'
p230
g218
F0.4204
tp231
a(S'keep'
p232
g3
F0.9973
tp233
a(S'the'
p234
g12
F0.9994
tp235
a(S'tonic'
p236
g15
F0.9865
tp237
a(S'cold'
p238
g62
F0.9581
tp239
asI25
(lp240
(g141
g6
F0.9873
tp241
a(S'can'
p242
g3
F0.9996
tp243
a(g205
g3
F0.7034
tp244
a(S'get'
p245
g3
F0.9985
tp246
a(S'the'
p247
g12
F0.9972
tp248
a(g141
g6
F0.9359
tp249
a(S'can'
p250
g3
F0.9996
tp251
a(g205
g3
F0.687
tp252
a(S'get'
p253
g3
F0.9985
tp254
a(S'the'
p255
g12
F0.9993
tp256
a(S'tonic'
p257
g15
F0.9955
tp258
asI26
(lp259
(S'here'
p260
g218
F0.9505
tp261
a(S'put'
p262
g3
F0.9688
tp263
a(S'it'
p264
g6
F0.9776
tp265
a(S'in'
p266
g9
F0.9659
tp267
a(S'your'
p268
g12
F0.9919
tp269
a(S'cup'
p270
g15
F0.9954
tp271
asI27
(lp272
(S'thank'
p273
g3
F0.9631
tp274
a(S'you'
p275
g6
F0.9987
tp276
asI28
(lp277
(S'welcome'
p278
g18
F0.7727
tp279
asI29
(lp280
(S'taste'
p281
g3
F0.808
tp282
a(S'good'
p283
g62
F0.9976
tp284
asI30
(lp285
(S'did'
p286
g3
F0.9986
tp287
a(S'you'
p288
g6
F0.9993
tp289
a(S'have'
p290
g3
F0.9977
tp291
a(S'fun'
p292
g15
F0.9351
tp293
a(S'at'
p294
g9
F0.9992
tp295
a(S'auntie'
p296
g15
F0.529
tp297
a(S'vi'
p298
g9
F0.6647
tp299
a(S's'
p300
S'G'
p301
F0.6515
tp302
a(S'house'
p303
g15
F0.9102
tp304
asI31
(lp305
(S'mhm'
p306
g18
F0.9747
tp307
asI32
(lp308
(S'what'
p309
g6
F0.9965
tp310
a(S'did'
p311
g3
F0.9992
tp312
a(S'you'
p313
g6
F0.9995
tp314
a(S'do'
p315
g3
F0.9989
tp316
asI33
(lp317
(S'xxx'
p318
g214
F0.8437
tp319
asI34
(lp320
(S'did'
p321
g3
F0.9983
tp322
a(S'you'
p323
g6
F0.992
tp324
asI35
(lp325
(S'xxx'
p326
g214
F0.8437
tp327
asI36
(lp328
(S'and'
p329
g174
F0.9986
tp330
a(S'who'
p331
g6
F0.9967
tp332
asI37
(lp333
(S'xxx'
p334
g214
F0.8437
tp335
asI38
(lp336
(S'who'
p337
g6
F0.9764
tp338
asI39
(lp339
(S'theodore'
p340
g57
F0.9553
tp341
asI40
(lp342
(S'oh'
p343
g18
F0.9965
tp344
a(S'theodore'
p345
g57
F0.9308
tp346
asI41
(lp347
(S'he'
p348
g6
F0.9945
tp349
a(S'came'
p350
g3
F0.9992
tp351
a(S'over'
p352
g50
F0.6102
tp353
a(S'again'
p354
g218
F0.9852
tp355
asI42
(lp356
(S'yep'
p357
g18
F0.9977
tp358
asI43
(lp359
(S'oh'
p360
g18
F0.9963
tp361
a(S'xxx'
p362
g214
F0.6977
tp363
asI44
(lp364
(S'no'
p365
g18
F0.9253
tp366
asI45
(lp367
(S'jason'
p368
g57
F0.9981
tp369
asI46
(lp370
(S'jason'
p371
g57
F0.9981
tp372
asI47
(lp373
(S'more'
p374
g62
F0.7834
tp375
a(S'ice'
p376
g15
F0.8891
tp377
asI48
(lp378
(S'more'
p379
g62
F0.8593
tp380
a(S'tonic'
p381
g15
F0.998
tp382
asI49
(lp383
(S'yeah'
p384
g18
F0.9887
tp385
a(S'eat'
p386
g3
F0.9869
tp387
a(S'some'
p388
g12
F0.8725
tp389
a(S'of'
p390
g9
F0.9967
tp391
a(S'your'
p392
g12
F0.9942
tp393
a(S'food'
p394
g15
F0.9985
tp395
a(S'then'
p396
g218
F0.8957
tp397
a(S'you'
p398
g6
F0.9995
tp399
a(S'can'
p400
g3
F0.9997
tp401
a(S'have'
p402
g3
F0.9999
tp403
a(S'some'
p404
g12
F0.9748
tp405
a(S'more'
p406
g62
F0.9124
tp407
a(S'to'
p408
g9
F0.9984
tp409
a(S'drink'
p410
g3
F0.9636
tp411
asI50
(lp412
(S'why'
p413
g218
F0.9531
tp414
a(S'won'
p415
g3
F0.7144
tp416
a(g205
g15
F0.3168
tp417
a(S'come'
p418
g3
F0.9866
tp419
a(S'on'
p420
g50
F0.6227
tp421
asI51
(lp422
(S'it'
p423
g6
F0.9858
tp424
a(g300
g3
F0.7213
tp425
a(S'on'
p426
g9
F0.5308
tp427
asI52
(lp428
(S'why'
p429
g218
F0.9595
tp430
a(S'then'
p431
g218
F0.9452
tp432
a(S'why'
p433
g218
F0.9567
tp434
a(S'xxx'
p435
g214
F0.7941
tp436
a(S'xxx'
p437
g214
F0.9867
tp438
asI53
(lp439
(S'aren'
p440
g57
F0.4901
tp441
a(g205
g3
F0.3926
tp442
a(S'you'
p443
g6
F0.9981
tp444
a(S'glad'
p445
g3
F0.6608
tp446
a(S'you'
p447
g6
F0.9942
tp448
a(S're'
p449
g3
F0.7505
tp450
a(S'going'
p451
g3
F0.998
tp452
a(S'back'
p453
g218
F0.6819
tp454
a(S'to'
p455
g9
F0.9926
tp456
a(S'school'
p457
g15
F0.8848
tp458
a(S'tomorrow'
p459
g15
F0.9815
tp460
asI54
(lp461
(S'no'
p462
g18
F0.9253
tp463
asI55
(lp464
(S'why'
p465
g218
F0.8527
tp466
asI56
(lp467
(S'because'
p468
g9
F0.983
tp469
a(g141
g6
F0.993
tp470
a(S'don'
p471
g3
F0.9187
tp472
a(g205
g15
F0.2247
tp473
a(S'want'
p474
g3
F0.9974
tp475
a(S'to'
p476
g9
F0.9943
tp477
a(S'whining'
p478
g3
F0.9998
tp479
asI57
(lp480
(S'don'
p481
g57
F0.5427
tp482
a(g205
g3
F0.4091
tp483
a(S'you'
p484
g6
F0.9996
tp485
a(S'miss'
p486
g3
F0.9993
tp487
a(S'all'
p488
g12
F0.7339
tp489
a(S'your'
p490
g12
F0.993
tp491
a(S'friends'
p492
g15
F0.9952
tp493
a(S'in'
p494
g9
F0.9984
tp495
a(S'school'
p496
g15
F0.9981
tp497
asI58
(lp498
(S'no'
p499
g18
F0.9253
tp500
asI59
(lp501
(S'xxx'
p502
g214
F0.8437
tp503
asI60
(lp504
(g141
g6
F0.9902
tp505
a(S'want'
p506
g3
F0.9996
tp507
a(S'xxx'
p508
g214
F0.7097
tp509
asI61
(lp510
(S'want'
p511
g3
F0.9966
tp512
a(S'some'
p513
g12
F0.9912
tp514
a(S'meat'
p515
g15
F0.9888
tp516
asI62
(lp517
(S'hm'
p518
g18
F0.995
tp519
asI63
(lp520
(S'meat'
p521
g15
F0.9299
tp522
asI64
(lp523
(S'meat'
p524
g15
F0.9299
tp525
asI65
(lp526
(g141
g6
F0.9793
tp527
a(S'll'
p528
g3
F0.7103
tp529
a(S'just'
p530
g218
F0.9996
tp531
a(S'have'
p532
g3
F0.9994
tp533
a(g191
g12
F0.9991
tp534
a(S'little'
p535
g62
F0.9964
tp536
a(S'piece'
p537
g15
F0.9946
tp538
asI66
(lp539
(S'no'
p540
g18
F0.7985
tp541
a(S'you'
p542
g6
F0.9928
tp543
a(S'don'
p544
g3
F0.8576
tp545
a(g205
g9
F0.2781
tp546
a(S'eat'
p547
g3
F0.9925
tp548
a(S'that'
p549
g218
F0.3139
tp550
a(S'much'
p551
g62
F0.9061
tp552
asI67
(lp553
(S'you'
p554
g6
F0.998
tp555
a(S'have'
p556
g3
F0.9994
tp557
a(S'this'
p558
g12
F0.5114
tp559
a(S'xxx'
p560
g214
F0.6181
tp561
asI68
(lp562
(S'do'
p563
g3
F0.9985
tp564
a(S'you'
p565
g6
F0.9996
tp566
a(S'want'
p567
g3
F0.9999
tp568
a(S'this'
p569
g12
F0.9661
tp570
a(S'piece'
p571
g15
F0.9917
tp572
asI69
(lp573
(S'thank'
p574
g3
F0.9631
tp575
a(S'you'
p576
g6
F0.9987
tp577
asI70
(lp578
(S'you'
p579
g6
F0.963
tp580
a(S're'
p581
g3
F0.5951
tp582
a(S'welcome'
p583
g3
F0.4795
tp584
asI71
(lp585
(S'you'
p586
g6
F0.9982
tp587
a(S'miss'
p588
g3
F0.9995
tp589
a(S'your'
p590
g12
F0.9864
tp591
a(S'teacher'
p592
g15
F0.9971
tp593
asI72
(lp594
(S'yeah'
p595
g18
F0.9988
tp596
asI73
(lp597
(S'they'
p598
g6
F0.9935
tp599
a(S'miss'
p600
g3
F0.9996
tp601
a(S'you'
p602
g6
F0.9986
tp603
a(S'too'
p604
g218
F0.9886
tp605
asI74
(lp606
(S'xxx'
p607
g214
F0.8437
tp608
asI75
(lp609
(S'oh'
p610
g18
F0.9878
tp611
a(S'you'
p612
g6
F0.9966
tp613
a(S'know'
p614
g3
F0.9983
tp615
a(S'who'
p616
g6
F0.9931
tp617
a(g141
g6
F0.9763
tp618
a(S'saw'
p619
g3
F0.9993
tp620
a(S'today'
p621
g15
F0.978
tp622
asI76
(lp623
(S'who'
p624
g6
F0.9764
tp625
asI77
(lp626
(S'lionel'
p627
g57
F0.9215
tp628
asI78
(lp629
(S'and'
p630
g174
F0.9985
tp631
a(S'carmen'
p632
g57
F0.8937
tp633
asI79
(lp634
(S'huh'
p635
g18
F0.993
tp636
asI80
(lp637
(S'and'
p638
g174
F0.9985
tp639
a(S'carmen'
p640
g57
F0.8937
tp641
asI81
(lp642
(S'who'
p643
g6
F0.9878
tp644
a(S'else'
p645
g218
F0.8185
tp646
asI82
(lp647
(S'carmen'
p648
g57
F0.9879
tp649
a(g300
g301
F0.4748
tp650
a(S'what'
p651
g6
F0.9804
tp652
a(g300
g3
F0.6416
tp653
a(S'her'
p654
g12
F0.8201
tp655
a(S'two'
p656
S'$'
p657
F0.9557
tp658
a(S'boys'
p659
g15
F0.9954
tp660
a(S'names'
p661
g15
F0.9799
tp662
asI83
(lp663
(S'jose'
p664
g57
F0.9846
tp665
asI84
(lp666
(S'jose'
p667
g57
F0.997
tp668
a(S'and'
p669
g174
F0.9983
tp670
a(S'miguel'
p671
g57
F0.9943
tp672
asI85
(lp673
(S'uhhum'
p674
g18
F0.9859
tp675
asI86
(lp676
(S'his'
p677
g12
F0.9982
tp678
a(S'name'
p679
g15
F0.9996
tp680
a(S'is'
p681
g3
F0.9946
tp682
a(S'xxx'
p683
g214
F0.7968
tp684
asI87
(lp685
(S'why'
p686
g218
F0.9531
tp687
a(S'won'
p688
g3
F0.7144
tp689
a(g205
g3
F0.5254
tp690
a(S'it'
p691
g6
F0.9929
tp692
a(S'come'
p693
g3
F0.9996
tp694
a(S'on'
p695
g9
F0.5026
tp696
asI88
(lp697
(S'it'
p698
g6
F0.9858
tp699
a(g300
g3
F0.7213
tp700
a(S'on'
p701
g9
F0.5308
tp702
asI89
(lp703
(S'mom'
p704
g15
F0.8394
tp705
a(S'could'
p706
g3
F0.9967
tp707
a(g141
g6
F0.9927
tp708
a(S'have'
p709
g3
F0.9999
tp710
a(S'some'
p711
g12
F0.9725
tp712
a(S'more'
p713
g62
F0.9503
tp714
a(S'drink'
p715
g15
F0.9288
tp716
asI90
(lp717
(S'okay'
p718
g18
F0.9857
tp719
asI91
(lp720
(g141
g6
F0.9843
tp721
a(S'go'
p722
g3
F0.9999
tp723
a(S'out'
p724
g9
F0.5259
tp725
a(S'you'
p726
g6
F0.9997
tp727
a(S'want'
p728
g3
F0.9997
tp729
a(S'to'
p730
g9
F0.9825
tp731
a(S'still'
p732
g218
F0.987
tp733
a(S'go'
p734
g3
F0.9931
tp735
a(S'outside'
p736
g218
F0.8146
tp737
asI92
(lp738
(S'murmur'
p739
g15
F0.8789
tp740
asI93
(lp741
(S'xxx'
p742
g214
F0.666
tp743
a(S'bus'
p744
g15
F0.9445
tp745
a(S'pass'
p746
g15
F0.6735
tp747
asI94
(lp748
(S'hm'
p749
g18
F0.995
tp750
asI95
(lp751
(S'you'
p752
g6
F0.997
tp753
a(S'finished'
p754
g3
F0.997
tp755
a(S'brittany'
p756
g57
F0.9821
tp757
asI96
(lp758
(S'yeah'
p759
g18
F0.9988
tp760
asI97
(lp761
(g141
g6
F0.988
tp762
a(S'am'
p763
g3
F0.9961
tp764
a(S'too'
p765
g218
F0.9642
tp766
asI98
(lp767
(S'that'
p768
g6
F0.8288
tp769
a(S'was'
p770
g3
F0.9987
tp771
a(S'good'
p772
g62
F0.9968
tp773
a(S'huh'
p774
g18
F0.8368
tp775
asI99
(lp776
(S'was'
p777
g3
F0.9988
tp778
a(S'it'
p779
g6
F0.9662
tp780
a(S'good'
p781
g62
F0.9943
tp782
asI100
(lp783
(S'uhhuh'
p784
g18
F0.9892
tp785
as.