(dp0
I15
(lp1
(S'<'
p2
S'~'
p3
F0.9138
tp4
a(S'thank'
p5
S'V'
p6
F0.9794
tp7
a(S'you'
p8
S'O'
p9
F0.9993
tp10
a(S'for'
p11
S'P'
p12
F0.9989
tp13
a(S'our'
p14
S'D'
p15
F0.9973
tp16
a(S'food'
p17
S'N'
p18
F0.9928
tp19
a(S'amen'
p20
S'!'
p21
F0.446
tp22
a(S'>'
p23
S'E'
p24
F0.5541
tp25
a(S'['
p26
g24
F0.5345
tp27
a(g23
g24
F0.949
tp28
a(S']'
p29
S','
p30
F0.7992
tp31
a(S'.'
p32
g30
F0.9936
tp33
asI18
(lp34
(g2
g3
F0.9138
tp35
a(S'thank'
p36
g6
F0.9794
tp37
a(S'you'
p38
g9
F0.9993
tp39
a(S'for'
p40
g12
F0.9989
tp41
a(S'our'
p42
g15
F0.9973
tp43
a(S'food'
p44
g18
F0.9928
tp45
a(S'amen'
p46
g21
F0.5125
tp47
a(S'>[<'
p48
g24
F0.3292
tp49
a(g29
g30
F0.9034
tp50
a(g32
g30
F0.9959
tp51
asI22
(lp52
(S'time'
p53
g18
F0.9742
tp54
a(S'to'
p55
g12
F0.9988
tp56
a(S'eat'
p57
g6
F0.9929
tp58
a(g21
g30
F0.9982
tp59
asI25
(lp60
(S'it'
p61
g9
F0.9956
tp62
a(S'was'
p63
g6
F0.9984
tp64
a(S'gonna'
p65
g6
F0.9873
tp66
a(S'come'
p67
g6
F0.9991
tp68
a(S'on'
p69
S'T'
p70
F0.5096
tp71
a(S'?'
p72
g30
F0.9964
tp73
asI29
(lp74
(S'mhm'
p75
g21
F0.9761
tp76
a(g32
g30
F0.9962
tp77
asI32
(lp78
(S'God'
p79
S'^'
p80
F0.9931
tp81
a(S'is'
p82
g6
F0.997
tp83
a(S'good'
p84
S'A'
p85
F0.9955
tp86
a(S'God'
p87
g80
F0.9935
tp88
a(S'is'
p89
g6
F0.9958
tp90
a(S'great'
p91
g85
F0.9969
tp92
a(S'thank'
p93
g6
F0.624
tp94
a(S'him'
p95
g9
F0.9951
tp96
a(S'for'
p97
g12
F0.9995
tp98
a(S'our'
p99
g15
F0.997
tp100
a(S'food'
p101
g18
F0.9969
tp102
a(g32
g30
F0.9972
tp103
asI37
(lp104
(S'amen'
p105
g21
F0.9762
tp106
a(g32
g30
F0.9969
tp107
asI40
(lp108
(S'hm'
p109
g21
F0.9811
tp110
a(S':'
p111
g30
F0.891
tp112
a(g72
g30
F0.9885
tp113
asI44
(lp114
(S'amen'
p115
g21
F0.9762
tp116
a(g32
g30
F0.9969
tp117
asI47
(lp118
(S'mhm'
p119
g21
F0.9761
tp120
a(g32
g30
F0.9962
tp121
asI50
(lp122
(S'did'
p123
g6
F0.9986
tp124
a(S'you'
p125
g9
F0.9993
tp126
a(S'have'
p127
g6
F0.9977
tp128
a(S'fun'
p129
g18
F0.842
tp130
a(S'today'
p131
g18
F0.9828
tp132
a(g72
g30
F0.9972
tp133
asI54
(lp134
(S'hm'
p135
g21
F0.9811
tp136
a(g111
g30
F0.936
tp137
a(g32
g30
F0.9898
tp138
asI57
(lp139
(S'did'
p140
g6
F0.9986
tp141
a(S'you'
p142
g9
F0.9993
tp143
a(S'have'
p144
g6
F0.9977
tp145
a(S'fun'
p146
g18
F0.9351
tp147
a(S'at'
p148
g12
F0.9999
tp149
a(S'the'
p150
g15
F0.9989
tp151
a(S'clinic'
p152
g18
F0.8988
tp153
a(g72
g30
F0.9983
tp154
asI61
(lp155
(S'uhhum'
p156
g21
F0.9859
tp157
a(g32
g30
F0.9962
tp158
asI64
(lp159
(S'what'
p160
g9
F0.9965
tp161
a(S'did'
p162
g6
F0.9994
tp163
a(S'you'
p164
g9
F0.9979
tp165
a(S'like'
p166
g6
F0.8298
tp167
a(S'about'
p168
g12
F0.9554
tp169
a(S'it'
p170
g9
F0.9984
tp171
a(g72
g30
F0.9989
tp172
asI68
(lp173
(S'nothing'
p174
g18
F0.9908
tp175
a(g32
g30
F0.998
tp176
asI71
(lp177
(S'I'
p178
g9
F0.9982
tp179
a(S'thought'
p180
g6
F0.9999
tp181
a(S'you'
p182
g9
F0.9995
tp183
a(S'said'
p184
g6
F0.9998
tp185
a(S'you'
p186
g9
F0.9994
tp187
a(S'liked'
p188
g6
F0.9999
tp189
a(S'it'
p190
g9
F0.9885
tp191
a(g32
g30
F0.999
tp192
asI75
(lp193
(g178
g9
F0.9982
tp194
a(S'told'
p195
g6
F1.0
tp196
a(S'you'
p197
g9
F0.9978
tp198
a(g32
g30
F0.9996
tp199
asI78
(lp200
(S'hm'
p201
g21
F0.9811
tp202
a(g111
g30
F0.891
tp203
a(g72
g30
F0.9885
tp204
asI82
(lp205
(g178
g9
F0.9982
tp206
a(S'told'
p207
g6
F1.0
tp208
a(S'you'
p209
g9
F0.9978
tp210
a(g32
g30
F0.9996
tp211
asI85
(lp212
(S'no'
p213
g21
F0.6766
tp214
a(S'and'
p215
S'&'
p216
F0.9962
tp217
a(S"I'm"
p218
S'L'
p219
F0.9972
tp220
a(S'asking'
p221
g6
F0.9784
tp222
a(g26
g30
F0.9863
tp223
a(g21
g30
F0.9901
tp224
a(g29
g30
F0.9853
tp225
a(S'you'
p226
g9
F0.9851
tp227
a(g32
g30
F0.9996
tp228
asI88
(lp229
(S'nothing'
p230
g18
F0.9908
tp231
a(g32
g30
F0.998
tp232
asI91
(lp233
(S'you'
p234
g9
F0.9971
tp235
a(S'was'
p236
g6
F0.9999
tp237
a(S'a'
p238
g15
F0.9989
tp239
a(S'brave'
p240
g85
F0.9996
tp241
a(S'girl'
p242
g18
F0.9969
tp243
a(S'today'
p244
g18
F0.9903
tp245
a(S'huh'
p246
g21
F0.9494
tp247
a(g72
g30
F0.9979
tp248
asI96
(lp249
(S'(..)'
p250
g24
F0.4292
tp251
a(g178
g9
F0.9949
tp252
a(S"don't"
p253
g6
F1.0
tp254
a(S'want'
p255
g6
F1.0
tp256
a(S'this'
p257
g15
F0.9617
tp258
a(S'ice'
p259
g18
F0.8926
tp260
a(S'xxx'
p261
g18
F0.4202
tp262
a(g32
g30
F0.9983
tp263
asI99
(lp264
(S'just'
p265
S'R'
p266
F0.9991
tp267
a(S'leave'
p268
g6
F0.9994
tp269
a(S'it'
p270
g9
F0.9907
tp271
a(S'in'
p272
g12
F0.9123
tp273
a(S'there'
p274
g266
F0.7512
tp275
a(S"it'll"
p276
g219
F0.9961
tp277
a(S'keep'
p278
g6
F0.9993
tp279
a(S'the'
p280
g15
F0.9994
tp281
a(S'tonic'
p282
g18
F0.9943
tp283
a(S'cold'
p284
g85
F0.9599
tp285
a(g32
g30
F0.9986
tp286
asI104
(lp287
(g2
g3
F0.9526
tp288
a(g178
g9
F0.9983
tp289
a(S"can't"
p290
g6
F0.9999
tp291
a(S'get'
p292
g6
F1.0
tp293
a(S'the'
p294
g15
F0.9863
tp295
a(g23
S'G'
p296
F0.2983
tp297
a(S'[//]'
p298
g296
F0.3115
tp299
a(g178
g9
F0.9969
tp300
a(S"can't"
p301
g6
F0.9999
tp302
a(S'get'
p303
g6
F1.0
tp304
a(S'the'
p305
g15
F0.9994
tp306
a(S'tonic'
p307
g18
F0.9986
tp308
a(g32
g30
F0.9983
tp309
asI107
(lp310
(S'here'
p311
g266
F0.9505
tp312
a(S'put'
p313
g6
F0.9688
tp314
a(S'it'
p315
g9
F0.9776
tp316
a(S'in'
p317
g12
F0.9605
tp318
a(S'your'
p319
g15
F0.9919
tp320
a(S'cup'
p321
g18
F0.9975
tp322
a(g32
g30
F0.9977
tp323
asI110
(lp324
(S'thank'
p325
g6
F0.9631
tp326
a(S'you'
p327
g9
F0.9987
tp328
a(g32
g30
F0.9995
tp329
asI113
(lp330
(S'welcome'
p331
g21
F0.6877
tp332
a(g32
g30
F0.9973
tp333
asI116
(lp334
(S'taste'
p335
g6
F0.808
tp336
a(S'good'
p337
g85
F0.9978
tp338
a(g72
g30
F0.9946
tp339
asI121
(lp340
(S'did'
p341
g6
F0.9986
tp342
a(S'you'
p343
g9
F0.9993
tp344
a(S'have'
p345
g6
F0.9977
tp346
a(S'fun'
p347
g18
F0.9351
tp348
a(S'at'
p349
g12
F0.9995
tp350
a(S'Auntie'
p351
g80
F0.5924
tp352
a(S"Vi's"
p353
S'Z'
p354
F0.7979
tp355
a(S'house'
p356
g18
F0.9727
tp357
a(g72
g30
F0.9988
tp358
asI127
(lp359
(S'mhm'
p360
g21
F0.9761
tp361
a(g32
g30
F0.9962
tp362
asI130
(lp363
(S'what'
p364
g9
F0.9965
tp365
a(S'did'
p366
g6
F0.9994
tp367
a(S'you'
p368
g9
F0.9995
tp369
a(S'do'
p370
g6
F0.9983
tp371
a(g72
g30
F0.9976
tp372
asI134
(lp373
(S'xxx'
p374
g24
F0.5822
tp375
a(g32
g30
F0.9648
tp376
asI135
(lp377
(S'did'
p378
g6
F0.9983
tp379
a(S'you'
p380
g9
F0.9861
tp381
a(g72
g30
F0.9993
tp382
asI139
(lp383
(S'xxx'
p384
g24
F0.5822
tp385
a(g32
g30
F0.9648
tp386
asI140
(lp387
(S'and'
p388
g216
F0.9986
tp389
a(S'who'
p390
g9
F0.9929
tp391
a(g72
g30
F0.9957
tp392
asI144
(lp393
(S'xxx'
p394
g24
F0.5822
tp395
a(g32
g30
F0.9648
tp396
asI145
(lp397
(S'who'
p398
g9
F0.9566
tp399
a(g72
g30
F0.9951
tp400
asI149
(lp401
(S'Theodore'
p402
g80
F0.9725
tp403
a(g21
g30
F0.9903
tp404
asI152
(lp405
(S'oh'
p406
g21
F0.9949
tp407
a(S'Theodore'
p408
g80
F0.9949
tp409
a(g32
g30
F0.9946
tp410
asI155
(lp411
(S'he'
p412
g9
F0.9945
tp413
a(S'came'
p414
g6
F0.9994
tp415
a(S'over'
p416
g70
F0.6102
tp417
a(S'again'
p418
g266
F0.9891
tp419
a(g72
g30
F0.9979
tp420
asI159
(lp421
(S'yep'
p422
g21
F0.9989
tp423
a(g21
g30
F0.997
tp424
asI162
(lp425
(S'oh'
p426
g21
F0.9963
tp427
a(S'xxx'
p428
g24
F0.3657
tp429
a(g32
g30
F0.9721
tp430
asI165
(lp431
(S'no'
p432
g21
F0.9704
tp433
a(g32
g30
F0.9989
tp434
asI168
(lp435
(S'Jason'
p436
g80
F0.9997
tp437
a(g32
g30
F0.9946
tp438
asI171
(lp439
(S'Jason'
p440
g80
F0.9997
tp441
a(g32
g30
F0.9946
tp442
asI175
(lp443
(S'more'
p444
g85
F0.7834
tp445
a(S'ice'
p446
g18
F0.935
tp447
a(g32
g30
F0.9981
tp448
asI178
(lp449
(S'more'
p450
g85
F0.8593
tp451
a(S'tonic'
p452
g18
F0.999
tp453
a(g32
g30
F0.9985
tp454
asI181
(lp455
(S'yeah'
p456
g21
F0.9887
tp457
a(S'eat'
p458
g6
F0.9869
tp459
a(S'some'
p460
g15
F0.8725
tp461
a(S'of'
p462
g12
F0.9967
tp463
a(S'your'
p464
g15
F0.9942
tp465
a(S'food'
p466
g18
F0.9985
tp467
a(S'then'
p468
g266
F0.8957
tp469
a(S'you'
p470
g9
F0.9995
tp471
a(S'can'
p472
g6
F0.9997
tp473
a(S'have'
p474
g6
F0.9999
tp475
a(S'some'
p476
g15
F0.9748
tp477
a(S'more'
p478
g85
F0.8863
tp479
a(S'to'
p480
g12
F0.9984
tp481
a(S'drink'
p482
g6
F0.8871
tp483
a(g32
g30
F0.9971
tp484
asI186
(lp485
(S'why'
p486
g266
F0.9791
tp487
a(S"won't"
p488
g6
F0.8938
tp489
a(S'come'
p490
g6
F0.9993
tp491
a(S'on'
p492
g12
F0.5737
tp493
a(g72
g30
F0.9974
tp494
asI190
(lp495
(S"it's"
p496
g219
F0.9981
tp497
a(S'on'
p498
g12
F0.8781
tp499
a(g32
g30
F0.9968
tp500
asI193
(lp501
(S'why'
p502
g266
F0.9473
tp503
a(S'[//]'
p504
g30
F0.416
tp505
a(S'then'
p506
g266
F0.9787
tp507
a(S'why'
p508
g266
F0.9784
tp509
a(S'xxx'
p510
g24
F0.8101
tp511
a(S'xxx'
p512
g24
F0.9755
tp513
a(g72
g30
F0.9729
tp514
asI198
(lp515
(S"aren't"
p516
g6
F0.9744
tp517
a(S'you'
p518
g9
F0.9988
tp519
a(S'glad'
p520
g85
F0.539
tp521
a(S"you're"
p522
g219
F0.9931
tp523
a(S'going'
p524
g6
F0.9975
tp525
a(S'back'
p526
g266
F0.6819
tp527
a(S'to'
p528
g12
F0.994
tp529
a(S'school'
p530
g18
F0.9423
tp531
a(S'tomorrow'
p532
g18
F0.9705
tp533
a(g72
g30
F0.9947
tp534
asI204
(lp535
(S'no'
p536
g21
F0.9704
tp537
a(g32
g30
F0.9989
tp538
asI207
(lp539
(S'why'
p540
g266
F0.9408
tp541
a(g72
g30
F0.9946
tp542
asI211
(lp543
(S'because'
p544
g12
F0.9961
tp545
a(g178
g9
F0.9995
tp546
a(S"don't"
p547
g6
F1.0
tp548
a(S'want'
p549
g6
F0.9999
tp550
a(S'to'
p551
g12
F0.9436
tp552
a(g216
g216
F0.987
tp553
a(S'='
p554
g30
F0.9002
tp555
a(S'whining'
p556
g6
F0.9947
tp557
a(g32
g30
F0.9992
tp558
asI216
(lp559
(S"don't"
p560
g6
F0.9999
tp561
a(S'you'
p562
g9
F0.9992
tp563
a(S'miss'
p564
g6
F0.9994
tp565
a(S'all'
p566
g15
F0.7176
tp567
a(S'your'
p568
g15
F0.993
tp569
a(S'friends'
p570
g18
F0.9957
tp571
a(S'in'
p572
g12
F0.9986
tp573
a(S'school'
p574
g18
F0.9972
tp575
a(g72
g30
F0.9981
tp576
asI222
(lp577
(S'no'
p578
g21
F0.9704
tp579
a(g32
g30
F0.9989
tp580
asI226
(lp581
(S'xxx'
p582
g24
F0.5822
tp583
a(g32
g30
F0.9648
tp584
asI227
(lp585
(g178
g9
F0.9983
tp586
a(S'want'
p587
g6
F0.9996
tp588
a(S'xxx'
p589
g18
F0.3729
tp590
a(g32
g30
F0.9983
tp591
asI230
(lp592
(S'want'
p593
g6
F0.9975
tp594
a(S'some'
p595
g15
F0.9912
tp596
a(S'meat'
p597
g18
F0.9925
tp598
a(g32
g30
F0.9986
tp599
asI233
(lp600
(S'hm'
p601
g21
F0.9811
tp602
a(g111
g30
F0.891
tp603
a(g72
g30
F0.9885
tp604
asI237
(lp605
(S'meat'
p606
g18
F0.9595
tp607
a(g32
g30
F0.9983
tp608
asI240
(lp609
(S'meat'
p610
g18
F0.9399
tp611
a(g72
g30
F0.9968
tp612
asI244
(lp613
(S"I'll"
p614
g219
F0.9916
tp615
a(S'just'
p616
g266
F0.9989
tp617
a(S'have'
p618
g6
F0.9996
tp619
a(g238
g15
F0.999
tp620
a(S'little'
p621
g85
F0.9958
tp622
a(S'piece'
p623
g18
F0.9973
tp624
a(g32
g30
F0.9978
tp625
asI247
(lp626
(S'no'
p627
g21
F0.7985
tp628
a(S'you'
p629
g9
F0.9957
tp630
a(S"don't"
p631
g6
F1.0
tp632
a(S'eat'
p633
g6
F0.9997
tp634
a(S'that'
p635
g15
F0.347
tp636
a(S'much'
p637
g85
F0.8356
tp638
a(g32
g30
F0.9985
tp639
asI250
(lp640
(S'you'
p641
g9
F0.998
tp642
a(S'have'
p643
g6
F0.9997
tp644
a(S'this'
p645
g15
F0.5114
tp646
a(S'xxx'
p647
g18
F0.6754
tp648
a(g32
g30
F0.9984
tp649
asI253
(lp650
(S'do'
p651
g6
F0.9985
tp652
a(S'you'
p653
g9
F0.9996
tp654
a(S'want'
p655
g6
F0.9999
tp656
a(S'this'
p657
g15
F0.9661
tp658
a(S'piece'
p659
g18
F0.9939
tp660
a(g72
g30
F0.9968
tp661
asI257
(lp662
(S'thank'
p663
g6
F0.9631
tp664
a(S'you'
p665
g9
F0.9987
tp666
a(g32
g30
F0.9995
tp667
asI260
(lp668
(S"you're"
p669
g219
F0.9777
tp670
a(S'welcome'
p671
g85
F0.8002
tp672
a(g32
g30
F0.9976
tp673
asI263
(lp674
(S'you'
p675
g9
F0.9982
tp676
a(S'miss'
p677
g6
F0.9996
tp678
a(S'your'
p679
g15
F0.9864
tp680
a(S'teacher'
p681
g18
F0.997
tp682
a(g72
g30
F0.9985
tp683
asI267
(lp684
(S'yeah'
p685
g21
F0.9986
tp686
a(g32
g30
F0.997
tp687
asI270
(lp688
(S'they'
p689
g9
F0.9935
tp690
a(S'miss'
p691
g6
F0.9997
tp692
a(S'you'
p693
g9
F0.9986
tp694
a(S'too'
p695
g266
F0.9932
tp696
a(g32
g30
F0.9974
tp697
asI273
(lp698
(S'xxx'
p699
g24
F0.5822
tp700
a(g32
g30
F0.9648
tp701
asI275
(lp702
(S'oh'
p703
g21
F0.9878
tp704
a(S'you'
p705
g9
F0.9966
tp706
a(S'know'
p707
g6
F0.9983
tp708
a(S'who'
p709
g9
F0.9881
tp710
a(g178
g9
F0.9988
tp711
a(S'saw'
p712
g6
F0.9993
tp713
a(S'today'
p714
g18
F0.9799
tp715
a(g72
g30
F0.9978
tp716
asI280
(lp717
(S'who'
p718
g9
F0.9566
tp719
a(g72
g30
F0.9951
tp720
asI284
(lp721
(S'Lionel'
p722
g80
F0.9678
tp723
a(g32
g30
F0.9951
tp724
asI287
(lp725
(S'and'
p726
g216
F0.9984
tp727
a(S'Carmen'
p728
g80
F0.9882
tp729
a(g32
g30
F0.9946
tp730
asI290
(lp731
(S'huh'
p732
g21
F0.9936
tp733
a(g72
g30
F0.9967
tp734
asI294
(lp735
(S'and'
p736
g216
F0.9984
tp737
a(S'Carmen'
p738
g80
F0.9882
tp739
a(g32
g30
F0.9946
tp740
asI297
(lp741
(S'who'
p742
g9
F0.9878
tp743
a(S'else'
p744
g266
F0.902
tp745
a(g72
g30
F0.9976
tp746
asI301
(lp747
(g2
g3
F0.9181
tp748
a(S"Carmen's>"
p749
g80
F0.7716
tp750
a(S'[//]'
p751
g80
F0.5912
tp752
a(S"what's"
p753
g219
F0.9947
tp754
a(S'her'
p755
g15
F0.8477
tp756
a(S'two'
p757
S'$'
p758
F0.9546
tp759
a(S'boys'
p760
g18
F0.9992
tp761
a(S"'"
p762
g30
F0.9754
tp763
a(S'names'
p764
g18
F0.9979
tp765
a(g72
g30
F0.9982
tp766
asI306
(lp767
(S'Jose'
p768
g80
F0.9979
tp769
a(g32
g30
F0.9952
tp770
asI309
(lp771
(S'Jose'
p772
g80
F0.9991
tp773
a(S'and'
p774
g216
F0.9981
tp775
a(S'Miguel'
p776
g80
F0.9994
tp777
a(g32
g30
F0.9954
tp778
asI312
(lp779
(S'uhhum'
p780
g21
F0.9859
tp781
a(g32
g30
F0.9962
tp782
asI315
(lp783
(S'his'
p784
g15
F0.9982
tp785
a(S'name'
p786
g18
F0.9995
tp787
a(S'is'
p788
g6
F0.9946
tp789
a(S'xxx'
p790
g24
F0.4203
tp791
a(g32
g30
F0.9688
tp792
asI320
(lp793
(S'why'
p794
g266
F0.9791
tp795
a(S"won't"
p796
g6
F0.9852
tp797
a(S'it'
p798
g9
F0.9926
tp799
a(S'come'
p800
g6
F0.9988
tp801
a(S'on'
p802
g70
F0.5504
tp803
a(g21
g30
F0.9951
tp804
asI323
(lp805
(S"it's"
p806
g219
F0.9981
tp807
a(S'on'
p808
g12
F0.8781
tp809
a(g32
g30
F0.9968
tp810
asI327
(lp811
(S'Mom'
p812
g18
F0.7968
tp813
a(S'could'
p814
g6
F0.9982
tp815
a(g178
g9
F0.9994
tp816
a(S'have'
p817
g6
F0.9999
tp818
a(S'some'
p819
g15
F0.9748
tp820
a(S'more'
p821
g85
F0.9503
tp822
a(S'drink'
p823
g18
F0.9711
tp824
a(g72
g30
F0.9961
tp825
asI332
(lp826
(S'okay'
p827
g21
F0.9732
tp828
a(g72
g30
F0.9976
tp829
asI337
(lp830
(g178
g9
F0.9971
tp831
a(S'go'
p832
g6
F0.9998
tp833
a(S'out'
p834
g70
F0.7061
tp835
a(S'[///]'
p836
g30
F0.5427
tp837
a(S'you'
p838
g9
F0.9989
tp839
a(S'want'
p840
g6
F0.9997
tp841
a(S'to'
p842
g12
F0.9825
tp843
a(S'still'
p844
g266
F0.9843
tp845
a(S'go'
p846
g6
F0.9946
tp847
a(S'outside'
p848
g266
F0.8379
tp849
a(g72
g30
F0.9984
tp850
asI342
(lp851
(g216
g216
F0.9893
tp852
a(g554
g30
F0.7974
tp853
a(S'murmur'
p854
g18
F0.9625
tp855
a(g32
g30
F0.9978
tp856
asI343
(lp857
(S'xxx'
p858
g24
F0.6581
tp859
a(S'bus'
p860
g18
F0.9445
tp861
a(S'pass'
p862
g18
F0.8575
tp863
a(g32
g30
F0.9989
tp864
asI346
(lp865
(S'hm'
p866
g21
F0.9811
tp867
a(g111
g30
F0.891
tp868
a(g72
g30
F0.9885
tp869
asI350
(lp870
(S'you'
p871
g9
F0.998
tp872
a(S'finished'
p873
g6
F0.9971
tp874
a(S'Brittany'
p875
g80
F0.9985
tp876
a(g72
g30
F0.996
tp877
asI354
(lp878
(S'yeah'
p879
g21
F0.9986
tp880
a(g32
g30
F0.997
tp881
asI357
(lp882
(g178
g9
F0.9975
tp883
a(S'am'
p884
g6
F0.9968
tp885
a(S'too'
p886
g266
F0.9754
tp887
a(g32
g30
F0.9973
tp888
asI360
(lp889
(S'that'
p890
g9
F0.8288
tp891
a(S'was'
p892
g6
F0.9989
tp893
a(S'good'
p894
g85
F0.9968
tp895
a(S'huh'
p896
g21
F0.7802
tp897
a(g72
g30
F0.998
tp898
asI364
(lp899
(S'was'
p900
g6
F0.9989
tp901
a(S'it'
p902
g9
F0.9662
tp903
a(S'good'
p904
g85
F0.9948
tp905
a(g72
g30
F0.9959
tp906
asI368
(lp907
(S'uhhuh'
p908
g21
F0.9881
tp909
a(g32
g30
F0.997
tp910
as.