(dp0
I0
(lp1
(S'the'
p2
S'D'
p3
F0.9991
tp4
a(S'batteries'
p5
S'N'
p6
F0.9975
tp7
asI1
(lp8
(S'i'
p9
S'O'
p10
F0.9635
tp11
a(S'don'
p12
S'V'
p13
F0.9231
tp14
a(S't'
p15
g13
F0.3155
tp16
a(S'think'
p17
g13
F0.9983
tp18
a(S'the'
p19
g3
F0.9988
tp20
a(S'batteries'
p21
g6
F0.9964
tp22
a(S'are'
p23
g13
F0.9865
tp24
a(S'any'
p25
g3
F0.8082
tp26
a(S'good'
p27
S'A'
p28
F0.9883
tp29
asI2
(lp30
(S'hm'
p31
S'!'
p32
F0.995
tp33
asI3
(lp34
(S'well'
p35
g32
F0.8994
tp36
a(S'we'
p37
g10
F0.9987
tp38
a(S'll'
p39
g13
F0.5614
tp40
a(S'just'
p41
S'R'
p42
F0.9997
tp43
a(S'have'
p44
g13
F0.9991
tp45
a(S'to'
p46
S'P'
p47
F0.9973
tp48
a(S'see'
p49
g13
F0.9919
tp50
asI4
(lp51
(g9
g10
F0.9764
tp52
a(S'hope'
p53
g13
F0.9991
tp54
a(S'they'
p55
g10
F0.9961
tp56
a(S'are'
p57
g13
F0.9986
tp58
asI5
(lp59
(S'alright'
p60
g32
F0.9864
tp61
asI6
(lp62
(S'not'
p63
g42
F0.9926
tp64
a(S'too'
p65
g42
F0.9988
tp66
a(S'far'
p67
g42
F0.7931
tp68
a(S'xxx'
p69
S'E'
p70
F0.8314
tp71
asI7
(lp72
(S'they'
p73
g10
F0.909
tp74
a(S're'
p75
g13
F0.5297
tp76
a(S'alright'
p77
g32
F0.8903
tp78
asI8
(lp79
(S'is'
p80
g13
F0.9981
tp81
a(S'that'
p82
g3
F0.5074
tp83
a(S'red'
p84
g28
F0.9767
tp85
a(S'light'
p86
g6
F0.9914
tp87
a(S'on'
p88
g47
F0.9665
tp89
asI9
(lp90
(S'yeah'
p91
g32
F0.9988
tp92
asI10
(lp93
(S'xxx'
p94
g70
F0.8437
tp95
asI11
(lp96
(S'it'
p97
g10
F0.9888
tp98
a(S's'
p99
S'G'
p100
F0.3389
tp101
a(S'voice'
p102
g6
F0.958
tp103
a(S'activated'
p104
g13
F0.9686
tp105
asI12
(lp106
(S'oh'
p107
g32
F0.9913
tp108
a(S'it'
p109
g10
F0.9972
tp110
a(S'is'
p111
g13
F0.9992
tp112
asI13
(lp113
(S'yes'
p114
g32
F0.9958
tp115
asI14
(lp116
(S'www'
p117
S'^'
p118
F0.3889
tp119
asI15
(lp120
(S'how'
p121
g42
F0.9764
tp122
a(g99
g100
F0.6545
tp123
a(S'your'
p124
g3
F0.9561
tp125
a(S'supper'
p126
g6
F0.9969
tp127
asI16
(lp128
(S'oh'
p129
g32
F0.9848
tp130
a(S'did'
p131
g13
F0.998
tp132
a(S'you'
p133
g10
F0.9988
tp134
a(S'get'
p135
g13
F0.9999
tp136
a(S'your'
p137
g3
F0.9884
tp138
a(S'drink'
p139
g6
F0.9889
tp140
asI17
(lp141
(S'okay'
p142
g32
F0.9857
tp143
asI18
(lp144
(S'it'
p145
g10
F0.9974
tp146
a(S'is'
p147
g13
F0.999
tp148
asI19
(lp149
(S'because'
p150
g47
F0.992
tp151
a(S'look'
p152
g13
F0.773
tp153
asI20
(lp154
(S'yeah'
p155
g32
F0.9968
tp156
a(g9
g10
F0.9963
tp157
a(S'know'
p158
g13
F0.9993
tp159
a(S'but'
p160
S'&'
p161
F0.9878
tp162
a(g9
g10
F0.9868
tp163
a(S'm'
p164
g13
F0.9698
tp165
a(S'just'
p166
g42
F0.9996
tp167
a(S'trying'
p168
g13
F0.9994
tp169
a(S'to'
p170
g47
F0.9961
tp171
a(S'see'
p172
g13
F0.9987
tp173
a(S'if'
p174
g47
F0.9994
tp175
a(S'the'
p176
g3
F0.9981
tp177
a(S'tape'
p178
g6
F0.9976
tp179
a(S'is'
p180
g13
F0.9962
tp181
a(S'going'
p182
g13
F0.992
tp183
a(S'around'
p184
S'T'
p185
F0.3463
tp186
a(S'xxx'
p187
g70
F0.6998
tp188
asI21
(lp189
(S'it'
p190
g10
F0.9974
tp191
a(S'is'
p192
g13
F0.999
tp193
asI22
(lp194
(g9
g10
F0.984
tp195
a(S'already'
p196
g42
F0.9944
tp197
a(S'tried'
p198
g13
F0.9708
tp199
asI23
(lp200
(S'yeah'
p201
g32
F0.9988
tp202
asI24
(lp203
(S'xxx'
p204
g70
F0.5668
tp205
a(S'right'
p206
g42
F0.7685
tp207
a(S'now'
p208
g42
F0.9978
tp209
a(S'so'
p210
g47
F0.5499
tp211
a(S'don'
p212
g100
F0.3906
tp213
a(g15
g100
F0.6525
tp214
a(S'drink'
p215
g13
F0.96
tp216
a(S'a'
p217
g3
F0.9928
tp218
a(S'lot'
p219
g6
F0.8784
tp220
a(S'okay'
p221
g32
F0.8722
tp222
asI25
(lp223
(S'save'
p224
g13
F0.9919
tp225
a(S'some'
p226
g3
F0.6751
tp227
a(S'and'
p228
g161
F0.9946
tp229
a(S'don'
p230
g13
F0.3396
tp231
a(g15
g47
F0.2528
tp232
a(S'eat'
p233
g13
F0.9935
tp234
a(S'all'
p235
g3
F0.6449
tp236
a(S'the'
p237
g3
F0.999
tp238
a(S'cantaloupe'
p239
g6
F0.9955
tp240
asI26
(lp241
(S'eat'
p242
g13
F0.9797
tp243
a(S'some'
p244
g3
F0.8856
tp245
a(S'of'
p246
g47
F0.9949
tp247
a(S'your'
p248
g3
F0.9403
tp249
a(S'eat'
p250
g13
F0.7856
tp251
a(S'some'
p252
g3
F0.8787
tp253
a(S'of'
p254
g47
F0.9966
tp255
a(S'your'
p256
g3
F0.9953
tp257
a(S'other'
p258
g28
F0.9829
tp259
a(S'stuff'
p260
g6
F0.9874
tp261
a(S'okay'
p262
g32
F0.884
tp263
asI27
(lp264
(S'okay'
p265
g32
F0.9857
tp266
asI28
(lp267
(S'laughs'
p268
g13
F0.9102
tp269
asI29
(lp270
(S'so'
p271
g42
F0.5317
tp272
asI30
(lp273
(S'laughs'
p274
g13
F0.9102
tp275
asI31
(lp276
(S'cut'
p277
g13
F0.8288
tp278
a(S'it'
p279
g10
F0.9928
tp280
a(S'out'
p281
g185
F0.9729
tp282
asI32
(lp283
(S'laughs'
p284
g13
F0.9102
tp285
asI33
(lp286
(S'laughs'
p287
g13
F0.9102
tp288
asI34
(lp289
(S'here'
p290
g42
F0.9611
tp291
a(S'goes'
p292
g13
F0.8892
tp293
a(S'dananananana'
p294
g3
F0.2284
tp295
a(S'wp'
p296
g6
F0.6924
tp297
asI35
(lp298
(S'laughs'
p299
g13
F0.9102
tp300
asI36
(lp301
(S'xxx'
p302
g70
F0.8437
tp303
asI37
(lp304
(S'giggles'
p305
g13
F0.5513
tp306
asI38
(lp307
(S'you'
p308
g10
F0.9968
tp309
a(S'might'
p310
g13
F0.9991
tp311
a(S'as'
p312
g42
F0.9269
tp313
a(S'well'
p314
g42
F0.9107
tp315
a(S'have'
p316
g13
F0.9916
tp317
a(S'to'
p318
g47
F0.995
tp319
a(S'squish'
p320
g13
F0.9629
tp321
a(S'that'
p322
g10
F0.8206
tp323
a(S'down'
p324
g47
F0.3475
tp325
a(g217
g3
F0.9978
tp326
a(S'little'
p327
g28
F0.9973
tp328
a(S'bit'
p329
g6
F0.9289
tp330
asI39
(lp331
(S'but'
p332
g161
F0.993
tp333
a(S'you'
p334
g10
F0.9981
tp335
a(S'it'
p336
g10
F0.9761
tp337
a(S'has'
p338
g13
F0.9979
tp339
a(S'gotta'
p340
g13
F0.9933
tp341
a(S'come'
p342
g13
F0.9995
tp343
a(S'out'
p344
g185
F0.5881
tp345
a(S'now'
p346
g42
F0.994
tp347
asI40
(lp348
(S'well'
p349
g32
F0.9664
tp350
asI41
(lp351
(S'don'
p352
g118
F0.4468
tp353
a(g15
g118
F0.4827
tp354
a(S'do'
p355
g13
F0.9878
tp356
asI42
(lp357
(S'don'
p358
g118
F0.5427
tp359
a(g15
g118
F0.354
tp360
a(S'squish'
p361
g13
F0.8594
tp362
a(S'it'
p363
g10
F0.9808
tp364
a(S'so'
p365
g42
F0.9549
tp366
a(S'hard'
p367
g28
F0.8156
tp368
a(S'that'
p369
g47
F0.9818
tp370
a(S'it'
p371
g10
F0.999
tp372
a(S'comes'
p373
g13
F0.9998
tp374
a(S'out'
p375
g185
F0.9678
tp376
asI43
(lp377
(S'yeah'
p378
g32
F0.9988
tp379
asI44
(lp380
(S'giggles'
p381
g13
F0.5513
tp382
asI45
(lp383
(S'good'
p384
g28
F0.985
tp385
a(S'supper'
p386
g6
F0.9913
tp387
a(S'huh'
p388
g32
F0.897
tp389
asI46
(lp390
(S'hey'
p391
g32
F0.9918
tp392
a(S'move'
p393
g13
F0.8855
tp394
a(S'up'
p395
g185
F0.9565
tp396
a(S'close'
p397
g28
F0.7906
tp398
asI47
(lp399
(S'hm'
p400
g32
F0.995
tp401
asI48
(lp402
(S'what'
p403
g10
F0.9784
tp404
a(g99
g100
F0.613
tp405
a(S'the'
p406
g3
F0.9986
tp407
a(S'matter'
p408
g6
F0.9916
tp409
asI49
(lp410
(S'your'
p411
g3
F0.9777
tp412
a(S'stomach'
p413
g6
F0.9994
tp414
a(S'hurts'
p415
g13
F0.9588
tp416
asI50
(lp417
(S'well'
p418
g32
F0.7287
tp419
a(S'eat'
p420
g13
F0.9147
tp421
a(S'slowly'
p422
g42
F0.9892
tp423
asI51
(lp424
(S'chew'
p425
g13
F0.9956
tp426
a(S'up'
p427
g185
F0.8987
tp428
a(S'your'
p429
g3
F0.99
tp430
a(S'food'
p431
g6
F0.9985
tp432
a(S'really'
p433
g42
F0.9997
tp434
a(S'good'
p435
g28
F0.9962
tp436
a(S'okay'
p437
g32
F0.6158
tp438
asI52
(lp439
(S'hunhunh'
p440
g32
F0.5425
tp441
asI53
(lp442
(S'well'
p443
g32
F0.8349
tp444
a(S'if'
p445
g47
F0.9958
tp446
a(S'it'
p447
g10
F0.9991
tp448
a(S'hurts'
p449
g13
F0.9992
tp450
a(S'that'
p451
g42
F0.2884
tp452
a(S'much'
p453
g28
F0.6474
tp454
a(S'just'
p455
g42
F0.999
tp456
a(S'eat'
p457
g13
F0.9987
tp458
a(S'your'
p459
g3
F0.9928
tp460
a(S'cantaloupe'
p461
g6
F0.9968
tp462
asI54
(lp463
(S'don'
p464
g118
F0.5427
tp465
a(g15
g118
F0.478
tp466
a(S'eat'
p467
g13
F0.9837
tp468
a(S'you'
p469
g10
F0.9995
tp470
a(S'know'
p471
g13
F0.9987
tp472
a(S'too'
p473
g42
F0.9988
tp474
a(S'much'
p475
g28
F0.8381
tp476
asI55
(lp477
(S'don'
p478
g118
F0.5427
tp479
a(g15
g118
F0.4522
tp480
a(S'make'
p481
g13
F0.9963
tp482
a(S'it'
p483
g10
F0.9529
tp484
a(S'hurt'
p485
g13
F0.9908
tp486
a(S'more'
p487
g42
F0.7085
tp488
a(S'okay'
p489
g28
F0.5223
tp490
asI56
(lp491
(g9
g10
F0.9855
tp492
a(S'eat'
p493
g13
F0.9996
tp494
a(S'these'
p495
g3
F0.8901
tp496
a(S'fast'
p497
g28
F0.9281
tp498
asI57
(lp499
(S'well'
p500
g32
F0.782
tp501
a(S'don'
p502
g118
F0.55
tp503
a(g15
g118
F0.4844
tp504
a(S'eat'
p505
g13
F0.7844
tp506
a(S'fast'
p507
g28
F0.7079
tp508
asI58
(lp509
(S'he'
p510
g10
F0.9888
tp511
a(g99
g13
F0.6773
tp512
a(S'not'
p513
g42
F0.9856
tp514
asI59
(lp515
(S'he'
p516
g10
F0.9905
tp517
a(g99
g13
F0.5867
tp518
a(S'gonna'
p519
g13
F0.9946
tp520
a(S'eat'
p521
g13
F0.9937
tp522
a(S'slow'
p523
g28
F0.9376
tp524
asI60
(lp525
(S'giggles'
p526
g13
F0.5513
tp527
asI61
(lp528
(g9
g10
F0.953
tp529
a(g164
g13
F0.9882
tp530
a(g217
g3
F0.9961
tp531
a(S'dog'
p532
g6
F0.9994
tp533
asI62
(lp534
(S'ruff'
p535
g118
F0.3391
tp536
a(S'o'
p537
g47
F0.6918
tp538
a(S'ruff'
p539
g28
F0.2554
tp540
a(g537
g47
F0.627
tp541
asI63
(lp542
(S'want'
p543
g13
F0.9966
tp544
a(S'some'
p545
g3
F0.9912
tp546
a(S'broccoli'
p547
g6
F0.9967
tp548
asI64
(lp549
(S'mm'
p550
g13
F0.2233
tp551
a(S'it'
p552
g10
F0.9942
tp553
a(g99
g100
F0.7863
tp554
a(S'del'
p555
g100
F0.34
tp556
a(S'icious'
p557
S'L'
p558
F0.3253
tp559
asI65
(lp560
(S'no'
p561
g3
F0.8365
tp562
a(S'way'
p563
g6
F0.9976
tp564
asI66
(lp565
(S'lemon'
p566
g6
F0.6296
tp567
asI67
(lp568
(S'no'
p569
g3
F0.8365
tp570
a(S'way'
p571
g6
F0.9976
tp572
asI68
(lp573
(S'all'
p574
S'X'
p575
F0.7572
tp576
a(S'the'
p577
g3
F0.9998
tp578
a(S'nice'
p579
g28
F0.9684
tp580
a(S'florets'
p581
g47
F0.3432
tp582
a(S'd'
p583
g100
F0.4306
tp584
asI69
(lp585
(S'no'
p586
g32
F0.9253
tp587
asI70
(lp588
(S'like'
p589
g47
F0.6495
tp590
a(S'little'
p591
g28
F0.9982
tp592
a(S'trees'
p593
g6
F0.999
tp594
asI71
(lp595
(S'you'
p596
g10
F0.9969
tp597
a(S'can'
p598
g13
F0.9997
tp599
a(S'pretend'
p600
g13
F0.9999
tp601
a(S'you'
p602
g10
F0.9939
tp603
a(S're'
p604
g13
F0.9601
tp605
a(g217
g3
F0.9951
tp606
a(S'giant'
p607
g28
F0.9751
tp608
asI72
(lp609
(S'www'
p610
g118
F0.3889
tp611
asI73
(lp612
(S'no'
p613
g3
F0.8365
tp614
a(S'way'
p615
g6
F0.9976
tp616
asI74
(lp617
(S'laughs'
p618
g13
F0.9102
tp619
asI75
(lp620
(S'yuck'
p621
g32
F0.9931
tp622
a(S'yuck'
p623
g32
F0.9971
tp624
a(S'yuck'
p625
g32
F0.9949
tp626
a(S'yuck'
p627
g32
F0.9961
tp628
asI76
(lp629
(S'laughs'
p630
g13
F0.9102
tp631
asI77
(lp632
(S'was'
p633
g13
F0.9957
tp634
a(S'that'
p635
g10
F0.6224
tp636
a(S'me'
p637
g10
F0.9987
tp638
asI78
(lp639
(S'mm'
p640
g32
F0.627
tp641
asI79
(lp642
(S'giggles'
p643
g13
F0.5513
tp644
asI80
(lp645
(S'my'
p646
g3
F0.9245
tp647
a(S'gosh'
p648
g32
F0.477
tp649
a(S'got'
p650
g13
F0.9966
tp651
a(S'it'
p652
g10
F0.9865
tp653
asI81
(lp654
(S'sensitive'
p655
g28
F0.986
tp656
a(S'isn'
p657
g47
F0.5304
tp658
a(g15
g13
F0.6579
tp659
a(S'it'
p660
g10
F0.9936
tp661
a(S'laughs'
p662
g13
F0.9978
tp663
asI82
(lp664
(S'yeah'
p665
g32
F0.9988
tp666
asI83
(lp667
(S'laughs'
p668
g13
F0.9102
tp669
asI84
(lp670
(S'what'
p671
g10
F0.9784
tp672
a(g99
g100
F0.613
tp673
a(S'the'
p674
g3
F0.9986
tp675
a(S'matter'
p676
g6
F0.9916
tp677
asI85
(lp678
(S'well'
p679
g32
F0.8994
tp680
a(S'we'
p681
g10
F0.9988
tp682
a(S'were'
p683
g13
F0.9975
tp684
a(S'just'
p685
g42
F0.9992
tp686
a(S'checking'
p687
g13
F0.9999
tp688
a(S'out'
p689
g185
F0.5489
tp690
a(S'the'
p691
g3
F0.9994
tp692
a(S'little'
p693
g28
F0.9824
tp694
a(S'red'
p695
g28
F0.9875
tp696
a(S'light'
p697
g6
F0.9797
tp698
a(S'on'
p699
g47
F0.9985
tp700
a(S'it'
p701
g10
F0.9965
tp702
asI86
(lp703
(S'watch'
p704
g13
F0.9922
tp705
a(S'your'
p706
g3
F0.9928
tp707
a(S'juice'
p708
g6
F0.9964
tp709
asI87
(lp710
(S'like'
p711
g47
F0.8085
tp712
a(S'when'
p713
g42
F0.962
tp714
a(S'you'
p715
g10
F0.9986
tp716
a(S'talk'
p717
g13
F0.9998
tp718
a(S'it'
p719
g10
F0.9948
tp720
a(S'goes'
p721
g13
F0.9985
tp722
a(S'on'
p723
g185
F0.6532
tp724
asI88
(lp725
(S'oh'
p726
g32
F0.9988
tp727
asI89
(lp728
(S'see'
p729
g13
F0.8335
tp730
asI90
(lp731
(S'so'
p732
g42
F0.5317
tp733
asI91
(lp734
(S'see'
p735
g13
F0.8335
tp736
asI92
(lp737
(S'now'
p738
g42
F0.9896
tp739
a(S'if'
p740
g47
F0.9981
tp741
a(S'you'
p742
g10
F0.9998
tp743
a(S'say'
p744
g13
F0.9981
tp745
a(S'something'
p746
g6
F0.9524
tp747
a(S'watch'
p748
g13
F0.963
tp749
asI93
(lp750
(S'it'
p751
g10
F0.996
tp752
a(S'gets'
p753
g13
F0.9998
tp754
a(S'brighter'
p755
g28
F0.9755
tp756
a(S'as'
p757
g47
F0.9943
tp758
a(S'you'
p759
g10
F0.9996
tp760
a(S'talk'
p761
g13
F0.9911
tp762
asI94
(lp763
(S'what'
p764
g10
F0.949
tp765
asI95
(lp766
(S'that'
p767
g10
F0.8288
tp768
a(S'was'
p769
g13
F0.9998
tp770
a(S'my'
p771
g3
F0.9979
tp772
a(S'ice'
p773
g6
F0.8895
tp774
a(S'cube'
p775
g6
F0.9375
tp776
asI96
(lp777
(S'that'
p778
g3
F0.8052
tp779
a(S'little'
p780
g28
F0.9878
tp781
a(S'squeal'
p782
g6
F0.9605
tp783
a(S'was'
p784
g13
F0.9983
tp785
a(S'my'
p786
g3
F0.9981
tp787
a(S'ice'
p788
g6
F0.8707
tp789
a(S'cube'
p790
g6
F0.9425
tp791
asI97
(lp792
(S'laughs'
p793
g13
F0.9102
tp794
asI98
(lp795
(S'what'
p796
g10
F0.949
tp797
asI99
(lp798
(S'tell'
p799
g13
F0.8859
tp800
a(S'daddy'
p801
g6
F0.9659
tp802
a(S'what'
p803
g10
F0.7757
tp804
a(S'you'
p805
g10
F0.9998
tp806
a(S'did'
p807
g13
F0.9984
tp808
a(S'today'
p809
g6
F0.9248
tp810
a(S'what'
p811
g10
F0.8802
tp812
a(S'we'
p813
g10
F0.9995
tp814
a(S'did'
p815
g13
F0.9987
tp816
a(S'today'
p817
g6
F0.9275
tp818
asI100
(lp819
(g9
g10
F0.9879
tp820
a(S'can'
p821
g13
F0.9996
tp822
a(g15
g13
F0.5963
tp823
asI101
(lp824
(g9
g10
F0.9143
tp825
a(g583
g13
F0.5292
tp826
a(g9
g10
F0.987
tp827
a(S'don'
p828
g13
F0.9208
tp829
a(g15
g13
F0.2374
tp830
a(S'remember'
p831
g13
F0.9986
tp832
a(S'you'
p833
g10
F0.9969
tp834
asI102
(lp835
(S'sure'
p836
g28
F0.6212
tp837
a(S'you'
p838
g10
F0.9987
tp839
a(S'do'
p840
g13
F0.9994
tp841
asI103
(lp842
(S'well'
p843
g32
F0.8994
tp844
a(S'we'
p845
g10
F0.9986
tp846
a(S'didn'
p847
g13
F0.9873
tp848
a(g15
g13
F0.8378
tp849
a(S'do'
p850
g13
F0.9949
tp851
a(S'too'
p852
g42
F0.9993
tp853
a(S'much'
p854
g28
F0.8381
tp855
asI104
(lp856
(S'what'
p857
g10
F0.9965
tp858
a(S'did'
p859
g13
F0.9952
tp860
a(S'we'
p861
g10
F0.9989
tp862
a(S'do'
p863
g13
F0.999
tp864
asI105
(lp865
(S'we'
p866
g10
F0.9962
tp867
a(S'played'
p868
g13
F0.9994
tp869
a(S'some'
p870
g3
F0.9961
tp871
a(S'games'
p872
g6
F0.9963
tp873
asI106
(lp874
(S'what'
p875
g10
F0.6402
tp876
a(S'games'
p877
g6
F0.9871
tp878
a(S'did'
p879
g13
F0.9978
tp880
a(S'we'
p881
g10
F0.9982
tp882
a(S'play'
p883
g13
F0.9976
tp884
asI107
(lp885
(S'chutes'
p886
g6
F0.5112
tp887
a(S'and'
p888
g161
F0.9976
tp889
a(S'ladders'
p890
g6
F0.8999
tp891
asI108
(lp892
(S'remember'
p893
g13
F0.9121
tp894
a(S'game'
p895
g6
F0.9685
tp896
a(S'memory'
p897
g6
F0.99
tp898
a(S'game'
p899
g6
F0.9934
tp900
a(S'chutes'
p901
g6
F0.7552
tp902
a(S'and'
p903
g161
F0.9979
tp904
a(S'ladders'
p905
g6
F0.8437
tp906
asI109
(lp907
(S'mhm'
p908
g32
F0.9747
tp909
asI110
(lp910
(S'didn'
p911
g13
F0.598
tp912
a(g15
g13
F0.8031
tp913
a(S'we'
p914
g10
F0.9985
tp915
a(S'play'
p916
g13
F0.9944
tp917
a(S'fish'
p918
g6
F0.9892
tp919
asI111
(lp920
(S'mm'
p921
g32
F0.627
tp922
asI112
(lp923
(S'who'
p924
g10
F0.9956
tp925
a(S'won'
p926
g13
F0.9728
tp927
asI113
(lp928
(S'who'
p929
g10
F0.9959
tp930
a(S'won'
p931
g13
F0.9893
tp932
a(S'let'
p933
g13
F0.8733
tp934
a(g99
g100
F0.4951
tp935
a(S'see'
p936
g13
F0.9494
tp937
asI114
(lp938
(S'first'
p939
g28
F0.9793
tp940
a(S'time'
p941
g6
F0.997
tp942
a(S'we'
p943
g10
F0.9784
tp944
a(S'played'
p945
g13
F0.9986
tp946
a(S'chutes'
p947
g6
F0.4485
tp948
a(S'and'
p949
g161
F0.9979
tp950
a(S'ladders'
p951
g6
F0.8437
tp952
asI115
(lp953
(S'who'
p954
g10
F0.9956
tp955
a(S'won'
p956
g13
F0.9728
tp957
asI116
(lp958
(S'you'
p959
g10
F0.9627
tp960
asI117
(lp961
(g9
g10
F0.9895
tp962
a(S'think'
p963
g13
F0.9997
tp964
a(S'so'
p965
g42
F0.8029
tp966
asI118
(lp967
(S'and'
p968
g161
F0.9987
tp969
a(S'then'
p970
g42
F0.9675
tp971
a(S'we'
p972
g10
F0.9903
tp973
a(S'we'
p974
g10
F0.8524
tp975
a(S'we'
p976
g10
F0.9661
tp977
a(S'played'
p978
g13
F0.996
tp979
a(S'memory'
p980
g6
F0.9286
tp981
a(S'game'
p982
g6
F0.9936
tp983
asI119
(lp984
(S'who'
p985
g10
F0.9956
tp986
a(S'won'
p987
g13
F0.9953
tp988
a(S'that'
p989
g10
F0.7009
tp990
asI120
(lp991
(S'mhm'
p992
g32
F0.9747
tp993
asI121
(lp994
(S'you'
p995
g10
F0.9972
tp996
a(S'won'
p997
g13
F0.9728
tp998
asI122
(lp999
(S'yeah'
p1000
g32
F0.9958
tp1001
a(S'he'
p1002
g10
F0.9959
tp1003
a(g99
g13
F0.6523
tp1004
a(S'really'
p1005
g42
F0.9997
tp1006
a(S'good'
p1007
g28
F0.9951
tp1008
a(S'at'
p1009
g47
F0.9998
tp1010
a(S'the'
p1011
g3
F0.9993
tp1012
a(S'memory'
p1013
g6
F0.9777
tp1014
a(S'game'
p1015
g6
F0.9945
tp1016
asI123
(lp1017
(S'and'
p1018
g161
F0.9991
tp1019
a(S'we'
p1020
g10
F0.9962
tp1021
a(S'played'
p1022
g13
F0.9991
tp1023
a(S'chutes'
p1024
g6
F0.4812
tp1025
a(S'and'
p1026
g161
F0.998
tp1027
a(S'ladders'
p1028
g6
F0.8911
tp1029
a(S'again'
p1030
g42
F0.9948
tp1031
a(S'right'
p1032
g42
F0.4958
tp1033
asI124
(lp1034
(S'mhm'
p1035
g32
F0.9747
tp1036
asI125
(lp1037
(g9
g10
F0.9891
tp1038
a(S'won'
p1039
g13
F0.9873
tp1040
asI126
(lp1041
(S'mhm'
p1042
g32
F0.9747
tp1043
asI127
(lp1044
(S'and'
p1045
g161
F0.9991
tp1046
a(S'we'
p1047
g10
F0.9971
tp1048
a(S'played'
p1049
g13
F0.9983
tp1050
a(S'fish'
p1051
g6
F0.9843
tp1052
asI128
(lp1053
(g9
g10
F0.9891
tp1054
a(S'won'
p1055
g13
F0.9873
tp1056
asI129
(lp1057
(S'mhm'
p1058
g32
F0.9747
tp1059
asI130
(lp1060
(S'laughs'
p1061
g13
F0.9102
tp1062
asI131
(lp1063
(S'mm'
p1064
g32
F0.627
tp1065
asI132
(lp1066
(S'and'
p1067
g161
F0.9991
tp1068
a(S'we'
p1069
g10
F0.9977
tp1070
a(S'watched'
p1071
g13
F0.9985
tp1072
a(S'lady'
p1073
g6
F0.8733
tp1074
a(S'and'
p1075
g161
F0.9856
tp1076
a(S'the'
p1077
g3
F0.9988
tp1078
a(S'tramp'
p1079
g6
F0.928
tp1080
a(S'huh'
p1081
g32
F0.9366
tp1082
asI133
(lp1083
(S'yep'
p1084
g32
F0.9977
tp1085
asI134
(lp1086
(S'laughs'
p1087
g13
F0.9102
tp1088
asI135
(lp1089
(S'what'
p1090
g10
F0.9835
tp1091
a(S'are'
p1092
g13
F0.9978
tp1093
a(S'you'
p1094
g10
F0.9969
tp1095
a(S'you'
p1096
g10
F0.9907
tp1097
a(S'doin'
p1098
g13
F0.999
tp1099
a(S'g'
p1100
g6
F0.3372
tp1101
asI136
(lp1102
(S'what'
p1103
g10
F0.9962
tp1104
a(S'is'
p1105
g13
F0.9955
tp1106
a(S'xxx'
p1107
g70
F0.3534
tp1108
a(S'that'
p1109
g10
F0.5927
tp1110
asI137
(lp1111
(S'why'
p1112
g42
F0.7746
tp1113
a(S'is'
p1114
g13
F0.986
tp1115
a(S'music'
p1116
g6
F0.9846
tp1117
a(S'not'
p1118
g42
F0.9965
tp1119
a(S'comin'
p1120
g13
F0.9953
tp1121
a(g1100
g13
F0.7261
tp1122
a(S'out'
p1123
g47
F0.7795
tp1124
a(S'of'
p1125
g47
F0.9897
tp1126
a(S'there'
p1127
g3
F0.697
tp1128
a(S'man'
p1129
g6
F0.9292
tp1130
asI138
(lp1131
(S'well'
p1132
g32
F0.9664
tp1133
asI139
(lp1134
(S'see'
p1135
g13
F0.9805
tp1136
a(S'every'
p1137
g3
F0.9862
tp1138
a(S'time'
p1139
g6
F0.9906
tp1140
a(S'you'
p1141
g10
F0.9939
tp1142
a(S'talk'
p1143
g13
F0.9989
tp1144
a(S'that'
p1145
g3
F0.4751
tp1146
a(S'little'
p1147
g28
F0.9717
tp1148
a(S'red'
p1149
g28
F0.9875
tp1150
a(S'light'
p1151
g6
F0.9867
tp1152
a(S'comes'
p1153
g13
F0.9967
tp1154
a(S'on'
p1155
g185
F0.6247
tp1156
asI140
(lp1157
(S'when'
p1158
g42
F0.9641
tp1159
a(S'it'
p1160
g10
F0.9932
tp1161
a(g99
g13
F0.595
tp1162
a(S'not'
p1163
g42
F0.9946
tp1164
a(S'playing'
p1165
g13
F0.999
tp1166
a(S'music'
p1167
g6
F0.9959
tp1168
asI141
(lp1169
(S'it'
p1170
g10
F0.9888
tp1171
a(g99
g13
F0.7176
tp1172
a(S'recording'
p1173
g13
F0.9896
tp1174
a(S'what'
p1175
g10
F0.9623
tp1176
a(S'we'
p1177
g10
F0.9944
tp1178
a(S're'
p1179
g13
F0.7018
tp1180
a(S'talking'
p1181
g13
F0.9801
tp1182
a(S'about'
p1183
g47
F0.9336
tp1184
asI142
(lp1185
(S'oh'
p1186
g32
F0.9988
tp1187
asI143
(lp1188
(S'please'
p1189
g13
F0.8246
tp1190
asI144
(lp1191
(S'xxx'
p1192
g70
F0.8437
tp1193
asI145
(lp1194
(S'the'
p1195
g3
F0.9989
tp1196
a(S'name'
p1197
g6
F0.9997
tp1198
a(S'of'
p1199
g47
F0.9982
tp1200
a(S'it'
p1201
g10
F0.9948
tp1202
a(S'oh'
p1203
g32
F0.9731
tp1204
asI146
(lp1205
(S'mother'
p1206
g6
F0.9356
tp1207
asI147
(lp1208
(S'hm'
p1209
g32
F0.995
tp1210
asI148
(lp1211
(S'um'
p1212
g32
F0.9379
tp1213
a(S'um'
p1214
g32
F0.8006
tp1215
a(S'did'
p1216
g13
F0.9951
tp1217
a(S'we'
p1218
g10
F0.9979
tp1219
a(S'play'
p1220
g13
F0.9995
tp1221
a(S'any'
p1222
g3
F0.8592
tp1223
a(S'more'
p1224
g28
F0.9849
tp1225
a(S'games'
p1226
g6
F0.9978
tp1227
asI149
(lp1228
(g9
g10
F0.989
tp1229
a(S'think'
p1230
g13
F0.9999
tp1231
a(S'that'
p1232
g10
F0.9017
tp1233
a(S'was'
p1234
g13
F0.9997
tp1235
a(S'all'
p1236
g3
F0.7892
tp1237
a(S'we'
p1238
g10
F0.9972
tp1239
a(S'played'
p1240
g13
F0.9974
tp1241
asI150
(lp1242
(S'oh'
p1243
g32
F0.9988
tp1244
asI151
(lp1245
(S'um'
p1246
g32
F0.9268
tp1247
a(S'we'
p1248
g10
F0.9864
tp1249
a(S'we'
p1250
g10
F0.8613
tp1251
a(S'we'
p1252
g10
F0.9762
tp1253
a(S'played'
p1254
g13
F0.9997
tp1255
a(S'um'
p1256
g32
F0.8442
tp1257
asI152
(lp1258
(S'we'
p1259
g10
F0.9986
tp1260
a(S'did'
p1261
g13
F0.9997
tp1262
a(S'we'
p1263
g10
F0.9987
tp1264
a(S'played'
p1265
g13
F0.9964
tp1266
a(S'fish'
p1267
g6
F0.9697
tp1268
asI153
(lp1269
(S'mhm'
p1270
g32
F0.9747
tp1271
asI154
(lp1272
(S'and'
p1273
g161
F0.9991
tp1274
a(S'we'
p1275
g10
F0.9962
tp1276
a(S'played'
p1277
g13
F0.9999
tp1278
a(S'another'
p1279
g3
F0.9957
tp1280
a(S'fish'
p1281
g6
F0.9953
tp1282
a(S'right'
p1283
g42
F0.3558
tp1284
asI155
(lp1285
(S'oh'
p1286
g32
F0.9987
tp1287
a(S'yeah'
p1288
g32
F0.9997
tp1289
asI156
(lp1290
(S'did'
p1291
g13
F0.9918
tp1292
a(S'we'
p1293
g10
F0.9982
tp1294
a(S'play'
p1295
g13
F0.9965
tp1296
a(S'fish'
p1297
g6
F0.9901
tp1298
a(S'twice'
p1299
g42
F0.9736
tp1300
asI157
(lp1301
(S'uh'
p1302
g32
F0.9869
tp1303
a(S'yes'
p1304
g32
F0.9975
tp1305
asI158
(lp1306
(S'no'
p1307
g32
F0.9253
tp1308
asI159
(lp1309
(g9
g10
F0.989
tp1310
a(S'think'
p1311
g13
F0.9999
tp1312
a(S'we'
p1313
g10
F0.9966
tp1314
a(S'just'
p1315
g42
F0.9996
tp1316
a(S'played'
p1317
g13
F0.9793
tp1318
a(S'one'
p1319
S'$'
p1320
F0.9383
tp1321
a(S'time'
p1322
g6
F0.9958
tp1323
asI160
(lp1324
(S'yes'
p1325
g32
F0.9958
tp1326
asI161
(lp1327
(S'no'
p1328
g32
F0.791
tp1329
a(S'yes'
p1330
g32
F0.8885
tp1331
a(S'no'
p1332
g32
F0.7817
tp1333
a(S'yes'
p1334
g32
F0.8349
tp1335
a(S'no'
p1336
g32
F0.7821
tp1337
a(S'yes'
p1338
g32
F0.833
tp1339
a(S'no'
p1340
g32
F0.7815
tp1341
a(S'yes'
p1342
g32
F0.9518
tp1343
asI162
(lp1344
(S'laughs'
p1345
g13
F0.9102
tp1346
asI163
(lp1347
(S'xxx'
p1348
g70
F0.8437
tp1349
asI164
(lp1350
(S'here'
p1351
g42
F0.9489
tp1352
a(S'have'
p1353
g13
F0.9813
tp1354
a(S'some'
p1355
g3
F0.9715
tp1356
a(S'more'
p1357
g28
F0.9795
tp1358
a(S'sandwich'
p1359
g6
F0.9976
tp1360
asI165
(lp1361
(S'father'
p1362
g6
F0.9184
tp1363
a(S'name'
p1364
g6
F0.9865
tp1365
asI166
(lp1366
(S'yeah'
p1367
g32
F0.9988
tp1368
asI167
(lp1369
(g9
g10
F0.9827
tp1370
a(S'love'
p1371
g13
F0.9996
tp1372
a(S'you'
p1373
g10
F0.999
tp1374
asI168
(lp1375
(S'want'
p1376
g13
F0.9966
tp1377
a(S'some'
p1378
g3
F0.8638
tp1379
asI169
(lp1380
(S'that'
p1381
g10
F0.4727
tp1382
a(g99
g13
F0.3913
tp1383
a(S'nice'
p1384
g28
F0.9891
tp1385
asI170
(lp1386
(S'wanna'
p1387
g13
F0.9523
tp1388
a(S'try'
p1389
g13
F0.9991
tp1390
a(S'some'
p1391
g3
F0.9875
tp1392
a(S'chicken'
p1393
g6
F0.9315
tp1394
asI171
(lp1395
(g9
g10
F0.9818
tp1396
a(S'love'
p1397
g13
F0.9996
tp1398
a(S'you'
p1399
g10
F0.9993
tp1400
a(S'too'
p1401
g42
F0.9886
tp1402
asI172
(lp1403
(S'no'
p1404
g32
F0.6674
tp1405
a(S'no'
p1406
g32
F0.7525
tp1407
a(S'thank'
p1408
g13
F0.9169
tp1409
a(S'you'
p1410
g10
F0.9987
tp1411
asI173
(lp1412
(S'it'
p1413
g10
F0.9888
tp1414
a(g99
g13
F0.4876
tp1415
a(S'really'
p1416
g42
F0.9995
tp1417
a(S'good'
p1418
g28
F0.9983
tp1419
asI174
(lp1420
(S'no'
p1421
g32
F0.9253
tp1422
asI175
(lp1423
(g9
g10
F0.9888
tp1424
a(S'tried'
p1425
g13
F0.9998
tp1426
a(S'it'
p1427
g10
F0.967
tp1428
a(S'when'
p1429
g42
F0.9887
tp1430
a(S'you'
p1431
g10
F0.9993
tp1432
a(S'have'
p1433
g13
F0.9998
tp1434
a(g217
g3
F0.9963
tp1435
a(S'party'
p1436
g6
F0.9966
tp1437
a(S'at'
p1438
g47
F0.9951
tp1439
a(S'at'
p1440
g47
F0.7861
tp1441
a(S'at'
p1442
g47
F0.9931
tp1443
a(S'your'
p1444
g3
F0.9967
tp1445
a(S'mother'
p1446
g6
F0.9955
tp1447
a(g99
g100
F0.6918
tp1448
a(S'house'
p1449
g6
F0.9088
tp1450
asI176
(lp1451
(S'oh'
p1452
g32
F0.9987
tp1453
a(S'yeah'
p1454
g32
F0.9997
tp1455
asI177
(lp1456
(S'that'
p1457
g10
F0.514
tp1458
a(S'that'
p1459
g10
F0.9207
tp1460
a(S'was'
p1461
g13
F0.9981
tp1462
a(S'chicken'
p1463
g6
F0.8367
tp1464
asI178
(lp1465
(S'well'
p1466
g42
F0.5656
tp1467
a(S'here'
p1468
g42
F0.9793
tp1469
a(S'have'
p1470
g13
F0.9885
tp1471
a(S'some'
p1472
g3
F0.976
tp1473
a(S'more'
p1474
g28
F0.8434
tp1475
a(S'of'
p1476
g47
F0.9994
tp1477
a(S'your'
p1478
g3
F0.936
tp1479
asI179
(lp1480
(S'right'
p1481
g32
F0.861
tp1482
asI180
(lp1483
(S'you'
p1484
g10
F0.998
tp1485
a(S'ate'
p1486
g13
F0.9996
tp1487
a(g217
g3
F0.9981
tp1488
a(S'whole'
p1489
g28
F0.9904
tp1490
a(S'bunch'
p1491
g6
F0.9964
tp1492
a(S'of'
p1493
g47
F0.9989
tp1494
a(S'it'
p1495
g10
F0.9977
tp1496
a(S'that'
p1497
g3
F0.7597
tp1498
a(S'time'
p1499
g6
F0.9963
tp1500
a(S'didn'
p1501
g13
F0.9261
tp1502
a(g15
g13
F0.9109
tp1503
a(S'you'
p1504
g10
F0.9964
tp1505
asI181
(lp1506
(S'yep'
p1507
g32
F0.9977
tp1508
asI182
(lp1509
(S'have'
p1510
g13
F0.9967
tp1511
a(S'some'
p1512
g3
F0.9747
tp1513
a(S'more'
p1514
g28
F0.9418
tp1515
a(S'uh'
p1516
g32
F0.8813
tp1517
asI183
(lp1518
(S'xxx'
p1519
g70
F0.8437
tp1520
asI184
(lp1521
(S'you'
p1522
g10
F0.9968
tp1523
a(S'will'
p1524
g13
F0.999
tp1525
a(S'get'
p1526
g13
F0.9999
tp1527
a(g217
g3
F0.9981
tp1528
a(S'tummy'
p1529
g6
F0.99
tp1530
a(S'ache'
p1531
g13
F0.9604
tp1532
a(S'maybe'
p1533
g42
F0.9735
tp1534
asI185
(lp1535
(S'sandwich'
p1536
g6
F0.9778
tp1537
a(S'then'
p1538
g42
F0.91
tp1539
a(S'chi'
p1540
g118
F0.4034
tp1541
asI186
(lp1542
(S'no'
p1543
g32
F0.9253
tp1544
asI187
(lp1545
(S'here'
p1546
g42
F0.7796
tp1547
asI188
(lp1548
(S'have'
p1549
g13
F0.9967
tp1550
a(S'some'
p1551
g3
F0.9778
tp1552
a(S'more'
p1553
g28
F0.979
tp1554
a(S'food'
p1555
g6
F0.9844
tp1556
a(S'you'
p1557
g10
F0.9547
tp1558
a(S'you'
p1559
g10
F0.9936
tp1560
a(S'might'
p1561
g13
F0.9972
tp1562
asI189
(lp1563
(g9
g10
F0.9635
tp1564
a(S'don'
p1565
g13
F0.9231
tp1566
a(g15
g13
F0.3155
tp1567
a(S'think'
p1568
g13
F0.9977
tp1569
a(S'that'
p1570
g10
F0.5528
tp1571
a(g99
g100
F0.4628
tp1572
a(S'what'
p1573
g10
F0.9943
tp1574
a(S'gave'
p1575
g13
F0.9992
tp1576
a(S'you'
p1577
g10
F0.9973
tp1578
a(S'the'
p1579
g3
F0.9995
tp1580
a(S'tummy'
p1581
g6
F0.9859
tp1582
a(S'ache'
p1583
g13
F0.9714
tp1584
a(S'be'
p1585
g13
F0.9792
tp1586
a(S'cause'
p1587
g47
F0.8783
tp1588
a(S'that'
p1589
g10
F0.8934
tp1590
a(S'was'
p1591
g13
F0.9985
tp1592
a(S'kind'
p1593
g6
F0.7267
tp1594
a(S'of'
p1595
g47
F0.9985
tp1596
a(g217
g3
F0.9973
tp1597
a(S'long'
p1598
g28
F0.9983
tp1599
a(S'time'
p1600
g6
F0.999
tp1601
a(S'ago'
p1602
g42
F0.9859
tp1603
a(S'and'
p1604
g161
F0.9969
tp1605
a(S'you'
p1606
g10
F0.9991
tp1607
a(S'just'
p1608
g42
F0.9995
tp1609
a(S'got'
p1610
g13
F0.9997
tp1611
a(S'your'
p1612
g3
F0.99
tp1613
a(S'tummy'
p1614
g6
F0.9964
tp1615
a(S'ache'
p1616
g13
F0.9784
tp1617
a(S'now'
p1618
g42
F0.9909
tp1619
asI190
(lp1620
(S'that'
p1621
g10
F0.8288
tp1622
a(S'was'
p1623
g13
F0.9996
tp1624
a(g217
g3
F0.9991
tp1625
a(S'couple'
p1626
g6
F0.9555
tp1627
a(g537
g47
F0.9105
tp1628
a(S'f'
p1629
g100
F0.3131
tp1630
a(S'weeks'
p1631
g6
F0.8423
tp1632
a(S'ago'
p1633
g47
F0.6592
tp1634
a(S'that'
p1635
g47
F0.8318
tp1636
a(S'you'
p1637
g10
F0.9997
tp1638
a(S'ate'
p1639
g13
F0.9994
tp1640
a(S'that'
p1641
g3
F0.6953
tp1642
a(S'chicken'
p1643
g6
F0.9265
tp1644
asI191
(lp1645
(S'it'
p1646
g10
F0.9922
tp1647
a(S'doesn'
p1648
g13
F0.991
tp1649
a(g15
g6
F0.2774
tp1650
a(S'take'
p1651
g13
F0.9969
tp1652
a(g217
g3
F0.998
tp1653
a(S'few'
p1654
g28
F0.9136
tp1655
a(S'weeks'
p1656
g6
F0.9974
tp1657
a(S'to'
p1658
g47
F0.9997
tp1659
a(S'get'
p1660
g13
F0.9999
tp1661
a(g217
g3
F0.9978
tp1662
a(S'tummy'
p1663
g6
F0.9922
tp1664
a(S'ache'
p1665
g13
F0.9411
tp1666
asI192
(lp1667
(S'have'
p1668
g13
F0.9965
tp1669
a(S'some'
p1670
g3
F0.9747
tp1671
a(S'more'
p1672
g28
F0.9335
tp1673
asI193
(lp1674
(S'you'
p1675
g10
F0.9968
tp1676
a(S'could'
p1677
g13
F0.9995
tp1678
a(S'have'
p1679
g13
F0.9997
tp1680
a(g217
g3
F0.9986
tp1681
a(S'tummy'
p1682
g6
F0.9915
tp1683
a(S'ache'
p1684
g13
F0.9885
tp1685
a(S'because'
p1686
g47
F0.9987
tp1687
a(S'you'
p1688
g10
F0.9984
tp1689
a(S're'
p1690
g13
F0.8223
tp1691
a(S'hungry'
p1692
g28
F0.9222
tp1693
asI194
(lp1694
(S'because'
p1695
g47
F0.9978
tp1696
a(S'you'
p1697
g10
F0.9884
tp1698
a(S'haven'
p1699
g13
F0.5277
tp1700
a(g15
g100
F0.3469
tp1701
a(S'been'
p1702
g13
F0.9834
tp1703
a(S'eating'
p1704
g13
F0.9982
tp1705
asI195
(lp1706
(S'here'
p1707
g42
F0.941
tp1708
a(S'don'
p1709
g118
F0.382
tp1710
a(g15
g13
F0.42
tp1711
a(S'you'
p1712
g10
F0.9995
tp1713
a(S'want'
p1714
g13
F0.9999
tp1715
a(S'some'
p1716
g3
F0.9404
tp1717
a(S'more'
p1718
g28
F0.9176
tp1719
a(S'of'
p1720
g47
F0.9981
tp1721
a(S'that'
p1722
g10
F0.8058
tp1723
asI196
(lp1724
(S'hurry'
p1725
g13
F0.4615
tp1726
a(S'or'
p1727
g161
F0.9883
tp1728
a(g9
g10
F0.9873
tp1729
a(S'll'
p1730
g13
F0.7509
tp1731
a(S'beat'
p1732
g13
F0.9993
tp1733
a(S'you'
p1734
g10
F0.9601
tp1735
a(S'guys'
p1736
g6
F0.9621
tp1737
asI197
(lp1738
(S'well'
p1739
g32
F0.8573
tp1740
a(g9
g10
F0.9915
tp1741
a(g164
g13
F0.9727
tp1742
a(S'almost'
p1743
g42
F0.9953
tp1744
a(S'done'
p1745
g13
F0.9886
tp1746
a(S'so'
p1747
g42
F0.5612
tp1748
asI198
(lp1749
(S'don'
p1750
g118
F0.5427
tp1751
a(g15
g118
F0.478
tp1752
a(S'eat'
p1753
g13
F0.9077
tp1754
a(S'too'
p1755
g42
F0.998
tp1756
a(S'fast'
p1757
g28
F0.8052
tp1758
asI199
(lp1759
(S'just'
p1760
g42
F0.9988
tp1761
a(S'have'
p1762
g13
F0.9987
tp1763
a(S'some'
p1764
g3
F0.9743
tp1765
a(S'more'
p1766
g28
F0.8941
tp1767
a(S'of'
p1768
g47
F0.9971
tp1769
a(S'that'
p1770
g10
F0.8908
tp1771
a(S'anyway'
p1772
g42
F0.9887
tp1773
asI200
(lp1774
(g9
g10
F0.953
tp1775
a(g164
g13
F0.9629
tp1776
a(S'gonna'
p1777
g13
F0.9955
tp1778
a(S'beat'
p1779
g13
F0.9933
tp1780
a(S'father'
p1781
g6
F0.8917
tp1782
a(S'name'
p1783
g6
F0.9866
tp1784
asI201
(lp1785
(S'he'
p1786
g10
F0.998
tp1787
a(S'is'
p1788
g13
F0.9997
tp1789
a(S'not'
p1790
g42
F0.9932
tp1791
asI202
(lp1792
(S'you'
p1793
g10
F0.9721
tp1794
a(S'better'
p1795
g42
F0.5018
tp1796
a(S'start'
p1797
g13
F0.9652
tp1798
a(S'eating'
p1799
g13
F0.9861
tp1800
a(S'then'
p1801
g42
F0.9747
tp1802
asI203
(lp1803
(S'xxx'
p1804
g70
F0.7198
tp1805
a(S'even'
p1806
g42
F0.9916
tp1807
a(S'though'
p1808
g47
F0.9816
tp1809
a(S'he'
p1810
g10
F0.9977
tp1811
a(S'seemed'
p1812
g13
F0.999
tp1813
a(S'to'
p1814
g47
F0.9908
tp1815
a(S'feel'
p1816
g13
F0.999
tp1817
a(S'better'
p1818
g28
F0.851
tp1819
a(S'today'
p1820
g6
F0.9953
tp1821
a(g9
g10
F0.8646
tp1822
a(g164
g13
F0.9855
tp1823
a(S'glad'
p1824
g28
F0.9664
tp1825
a(g9
g10
F0.9814
tp1826
a(S'kept'
p1827
g13
F1.0
tp1828
a(S'him'
p1829
g10
F0.9958
tp1830
a(S'out'
p1831
g47
F0.8418
tp1832
a(S'of'
p1833
g47
F0.9836
tp1834
a(S'day'
p1835
g6
F0.9847
tp1836
a(S'care'
p1837
g13
F0.6717
tp1838
asI204
(lp1839
(S'mhm'
p1840
g32
F0.9747
tp1841
asI205
(lp1842
(S'he'
p1843
g10
F0.9927
tp1844
a(S'still'
p1845
g42
F0.9945
tp1846
a(S'seemed'
p1847
g13
F0.9883
tp1848
a(S'to'
p1849
g47
F0.9882
tp1850
a(S'be'
p1851
g13
F0.9999
tp1852
a(S'you'
p1853
g10
F0.9996
tp1854
a(S'know'
p1855
g13
F0.9981
tp1856
a(S'kind'
p1857
g6
F0.6114
tp1858
a(g537
g47
F0.9105
tp1859
a(g1629
g100
F0.7167
tp1860
a(S'xxx'
p1861
g100
F0.4593
tp1862
a(S'huh'
p1863
g32
F0.9283
tp1864
asI206
(lp1865
(S'didn'
p1866
g13
F0.598
tp1867
a(g15
g13
F0.7554
tp1868
a(S'want'
p1869
g13
F0.9988
tp1870
a(S'the'
p1871
g3
F0.9997
tp1872
a(S'other'
p1873
g28
F0.9943
tp1874
a(S'children'
p1875
g6
F0.9879
tp1876
a(S'to'
p1877
g47
F0.9984
tp1878
a(S'catch'
p1879
g13
F0.9996
tp1880
a(S'my'
p1881
g3
F0.9966
tp1882
a(S'tummy'
p1883
g6
F0.9893
tp1884
a(S'ache'
p1885
g13
F0.9113
tp1886
asI207
(lp1887
(S'right'
p1888
g32
F0.861
tp1889
asI208
(lp1890
(S'or'
p1891
g161
F0.9925
tp1892
a(S'your'
p1893
g3
F0.9589
tp1894
a(S'fever'
p1895
g6
F0.9983
tp1896
asI209
(lp1897
(S'fever'
p1898
g6
F0.9545
tp1899
asI210
(lp1900
(S'well'
p1901
g32
F0.9502
tp1902
a(S'that'
p1903
g10
F0.813
tp1904
a(g99
g100
F0.4388
tp1905
a(S'what'
p1906
g10
F0.9808
tp1907
a(S'when'
p1908
g42
F0.9876
tp1909
a(S'you'
p1910
g10
F0.9987
tp1911
a(S'feel'
p1912
g13
F0.9981
tp1913
a(S'when'
p1914
g42
F0.9603
tp1915
a(S'your'
p1916
g3
F0.9865
tp1917
a(S'skin'
p1918
g6
F0.9996
tp1919
a(S'feels'
p1920
g13
F0.9742
tp1921
a(S'real'
p1922
g28
F0.7542
tp1923
a(S'hot'
p1924
g28
F0.954
tp1925
asI211
(lp1926
(S'that'
p1927
g10
F0.473
tp1928
a(g99
g13
F0.5844
tp1929
a(g217
g3
F0.9965
tp1930
a(S'fever'
p1931
g6
F0.9972
tp1932
asI212
(lp1933
(S'oh'
p1934
g32
F0.9988
tp1935
asI213
(lp1936
(S'oh'
p1937
g32
F0.9988
tp1938
asI214
(lp1939
(S'are'
p1940
g13
F0.9963
tp1941
a(S'you'
p1942
g10
F0.99
tp1943
a(S'hot'
p1944
g28
F0.9647
tp1945
asI215
(lp1946
(S'are'
p1947
g13
F0.9963
tp1948
a(S'you'
p1949
g10
F0.99
tp1950
a(S'hot'
p1951
g28
F0.9647
tp1952
asI216
(lp1953
(S'it'
p1954
g10
F0.9888
tp1955
a(g99
g13
F0.5186
tp1956
a(S'really'
p1957
g42
F0.9998
tp1958
a(S'hard'
p1959
g28
F0.8486
tp1960
a(S'to'
p1961
g47
F0.997
tp1962
a(S'understand'
p1963
g13
F0.9998
tp1964
a(S'you'
p1965
g10
F0.9981
tp1966
a(S'when'
p1967
g42
F0.9919
tp1968
a(S'you'
p1969
g10
F0.9985
tp1970
a(S'talk'
p1971
g13
F0.9978
tp1972
a(S'with'
p1973
g47
F0.9986
tp1974
a(S'food'
p1975
g6
F0.9715
tp1976
a(S'in'
p1977
g47
F0.9979
tp1978
a(S'your'
p1979
g3
F0.9963
tp1980
a(S'mouth'
p1981
g6
F0.9999
tp1982
a(S'though'
p1983
g47
F0.8743
tp1984
a(S'okay'
p1985
g32
F0.7887
tp1986
asI217
(lp1987
(g9
g10
F0.9895
tp1988
a(S'say'
p1989
g13
F0.9987
tp1990
a(S'are'
p1991
g13
F0.9974
tp1992
a(S'you'
p1993
g10
F0.9893
tp1994
a(S'hot'
p1995
g28
F0.9532
tp1996
asI218
(lp1997
(S'well'
p1998
g32
F0.9291
tp1999
a(S'yeah'
p2000
g32
F0.9881
tp2001
a(S'it'
p2002
g10
F0.9956
tp2003
a(g99
g13
F0.4212
tp2004
a(S'pretty'
p2005
g42
F0.9719
tp2006
a(S'warm'
p2007
g28
F0.9596
tp2008
a(S'in'
p2009
g47
F0.9884
tp2010
a(S'here'
p2011
g42
F0.9062
tp2012
asI219
(lp2013
(S'www'
p2014
g118
F0.4824
tp2015
a(S'hums'
p2016
g6
F0.4598
tp2017
asI220
(lp2018
(S'it'
p2019
g10
F0.9888
tp2020
a(g99
g13
F0.585
tp2021
a(S'not'
p2022
g42
F0.9819
tp2023
a(S'that'
p2024
g42
F0.3692
tp2025
a(S'bad'
p2026
g28
F0.9889
tp2027
asI221
(lp2028
(S'are'
p2029
g13
F0.9963
tp2030
a(S'you'
p2031
g10
F0.99
tp2032
a(S'hot'
p2033
g28
F0.9647
tp2034
asI222
(lp2035
(S'no'
p2036
g32
F0.9253
tp2037
asI223
(lp2038
(S'oh'
p2039
g32
F0.9949
tp2040
a(S'chi'
p2041
g32
F0.5036
tp2042
a(S'not'
p2043
g42
F0.9485
tp2044
a(S'the'
p2045
g3
F0.9984
tp2046
a(S'fan'
p2047
g6
F0.9924
tp2048
asI224
(lp2049
(S'yes'
p2050
g32
F0.9958
tp2051
asI225
(lp2052
(S'it'
p2053
g10
F0.9904
tp2054
a(S'll'
p2055
g42
F0.5912
tp2056
a(S'cool'
p2057
g28
F0.9512
tp2058
a(g537
g47
F0.981
tp2059
a(S'it'
p2060
g10
F0.9982
tp2061
a(S'll'
p2062
g42
F0.7095
tp2063
a(S'cool'
p2064
g28
F0.8225
tp2065
a(S'our'
p2066
g3
F0.9897
tp2067
a(S'meal'
p2068
g6
F0.9994
tp2069
a(S'off'
p2070
g47
F0.7285
tp2071
a(S'too'
p2072
g42
F0.9986
tp2073
a(S'quickly'
p2074
g42
F0.9695
tp2075
asI226
(lp2076
(S'come'
p2077
g13
F0.9897
tp2078
a(S'on'
p2079
g47
F0.9231
tp2080
a(S'chi'
p2081
g118
F0.592
tp2082
a(S'you'
p2083
g10
F0.9809
tp2084
a(S're'
p2085
g13
F0.7701
tp2086
a(S'making'
p2087
g13
F0.9983
tp2088
a(g217
g3
F0.9953
tp2089
a(S'mess'
p2090
g6
F0.9939
tp2091
asI227
(lp2092
(S'will'
p2093
g13
F0.9979
tp2094
a(S'you'
p2095
g10
F0.9985
tp2096
a(S'please'
p2097
g13
F0.9984
tp2098
a(S'sit'
p2099
g13
F0.9953
tp2100
a(S'down'
p2101
g185
F0.9204
tp2102
asI228
(lp2103
(S'thank'
p2104
g13
F0.9631
tp2105
a(S'you'
p2106
g10
F0.9987
tp2107
asI229
(lp2108
(S'it'
p2109
g10
F0.9888
tp2110
a(g99
g13
F0.5703
tp2111
a(S'too'
p2112
g42
F0.9981
tp2113
a(S'cold'
p2114
g28
F0.9977
tp2115
a(S'to'
p2116
g47
F0.9978
tp2117
a(S'have'
p2118
g13
F0.9999
tp2119
a(S'that'
p2120
g10
F0.7207
tp2121
a(S'on'
p2122
g47
F0.9432
tp2123
a(S'anyway'
p2124
g42
F0.9844
tp2125
asI230
(lp2126
(S'sighs'
p2127
g13
F0.7567
tp2128
asI231
(lp2129
(g9
g10
F0.9873
tp2130
a(S'can'
p2131
g13
F0.9996
tp2132
a(g15
g13
F0.7886
tp2133
a(S'eat'
p2134
g13
F0.9305
tp2135
a(S'anymore'
p2136
g42
F0.9909
tp2137
asI232
(lp2138
(S'good'
p2139
g28
F0.9848
tp2140
a(S'sandwich'
p2141
g6
F0.9993
tp2142
a(S'though'
p2143
g47
F0.9588
tp2144
a(S'huh'
p2145
g32
F0.8652
tp2146
asI233
(lp2147
(S'yep'
p2148
g32
F0.9977
tp2149
asI234
(lp2150
(S'what'
p2151
g10
F0.9835
tp2152
a(S'are'
p2153
g13
F0.9976
tp2154
a(S'you'
p2155
g10
F0.9994
tp2156
a(S'doing'
p2157
g13
F0.9994
tp2158
asI235
(lp2159
(S'you'
p2160
g10
F0.9754
tp2161
a(S're'
p2162
g13
F0.94
tp2163
a(S'all'
p2164
g3
F0.757
tp2165
a(S'done'
p2166
g13
F0.4507
tp2167
asI236
(lp2168
(S'don'
p2169
g118
F0.5427
tp2170
a(g15
g13
F0.4091
tp2171
a(S'you'
p2172
g10
F0.9996
tp2173
a(S'want'
p2174
g13
F0.9998
tp2175
a(S'any'
p2176
g3
F0.9942
tp2177
a(S'cantaloupe'
p2178
g6
F0.9954
tp2179
asI237
(lp2180
(S'no'
p2181
g32
F0.9253
tp2182
asI238
(lp2183
(S'well'
p2184
g32
F0.8349
tp2185
a(S'if'
p2186
g47
F0.9958
tp2187
a(S'it'
p2188
g10
F0.9991
tp2189
a(S'hurts'
p2190
g13
F0.9996
tp2191
a(S'your'
p2192
g3
F0.9819
tp2193
a(S'tummy'
p2194
g6
F0.9965
tp2195
a(S'to'
p2196
g47
F0.9995
tp2197
a(S'eat'
p2198
g13
F0.9956
tp2199
a(S'then'
p2200
g42
F0.9733
tp2201
a(S'don'
p2202
g118
F0.4406
tp2203
a(g15
g118
F0.4732
tp2204
a(S'eat'
p2205
g13
F0.7528
tp2206
a(S'but'
p2207
g161
F0.9748
tp2208
a(S'you'
p2209
g10
F0.9995
tp2210
a(S'may'
p2211
g13
F0.991
tp2212
a(S'not'
p2213
g42
F0.9954
tp2214
a(S'have'
p2215
g13
F0.9984
tp2216
a(S'anything'
p2217
g6
F0.9968
tp2218
a(S'else'
p2219
g42
F0.9427
tp2220
asI239
(lp2221
(S'this'
p2222
g10
F0.6554
tp2223
a(S'will'
p2224
g13
F0.99
tp2225
a(S'make'
p2226
g13
F0.9998
tp2227
a(S'your'
p2228
g3
F0.9947
tp2229
a(S'tummy'
p2230
g6
F0.9936
tp2231
a(S'feel'
p2232
g13
F0.9869
tp2233
a(S'better'
p2234
g42
F0.5714
tp2235
a(S'probably'
p2236
g42
F0.9998
tp2237
a(S'chi'
p2238
g100
F0.4256
tp2239
asI240
(lp2240
(S'now'
p2241
g42
F0.9901
tp2242
a(g9
g10
F0.976
tp2243
a(g164
g13
F0.9794
tp2244
a(S'not'
p2245
g42
F0.9956
tp2246
a(S'gonna'
p2247
g13
F0.9972
tp2248
a(S'get'
p2249
g13
F0.9999
tp2250
a(S'any'
p2251
g3
F0.9361
tp2252
asI241
(lp2253
(S'be'
p2254
g13
F0.9727
tp2255
a(S'cause'
p2256
g47
F0.9443
tp2257
a(S'you'
p2258
g10
F0.9862
tp2259
a(S'haven'
p2260
g13
F0.5573
tp2261
a(g15
g100
F0.2849
tp2262
a(S'eaten'
p2263
g13
F0.98
tp2264
a(S'and'
p2265
g161
F0.9973
tp2266
a(S'so'
p2267
g42
F0.5974
tp2268
a(S'that'
p2269
g10
F0.4657
tp2270
a(g99
g100
F0.4941
tp2271
a(S'why'
p2272
g42
F0.8722
tp2273
a(S'your'
p2274
g3
F0.9723
tp2275
a(S'tummy'
p2276
g6
F0.9879
tp2277
a(g99
g100
F0.7509
tp2278
a(S'probably'
p2279
g42
F0.9974
tp2280
a(S'doesn'
p2281
g13
F0.9772
tp2282
a(g15
g6
F0.2176
tp2283
a(S'feel'
p2284
g13
F0.9648
tp2285
a(S'very'
p2286
g42
F0.9969
tp2287
a(S'good'
p2288
g28
F0.9995
tp2289
a(S'be'
p2290
g13
F0.4223
tp2291
a(S'cause'
p2292
g47
F0.9396
tp2293
a(S'you'
p2294
g10
F0.9989
tp2295
a(S'don'
p2296
g13
F0.8626
tp2297
a(g15
g6
F0.2172
tp2298
a(S'have'
p2299
g13
F0.9991
tp2300
a(S'any'
p2301
g3
F0.9975
tp2302
a(S'food'
p2303
g6
F0.9963
tp2304
asI242
(lp2305
(S'touching'
p2306
g13
F0.8304
tp2307
a(S'stomach'
p2308
g6
F0.9925
tp2309
asI243
(lp2310
(S'that'
p2311
g10
F0.6399
tp2312
a(S'wouldn'
p2313
g13
F0.9503
tp2314
a(g15
g13
F0.8329
tp2315
a(S'be'
p2316
g13
F0.9793
tp2317
a(S'bad'
p2318
g28
F0.9908
tp2319
a(S'news'
p2320
g6
F0.9906
tp2321
asI244
(lp2322
(S'www'
p2323
g118
F0.3889
tp2324
asI245
(lp2325
(S'oh'
p2326
g32
F0.9988
tp2327
asI246
(lp2328
(S'uhoh'
p2329
g32
F0.9931
tp2330
asI247
(lp2331
(S'www'
p2332
g118
F0.3889
tp2333
asI248
(lp2334
(S'one'
p2335
g1320
F0.9471
tp2336
a(S'sick'
p2337
g28
F0.9978
tp2338
a(S'pony'
p2339
g6
F0.9987
tp2340
asI249
(lp2341
(S'www'
p2342
g118
F0.3889
tp2343
asI250
(lp2344
(S'you'
p2345
g10
F0.9968
tp2346
a(S'wanna'
p2347
g13
F0.9968
tp2348
a(S'lie'
p2349
g13
F0.9977
tp2350
a(S'down'
p2351
g185
F0.761
tp2352
a(S'on'
p2353
g47
F0.9967
tp2354
a(S'the'
p2355
g3
F0.9994
tp2356
a(S'couch'
p2357
g6
F0.9947
tp2358
a(S'for'
p2359
g47
F0.9998
tp2360
a(g217
g3
F0.9985
tp2361
a(S'little'
p2362
g28
F0.9734
tp2363
a(S'while'
p2364
g47
F0.5829
tp2365
asI251
(lp2366
(S'there'
p2367
g575
F0.4916
tp2368
a(S'wasn'
p2369
g13
F0.4643
tp2370
a(g15
g13
F0.262
tp2371
a(S'anything'
p2372
g6
F0.9831
tp2373
asI252
(lp2374
(S'can'
p2375
g13
F0.9755
tp2376
a(g9
g10
F0.9845
tp2377
a(S'watch'
p2378
g13
F0.9975
tp2379
a(S'xxx'
p2380
g70
F0.7516
tp2381
asI253
(lp2382
(S'oh'
p2383
g32
F0.9948
tp2384
a(S'no'
p2385
g32
F0.9841
tp2386
asI254
(lp2387
(S'not'
p2388
g42
F0.9971
tp2389
a(S'now'
p2390
g42
F0.994
tp2391
asI255
(lp2392
(S'chi'
p2393
g118
F0.4396
tp2394
a(S'once'
p2395
g42
F0.8089
tp2396
a(g217
g3
F0.9966
tp2397
a(S'day'
p2398
g6
F0.9957
tp2399
a(S'you'
p2400
g10
F0.9968
tp2401
a(S'can'
p2402
g13
F0.9997
tp2403
a(S'watch'
p2404
g13
F0.9997
tp2405
a(S'it'
p2406
g10
F0.9917
tp2407
a(S'alright'
p2408
g32
F0.6925
tp2409
asI256
(lp2410
(S'xxx'
p2411
g70
F0.8437
tp2412
asI257
(lp2413
(S'not'
p2414
g42
F0.9918
tp2415
a(S'ten'
p2416
g1320
F0.8393
tp2417
a(S'times'
p2418
g6
F0.9766
tp2419
a(g217
g3
F0.9802
tp2420
a(S'day'
p2421
g6
F0.9979
tp2422
asI258
(lp2423
(S'but'
p2424
g161
F0.9948
tp2425
a(g9
g10
F0.9866
tp2426
a(g9
g10
F0.9645
tp2427
a(S'need'
p2428
g13
F0.9992
tp2429
a(S'to'
p2430
g47
F0.9812
tp2431
a(S'watch'
p2432
g13
F0.9979
tp2433
a(S'something'
p2434
g6
F0.9909
tp2435
asI259
(lp2436
(S'no'
p2437
g32
F0.7985
tp2438
a(S'you'
p2439
g10
F0.993
tp2440
a(S'don'
p2441
g13
F0.851
tp2442
a(g15
g100
F0.5134
tp2443
asI260
(lp2444
(S'it'
p2445
g10
F0.9888
tp2446
a(g99
g13
F0.5782
tp2447
a(S'nice'
p2448
g28
F0.9874
tp2449
a(S'to'
p2450
g47
F0.9949
tp2451
a(S'just'
p2452
g42
F0.9963
tp2453
a(S'have'
p2454
g13
F0.9964
tp2455
a(S'quiet'
p2456
g28
F0.5906
tp2457
a(S'around'
p2458
g47
F0.6913
tp2459
a(S'here'
p2460
g42
F0.9851
tp2461
a(S'for'
p2462
g47
F0.9873
tp2463
a(S'once'
p2464
g42
F0.7843
tp2465
asI261
(lp2466
(S'no'
p2467
g32
F0.7608
tp2468
a(S'it'
p2469
g10
F0.9844
tp2470
a(g99
g13
F0.5535
tp2471
a(S'not'
p2472
g42
F0.9922
tp2473
asI262
(lp2474
(S'well'
p2475
g32
F0.5767
tp2476
a(S'while'
p2477
g47
F0.6288
tp2478
a(g9
g10
F0.9926
tp2479
a(g164
g13
F0.982
tp2480
a(S'eating'
p2481
g13
F0.9859
tp2482
a(g9
g10
F0.9963
tp2483
a(S'want'
p2484
g13
F0.9997
tp2485
a(S'quiet'
p2486
g28
F0.9283
tp2487
asI263
(lp2488
(S'no'
p2489
g32
F0.9253
tp2490
asI264
(lp2491
(S'yes'
p2492
g32
F0.9958
tp2493
asI265
(lp2494
(S'don'
p2495
g118
F0.5427
tp2496
a(g15
g13
F0.4091
tp2497
a(S'you'
p2498
g10
F0.999
tp2499
a(S'even'
p2500
g42
F0.9943
tp2501
a(S'want'
p2502
g13
F0.9999
tp2503
a(S'your'
p2504
g3
F0.9318
tp2505
a(S'delicious'
p2506
g28
F0.9865
tp2507
a(S'cantaloupe'
p2508
g6
F0.9967
tp2509
asI266
(lp2510
(S'no'
p2511
g32
F0.9253
tp2512
asI267
(lp2513
(S'nice'
p2514
g28
F0.9798
tp2515
a(S'juicy'
p2516
g28
F0.983
tp2517
a(S'cantaloupe'
p2518
g6
F0.9987
tp2519
asI268
(lp2520
(S'why'
p2521
g42
F0.9375
tp2522
a(S'don'
p2523
g6
F0.2525
tp2524
a(g15
g13
F0.5898
tp2525
a(S'you'
p2526
g10
F0.9958
tp2527
a(S'drink'
p2528
g13
F0.9989
tp2529
a(S'your'
p2530
g3
F0.9867
tp2531
a(S'juice'
p2532
g6
F0.9979
tp2533
a(S'at'
p2534
g47
F0.9988
tp2535
a(S'least'
p2536
g28
F0.9404
tp2537
asI269
(lp2538
(S'okay'
p2539
g32
F0.9857
tp2540
asI270
(lp2541
(g9
g10
F0.953
tp2542
a(g164
g13
F0.9874
tp2543
a(S'afraid'
p2544
g28
F0.7258
tp2545
a(S'you'
p2546
g10
F0.9846
tp2547
a(S're'
p2548
g13
F0.8448
tp2549
a(S'becoming'
p2550
g13
F0.9967
tp2551
a(S'dehydrated'
p2552
g28
F0.6898
tp2553
asI271
(lp2554
(S'you'
p2555
g10
F0.9754
tp2556
a(S're'
p2557
g13
F0.5918
tp2558
a(S'gonna'
p2559
g13
F0.9883
tp2560
a(S'get'
p2561
g13
F0.9991
tp2562
a(S'too'
p2563
g42
F0.9736
tp2564
a(S'skinny'
p2565
g28
F0.9989
tp2566
asI272
(lp2567
(S'your'
p2568
g3
F0.961
tp2569
a(S'little'
p2570
g28
F0.9965
tp2571
a(S'muscles'
p2572
g6
F0.9983
tp2573
a(S'will'
p2574
g13
F0.9943
tp2575
a(S'go'
p2576
g13
F0.999
tp2577
a(S'away'
p2578
g42
F0.9962
tp2579
a(S'if'
p2580
g47
F0.9986
tp2581
a(S'you'
p2582
g10
F0.9995
tp2583
a(S'don'
p2584
g13
F0.8626
tp2585
a(g15
g47
F0.3095
tp2586
a(S'eat'
p2587
g13
F0.9791
tp2588
a(S'though'
p2589
g47
F0.7786
tp2590
asI273
(lp2591
(S'no'
p2592
g32
F0.7608
tp2593
a(S'it'
p2594
g10
F0.8878
tp2595
a(S'no'
p2596
g13
F0.2809
tp2597
a(S'it'
p2598
g10
F0.964
tp2599
a(S'willn'
p2600
g13
F0.4498
tp2601
a(g15
g100
F0.4611
tp2602
asI274
(lp2603
(S'they'
p2604
g10
F0.9854
tp2605
a(S'll'
p2606
g13
F0.4762
tp2607
a(S'shrink'
p2608
g13
F0.9372
tp2609
asI275
(lp2610
(S'mhm'
p2611
g32
F0.9747
tp2612
asI276
(lp2613
(S'xxx'
p2614
g70
F0.8437
tp2615
asI277
(lp2616
(S'oh'
p2617
g32
F0.998
tp2618
a(S'gee'
p2619
g32
F0.9965
tp2620
asI278
(lp2621
(S'that'
p2622
g10
F0.3839
tp2623
a(g9
g10
F0.9939
tp2624
a(S'could'
p2625
g13
F0.9998
tp2626
a(S'live'
p2627
g13
F0.8096
tp2628
a(S'without'
p2629
g47
F0.9625
tp2630
asI279
(lp2631
(S'water'
p2632
g6
F0.9661
tp2633
asI280
(lp2634
(S'look'
p2635
g13
F0.8183
tp2636
asI281
(lp2637
(S'that'
p2638
g10
F0.473
tp2639
a(g99
g13
F0.4372
tp2640
a(S'not'
p2641
g42
F0.9963
tp2642
a(S'even'
p2643
g42
F0.9928
tp2644
a(S'water'
p2645
g6
F0.8771
tp2646
a(S'is'
p2647
g13
F0.9991
tp2648
a(S'it'
p2649
g10
F0.9978
tp2650
asI282
(lp2651
(S'yeah'
p2652
g32
F0.9988
tp2653
asI283
(lp2654
(S'well'
p2655
g32
F0.9664
tp2656
asI284
(lp2657
(g9
g10
F0.9635
tp2658
a(S'don'
p2659
g13
F0.9231
tp2660
a(g15
g6
F0.2384
tp2661
a(S'have'
p2662
g13
F0.992
tp2663
a(S'work'
p2664
g6
F0.9882
tp2665
a(S'tomorrow'
p2666
g6
F0.9653
tp2667
a(S'and'
p2668
g161
F0.9951
tp2669
a(S'you'
p2670
g10
F0.999
tp2671
a(S'don'
p2672
g13
F0.8626
tp2673
a(g15
g6
F0.2172
tp2674
a(S'have'
p2675
g13
F0.9937
tp2676
a(S'day'
p2677
g6
F0.9958
tp2678
a(S'care'
p2679
g13
F0.7302
tp2680
a(S'so'
p2681
g47
F0.9196
tp2682
a(S'we'
p2683
g10
F0.9983
tp2684
a(S'll'
p2685
g13
F0.5493
tp2686
a(S'just'
p2687
g42
F0.9997
tp2688
a(S'hang'
p2689
g13
F0.9997
tp2690
a(S'out'
p2691
g185
F0.8725
tp2692
a(S'again'
p2693
g42
F0.9829
tp2694
a(S'in'
p2695
g47
F0.9984
tp2696
a(S'the'
p2697
g3
F0.9994
tp2698
a(S'house'
p2699
g6
F0.9647
tp2700
a(S'and'
p2701
g161
F0.9982
tp2702
a(S'then'
p2703
g42
F0.9918
tp2704
a(S'hopefully'
p2705
g42
F0.9928
tp2706
a(S'you'
p2707
g10
F0.9991
tp2708
a(S'll'
p2709
g13
F0.6833
tp2710
a(S'be'
p2711
g13
F0.9995
tp2712
a(S'all'
p2713
g3
F0.6221
tp2714
a(S'better'
p2715
g28
F0.8789
tp2716
a(S'for'
p2717
g47
F0.9987
tp2718
a(S'friday'
p2719
g118
F0.9111
tp2720
asI285
(lp2721
(S'be'
p2722
g13
F0.9727
tp2723
a(S'cause'
p2724
g47
F0.8758
tp2725
a(S'friday'
p2726
g118
F0.7977
tp2727
a(g9
g10
F0.9528
tp2728
a(S'have'
p2729
g13
F0.9998
tp2730
a(S'to'
p2731
g47
F0.9898
tp2732
a(S'go'
p2733
g13
F0.999
tp2734
a(S'to'
p2735
g47
F0.9827
tp2736
a(S'work'
p2737
g13
F0.501
tp2738
asI286
(lp2739
(S'is'
p2740
g13
F0.9828
tp2741
a(S'daddy'
p2742
g6
F0.972
tp2743
a(S'doing'
p2744
g13
F0.9894
tp2745
a(S'is'
p2746
g13
F0.9626
tp2747
a(S'daddy'
p2748
g6
F0.9746
tp2749
a(S'have'
p2750
g13
F0.9912
tp2751
a(S'work'
p2752
g6
F0.9837
tp2753
asI287
(lp2754
(S'on'
p2755
g47
F0.9727
tp2756
a(S'friday'
p2757
g118
F0.9042
tp2758
asI288
(lp2759
(S'yeah'
p2760
g32
F0.9988
tp2761
asI289
(lp2762
(S'and'
p2763
g161
F0.9989
tp2764
a(S'you'
p2765
g10
F0.9996
tp2766
a(S'have'
p2767
g13
F0.9972
tp2768
a(S'day'
p2769
g6
F0.9953
tp2770
a(S'care'
p2771
g13
F0.6644
tp2772
a(S'and'
p2773
g161
F0.9984
tp2774
a(S'it'
p2775
g10
F0.9971
tp2776
a(g99
g100
F0.3539
tp2777
a(S'toy'
p2778
g6
F0.7298
tp2779
a(S'day'
p2780
g6
F0.9964
tp2781
a(S'on'
p2782
g47
F0.9976
tp2783
a(S'friday'
p2784
g118
F0.9632
tp2785
a(S'and'
p2786
g161
F0.9984
tp2787
a(S'you'
p2788
g10
F0.9995
tp2789
a(S'can'
p2790
g13
F0.9997
tp2791
a(S'bring'
p2792
g13
F1.0
tp2793
a(g217
g3
F0.9451
tp2794
a(g217
g3
F0.936
tp2795
a(S'toy'
p2796
g6
F0.9924
tp2797
asI290
(lp2798
(S'okay'
p2799
g32
F0.9857
tp2800
asI291
(lp2801
(S'like'
p2802
g47
F0.7012
tp2803
asI292
(lp2804
(g9
g10
F0.953
tp2805
a(g164
g13
F0.9629
tp2806
a(S'gonna'
p2807
g13
F0.9911
tp2808
a(S'get'
p2809
g13
F0.9999
tp2810
a(S'that'
p2811
g10
F0.8074
tp2812
a(S'maybe'
p2813
g42
F0.9881
tp2814
a(g9
g10
F0.9926
tp2815
a(S'can'
p2816
g13
F0.9998
tp2817
a(S'bring'
p2818
g13
F0.9996
tp2819
asI293
(lp2820
(S'well'
p2821
g32
F0.7553
tp2822
a(S'toy'
p2823
g6
F0.6276
tp2824
a(S'day'
p2825
g6
F0.9931
tp2826
a(g99
g100
F0.6765
tp2827
a(S'not'
p2828
g42
F0.9882
tp2829
a(S'un'
p2830
g100
F0.4221
tp2831
a(S'until'
p2832
g47
F0.9991
tp2833
a(S'the'
p2834
g3
F0.9995
tp2835
a(S'day'
p2836
g6
F0.9989
tp2837
a(S'after'
p2838
g47
F0.9886
tp2839
a(S'tomorrow'
p2840
g6
F0.9486
tp2841
a(S'chi'
p2842
g100
F0.6438
tp2843
asI294
(lp2844
(g9
g10
F0.9894
tp2845
a(S'guess'
p2846
g13
F1.0
tp2847
a(S'it'
p2848
g10
F0.9969
tp2849
a(S'requires'
p2850
g13
F0.9999
tp2851
a(g217
g3
F0.9964
tp2852
a(S'lot'
p2853
g6
F0.9841
tp2854
a(S'of'
p2855
g47
F0.9969
tp2856
a(S'thought'
p2857
g13
F0.8592
tp2858
asI295
(lp2859
(S'what'
p2860
g10
F0.949
tp2861
asI296
(lp2862
(S'picking'
p2863
g13
F0.9981
tp2864
a(S'out'
p2865
g185
F0.8213
tp2866
a(g217
g3
F0.9912
tp2867
a(S'toy'
p2868
g6
F0.9921
tp2869
asI297
(lp2870
(S'oh'
p2871
g32
F0.9988
tp2872
asI298
(lp2873
(S'you'
p2874
g10
F0.9968
tp2875
a(S'could'
p2876
g13
F0.9996
tp2877
a(S'bring'
p2878
g13
F0.9999
tp2879
a(S'your'
p2880
g3
F0.9757
tp2881
a(S'superman'
p2882
g118
F0.9255
tp2883
a(S'cape'
p2884
g6
F0.8667
tp2885
a(S'again'
p2886
g42
F0.9645
tp2887
asI299
(lp2888
(S'laughs'
p2889
g13
F0.9102
tp2890
asI300
(lp2891
(S'how'
p2892
g42
F0.9947
tp2893
a(S'about'
p2894
g47
F0.9903
tp2895
a(S'this'
p2896
g10
F0.8665
tp2897
asI301
(lp2898
(S'how'
p2899
g42
F0.9947
tp2900
a(S'about'
p2901
g47
F0.9903
tp2902
a(S'this'
p2903
g10
F0.8665
tp2904
asI302
(lp2905
(S'can'
p2906
g13
F0.9755
tp2907
a(g9
g10
F0.9836
tp2908
a(S'bring'
p2909
g13
F1.0
tp2910
a(S'this'
p2911
g3
F0.5078
tp2912
asI303
(lp2913
(g9
g10
F0.9635
tp2914
a(S'don'
p2915
g13
F0.9231
tp2916
a(g15
g6
F0.2457
tp2917
a(S'know'
p2918
g13
F0.9884
tp2919
a(S'bring'
p2920
g13
F0.9997
tp2921
a(S'it'
p2922
g10
F0.9823
tp2923
a(S'in'
p2924
g47
F0.7268
tp2925
asI304
(lp2926
(g9
g10
F0.9873
tp2927
a(S'can'
p2928
g13
F0.9996
tp2929
a(g15
g13
F0.7895
tp2930
a(S'see'
p2931
g13
F0.9206
tp2932
asI305
(lp2933
(S'yeah'
p2934
g32
F0.9988
tp2935
asI306
(lp2936
(S'yeah'
p2937
g32
F0.9988
tp2938
asI307
(lp2939
(S'if'
p2940
g47
F0.9977
tp2941
a(S'you'
p2942
g10
F0.9995
tp2943
a(S'didn'
p2944
g13
F0.9885
tp2945
a(g15
g13
F0.8227
tp2946
a(S'scare'
p2947
g13
F0.968
tp2948
a(S'anybody'
p2949
g6
F0.9521
tp2950
a(S'with'
p2951
g47
F0.9998
tp2952
a(S'it'
p2953
g10
F0.9975
tp2954
a(S'but'
p2955
g161
F0.9783
tp2956
a(S'y'
p2957
g42
F0.991
tp2958
a(S'sure'
p2959
g28
F0.9681
tp2960
asI308
(lp2961
(S'okay'
p2962
g32
F0.9857
tp2963
asI309
(lp2964
(S'where'
p2965
g42
F0.9164
tp2966
a(S'did'
p2967
g13
F0.9941
tp2968
a(S'we'
p2969
g10
F0.9982
tp2970
a(S'get'
p2971
g13
F0.9998
tp2972
a(S'that'
p2973
g10
F0.8974
tp2974
a(S'anyway'
p2975
g42
F0.9882
tp2976
asI310
(lp2977
(S'do'
p2978
g13
F0.9983
tp2979
a(S'you'
p2980
g10
F0.9997
tp2981
a(S'remember'
p2982
g13
F0.9976
tp2983
asI311
(lp2984
(S'uh'
p2985
g32
F0.9455
tp2986
a(S'it'
p2987
g10
F0.9918
tp2988
a(S'w'
p2989
g47
F0.8762
tp2990
a(S'it'
p2991
g10
F0.9968
tp2992
a(g2989
g47
F0.9088
tp2993
a(S'it'
p2994
g10
F0.9975
tp2995
a(S'when'
p2996
g42
F0.9837
tp2997
a(S'we'
p2998
g10
F0.9964
tp2999
a(S'went'
p3000
g13
F0.9988
tp3001
a(S'when'
p3002
g42
F0.9963
tp3003
a(S'daddy'
p3004
g6
F0.9498
tp3005
a(S'and'
p3006
g161
F0.9957
tp3007
a(S'you'
p3008
g10
F0.9991
tp3009
a(S'and'
p3010
g161
F0.9918
tp3011
a(S'me'
p3012
g10
F0.9991
tp3013
a(S'came'
p3014
g13
F0.9442
tp3015
a(S'and'
p3016
g161
F0.9957
tp3017
a(S'got'
p3018
g13
F0.9996
tp3019
a(S'it'
p3020
g10
F0.9891
tp3021
asI312
(lp3022
(S'we'
p3023
g10
F0.9962
tp3024
a(S'went'
p3025
g13
F0.9994
tp3026
a(S'to'
p3027
g47
F0.9956
tp3028
a(S'the'
p3029
g3
F0.9991
tp3030
a(S'store'
p3031
g6
F0.9765
tp3032
a(S'and'
p3033
g161
F0.9984
tp3034
asI313
(lp3035
(S'on'
p3036
g47
F0.9931
tp3037
a(S'the'
p3038
g3
F0.9996
tp3039
a(S'cape'
p3040
g6
F0.9427
tp3041
a(S'was'
p3042
g13
F0.9973
tp3043
a(S'it'
p3044
g10
F0.9944
tp3045
asI314
(lp3046
(S'down'
p3047
g42
F0.497
tp3048
a(S'in'
p3049
g47
F0.9963
tp3050
a(S'provincetown'
p3051
g118
F0.896
tp3052
a(g9
g10
F0.9708
tp3053
a(S'think'
p3054
g13
F0.9998
tp3055
asI315
(lp3056
(g9
g10
F0.9895
tp3057
a(S'think'
p3058
g13
F0.9995
tp3059
asI316
(lp3060
(S'oh'
p3061
g32
F0.9988
tp3062
asI317
(lp3063
(S'it'
p3064
g10
F0.9956
tp3065
a(S'was'
p3066
g13
F0.9995
tp3067
a(S'in'
p3068
g47
F0.9104
tp3069
a(S'provincetown'
p3070
g118
F0.9451
tp3071
asI318
(lp3072
(S'yeah'
p3073
g32
F0.9903
tp3074
a(S'it'
p3075
g10
F0.9979
tp3076
a(S'was'
p3077
g13
F0.9996
tp3078
a(S'in'
p3079
g47
F0.9656
tp3080
a(S'this'
p3081
g3
F0.7451
tp3082
a(S'this'
p3083
g3
F0.8049
tp3084
a(S'store'
p3085
g6
F0.9909
tp3086
asI319
(lp3087
(S'and'
p3088
g161
F0.9996
tp3089
a(g217
g3
F0.9958
tp3090
a(S'whole'
p3091
g28
F0.9828
tp3092
a(S'bunch'
p3093
g6
F0.9971
tp3094
a(S'of'
p3095
g47
F0.9973
tp3096
a(S'sharks'
p3097
g6
F0.4898
tp3098
asI320
(lp3099
(S'and'
p3100
g161
F0.999
tp3101
a(g9
g10
F0.9909
tp3102
a(S'picked'
p3103
g13
F0.9999
tp3104
a(S'this'
p3105
g3
F0.9609
tp3106
a(S'one'
p3107
g1320
F0.8807
tp3108
a(S'out'
p3109
g47
F0.535
tp3110
asI321
(lp3111
(S'mhm'
p3112
g32
F0.9747
tp3113
asI322
(lp3114
(S'oh'
p3115
g32
F0.9987
tp3116
a(S'yeah'
p3117
g32
F0.9997
tp3118
asI323
(lp3119
(S'and'
p3120
g161
F0.9982
tp3121
a(S'that'
p3122
g10
F0.9509
tp3123
a(S'was'
p3124
g13
F0.9989
tp3125
a(S'good'
p3126
g28
F0.9964
tp3127
asI324
(lp3128
(S'looks'
p3129
g13
F0.9905
tp3130
a(S'like'
p3131
g47
F0.9377
tp3132
a(S'it'
p3133
g10
F0.9994
tp3134
a(S'has'
p3135
g13
F0.9988
tp3136
a(S'got'
p3137
g13
F0.9971
tp3138
a(g217
g3
F0.9989
tp3139
a(S'big'
p3140
g28
F0.9773
tp3141
a(S'smile'
p3142
g6
F0.9595
tp3143
a(S'doesn'
p3144
g13
F0.9054
tp3145
a(g15
g13
F0.5935
tp3146
a(S'it'
p3147
g10
F0.9912
tp3148
asI325
(lp3149
(S'it'
p3150
g10
F0.9944
tp3151
a(S'gonna'
p3152
g13
F0.9987
tp3153
a(S'eat'
p3154
g13
F0.9986
tp3155
a(S'something'
p3156
g6
F0.9943
tp3157
asI326
(lp3158
(S'ah'
p3159
g32
F0.996
tp3160
asI327
(lp3161
(S'maybe'
p3162
g42
F0.9484
tp3163
a(S'hey'
p3164
g32
F0.9823
tp3165
asI328
(lp3166
(S'maybe'
p3167
g42
F0.939
tp3168
a(S'it'
p3169
g10
F0.9968
tp3170
a(S'll'
p3171
g13
F0.459
tp3172
a(S'eat'
p3173
g13
F0.9973
tp3174
a(S'the'
p3175
g3
F0.9996
tp3176
a(S'rest'
p3177
g6
F0.9979
tp3178
a(S'of'
p3179
g47
F0.9993
tp3180
a(S'your'
p3181
g3
F0.9913
tp3182
a(S'cantaloupe'
p3183
g6
F0.9988
tp3184
asI329
(lp3185
(S'okay'
p3186
g32
F0.9857
tp3187
asI330
(lp3188
(g9
g10
F0.9793
tp3189
a(S'll'
p3190
g13
F0.7059
tp3191
a(S'try'
p3192
g13
F0.999
tp3193
a(S'it'
p3194
g10
F0.9876
tp3195
asI331
(lp3196
(S'www'
p3197
g118
F0.3889
tp3198
asI332
(lp3199
(S'oh'
p3200
g32
F0.9981
tp3201
a(S'okay'
p3202
g32
F0.9822
tp3203
asI333
(lp3204
(S'maybe'
p3205
g42
F0.9267
tp3206
a(S'that'
p3207
g10
F0.6072
tp3208
a(S'wasn'
p3209
g13
F0.8755
tp3210
a(g15
g100
F0.2548
tp3211
a(S'such'
p3212
g28
F0.4015
tp3213
a(g217
g3
F0.9857
tp3214
a(S'good'
p3215
g28
F0.9989
tp3216
a(S'idea'
p3217
g6
F0.9654
tp3218
a(S'was'
p3219
g13
F0.9994
tp3220
a(S'it'
p3221
g10
F0.9927
tp3222
asI334
(lp3223
(S'can'
p3224
g13
F0.9755
tp3225
a(g9
g10
F0.987
tp3226
a(S'have'
p3227
g13
F0.9999
tp3228
a(S'this'
p3229
g3
F0.9931
tp3230
a(S'thing'
p3231
g6
F0.9976
tp3232
asI335
(lp3233
(S'yeah'
p3234
g32
F0.9988
tp3235
asI336
(lp3236
(S'laughs'
p3237
g13
F0.9102
tp3238
asI337
(lp3239
(S'you'
p3240
g10
F0.9969
tp3241
a(S'can'
p3242
g13
F0.9998
tp3243
a(S'help'
p3244
g13
F0.9998
tp3245
a(S'me'
p3246
g10
F0.9981
tp3247
a(S'with'
p3248
g47
F0.9972
tp3249
a(S'my'
p3250
g3
F0.9977
tp3251
a(S'supper'
p3252
g6
F0.9911
tp3253
asI338
(lp3254
(S'okay'
p3255
g32
F0.9857
tp3256
asI339
(lp3257
(S'mm'
p3258
g32
F0.627
tp3259
asI340
(lp3260
(S'mm'
p3261
g32
F0.627
tp3262
asI341
(lp3263
(S'laughs'
p3264
g13
F0.9102
tp3265
asI342
(lp3266
(S'had'
p3267
g13
F0.996
tp3268
a(g217
g3
F0.9949
tp3269
a(S'hankering'
p3270
g6
F0.9728
tp3271
a(S'for'
p3272
g47
F0.9993
tp3273
a(S'egg'
p3274
g6
F0.9128
tp3275
a(S'salad'
p3276
g6
F0.9968
tp3277
a(S'did'
p3278
g13
F0.9969
tp3279
a(S'you'
p3280
g10
F0.999
tp3281
a(S'laughs'
p3282
g13
F0.9972
tp3283
asI343
(lp3284
(S'www'
p3285
g118
F0.6967
tp3286
a(S'noise'
p3287
g6
F0.8976
tp3288
a(S'xxx'
p3289
g13
F0.4558
tp3290
a(S'it'
p3291
g10
F0.9923
tp3292
a(g99
g13
F0.5675
tp3293
a(S'not'
p3294
g42
F0.996
tp3295
a(S'goin'
p3296
g13
F0.9958
tp3297
a(g1100
g47
F0.3516
tp3298
a(S'go'
p3299
g13
F0.9892
tp3300
a(S'away'
p3301
g42
F0.9951
tp3302
asI344
(lp3303
(S'it'
p3304
g10
F0.9914
tp3305
a(S'looks'
p3306
g13
F0.9979
tp3307
a(S'so'
p3308
g42
F0.9634
tp3309
a(S'good'
p3310
g28
F0.9962
tp3311
a(S'all'
p3312
g575
F0.6039
tp3313
a(S'the'
p3314
g3
F0.9999
tp3315
a(S'egg'
p3316
g6
F0.9762
tp3317
a(S'salad'
p3318
g6
F0.9925
tp3319
a(g99
g100
F0.7071
tp3320
a(S'popping'
p3321
g13
F0.9987
tp3322
a(S'out'
p3323
g47
F0.7071
tp3324
a(S'of'
p3325
g47
F0.9985
tp3326
a(S'the'
p3327
g3
F0.9991
tp3328
a(S'sandwiches'
p3329
g6
F0.9962
tp3330
asI345
(lp3331
(S'laughs'
p3332
g13
F0.9102
tp3333
asI346
(lp3334
(S'it'
p3335
g10
F0.9882
tp3336
a(S'don'
p3337
g13
F0.724
tp3338
a(g15
g6
F0.378
tp3339
a(S'fit'
p3340
g13
F0.5892
tp3341
asI347
(lp3342
(S'well'
p3343
g32
F0.906
tp3344
a(S'they'
p3345
g10
F0.9974
tp3346
a(S'll'
p3347
g42
F0.4426
tp3348
a(S'shrink'
p3349
g13
F0.9945
tp3350
a(S'if'
p3351
g47
F0.9986
tp3352
a(S'you'
p3353
g10
F0.9996
tp3354
a(S'keep'
p3355
g13
F0.9983
tp3356
a(S'this'
p3357
g10
F0.9071
tp3358
a(S'up'
p3359
g185
F0.9786
tp3360
asI348
(lp3361
(S'you'
p3362
g10
F0.9911
tp3363
a(S'didn'
p3364
g13
F0.9886
tp3365
a(g15
g13
F0.7941
tp3366
a(S'eat'
p3367
g13
F0.9504
tp3368
a(S'hardly'
p3369
g42
F0.9981
tp3370
a(S'anything'
p3371
g6
F0.9417
tp3372
a(S'yesterday'
p3373
g6
F0.7161
tp3374
a(S'and'
p3375
g161
F0.9951
tp3376
a(S'you'
p3377
g10
F0.9984
tp3378
a(S'shertainly'
p3379
g42
F0.4429
tp3380
a(S'certainly'
p3381
g42
F0.9993
tp3382
a(S'certainly'
p3383
g42
F0.999
tp3384
a(S'didn'
p3385
g13
F0.9527
tp3386
a(g15
g13
F0.7795
tp3387
a(S'eat'
p3388
g13
F0.9493
tp3389
a(S'hardly'
p3390
g42
F0.9981
tp3391
a(S'anything'
p3392
g6
F0.9222
tp3393
a(S'today'
p3394
g6
F0.9804
tp3395
asI349
(lp3396
(S'www'
p3397
g118
F0.555
tp3398
a(S'screeches'
p3399
g6
F0.8306
tp3400
asI350
(lp3401
(S'and'
p3402
g161
F0.999
tp3403
a(g9
g10
F0.9931
tp3404
a(S'will'
p3405
g13
F0.9996
tp3406
a(S'eat'
p3407
g13
F0.9987
tp3408
a(S'this'
p3409
g10
F0.5484
tp3410
asI351
(lp3411
(S'had'
p3412
g13
F0.9958
tp3413
a(S'about'
p3414
g47
F0.9486
tp3415
a(S'three'
p3416
g1320
F0.82
tp3417
a(S'bites'
p3418
g6
F0.9645
tp3419
a(S'of'
p3420
g47
F0.9925
tp3421
a(S'breakfast'
p3422
g6
F0.9654
tp3423
asI352
(lp3424
(S'had'
p3425
g13
F0.9958
tp3426
a(S'about'
p3427
g47
F0.9486
tp3428
a(S'two'
p3429
g1320
F0.9393
tp3430
a(S'bites'
p3431
g6
F0.6386
tp3432
a(g537
g47
F0.7959
tp3433
a(g1629
g100
F0.2819
tp3434
a(S'lunch'
p3435
g6
F0.7419
tp3436
asI353
(lp3437
(S'and'
p3438
g161
F0.9984
tp3439
a(S'two'
p3440
g1320
F0.9431
tp3441
a(S'bites'
p3442
g6
F0.958
tp3443
a(S'of'
p3444
g47
F0.9947
tp3445
a(S'supper'
p3446
g6
F0.9492
tp3447
asI354
(lp3448
(S'and'
p3449
g161
F0.9989
tp3450
a(g9
g10
F0.9944
tp3451
a(S'will'
p3452
g13
F0.9995
tp3453
asI355
(lp3454
(S'eat'
p3455
g13
F0.9784
tp3456
a(S'this'
p3457
g3
F0.9703
tp3458
a(S'whole'
p3459
g28
F0.979
tp3460
a(S'thing'
p3461
g6
F0.9979
tp3462
asI356
(lp3463
(S'well'
p3464
g32
F0.6329
tp3465
a(S'there'
p3466
g42
F0.6939
tp3467
a(g99
g100
F0.4788
tp3468
a(S'two'
p3469
g1320
F0.9396
tp3470
a(S'more'
p3471
g28
F0.7565
tp3472
a(S'bites'
p3473
g6
F0.8936
tp3474
asI357
(lp3475
(S'whoa'
p3476
g32
F0.9977
tp3477
asI358
(lp3478
(S'hm'
p3479
g32
F0.995
tp3480
asI359
(lp3481
(S'but'
p3482
g161
F0.9948
tp3483
a(g9
g10
F0.9962
tp3484
a(S'guess'
p3485
g13
F0.9999
tp3486
a(S'if'
p3487
g47
F0.9983
tp3488
a(S'you'
p3489
g10
F0.9983
tp3490
a(S're'
p3491
g13
F0.7653
tp3492
a(S'not'
p3493
g42
F0.9965
tp3494
a(S'throwing'
p3495
g13
F0.9997
tp3496
a(S'up'
p3497
g185
F0.9
tp3498
a(S'or'
p3499
g161
F0.9914
tp3500
a(S'anything'
p3501
g6
F0.9966
tp3502
asI360
(lp3503
(g9
g10
F0.9894
tp3504
a(S'guess'
p3505
g13
F0.9999
tp3506
a(S'that'
p3507
g10
F0.702
tp3508
a(g99
g100
F0.7482
tp3509
a(S'okay'
p3510
g32
F0.8973
tp3511
asI361
(lp3512
(S'ma'
p3513
g32
F0.3265
tp3514
asI362
(lp3515
(S'what'
p3516
g10
F0.949
tp3517
asI363
(lp3518
(S'jesse'
p3519
g118
F0.9983
tp3520
a(S'got'
p3521
g13
F0.9979
tp3522
a(S'his'
p3523
g3
F0.9698
tp3524
a(S'um'
p3525
g100
F0.5214
tp3526
a(S'robot'
p3527
g118
F0.3512
tp3528
a(S'hand'
p3529
g6
F0.9649
tp3530
a(S'too'
p3531
g42
F0.8721
tp3532
asI364
(lp3533
(S'jesse'
p3534
g118
F0.999
tp3535
a(S'has'
p3536
g13
F0.998
tp3537
a(g217
g3
F0.9925
tp3538
a(S'robot'
p3539
g6
F0.8755
tp3540
a(S'hand'
p3541
g6
F0.9844
tp3542
asI365
(lp3543
(S'yeah'
p3544
g32
F0.9988
tp3545
asI366
(lp3546
(S'jesse'
p3547
g118
F0.9948
tp3548
a(S'at'
p3549
g47
F0.9957
tp3550
a(S'school'
p3551
g6
F0.993
tp3552
asI367
(lp3553
(S'yep'
p3554
g32
F0.9977
tp3555
asI368
(lp3556
(g217
g3
F0.9938
tp3557
a(S'different'
p3558
g28
F0.9957
tp3559
a(S'jesse'
p3560
g118
F0.9863
tp3561
asI369
(lp3562
(S'right'
p3563
g32
F0.861
tp3564
asI370
(lp3565
(S'that'
p3566
g10
F0.473
tp3567
a(g99
g100
F0.4404
tp3568
a(S'what'
p3569
g10
F0.9712
tp3570
a(g9
g10
F0.9936
tp3571
a(S'figured'
p3572
g13
F0.9995
tp3573
asI371
(lp3574
(g217
g3
F0.9871
tp3575
a(S'robot'
p3576
g6
F0.7779
tp3577
a(S'hand'
p3578
g6
F0.9939
tp3579
asI372
(lp3580
(S'is'
p3581
g13
F0.9981
tp3582
a(S'that'
p3583
g10
F0.8927
tp3584
a(S'what'
p3585
g10
F0.9798
tp3586
a(S'you'
p3587
g10
F0.9996
tp3588
a(S'said'
p3589
g13
F0.9981
tp3590
asI373
(lp3591
(S'well'
p3592
g32
F0.8956
tp3593
a(S'he'
p3594
g10
F0.9989
tp3595
a(S'got'
p3596
g13
F0.9999
tp3597
a(g217
g3
F0.9983
tp3598
a(S'toy'
p3599
g6
F0.9753
tp3600
a(S'robot'
p3601
g6
F0.9011
tp3602
a(S'hand'
p3603
g6
F0.9963
tp3604
a(g9
g10
F0.9677
tp3605
a(S'mean'
p3606
g13
F0.9874
tp3607
asI374
(lp3608
(S'well'
p3609
g32
F0.9502
tp3610
a(S'that'
p3611
g10
F0.813
tp3612
a(g99
g100
F0.4388
tp3613
a(S'what'
p3614
g10
F0.9621
tp3615
a(g9
g10
F0.9946
tp3616
a(S'figured'
p3617
g13
F0.9992
tp3618
asI375
(lp3619
(S'what'
p3620
g10
F0.9784
tp3621
a(g99
g13
F0.4505
tp3622
a(S'that'
p3623
g10
F0.8144
tp3624
a(S'like'
p3625
g47
F0.5184
tp3626
asI376
(lp3627
(S'it'
p3628
g10
F0.9888
tp3629
a(g99
g13
F0.5138
tp3630
a(S'just'
p3631
g42
F0.998
tp3632
a(g217
g3
F0.9947
tp3633
a(S'hand'
p3634
g6
F0.9974
tp3635
asI377
(lp3636
(S'does'
p3637
g13
F0.9972
tp3638
a(S'that'
p3639
g10
F0.9458
tp3640
a(S'do'
p3641
g13
F0.9994
tp3642
a(S'anything'
p3643
g6
F0.9883
tp3644
asI378
(lp3645
(S'well'
p3646
g32
F0.8349
tp3647
a(S'if'
p3648
g47
F0.9836
tp3649
a(S'someone'
p3650
g6
F0.9003
tp3651
a(S'can'
p3652
g13
F0.9985
tp3653
a(S'do'
p3654
g13
F0.9999
tp3655
a(S'this'
p3656
g10
F0.7494
tp3657
asI379
(lp3658
(S'and'
p3659
g161
F0.9986
tp3660
a(S'can'
p3661
g13
F0.9981
tp3662
a(S'do'
p3663
g13
F0.9999
tp3664
a(S'this'
p3665
g10
F0.6873
tp3666
asI380
(lp3667
(S'laughs'
p3668
g13
F0.9102
tp3669
asI381
(lp3670
(S'it'
p3671
g10
F0.9946
tp3672
a(S'can'
p3673
g13
F0.9996
tp3674
a(S'do'
p3675
g13
F0.9999
tp3676
a(S'that'
p3677
g10
F0.8292
tp3678
asI382
(lp3679
(S'laughs'
p3680
g13
F0.9102
tp3681
asI383
(lp3682
(S'and'
p3683
g161
F0.9993
tp3684
a(S'someone'
p3685
g6
F0.9634
tp3686
a(S'and'
p3687
g161
F0.9983
tp3688
a(S'someone'
p3689
g6
F0.9486
tp3690
a(S'can'
p3691
g13
F0.9986
tp3692
a(S'shake'
p3693
g13
F0.9997
tp3694
a(S'his'
p3695
g3
F0.9996
tp3696
a(S'hand'
p3697
g6
F0.9963
tp3698
asI384
(lp3699
(S'you'
p3700
g10
F0.9969
tp3701
a(S'can'
p3702
g13
F0.9998
tp3703
a(S'shake'
p3704
g13
F0.9996
tp3705
a(S'his'
p3706
g3
F0.9995
tp3707
a(S'hand'
p3708
g6
F0.9958
tp3709
asI385
(lp3710
(S'oh'
p3711
g32
F0.9957
tp3712
a(S'well'
p3713
g32
F0.9872
tp3714
a(S'that'
p3715
g10
F0.8363
tp3716
a(g99
g100
F0.4975
tp3717
a(S'pretty'
p3718
g42
F0.9491
tp3719
a(S'handy'
p3720
g28
F0.9901
tp3721
a(S'laughs'
p3722
g6
F0.6754
tp3723
asI386
(lp3724
(S'mhm'
p3725
g32
F0.9747
tp3726
asI387
(lp3727
(S'will'
p3728
g13
F0.9979
tp3729
a(S'you'
p3730
g10
F0.9988
tp3731
a(S'buy'
p3732
g13
F0.9997
tp3733
a(S'me'
p3734
g10
F0.9976
tp3735
a(S'xxx'
p3736
g70
F0.464
tp3737
a(S'toy'
p3738
g6
F0.9246
tp3739
a(S'someday'
p3740
g42
F0.8901
tp3741
asI388
(lp3742
(S'well'
p3743
g32
F0.8994
tp3744
a(S'we'
p3745
g10
F0.9989
tp3746
a(S'll'
p3747
g13
F0.7202
tp3748
a(S'see'
p3749
g13
F0.9753
tp3750
asI389
(lp3751
(S'if'
p3752
g47
F0.9977
tp3753
a(S'we'
p3754
g10
F0.9988
tp3755
a(S'see'
p3756
g13
F0.9998
tp3757
a(S'it'
p3758
g10
F0.9285
tp3759
a(S'in'
p3760
g47
F0.9599
tp3761
a(S'the'
p3762
g3
F0.999
tp3763
a(S'store'
p3764
g6
F0.9884
tp3765
asI390
(lp3766
(S'if'
p3767
g47
F0.997
tp3768
a(S'it'
p3769
g10
F0.9986
tp3770
a(g99
g13
F0.4655
tp3771
a(S'cheap'
p3772
g28
F0.9711
tp3773
asI391
(lp3774
(S'have'
p3775
g13
F0.9868
tp3776
a(S'extra'
p3777
g28
F0.9904
tp3778
a(S'money'
p3779
g6
F0.9989
tp3780
asI392
(lp3781
(S'and'
p3782
g161
F0.9989
tp3783
a(S'you'
p3784
g10
F0.9962
tp3785
a(S're'
p3786
g13
F0.738
tp3787
a(S'being'
p3788
g13
F0.9914
tp3789
a(S'really'
p3790
g42
F0.9992
tp3791
a(S'unbelievably'
p3792
g42
F0.9982
tp3793
a(S'good'
p3794
g28
F0.9993
tp3795
asI393
(lp3796
(S'and'
p3797
g161
F0.999
tp3798
a(g9
g10
F0.9862
tp3799
a(g164
g13
F0.9842
tp3800
a(S'inclined'
p3801
g13
F0.7508
tp3802
a(S'to'
p3803
g47
F0.9965
tp3804
a(S'buy'
p3805
g13
F0.9996
tp3806
a(S'you'
p3807
g10
F0.9979
tp3808
a(S'something'
p3809
g6
F0.9278
tp3810
asI394
(lp3811
(S'0'
p3812
g1320
F0.9638
tp3813
asI395
(lp3814
(S'that'
p3815
g10
F0.3839
tp3816
a(g9
g10
F0.9872
tp3817
a(S'don'
p3818
g13
F0.9187
tp3819
a(g15
g13
F0.4371
tp3820
a(S'like'
p3821
g47
F0.416
tp3822
a(S'at'
p3823
g47
F0.9948
tp3824
a(S'all'
p3825
g3
F0.958
tp3826
asI396
(lp3827
(S'why'
p3828
g42
F0.8527
tp3829
asI397
(lp3830
(S'because'
p3831
g47
F0.983
tp3832
a(g9
g10
F0.993
tp3833
a(S'don'
p3834
g13
F0.9187
tp3835
a(g15
g13
F0.3253
tp3836
a(S'think'
p3837
g13
F0.9994
tp3838
a(S'it'
p3839
g10
F0.9936
tp3840
a(g99
g13
F0.5596
tp3841
a(S'funny'
p3842
g28
F0.9988
tp3843
a(S'and'
p3844
g161
F0.9983
tp3845
a(g9
g10
F0.9872
tp3846
a(S'don'
p3847
g13
F0.9198
tp3848
a(g15
g13
F0.3142
tp3849
a(S'think'
p3850
g13
F0.9994
tp3851
a(S'it'
p3852
g10
F0.9936
tp3853
a(g99
g13
F0.6339
tp3854
a(S'the'
p3855
g3
F0.9993
tp3856
a(S'correct'
p3857
g28
F0.9972
tp3858
a(S'thing'
p3859
g6
F0.9988
tp3860
a(S'to'
p3861
g47
F0.9948
tp3862
a(S'do'
p3863
g13
F0.9996
tp3864
a(S'at'
p3865
g47
F0.9974
tp3866
a(S'the'
p3867
g3
F0.9994
tp3868
a(S'dinner'
p3869
g6
F0.9456
tp3870
a(S'table'
p3871
g6
F0.9974
tp3872
a(S'or'
p3873
g161
F0.9884
tp3874
a(S'at'
p3875
g47
F0.9974
tp3876
a(S'your'
p3877
g3
F0.9967
tp3878
a(S'mother'
p3879
g6
F0.9979
tp3880
asI398
(lp3881
(S'why'
p3882
g42
F0.8527
tp3883
asI399
(lp3884
(g9
g10
F0.9635
tp3885
a(S'don'
p3886
g13
F0.9156
tp3887
a(g15
g6
F0.3074
tp3888
a(S'know'
p3889
g13
F0.965
tp3890
asI400
(lp3891
(S'it'
p3892
g10
F0.991
tp3893
a(S'just'
p3894
g42
F0.9988
tp3895
a(S'bothers'
p3896
g13
F0.9999
tp3897
a(S'me'
p3898
g10
F0.9983
tp3899
asI401
(lp3900
(S'pretending'
p3901
g13
F0.9982
tp3902
a(S'to'
p3903
g47
F0.9955
tp3904
a(S'shoot'
p3905
g13
F0.9612
tp3906
a(S'somebody'
p3907
g6
F0.9709
tp3908
a(S'isn'
p3909
g47
F0.432
tp3910
a(g15
g100
F0.5047
tp3911
a(S'really'
p3912
g42
F0.9941
tp3913
a(g217
g3
F0.9598
tp3914
a(S'nice'
p3915
g28
F0.9985
tp3916
a(S'thing'
p3917
g6
F0.9963
tp3918
asI402
(lp3919
(g9
g10
F0.953
tp3920
a(g164
g13
F0.9738
tp3921
a(S'not'
p3922
g42
F0.9903
tp3923
a(S'shooting'
p3924
g13
F0.9033
tp3925
asI403
(lp3926
(S'well'
p3927
g32
F0.7553
tp3928
a(S'it'
p3929
g10
F0.9981
tp3930
a(S'looks'
p3931
g13
F0.9992
tp3932
a(S'like'
p3933
g47
F0.9606
tp3934
a(S'it'
p3935
g10
F0.9986
tp3936
asI404
(lp3937
(S'this'
p3938
g10
F0.9526
tp3939
a(S'is'
p3940
g13
F0.9988
tp3941
a(g217
g3
F0.998
tp3942
a(S'telescope'
p3943
g6
F0.9965
tp3944
asI405
(lp3945
(g217
g3
F0.9939
tp3946
a(S'telescope'
p3947
g6
F0.9961
tp3948
asI406
(lp3949
(S'yup'
p3950
g32
F0.9978
tp3951
asI407
(lp3952
(g9
g10
F0.9914
tp3953
a(S'was'
p3954
g13
F0.9995
tp3955
a(S'gonna'
p3956
g13
F0.9801
tp3957
a(S'xxx'
p3958
g70
F0.6716
tp3959
asI408
(lp3960
(S'ah'
p3961
g32
F0.996
tp3962
asI409
(lp3963
(S'xxx'
p3964
g70
F0.5944
tp3965
a(S'table'
p3966
g6
F0.9694
tp3967
asI410
(lp3968
(S'oh'
p3969
g32
F0.9988
tp3970
asI411
(lp3971
(S'okay'
p3972
g32
F0.9483
tp3973
a(S'well'
p3974
g32
F0.6699
tp3975
a(S'look'
p3976
g13
F0.781
tp3977
a(S'don'
p3978
g118
F0.3417
tp3979
a(g15
g118
F0.4732
tp3980
a(S'eat'
p3981
g13
F0.8917
tp3982
a(S'anymore'
p3983
g42
F0.9938
tp3984
a(S'with'
p3985
g47
F0.9997
tp3986
a(S'your'
p3987
g3
F0.9979
tp3988
a(S'mouth'
p3989
g6
F0.9992
tp3990
a(S'full'
p3991
g28
F0.9219
tp3992
a(S'of'
p3993
g47
F0.9943
tp3994
a(S'food'
p3995
g6
F0.9738
tp3996
a(S'be'
p3997
g13
F0.9703
tp3998
a(S'cause'
p3999
g47
F0.914
tp4000
a(S'it'
p4001
g10
F0.9966
tp4002
a(g99
g13
F0.5276
tp4003
a(S'hard'
p4004
g28
F0.7872
tp4005
a(S'to'
p4006
g47
F0.9964
tp4007
a(S'understand'
p4008
g13
F0.9964
tp4009
asI412
(lp4010
(S'okay'
p4011
g32
F0.9857
tp4012
asI413
(lp4013
(S'don'
p4014
g118
F0.5427
tp4015
a(g15
g118
F0.4206
tp4016
a(S'talk'
p4017
g13
F0.892
tp4018
a(S'anymore'
p4019
g42
F0.9918
tp4020
asI414
(lp4021
(S'don'
p4022
g118
F0.5427
tp4023
a(g15
g118
F0.5014
tp4024
a(S'talk'
p4025
g13
F0.9184
tp4026
a(S'anymore'
p4027
g42
F0.9961
tp4028
a(S'with'
p4029
g47
F0.9997
tp4030
a(S'your'
p4031
g3
F0.9979
tp4032
a(S'mouth'
p4033
g6
F0.9997
tp4034
a(S'laughs'
p4035
g13
F0.9859
tp4036
a(S'full'
p4037
g28
F0.9034
tp4038
a(S'of'
p4039
g47
F0.9965
tp4040
a(S'food'
p4041
g6
F0.9692
tp4042
a(S'okay'
p4043
g32
F0.807
tp4044
asI415
(lp4045
(S'makes'
p4046
g13
F0.9989
tp4047
a(S'me'
p4048
g10
F0.998
tp4049
a(S'mad'
p4050
g28
F0.9251
tp4051
asI416
(lp4052
(S'are'
p4053
g13
F0.9964
tp4054
a(S'you'
p4055
g10
F0.9994
tp4056
a(S'gonna'
p4057
g13
F0.9996
tp4058
a(S'eat'
p4059
g13
F0.9994
tp4060
a(S'your'
p4061
g3
F0.9934
tp4062
a(S'cantaloupe'
p4063
g6
F0.9977
tp4064
asI417
(lp4065
(S'oh'
p4066
g32
F0.9954
tp4067
a(S'great'
p4068
g28
F0.9733
tp4069
asI418
(lp4070
(S'here'
p4071
g42
F0.9009
tp4072
a(S'dip'
p4073
g6
F0.5191
tp4074
a(S'dip'
p4075
g13
F0.8815
tp4076
a(S'it'
p4077
g10
F0.9864
tp4078
a(S'in'
p4079
g47
F0.9631
tp4080
a(S'your'
p4081
g3
F0.9925
tp4082
a(S'juice'
p4083
g6
F0.9907
tp4084
a(S'and'
p4085
g161
F0.9951
tp4086
a(S'see'
p4087
g13
F0.9826
tp4088
a(S'what'
p4089
g10
F0.9303
tp4090
a(S'it'
p4091
g10
F0.9943
tp4092
a(S'tastes'
p4093
g13
F0.998
tp4094
a(S'like'
p4095
g47
F0.9209
tp4096
asI419
(lp4097
(S'no'
p4098
g3
F0.8365
tp4099
a(S'way'
p4100
g6
F0.9976
tp4101
asI420
(lp4102
(S'laughs'
p4103
g13
F0.9102
tp4104
asI421
(lp4105
(S'yuck'
p4106
g32
F0.9977
tp4107
asI422
(lp4108
(S'son'
p4109
g6
F0.9551
tp4110
a(S'of'
p4111
g47
F0.9984
tp4112
a(g217
g3
F0.9973
tp4113
a(S'gun'
p4114
g6
F0.9964
tp4115
asI423
(lp4116
(S'son'
p4117
g6
F0.9551
tp4118
a(S'of'
p4119
g47
F0.9986
tp4120
a(g217
g3
F0.9973
tp4121
a(S'gun'
p4122
g6
F0.9944
tp4123
a(S'huh'
p4124
g32
F0.9543
tp4125
asI424
(lp4126
(S'www'
p4127
g118
F0.6936
tp4128
a(S'laughs'
p4129
g13
F0.8264
tp4130
a(S'who'
p4131
g10
F0.9967
tp4132
a(S'what'
p4133
g10
F0.9866
tp4134
a(S'are'
p4135
g13
F0.9976
tp4136
a(S'you'
p4137
g10
F0.9996
tp4138
a(S'trying'
p4139
g13
F0.9998
tp4140
a(S'to'
p4141
g47
F0.996
tp4142
a(S'kill'
p4143
g13
F0.9977
tp4144
a(S'do'
p4145
g13
F0.9888
tp4146
a(S'anyways'
p4147
g42
F0.2451
tp4148
asI425
(lp4149
(S'bang'
p4150
g13
F0.716
tp4151
a(g537
g47
F0.798
tp4152
a(S'bang'
p4153
g13
F0.6147
tp4154
a(g537
g47
F0.5015
tp4155
asI426
(lp4156
(S'laughs'
p4157
g13
F0.9102
tp4158
asI427
(lp4159
(S'xxx'
p4160
g70
F0.8437
tp4161
asI428
(lp4162
(S'why'
p4163
g42
F0.8527
tp4164
asI429
(lp4165
(S'too'
p4166
g42
F0.9972
tp4167
a(S'loud'
p4168
g28
F0.9951
tp4169
asI430
(lp4170
(S'is'
p4171
g13
F0.9981
tp4172
a(S'that'
p4173
g10
F0.6116
tp4174
a(S'the'
p4175
g3
F0.9995
tp4176
a(S'guy'
p4177
g6
F0.9753
tp4178
a(S'on'
p4179
g47
F0.9995
tp4180
a(S'the'
p4181
g3
F0.9992
tp4182
a(S'motorcycle'
p4183
g6
F0.9952
tp4184
asI431
(lp4185
(g217
g3
F0.978
tp4186
a(S'harley'
p4187
g28
F0.4586
tp4188
a(S'davidson'
p4189
g6
F0.9678
tp4190
asI432
(lp4191
(S'oh'
p4192
g32
F0.9988
tp4193
asI433
(lp4194
(S'must'
p4195
g13
F0.9812
tp4196
a(S'be'
p4197
g13
F0.9993
tp4198
a(S'be'
p4199
g13
F0.9751
tp4200
a(S'cause'
p4201
g47
F0.9196
tp4202
a(S'it'
p4203
g10
F0.9966
tp4204
a(g99
g13
F0.5309
tp4205
a(S'loud'
p4206
g28
F0.9838
tp4207
a(S'huh'
p4208
g32
F0.9079
tp4209
asI434
(lp4210
(S'are'
p4211
g13
F0.9964
tp4212
a(S'you'
p4213
g10
F0.9985
tp4214
a(S'recording'
p4215
g13
F1.0
tp4216
a(S'us'
p4217
g10
F0.9607
tp4218
a(S'that'
p4219
g47
F0.8919
tp4220
a(S'we'
p4221
g10
F0.9951
tp4222
a(S're'
p4223
g13
F0.6793
tp4224
a(S'talking'
p4225
g13
F0.9821
tp4226
a(S'about'
p4227
g47
F0.9068
tp4228
asI435
(lp4229
(g9
g10
F0.9895
tp4230
a(S'think'
p4231
g13
F0.9997
tp4232
a(S'so'
p4233
g42
F0.8029
tp4234
asI436
(lp4235
(S'is'
p4236
g13
F0.9955
tp4237
a(S'there'
p4238
g575
F0.9284
tp4239
a(g217
g3
F0.9987
tp4240
a(S'little'
p4241
g28
F0.9798
tp4242
a(S'red'
p4243
g28
F0.9875
tp4244
a(S'light'
p4245
g6
F0.9884
tp4246
a(S'that'
p4247
g47
F0.9057
tp4248
a(S'goes'
p4249
g13
F0.9925
tp4250
a(S'on'
p4251
g185
F0.6985
tp4252
asI437
(lp4253
(g9
g10
F0.989
tp4254
a(S'think'
p4255
g13
F1.0
tp4256
a(S'it'
p4257
g10
F0.9979
tp4258
a(S'is'
p4259
g13
F0.9986
tp4260
asI438
(lp4261
(S'then'
p4262
g42
F0.9476
tp4263
a(S'we'
p4264
g10
F0.9935
tp4265
a(S're'
p4266
g6
F0.4973
tp4267
a(S'gonna'
p4268
g13
F0.9904
tp4269
a(S'mail'
p4270
g13
F0.8989
tp4271
a(S'it'
p4272
g10
F0.9776
tp4273
asI439
(lp4274
(S'remember'
p4275
g13
F0.9945
tp4276
a(S'those'
p4277
g3
F0.8858
tp4278
a(S'two'
p4279
g1320
F0.9484
tp4280
a(S'young'
p4281
g28
F0.9987
tp4282
a(S'women'
p4283
g6
F0.9929
tp4284
a(S'that'
p4285
g47
F0.8786
tp4286
a(S'came'
p4287
g13
F0.9912
tp4288
a(S'over'
p4289
g185
F0.5533
tp4290
asI440
(lp4291
(g9
g10
F0.9896
tp4292
a(S'remember'
p4293
g13
F0.9985
tp4294
a(S'th'
p4295
g13
F0.305
tp4296
a(S'em'
p4297
g10
F0.9747
tp4298
asI441
(lp4299
(S'um'
p4300
g32
F0.9106
tp4301
a(S'and'
p4302
g161
F0.9991
tp4303
a(S'um'
p4304
g32
F0.7049
tp4305
a(S'they'
p4306
g10
F0.9952
tp4307
a(S'asked'
p4308
g13
F0.9999
tp4309
a(S'me'
p4310
g10
F0.996
tp4311
a(g217
g3
F0.9903
tp4312
a(S'whole'
p4313
g28
F0.9881
tp4314
a(S'bunch'
p4315
g6
F0.997
tp4316
a(S'of'
p4317
g47
F0.9967
tp4318
a(S'questions'
p4319
g6
F0.9917
tp4320
asI442
(lp4321
(S'yep'
p4322
g32
F0.9977
tp4323
asI443
(lp4324
(S'xxx'
p4325
g70
F0.8437
tp4326
asI444
(lp4327
(S'see'
p4328
g13
F0.8335
tp4329
asI445
(lp4330
(S'xxx'
p4331
g70
F0.6896
tp4332
a(S'still'
p4333
g42
F0.9776
tp4334
a(S'has'
p4335
g13
F0.9971
tp4336
asI446
(lp4337
(S'oh'
p4338
g32
F0.9987
tp4339
a(S'yeah'
p4340
g32
F0.9997
tp4341
asI447
(lp4342
(S'alright'
p4343
g32
F0.9092
tp4344
a(S'well'
p4345
g32
F0.8474
tp4346
a(S'maybe'
p4347
g42
F0.9856
tp4348
a(S'you'
p4349
g10
F0.9986
tp4350
a(S'shouldn'
p4351
g13
F0.9866
tp4352
a(g15
g13
F0.7758
tp4353
a(S'play'
p4354
g13
F0.986
tp4355
a(S'with'
p4356
g47
F0.9972
tp4357
a(S'that'
p4358
g10
F0.8312
tp4359
a(S'because'
p4360
g47
F0.9783
tp4361
a(g9
g10
F0.9925
tp4362
a(S'don'
p4363
g13
F0.9198
tp4364
a(g15
g6
F0.225
tp4365
a(S'know'
p4366
g13
F0.997
tp4367
a(S'if'
p4368
g47
F0.9988
tp4369
a(S'the'
p4370
g3
F0.9688
tp4371
a(S'xxx'
p4372
g6
F0.7167
tp4373
a(S'on'
p4374
g47
F0.9971
tp4375
a(S'it'
p4376
g10
F0.9987
tp4377
a(S'really'
p4378
g42
F0.9959
tp4379
asI448
(lp4380
(S'okay'
p4381
g32
F0.9857
tp4382
asI449
(lp4383
(S'okay'
p4384
g32
F0.909
tp4385
a(S'but'
p4386
g161
F0.9936
tp4387
a(S'it'
p4388
g10
F0.9972
tp4389
a(g99
g100
F0.4765
tp4390
a(S'not'
p4391
g42
F0.9898
tp4392
a(S'ours'
p4393
g10
F0.9805
tp4394
asI450
(lp4395
(S'is'
p4396
g13
F0.9892
tp4397
a(S'what'
p4398
g10
F0.9866
tp4399
a(g9
g10
F0.984
tp4400
a(g164
g13
F0.9734
tp4401
a(S'trying'
p4402
g13
F0.9989
tp4403
a(S'to'
p4404
g47
F0.9933
tp4405
a(S'say'
p4406
g13
F0.9944
tp4407
asI451
(lp4408
(S'okay'
p4409
g32
F0.9857
tp4410
asI452
(lp4411
(S'we'
p4412
g10
F0.9679
tp4413
a(S'sort'
p4414
g6
F0.5048
tp4415
a(S'of'
p4416
g47
F0.9971
tp4417
a(S'borrowed'
p4418
g13
F0.9467
tp4419
a(S'it'
p4420
g10
F0.9732
tp4421
a(S'from'
p4422
g47
F0.9978
tp4423
a(S'them'
p4424
g10
F0.9229
tp4425
asI453
(lp4426
(S'it'
p4427
g10
F0.9858
tp4428
a(S'too'
p4429
g42
F0.7596
tp4430
a(S'it'
p4431
g10
F0.9967
tp4432
a(S'too'
p4433
g42
F0.9911
tp4434
a(S'little'
p4435
g28
F0.9599
tp4436
asI454
(lp4437
(S'www'
p4438
g118
F0.7976
tp4439
a(S'clears'
p4440
g13
F0.864
tp4441
a(S'throat'
p4442
g6
F0.9067
tp4443
a(S'right'
p4444
g42
F0.3346
tp4445
asI455
(lp4446
(S'kennan'
p4447
g118
F0.9971
tp4448
a(S'and'
p4449
g161
F0.9985
tp4450
a(S'uh'
p4451
g32
F0.7682
tp4452
a(S'lisa'
p4453
g118
F0.9753
tp4454
a(S'experimenters'
p4455
g118
F0.3724
tp4456
asI456
(lp4457
(S'lisa'
p4458
g118
F0.9806
tp4459
a(S'and'
p4460
g161
F0.9984
tp4461
asI457
(lp4462
(S'kennan'
p4463
g118
F0.9971
tp4464
a(S'and'
p4465
g161
F0.9984
tp4466
a(S'lisa'
p4467
g118
F0.882
tp4468
a(S'right'
p4469
g32
F0.3418
tp4470
asI458
(lp4471
(S'don'
p4472
g118
F0.5427
tp4473
a(g15
g13
F0.4091
tp4474
a(S'you'
p4475
g10
F0.9996
tp4476
a(S'think'
p4477
g13
F0.9998
tp4478
a(S'that'
p4479
g10
F0.5528
tp4480
a(g99
g100
F0.68
tp4481
a(S'uh'
p4482
g32
F0.9327
tp4483
a(S'yeah'
p4484
g32
F0.9977
tp4485
a(g9
g10
F0.9961
tp4486
a(S'know'
p4487
g13
F0.9999
tp4488
a(S'it'
p4489
g10
F0.9966
tp4490
a(S'was'
p4491
g13
F0.9992
tp4492
a(S'lisa'
p4493
g118
F0.9298
tp4494
asI459
(lp4495
(S'kennan'
p4496
g118
F0.9836
tp4497
a(S'lisa'
p4498
g118
F0.9835
tp4499
asI460
(lp4500
(S'yeah'
p4501
g32
F0.996
tp4502
a(S'and'
p4503
g161
F0.9981
tp4504
asI461
(lp4505
(S'yeah'
p4506
g32
F0.996
tp4507
a(S'she'
p4508
g10
F0.9988
tp4509
a(S'got'
p4510
g13
F0.9985
tp4511
a(S'brought'
p4512
g13
F0.9772
tp4513
a(S'bought'
p4514
g13
F0.9963
tp4515
a(S'you'
p4516
g10
F0.965
tp4517
a(S'toys'
p4518
g6
F0.8218
tp4519
asI462
(lp4520
(S'and'
p4521
g161
F0.9987
tp4522
a(S'then'
p4523
g42
F0.9658
tp4524
a(S'she'
p4525
g10
F0.9963
tp4526
a(S'xxx'
p4527
g13
F0.5945
tp4528
a(S'spoons'
p4529
g6
F0.7597
tp4530
a(S'and'
p4531
g161
F0.9979
tp4532
a(S'then'
p4533
g42
F0.9867
tp4534
a(S'you'
p4535
g10
F0.9996
tp4536
a(S'played'
p4537
g13
F0.9973
tp4538
asI463
(lp4539
(S'right'
p4540
g32
F0.861
tp4541
asI464
(lp4542
(S'that'
p4543
g10
F0.4727
tp4544
a(g99
g13
F0.5427
tp4545
a(S'right'
p4546
g32
F0.3487
tp4547
asI465
(lp4548
(S'exactly'
p4549
g42
F0.7546
tp4550
a(S'we'
p4551
g10
F0.9966
tp4552
asI466
(lp4553
(S'xxx'
p4554
g70
F0.5381
tp4555
a(S'played'
p4556
g13
F0.9602
tp4557
asI467
(lp4558
(S'this'
p4559
g3
F0.5062
tp4560
a(S'xxx'
p4561
g70
F0.5684
tp4562
asI468
(lp4563
(S'and'
p4564
g161
F0.9991
tp4565
a(S'we'
p4566
g10
F0.9962
tp4567
a(S'pretended'
p4568
g13
F0.9996
tp4569
a(S'that'
p4570
g47
F0.8654
tp4571
a(S'we'
p4572
g10
F0.9984
tp4573
a(S'were'
p4574
g13
F0.9985
tp4575
a(S'having'
p4576
g13
F0.9894
tp4577
a(S'breakfast'
p4578
g6
F0.9793
tp4579
a(S'in'
p4580
g47
F0.9992
tp4581
a(S'the'
p4582
g3
F0.9993
tp4583
a(S'cafeteria'
p4584
g6
F0.9956
tp4585
a(S'at'
p4586
g47
F0.9997
tp4587
a(S'school'
p4588
g6
F0.9858
tp4589
a(S'huh'
p4590
g32
F0.9273
tp4591
asI469
(lp4592
(S'yeah'
p4593
g32
F0.9916
tp4594
a(S'will'
p4595
g13
F0.9981
tp4596
a(S'you'
p4597
g10
F0.9994
tp4598
a(S'brought'
p4599
g13
F0.9999
tp4600
a(S'me'
p4601
g10
F0.9493
tp4602
a(S'money'
p4603
g6
F0.83
tp4604
a(S'and'
p4605
g161
F0.998
tp4606
a(S'toys'
p4607
g6
F0.977
tp4608
a(S'sometime'
p4609
g42
F0.9791
tp4610
asI470
(lp4611
(S'are'
p4612
g13
F0.9963
tp4613
a(S'you'
p4614
g10
F0.9979
tp4615
a(S'xxx'
p4616
g70
F0.412
tp4617
asI471
(lp4618
(S'oh'
p4619
g32
F0.9903
tp4620
a(S'my'
p4621
g3
F0.7219
tp4622
a(S'gosh'
p4623
g32
F0.5771
tp4624
a(g9
g10
F0.9795
tp4625
a(g164
g13
F0.9877
tp4626
a(S'losing'
p4627
g13
F0.9933
tp4628
a(S'count'
p4629
g6
F0.5004
tp4630
asI472
(lp4631
(S'wait'
p4632
g13
F0.9922
tp4633
a(g217
g3
F0.9943
tp4634
a(S'minute'
p4635
g6
F0.9672
tp4636
a(S'now'
p4637
g42
F0.9868
tp4638
a(S'you'
p4639
g10
F0.9995
tp4640
a(S'want'
p4641
g13
F0.9999
tp4642
a(g217
g3
F0.996
tp4643
a(S'robot'
p4644
g6
F0.8119
tp4645
a(S'hand'
p4646
g6
F0.9911
tp4647
asI473
(lp4648
(S'yeah'
p4649
g32
F0.9988
tp4650
asI474
(lp4651
(S'and'
p4652
g161
F0.9986
tp4653
a(S'what'
p4654
g10
F0.9938
tp4655
a(S'else'
p4656
g42
F0.8213
tp4657
asI475
(lp4658
(S'um'
p4659
g32
F0.9106
tp4660
a(S'and'
p4661
g161
F0.9995
tp4662
a(g217
g3
F0.9945
tp4663
a(S'tray'
p4664
g6
F0.9958
tp4665
a(g217
g3
F0.985
tp4666
a(S'toy'
p4667
g6
F0.9302
tp4668
a(S'tray'
p4669
g6
F0.9959
tp4670
asI476
(lp4671
(S'oh'
p4672
g32
F0.9942
tp4673
a(S'right'
p4674
g32
F0.8955
tp4675
asI477
(lp4676
(S'xxx'
p4677
g70
F0.676
tp4678
a(S'and'
p4679
g161
F0.9995
tp4680
a(g217
g3
F0.7754
tp4681
a(S'and'
p4682
g161
F0.9993
tp4683
a(g217
g3
F0.7902
tp4684
a(S'and'
p4685
g161
F0.9984
tp4686
a(S'all'
p4687
g3
F0.6361
tp4688
a(S'those'
p4689
g3
F0.9762
tp4690
a(S'plates'
p4691
g6
F0.9948
tp4692
asI478
(lp4693
(S'and'
p4694
g161
F0.9992
tp4695
a(S'all'
p4696
g3
F0.5997
tp4697
a(S'those'
p4698
g3
F0.9787
tp4699
a(S'cups'
p4700
g6
F0.997
tp4701
asI479
(lp4702
(S'and'
p4703
g161
F0.9992
tp4704
a(S'um'
p4705
g32
F0.6558
tp4706
a(S'and'
p4707
g161
F0.997
tp4708
a(S'cars'
p4709
g6
F0.9886
tp4710
a(S'and'
p4711
g161
F0.9982
tp4712
a(S'uh'
p4713
g32
F0.9111
tp4714
asI480
(lp4715
(S'cups'
p4716
g6
F0.9452
tp4717
a(S'and'
p4718
g161
F0.999
tp4719
a(g217
g3
F0.9518
tp4720
a(S'saucer'
p4721
g28
F0.6115
tp4722
asI481
(lp4723
(S'and'
p4724
g161
F0.9982
tp4725
a(S'is'
p4726
g13
F0.997
tp4727
a(S'and'
p4728
g161
F0.9977
tp4729
a(S'all'
p4730
g42
F0.4312
tp4731
a(S'and'
p4732
g161
F0.998
tp4733
a(S'all'
p4734
g3
F0.5559
tp4735
a(S'those'
p4736
g3
F0.9787
tp4737
a(S'cups'
p4738
g6
F0.9955
tp4739
asI482
(lp4740
(S'ah'
p4741
g32
F0.996
tp4742
asI483
(lp4743
(S'now'
p4744
g42
F0.9887
tp4745
a(S'you'
p4746
g10
F0.9995
tp4747
a(S'understand'
p4748
g13
F0.9951
tp4749
asI484
(lp4750
(S'sort'
p4751
g6
F0.6153
tp4752
a(g537
g47
F0.9045
tp4753
a(g1629
g100
F0.3148
tp4754
a(S'like'
p4755
g47
F0.9028
tp4756
a(S'you'
p4757
g10
F0.9874
tp4758
a(S'own'
p4759
g13
F0.5468
tp4760
a(S'um'
p4761
g32
F0.4357
tp4762
a(S'dishes'
p4763
g6
F0.9036
tp4764
a(S'set'
p4765
g13
F0.5229
tp4766
a(S'of'
p4767
g47
F0.9744
tp4768
a(S'dishes'
p4769
g6
F0.9865
tp4770
a(S'huh'
p4771
g32
F0.9396
tp4772
asI485
(lp4773
(S'yeah'
p4774
g32
F0.9933
tp4775
a(S'and'
p4776
g161
F0.9973
tp4777
a(S'and'
p4778
g161
F0.9945
tp4779
a(S'and'
p4780
g161
F0.998
tp4781
a(S'yeah'
p4782
g32
F0.9881
tp4783
asI486
(lp4784
(S'know'
p4785
g13
F0.9726
tp4786
a(S'how'
p4787
g42
F0.9944
tp4788
a(S'many'
p4789
g28
F0.972
tp4790
a(S'toys'
p4791
g6
F0.9983
tp4792
a(S'that'
p4793
g47
F0.7736
tp4794
a(S'makes'
p4795
g13
F0.9799
tp4796
asI487
(lp4797
(S'oh'
p4798
g32
F0.9979
tp4799
a(S'gosh'
p4800
g32
F0.9996
tp4801
asI488
(lp4802
(S'how'
p4803
g42
F0.9938
tp4804
a(S'many'
p4805
g28
F0.9808
tp4806
asI489
(lp4807
(S'ten'
p4808
g1320
F0.742
tp4809
asI490
(lp4810
(g9
g10
F0.9896
tp4811
a(S'have'
p4812
g13
F0.9998
tp4813
a(S'to'
p4814
g47
F0.9959
tp4815
a(S'buy'
p4816
g13
F0.9951
tp4817
a(S'ten'
p4818
g1320
F0.8007
tp4819
a(S'toys'
p4820
g6
F0.9948
tp4821
a(S'now'
p4822
g42
F0.9963
tp4823
asI491
(lp4824
(S'but'
p4825
g161
F0.994
tp4826
a(S'your'
p4827
g3
F0.9683
tp4828
a(S'birthday'
p4829
g6
F0.9988
tp4830
a(S'was'
p4831
g13
F0.9849
tp4832
a(S'only'
p4833
g42
F0.9364
tp4834
a(g217
g3
F0.9911
tp4835
a(S'month'
p4836
g6
F0.9978
tp4837
a(S'ago'
p4838
g42
F0.9107
tp4839
asI492
(lp4840
(S'and'
p4841
g161
F0.9988
tp4842
a(S'christmas'
p4843
g118
F0.9496
tp4844
a(S'isn'
p4845
g100
F0.4322
tp4846
a(g15
g100
F0.7205
tp4847
a(S'for'
p4848
g47
F0.9979
tp4849
a(S'five'
p4850
g1320
F0.4978
tp4851
a(S'more'
p4852
g28
F0.9326
tp4853
a(S'months'
p4854
g6
F0.9817
tp4855
asI493
(lp4856
(g9
g10
F0.9912
tp4857
a(S'know'
p4858
g13
F0.9989
tp4859
asI494
(lp4860
(S'uhoh'
p4861
g32
F0.9931
tp4862
asI495
(lp4863
(S'will'
p4864
g13
F0.9979
tp4865
a(S'you'
p4866
g10
F0.9988
tp4867
a(S'buy'
p4868
g13
F0.9997
tp4869
a(S'me'
p4870
g10
F0.9896
tp4871
a(S'some'
p4872
g3
F0.9182
tp4873
a(S'new'
p4874
g28
F0.9993
tp4875
a(S'toys'
p4876
g6
F0.9945
tp4877
a(S'someday'
p4878
g42
F0.943
tp4879
asI496
(lp4880
(S'sure'
p4881
g28
F0.8345
tp4882
asI497
(lp4883
(S'uh'
p4884
g32
F0.971
tp4885
a(S'ten'
p4886
g1320
F0.9008
tp4887
a(S'toys'
p4888
g6
F0.9977
tp4889
asI498
(lp4890
(S'oh'
p4891
g32
F0.9979
tp4892
a(S'gosh'
p4893
g32
F0.9996
tp4894
a(S'yeah'
p4895
g32
F0.9986
tp4896
asI499
(lp4897
(S'sure'
p4898
g28
F0.8167
tp4899
a(g9
g10
F0.9717
tp4900
a(S'll'
p4901
g13
F0.7453
tp4902
a(S'buy'
p4903
g13
F0.998
tp4904
a(S'you'
p4905
g10
F0.9879
tp4906
a(S'ten'
p4907
g1320
F0.6247
tp4908
a(S'toys'
p4909
g6
F0.9977
tp4910
a(S'sometime'
p4911
g42
F0.9694
tp4912
asI500
(lp4913
(S'here'
p4914
g42
F0.9346
tp4915
a(S'you'
p4916
g10
F0.9998
tp4917
a(S'want'
p4918
g13
F0.9999
tp4919
a(S'some'
p4920
g3
F0.9414
tp4921
a(S'more'
p4922
g28
F0.8776
tp4923
a(S'of'
p4924
g47
F0.9992
tp4925
a(S'this'
p4926
g3
F0.9682
tp4927
a(S'cantaloupe'
p4928
g6
F0.9888
tp4929
a(S'chi'
p4930
g100
F0.4707
tp4931
asI501
(lp4932
(S'xxx'
p4933
g70
F0.8437
tp4934
asI502
(lp4935
(S'gob'
p4936
g6
F0.5934
tp4937
a(g537
g47
F0.8661
tp4938
a(S'gob'
p4939
g6
F0.744
tp4940
a(g537
g47
F0.8847
tp4941
a(S'gob'
p4942
g6
F0.6969
tp4943
a(g537
g47
F0.8406
tp4944
a(S'gobble'
p4945
g32
F0.7545
tp4946
asI503
(lp4947
(S'orange'
p4948
g28
F0.9067
tp4949
a(S'food'
p4950
g6
F0.9985
tp4951
a(S'is'
p4952
g13
F0.9931
tp4953
a(S'almost'
p4954
g42
F0.9934
tp4955
a(S'as'
p4956
g42
F0.8842
tp4957
a(S'good'
p4958
g28
F0.9986
tp4959
a(S'as'
p4960
g47
F0.71
tp4961
a(S'green'
p4962
g28
F0.988
tp4963
a(S'food'
p4964
g6
F0.9992
tp4965
a(S'to'
p4966
g47
F0.9994
tp4967
a(S'eat'
p4968
g13
F0.9889
tp4969
asI504
(lp4970
(S'xxx'
p4971
g70
F0.8437
tp4972
asI505
(lp4973
(S'hey'
p4974
g32
F0.9907
tp4975
a(S'don'
p4976
g118
F0.4833
tp4977
a(g15
g118
F0.7348
tp4978
a(S'cover'
p4979
g13
F0.8988
tp4980
a(S'up'
p4981
g185
F0.8797
tp4982
a(S'the'
p4983
g3
F0.9994
tp4984
a(S'broccoli'
p4985
g6
F0.9953
tp4986
asI506
(lp4987
(S'huh'
p4988
g32
F0.993
tp4989
asI507
(lp4990
(S'you'
p4991
g10
F0.998
tp4992
a(S'want'
p4993
g13
F0.9995
tp4994
a(S'more'
p4995
g28
F0.8786
tp4996
a(S'broccoli'
p4997
g6
F0.9988
tp4998
asI508
(lp4999
(S'huh'
p5000
g32
F0.993
tp5001
asI509
(lp5002
(S'hm'
p5003
g32
F0.995
tp5004
asI510
(lp5005
(g9
g10
F0.9793
tp5006
a(S'll'
p5007
g13
F0.8021
tp5008
a(S'bring'
p5009
g13
F0.9999
tp5010
a(S'you'
p5011
g10
F0.9899
tp5012
a(S'some'
p5013
g3
F0.9936
tp5014
a(S'broccoli'
p5015
g6
F0.9939
tp5016
asI511
(lp5017
(S'it'
p5018
g10
F0.9858
tp5019
a(g99
g13
F0.6231
tp5020
a(S'good'
p5021
g28
F0.991
tp5022
asI512
(lp5023
(S'it'
p5024
g10
F0.9888
tp5025
a(g99
g13
F0.7704
tp5026
a(S'like'
p5027
g47
F0.8103
tp5028
a(S'eating'
p5029
g13
F0.9979
tp5030
a(g217
g3
F0.9987
tp5031
a(S'little'
p5032
g28
F0.9975
tp5033
a(S'tree'
p5034
g6
F0.9983
tp5035
asI513
(lp5036
(g9
g10
F0.9793
tp5037
a(S'll'
p5038
g13
F0.7059
tp5039
a(S'try'
p5040
g13
F0.999
tp5041
a(S'it'
p5042
g10
F0.9876
tp5043
asI514
(lp5044
(S'you'
p5045
g10
F0.9951
tp5046
a(S'will'
p5047
g13
F0.9985
tp5048
asI515
(lp5049
(S'chi'
p5050
g118
F0.7993
tp5051
a(S'wants'
p5052
g13
F0.9985
tp5053
a(S'to'
p5054
g47
F0.988
tp5055
a(S'try'
p5056
g13
F0.9996
tp5057
a(g217
g3
F0.9978
tp5058
a(S'little'
p5059
g28
F0.9978
tp5060
a(S'tree'
p5061
g6
F0.9996
tp5062
a(S'of'
p5063
g47
F0.9966
tp5064
a(S'broccoli'
p5065
g6
F0.9894
tp5066
asI516
(lp5067
(S'oh'
p5068
g32
F0.995
tp5069
a(S'he'
p5070
g10
F0.9965
tp5071
a(S'does'
p5072
g13
F0.9994
tp5073
a(S'huh'
p5074
g32
F0.9482
tp5075
asI517
(lp5076
(S'yeah'
p5077
g32
F0.9988
tp5078
asI518
(lp5079
(S'good'
p5080
g28
F0.9709
tp5081
a(g9
g10
F0.9367
tp5082
a(S'll'
p5083
g13
F0.7626
tp5084
a(S'bring'
p5085
g13
F0.9999
tp5086
a(S'him'
p5087
g10
F0.9286
tp5088
a(S'some'
p5089
g3
F0.4804
tp5090
a(S'to'
p5091
g47
F0.9969
tp5092
a(S'eat'
p5093
g13
F0.9911
tp5094
asI519
(lp5095
(S'is'
p5096
g13
F0.9993
tp5097
a(S'it'
p5098
g10
F0.9903
tp5099
a(S'good'
p5100
g28
F0.9943
tp5101
asI520
(lp5102
(S'be'
p5103
g13
F0.9727
tp5104
a(S'cause'
p5105
g47
F0.4776
tp5106
a(S'at'
p5107
g47
F0.9963
tp5108
a(S'school'
p5109
g6
F0.9855
tp5110
a(S'they'
p5111
g10
F0.9854
tp5112
a(S'told'
p5113
g13
F1.0
tp5114
a(S'me'
p5115
g10
F0.9986
tp5116
a(S'that'
p5117
g47
F0.9229
tp5118
a(S'you'
p5119
g10
F0.9996
tp5120
a(S'always'
p5121
g42
F0.9959
tp5122
a(S'try'
p5123
g13
F0.9878
tp5124
a(S'new'
p5125
g28
F0.9967
tp5126
a(S'food'
p5127
g6
F0.9871
tp5128
asI521
(lp5129
(S'but'
p5130
g161
F0.993
tp5131
a(S'you'
p5132
g10
F0.9985
tp5133
a(S'willn'
p5134
g13
F0.6045
tp5135
a(g15
g13
F0.3432
tp5136
a(S'do'
p5137
g13
F0.9985
tp5138
a(S'that'
p5139
g10
F0.8926
tp5140
a(S'here'
p5141
g42
F0.9646
tp5142
asI522
(lp5143
(S'xxx'
p5144
g70
F0.7559
tp5145
a(S'but'
p5146
g161
F0.9909
tp5147
asI523
(lp5148
(S'you'
p5149
g10
F0.995
tp5150
a(S'always'
p5151
g42
F0.991
tp5152
a(S'tell'
p5153
g13
F0.9993
tp5154
a(S'me'
p5155
g10
F0.9993
tp5156
a(S'that'
p5157
g47
F0.9229
tp5158
a(S'you'
p5159
g10
F0.9995
tp5160
a(S'eat'
p5161
g13
F0.9997
tp5162
a(S'your'
p5163
g3
F0.9937
tp5164
a(S'salad'
p5165
g6
F0.9957
tp5166
a(S'and'
p5167
g161
F0.9963
tp5168
a(S'your'
p5169
g3
F0.9074
tp5170
a(S'carrots'
p5171
g6
F0.9959
tp5172
a(S'and'
p5173
g161
F0.9973
tp5174
a(S'peas'
p5175
g6
F0.9361
tp5176
asI524
(lp5177
(S'xxx'
p5178
g70
F0.8437
tp5179
asI525
(lp5180
(S'but'
p5181
g161
F0.9903
tp5182
a(S'if'
p5183
g47
F0.9727
tp5184
a(g9
g10
F0.9919
tp5185
a(S'don'
p5186
g13
F0.9208
tp5187
a(g15
g13
F0.4265
tp5188
a(S'like'
p5189
g47
F0.8027
tp5190
a(S'it'
p5191
g10
F0.997
tp5192
a(g9
g10
F0.9596
tp5193
a(S'll'
p5194
g13
F0.7481
tp5195
a(S'spit'
p5196
g13
F0.9955
tp5197
a(S'it'
p5198
g10
F0.9921
tp5199
a(S'out'
p5200
g185
F0.947
tp5201
a(S'on'
p5202
g47
F0.9962
tp5203
a(S'my'
p5204
g3
F0.9966
tp5205
a(S'plate'
p5206
g6
F0.9976
tp5207
a(S'okay'
p5208
g32
F0.8134
tp5209
asI526
(lp5210
(S'alright'
p5211
g32
F0.9864
tp5212
asI527
(lp5213
(S'laughs'
p5214
g13
F0.9102
tp5215
asI528
(lp5216
(S'hey'
p5217
g32
F0.9876
tp5218
a(S'father'
p5219
g6
F0.9132
tp5220
a(S'name'
p5221
g6
F0.9906
tp5222
asI529
(lp5223
(S'yes'
p5224
g32
F0.9958
tp5225
asI530
(lp5226
(g9
g10
F0.965
tp5227
a(S'if'
p5228
g47
F0.9828
tp5229
a(g9
g10
F0.9919
tp5230
a(S'don'
p5231
g13
F0.9208
tp5232
a(g15
g13
F0.4265
tp5233
a(S'like'
p5234
g47
F0.8275
tp5235
a(S'it'
p5236
g10
F0.9974
tp5237
a(S'right'
p5238
g42
F0.436
tp5239
asI531
(lp5240
(g9
g10
F0.9793
tp5241
a(S'll'
p5242
g13
F0.8045
tp5243
a(S'spit'
p5244
g13
F0.9953
tp5245
a(S'it'
p5246
g10
F0.9897
tp5247
a(S'out'
p5248
g185
F0.947
tp5249
a(S'on'
p5250
g47
F0.9965
tp5251
a(S'my'
p5252
g3
F0.9973
tp5253
a(S'plate'
p5254
g6
F0.9983
tp5255
asI532
(lp5256
(S'okay'
p5257
g32
F0.9857
tp5258
asI533
(lp5259
(S'know'
p5260
g13
F0.9511
tp5261
a(S'what'
p5262
g10
F0.9922
tp5263
asI534
(lp5264
(g9
g10
F0.953
tp5265
a(g164
g13
F0.9629
tp5266
a(S'gonna'
p5267
g13
F0.9892
tp5268
a(S'bite'
p5269
g13
F0.9992
tp5270
a(S'it'
p5271
g10
F0.9399
tp5272
a(S'this'
p5273
g3
F0.8878
tp5274
a(S'many'
p5275
g28
F0.9629
tp5276
a(S'times'
p5277
g6
F0.9938
tp5278
asI535
(lp5279
(S'one'
p5280
g1320
F0.958
tp5281
a(S'two'
p5282
g1320
F0.9083
tp5283
a(S'three'
p5284
g1320
F0.9086
tp5285
a(S'right'
p5286
g28
F0.4113
tp5287
asI536
(lp5288
(S'four'
p5289
g1320
F0.7816
tp5290
a(S'five'
p5291
g1320
F0.4098
tp5292
a(S'six'
p5293
g1320
F0.5068
tp5294
a(S'seven'
p5295
g1320
F0.8274
tp5296
a(S'eight'
p5297
g1320
F0.7604
tp5298
a(S'nine'
p5299
g28
F0.4526
tp5300
a(S'ten'
p5301
g1320
F0.6404
tp5302
asI537
(lp5303
(S'whistles'
p5304
g13
F0.4259
tp5305
asI538
(lp5306
(S'wow'
p5307
g32
F0.9963
tp5308
asI539
(lp5309
(S'eleven'
p5310
g1320
F0.8467
tp5311
a(S'twelve'
p5312
g1320
F0.5497
tp5313
asI540
(lp5314
(S'xxx'
p5315
g70
F0.8437
tp5316
asI541
(lp5317
(S'hey'
p5318
g32
F0.9949
tp5319
a(S'chi'
p5320
g118
F0.6024
tp5321
a(S'come'
p5322
g13
F0.993
tp5323
a(S'on'
p5324
g47
F0.831
tp5325
a(S'in'
p5326
g47
F0.947
tp5327
a(S'here'
p5328
g42
F0.9057
tp5329
asI542
(lp5330
(S'go'
p5331
g13
F0.9724
tp5332
a(S'on'
p5333
g47
F0.9363
tp5334
a(S'in'
p5335
g47
F0.9742
tp5336
a(S'there'
p5337
g42
F0.7015
tp5338
a(g9
g10
F0.9845
tp5339
a(S'll'
p5340
g13
F0.7524
tp5341
a(S'bring'
p5342
g13
F0.9998
tp5343
a(S'you'
p5344
g10
F0.9943
tp5345
a(g217
g3
F0.9962
tp5346
a(S'piece'
p5347
g6
F0.9989
tp5348
a(S'of'
p5349
g47
F0.9989
tp5350
a(S'it'
p5351
g10
F0.942
tp5352
a(S'broccoli'
p5353
g6
F0.9503
tp5354
asI543
(lp5355
(S'here'
p5356
g42
F0.9436
tp5357
a(S'come'
p5358
g13
F0.9735
tp5359
a(S'on'
p5360
g185
F0.7116
tp5361
asI544
(lp5362
(S'shouldn'
p5363
g13
F0.5405
tp5364
a(g15
g13
F0.7156
tp5365
a(S'have'
p5366
g13
F0.9751
tp5367
a(S'one'
p5368
g1320
F0.8013
tp5369
asI545
(lp5370
(S'wow'
p5371
g32
F0.9963
tp5372
asI546
(lp5373
(S'okay'
p5374
g32
F0.906
tp5375
a(S'here'
p5376
g42
F0.9567
tp5377
a(g99
g100
F0.8188
tp5378
a(g217
g3
F0.9935
tp5379
a(S'little'
p5380
g28
F0.9773
tp5381
asI547
(lp5382
(S'watch'
p5383
g13
F0.8421
tp5384
asI548
(lp5385
(S'watch'
p5386
g13
F0.9883
tp5387
a(S'out'
p5388
g185
F0.9079
tp5389
asI549
(lp5390
(S'come'
p5391
g13
F0.9849
tp5392
a(S'on'
p5393
g185
F0.5632
tp5394
asI550
(lp5395
(S'come'
p5396
g13
F0.9689
tp5397
a(S'and'
p5398
g161
F0.9935
tp5399
a(S'try'
p5400
g13
F0.9873
tp5401
a(S'one'
p5402
g1320
F0.9735
tp5403
a(S'of'
p5404
g47
F0.999
tp5405
a(S'these'
p5406
g3
F0.9876
tp5407
a(S'little'
p5408
g28
F0.9986
tp5409
a(S'trees'
p5410
g6
F0.9982
tp5411
asI551
(lp5412
(S'watch'
p5413
g13
F0.8421
tp5414
asI552
(lp5415
(S'here'
p5416
g42
F0.9382
tp5417
a(g99
g100
F0.7745
tp5418
a(g217
g3
F0.994
tp5419
a(S'little'
p5420
g28
F0.9971
tp5421
a(S'piece'
p5422
g6
F0.999
tp5423
a(S'of'
p5424
g47
F0.9953
tp5425
a(S'tree'
p5426
g6
F0.9785
tp5427
a(S'for'
p5428
g47
F0.9999
tp5429
a(S'you'
p5430
g10
F0.999
tp5431
asI553
(lp5432
(S'watch'
p5433
g13
F0.8805
tp5434
a(S'what'
p5435
g10
F0.9921
tp5436
asI554
(lp5437
(g217
g3
F0.9928
tp5438
a(S'piece'
p5439
g6
F0.9987
tp5440
a(S'of'
p5441
g47
F0.9937
tp5442
a(S'broccoli'
p5443
g6
F0.9864
tp5444
asI555
(lp5445
(S'could'
p5446
g13
F0.9986
tp5447
a(S'you'
p5448
g10
F0.999
tp5449
a(S'put'
p5450
g13
F0.9994
tp5451
a(S'it'
p5452
g10
F0.9628
tp5453
a(S'on'
p5454
g47
F0.9317
tp5455
a(S'my'
p5456
g3
F0.9959
tp5457
a(S'plate'
p5458
g6
F0.9982
tp5459
asI556
(lp5460
(S'okay'
p5461
g32
F0.9857
tp5462
asI557
(lp5463
(g2989
g47
F0.86
tp5464
a(S'watch'
p5465
g13
F0.9396
tp5466
a(S'how'
p5467
g42
F0.99
tp5468
a(S'how'
p5469
g42
F0.9973
tp5470
a(S'high'
p5471
g28
F0.7451
tp5472
a(g9
g10
F0.9173
tp5473
a(S'can'
p5474
g13
F0.9998
tp5475
a(S'throw'
p5476
g13
F0.9992
tp5477
a(S'it'
p5478
g10
F0.9791
tp5479
asI558
(lp5480
(S'wow'
p5481
g32
F0.9963
tp5482
asI559
(lp5483
(S'did'
p5484
g13
F0.9986
tp5485
a(S'you'
p5486
g10
F0.9986
tp5487
a(S'see'
p5488
g13
F0.998
tp5489
a(S'how'
p5490
g42
F0.9868
tp5491
a(S'high'
p5492
g28
F0.8441
tp5493
a(S'he'
p5494
g10
F0.9916
tp5495
a(S'threw'
p5496
g13
F0.9993
tp5497
a(S'that'
p5498
g10
F0.8269
tp5499
asI560
(lp5500
(S'mm'
p5501
g32
F0.627
tp5502
asI561
(lp5503
(S'okay'
p5504
g32
F0.906
tp5505
a(S'here'
p5506
g42
F0.9644
tp5507
a(S'try'
p5508
g13
F0.9778
tp5509
a(S'this'
p5510
g10
F0.6513
tp5511
asI562
(lp5512
(g9
g10
F0.9583
tp5513
a(g9
g13
F0.5326
tp5514
a(S'it'
p5515
g10
F0.9936
tp5516
a(g99
g13
F0.4296
tp5517
a(S'higher'
p5518
g28
F0.9529
tp5519
asI563
(lp5520
(S'okay'
p5521
g32
F0.9857
tp5522
asI564
(lp5523
(S'why'
p5524
g42
F0.9375
tp5525
a(S'don'
p5526
g6
F0.2525
tp5527
a(g15
g13
F0.5898
tp5528
a(S'you'
p5529
g10
F0.999
tp5530
a(S'sit'
p5531
g13
F0.9994
tp5532
a(S'down'
p5533
g185
F0.7153
tp5534
a(S'and'
p5535
g161
F0.9968
tp5536
a(S'try'
p5537
g13
F0.9921
tp5538
a(S'that'
p5539
g3
F0.605
tp5540
a(S'broccoli'
p5541
g6
F0.996
tp5542
a(S'now'
p5543
g42
F0.987
tp5544
asI565
(lp5545
(S'xxx'
p5546
g70
F0.8437
tp5547
asI566
(lp5548
(S'no'
p5549
g32
F0.9253
tp5550
asI567
(lp5551
(S'he'
p5552
g10
F0.9905
tp5553
a(g99
g13
F0.7029
tp5554
a(S'not'
p5555
g42
F0.9966
tp5556
a(S'exactly'
p5557
g42
F0.994
tp5558
a(S'sitting'
p5559
g13
F0.9995
tp5560
a(S'down'
p5561
g185
F0.7799
tp5562
asI568
(lp5563
(g1629
g100
F0.6722
tp5564
a(g1629
g100
F0.7499
tp5565
a(S'father'
p5566
g6
F0.8206
tp5567
a(S'name'
p5568
g6
F0.9885
tp5569
a(S'don'
p5570
g6
F0.4144
tp5571
a(g15
g6
F0.3405
tp5572
a(S'give'
p5573
g13
F0.9994
tp5574
a(S'me'
p5575
g10
F0.9964
tp5576
a(S'your'
p5577
g3
F0.9422
tp5578
a(S'big'
p5579
g28
F0.9539
tp5580
a(S'pieces'
p5581
g6
F0.9973
tp5582
asI569
(lp5583
(S'no'
p5584
g32
F0.7822
tp5585
a(S'no'
p5586
g32
F0.8036
tp5587
asI570
(lp5588
(S'that'
p5589
g10
F0.473
tp5590
a(g99
g13
F0.6947
tp5591
a(S'that'
p5592
g10
F0.5826
tp5593
a(g99
g100
F0.472
tp5594
a(S'for'
p5595
g47
F0.999
tp5596
a(S'me'
p5597
g10
F0.999
tp5598
asI571
(lp5599
(S'oh'
p5600
g32
F0.9988
tp5601
asI572
(lp5602
(S'we'
p5603
g10
F0.9948
tp5604
a(S'll'
p5605
g13
F0.8254
tp5606
a(S'do'
p5607
g13
F0.9998
tp5608
a(S'it'
p5609
g10
F0.9764
tp5610
a(S'we'
p5611
g10
F0.9823
tp5612
a(S'll'
p5613
g13
F0.649
tp5614
a(S'eat'
p5615
g13
F0.9987
tp5616
a(S'it'
p5617
g10
F0.9959
tp5618
a(S'together'
p5619
g42
F0.9409
tp5620
asI573
(lp5621
(S'ready'
p5622
g28
F0.9553
tp5623
asI574
(lp5624
(S'go'
p5625
g13
F0.8465
tp5626
asI575
(lp5627
(S'laughs'
p5628
g13
F0.9102
tp5629
asI576
(lp5630
(S'ugh'
p5631
g32
F0.9949
tp5632
asI577
(lp5633
(S'chi'
p5634
g100
F0.3949
tp5635
a(S'you'
p5636
g10
F0.9946
tp5637
a(S'didn'
p5638
g13
F0.9885
tp5639
a(g15
g13
F0.741
tp5640
a(S'even'
p5641
g42
F0.9967
tp5642
a(S'get'
p5643
g13
F0.9998
tp5644
a(S'your'
p5645
g3
F0.9973
tp5646
a(S'mouth'
p5647
g6
F0.9998
tp5648
a(S'around'
p5649
g47
F0.9823
tp5650
a(S'it'
p5651
g10
F0.995
tp5652
asI578
(lp5653
(S'how'
p5654
g42
F0.9703
tp5655
a(S'do'
p5656
g13
F0.9985
tp5657
a(S'you'
p5658
g10
F0.9998
tp5659
a(S'know'
p5660
g13
F0.9957
tp5661
asI579
(lp5662
(S'well'
p5663
g32
F0.9735
tp5664
a(S'what'
p5665
g10
F0.9978
tp5666
a(S'happened'
p5667
g13
F0.9935
tp5668
asI580
(lp5669
(S'it'
p5670
g10
F0.9885
tp5671
a(S'didn'
p5672
g13
F0.9727
tp5673
a(g15
g13
F0.7417
tp5674
a(S'even'
p5675
g42
F0.994
tp5676
a(S'touch'
p5677
g13
F0.9947
tp5678
a(S'your'
p5679
g3
F0.992
tp5680
a(S'tongue'
p5681
g6
F0.9978
tp5682
asI581
(lp5683
(S'how'
p5684
g42
F0.9703
tp5685
a(S'do'
p5686
g13
F0.9987
tp5687
a(S'you'
p5688
g10
F0.9997
tp5689
a(S'know'
p5690
g13
F0.9998
tp5691
a(S'you'
p5692
g10
F0.9986
tp5693
a(S'don'
p5694
g13
F0.8626
tp5695
a(g15
g13
F0.3903
tp5696
a(S'like'
p5697
g47
F0.8259
tp5698
a(S'it'
p5699
g10
F0.9985
tp5700
asI582
(lp5701
(S'what'
p5702
g10
F0.9864
tp5703
a(S'happened'
p5704
g13
F0.9921
tp5705
asI583
(lp5706
(S'xxx'
p5707
g70
F0.6854
tp5708
a(S'laughs'
p5709
g13
F0.948
tp5710
asI584
(lp5711
(g9
g10
F0.9811
tp5712
a(S'just'
p5713
g42
F0.9992
tp5714
a(S'didn'
p5715
g13
F0.9586
tp5716
a(g15
g13
F0.8969
tp5717
a(S'like'
p5718
g47
F0.8879
tp5719
a(S'the'
p5720
g3
F0.9989
tp5721
a(S'top'
p5722
g28
F0.6095
tp5723
asI585
(lp5724
(S'you'
p5725
g10
F0.9911
tp5726
a(S'didn'
p5727
g13
F0.9886
tp5728
a(g15
g13
F0.8986
tp5729
a(S'like'
p5730
g47
F0.96
tp5731
a(S'the'
p5732
g3
F0.9991
tp5733
a(S'top'
p5734
g6
F0.504
tp5735
asI586
(lp5736
(S'why'
p5737
g42
F0.9573
tp5738
a(S'you'
p5739
g10
F0.9988
tp5740
a(S'didn'
p5741
g13
F0.9885
tp5742
a(g15
g13
F0.8969
tp5743
a(S'like'
p5744
g47
F0.938
tp5745
a(S'the'
p5746
g3
F0.9991
tp5747
a(S'way'
p5748
g6
F0.9624
tp5749
a(S'it'
p5750
g10
F0.9731
tp5751
a(S'feels'
p5752
g13
F0.996
tp5753
a(S'or'
p5754
g161
F0.9795
tp5755
asI587
(lp5756
(g9
g10
F0.9756
tp5757
a(S'didn'
p5758
g13
F0.9919
tp5759
a(g15
g13
F0.8986
tp5760
a(S'like'
p5761
g47
F0.9423
tp5762
a(S'the'
p5763
g3
F0.9991
tp5764
a(S'way'
p5765
g6
F0.9576
tp5766
a(S'it'
p5767
g10
F0.957
tp5768
a(S'feels'
p5769
g13
F0.9959
tp5770
asI588
(lp5771
(S'what'
p5772
g10
F0.9777
tp5773
a(S'about'
p5774
g47
F0.9961
tp5775
a(S'the'
p5776
g3
F0.9906
tp5777
a(S'taste'
p5778
g6
F0.9837
tp5779
asI589
(lp5780
(S'did'
p5781
g13
F0.9986
tp5782
a(S'you'
p5783
g10
F0.9973
tp5784
a(S'like'
p5785
g13
F0.7645
tp5786
a(S'the'
p5787
g3
F0.9887
tp5788
a(S'taste'
p5789
g6
F0.9683
tp5790
asI590
(lp5791
(S'laughs'
p5792
g13
F0.9102
tp5793
asI591
(lp5794
(g9
g10
F0.9635
tp5795
a(S'don'
p5796
g13
F0.9231
tp5797
a(g15
g13
F0.3155
tp5798
a(S'think'
p5799
g13
F0.9985
tp5800
a(S'you'
p5801
g10
F0.9988
tp5802
a(S'even'
p5803
g42
F0.9952
tp5804
asI592
(lp5805
(S'like'
p5806
g47
F0.9231
tp5807
a(S'the'
p5808
g3
F0.9985
tp5809
a(S'color'
p5810
g6
F0.9961
tp5811
asI593
(lp5812
(S'laughs'
p5813
g13
F0.9102
tp5814
asI594
(lp5815
(S'laughs'
p5816
g13
F0.9102
tp5817
asI595
(lp5818
(S'no'
p5819
g32
F0.9253
tp5820
asI596
(lp5821
(S'feel'
p5822
g13
F0.9944
tp5823
a(S'my'
p5824
g3
F0.9976
tp5825
a(S'muscles'
p5826
g6
F0.9988
tp5827
asI597
(lp5828
(S'oh'
p5829
g32
F0.9874
tp5830
a(S'boy'
p5831
g6
F0.7183
tp5832
a(S'they'
p5833
g10
F0.9756
tp5834
a(S'feel'
p5835
g13
F0.9966
tp5836
a(S'kinda'
p5837
g42
F0.9894
tp5838
a(S'puny'
p5839
g28
F0.9995
tp5840
a(S'today'
p5841
g6
F0.9979
tp5842
asI598
(lp5843
(S'are'
p5844
g13
F0.9898
tp5845
a(S'they'
p5846
g10
F0.8484
tp5847
a(S'big'
p5848
g28
F0.8408
tp5849
asI599
(lp5850
(g9
g10
F0.989
tp5851
a(S'think'
p5852
g13
F0.9999
tp5853
a(S'they'
p5854
g10
F0.9963
tp5855
a(S'shrank'
p5856
g13
F0.9996
tp5857
a(g217
g3
F0.9986
tp5858
a(S'tiny'
p5859
g28
F0.9761
tp5860
a(S'bit'
p5861
g6
F0.8951
tp5862
asI600
(lp5863
(g9
g10
F0.989
tp5864
a(S'think'
p5865
g13
F0.9999
tp5866
a(S'they'
p5867
g10
F0.9969
tp5868
a(S'got'
p5869
g13
F0.9999
tp5870
a(g217
g3
F0.9989
tp5871
a(S'little'
p5872
g28
F0.9532
tp5873
a(S'smaller'
p5874
g28
F0.9753
tp5875
a(S'because'
p5876
g47
F0.9998
tp5877
a(S'you'
p5878
g10
F0.9885
tp5879
a(S'haven'
p5880
g13
F0.5515
tp5881
a(g15
g100
F0.3079
tp5882
a(S'been'
p5883
g13
F0.9791
tp5884
a(S'eating'
p5885
g13
F0.9967
tp5886
a(S'very'
p5887
g42
F0.9916
tp5888
a(S'well'
p5889
g42
F0.6876
tp5890
a(S'lately'
p5891
g42
F0.9912
tp5892
asI601
(lp5893
(S'www'
p5894
g118
F0.3889
tp5895
asI602
(lp5896
(S'watch'
p5897
g13
F0.9577
tp5898
a(S'now'
p5899
g42
F0.9841
tp5900
a(S'why'
p5901
g42
F0.9844
tp5902
a(S'don'
p5903
g6
F0.2563
tp5904
a(g15
g13
F0.5371
tp5905
a(S'you'
p5906
g10
F0.9992
tp5907
a(S'let'
p5908
g13
F0.996
tp5909
a(g99
g100
F0.4358
tp5910
a(S'try'
p5911
g13
F0.9965
tp5912
a(S'it'
p5913
g10
F0.9895
tp5914
a(S'again'
p5915
g42
F0.9761
tp5916
asI603
(lp5917
(S'put'
p5918
g13
F0.9661
tp5919
a(S'that'
p5920
g3
F0.7937
tp5921
a(S'one'
p5922
g1320
F0.5858
tp5923
a(S'put'
p5924
g13
F0.8398
tp5925
a(S'that'
p5926
g3
F0.7846
tp5927
a(S'one'
p5928
g1320
F0.8641
tp5929
a(S'back'
p5930
g42
F0.5555
tp5931
a(S'in'
p5932
g47
F0.9959
tp5933
a(S'your'
p5934
g3
F0.9958
tp5935
a(S'mouth'
p5936
g6
F0.9994
tp5937
asI604
(lp5938
(S'give'
p5939
g13
F0.9981
tp5940
a(S'it'
p5941
g10
F0.9438
tp5942
a(S'another'
p5943
g3
F0.958
tp5944
a(S'try'
p5945
g6
F0.8038
tp5946
asI605
(lp5947
(S'no'
p5948
g3
F0.8365
tp5949
a(S'way'
p5950
g6
F0.9976
tp5951
asI606
(lp5952
(S'you'
p5953
g10
F0.9911
tp5954
a(S'didn'
p5955
g13
F0.9886
tp5956
a(g15
g13
F0.7417
tp5957
a(S'even'
p5958
g42
F0.9964
tp5959
a(S'let'
p5960
g13
F0.9997
tp5961
a(S'it'
p5962
g10
F0.9965
tp5963
a(S'try'
p5964
g13
F0.9933
tp5965
asI607
(lp5966
(S'www'
p5967
g118
F0.3889
tp5968
asI608
(lp5969
(S'you'
p5970
g10
F0.9911
tp5971
a(S'didn'
p5972
g13
F0.9886
tp5973
a(g15
g13
F0.7417
tp5974
a(S'even'
p5975
g42
F0.9979
tp5976
a(S'bite'
p5977
g13
F0.9988
tp5978
a(S'it'
p5979
g10
F0.9888
tp5980
asI609
(lp5981
(S'got'
p5982
g13
F0.9944
tp5983
a(S'it'
p5984
g10
F0.9885
tp5985
asI610
(lp5986
(S'chi'
p5987
g32
F0.4684
tp5988
asI611
(lp5989
(S'watch'
p5990
g13
F0.8421
tp5991
asI612
(lp5992
(S'not'
p5993
g42
F0.9938
tp5994
a(S'at'
p5995
g47
F0.9995
tp5996
a(S'the'
p5997
g3
F0.9993
tp5998
a(S'dinner'
p5999
g6
F0.9571
tp6000
a(S'table'
p6001
g6
F0.9919
tp6002
asI613
(lp6003
(S'even'
p6004
g42
F0.9831
tp6005
a(S'daddy'
p6006
g6
F0.8388
tp6007
a(S'eats'
p6008
g13
F0.976
tp6009
a(S'that'
p6010
g10
F0.5146
tp6011
asI614
(lp6012
(S'mm'
p6013
g32
F0.627
tp6014
asI615
(lp6015
(S'www'
p6016
g118
F0.5889
tp6017
a(S'yelps'
p6018
g6
F0.7664
tp6019
asI616
(lp6020
(S'give'
p6021
g13
F0.9981
tp6022
a(S'it'
p6023
g10
F0.9601
tp6024
a(g217
g3
F0.9644
tp6025
a(S'try'
p6026
g6
F0.9713
tp6027
asI617
(lp6028
(S'no'
p6029
g3
F0.8365
tp6030
a(S'way'
p6031
g6
F0.9976
tp6032
asI618
(lp6033
(S'it'
p6034
g10
F0.996
tp6035
a(S'has'
p6036
g13
F0.9989
tp6037
a(S'got'
p6038
g13
F0.9854
tp6039
a(S'candy'
p6040
g6
F0.9687
tp6041
a(S'inside'
p6042
g47
F0.8155
tp6043
asI619
(lp6044
(g9
g10
F0.9756
tp6045
a(S'didn'
p6046
g13
F0.9919
tp6047
a(g15
g13
F0.7501
tp6048
a(S'want'
p6049
g13
F0.9967
tp6050
a(S'to'
p6051
g47
F0.9918
tp6052
a(S'have'
p6053
g13
F0.9998
tp6054
a(S'to'
p6055
g47
F0.9968
tp6056
a(S'tell'
p6057
g13
F0.9997
tp6058
a(S'you'
p6059
g10
F0.9987
tp6060
a(S'that'
p6061
g47
F0.5664
tp6062
a(S'but'
p6063
g161
F0.9893
tp6064
asI620
(lp6065
(S'candy'
p6066
g6
F0.9018
tp6067
a(S'inside'
p6068
g47
F0.874
tp6069
asI621
(lp6070
(S'yeah'
p6071
g32
F0.9988
tp6072
asI622
(lp6073
(S'yeah'
p6074
g32
F0.9922
tp6075
a(S'chewy'
p6076
g28
F0.8904
tp6077
a(S'tootsie'
p6078
g6
F0.992
tp6079
a(S'roll'
p6080
g6
F0.8287
tp6081
asI623
(lp6082
(S'you'
p6083
g10
F0.9983
tp6084
a(S'know'
p6085
g13
F0.9997
tp6086
a(S'those'
p6087
g3
F0.9311
tp6088
a(S'lollipops'
p6089
g6
F0.8756
tp6090
a(S'that'
p6091
g47
F0.9858
tp6092
a(S'you'
p6093
g10
F0.9995
tp6094
a(S'eat'
p6095
g13
F0.9936
tp6096
a(S'and'
p6097
g161
F0.9958
tp6098
a(S'then'
p6099
g42
F0.9909
tp6100
a(S'there'
p6101
g42
F0.7898
tp6102
a(g99
g100
F0.5347
tp6103
a(S'chocolate'
p6104
g6
F0.9545
tp6105
a(S'inside'
p6106
g47
F0.8604
tp6107
asI624
(lp6108
(S'yeah'
p6109
g32
F0.9988
tp6110
asI625
(lp6111
(S'that'
p6112
g10
F0.473
tp6113
a(g99
g100
F0.5179
tp6114
a(S'sorta'
p6115
g28
F0.4328
tp6116
a(S'sort'
p6117
g6
F0.9905
tp6118
a(S'of'
p6119
g47
F0.9979
tp6120
a(S'what'
p6121
g10
F0.9913
tp6122
a(S'it'
p6123
g10
F0.9956
tp6124
a(g99
g13
F0.7178
tp6125
a(S'like'
p6126
g47
F0.7196
tp6127
asI626
(lp6128
(S'but'
p6129
g161
F0.9943
tp6130
a(S'chocolate'
p6131
g6
F0.946
tp6132
a(S'gives'
p6133
g13
F0.9996
tp6134
a(S'me'
p6135
g10
F0.9951
tp6136
a(g217
g3
F0.9888
tp6137
a(S'tummy'
p6138
g6
F0.9907
tp6139
a(S'ache'
p6140
g13
F0.9326
tp6141
asI627
(lp6142
(S'laughs'
p6143
g13
F0.9102
tp6144
asI628
(lp6145
(S'it'
p6146
g10
F0.996
tp6147
a(S'makes'
p6148
g13
F0.9999
tp6149
a(S'me'
p6150
g10
F0.9987
tp6151
a(S'xxx'
p6152
g70
F0.7758
tp6153
asI629
(lp6154
(S'he'
p6155
g10
F0.9905
tp6156
a(g99
g13
F0.7029
tp6157
a(S'not'
p6158
g42
F0.9947
tp6159
a(S'buying'
p6160
g13
F0.9997
tp6161
a(S'that'
p6162
g3
F0.8802
tp6163
a(S'line'
p6164
g6
F0.9657
tp6165
a(S'one'
p6166
g1320
F0.9406
tp6167
asI630
(lp6168
(S'what'
p6169
g10
F0.9965
tp6170
a(S'did'
p6171
g13
F0.9948
tp6172
a(S'he'
p6173
g10
F0.9987
tp6174
a(S'say'
p6175
g13
F0.9934
tp6176
asI631
(lp6177
(S'chocolate'
p6178
g6
F0.9283
tp6179
a(S'gives'
p6180
g13
F0.9996
tp6181
a(S'him'
p6182
g10
F0.9769
tp6183
a(g217
g3
F0.9959
tp6184
a(S'tummy'
p6185
g6
F0.99
tp6186
a(S'ache'
p6187
g13
F0.9409
tp6188
asI632
(lp6189
(S'yeah'
p6190
g32
F0.9945
tp6191
a(S'laughs'
p6192
g13
F0.9273
tp6193
asI633
(lp6194
(g9
g10
F0.9635
tp6195
a(S'don'
p6196
g13
F0.9231
tp6197
a(g15
g13
F0.4437
tp6198
a(S'like'
p6199
g47
F0.8897
tp6200
a(S'chocolate'
p6201
g6
F0.9728
tp6202
a(S'xxx'
p6203
g70
F0.7911
tp6204
asI634
(lp6205
(S'clever'
p6206
g28
F0.9727
tp6207
asI635
(lp6208
(S'yes'
p6209
g32
F0.9836
tp6210
a(S'you'
p6211
g10
F0.9988
tp6212
a(S'do'
p6213
g13
F0.9994
tp6214
asI636
(lp6215
(S'you'
p6216
g10
F0.9926
tp6217
a(S'don'
p6218
g13
F0.8675
tp6219
a(g15
g13
F0.4437
tp6220
a(S'like'
p6221
g47
F0.8152
tp6222
a(S'it'
p6223
g10
F0.999
tp6224
a(S'now'
p6225
g42
F0.9954
tp6226
a(S'xxx'
p6227
g70
F0.8405
tp6228
asI637
(lp6229
(S'you'
p6230
g10
F0.9926
tp6231
a(S'don'
p6232
g13
F0.8675
tp6233
a(g15
g13
F0.4437
tp6234
a(S'like'
p6235
g47
F0.8897
tp6236
a(S'chocolate'
p6237
g6
F0.9524
tp6238
a(S'broccoli'
p6239
g6
F0.9982
tp6240
asI638
(lp6241
(S'laughs'
p6242
g13
F0.9102
tp6243
asI639
(lp6244
(S'no'
p6245
g32
F0.9253
tp6246
asI640
(lp6247
(g9
g10
F0.9708
tp6248
a(S'like'
p6249
g13
F0.7435
tp6250
a(S'chocolate'
p6251
g6
F0.9731
tp6252
a(S'cake'
p6253
g6
F0.9986
tp6254
asI641
(lp6255
(S'you'
p6256
g10
F0.9942
tp6257
a(S'only'
p6258
g42
F0.7336
tp6259
a(S'want'
p6260
g13
F0.9981
tp6261
a(S'chocolate'
p6262
g6
F0.921
tp6263
a(S'cake'
p6264
g6
F0.997
tp6265
asI642
(lp6266
(S'well'
p6267
g32
F0.7553
tp6268
a(S'it'
p6269
g10
F0.9991
tp6270
a(S'has'
p6271
g13
F0.9988
tp6272
a(S'got'
p6273
g13
F0.9852
tp6274
a(S'chocolate'
p6275
g6
F0.904
tp6276
a(S'cake'
p6277
g6
F0.9978
tp6278
a(S'sprinkled'
p6279
g13
F0.9857
tp6280
a(S'inside'
p6281
g47
F0.8748
tp6282
a(S'it'
p6283
g10
F0.9965
tp6284
asI643
(lp6285
(g9
g10
F0.9635
tp6286
a(S'don'
p6287
g13
F0.9231
tp6288
a(g15
g13
F0.4066
tp6289
a(S'like'
p6290
g47
F0.8897
tp6291
a(S'chocolate'
p6292
g6
F0.9776
tp6293
asI644
(lp6294
(S'well'
p6295
g32
F0.741
tp6296
a(S'you'
p6297
g10
F0.9955
tp6298
a(S're'
p6299
g13
F0.7591
tp6300
a(S'not'
p6301
g42
F0.9968
tp6302
a(S'gonna'
p6303
g13
F0.9974
tp6304
a(S'eat'
p6305
g13
F0.9997
tp6306
a(S'it'
p6307
g10
F0.9889
tp6308
a(S'then'
p6309
g42
F0.9832
tp6310
asI645
(lp6311
(S'xxx'
p6312
g70
F0.8437
tp6313
asI646
(lp6314
(S'someday'
p6315
g42
F0.9241
tp6316
a(S'when'
p6317
g42
F0.9864
tp6318
a(S'you'
p6319
g10
F0.9986
tp6320
a(S'get'
p6321
g13
F0.9999
tp6322
a(g217
g3
F0.9987
tp6323
a(S'little'
p6324
g28
F0.9532
tp6325
a(S'older'
p6326
g28
F0.9571
tp6327
a(g9
g10
F0.9663
tp6328
a(S'think'
p6329
g13
F1.0
tp6330
a(S'you'
p6331
g10
F0.9989
tp6332
a(S'll'
p6333
g13
F0.6664
tp6334
a(S'like'
p6335
g47
F0.5389
tp6336
a(S'all'
p6337
g3
F0.9747
tp6338
a(S'kinds'
p6339
g6
F0.9892
tp6340
a(S'of'
p6341
g47
F0.9963
tp6342
a(S'stuff'
p6343
g6
F0.9886
tp6344
asI647
(lp6345
(S'you'
p6346
g10
F0.9926
tp6347
a(S'don'
p6348
g13
F0.8675
tp6349
a(g15
g6
F0.2141
tp6350
a(S'feel'
p6351
g13
F0.9593
tp6352
a(S'muscle'
p6353
g6
F0.5246
tp6354
a(S'inside'
p6355
g47
F0.8573
tp6356
asI648
(lp6357
(g9
g10
F0.989
tp6358
a(S'think'
p6359
g13
F1.0
tp6360
a(S'it'
p6361
g10
F0.9948
tp6362
a(S'held'
p6363
g13
F0.9934
tp6364
a(S'this'
p6365
g3
F0.9735
tp6366
a(S'one'
p6367
g1320
F0.808
tp6368
asI649
(lp6369
(S'look'
p6370
g13
F0.8977
tp6371
a(S'how'
p6372
g42
F0.9738
tp6373
a(S'xxx'
p6374
g70
F0.7458
tp6375
asI650
(lp6376
(S'xxx'
p6377
g70
F0.5859
tp6378
a(S'www'
p6379
g118
F0.2746
tp6380
a(S'laughs'
p6381
g13
F0.7495
tp6382
asI651
(lp6383
(S'laughs'
p6384
g13
F0.9102
tp6385
asI652
(lp6386
(S'my'
p6387
g3
F0.9979
tp6388
a(S'muscles'
p6389
g6
F0.99
tp6390
a(S'strong'
p6391
g28
F0.8465
tp6392
a(S'right'
p6393
g42
F0.3617
tp6394
asI653
(lp6395
(S'yeah'
p6396
g32
F0.9988
tp6397
asI654
(lp6398
(S'you'
p6399
g10
F0.9974
tp6400
a(S'know'
p6401
g13
F0.9977
tp6402
a(S'what'
p6403
g10
F0.994
tp6404
asI655
(lp6405
(S'ow'
p6406
g32
F0.9682
tp6407
asI656
(lp6408
(S'are'
p6409
g13
F0.9959
tp6410
a(S'all'
p6411
g575
F0.7266
tp6412
a(S'my'
p6413
g3
F0.9997
tp6414
a(S'muscles'
p6415
g6
F0.9924
tp6416
a(S'strong'
p6417
g28
F0.8805
tp6418
asI657
(lp6419
(S'yes'
p6420
g32
F0.9958
tp6421
asI658
(lp6422
(S'your'
p6423
g3
F0.9783
tp6424
a(S'muscles'
p6425
g6
F0.999
tp6426
a(S'are'
p6427
g13
F0.984
tp6428
a(S'very'
p6429
g42
F0.9906
tp6430
a(S'strong'
p6431
g28
F0.9983
tp6432
asI659
(lp6433
(S'don'
p6434
g118
F0.5427
tp6435
a(g15
g118
F0.489
tp6436
a(S'tell'
p6437
g13
F0.9947
tp6438
a(S'me'
p6439
g10
F0.9983
tp6440
a(S'they'
p6441
g10
F0.978
tp6442
a(S'll'
p6443
g13
F0.4788
tp6444
a(S'get'
p6445
g13
F0.9975
tp6446
a(S'little'
p6447
g28
F0.9949
tp6448
asI660
(lp6449
(S'well'
p6450
g32
F0.906
tp6451
a(S'they'
p6452
g10
F0.9978
tp6453
a(S'will'
p6454
g13
F0.9998
tp6455
a(S'if'
p6456
g47
F0.9892
tp6457
a(S'you'
p6458
g10
F0.9995
tp6459
a(S'don'
p6460
g13
F0.8446
tp6461
a(g15
g47
F0.3125
tp6462
a(S'eat'
p6463
g13
F0.9294
tp6464
asI661
(lp6465
(S'you'
p6466
g10
F0.9754
tp6467
a(S're'
p6468
g13
F0.5918
tp6469
a(S'gonna'
p6470
g13
F0.9883
tp6471
a(S'get'
p6472
g13
F0.9999
tp6473
a(S'all'
p6474
g3
F0.9919
tp6475
a(S'skinny'
p6476
g28
F0.9966
tp6477
a(S'if'
p6478
g47
F0.9997
tp6479
a(S'you'
p6480
g10
F0.9995
tp6481
a(S'don'
p6482
g13
F0.8706
tp6483
a(g15
g47
F0.3095
tp6484
a(S'eat'
p6485
g13
F0.9133
tp6486
asI662
(lp6487
(S'and'
p6488
g161
F0.9991
tp6489
a(S'your'
p6490
g3
F0.9504
tp6491
a(S'muscles'
p6492
g6
F0.998
tp6493
a(S'the'
p6494
g3
F0.9515
tp6495
a(S'only'
p6496
g28
F0.9477
tp6497
a(S'way'
p6498
g6
F0.9026
tp6499
a(S'they'
p6500
g10
F0.9761
tp6501
a(S'can'
p6502
g13
F0.9997
tp6503
a(S'develop'
p6504
g13
F0.9972
tp6505
a(S'and'
p6506
g161
F0.993
tp6507
a(S'get'
p6508
g13
F0.9981
tp6509
a(S'bigger'
p6510
g28
F0.9399
tp6511
a(S'is'
p6512
g13
F0.9742
tp6513
a(S'for'
p6514
g47
F0.9984
tp6515
a(S'you'
p6516
g10
F0.9994
tp6517
a(S'to'
p6518
g47
F0.9868
tp6519
a(S'give'
p6520
g13
F0.9999
tp6521
a(S'it'
p6522
g10
F0.992
tp6523
a(S'give'
p6524
g13
F0.9999
tp6525
a(S'them'
p6526
g10
F0.7912
tp6527
a(S'some'
p6528
g3
F0.9952
tp6529
a(S'food'
p6530
g6
F0.9919
tp6531
asI663
(lp6532
(S'www'
p6533
g118
F0.3889
tp6534
asI664
(lp6535
(S'aw'
p6536
g32
F0.9971
tp6537
asI665
(lp6538
(S'jeepers'
p6539
g118
F0.7615
tp6540
asI666
(lp6541
(S'oh'
p6542
g32
F0.9988
tp6543
asI667
(lp6544
(S'you'
p6545
g10
F0.9981
tp6546
a(S'mean'
p6547
g13
F0.9255
tp6548
a(g9
g10
F0.9958
tp6549
a(S'have'
p6550
g13
F0.9996
tp6551
a(S'to'
p6552
g47
F0.9959
tp6553
a(S'eat'
p6554
g13
F0.9913
tp6555
asI668
(lp6556
(S'oh'
p6557
g32
F0.9988
tp6558
asI669
(lp6559
(S'then'
p6560
g42
F0.9662
tp6561
a(S'you'
p6562
g10
F0.996
tp6563
a(S're'
p6564
g13
F0.5559
tp6565
a(S'gonna'
p6566
g13
F0.9917
tp6567
a(S'start'
p6568
g13
F0.9991
tp6569
a(S'shrinking'
p6570
g13
F0.9681
tp6571
a(S'and'
p6572
g161
F0.9984
tp6573
a(S'your'
p6574
g3
F0.9576
tp6575
a(S'teeth'
p6576
g6
F0.9993
tp6577
a(S'will'
p6578
g13
F0.993
tp6579
a(S'fall'
p6580
g13
F0.9922
tp6581
a(S'out'
p6582
g185
F0.9268
tp6583
asI670
(lp6584
(S'and'
p6585
g161
F0.9991
tp6586
a(S'your'
p6587
g3
F0.954
tp6588
a(S'fingernails'
p6589
g6
F0.998
tp6590
a(S'will'
p6591
g13
F0.991
tp6592
a(S'fall'
p6593
g13
F0.9964
tp6594
a(S'out'
p6595
g185
F0.7121
tp6596
a(S'laughs'
p6597
g13
F0.6104
tp6598
asI671
(lp6599
(S'stop'
p6600
g13
F0.9902
tp6601
a(S'it'
p6602
g10
F0.9896
tp6603
asI672
(lp6604
(S'laughs'
p6605
g13
F0.9102
tp6606
asI673
(lp6607
(S'that'
p6608
g10
F0.473
tp6609
a(g99
g13
F0.6622
tp6610
a(S'if'
p6611
g47
F0.9977
tp6612
a(S'you'
p6613
g10
F0.9994
tp6614
a(S'don'
p6615
g13
F0.8626
tp6616
a(g15
g47
F0.2528
tp6617
a(S'eat'
p6618
g13
F0.9743
tp6619
a(S'for'
p6620
g47
F0.9986
tp6621
a(g217
g3
F0.9968
tp6622
a(S'long'
p6623
g28
F0.9126
tp6624
a(S'long'
p6625
g28
F0.993
tp6626
a(S'time'
p6627
g6
F0.9991
tp6628
asI674
(lp6629
(S'xxx'
p6630
g70
F0.8437
tp6631
asI675
(lp6632
(S'well'
p6633
g32
F0.8591
tp6634
a(S'are'
p6635
g13
F0.9946
tp6636
a(S'you'
p6637
g10
F0.9997
tp6638
a(S'done'
p6639
g13
F0.9849
tp6640
asI676
(lp6641
(S'so'
p6642
g42
F0.5317
tp6643
asI677
(lp6644
(S'yeah'
p6645
g32
F0.9988
tp6646
asI678
(lp6647
(S'are'
p6648
g13
F0.9963
tp6649
a(S'you'
p6650
g10
F0.9996
tp6651
a(S'done'
p6652
g13
F0.9927
tp6653
asI679
(lp6654
(S'yeah'
p6655
g32
F0.9988
tp6656
asI680
(lp6657
(g9
g10
F0.9586
tp6658
a(g164
g13
F0.9849
tp6659
a(S'done'
p6660
g13
F0.9405
tp6661
asI681
(lp6662
(S'let'
p6663
g13
F0.8948
tp6664
a(g99
g100
F0.4507
tp6665
a(S'clean'
p6666
g13
F0.6762
tp6667
a(S'up'
p6668
g185
F0.913
tp6669
a(S'now'
p6670
g42
F0.9989
tp6671
a(S'www'
p6672
g118
F0.4209
tp6673
a(S'laughs'
p6674
g13
F0.7558
tp6675
asI682
(lp6676
(S'xxx'
p6677
g70
F0.6563
tp6678
a(S'have'
p6679
g13
F0.9951
tp6680
a(S'to'
p6681
g47
F0.9953
tp6682
a(S'get'
p6683
g13
F0.9993
tp6684
a(S'muscles'
p6685
g6
F0.9838
tp6686
asI683
(lp6687
(S'right'
p6688
g32
F0.861
tp6689
asI684
(lp6690
(S'my'
p6691
g3
F0.9979
tp6692
a(S'muscles'
p6693
g6
F0.9985
tp6694
a(S'will'
p6695
g13
F0.9902
tp6696
a(S'get'
p6697
g13
F0.9994
tp6698
a(S'bigger'
p6699
g28
F0.9873
tp6700
asI685
(lp6701
(S'no'
p6702
g32
F0.9253
tp6703
asI686
(lp6704
(S'they'
p6705
g10
F0.9672
tp6706
a(S'willn'
p6707
g13
F0.5774
tp6708
a(g15
g100
F0.4688
tp6709
asI687
(lp6710
(S'no'
p6711
g32
F0.9253
tp6712
asI688
(lp6713
(g9
g10
F0.9833
tp6714
a(S'be'
p6715
g13
F0.9995
tp6716
a(S'cause'
p6717
g47
F0.5864
tp6718
a(g9
g10
F0.9956
tp6719
a(S'know'
p6720
g13
F0.9999
tp6721
a(S'that'
p6722
g47
F0.8431
tp6723
a(S'you'
p6724
g10
F0.9969
tp6725
a(S're'
p6726
g13
F0.5665
tp6727
a(S'gonna'
p6728
g13
F0.992
tp6729
a(S'start'
p6730
g13
F0.9988
tp6731
a(S'eating'
p6732
g13
F0.992
tp6733
a(S'again'
p6734
g42
F0.9828
tp6735
a(S'pretty'
p6736
g42
F0.9796
tp6737
a(S'soon'
p6738
g42
F0.9407
tp6739
asI689
(lp6740
(g9
g10
F0.989
tp6741
a(S'think'
p6742
g13
F1.0
tp6743
a(S'you'
p6744
g10
F0.9991
tp6745
a(S'feel'
p6746
g13
F0.9951
tp6747
a(S'better'
p6748
g28
F0.6103
tp6749
asI690
(lp6750
(S'yeah'
p6751
g32
F0.9988
tp6752
asI691
(lp6753
(S'are'
p6754
g13
F0.9964
tp6755
a(S'you'
p6756
g10
F0.9996
tp6757
a(S'done'
p6758
g13
F0.9982
tp6759
a(S'with'
p6760
g47
F0.9991
tp6761
a(S'this'
p6762
g10
F0.515
tp6763
asI692
(lp6764
(S'you'
p6765
g10
F0.9926
tp6766
a(S'don'
p6767
g13
F0.8675
tp6768
a(g15
g6
F0.2503
tp6769
a(S'want'
p6770
g13
F0.9985
tp6771
a(S'another'
p6772
g3
F0.9804
tp6773
a(S'bite'
p6774
g6
F0.8957
tp6775
asI693
(lp6776
(S'do'
p6777
g13
F0.9985
tp6778
a(S'you'
p6779
g10
F0.9996
tp6780
a(S'want'
p6781
g13
F0.9999
tp6782
a(S'any'
p6783
g3
F0.8985
tp6784
a(S'more'
p6785
g28
F0.7505
tp6786
asI694
(lp6787
(S'you'
p6788
g10
F0.9926
tp6789
a(S'don'
p6790
g13
F0.8675
tp6791
a(g15
g6
F0.2503
tp6792
a(S'want'
p6793
g13
F0.9988
tp6794
a(S'any'
p6795
g3
F0.901
tp6796
a(S'more'
p6797
g28
F0.697
tp6798
a(S'of'
p6799
g47
F0.9981
tp6800
a(S'that'
p6801
g3
F0.7189
tp6802
a(S'delicious'
p6803
g28
F0.986
tp6804
a(S'broccoli'
p6805
g6
F0.9964
tp6806
a(S'huh'
p6807
g32
F0.8959
tp6808
asI695
(lp6809
(S'no'
p6810
g3
F0.8365
tp6811
a(S'way'
p6812
g6
F0.9976
tp6813
asI696
(lp6814
(S'oh'
p6815
g32
F0.9977
tp6816
a(S'well'
p6817
g32
F0.9872
tp6818
asI697
(lp6819
(S'okay'
p6820
g32
F0.9857
tp6821
asI698
(lp6822
(S'you'
p6823
g10
F0.9926
tp6824
a(S'don'
p6825
g13
F0.8675
tp6826
a(g15
g13
F0.4777
tp6827
a(S'any'
p6828
g3
F0.7345
tp6829
a(S'more'
p6830
g28
F0.9212
tp6831
a(S'cantaloupe'
p6832
g6
F0.9974
tp6833
asI699
(lp6834
(S'hm'
p6835
g32
F0.995
tp6836
asI700
(lp6837
(S'okay'
p6838
g32
F0.9857
tp6839
asI701
(lp6840
(S'thanks'
p6841
g6
F0.8199
tp6842
a(S'mommy'
p6843
g6
F0.8066
tp6844
a(S'that'
p6845
g47
F0.6674
tp6846
a(S'was'
p6847
g13
F0.999
tp6848
a(g217
g3
F0.9972
tp6849
a(S'great'
p6850
g28
F0.9978
tp6851
a(S'supper'
p6852
g6
F0.9926
tp6853
asI702
(lp6854
(S'you'
p6855
g10
F0.963
tp6856
a(S're'
p6857
g13
F0.5951
tp6858
a(S'welcome'
p6859
g13
F0.4795
tp6860
asI703
(lp6861
(S'xxx'
p6862
g70
F0.8437
tp6863
asI704
(lp6864
(S'you'
p6865
g10
F0.9968
tp6866
a(S'wanna'
p6867
g13
F0.9984
tp6868
a(S'write'
p6869
g13
F0.9988
tp6870
a(g217
g3
F0.9814
tp6871
a(S'write'
p6872
g6
F0.6814
tp6873
a(g217
g3
F0.9865
tp6874
a(S'letter'
p6875
g6
F0.9971
tp6876
a(S'to'
p6877
g47
F0.9973
tp6878
a(S'mary'
p6879
g118
F0.9143
tp6880
a(S'now'
p6881
g42
F0.9909
tp6882
asI705
(lp6883
(S'yup'
p6884
g32
F0.99
tp6885
a(S'today'
p6886
g6
F0.9912
tp6887
a(S'yesterday'
p6888
g6
F0.8023
tp6889
asI706
(lp6890
(S'okay'
p6891
g32
F0.9857
tp6892
asI707
(lp6893
(S'xxx'
p6894
g70
F0.8437
tp6895
asI708
(lp6896
(S'wait'
p6897
g13
F0.9922
tp6898
a(g217
g3
F0.9943
tp6899
a(S'minute'
p6900
g6
F0.9719
tp6901
a(S'wait'
p6902
g13
F0.9917
tp6903
a(g217
g3
F0.9944
tp6904
a(S'minute'
p6905
g6
F0.9545
tp6906
asI709
(lp6907
(S'we'
p6908
g10
F0.9973
tp6909
a(S'have'
p6910
g13
F0.9996
tp6911
a(S'to'
p6912
g47
F0.9964
tp6913
a(S'we'
p6914
g10
F0.9943
tp6915
a(S'have'
p6916
g13
F0.9997
tp6917
a(S'to'
p6918
g47
F0.9964
tp6919
a(S'wait'
p6920
g13
F0.9989
tp6921
a(S'for'
p6922
g47
F0.9931
tp6923
a(S'xxx'
p6924
g70
F0.5857
tp6925
as.