(dp0
I0
(lp1
(S'tape'
p2
S'N'
p3
F0.9547
tp4
a(S'out'
p5
S'P'
p6
F0.6028
tp7
asI1
(lp8
(S'a'
p9
S'D'
p10
F0.9703
tp11
a(S'h'
p12
g3
F0.7438
tp13
asI2
(lp14
(S'0'
p15
S'$'
p16
F0.9641
tp17
a(S'makes'
p18
S'V'
p19
F0.9112
tp20
a(S'loud'
p21
S'A'
p22
F0.9194
tp23
a(S'growling'
p24
g19
F0.943
tp25
a(S'sounds'
p26
g19
F0.8471
tp27
asI3
(lp28
(S'want'
p29
g19
F0.9962
tp30
a(g9
g10
F0.9974
tp31
a(S'piece'
p32
g3
F0.9978
tp33
asI4
(lp34
(S'okay'
p35
S'!'
p36
F0.9857
tp37
asI5
(lp38
(S'mom'
p39
g3
F0.7188
tp40
asI6
(lp41
(S'xxx'
p42
S'E'
p43
F0.8437
tp44
asI7
(lp45
(S'you'
p46
S'O'
p47
F0.9968
tp48
a(S'wanna'
p49
g19
F0.9985
tp50
a(S'put'
p51
g19
F0.9991
tp52
a(S'your'
p53
g10
F0.9943
tp54
a(S'glass'
p55
g3
F0.9929
tp56
a(S'xxx'
p57
g43
F0.865
tp58
asI8
(lp59
(S'jessie'
p60
S'^'
p61
F0.9941
tp62
asI9
(lp63
(S'xxx'
p64
g43
F0.4516
tp65
a(S'it'
p66
g47
F0.9878
tp67
a(S's'
p68
g19
F0.8596
tp69
a(S'all'
p70
g10
F0.5899
tp71
a(S'down'
p72
g6
F0.4832
tp73
a(S'your'
p74
g10
F0.9941
tp75
a(S'arm'
p76
g3
F0.998
tp77
asI10
(lp78
(S'xxx'
p79
g43
F0.8437
tp80
asI11
(lp81
(S'chi'
p82
S'G'
p83
F0.3949
tp84
a(S'you'
p85
g47
F0.9804
tp86
a(S'better'
p87
S'R'
p88
F0.6217
tp89
a(S'eat'
p90
g19
F0.9672
tp91
a(S'all'
p92
g10
F0.6674
tp93
a(S'that'
p94
g47
F0.5942
tp95
asI12
(lp96
(S'i'
p97
g47
F0.988
tp98
a(S'am'
p99
g19
F0.9952
tp100
asI13
(lp101
(S'alright'
p102
g36
F0.8732
tp103
a(S'as'
p104
g88
F0.7352
tp105
a(S'long'
p106
g22
F0.972
tp107
a(S'as'
p108
g6
F0.9926
tp109
a(S'you'
p110
g47
F0.9997
tp111
a(S'am'
p112
g19
F0.989
tp113
asI14
(lp114
(S'who'
p115
g47
F0.998
tp116
a(S'did'
p117
g19
F0.9997
tp118
a(S'that'
p119
g47
F0.8384
tp120
asI15
(lp121
(S'who'
p122
g47
F0.998
tp123
a(S'did'
p124
g19
F0.9988
tp125
a(S'what'
p126
g47
F0.9906
tp127
asI16
(lp128
(S'who'
p129
g47
F0.996
tp130
a(S'spilled'
p131
g19
F0.9999
tp132
a(S'it'
p133
g47
F0.9889
tp134
asI17
(lp135
(S'who'
p136
g47
F0.996
tp137
a(S'spilled'
p138
g19
F0.9993
tp139
a(S'what'
p140
g47
F0.994
tp141
asI18
(lp142
(S'xxx'
p143
g43
F0.7905
tp144
a(S'huh'
p145
g36
F0.9731
tp146
asI19
(lp147
(S'who'
p148
g47
F0.996
tp149
a(S'spilled'
p150
g19
F0.9993
tp151
a(S'what'
p152
g47
F0.994
tp153
asI20
(lp154
(S'dad'
p155
g3
F0.8582
tp156
asI21
(lp157
(S'xxx'
p158
g43
F0.8437
tp159
asI22
(lp160
(S'iced'
p161
g22
F0.9534
tp162
a(S'tea'
p163
g3
F0.9937
tp164
asI23
(lp165
(S'dad'
p166
g3
F0.8582
tp167
asI24
(lp168
(S'xxx'
p169
g43
F0.8437
tp170
asI25
(lp171
(S'billy'
p172
g61
F0.9599
tp173
a(S'you'
p174
g47
F0.9984
tp175
a(S'want'
p176
g19
F0.9999
tp177
a(S'some'
p178
g10
F0.9928
tp179
a(S'milk'
p180
g3
F0.9949
tp181
asI26
(lp182
(S'uhhuh'
p183
g36
F0.9892
tp184
asI27
(lp185
(S'mom'
p186
g3
F0.8909
tp187
a(g97
g47
F0.9618
tp188
a(S'want'
p189
g19
F1.0
tp190
a(S'some'
p191
g10
F0.889
tp192
asI28
(lp193
(g97
g47
F0.9793
tp194
a(S'll'
p195
g19
F0.7217
tp196
a(S'get'
p197
g19
F0.9998
tp198
a(S'you'
p199
g47
F0.9978
tp200
a(g9
g10
F0.9956
tp201
a(S'glass'
p202
g3
F0.9945
tp203
asI29
(lp204
(S'mom'
p205
g3
F0.7188
tp206
asI30
(lp207
(S'no'
p208
g36
F0.7985
tp209
a(S'you'
p210
g47
F0.9967
tp211
a(S'got'
p212
g19
F0.9993
tp213
a(S'iced'
p214
g22
F0.9876
tp215
a(S'tea'
p216
g3
F0.9743
tp217
a(S'chi'
p218
g83
F0.4183
tp219
asI31
(lp220
(S'that'
p221
g47
F0.4727
tp222
a(g68
g83
F0.4501
tp223
a(S'what'
p224
g47
F0.9828
tp225
asI32
(lp226
(S'mom'
p227
g3
F0.7188
tp228
asI33
(lp229
(S'what'
p230
g47
F0.949
tp231
asI34
(lp232
(S'um'
p233
g36
F0.979
tp234
asI35
(lp235
(S'come'
p236
g19
F0.9892
tp237
a(S'back'
p238
g88
F0.6969
tp239
asI36
(lp240
(S'what'
p241
g47
F0.9835
tp242
a(S'are'
p243
g19
F0.9978
tp244
a(S'you'
p245
g47
F0.9994
tp246
a(S'doing'
p247
g19
F0.9999
tp248
a(S'with'
p249
g6
F0.9984
tp250
a(S'them'
p251
g10
F0.9011
tp252
a(S'glasses'
p253
g3
F0.9785
tp254
asI37
(lp255
(S'okay'
p256
g36
F0.9618
tp257
a(S'xxx'
p258
g43
F0.8072
tp259
asI38
(lp260
(S'where'
p261
g88
F0.9552
tp262
a(S'am'
p263
g19
F0.8277
tp264
a(g97
g47
F0.9963
tp265
a(S'going'
p266
g19
F0.9999
tp267
a(S'with'
p268
g6
F0.9967
tp269
a(S'these'
p270
g10
F0.9926
tp271
a(S'glasses'
p272
g3
F0.9912
tp273
asI39
(lp274
(S'come'
p275
g19
F0.9892
tp276
a(S'back'
p277
g88
F0.6969
tp278
asI40
(lp279
(S'it'
p280
g47
F0.9888
tp281
a(g68
g19
F0.7589
tp282
a(S'to'
p283
g6
F0.9943
tp284
a(S'get'
p285
g19
F0.9999
tp286
a(S'some'
p287
g10
F0.9936
tp288
a(S'sodas'
p289
g3
F0.9868
tp290
a(S'for'
p291
g6
F0.9998
tp292
a(S'me'
p293
g47
F0.9993
tp294
a(S'and'
p295
S'&'
p296
F0.9904
tp297
a(S'billy'
p298
g61
F0.968
tp299
asI41
(lp300
(S'xxx'
p301
g43
F0.8437
tp302
asI42
(lp303
(S'no'
p304
g36
F0.7985
tp305
a(S'you'
p306
g47
F0.9973
tp307
a(S'have'
p308
g19
F0.9998
tp309
a(S'that'
p310
g47
F0.5694
tp311
a(S'after'
p312
g6
F0.6247
tp313
a(S'after'
p314
g6
F0.9465
tp315
a(S'you'
p316
g47
F0.9999
tp317
a(S'eat'
p318
g19
F0.9954
tp319
asI43
(lp320
(S'you'
p321
g47
F0.9969
tp322
a(S'can'
p323
g19
F0.9997
tp324
a(S'have'
p325
g19
F1.0
tp326
a(S'it'
p327
g47
F0.9894
tp328
a(S'after'
p329
g6
F0.7546
tp330
asI44
(lp331
(g97
g47
F0.9896
tp332
a(S'ate'
p333
g19
F0.9996
tp334
a(S'mine'
p335
g47
F0.9744
tp336
asI45
(lp337
(S'you'
p338
g47
F0.9911
tp339
a(S'didn'
p340
g19
F0.9886
tp341
a(S't'
p342
g19
F0.7941
tp343
a(S'eat'
p344
g19
F0.9923
tp345
a(S'all'
p346
g10
F0.7948
tp347
a(S'yours'
p348
g47
F0.9224
tp349
a(S'yet'
p350
g88
F0.9852
tp351
asI46
(lp352
(S'no'
p353
g36
F0.9253
tp354
asI47
(lp355
(S'yeah'
p356
g36
F0.9988
tp357
asI48
(lp358
(S'no'
p359
g36
F0.9253
tp360
asI49
(lp361
(S'come'
p362
g19
F0.9897
tp363
a(S'on'
p364
g6
F0.936
tp365
a(S'eat'
p366
g19
F0.9198
tp367
a(S'up'
p368
S'T'
p369
F0.951
tp370
a(S'what'
p371
g47
F0.9835
tp372
asI50
(lp373
(g97
g47
F0.9891
tp374
a(S'ate'
p375
g19
F0.9998
tp376
a(S'all'
p377
S'X'
p378
F0.5393
tp379
a(S'my'
p380
g10
F0.9995
tp381
a(S'gum'
p382
g3
F0.9963
tp383
asI51
(lp384
(g97
g47
F0.9912
tp385
a(S'know'
p386
g19
F0.9989
tp387
asI52
(lp388
(S'do'
p389
g19
F0.9985
tp390
a(S'you'
p391
g47
F0.9993
tp392
a(S'see'
p393
g19
F0.9996
tp394
a(g9
g10
F0.9853
tp395
a(S'xxx'
p396
g3
F0.5269
tp397
a(S'for'
p398
g6
F0.9997
tp399
a(S'me'
p400
g47
F0.9986
tp401
asI53
(lp402
(S'mot'
p403
g83
F0.3608
tp404
a(S'can'
p405
g19
F0.9994
tp406
a(S'you'
p407
g47
F0.9982
tp408
a(S'xxx'
p409
g43
F0.5998
tp410
asI54
(lp411
(S'no'
p412
g36
F0.6169
tp413
a(S'up'
p414
g369
F0.7933
tp415
a(S'yeah'
p416
g36
F0.9728
tp417
a(S'no'
p418
g36
F0.7032
tp419
a(S'no'
p420
g36
F0.4543
tp421
a(S'no'
p422
g36
F0.3774
tp423
a(S'no'
p424
g36
F0.6644
tp425
asI55
(lp426
(S'that'
p427
g47
F0.473
tp428
a(g68
g19
F0.8873
tp429
a(S'up'
p430
g369
F0.9276
tp431
a(S'to'
p432
g6
F0.9915
tp433
a(S'billie'
p434
g61
F0.9942
tp435
a(g68
g83
F0.4073
tp436
a(S'mommy'
p437
g3
F0.6492
tp438
asI56
(lp439
(g97
g47
F0.9897
tp440
a(S'want'
p441
g19
F1.0
tp442
a(S'you'
p443
g47
F0.9992
tp444
a(S'up'
p445
g369
F0.6026
tp446
a(S'at'
p447
g6
F0.9996
tp448
a(S'the'
p449
g10
F0.9992
tp450
a(S'table'
p451
g3
F0.998
tp452
a(S'so'
p453
g6
F0.9548
tp454
a(S'you'
p455
g47
F0.9995
tp456
a(S'can'
p457
g19
F0.9998
tp458
a(S'eat'
p459
g19
F0.9939
tp460
asI57
(lp461
(S'come'
p462
g19
F0.9849
tp463
a(S'on'
p464
g369
F0.5632
tp465
asI58
(lp466
(S'do'
p467
g19
F0.9985
tp468
a(S'you'
p469
g47
F0.9996
tp470
a(S'have'
p471
g19
F0.9996
tp472
a(S'to'
p473
g6
F0.9952
tp474
a(S'pee'
p475
g19
F0.9459
tp476
a(S'chi'
p477
g61
F0.339
tp478
asI59
(lp479
(S'mom'
p480
g3
F0.8909
tp481
a(g97
g47
F0.8068
tp482
a(S'm'
p483
g19
F0.9845
tp484
a(S'cutting'
p485
g19
F0.9952
tp486
a(S'this'
p487
g47
F0.8584
tp488
a(S'off'
p489
g369
F0.8832
tp490
asI60
(lp491
(S'huh'
p492
g36
F0.993
tp493
asI61
(lp494
(S'alright'
p495
g36
F0.6161
tp496
a(S'fine'
p497
g22
F0.9581
tp498
a(S'throw'
p499
g19
F0.7635
tp500
a(S'it'
p501
g47
F0.9807
tp502
a(S'away'
p503
g88
F0.9808
tp504
a(g97
g47
F0.9896
tp505
a(S'want'
p506
g19
F1.0
tp507
a(S'you'
p508
g47
F0.9992
tp509
a(S'up'
p510
g369
F0.5764
tp511
a(S'at'
p512
g6
F0.9996
tp513
a(S'the'
p514
g10
F0.9992
tp515
a(S'table'
p516
g3
F0.998
tp517
a(S'so'
p518
g6
F0.9548
tp519
a(S'you'
p520
g47
F0.9996
tp521
a(S'can'
p522
g19
F0.9997
tp523
a(S'eat'
p524
g19
F0.996
tp525
asI62
(lp526
(S'jess'
p527
g61
F0.9907
tp528
asI63
(lp529
(S'no'
p530
g36
F0.6531
tp531
a(g483
g19
F0.823
tp532
a(S'no'
p533
g10
F0.6972
tp534
a(S'sit'
p535
g3
F0.772
tp536
a(S'jessie'
p537
g61
F0.9909
tp538
asI64
(lp539
(S'good'
p540
g22
F0.9942
tp541
a(S'girl'
p542
g3
F0.9961
tp543
asI65
(lp544
(S'xxx'
p545
g43
F0.8437
tp546
asI66
(lp547
(S'the'
p548
g10
F0.9981
tp549
a(S'pizza'
p550
g3
F0.983
tp551
a(S'is'
p552
g19
F0.9957
tp553
a(S'fine'
p554
g22
F0.9809
tp555
a(S'xxx'
p556
g43
F0.7378
tp557
asI67
(lp558
(S'ah'
p559
g36
F0.996
tp560
asI68
(lp561
(S'what'
p562
g47
F0.9784
tp563
a(g68
g83
F0.5951
tp564
a(S'the'
p565
g10
F0.9986
tp566
a(S'matter'
p567
g3
F0.9846
tp568
a(S'kenny'
p569
g61
F0.9322
tp570
asI69
(lp571
(S'ah'
p572
g36
F0.996
tp573
asI70
(lp574
(S'what'
p575
g47
F0.9784
tp576
a(g68
g83
F0.5951
tp577
a(S'the'
p578
g10
F0.9986
tp579
a(S'matter'
p580
g3
F0.9874
tp581
a(S'bro'
p582
g3
F0.9412
tp583
asI71
(lp584
(g12
g83
F0.5766
tp585
a(g12
g83
F0.8124
tp586
a(S'hot'
p587
g22
F0.9702
tp588
a(S'hot'
p589
g22
F0.8106
tp590
asI72
(lp591
(S'hot'
p592
g22
F0.8061
tp593
asI73
(lp594
(S'it'
p595
g47
F0.9888
tp596
a(g68
g19
F0.5544
tp597
a(S'not'
p598
g88
F0.9985
tp599
a(S'hot'
p600
g22
F0.957
tp601
asI74
(lp602
(S'ah'
p603
g36
F0.9779
tp604
a(g9
g10
F0.9614
tp605
a(g12
g3
F0.7962
tp606
asI75
(lp607
(S'xxx'
p608
g43
F0.8437
tp609
asI76
(lp610
(S'ah'
p611
g36
F0.996
tp612
asI77
(lp613
(S'xxx'
p614
g43
F0.8437
tp615
asI78
(lp616
(g9
g10
F0.9703
tp617
a(g12
g3
F0.6836
tp618
a(S'ah'
p619
g36
F0.9582
tp620
asI79
(lp621
(S'coughs'
p622
g3
F0.5349
tp623
asI80
(lp624
(S'that'
p625
g47
F0.473
tp626
a(g68
g83
F0.4353
tp627
a(S'not'
p628
g88
F0.997
tp629
a(S'hot'
p630
g22
F0.957
tp631
asI81
(lp632
(S'that'
p633
g47
F0.473
tp634
a(g68
g83
F0.4353
tp635
a(S'not'
p636
g88
F0.997
tp637
a(S'hot'
p638
g22
F0.957
tp639
asI82
(lp640
(S'yeah'
p641
g36
F0.9945
tp642
a(S'it'
p643
g47
F0.9989
tp644
a(S'is'
p645
g19
F0.9992
tp646
asI83
(lp647
(g9
g10
F0.9703
tp648
a(g12
g3
F0.7438
tp649
asI84
(lp650
(S'ah'
p651
g36
F0.996
tp652
asI85
(lp653
(S'xxx'
p654
g43
F0.4315
tp655
a(S'down'
p656
g369
F0.3555
tp657
asI86
(lp658
(S'ah'
p659
g36
F0.996
tp660
asI87
(lp661
(S'mot'
p662
g36
F0.3458
tp663
asI88
(lp664
(S'mom'
p665
g3
F0.5663
tp666
a(S'what'
p667
g47
F0.9537
tp668
asI89
(lp669
(g97
g47
F0.9948
tp670
a(S'did'
p671
g19
F0.9984
tp672
a(S'one'
p673
g16
F0.7012
tp674
asI90
(lp675
(g97
g47
F0.9756
tp676
a(S'didn'
p677
g19
F0.9919
tp678
a(g342
g19
F0.8248
tp679
a(S'cut'
p680
g19
F0.6135
tp681
a(S'two'
p682
g16
F0.9613
tp683
a(S'pieces'
p684
g3
F0.9213
tp685
a(S'you'
p686
g47
F0.9638
tp687
a(S'better'
p688
g88
F0.5587
tp689
a(S'eat'
p690
g19
F0.9023
tp691
a(S'two'
p692
g16
F0.9647
tp693
a(S'pieces'
p694
g3
F0.9935
tp695
asI91
(lp696
(S'be'
p697
g19
F0.9727
tp698
a(S'cause'
p699
g6
F0.9443
tp700
a(S'you'
p701
g47
F0.9996
tp702
a(S'wanted'
p703
g19
F0.974
tp704
a(S'th'
p705
g19
F0.3463
tp706
a(S'em'
p707
g47
F0.9777
tp708
asI92
(lp709
(S'xxx'
p710
g43
F0.8437
tp711
asI93
(lp712
(S'here'
p713
g88
F0.8704
tp714
a(S'it'
p715
g47
F0.9997
tp716
a(S'is'
p717
g19
F0.9992
tp718
asI94
(lp719
(S'um'
p720
g36
F0.979
tp721
asI95
(lp722
(S'xxx'
p723
g43
F0.8437
tp724
asI96
(lp725
(S'no'
p726
g36
F0.7985
tp727
a(S'you'
p728
g47
F0.9967
tp729
a(S'got'
p730
g19
F0.9993
tp731
a(S'iced'
p732
g22
F0.9876
tp733
a(S'tea'
p734
g3
F0.9834
tp735
a(S'jessie'
p736
g61
F0.9643
tp737
asI97
(lp738
(S'here'
p739
g88
F0.8737
tp740
a(S'jessie'
p741
g61
F0.9875
tp742
asI98
(lp743
(S'that'
p744
g47
F0.473
tp745
a(g68
g19
F0.7811
tp746
a(S'all'
p747
g10
F0.9589
tp748
a(g97
g47
F0.9403
tp749
a(g483
g19
F0.9832
tp750
a(S'not'
p751
g88
F0.9995
tp752
a(S'hungry'
p753
g22
F0.9408
tp754
asI99
(lp755
(S'fine'
p756
g22
F0.9079
tp757
asI100
(lp758
(S'laughs'
p759
g19
F0.9102
tp760
asI101
(lp761
(g97
g47
F0.9794
tp762
a(S'ain'
p763
g19
F0.9781
tp764
a(g342
g19
F0.3258
tp765
a(S'gonna'
p766
g19
F0.9937
tp767
a(S'argue'
p768
g19
F0.9996
tp769
a(S'with'
p770
g6
F0.9992
tp771
a(S'you'
p772
g47
F0.9983
tp773
asI102
(lp774
(S'soda'
p775
g3
F0.8468
tp776
a(S'gives'
p777
g19
F0.9995
tp778
a(S'me'
p779
g47
F0.9981
tp780
a(S'the'
p781
g10
F0.9979
tp782
a(S'farts'
p783
g3
F0.9368
tp784
asI103
(lp785
(S'xxx'
p786
g43
F0.8437
tp787
asI104
(lp788
(S'grow'
p789
g19
F0.9886
tp790
a(S'up'
p791
g369
F0.9521
tp792
a(S'mot'
p793
g3
F0.4383
tp794
asI105
(lp795
(S'what'
p796
g47
F0.6574
tp797
a(S'honey'
p798
g3
F0.9261
tp799
asI106
(lp800
(S'grow'
p801
g19
F0.9886
tp802
a(S'up'
p803
g369
F0.984
tp804
asI107
(lp805
(g15
g16
F0.9641
tp806
a(S'makes'
p807
g19
F0.8848
tp808
a(S'farting'
p809
g19
F0.9189
tp810
a(S'sound'
p811
g19
F0.4865
tp812
asI108
(lp813
(S'xxx'
p814
g43
F0.8437
tp815
asI109
(lp816
(S'ah'
p817
g36
F0.996
tp818
asI110
(lp819
(S'mom'
p820
g3
F0.7188
tp821
asI111
(lp822
(S'wait'
p823
g19
F0.9922
tp824
a(g9
g10
F0.994
tp825
a(S'minute'
p826
g3
F0.8623
tp827
a(S'honey'
p828
g3
F0.9638
tp829
asI112
(lp830
(S'you'
p831
g47
F0.9867
tp832
a(S'shouldnta'
p833
g19
F0.6491
tp834
a(S'should'
p835
g19
F0.9968
tp836
a(S'not'
p837
g88
F0.9955
tp838
a(S'have'
p839
g19
F0.9987
tp840
a(S'done'
p841
g19
F0.975
tp842
a(S'that'
p843
g47
F0.4706
tp844
asI113
(lp845
(S'laughs'
p846
g19
F0.9102
tp847
asI114
(lp848
(S'laughs'
p849
g19
F0.9102
tp850
asI115
(lp851
(S'oh'
p852
g36
F0.9977
tp853
a(S'well'
p854
g36
F0.9872
tp855
asI116
(lp856
(S'they'
p857
g47
F0.9742
tp858
a(S'don'
p859
g19
F0.8659
tp860
a(g342
g3
F0.2457
tp861
a(S'know'
p862
g19
F0.9853
tp863
a(S'who'
p864
g47
F0.9935
tp865
a(g97
g47
F0.9819
tp866
a(S'am'
p867
g19
F0.994
tp868
asI117
(lp869
(S'what'
p870
g47
F0.949
tp871
asI118
(lp872
(S'what'
p873
g47
F0.7736
tp874
a(S'bro'
p875
g3
F0.9807
tp876
asI119
(lp877
(g97
g47
F0.9896
tp878
a(S'have'
p879
g19
F0.9998
tp880
a(S'some'
p881
g10
F0.9938
tp882
a(S'milk'
p883
g3
F0.9968
tp884
asI120
(lp885
(S'laughs'
p886
g19
F0.9102
tp887
asI121
(lp888
(S'soda'
p889
g3
F0.8845
tp890
a(S'soda'
p891
g3
F0.9942
tp892
asI122
(lp893
(S'no'
p894
g36
F0.7985
tp895
a(S'you'
p896
g47
F0.9826
tp897
a(S'drink'
p898
g19
F0.9989
tp899
a(S'your'
p900
g10
F0.9683
tp901
a(S'iced'
p902
g22
F0.9279
tp903
a(S'tea'
p904
g3
F0.9912
tp905
asI123
(lp906
(S'xxx'
p907
g43
F0.8437
tp908
asI124
(lp909
(S'what'
p910
g47
F0.9835
tp911
a(S'are'
p912
g19
F0.9976
tp913
a(S'you'
p914
g47
F0.9994
tp915
a(S'doing'
p916
g19
F0.9994
tp917
asI125
(lp918
(S'nothing'
p919
g3
F0.9678
tp920
asI126
(lp921
(S'xxx'
p922
g43
F0.8437
tp923
asI127
(lp924
(S'what'
p925
g47
F0.949
tp926
asI128
(lp927
(S'that'
p928
g47
F0.473
tp929
a(g68
g83
F0.4236
tp930
a(S'bro'
p931
g3
F0.9404
tp932
a(g68
g83
F0.9113
tp933
asI129
(lp934
(S'what'
p935
g47
F0.9784
tp936
a(g68
g83
F0.5583
tp937
a(S'bro'
p938
g3
F0.9404
tp939
a(g68
g83
F0.9113
tp940
asI130
(lp941
(S'the'
p942
g10
F0.9983
tp943
a(S'frog'
p944
g3
F0.9977
tp945
asI131
(lp946
(S'no'
p947
g36
F0.787
tp948
a(S'not'
p949
g88
F0.9761
tp950
a(S'at'
p951
g6
F0.9994
tp952
a(S'the'
p953
g10
F0.9991
tp954
a(S'table'
p955
g3
F0.995
tp956
a(S'give'
p957
g19
F0.9984
tp958
a(S'it'
p959
g47
F0.9905
tp960
a(S'to'
p961
g6
F0.9879
tp962
a(S'him'
p963
g47
F0.9884
tp964
a(S'after'
p965
g6
F0.9745
tp966
a(S'you'
p967
g47
F0.9995
tp968
a(S're'
p969
g19
F0.7813
tp970
a(S'done'
p971
g19
F0.9654
tp972
a(S'eating'
p973
g19
F0.9864
tp974
asI132
(lp975
(S'get'
p976
g19
F0.9991
tp977
a(S'up'
p978
g369
F0.9485
tp979
a(S'there'
p980
g88
F0.9109
tp981
a(S'and'
p982
g296
F0.9963
tp983
a(S'eat'
p984
g19
F0.9821
tp985
asI133
(lp986
(S'xxx'
p987
g43
F0.686
tp988
a(S'go'
p989
g19
F0.9059
tp990
asI134
(lp991
(S'xxx'
p992
g43
F0.8437
tp993
asI135
(lp994
(S'that'
p995
g10
F0.6951
tp996
a(S'one'
p997
g16
F0.7028
tp998
a(S'rolled'
p999
g19
F0.9761
tp1000
a(S'down'
p1001
g369
F0.7826
tp1002
asI136
(lp1003
(S'he'
p1004
g47
F0.9905
tp1005
a(g68
g19
F0.8393
tp1006
a(S'picking'
p1007
g19
F0.9985
tp1008
a(S'this'
p1009
g10
F0.9883
tp1010
a(S'tape'
p1011
g3
F0.9959
tp1012
a(S'up'
p1013
g369
F0.5402
tp1014
a(S'at'
p1015
g6
F0.9982
tp1016
a(S'two'
p1017
g16
F0.9119
tp1018
a(S'thirty'
p1019
g22
F0.3578
tp1020
asI137
(lp1021
(S'xxx'
p1022
g43
F0.8437
tp1023
asI138
(lp1024
(S'hey'
p1025
g36
F0.9912
tp1026
a(S'you'
p1027
g47
F0.9838
tp1028
a(S'guys'
p1029
g3
F0.9502
tp1030
a(S'want'
p1031
g19
F0.999
tp1032
a(S'to'
p1033
g6
F0.9841
tp1034
a(S'go'
p1035
g19
F0.9964
tp1036
a(S'downtown'
p1037
g22
F0.4725
tp1038
a(S'after'
p1039
g6
F0.9907
tp1040
a(S'you'
p1041
g47
F0.9995
tp1042
a(S're'
p1043
g19
F0.7974
tp1044
a(S'done'
p1045
g19
F0.95
tp1046
a(S'eatin'
p1047
g19
F0.6231
tp1048
a(S'g'
p1049
g83
F0.3457
tp1050
asI139
(lp1051
(S'yep'
p1052
g36
F0.9977
tp1053
asI140
(lp1054
(S'xxx'
p1055
g43
F0.4267
tp1056
a(S'you'
p1057
g47
F0.9984
tp1058
a(S'want'
p1059
g19
F0.9991
tp1060
a(S'one'
p1061
g16
F0.8003
tp1062
asI141
(lp1063
(S'whaddya'
p1064
g47
F0.9582
tp1065
a(S'what'
p1066
g47
F0.9931
tp1067
a(S'do'
p1068
g19
F0.9993
tp1069
a(S'you'
p1070
g47
F0.9697
tp1071
a(S'guys'
p1072
g3
F0.9464
tp1073
a(S'want'
p1074
g19
F0.9989
tp1075
a(S'to'
p1076
g6
F0.9762
tp1077
a(S'do'
p1078
g19
F0.9999
tp1079
a(S'down'
p1080
g88
F0.5183
tp1081
a(S'there'
p1082
g88
F0.8935
tp1083
asI142
(lp1084
(S'go'
p1085
g19
F0.9278
tp1086
a(S'get'
p1087
g19
F0.9805
tp1088
a(S'balloons'
p1089
g3
F0.9823
tp1090
asI143
(lp1091
(S'sounds'
p1092
g19
F0.9133
tp1093
a(S'good'
p1094
g22
F0.9971
tp1095
a(S'to'
p1096
g6
F0.9978
tp1097
a(S'me'
p1098
g47
F0.9984
tp1099
asI144
(lp1100
(g97
g47
F0.9914
tp1101
a(S'was'
p1102
g19
F0.9997
tp1103
a(S'just'
p1104
g88
F1.0
tp1105
a(S'about'
p1106
g6
F0.779
tp1107
a(S'to'
p1108
g6
F0.9924
tp1109
a(S'accept'
p1110
g19
F0.9999
tp1111
a(S'your'
p1112
g10
F0.9308
tp1113
a(S'ride'
p1114
g3
F0.9365
tp1115
a(S'but'
p1116
g296
F0.9895
tp1117
a(g97
g47
F0.9887
tp1118
a(S'don'
p1119
g19
F0.9198
tp1120
a(g342
g19
F0.3154
tp1121
a(S'think'
p1122
g19
F0.9835
tp1123
a(S'xxx'
p1124
g43
F0.7512
tp1125
asI145
(lp1126
(S'yeah'
p1127
g36
F0.9988
tp1128
a(S'yeah'
p1129
g36
F0.9991
tp1130
asI146
(lp1131
(S'laughs'
p1132
g19
F0.9102
tp1133
asI147
(lp1134
(S'where'
p1135
g88
F0.9194
tp1136
a(S'the'
p1137
g10
F0.9983
tp1138
a(S'balloons'
p1139
g3
F0.9968
tp1140
a(S'are'
p1141
g19
F0.9857
tp1142
asI148
(lp1143
(S'no'
p1144
g36
F0.6532
tp1145
a(g97
g47
F0.9389
tp1146
a(S'wasn'
p1147
g19
F0.9743
tp1148
a(g342
g83
F0.6296
tp1149
a(S'xxx'
p1150
g83
F0.3854
tp1151
a(S'today'
p1152
g3
F0.9855
tp1153
asI149
(lp1154
(S'oh'
p1155
g36
F0.9971
tp1156
a(g97
g47
F0.9939
tp1157
a(S'know'
p1158
g19
F0.9994
tp1159
a(S'but'
p1160
g296
F0.9876
tp1161
a(g97
g47
F0.9896
tp1162
asI150
(lp1163
(S'mom'
p1164
g3
F0.7188
tp1165
asI151
(lp1166
(S'where'
p1167
g88
F0.9194
tp1168
a(S'the'
p1169
g10
F0.9979
tp1170
a(S'birds'
p1171
g3
F0.9802
tp1172
a(S'are'
p1173
g19
F0.9917
tp1174
a(S'and'
p1175
g296
F0.9935
tp1176
a(S'the'
p1177
g10
F0.9986
tp1178
a(S'fishie'
p1179
g3
F0.8879
tp1180
a(g68
g83
F0.6948
tp1181
a(S'are'
p1182
g19
F0.9859
tp1183
asI152
(lp1184
(S'huh'
p1185
g36
F0.993
tp1186
asI153
(lp1187
(S'what'
p1188
g47
F0.949
tp1189
asI154
(lp1190
(S'mumbling'
p1191
g19
F0.9905
tp1192
asI155
(lp1193
(S'whatchu'
p1194
S'L'
p1195
F0.7303
tp1196
a(S'what'
p1197
g47
F0.9977
tp1198
a(S'did'
p1199
g19
F0.9993
tp1200
a(S'you'
p1201
g47
F0.9983
tp1202
a(S'just'
p1203
g88
F0.9996
tp1204
a(S'say'
p1205
g19
F0.9905
tp1206
asI156
(lp1207
(S'mumbling'
p1208
g19
F0.9905
tp1209
asI157
(lp1210
(g97
g47
F0.9756
tp1211
a(S'didn'
p1212
g19
F0.9919
tp1213
a(g342
g19
F0.7723
tp1214
a(S'hear'
p1215
g19
F0.9732
tp1216
a(S'you'
p1217
g47
F0.997
tp1218
asI158
(lp1219
(S'what'
p1220
g47
F0.9777
tp1221
a(S'about'
p1222
g6
F0.9966
tp1223
a(S'the'
p1224
g10
F0.9995
tp1225
a(S'birds'
p1226
g3
F0.9804
tp1227
a(S'and'
p1228
g296
F0.9982
tp1229
a(S'fishies'
p1230
g3
F0.7058
tp1231
asI159
(lp1232
(S'where'
p1233
g88
F0.9194
tp1234
a(S'the'
p1235
g10
F0.9979
tp1236
a(S'birds'
p1237
g3
F0.9699
tp1238
a(S'and'
p1239
g296
F0.998
tp1240
a(S'fishes'
p1241
g3
F0.8398
tp1242
a(S'are'
p1243
g19
F0.9932
tp1244
asI160
(lp1245
(S'they'
p1246
g47
F0.9742
tp1247
a(S'don'
p1248
g19
F0.8659
tp1249
a(g342
g3
F0.2384
tp1250
a(S'have'
p1251
g19
F0.9991
tp1252
a(S'the'
p1253
g10
F0.9995
tp1254
a(S'pet'
p1255
g3
F0.9296
tp1256
a(S'show'
p1257
g3
F0.9446
tp1258
a(S'in'
p1259
g6
F0.9975
tp1260
a(S'the'
p1261
g10
F0.9987
tp1262
a(S'pet'
p1263
g3
F0.9647
tp1264
a(S'they'
p1265
g47
F0.9515
tp1266
a(S'don'
p1267
g19
F0.857
tp1268
a(g342
g3
F0.2172
tp1269
a(S'have'
p1270
g19
F0.9992
tp1271
a(S'the'
p1272
g10
F0.9995
tp1273
a(S'pet'
p1274
g3
F0.9296
tp1275
a(S'show'
p1276
g3
F0.9369
tp1277
a(g68
g83
F0.8905
tp1278
a(S'blah'
p1279
g36
F0.8629
tp1280
asI161
(lp1281
(g15
g16
F0.9858
tp1282
a(S'small'
p1283
g22
F0.986
tp1284
a(S'laugh'
p1285
g3
F0.8946
tp1286
asI162
(lp1287
(S'they'
p1288
g47
F0.9742
tp1289
a(S'don'
p1290
g19
F0.8659
tp1291
a(g342
g3
F0.2384
tp1292
a(S'have'
p1293
g19
F0.9991
tp1294
a(S'the'
p1295
g10
F0.9995
tp1296
a(S'pet'
p1297
g3
F0.8929
tp1298
a(S'shop'
p1299
g3
F0.9957
tp1300
a(S'in'
p1301
g6
F0.9944
tp1302
a(S'there'
p1303
g378
F0.6365
tp1304
a(S'no'
p1305
g10
F0.6608
tp1306
a(S'more'
p1307
g22
F0.4947
tp1308
a(S'chi'
p1309
g3
F0.419
tp1310
asI163
(lp1311
(S'could'
p1312
g19
F0.9703
tp1313
a(g97
g47
F0.9933
tp1314
a(S'have'
p1315
g19
F0.9999
tp1316
a(S'that'
p1317
g10
F0.7424
tp1318
a(S'ashtray'
p1319
g3
F0.8703
tp1320
asI164
(lp1321
(S'what'
p1322
g47
F0.9784
tp1323
a(g68
g83
F0.5951
tp1324
a(S'the'
p1325
g10
F0.9986
tp1326
a(S'mat'
p1327
g3
F0.923
tp1328
a(S'what'
p1329
g47
F0.9199
tp1330
a(S'jessie'
p1331
g61
F0.9852
tp1332
asI165
(lp1333
(S'she'
p1334
g47
F0.9972
tp1335
a(S'wants'
p1336
g19
F1.0
tp1337
a(S'her'
p1338
g10
F0.9177
tp1339
a(S'cup'
p1340
g3
F0.9995
tp1341
a(S'of'
p1342
g6
F0.995
tp1343
a(S'wheat'
p1344
g3
F0.6196
tp1345
asI166
(lp1346
(S'oh'
p1347
g36
F0.9988
tp1348
asI167
(lp1349
(S'yeah'
p1350
g36
F0.9988
tp1351
asI168
(lp1352
(S'no'
p1353
g36
F0.6532
tp1354
a(g97
g47
F0.9247
tp1355
a(g483
g19
F0.9644
tp1356
a(S'gonna'
p1357
g19
F0.9873
tp1358
a(S'xxx'
p1359
g19
F0.5493
tp1360
a(S'pair'
p1361
g3
F0.992
tp1362
a(S'of'
p1363
g6
F0.9952
tp1364
a(S'sneakers'
p1365
g3
F0.87
tp1366
asI169
(lp1367
(S'xxx'
p1368
g43
F0.8437
tp1369
asI170
(lp1370
(S'that'
p1371
g47
F0.473
tp1372
a(g68
g83
F0.472
tp1373
a(S'why'
p1374
g88
F0.9629
tp1375
a(g97
g47
F0.995
tp1376
a(S'want'
p1377
g19
F0.9999
tp1378
a(S'to'
p1379
g6
F0.9852
tp1380
a(S'go'
p1381
g19
F0.9942
tp1382
a(S'downtown'
p1383
g22
F0.6586
tp1384
asI171
(lp1385
(S'no'
p1386
g36
F0.9253
tp1387
asI172
(lp1388
(S'tomorrow'
p1389
g3
F0.9457
tp1390
a(g97
g47
F0.8261
tp1391
a(g483
g19
F0.9838
tp1392
a(S'going'
p1393
g19
F0.9973
tp1394
a(S'to'
p1395
g6
F0.9567
tp1396
a(S'xxx'
p1397
g19
F0.8348
tp1398
a(S'that'
p1399
g47
F0.5315
tp1400
a(g68
g19
F0.5164
tp1401
a(S'the'
p1402
g10
F0.9994
tp1403
a(S'first'
p1404
g22
F0.9934
tp1405
a(S'thing'
p1406
g3
F0.9985
tp1407
a(S'in'
p1408
g6
F0.9994
tp1409
a(S'the'
p1410
g10
F0.9995
tp1411
a(S'morning'
p1412
g3
F0.998
tp1413
asI173
(lp1414
(S'isn'
p1415
g83
F0.5578
tp1416
a(g342
g83
F0.708
tp1417
a(S'that'
p1418
g47
F0.7315
tp1419
a(S'down'
p1420
g88
F0.5828
tp1421
a(S'on'
p1422
g6
F0.9787
tp1423
a(S'route'
p1424
g3
F0.9492
tp1425
a(S'nine'
p1426
g3
F0.5216
tp1427
asI174
(lp1428
(S'uhhuh'
p1429
g36
F0.9892
tp1430
asI175
(lp1431
(g97
g47
F0.9918
tp1432
a(S'heard'
p1433
g19
F0.9996
tp1434
a(S'of'
p1435
g6
F0.9683
tp1436
a(S'that'
p1437
g10
F0.9423
tp1438
a(S'place'
p1439
g3
F0.9899
tp1440
a(S'before'
p1441
g6
F0.9761
tp1442
a(S'but'
p1443
g296
F0.9909
tp1444
a(g97
g47
F0.9927
tp1445
a(S'ain'
p1446
g19
F0.9728
tp1447
a(g342
g19
F0.3747
tp1448
a(S'never'
p1449
g88
F0.9825
tp1450
a(S'been'
p1451
g19
F0.9966
tp1452
a(S'there'
p1453
g88
F0.8074
tp1454
asI176
(lp1455
(S'totally'
p1456
g88
F0.9991
tp1457
a(S'awesome'
p1458
g22
F0.9966
tp1459
asI177
(lp1460
(S'completely'
p1461
g88
F0.9993
tp1462
a(S'awesome'
p1463
g22
F0.9947
tp1464
asI178
(lp1465
(S'best'
p1466
g22
F0.8928
tp1467
a(S'buys'
p1468
g3
F0.7272
tp1469
a(S'ever'
p1470
g88
F0.9232
tp1471
asI179
(lp1472
(S'mom'
p1473
g3
F0.7188
tp1474
asI180
(lp1475
(S'that'
p1476
g47
F0.473
tp1477
a(g68
g83
F0.4404
tp1478
a(S'what'
p1479
g47
F0.9623
tp1480
a(g97
g47
F0.9954
tp1481
a(S'heard'
p1482
g19
F0.9999
tp1483
a(S'they'
p1484
g47
F0.9962
tp1485
a(S'got'
p1486
g19
F0.9993
tp1487
a(S'nice'
p1488
g22
F0.9992
tp1489
a(S'stuff'
p1490
g3
F0.9951
tp1491
a(S'there'
p1492
g88
F0.8471
tp1493
asI181
(lp1494
(S'that'
p1495
g10
F0.8322
tp1496
a(S'sweater'
p1497
g3
F0.9965
tp1498
a(S'right'
p1499
g88
F0.5794
tp1500
a(S'there'
p1501
g88
F0.7654
tp1502
asI182
(lp1503
(S'mom'
p1504
g3
F0.7188
tp1505
asI183
(lp1506
(S'chi'
p1507
g61
F0.4785
tp1508
a(S'up'
p1509
g369
F0.7647
tp1510
a(S'at'
p1511
g6
F0.9994
tp1512
a(S'the'
p1513
g10
F0.9991
tp1514
a(S'table'
p1515
g3
F0.989
tp1516
a(S'and'
p1517
g296
F0.9962
tp1518
a(S'eat'
p1519
g19
F0.9673
tp1520
a(S'come'
p1521
g19
F0.9758
tp1522
a(S'on'
p1523
g6
F0.5093
tp1524
asI184
(lp1525
(S'pizza'
p1526
g3
F0.9224
tp1527
asI185
(lp1528
(S'never'
p1529
g88
F0.9671
tp1530
a(S'mind'
p1531
g19
F0.7723
tp1532
a(S'about'
p1533
g6
F0.9897
tp1534
a(S'her'
p1535
g47
F0.8325
tp1536
asI186
(lp1537
(S'you'
p1538
g47
F0.9956
tp1539
a(S'eat'
p1540
g19
F0.9955
tp1541
asI187
(lp1542
(S'but'
p1543
g296
F0.9912
tp1544
a(S'uh'
p1545
g36
F0.9622
tp1546
asI188
(lp1547
(S'xxx'
p1548
g43
F0.8437
tp1549
asI189
(lp1550
(S'xxx'
p1551
g43
F0.8437
tp1552
asI190
(lp1553
(S'you'
p1554
g47
F0.998
tp1555
a(S'want'
p1556
g19
F0.9999
tp1557
a(S'another'
p1558
g10
F0.9947
tp1559
a(S'piece'
p1560
g3
F0.9968
tp1561
asI191
(lp1562
(S'my'
p1563
g10
F0.906
tp1564
a(g68
g83
F0.6784
tp1565
a(S'poon'
p1566
g3
F0.9391
tp1567
asI192
(lp1568
(S'my'
p1569
g10
F0.996
tp1570
a(S'spoon'
p1571
g3
F0.9967
tp1572
asI193
(lp1573
(S'but'
p1574
g296
F0.9889
tp1575
a(S'that'
p1576
g47
F0.6509
tp1577
a(g68
g83
F0.4287
tp1578
a(S'where'
p1579
g88
F0.9165
tp1580
a(S'the'
p1581
g10
F0.9825
tp1582
a(S'xxx'
p1583
g3
F0.641
tp1584
a(S'belong'
p1585
g19
F0.9798
tp1586
asI194
(lp1587
(S'my'
p1588
g10
F0.996
tp1589
a(S'spoon'
p1590
g3
F0.9967
tp1591
asI195
(lp1592
(S'xxx'
p1593
g43
F0.8437
tp1594
asI196
(lp1595
(S'really'
p1596
g88
F0.9938
tp1597
asI197
(lp1598
(S'xxx'
p1599
g43
F0.8325
tp1600
a(S'xxx'
p1601
g43
F0.9813
tp1602
asI198
(lp1603
(S'how'
p1604
g88
F0.9987
tp1605
a(S'far'
p1606
g88
F0.7037
tp1607
a(S'on'
p1608
g6
F0.9874
tp1609
a(S'route'
p1610
g3
F0.949
tp1611
a(S'nine'
p1612
g3
F0.7662
tp1613
a(S'is'
p1614
g19
F0.9993
tp1615
a(S'it'
p1616
g47
F0.9978
tp1617
asI199
(lp1618
(S'xxx'
p1619
g43
F0.611
tp1620
a(S'do'
p1621
g19
F0.9989
tp1622
a(S'you'
p1623
g47
F0.9997
tp1624
a(S'know'
p1625
g19
F0.9984
tp1626
a(S'where'
p1627
g88
F0.9216
tp1628
a(S'the'
p1629
g10
F0.9973
tp1630
a(S'christmas'
p1631
g61
F0.9613
tp1632
a(S'shop'
p1633
g3
F0.9173
tp1634
a(S'tree'
p1635
g3
F0.9988
tp1636
a(S'is'
p1637
g19
F0.9968
tp1638
asI200
(lp1639
(S'xxx'
p1640
g43
F0.8437
tp1641
asI201
(lp1642
(S'xxx'
p1643
g43
F0.8437
tp1644
asI202
(lp1645
(S'xxx'
p1646
g43
F0.8325
tp1647
a(S'xxx'
p1648
g43
F0.9813
tp1649
asI203
(lp1650
(S'you'
p1651
g47
F0.9962
tp1652
a(S'keep'
p1653
g19
F0.9959
tp1654
a(S'going'
p1655
g19
F0.9979
tp1656
a(S'straight'
p1657
g88
F0.4969
tp1658
a(S'and'
p1659
g296
F0.9988
tp1660
a(S'it'
p1661
g47
F0.9971
tp1662
a(g68
g19
F0.7561
tp1663
a(S'like'
p1664
g6
F0.6564
tp1665
a(S'right'
p1666
g88
F0.6936
tp1667
a(S'there'
p1668
g88
F0.7116
tp1669
a(S'it'
p1670
g47
F0.9903
tp1671
a(g68
g19
F0.7561
tp1672
a(S'like'
p1673
g6
F0.8136
tp1674
a(S'maybe'
p1675
g88
F0.9745
tp1676
a(S'two'
p1677
g16
F0.9092
tp1678
a(S'three'
p1679
g16
F0.9363
tp1680
a(S'more'
p1681
g22
F0.8797
tp1682
a(S'miles'
p1683
g3
F0.9951
tp1684
a(S'after'
p1685
g6
F0.9986
tp1686
a(S'the'
p1687
g10
F0.9919
tp1688
a(S'christmas'
p1689
g61
F0.9733
tp1690
a(S'tree'
p1691
g3
F0.9714
tp1692
a(S'shop'
p1693
g3
F0.9877
tp1694
asI204
(lp1695
(S'my'
p1696
g10
F0.8959
tp1697
a(S'xxx'
p1698
g3
F0.5963
tp1699
asI205
(lp1700
(S'it'
p1701
g47
F0.9888
tp1702
a(g68
g19
F0.7094
tp1703
a(S'my'
p1704
g10
F0.8625
tp1705
a(S'xxx'
p1706
g3
F0.5827
tp1707
asI206
(lp1708
(S'is'
p1709
g19
F0.9955
tp1710
a(S'there'
p1711
g378
F0.9284
tp1712
a(g9
g10
F0.9979
tp1713
a(S'bus'
p1714
g3
F0.9913
tp1715
a(S'that'
p1716
g6
F0.8686
tp1717
a(S'goes'
p1718
g19
F0.9985
tp1719
a(S'out'
p1720
g369
F0.9045
tp1721
a(S'to'
p1722
g6
F0.9995
tp1723
a(S'the'
p1724
g10
F0.9986
tp1725
a(S'christmas'
p1726
g61
F0.9802
tp1727
a(S'tree'
p1728
g3
F0.9716
tp1729
a(S'shop'
p1730
g3
F0.9883
tp1731
asI207
(lp1732
(S'uhuh'
p1733
g36
F0.9919
tp1734
asI208
(lp1735
(S'it'
p1736
g47
F0.9888
tp1737
a(g68
g19
F0.7094
tp1738
a(S'my'
p1739
g10
F0.9954
tp1740
a(S'spoon'
p1741
g3
F0.997
tp1742
asI209
(lp1743
(S'xxx'
p1744
g43
F0.8437
tp1745
asI210
(lp1746
(S'hey'
p1747
g36
F0.9986
tp1748
asI211
(lp1749
(S'my'
p1750
g10
F0.8959
tp1751
a(S'xxx'
p1752
g3
F0.5963
tp1753
asI212
(lp1754
(S'hey'
p1755
g36
F0.9986
tp1756
asI213
(lp1757
(S'shush'
p1758
g36
F0.7462
tp1759
a(S'eat'
p1760
g19
F0.8386
tp1761
asI214
(lp1762
(S'xxx'
p1763
g43
F0.8437
tp1764
asI215
(lp1765
(S'xxx'
p1766
g43
F0.5437
tp1767
a(S'my'
p1768
g10
F0.9927
tp1769
a(S'spoon'
p1770
g3
F0.9976
tp1771
asI216
(lp1772
(S'but'
p1773
g296
F0.9951
tp1774
a(S'um'
p1775
g36
F0.838
tp1776
a(g97
g47
F0.9925
tp1777
a(S'know'
p1778
g19
F0.9998
tp1779
a(S'that'
p1780
g6
F0.8245
tp1781
a(S'the'
p1782
g10
F0.9992
tp1783
a(S'bus'
p1784
g3
F0.9816
tp1785
a(S'goes'
p1786
g19
F0.9978
tp1787
a(S'out'
p1788
g369
F0.9662
tp1789
a(S'near'
p1790
g6
F0.9984
tp1791
a(S'the'
p1792
g10
F0.9991
tp1793
a(S'christmas'
p1794
g61
F0.9711
tp1795
a(S'tree'
p1796
g3
F0.9634
tp1797
a(S'shop'
p1798
g3
F0.9877
tp1799
asI217
(lp1800
(S'be'
p1801
g19
F0.9727
tp1802
a(S'cause'
p1803
g6
F0.7428
tp1804
a(S'actually'
p1805
g88
F0.9986
tp1806
a(g97
g47
F0.988
tp1807
a(S'was'
p1808
g19
F0.9997
tp1809
a(S'thinking'
p1810
g19
F0.9973
tp1811
a(S'about'
p1812
g6
F0.9639
tp1813
a(S'taking'
p1814
g19
F0.9976
tp1815
a(g9
g10
F0.9976
tp1816
a(S'bus'
p1817
g3
F0.9798
tp1818
a(S'xxx'
p1819
g43
F0.7677
tp1820
asI218
(lp1821
(S'xxx'
p1822
g43
F0.8437
tp1823
asI219
(lp1824
(S'uhuh'
p1825
g36
F0.9919
tp1826
asI220
(lp1827
(S'xxx'
p1828
g43
F0.8437
tp1829
asI221
(lp1830
(S'mom'
p1831
g3
F0.7188
tp1832
asI222
(lp1833
(S'xxx'
p1834
g43
F0.8437
tp1835
asI223
(lp1836
(S'xxx'
p1837
g43
F0.8437
tp1838
asI224
(lp1839
(S'you'
p1840
g47
F0.998
tp1841
a(S'used'
p1842
g19
F0.9743
tp1843
a(S'to'
p1844
g6
F0.9876
tp1845
a(S'walk'
p1846
g19
F0.995
tp1847
a(S'to'
p1848
g6
F0.9976
tp1849
a(S'the'
p1850
g10
F0.9986
tp1851
a(S'christmas'
p1852
g61
F0.9747
tp1853
a(S'tree'
p1854
g3
F0.9652
tp1855
a(S'store'
p1856
g3
F0.9682
tp1857
asI225
(lp1858
(S'my'
p1859
g10
F0.8959
tp1860
a(S'xxx'
p1861
g3
F0.5963
tp1862
asI226
(lp1863
(S'my'
p1864
g10
F0.8959
tp1865
a(S'xxx'
p1866
g3
F0.5963
tp1867
asI227
(lp1868
(g97
g47
F0.9886
tp1869
a(S'used'
p1870
g19
F0.9913
tp1871
a(S'to'
p1872
g6
F0.9852
tp1873
a(S'work'
p1874
g19
F0.809
tp1875
a(S'there'
p1876
g88
F0.9227
tp1877
a(g97
g47
F0.9892
tp1878
a(S'used'
p1879
g19
F0.9935
tp1880
a(S'to'
p1881
g6
F0.996
tp1882
a(S'get'
p1883
g19
F0.9999
tp1884
a(g9
g10
F0.9836
tp1885
a(S'ride'
p1886
g3
F0.9546
tp1887
asI228
(lp1888
(S'oh'
p1889
g36
F0.9988
tp1890
asI229
(lp1891
(S'xxx'
p1892
g43
F0.8437
tp1893
asI230
(lp1894
(S'xxx'
p1895
g43
F0.6469
tp1896
a(S'like'
p1897
g6
F0.8529
tp1898
a(S'going'
p1899
g19
F0.9941
tp1900
a(S'from'
p1901
g6
F0.9986
tp1902
a(S'the'
p1903
g10
F0.9987
tp1904
a(S'christmas'
p1905
g61
F0.9738
tp1906
a(S'tree'
p1907
g3
F0.9677
tp1908
a(S'shop'
p1909
g3
F0.9792
tp1910
a(S'in'
p1911
g6
F0.9989
tp1912
a(S'the'
p1913
g10
F0.9993
tp1914
a(S'snow'
p1915
g3
F0.984
tp1916
asI231
(lp1917
(S'xxx'
p1918
g43
F0.8437
tp1919
asI232
(lp1920
(S'xxx'
p1921
g43
F0.8437
tp1922
asI233
(lp1923
(S'the'
p1924
g10
F0.9975
tp1925
a(S'christmas'
p1926
g61
F0.9232
tp1927
a(S'trees'
p1928
g3
F0.9818
tp1929
a(S'stop'
p1930
g19
F0.9941
tp1931
a(S'the'
p1932
g10
F0.999
tp1933
a(S'christmas'
p1934
g61
F0.9738
tp1935
a(S'tree'
p1936
g3
F0.964
tp1937
a(S'shop'
p1938
g3
F0.9873
tp1939
a(S'xxx'
p1940
g43
F0.784
tp1941
asI234
(lp1942
(S'xxx'
p1943
g43
F0.8437
tp1944
asI235
(lp1945
(g97
g47
F0.9756
tp1946
a(S'didn'
p1947
g19
F0.9919
tp1948
a(g342
g19
F0.8557
tp1949
a(S'think'
p1950
g19
F0.9971
tp1951
a(S'they'
p1952
g47
F0.997
tp1953
a(S'had'
p1954
g19
F0.9996
tp1955
a(S'clothes'
p1956
g3
F0.9669
tp1957
a(S'there'
p1958
g88
F0.8437
tp1959
asI236
(lp1960
(S'no'
p1961
g36
F0.6532
tp1962
a(g97
g47
F0.9247
tp1963
a(g483
g19
F0.973
tp1964
a(S'just'
p1965
g88
F0.9997
tp1966
a(S'saying'
p1967
g19
F0.9996
tp1968
a(S'they'
p1969
g47
F0.9927
tp1970
a(S'got'
p1971
g19
F0.9993
tp1972
a(S'nice'
p1973
g22
F0.9986
tp1974
a(S'belts'
p1975
g3
F0.9921
tp1976
a(S'there'
p1977
g88
F0.9354
tp1978
a(S'for'
p1979
g6
F0.9886
tp1980
a(S'cheap'
p1981
g22
F0.9956
tp1982
a(S'prices'
p1983
g3
F0.9957
tp1984
asI237
(lp1985
(S'uh'
p1986
g36
F0.9927
tp1987
asI238
(lp1988
(S'xxx'
p1989
g43
F0.8437
tp1990
asI239
(lp1991
(S'nuhhuh'
p1992
g61
F0.2643
tp1993
a(S'xxx'
p1994
g43
F0.3826
tp1995
a(S'this'
p1996
g10
F0.9275
tp1997
a(S'one'
p1998
g16
F0.7394
tp1999
asI240
(lp2000
(S'laughs'
p2001
g19
F0.9102
tp2002
asI241
(lp2003
(S'you'
p2004
g47
F0.9969
tp2005
a(S'got'
p2006
g19
F0.999
tp2007
a(S'something'
p2008
g3
F0.9882
tp2009
asI242
(lp2010
(S'oh'
p2011
g36
F0.9878
tp2012
a(S'you'
p2013
g47
F0.9515
tp2014
a(S're'
p2015
g19
F0.5559
tp2016
a(S'gonna'
p2017
g19
F0.992
tp2018
a(S'lose'
p2019
g19
F0.9996
tp2020
a(S'that'
p2021
g47
F0.4786
tp2022
a(S'right'
p2023
g88
F0.4821
tp2024
a(S'off'
p2025
g6
F0.9049
tp2026
a(S'your'
p2027
g10
F0.9949
tp2028
a(S'cheese'
p2029
g3
F0.9973
tp2030
a(S'xxx'
p2031
g43
F0.7119
tp2032
asI243
(lp2033
(S'you'
p2034
g47
F0.9754
tp2035
a(S're'
p2036
g19
F0.5918
tp2037
a(S'gonna'
p2038
g19
F0.9927
tp2039
a(S'lose'
p2040
g19
F0.9997
tp2041
a(S'the'
p2042
g10
F0.9995
tp2043
a(S'cheese'
p2044
g3
F0.9959
tp2045
a(S'you'
p2046
g47
F0.9658
tp2047
a(S're'
p2048
g19
F0.5665
tp2049
a(S'gonna'
p2050
g19
F0.9928
tp2051
a(S'going'
p2052
g19
F0.9999
tp2053
a(S'to'
p2054
g6
F0.989
tp2055
a(S'lose'
p2056
g19
F0.9999
tp2057
a(S'it'
p2058
g47
F0.988
tp2059
asI244
(lp2060
(S'nuhhuh'
p2061
g36
F0.533
tp2062
asI245
(lp2063
(S'mhm'
p2064
g36
F0.9599
tp2065
a(S'mhm'
p2066
g36
F0.986
tp2067
asI246
(lp2068
(S'nuhhuh'
p2069
g36
F0.533
tp2070
asI247
(lp2071
(S'mhm'
p2072
g36
F0.9747
tp2073
asI248
(lp2074
(S'nuhhuh'
p2075
g36
F0.533
tp2076
asI249
(lp2077
(S'mom'
p2078
g3
F0.8127
tp2079
a(S'xxx'
p2080
g43
F0.7828
tp2081
asI250
(lp2082
(S'no'
p2083
g36
F0.7985
tp2084
a(S'you'
p2085
g47
F0.9973
tp2086
a(S'have'
p2087
g19
F0.9999
tp2088
a(S'your'
p2089
g10
F0.9304
tp2090
a(S'xxx'
p2091
g43
F0.3808
tp2092
a(S'xxx'
p2093
g43
F0.9894
tp2094
asI251
(lp2095
(S'xxx'
p2096
g43
F0.8437
tp2097
asI252
(lp2098
(S'nuhhuh'
p2099
g36
F0.533
tp2100
asI253
(lp2101
(g97
g47
F0.9888
tp2102
a(S'pulled'
p2103
g19
F0.9998
tp2104
a(S'it'
p2105
g47
F0.9879
tp2106
a(S'off'
p2107
g369
F0.8862
tp2108
asI254
(lp2109
(S'mom'
p2110
g3
F0.8127
tp2111
a(S'xxx'
p2112
g43
F0.7828
tp2113
asI255
(lp2114
(S'no'
p2115
g10
F0.4696
tp2116
a(S'get'
p2117
g19
F0.8795
tp2118
a(S'off'
p2119
g369
F0.8056
tp2120
a(S'his'
p2121
g10
F0.9994
tp2122
a(S'case'
p2123
g3
F0.9968
tp2124
asI256
(lp2125
(S'xxx'
p2126
g43
F0.8437
tp2127
asI257
(lp2128
(S'chi'
p2129
g61
F0.5934
tp2130
a(S'sit'
p2131
g19
F0.9915
tp2132
a(S'down'
p2133
g369
F0.9538
tp2134
asI258
(lp2135
(S'chi'
p2136
g61
F0.6696
tp2137
a(S'pick'
p2138
g19
F0.9958
tp2139
a(S'it'
p2140
g47
F0.9921
tp2141
a(S'up'
p2142
g369
F0.9845
tp2143
asI259
(lp2144
(S'look'
p2145
g19
F0.8183
tp2146
asI260
(lp2147
(S'give'
p2148
g19
F0.9981
tp2149
a(S'it'
p2150
g47
F0.9915
tp2151
a(S'to'
p2152
g6
F0.9798
tp2153
a(S'me'
p2154
g47
F0.9984
tp2155
asI261
(lp2156
(S'chi'
p2157
g36
F0.4684
tp2158
asI262
(lp2159
(S'here'
p2160
g88
F0.7796
tp2161
asI263
(lp2162
(S'eat'
p2163
g19
F0.8267
tp2164
asI264
(lp2165
(S'get'
p2166
g19
F0.9991
tp2167
a(S'up'
p2168
g369
F0.9485
tp2169
a(S'there'
p2170
g88
F0.9109
tp2171
a(S'and'
p2172
g296
F0.9963
tp2173
a(S'eat'
p2174
g19
F0.9821
tp2175
asI265
(lp2176
(S'that'
p2177
g47
F0.4727
tp2178
a(g68
g19
F0.3976
tp2179
a(S'yucky'
p2180
g22
F0.9001
tp2181
asI266
(lp2182
(S'not'
p2183
g88
F0.9897
tp2184
a(S'too'
p2185
g88
F0.9793
tp2186
a(S'xxx'
p2187
g43
F0.6951
tp2188
asI267
(lp2189
(S'it'
p2190
g47
F0.9858
tp2191
a(g68
g19
F0.4559
tp2192
a(S'dirty'
p2193
g22
F0.9046
tp2194
asI268
(lp2195
(S'then'
p2196
g88
F0.9697
tp2197
a(S'throw'
p2198
g19
F0.99
tp2199
a(S'it'
p2200
g47
F0.9841
tp2201
a(S'away'
p2202
g88
F0.939
tp2203
asI269
(lp2204
(S'look'
p2205
g19
F0.8183
tp2206
asI270
(lp2207
(S'um'
p2208
g36
F0.9571
tp2209
a(S'excuse'
p2210
g19
F0.9746
tp2211
a(S'me'
p2212
g47
F0.9987
tp2213
asI271
(lp2214
(S'throw'
p2215
g19
F0.9851
tp2216
a(S'it'
p2217
g47
F0.987
tp2218
a(S'away'
p2219
g88
F0.938
tp2220
a(S'then'
p2221
g88
F0.9923
tp2222
asI272
(lp2223
(S'xxx'
p2224
g43
F0.8437
tp2225
asI273
(lp2226
(S'tuesday'
p2227
g61
F0.8808
tp2228
a(g97
g47
F0.8557
tp2229
a(g483
g19
F0.9644
tp2230
a(S'gonna'
p2231
g19
F0.9922
tp2232
a(S'go'
p2233
g19
F0.9992
tp2234
a(S'to'
p2235
g6
F0.9984
tp2236
a(S'the'
p2237
g10
F0.997
tp2238
a(S'auburn'
p2239
g22
F0.9162
tp2240
a(S'mall'
p2241
g3
F0.9984
tp2242
a(S'and'
p2243
g296
F0.9987
tp2244
a(g97
g47
F0.9853
tp2245
a(g483
g19
F0.9878
tp2246
a(S'spendin'
p2247
g19
F0.7937
tp2248
a(g1049
g19
F0.5522
tp2249
a(S'all'
p2250
g10
F0.9897
tp2251
a(S'day'
p2252
g3
F0.9944
tp2253
a(S'there'
p2254
g88
F0.7901
tp2255
asI274
(lp2256
(S'laughs'
p2257
g19
F0.9102
tp2258
asI275
(lp2259
(g97
g47
F0.9812
tp2260
a(S'only'
p2261
g88
F0.7684
tp2262
a(S'been'
p2263
g19
F0.9945
tp2264
a(S'there'
p2265
g88
F0.9587
tp2266
a(S'once'
p2267
g88
F0.9735
tp2268
a(S'since'
p2269
g6
F0.9388
tp2270
a(g97
g47
F0.998
tp2271
a(S'been'
p2272
g19
F0.9989
tp2273
a(S'living'
p2274
g19
F0.9985
tp2275
a(S'in'
p2276
g6
F0.9794
tp2277
a(S'this'
p2278
g10
F0.9684
tp2279
a(S'area'
p2280
g3
F0.9357
tp2281
asI276
(lp2282
(g97
g47
F0.9892
tp2283
a(S'got'
p2284
g19
F0.9998
tp2285
a(g9
g10
F0.9746
tp2286
a(S'xxx'
p2287
g43
F0.3402
tp2288
a(S'mot'
p2289
g83
F0.3244
tp2290
asI277
(lp2291
(S'xxx'
p2292
g43
F0.8704
tp2293
a(S'two'
p2294
g16
F0.967
tp2295
a(S'years'
p2296
g3
F0.9919
tp2297
asI278
(lp2298
(S'laughs'
p2299
g19
F0.9102
tp2300
asI279
(lp2301
(S'laughs'
p2302
g19
F0.9102
tp2303
asI280
(lp2304
(g97
g47
F0.9708
tp2305
a(S'like'
p2306
g19
F0.6732
tp2307
a(S'the'
p2308
g10
F0.9692
tp2309
a(S'xxx'
p2310
g3
F0.4356
tp2311
a(S'mall'
p2312
g3
F0.9789
tp2313
asI281
(lp2314
(S'want'
p2315
g19
F0.9973
tp2316
a(g9
g10
F0.9978
tp2317
a(S'soda'
p2318
g3
F0.9858
tp2319
a(S'mot'
p2320
g3
F0.601
tp2321
asI282
(lp2322
(S'hm'
p2323
g36
F0.995
tp2324
asI283
(lp2325
(g97
g47
F0.9897
tp2326
a(S'want'
p2327
g19
F1.0
tp2328
a(g9
g10
F0.9975
tp2329
a(S'soda'
p2330
g3
F0.9955
tp2331
asI284
(lp2332
(S'no'
p2333
g10
F0.7159
tp2334
a(S'soda'
p2335
g3
F0.9992
tp2336
a(S'bro'
p2337
g3
F0.9939
tp2338
asI285
(lp2339
(S'you'
p2340
g47
F0.9981
tp2341
a(S'done'
p2342
g19
F0.9976
tp2343
a(S'with'
p2344
g6
F0.9986
tp2345
a(S'your'
p2346
g10
F0.9907
tp2347
a(S'iced'
p2348
g22
F0.9279
tp2349
a(S'tea'
p2350
g3
F0.9912
tp2351
asI286
(lp2352
(S'no'
p2353
g36
F0.9253
tp2354
asI287
(lp2355
(g97
g47
F0.9805
tp2356
a(S'never'
p2357
g88
F0.9814
tp2358
a(S'been'
p2359
g19
F0.9977
tp2360
a(S'to'
p2361
g6
F0.9961
tp2362
a(S'the'
p2363
g10
F0.9939
tp2364
a(S'greendale'
p2365
g61
F0.9672
tp2366
a(S'mall'
p2367
g3
F0.952
tp2368
asI288
(lp2369
(S'xxx'
p2370
g43
F0.8437
tp2371
asI289
(lp2372
(S'xxx'
p2373
g43
F0.8437
tp2374
asI290
(lp2375
(g97
g47
F0.9897
tp2376
a(S'want'
p2377
g19
F0.9999
tp2378
a(S'to'
p2379
g6
F0.9738
tp2380
a(S'go'
p2381
g19
F0.9993
tp2382
a(S'to'
p2383
g6
F0.9984
tp2384
a(S'the'
p2385
g10
F0.9961
tp2386
a(S'auburn'
p2387
g22
F0.9446
tp2388
a(S'mall'
p2389
g3
F0.9981
tp2390
asI291
(lp2391
(S'what'
p2392
g47
F0.9784
tp2393
a(g68
g83
F0.5789
tp2394
a(S'so'
p2395
g88
F0.9227
tp2396
a(S'great'
p2397
g22
F0.9902
tp2398
a(S'about'
p2399
g6
F0.9992
tp2400
a(S'the'
p2401
g10
F0.9962
tp2402
a(S'auburn'
p2403
g22
F0.9446
tp2404
a(S'mall'
p2405
g3
F0.9981
tp2406
asI292
(lp2407
(g97
g47
F0.9811
tp2408
a(S'just'
p2409
g88
F0.999
tp2410
a(S'want'
p2411
g19
F0.9995
tp2412
a(S'to'
p2413
g6
F0.9835
tp2414
a(S'go'
p2415
g19
F0.9992
tp2416
a(S'there'
p2417
g88
F0.9713
tp2418
a(S'be'
p2419
g19
F0.9802
tp2420
a(S'cause'
p2421
g6
F0.914
tp2422
a(S'it'
p2423
g47
F0.9966
tp2424
a(g68
g19
F0.5389
tp2425
a(S'so'
p2426
g88
F0.8184
tp2427
a(S'big'
p2428
g22
F0.911
tp2429
a(S'and'
p2430
g296
F0.9982
tp2431
a(g97
g47
F0.9941
tp2432
a(S'want'
p2433
g19
F0.9999
tp2434
a(S'to'
p2435
g6
F0.9841
tp2436
a(S'go'
p2437
g19
F0.9993
tp2438
a(S'to'
p2439
g6
F0.9984
tp2440
a(S'the'
p2441
g10
F0.9917
tp2442
a(S'uh'
p2443
g83
F0.3502
tp2444
a(S'sears'
p2445
g61
F0.8547
tp2446
a(S'and'
p2447
g296
F0.9972
tp2448
a(S'get'
p2449
g19
F0.9998
tp2450
a(S'me'
p2451
g47
F0.9993
tp2452
a(S'and'
p2453
g296
F0.9951
tp2454
a(S'child'
p2455
g3
F0.7797
tp2456
a(g68
g83
F0.7342
tp2457
a(S'name'
p2458
g3
F0.9796
tp2459
a(S'picture'
p2460
g3
F0.9569
tp2461
a(S'done'
p2462
g19
F0.9722
tp2463
a(S'again'
p2464
g88
F0.9798
tp2465
asI293
(lp2466
(S'xxx'
p2467
g43
F0.8437
tp2468
asI294
(lp2469
(S'yep'
p2470
g36
F0.9977
tp2471
asI295
(lp2472
(S'alright'
p2473
g36
F0.9864
tp2474
asI296
(lp2475
(S'um'
p2476
g36
F0.9106
tp2477
a(S'and'
p2478
g296
F0.9988
tp2479
a(g97
g47
F0.9938
tp2480
a(S'want'
p2481
g19
F0.9999
tp2482
a(S'to'
p2483
g6
F0.9841
tp2484
a(S'go'
p2485
g19
F0.9993
tp2486
a(S'to'
p2487
g6
F0.9984
tp2488
a(S'the'
p2489
g10
F0.9981
tp2490
a(S'pet'
p2491
g3
F0.9177
tp2492
a(S'shop'
p2493
g3
F0.9937
tp2494
asI297
(lp2495
(S'then'
p2496
g88
F0.9559
tp2497
a(S'that'
p2498
g6
F0.4791
tp2499
a(g68
g83
F0.5714
tp2500
a(S'why'
p2501
g88
F0.9592
tp2502
a(S'you'
p2503
g47
F0.9996
tp2504
a(S'want'
p2505
g19
F0.9997
tp2506
a(S'to'
p2507
g6
F0.9841
tp2508
a(S'go'
p2509
g19
F0.9991
tp2510
a(S'to'
p2511
g6
F0.9639
tp2512
a(S'auburn'
p2513
g22
F0.6877
tp2514
asI298
(lp2515
(g97
g47
F0.9886
tp2516
a(S'used'
p2517
g19
F0.9913
tp2518
a(S'to'
p2519
g6
F0.9605
tp2520
a(S'go'
p2521
g19
F0.9993
tp2522
a(S'to'
p2523
g6
F0.9984
tp2524
a(S'the'
p2525
g10
F0.9977
tp2526
a(S'pet'
p2527
g3
F0.8466
tp2528
a(S'shop'
p2529
g3
F0.9966
tp2530
asI299
(lp2531
(S'xxx'
p2532
g43
F0.8437
tp2533
asI300
(lp2534
(S'hey'
p2535
g36
F0.9912
tp2536
a(S'you'
p2537
g47
F0.9993
tp2538
a(S'want'
p2539
g19
F0.9997
tp2540
a(S'to'
p2541
g6
F0.9835
tp2542
a(S'go'
p2543
g19
F0.9999
tp2544
a(S'you'
p2545
g47
F0.9995
tp2546
a(S'want'
p2547
g19
F0.9997
tp2548
a(S'to'
p2549
g6
F0.9841
tp2550
a(S'go'
p2551
g19
F0.9993
tp2552
a(S'to'
p2553
g6
F0.9984
tp2554
a(S'the'
p2555
g10
F0.9985
tp2556
a(S'pet'
p2557
g3
F0.8992
tp2558
a(S'shop'
p2559
g3
F0.9967
tp2560
asI301
(lp2561
(S'they'
p2562
g47
F0.9893
tp2563
a(S'going'
p2564
g19
F0.9988
tp2565
a(S'xxx'
p2566
g43
F0.6335
tp2567
asI302
(lp2568
(S'that'
p2569
g47
F0.473
tp2570
a(g68
g83
F0.4404
tp2571
a(S'what'
p2572
g47
F0.9623
tp2573
a(g97
g47
F0.9927
tp2574
a(S'should'
p2575
g19
F0.9999
tp2576
a(S'do'
p2577
g19
F0.9994
tp2578
asI303
(lp2579
(S'they'
p2580
g47
F0.9909
tp2581
a(S'probably'
p2582
g88
F0.9993
tp2583
a(S'have'
p2584
g19
F0.999
tp2585
a(g9
g10
F0.9963
tp2586
a(S'pet'
p2587
g3
F0.8355
tp2588
a(S'shop'
p2589
g3
F0.9984
tp2590
a(S'at'
p2591
g6
F0.9997
tp2592
a(S'greenville'
p2593
g61
F0.9884
tp2594
a(S'huh'
p2595
g36
F0.9805
tp2596
asI304
(lp2597
(S'that'
p2598
g47
F0.473
tp2599
a(g68
g83
F0.4404
tp2600
a(S'what'
p2601
g47
F0.9623
tp2602
a(g97
g47
F0.9927
tp2603
a(S'should'
p2604
g19
F0.9999
tp2605
a(S'do'
p2606
g19
F0.9994
tp2607
asI305
(lp2608
(g97
g47
F0.986
tp2609
a(S'should'
p2610
g19
F0.9998
tp2611
a(S'take'
p2612
g19
F0.9998
tp2613
a(S'these'
p2614
g10
F0.9931
tp2615
a(S'kids'
p2616
g3
F0.9951
tp2617
a(S'to'
p2618
g6
F0.9996
tp2619
a(S'the'
p2620
g10
F0.9976
tp2621
a(S'auburn'
p2622
g22
F0.936
tp2623
a(S'mall'
p2624
g3
F0.9985
tp2625
asI306
(lp2626
(S'get'
p2627
g19
F0.9936
tp2628
a(S'on'
p2629
g6
F0.9584
tp2630
a(S'the'
p2631
g10
F0.9992
tp2632
a(S'bus'
p2633
g3
F0.98
tp2634
a(S'go'
p2635
g19
F0.9977
tp2636
a(S'out'
p2637
g6
F0.4769
tp2638
a(S'there'
p2639
g88
F0.7122
tp2640
asI307
(lp2641
(S'go'
p2642
g19
F0.9861
tp2643
a(S'to'
p2644
g6
F0.9987
tp2645
a(S'the'
p2646
g10
F0.9982
tp2647
a(S'pet'
p2648
g3
F0.8723
tp2649
a(S'shop'
p2650
g3
F0.997
tp2651
a(S'and'
p2652
g296
F0.9966
tp2653
a(S'buy'
p2654
g19
F0.9888
tp2655
a(S'some'
p2656
g10
F0.9904
tp2657
a(S'fish'
p2658
g3
F0.9954
tp2659
asI308
(lp2660
(S'laughs'
p2661
g19
F0.9102
tp2662
asI309
(lp2663
(S'xxx'
p2664
g43
F0.8437
tp2665
asI310
(lp2666
(S'xxx'
p2667
g43
F0.6849
tp2668
a(S'buy'
p2669
g19
F0.9884
tp2670
a(g9
g10
F0.9978
tp2671
a(S'rabbit'
p2672
g3
F0.9968
tp2673
a(S'or'
p2674
g296
F0.9952
tp2675
a(g9
g10
F0.9842
tp2676
a(S'hampster'
p2677
g3
F0.8704
tp2678
a(S'd'
p2679
g83
F0.4852
tp2680
asI311
(lp2681
(S'no'
p2682
g36
F0.6674
tp2683
a(S'no'
p2684
g36
F0.4752
tp2685
a(S'no'
p2686
g10
F0.3303
tp2687
a(S'forget'
p2688
g19
F0.8063
tp2689
a(S'rabbits'
p2690
g3
F0.966
tp2691
a(S'forget'
p2692
g19
F0.9977
tp2693
a(S'hampsters'
p2694
g61
F0.4957
tp2695
a(g2679
g61
F0.454
tp2696
a(S'not'
p2697
g88
F0.9941
tp2698
a(S'in'
p2699
g6
F0.996
tp2700
a(S'my'
p2701
g10
F0.9976
tp2702
a(S'house'
p2703
g3
F0.9948
tp2704
asI312
(lp2705
(S'anything'
p2706
g3
F0.9515
tp2707
a(S'that'
p2708
g6
F0.8959
tp2709
a(g68
g83
F0.4108
tp2710
a(S'small'
p2711
g22
F0.9866
tp2712
a(S'or'
p2713
g296
F0.9852
tp2714
a(S'that'
p2715
g47
F0.6354
tp2716
a(g68
g19
F0.3462
tp2717
a(S'caged'
p2718
g22
F0.6984
tp2719
asI313
(lp2720
(S'fishies'
p2721
g3
F0.4695
tp2722
a(S'sound'
p2723
g19
F0.9118
tp2724
a(S'good'
p2725
g22
F0.9929
tp2726
asI314
(lp2727
(S'do'
p2728
g19
F0.9985
tp2729
a(S'you'
p2730
g47
F0.9996
tp2731
a(S'want'
p2732
g19
F0.9999
tp2733
a(g9
g10
F0.9934
tp2734
a(S'fishy'
p2735
g22
F0.8787
tp2736
a(S'chi'
p2737
g3
F0.4546
tp2738
asI315
(lp2739
(S'bro'
p2740
g3
F0.7862
tp2741
asI316
(lp2742
(S'no'
p2743
g36
F0.9253
tp2744
asI317
(lp2745
(S'ah'
p2746
g36
F0.8984
tp2747
a(S'you'
p2748
g47
F0.9977
tp2749
a(S'would'
p2750
g19
F0.9996
tp2751
a(S'say'
p2752
g19
F0.9997
tp2753
a(S'no'
p2754
g36
F0.7503
tp2755
asI318
(lp2756
(S'hey'
p2757
g36
F0.9843
tp2758
a(S'bro'
p2759
g3
F0.8088
tp2760
a(S'you'
p2761
g47
F0.9972
tp2762
a(S'want'
p2763
g19
F0.9999
tp2764
a(g9
g10
F0.9939
tp2765
a(S'fishy'
p2766
g22
F0.8754
tp2767
asI319
(lp2768
(S'yeah'
p2769
g36
F0.998
tp2770
a(S'huh'
p2771
g36
F0.995
tp2772
asI320
(lp2773
(S'you'
p2774
g47
F0.9778
tp2775
a(g2679
g19
F0.5644
tp2776
a(S'try'
p2777
g19
F0.998
tp2778
a(S'you'
p2779
g47
F0.9965
tp2780
a(g2679
g19
F0.5531
tp2781
a(S'try'
p2782
g19
F0.983
tp2783
a(S'to'
p2784
g6
F0.9906
tp2785
a(S'catch'
p2786
g19
F0.9997
tp2787
a(S'it'
p2788
g47
F0.9859
tp2789
a(S'from'
p2790
g6
F0.9994
tp2791
a(S'the'
p2792
g10
F0.9984
tp2793
a(S'bowl'
p2794
g3
F0.9985
tp2795
asI321
(lp2796
(S'laughs'
p2797
g19
F0.9102
tp2798
asI322
(lp2799
(S'can'
p2800
g19
F0.999
tp2801
a(S'you'
p2802
g47
F0.9989
tp2803
a(S'see'
p2804
g19
F0.9998
tp2805
a(S'it'
p2806
g47
F0.9223
tp2807
asI323
(lp2808
(S'mom'
p2809
g3
F0.8454
tp2810
a(S'and'
p2811
g296
F0.9988
tp2812
a(g97
g47
F0.9852
tp2813
a(g483
g19
F0.9616
tp2814
a(S'gonna'
p2815
g19
F0.9946
tp2816
a(S'take'
p2817
g19
F0.9999
tp2818
a(S'it'
p2819
g47
F0.9409
tp2820
a(S'out'
p2821
g369
F0.8645
tp2822
a(S'and'
p2823
g296
F0.9948
tp2824
a(S'eat'
p2825
g19
F0.999
tp2826
a(S'it'
p2827
g47
F0.9903
tp2828
asI324
(lp2829
(S'no'
p2830
g36
F0.7985
tp2831
a(S'you'
p2832
g47
F0.978
tp2833
a(S're'
p2834
g19
F0.6994
tp2835
a(S'not'
p2836
g88
F0.9941
tp2837
asI325
(lp2838
(S'why'
p2839
g88
F0.9375
tp2840
a(S'don'
p2841
g3
F0.2525
tp2842
a(g342
g19
F0.5898
tp2843
a(S'you'
p2844
g47
F0.997
tp2845
a(S'why'
p2846
g88
F0.9907
tp2847
a(S'don'
p2848
g3
F0.2697
tp2849
a(g342
g19
F0.5371
tp2850
a(S'you'
p2851
g47
F0.9975
tp2852
a(S'why'
p2853
g88
F0.9907
tp2854
a(S'don'
p2855
g3
F0.2697
tp2856
a(g342
g19
F0.5371
tp2857
a(S'you'
p2858
g47
F0.9993
tp2859
a(S'eat'
p2860
g19
F0.9997
tp2861
a(S'your'
p2862
g10
F0.9936
tp2863
a(S'pizza'
p2864
g3
F0.9974
tp2865
asI326
(lp2866
(S'last'
p2867
g22
F0.965
tp2868
a(S'christmas'
p2869
g3
F0.6199
tp2870
asI327
(lp2871
(S'no'
p2872
g36
F0.9253
tp2873
asI328
(lp2874
(S'that'
p2875
g47
F0.473
tp2876
a(g68
g83
F0.7496
tp2877
a(S'jessica'
p2878
g61
F0.9906
tp2879
a(g68
g83
F0.7398
tp2880
asI329
(lp2881
(S'get'
p2882
g19
F0.9991
tp2883
a(S'up'
p2884
g369
F0.9485
tp2885
a(S'there'
p2886
g88
F0.9397
tp2887
a(S'and'
p2888
g296
F0.9963
tp2889
a(S'eat'
p2890
g19
F0.9988
tp2891
a(S'your'
p2892
g10
F0.992
tp2893
a(S'pizza'
p2894
g3
F0.9964
tp2895
asI330
(lp2896
(S'mine'
p2897
g47
F0.9042
tp2898
asI331
(lp2899
(S'once'
p2900
g88
F0.9522
tp2901
a(g97
g47
F0.9557
tp2902
a(S'w'
p2903
g6
F0.6036
tp2904
a(S'when'
p2905
g88
F0.9693
tp2906
a(g97
g47
F0.9938
tp2907
a(S'was'
p2908
g19
F0.9996
tp2909
a(S'friends'
p2910
g3
F0.8896
tp2911
a(S'with'
p2912
g6
F0.9997
tp2913
a(S'that'
p2914
g10
F0.9492
tp2915
a(S'girl'
p2916
g3
F0.9867
tp2917
a(S'darlene'
p2918
g61
F0.8032
tp2919
asI332
(lp2920
(S'mhm'
p2921
g36
F0.9747
tp2922
asI333
(lp2923
(g97
g47
F0.9896
tp2924
a(S'had'
p2925
g19
F0.9998
tp2926
a(S'brought'
p2927
g19
F0.9967
tp2928
a(S'her'
p2929
g10
F0.9467
tp2930
a(S'daughter'
p2931
g3
F0.9991
tp2932
a(g9
g10
F0.9852
tp2933
a(S'whole'
p2934
g22
F0.9881
tp2935
a(S'bunch'
p2936
g3
F0.9964
tp2937
a(S'of'
p2938
g6
F0.9951
tp2939
a(S'little'
p2940
g22
F0.9825
tp2941
a(S'fish'
p2942
g3
F0.9971
tp2943
a(S'for'
p2944
g6
F0.9996
tp2945
a(S'christmas'
p2946
g61
F0.9703
tp2947
a(S'for'
p2948
g6
F0.9987
tp2949
a(S'two'
p2950
g16
F0.97
tp2951
a(S'bucks'
p2952
g3
F0.927
tp2953
a(S'and'
p2954
g296
F0.9978
tp2955
a(S'they'
p2956
g47
F0.9868
tp2957
a(S'all'
p2958
g10
F0.502
tp2959
a(S'died'
p2960
g19
F0.9215
tp2961
a(S'within'
p2962
g6
F0.9944
tp2963
a(g9
g10
F0.9986
tp2964
a(S'week'
p2965
g3
F0.997
tp2966
asI334
(lp2967
(S'mom'
p2968
g3
F0.7188
tp2969
asI335
(lp2970
(S'did'
p2971
g19
F0.9923
tp2972
a(S'she'
p2973
g47
F0.981
tp2974
a(S'feed'
p2975
g19
F0.9751
tp2976
a(S'th'
p2977
g83
F0.3145
tp2978
a(S'em'
p2979
g47
F0.9041
tp2980
asI336
(lp2981
(S'laughs'
p2982
g19
F0.9102
tp2983
asI337
(lp2984
(g97
g47
F0.9635
tp2985
a(S'don'
p2986
g19
F0.9231
tp2987
a(g342
g3
F0.2457
tp2988
a(S'know'
p2989
g19
F0.9624
tp2990
a(g97
g47
F0.9877
tp2991
a(S'don'
p2992
g19
F0.9198
tp2993
a(g342
g3
F0.2762
tp2994
a(S'understand'
p2995
g19
F0.9869
tp2996
a(S'how'
p2997
g88
F0.9805
tp2998
a(S'they'
p2999
g47
F0.9891
tp3000
a(S'all'
p3001
g10
F0.5425
tp3002
a(S'died'
p3003
g19
F0.7916
tp3004
asI338
(lp3005
(S'she'
p3006
g47
F0.9926
tp3007
a(S'didn'
p3008
g19
F0.9724
tp3009
a(g342
g19
F0.7994
tp3010
a(S'take'
p3011
g19
F0.9793
tp3012
a(S'care'
p3013
g3
F0.8957
tp3014
a(S'of'
p3015
g6
F0.9973
tp3016
a(S'th'
p3017
g83
F0.2488
tp3018
a(S'em'
p3019
g47
F0.9224
tp3020
asI339
(lp3021
(S'cries'
p3022
g19
F0.6365
tp3023
asI340
(lp3024
(S'what'
p3025
g47
F0.9784
tp3026
a(g68
g83
F0.5951
tp3027
a(S'the'
p3028
g10
F0.9986
tp3029
a(S'matter'
p3030
g3
F0.9936
tp3031
a(S'now'
p3032
g88
F0.996
tp3033
asI341
(lp3034
(S'sigh'
p3035
g19
F0.6897
tp3036
asI342
(lp3037
(S'what'
p3038
g47
F0.949
tp3039
asI343
(lp3040
(S'that'
p3041
g47
F0.7297
tp3042
a(S'must'
p3043
g19
F0.9952
tp3044
a(S'be'
p3045
g19
F0.9999
tp3046
a(S'it'
p3047
g47
F0.9869
tp3048
asI344
(lp3049
(g15
g16
F0.9821
tp3050
a(S'gutteral'
p3051
g3
F0.7208
tp3052
a(S'grunt'
p3053
g19
F0.5003
tp3054
asI345
(lp3055
(g15
g16
F0.9859
tp3056
a(S'small'
p3057
g22
F0.9853
tp3058
a(S'sound'
p3059
g3
F0.843
tp3060
a(S'of'
p3061
g6
F0.9977
tp3062
a(S'disgust'
p3063
g3
F0.8681
tp3064
asI346
(lp3065
(S'yells'
p3066
g19
F0.6086
tp3067
asI347
(lp3068
(S'they'
p3069
g47
F0.9104
tp3070
a(S're'
p3071
g19
F0.768
tp3072
a(S'supposed'
p3073
g22
F0.7967
tp3074
a(S'to'
p3075
g6
F0.9979
tp3076
a(S'be'
p3077
g19
F0.9991
tp3078
a(S'twenty'
p3079
g16
F0.7367
tp3080
a(S'for'
p3081
g6
F0.9989
tp3082
a(S'two'
p3083
g16
F0.9741
tp3084
a(S'dollars'
p3085
g3
F0.9879
tp3086
a(S'but'
p3087
g296
F0.9847
tp3088
a(S'they'
p3089
g47
F0.9929
tp3090
a(S'just'
p3091
g88
F0.9985
tp3092
a(S'scoop'
p3093
g19
F0.7755
tp3094
a(S'out'
p3095
g369
F0.6671
tp3096
a(g9
g10
F0.9968
tp3097
a(S'whole'
p3098
g22
F0.9881
tp3099
a(S'bunch'
p3100
g3
F0.9964
tp3101
a(S'of'
p3102
g6
F0.9987
tp3103
a(S'them'
p3104
g47
F0.9827
tp3105
a(S'and'
p3106
g296
F0.9962
tp3107
a(S'probably'
p3108
g88
F0.9991
tp3109
a(S'xxx'
p3110
g43
F0.6998
tp3111
asI348
(lp3112
(S'xxx'
p3113
g43
F0.8325
tp3114
a(S'xxx'
p3115
g43
F0.9813
tp3116
asI349
(lp3117
(S'they'
p3118
g47
F0.9866
tp3119
a(S'were'
p3120
g19
F0.9978
tp3121
a(S'polliwogs'
p3122
g3
F0.2872
tp3123
a(S'wp'
p3124
g3
F0.7045
tp3125
asI350
(lp3126
(S'no'
p3127
g36
F0.787
tp3128
a(S'not'
p3129
g88
F0.981
tp3130
a(S'polliwogs'
p3131
g19
F0.2802
tp3132
a(S'wp'
p3133
g3
F0.3687
tp3134
asI351
(lp3135
(S'mom'
p3136
g3
F0.7188
tp3137
asI352
(lp3138
(S'then'
p3139
g88
F0.9413
tp3140
a(S'what'
p3141
g47
F0.9948
tp3142
a(S'are'
p3143
g19
F0.9962
tp3144
a(S'they'
p3145
g47
F0.9927
tp3146
asI353
(lp3147
(S'over'
p3148
g6
F0.8457
tp3149
a(S'there'
p3150
g88
F0.5216
tp3151
asI354
(lp3152
(g97
g47
F0.9635
tp3153
a(S'don'
p3154
g19
F0.9231
tp3155
a(g342
g3
F0.2457
tp3156
a(S'know'
p3157
g19
F0.9915
tp3158
a(S'what'
p3159
g47
F0.9851
tp3160
a(g97
g47
F0.9945
tp3161
a(S'forget'
p3162
g19
F0.9997
tp3163
a(S'what'
p3164
g47
F0.9869
tp3165
a(S'they'
p3166
g47
F0.994
tp3167
a(S'are'
p3168
g19
F0.9993
tp3169
asI355
(lp3170
(S'xxx'
p3171
g43
F0.8437
tp3172
asI356
(lp3173
(S'but'
p3174
g296
F0.9946
tp3175
a(S'they'
p3176
g47
F0.966
tp3177
a(S're'
p3178
g19
F0.6532
tp3179
a(S'only'
p3180
g88
F0.9593
tp3181
a(S'like'
p3182
g6
F0.6007
tp3183
a(S'this'
p3184
g10
F0.8239
tp3185
a(S'big'
p3186
g22
F0.9367
tp3187
asI357
(lp3188
(S'mhm'
p3189
g36
F0.9747
tp3190
asI358
(lp3191
(g97
g47
F0.9728
tp3192
a(S'dunno'
p3193
g19
F0.7665
tp3194
a(S'don'
p3195
g61
F0.3637
tp3196
a(g342
g61
F0.6482
tp3197
a(S'know'
p3198
g19
F0.9719
tp3199
a(S'what'
p3200
g47
F0.9851
tp3201
a(S'they'
p3202
g47
F0.9924
tp3203
a(S'are'
p3204
g19
F0.999
tp3205
asI359
(lp3206
(S'chi'
p3207
g61
F0.6114
tp3208
a(S'get'
p3209
g19
F0.9994
tp3210
a(S'up'
p3211
g369
F0.9713
tp3212
a(S'here'
p3213
g88
F0.9935
tp3214
a(S'and'
p3215
g296
F0.9967
tp3216
a(S'finish'
p3217
g19
F0.9783
tp3218
a(S'eatin'
p3219
g19
F0.6292
tp3220
a(g1049
g83
F0.343
tp3221
asI360
(lp3222
(g97
g47
F0.9914
tp3223
a(S'was'
p3224
g19
F0.9998
tp3225
a(S'showing'
p3226
g19
F0.9978
tp3227
a(S'her'
p3228
g47
F0.7181
tp3229
a(S'where'
p3230
g88
F0.9728
tp3231
a(S'the'
p3232
g10
F0.9982
tp3233
a(S'garbage'
p3234
g3
F0.9915
tp3235
a(S'was'
p3236
g19
F0.9872
tp3237
asI361
(lp3238
(S'alright'
p3239
g36
F0.9174
tp3240
a(S'just'
p3241
g88
F0.9981
tp3242
a(S'get'
p3243
g19
F0.9999
tp3244
a(S'up'
p3245
g369
F0.958
tp3246
a(S'here'
p3247
g88
F0.9931
tp3248
a(S'and'
p3249
g296
F0.9967
tp3250
a(S'finish'
p3251
g19
F0.9803
tp3252
a(S'eatin'
p3253
g19
F0.6501
tp3254
a(g1049
g3
F0.4136
tp3255
a(S'please'
p3256
g19
F0.9864
tp3257
asI362
(lp3258
(S'oh'
p3259
g36
F0.9951
tp3260
a(S'she'
p3261
g47
F0.9978
tp3262
a(S'loves'
p3263
g19
F0.9983
tp3264
a(S'fish'
p3265
g3
F0.9885
tp3266
a(S'so'
p3267
g6
F0.8031
tp3268
a(g97
g47
F0.9948
tp3269
a(S'thought'
p3270
g19
F0.9979
tp3271
a(S'oh'
p3272
g36
F0.9853
tp3273
a(S'wow'
p3274
g36
F0.9989
tp3275
asI363
(lp3276
(g15
g16
F0.988
tp3277
a(S'high'
p3278
g22
F0.5118
tp3279
a(S'pitched'
p3280
g22
F0.63
tp3281
a(S'sound'
p3282
g3
F0.5453
tp3283
asI364
(lp3284
(S'xxx'
p3285
g43
F0.7728
tp3286
a(g97
g47
F0.9703
tp3287
a(S'll'
p3288
g19
F0.6751
tp3289
a(S'get'
p3290
g19
F0.9998
tp3291
a(S'her'
p3292
g10
F0.493
tp3293
a(S'some'
p3294
g10
F0.8994
tp3295
a(S'fish'
p3296
g3
F0.9917
tp3297
asI365
(lp3298
(S'laughs'
p3299
g19
F0.9102
tp3300
asI366
(lp3301
(S'laughs'
p3302
g19
F0.9102
tp3303
asI367
(lp3304
(S'tee'
p3305
g3
F0.8646
tp3306
a(S'hee'
p3307
g36
F0.9688
tp3308
asI368
(lp3309
(S'well'
p3310
g36
F0.8954
tp3311
a(S'she'
p3312
g47
F0.9993
tp3313
a(S'liked'
p3314
g19
F0.9983
tp3315
a(S'th'
p3316
g83
F0.2429
tp3317
a(S'em'
p3318
g47
F0.9041
tp3319
asI369
(lp3320
(S'so'
p3321
g88
F0.6146
tp3322
a(S'actually'
p3323
g88
F0.9985
tp3324
a(S'that'
p3325
g6
F0.5408
tp3326
a(g68
g19
F0.577
tp3327
a(S'all'
p3328
g378
F0.431
tp3329
a(S'that'
p3330
g10
F0.7508
tp3331
a(S'counts'
p3332
g3
F0.7667
tp3333
asI370
(lp3334
(g97
g47
F0.9897
tp3335
a(S'mean'
p3336
g19
F0.9814
tp3337
a(g97
g47
F0.9949
tp3338
a(S'could'
p3339
g19
F0.9997
tp3340
a(S'go'
p3341
g19
F0.9921
tp3342
a(S'get'
p3343
g19
F0.9977
tp3344
a(S'her'
p3345
g47
F0.6192
tp3346
a(S'something'
p3347
g3
F0.9876
tp3348
a(S'that'
p3349
g6
F0.982
tp3350
a(S'she'
p3351
g47
F0.9976
tp3352
a(S'wouldn'
p3353
g19
F0.9441
tp3354
a(g342
g19
F0.7814
tp3355
a(S'enjoy'
p3356
g19
F0.9587
tp3357
asI371
(lp3358
(S'jessie'
p3359
g61
F0.996
tp3360
a(S'where'
p3361
g88
F0.9687
tp3362
a(g68
g83
F0.7024
tp3363
a(S'my'
p3364
g10
F0.9363
tp3365
a(S'jessie'
p3366
g61
F0.9939
tp3367
a(S'jessie'
p3368
g61
F0.9996
tp3369
a(S'baby'
p3370
g3
F0.9406
tp3371
asI372
(lp3372
(S'xxx'
p3373
g43
F0.8437
tp3374
asI373
(lp3375
(S'you'
p3376
g47
F0.998
tp3377
a(S'want'
p3378
g19
F0.9999
tp3379
a(S'some'
p3380
g10
F0.9422
tp3381
a(S'more'
p3382
g22
F0.9795
tp3383
a(S'pizza'
p3384
g3
F0.9947
tp3385
asI374
(lp3386
(S'no'
p3387
g36
F0.9253
tp3388
asI375
(lp3389
(S'singing'
p3390
g19
F0.9945
tp3391
asI376
(lp3392
(S'mom'
p3393
g3
F0.8909
tp3394
a(g97
g47
F0.9508
tp3395
a(S'want'
p3396
g19
F0.9999
tp3397
a(S'to'
p3398
g6
F0.9957
tp3399
a(S'save'
p3400
g19
F0.9998
tp3401
a(S'this'
p3402
g47
F0.5975
tp3403
asI377
(lp3404
(S'mom'
p3405
g3
F0.7188
tp3406
asI378
(lp3407
(S'what'
p3408
g47
F0.9501
tp3409
a(S'what'
p3410
g47
F0.9939
tp3411
a(S'what'
p3412
g47
F0.995
tp3413
asI379
(lp3414
(S'mom'
p3415
g3
F0.7188
tp3416
asI380
(lp3417
(g97
g47
F0.9635
tp3418
a(S'don'
p3419
g19
F0.9231
tp3420
a(g342
g3
F0.2457
tp3421
a(S'know'
p3422
g19
F0.99
tp3423
a(S'where'
p3424
g88
F0.9718
tp3425
a(S'it'
p3426
g47
F0.9968
tp3427
a(S'went'
p3428
g19
F0.99
tp3429
asI381
(lp3430
(S'mom'
p3431
g3
F0.9407
tp3432
a(S'is'
p3433
g19
F0.9964
tp3434
a(S'is'
p3435
g19
F0.9816
tp3436
a(S'xxx'
p3437
g43
F0.7968
tp3438
asI382
(lp3439
(S'no'
p3440
g36
F0.7985
tp3441
a(S'you'
p3442
g47
F0.9776
tp3443
a(S're'
p3444
g19
F0.7591
tp3445
a(S'not'
p3446
g88
F0.9967
tp3447
a(S'saving'
p3448
g19
F0.9995
tp3449
a(S'that'
p3450
g6
F0.3816
tp3451
a(S'chi'
p3452
g19
F0.289
tp3453
a(S'you'
p3454
g47
F0.9958
tp3455
a(S're'
p3456
g19
F0.5665
tp3457
a(S'gonna'
p3458
g19
F0.9922
tp3459
a(S'sit'
p3460
g19
F0.9988
tp3461
a(S'there'
p3462
g88
F0.9416
tp3463
a(S'and'
p3464
g296
F0.9975
tp3465
a(S'you'
p3466
g47
F0.9966
tp3467
a(S're'
p3468
g19
F0.5665
tp3469
a(S'gonna'
p3470
g19
F0.9922
tp3471
a(S'eat'
p3472
g19
F0.9997
tp3473
a(S'it'
p3474
g47
F0.9895
tp3475
asI383
(lp3476
(g97
g47
F0.9897
tp3477
a(S'want'
p3478
g19
F0.9999
tp3479
a(S'to'
p3480
g6
F0.9929
tp3481
a(S'save'
p3482
g19
F0.9996
tp3483
a(S'the'
p3484
g10
F0.9996
tp3485
a(S'soda'
p3486
g3
F0.9797
tp3487
asI384
(lp3488
(S'oh'
p3489
g36
F0.9975
tp3490
a(S'yeah'
p3491
g36
F0.9981
tp3492
a(S'fine'
p3493
g22
F0.9078
tp3494
a(S'save'
p3495
g19
F0.8481
tp3496
a(S'the'
p3497
g10
F0.9996
tp3498
a(S'soda'
p3499
g3
F0.9682
tp3500
a(S'but'
p3501
g296
F0.9716
tp3502
a(S'you'
p3503
g47
F0.9994
tp3504
a(S'eat'
p3505
g19
F0.9994
tp3506
a(S'the'
p3507
g10
F0.9996
tp3508
a(S'rest'
p3509
g3
F0.9848
tp3510
a(S'you'
p3511
g47
F0.9947
tp3512
a(S'eat'
p3513
g19
F0.9994
tp3514
a(S'the'
p3515
g10
F0.9996
tp3516
a(S'rest'
p3517
g3
F0.9979
tp3518
a(S'of'
p3519
g6
F0.9988
tp3520
a(S'your'
p3521
g10
F0.9929
tp3522
a(S'lunch'
p3523
g3
F0.9918
tp3524
asI385
(lp3525
(g97
g47
F0.953
tp3526
a(g483
g19
F0.9629
tp3527
a(S'gonna'
p3528
g19
F0.9926
tp3529
a(S'go'
p3530
g19
F0.9985
tp3531
a(S'put'
p3532
g19
F0.9628
tp3533
a(S'it'
p3534
g47
F0.9831
tp3535
a(S'in'
p3536
g6
F0.977
tp3537
a(S'the'
p3538
g10
F0.9985
tp3539
a(S'fridge'
p3540
g3
F0.9511
tp3541
a(S'um'
p3542
g36
F0.8246
tp3543
asI386
(lp3544
(S'put'
p3545
g19
F0.9914
tp3546
a(S'it'
p3547
g47
F0.9844
tp3548
a(S'in'
p3549
g6
F0.9581
tp3550
a(S'the'
p3551
g10
F0.9989
tp3552
a(S'fridge'
p3553
g3
F0.8879
tp3554
a(S'chi'
p3555
g3
F0.3319
tp3556
a(S'then'
p3557
g88
F0.9397
tp3558
a(S'get'
p3559
g19
F0.9967
tp3560
a(S'back'
p3561
g19
F0.299
tp3562
a(S'up'
p3563
g369
F0.8681
tp3564
a(S'here'
p3565
g88
F0.9931
tp3566
a(S'and'
p3567
g296
F0.9967
tp3568
a(S'finish'
p3569
g19
F0.9787
tp3570
a(S'eatin'
p3571
g19
F0.7032
tp3572
a(g1049
g83
F0.3458
tp3573
asI387
(lp3574
(S'burps'
p3575
g19
F0.4198
tp3576
asI388
(lp3577
(S'excuse'
p3578
g19
F0.9631
tp3579
a(S'me'
p3580
g47
F0.9987
tp3581
asI389
(lp3582
(S'burps'
p3583
g19
F0.4198
tp3584
asI390
(lp3585
(S'excuse'
p3586
g19
F0.964
tp3587
a(S'yourself'
p3588
g47
F0.9929
tp3589
a(S'please'
p3590
g19
F0.9867
tp3591
asI391
(lp3592
(S'chi'
p3593
g36
F0.4684
tp3594
asI392
(lp3595
(g97
g47
F0.9893
tp3596
a(S'said'
p3597
g19
F0.9992
tp3598
a(S'excuse'
p3599
g19
F0.937
tp3600
a(S'me'
p3601
g47
F0.9984
tp3602
asI393
(lp3603
(S'alright'
p3604
g36
F0.9807
tp3605
a(S'that'
p3606
g47
F0.6507
tp3607
a(g68
g19
F0.4418
tp3608
a(S'better'
p3609
g22
F0.7538
tp3610
asI394
(lp3611
(S'um'
p3612
g36
F0.9357
tp3613
a(S'xxx'
p3614
g43
F0.4857
tp3615
a(S'bad'
p3616
g22
F0.9701
tp3617
asI395
(lp3618
(S'you'
p3619
g47
F0.9983
tp3620
a(S'know'
p3621
g19
F0.9986
tp3622
a(S'what'
p3623
g47
F0.987
tp3624
a(S'it'
p3625
g47
F0.9964
tp3626
a(S'sounded'
p3627
g19
F0.9992
tp3628
a(S'like'
p3629
g6
F0.9595
tp3630
a(S'you'
p3631
g47
F0.9998
tp3632
a(S'said'
p3633
g19
F0.9956
tp3634
asI396
(lp3635
(S'no'
p3636
g36
F0.871
tp3637
a(S'what'
p3638
g47
F0.9957
tp3639
a(S'did'
p3640
g19
F0.9994
tp3641
a(S'it'
p3642
g47
F0.9845
tp3643
a(S'sound'
p3644
g19
F0.9574
tp3645
a(S'like'
p3646
g6
F0.9872
tp3647
a(S'he'
p3648
g47
F0.9993
tp3649
a(S'said'
p3650
g19
F0.998
tp3651
asI397
(lp3652
(S'screw'
p3653
g19
F0.9045
tp3654
a(S'me'
p3655
g47
F0.9993
tp3656
asI398
(lp3657
(S'laughs'
p3658
g19
F0.9102
tp3659
asI399
(lp3660
(S'laughs'
p3661
g19
F0.9102
tp3662
asI400
(lp3663
(S'cute'
p3664
g22
F0.9928
tp3665
a(S'adult'
p3666
g3
F0.9145
tp3667
a(g68
g83
F0.7964
tp3668
a(S'name'
p3669
g3
F0.9909
tp3670
asI401
(lp3671
(S'xxx'
p3672
g43
F0.8437
tp3673
asI402
(lp3674
(S'huh'
p3675
g36
F0.993
tp3676
asI403
(lp3677
(S'excuse'
p3678
g19
F0.9631
tp3679
a(S'me'
p3680
g47
F0.9987
tp3681
asI404
(lp3682
(S'you'
p3683
g47
F0.9911
tp3684
a(S'didn'
p3685
g19
F0.9886
tp3686
a(g342
g19
F0.8143
tp3687
a(S'burp'
p3688
g19
F0.4595
tp3689
a(S'did'
p3690
g19
F0.9992
tp3691
a(S'you'
p3692
g47
F0.9948
tp3693
asI405
(lp3694
(S'want'
p3695
g19
F0.9975
tp3696
a(S'some'
p3697
g10
F0.9518
tp3698
a(S'more'
p3699
g22
F0.9782
tp3700
a(S'pizza'
p3701
g3
F0.9966
tp3702
a(S'bro'
p3703
g3
F0.9839
tp3704
asI406
(lp3705
(S'well'
p3706
g36
F0.8573
tp3707
a(g97
g47
F0.9692
tp3708
a(S'haven'
p3709
g19
F0.8049
tp3710
a(g342
g83
F0.2795
tp3711
a(S'been'
p3712
g19
F0.9826
tp3713
a(S'gettin'
p3714
g19
F0.9791
tp3715
a(g1049
g19
F0.4764
tp3716
a(S'that'
p3717
g47
F0.7671
tp3718
a(S'lately'
p3719
g88
F0.9933
tp3720
a(S'so'
p3721
g6
F0.8775
tp3722
a(S'it'
p3723
g47
F0.9973
tp3724
a(g68
g19
F0.4919
tp3725
a(S'been'
p3726
g19
F0.9871
tp3727
a(S'on'
p3728
g6
F0.9702
tp3729
a(S'my'
p3730
g10
F0.9952
tp3731
a(S'mind'
p3732
g3
F0.9911
tp3733
a(S'laughs'
p3734
g19
F0.9578
tp3735
asI407
(lp3736
(S'laughs'
p3737
g19
F0.9102
tp3738
asI408
(lp3739
(g97
g47
F0.9914
tp3740
a(S'was'
p3741
g19
F0.9999
tp3742
a(S'reading'
p3743
g19
F0.9985
tp3744
a(g9
g10
F0.9982
tp3745
a(S'dirty'
p3746
g22
F0.9835
tp3747
a(S'book'
p3748
g3
F0.9674
tp3749
a(S'last'
p3750
g22
F0.992
tp3751
a(S'night'
p3752
g3
F0.9861
tp3753
a(S'when'
p3754
g88
F0.9774
tp3755
a(S'you'
p3756
g47
F0.9987
tp3757
a(S'came'
p3758
g19
F0.9974
tp3759
a(S'in'
p3760
g369
F0.511
tp3761
asI409
(lp3762
(S'laughs'
p3763
g19
F0.9102
tp3764
asI410
(lp3765
(S'xxx'
p3766
g43
F0.8437
tp3767
asI411
(lp3768
(S'it'
p3769
g47
F0.996
tp3770
a(S'has'
p3771
g19
F0.9996
tp3772
a(g9
g10
F0.9972
tp3773
a(S'story'
p3774
g3
F0.999
tp3775
a(S'to'
p3776
g6
F0.9991
tp3777
a(S'it'
p3778
g47
F0.9961
tp3779
a(S'but'
p3780
g296
F0.9714
tp3781
a(S'whenever'
p3782
g88
F0.99
tp3783
a(S'they'
p3784
g47
F0.9893
tp3785
a(S'get'
p3786
g19
F0.9998
tp3787
a(S'in'
p3788
g6
F0.9351
tp3789
a(S'bed'
p3790
g3
F0.9749
tp3791
a(S'with'
p3792
g6
F0.9998
tp3793
a(S'each'
p3794
g10
F0.9931
tp3795
a(S'other'
p3796
g22
F0.9497
tp3797
a(S'they'
p3798
g47
F0.9889
tp3799
a(S'have'
p3800
g19
F0.9985
tp3801
a(S'details'
p3802
g3
F0.9944
tp3803
a(S'very'
p3804
g88
F0.9902
tp3805
a(S'explicit'
p3806
g22
F0.9998
tp3807
a(S'details'
p3808
g3
F0.9988
tp3809
asI412
(lp3810
(S'xxx'
p3811
g43
F0.8437
tp3812
asI413
(lp3813
(S'laughs'
p3814
g19
F0.9102
tp3815
asI414
(lp3816
(S'xxx'
p3817
g43
F0.8437
tp3818
asI415
(lp3819
(S'chi'
p3820
g61
F0.6802
tp3821
a(S'come'
p3822
g19
F0.994
tp3823
a(S'on'
p3824
g6
F0.8505
tp3825
a(S'eat'
p3826
g61
F0.4408
tp3827
a(S'please'
p3828
g19
F0.9209
tp3829
asI416
(lp3830
(g15
g16
F0.982
tp3831
a(S'long'
p3832
g22
F0.9532
tp3833
a(S'monotone'
p3834
g22
F0.9038
tp3835
a(S'hum'
p3836
g3
F0.828
tp3837
asI417
(lp3838
(S'xxx'
p3839
g43
F0.8437
tp3840
asI418
(lp3841
(S'humming'
p3842
g19
F0.9303
tp3843
asI419
(lp3844
(S'bro'
p3845
g3
F0.7916
tp3846
a(S'chi'
p3847
g83
F0.2794
tp3848
a(S'can'
p3849
g19
F0.9995
tp3850
a(S'you'
p3851
g47
F0.9985
tp3852
a(S'please'
p3853
g19
F0.9978
tp3854
a(S'eat'
p3855
g19
F0.9525
tp3856
a(S'please'
p3857
g19
F0.8949
tp3858
a(S'bro'
p3859
g3
F0.9048
tp3860
asI420
(lp3861
(S'what'
p3862
g47
F0.9835
tp3863
a(S'are'
p3864
g19
F0.9976
tp3865
a(S'you'
p3866
g47
F0.9994
tp3867
a(S'doing'
p3868
g19
F0.9994
tp3869
asI421
(lp3870
(S'hey'
p3871
g36
F0.9929
tp3872
a(S'xxx'
p3873
g43
F0.7224
tp3874
a(S'hey'
p3875
g36
F0.9821
tp3876
a(S'hey'
p3877
g36
F0.9952
tp3878
a(S'hey'
p3879
g36
F0.995
tp3880
a(S'hey'
p3881
g36
F0.9954
tp3882
a(S'gimme'
p3883
g1195
F0.7889
tp3884
a(S'give'
p3885
g19
F0.9981
tp3886
a(S'me'
p3887
g47
F0.9985
tp3888
a(S'that'
p3889
g6
F0.4504
tp3890
asI422
(lp3891
(S'whaddya'
p3892
g47
F0.9582
tp3893
a(S'what'
p3894
g47
F0.9893
tp3895
a(S'are'
p3896
g19
F0.9985
tp3897
a(S'you'
p3898
g47
F0.9993
tp3899
a(S'doing'
p3900
g19
F0.9998
tp3901
asI423
(lp3902
(S'give'
p3903
g19
F0.9981
tp3904
a(S'it'
p3905
g47
F0.9915
tp3906
a(S'to'
p3907
g6
F0.9798
tp3908
a(S'me'
p3909
g47
F0.9984
tp3910
asI424
(lp3911
(S'let'
p3912
g19
F0.9968
tp3913
a(S'me'
p3914
g47
F0.9996
tp3915
a(S'see'
p3916
g19
F0.969
tp3917
asI425
(lp3918
(S'bro'
p3919
g3
F0.7862
tp3920
asI426
(lp3921
(S'laughs'
p3922
g19
F0.9102
tp3923
asI427
(lp3924
(S'give'
p3925
g19
F0.9981
tp3926
a(S'it'
p3927
g47
F0.9915
tp3928
a(S'to'
p3929
g6
F0.9798
tp3930
a(S'me'
p3931
g47
F0.9984
tp3932
asI428
(lp3933
(S'hey'
p3934
g36
F0.9986
tp3935
asI429
(lp3936
(S'give'
p3937
g19
F0.9981
tp3938
a(S'it'
p3939
g47
F0.9915
tp3940
a(S'to'
p3941
g6
F0.9798
tp3942
a(S'me'
p3943
g47
F0.9984
tp3944
asI430
(lp3945
(S'xxx'
p3946
g43
F0.8437
tp3947
asI431
(lp3948
(S'adult'
p3949
g3
F0.7236
tp3950
a(g68
g83
F0.7559
tp3951
a(S'name'
p3952
g3
F0.9778
tp3953
a(S'where'
p3954
g88
F0.9847
tp3955
a(g68
g83
F0.6821
tp3956
a(S'the'
p3957
g10
F0.9945
tp3958
a(S'ash'
p3959
g61
F0.9781
tp3960
a(S'tray'
p3961
g3
F0.943
tp3962
asI432
(lp3963
(S'xxx'
p3964
g43
F0.8437
tp3965
asI433
(lp3966
(S'way'
p3967
g3
F0.7232
tp3968
a(S'over'
p3969
g6
F0.9669
tp3970
a(S'there'
p3971
g88
F0.568
tp3972
asI434
(lp3973
(S'xxx'
p3974
g43
F0.8437
tp3975
asI435
(lp3976
(S'could'
p3977
g19
F0.9986
tp3978
a(S'you'
p3979
g47
F0.9988
tp3980
a(S'not'
p3981
g88
F0.9979
tp3982
a(S'call'
p3983
g19
F0.9918
tp3984
a(S'me'
p3985
g47
F0.9639
tp3986
a(S'bill'
p3987
g3
F0.8498
tp3988
asI436
(lp3989
(S'xxx'
p3990
g43
F0.8437
tp3991
asI437
(lp3992
(S'xxx'
p3993
g43
F0.8437
tp3994
asI438
(lp3995
(S'um'
p3996
g36
F0.949
tp3997
a(S'chi'
p3998
g61
F0.4426
tp3999
a(S'chi'
p4000
g61
F0.8466
tp4001
asI439
(lp4002
(S'what'
p4003
g47
F0.949
tp4004
asI440
(lp4005
(S'can'
p4006
g19
F0.999
tp4007
a(S'you'
p4008
g47
F0.9987
tp4009
a(S'please'
p4010
g19
F0.9984
tp4011
a(S'eat'
p4012
g19
F0.9604
tp4013
asI441
(lp4014
(g97
g47
F0.9899
tp4015
a(S'said'
p4016
g19
F0.9978
tp4017
a(S'please'
p4018
g19
F0.8743
tp4019
asI442
(lp4020
(S'no'
p4021
g36
F0.9253
tp4022
asI443
(lp4023
(S'yes'
p4024
g36
F0.9958
tp4025
asI444
(lp4026
(g97
g47
F0.989
tp4027
a(S'think'
p4028
g19
F1.0
tp4029
a(S'you'
p4030
g47
F0.9994
tp4031
a(S'should'
p4032
g19
F0.9991
tp4033
a(S'really'
p4034
g88
F0.9963
tp4035
asI445
(lp4036
(S'you'
p4037
g47
F0.998
tp4038
a(S'want'
p4039
g19
F0.9997
tp4040
a(S'to'
p4041
g6
F0.9855
tp4042
a(S'be'
p4043
g19
F0.9994
tp4044
a(S'skinny'
p4045
g22
F0.9937
tp4046
a(S'all'
p4047
g10
F0.5167
tp4048
a(S'your'
p4049
g10
F0.9933
tp4050
a(S'life'
p4051
g3
F0.9988
tp4052
asI446
(lp4053
(S'no'
p4054
g36
F0.9253
tp4055
asI447
(lp4056
(S'you'
p4057
g47
F0.9754
tp4058
a(S're'
p4059
g19
F0.8649
tp4060
a(S'nothin'
p4061
g3
F0.9575
tp4062
a(g1049
g83
F0.2739
tp4063
a(S'but'
p4064
g296
F0.9967
tp4065
a(g9
g10
F0.9957
tp4066
a(S'little'
p4067
g22
F0.997
tp4068
a(S'stack'
p4069
g3
F0.9992
tp4070
a(S'of'
p4071
g6
F0.995
tp4072
a(S'bones'
p4073
g3
F0.9419
tp4074
asI448
(lp4075
(S'then'
p4076
g88
F0.9709
tp4077
a(S'eat'
p4078
g19
F0.9095
tp4079
a(S'and'
p4080
g296
F0.9949
tp4081
a(S'maybe'
p4082
g88
F0.9809
tp4083
a(S'you'
p4084
g47
F0.9991
tp4085
a(S'll'
p4086
g19
F0.7242
tp4087
a(S'gain'
p4088
g19
F0.9962
tp4089
a(S'some'
p4090
g10
F0.9906
tp4091
a(S'weight'
p4092
g3
F0.9941
tp4093
a(S'xxx'
p4094
g43
F0.7794
tp4095
asI449
(lp4096
(S'my'
p4097
g10
F0.8959
tp4098
a(S'xxx'
p4099
g3
F0.5963
tp4100
asI450
(lp4101
(S'xxx'
p4102
g43
F0.8437
tp4103
asI451
(lp4104
(S'bro'
p4105
g3
F0.7862
tp4106
asI452
(lp4107
(S'stop'
p4108
g19
F0.7063
tp4109
a(S'don'
p4110
g61
F0.3546
tp4111
a(g342
g83
F0.4192
tp4112
asI453
(lp4113
(S'xxx'
p4114
g43
F0.4267
tp4115
a(S'you'
p4116
g47
F0.9984
tp4117
a(S'want'
p4118
g19
F0.9997
tp4119
a(S'to'
p4120
g6
F0.9835
tp4121
a(S'go'
p4122
g19
F0.9993
tp4123
a(S'in'
p4124
g6
F0.9827
tp4125
a(S'your'
p4126
g10
F0.9899
tp4127
a(S'bed'
p4128
g3
F0.9868
tp4129
a(S'room'
p4130
g3
F0.9938
tp4131
asI454
(lp4132
(S'laughs'
p4133
g19
F0.9102
tp4134
asI455
(lp4135
(S'then'
p4136
g88
F0.9792
tp4137
a(S'stop'
p4138
g19
F0.9264
tp4139
a(S'don'
p4140
g61
F0.3964
tp4141
a(g342
g61
F0.4477
tp4142
a(S'spit'
p4143
g19
F0.8008
tp4144
asI456
(lp4145
(g15
g16
F0.9641
tp4146
a(S'makes'
p4147
g19
F0.8431
tp4148
a(S'spitting'
p4149
g19
F0.9816
tp4150
a(S'sounds'
p4151
g19
F0.5593
tp4152
asI457
(lp4153
(S'brp'
p4154
g36
F0.4978
tp4155
asI458
(lp4156
(S'no'
p4157
g10
F0.4023
tp4158
a(S'more'
p4159
g22
F0.6379
tp4160
a(S'iced'
p4161
g22
F0.9458
tp4162
a(S'tea'
p4163
g3
F0.9934
tp4164
a(S'for'
p4165
g6
F0.9985
tp4166
a(S'bro'
p4167
g3
F0.9666
tp4168
asI459
(lp4169
(S'xxx'
p4170
g43
F0.8437
tp4171
asI460
(lp4172
(S'no'
p4173
g36
F0.9253
tp4174
asI461
(lp4175
(S'okay'
p4176
g36
F0.9857
tp4177
asI462
(lp4178
(S'babbling'
p4179
g19
F0.9317
tp4180
asI463
(lp4181
(S'excuse'
p4182
g19
F0.9631
tp4183
a(S'me'
p4184
g47
F0.9787
tp4185
a(S'bro'
p4186
g3
F0.8573
tp4187
asI464
(lp4188
(S'just'
p4189
g88
F0.9993
tp4190
a(S'smack'
p4191
g19
F0.9967
tp4192
a(S'him'
p4193
g47
F0.9878
tp4194
asI465
(lp4195
(S'hey'
p4196
g36
F0.9986
tp4197
asI466
(lp4198
(S'smack'
p4199
g19
F0.9526
tp4200
a(S'him'
p4201
g47
F0.9855
tp4202
asI467
(lp4203
(S'no'
p4204
g36
F0.6532
tp4205
a(g97
g47
F0.9247
tp4206
a(g483
g19
F0.9794
tp4207
a(S'not'
p4208
g88
F0.9956
tp4209
a(S'gonna'
p4210
g19
F0.9985
tp4211
a(S'smack'
p4212
g19
F0.9986
tp4213
a(S'him'
p4214
g47
F0.9809
tp4215
asI468
(lp4216
(S'yeah'
p4217
g36
F0.9988
tp4218
asI469
(lp4219
(g97
g47
F0.953
tp4220
a(g483
g19
F0.9629
tp4221
a(S'gonna'
p4222
g19
F0.9956
tp4223
a(S'smack'
p4224
g19
F0.9954
tp4225
a(S'you'
p4226
g47
F0.9975
tp4227
asI470
(lp4228
(S'smack'
p4229
g19
F0.9331
tp4230
a(S'you'
p4231
g47
F0.9976
tp4232
asI471
(lp4233
(S'yeah'
p4234
g36
F0.9895
tp4235
a(S'right'
p4236
g36
F0.5187
tp4237
a(S'you'
p4238
g47
F0.9749
tp4239
a(S're'
p4240
g19
F0.6447
tp4241
a(S'dreaming'
p4242
g19
F0.9967
tp4243
a(S'boy'
p4244
g3
F0.9685
tp4245
asI472
(lp4246
(S'smack'
p4247
g19
F0.9331
tp4248
a(S'you'
p4249
g47
F0.9976
tp4250
asI473
(lp4251
(S'no'
p4252
g36
F0.7985
tp4253
a(S'you'
p4254
g47
F0.9973
tp4255
a(S'won'
p4256
g19
F0.98
tp4257
a(g342
g83
F0.5119
tp4258
asI474
(lp4259
(S'yeah'
p4260
g36
F0.998
tp4261
a(g97
g47
F0.9959
tp4262
a(S'am'
p4263
g19
F0.9966
tp4264
asI475
(lp4265
(S'smack'
p4266
g19
F0.9331
tp4267
a(S'you'
p4268
g47
F0.9976
tp4269
asI476
(lp4270
(S'laughs'
p4271
g19
F0.9102
tp4272
asI477
(lp4273
(S'smack'
p4274
g19
F0.9331
tp4275
a(S'you'
p4276
g47
F0.9976
tp4277
asI478
(lp4278
(S'smack'
p4279
g19
F0.9078
tp4280
a(S'your'
p4281
g10
F0.9959
tp4282
a(S'head'
p4283
g3
F0.9991
tp4284
asI479
(lp4285
(S'yeah'
p4286
g36
F0.994
tp4287
a(S'right'
p4288
g36
F0.7355
tp4289
asI480
(lp4290
(S'you'
p4291
g47
F0.997
tp4292
a(S'think'
p4293
g19
F0.9979
tp4294
asI481
(lp4295
(S'done'
p4296
g19
F0.8666
tp4297
asI482
(lp4298
(S'laughs'
p4299
g19
F0.9102
tp4300
asI483
(lp4301
(S'xxx'
p4302
g43
F0.8437
tp4303
asI484
(lp4304
(S'you'
p4305
g47
F0.9909
tp4306
a(S'are'
p4307
g19
F0.9977
tp4308
a(S'huh'
p4309
g36
F0.965
tp4310
asI485
(lp4311
(S'you'
p4312
g47
F0.9754
tp4313
a(S're'
p4314
g19
F0.9541
tp4315
a(S'all'
p4316
g10
F0.757
tp4317
a(S'done'
p4318
g22
F0.6265
tp4319
a(S'bro'
p4320
g3
F0.9892
tp4321
asI486
(lp4322
(S'xxx'
p4323
g43
F0.5839
tp4324
a(S'your'
p4325
g10
F0.9603
tp4326
a(S'head'
p4327
g3
F0.9991
tp4328
asI487
(lp4329
(S'no'
p4330
g36
F0.8047
tp4331
a(S'sir'
p4332
g3
F0.8958
tp4333
asI488
(lp4334
(S'will'
p4335
g19
F0.9979
tp4336
a(S'you'
p4337
g47
F0.9988
tp4338
a(S'eat'
p4339
g19
F0.9998
tp4340
a(S'your'
p4341
g10
F0.9936
tp4342
a(S'pizza'
p4343
g3
F0.9959
tp4344
asI489
(lp4345
(S'cries'
p4346
g19
F0.6365
tp4347
asI490
(lp4348
(S'no'
p4349
g36
F0.9253
tp4350
asI491
(lp4351
(S'yes'
p4352
g36
F0.9958
tp4353
asI492
(lp4354
(S'mom'
p4355
g3
F0.7188
tp4356
asI493
(lp4357
(S'please'
p4358
g19
F0.9853
tp4359
a(S'no'
p4360
g36
F0.6548
tp4361
asI494
(lp4362
(S'please'
p4363
g19
F0.8363
tp4364
a(S'yes'
p4365
g36
F0.9851
tp4366
asI495
(lp4367
(S'no'
p4368
g36
F0.7984
tp4369
a(S'please'
p4370
g19
F0.9927
tp4371
a(S'no'
p4372
g36
F0.55
tp4373
asI496
(lp4374
(S'cries'
p4375
g19
F0.6365
tp4376
asI497
(lp4377
(S'please'
p4378
g19
F0.8363
tp4379
a(S'yes'
p4380
g36
F0.9851
tp4381
asI498
(lp4382
(S'no'
p4383
g36
F0.9253
tp4384
asI499
(lp4385
(S'yes'
p4386
g36
F0.9958
tp4387
asI500
(lp4388
(S'please'
p4389
g19
F0.9853
tp4390
a(S'no'
p4391
g36
F0.6548
tp4392
asI501
(lp4393
(S'please'
p4394
g19
F0.8363
tp4395
a(S'yes'
p4396
g36
F0.9851
tp4397
asI502
(lp4398
(S'please'
p4399
g19
F0.9853
tp4400
a(S'no'
p4401
g36
F0.6548
tp4402
asI503
(lp4403
(S'xxx'
p4404
g43
F0.6877
tp4405
a(S'come'
p4406
g19
F0.993
tp4407
a(S'wash'
p4408
g19
F0.9755
tp4409
a(S'your'
p4410
g10
F0.9947
tp4411
a(S'hands'
p4412
g3
F0.9978
tp4413
asI504
(lp4414
(S'cries'
p4415
g19
F0.6365
tp4416
asI505
(lp4417
(S'xxx'
p4418
g43
F0.8437
tp4419
asI506
(lp4420
(S'laughs'
p4421
g19
F0.9102
tp4422
asI507
(lp4423
(S'go'
p4424
g19
F0.9861
tp4425
a(S'to'
p4426
g6
F0.9987
tp4427
a(S'the'
p4428
g10
F0.9988
tp4429
a(S'bath'
p4430
g3
F0.9939
tp4431
a(S'room'
p4432
g3
F0.9922
tp4433
a(S'and'
p4434
g296
F0.9981
tp4435
a(S'wash'
p4436
g19
F0.9551
tp4437
a(S'your'
p4438
g10
F0.9932
tp4439
a(S'hands'
p4440
g3
F0.9988
tp4441
asI508
(lp4442
(S'please'
p4443
g19
F0.9853
tp4444
a(S'no'
p4445
g36
F0.6548
tp4446
asI509
(lp4447
(S'please'
p4448
g19
F0.8841
tp4449
a(S'yes'
p4450
g36
F0.8691
tp4451
a(S'two'
p4452
g16
F0.9407
tp4453
a(S'more'
p4454
g22
F0.84
tp4455
a(S'bites'
p4456
g3
F0.8265
tp4457
asI510
(lp4458
(S'please'
p4459
g19
F0.9853
tp4460
a(S'no'
p4461
g36
F0.6548
tp4462
asI511
(lp4463
(S'please'
p4464
g19
F0.8841
tp4465
a(S'yes'
p4466
g36
F0.8691
tp4467
a(S'two'
p4468
g16
F0.9407
tp4469
a(S'more'
p4470
g22
F0.84
tp4471
a(S'bites'
p4472
g3
F0.8265
tp4473
asI512
(lp4474
(S'xxx'
p4475
g43
F0.8437
tp4476
asI513
(lp4477
(S'please'
p4478
g19
F0.9853
tp4479
a(S'no'
p4480
g36
F0.6548
tp4481
asI514
(lp4482
(S'yes'
p4483
g36
F0.9958
tp4484
asI515
(lp4485
(S'please'
p4486
g19
F0.9853
tp4487
a(S'no'
p4488
g36
F0.6548
tp4489
asI516
(lp4490
(S'yes'
p4491
g36
F0.9958
tp4492
asI517
(lp4493
(S'please'
p4494
g19
F0.9853
tp4495
a(S'no'
p4496
g36
F0.6548
tp4497
asI518
(lp4498
(S'do'
p4499
g19
F0.9985
tp4500
a(S'you'
p4501
g47
F0.9996
tp4502
a(S'want'
p4503
g19
F0.9997
tp4504
a(S'to'
p4505
g6
F0.9846
tp4506
a(S'go'
p4507
g19
F0.9975
tp4508
a(S'downtown'
p4509
g22
F0.5745
tp4510
asI519
(lp4511
(S'yeah'
p4512
g36
F0.9988
tp4513
asI520
(lp4514
(S'then'
p4515
g88
F0.9703
tp4516
a(S'eat'
p4517
g19
F0.934
tp4518
asI521
(lp4519
(S'whining'
p4520
g19
F0.9836
tp4521
asI522
(lp4522
(S'mom'
p4523
g3
F0.8127
tp4524
a(S'xxx'
p4525
g43
F0.7828
tp4526
asI523
(lp4527
(S'xxx'
p4528
g43
F0.8437
tp4529
asI524
(lp4530
(S'xxx'
p4531
g43
F0.8437
tp4532
asI525
(lp4533
(S'xxx'
p4534
g43
F0.8437
tp4535
asI526
(lp4536
(S'oh'
p4537
g36
F0.9963
tp4538
a(S'xxx'
p4539
g43
F0.6977
tp4540
asI527
(lp4541
(S'chi'
p4542
g61
F0.6834
tp4543
a(S'sit'
p4544
g19
F0.9936
tp4545
a(S'down'
p4546
g369
F0.8371
tp4547
a(S'and'
p4548
g296
F0.9957
tp4549
a(S'eat'
p4550
g19
F0.9821
tp4551
asI528
(lp4552
(S'come'
p4553
g19
F0.9897
tp4554
a(S'on'
p4555
g6
F0.9004
tp4556
a(S'two'
p4557
g16
F0.88
tp4558
a(S'more'
p4559
g22
F0.8438
tp4560
a(S'bites'
p4561
g3
F0.9549
tp4562
a(g97
g47
F0.9583
tp4563
a(S'said'
p4564
g19
F0.9995
tp4565
a(S'come'
p4566
g19
F0.9815
tp4567
a(S'on'
p4568
g6
F0.9026
tp4569
a(S'move'
p4570
g19
F0.7241
tp4571
a(S'it'
p4572
g47
F0.9861
tp4573
asI529
(lp4574
(S'come'
p4575
g19
F0.9843
tp4576
a(S'see'
p4577
g19
F0.9969
tp4578
a(S'my'
p4579
g10
F0.9993
tp4580
a(S'friends'
p4581
g3
F0.9935
tp4582
asI530
(lp4583
(S'xxx'
p4584
g43
F0.8437
tp4585
asI531
(lp4586
(S'who'
p4587
g47
F0.9905
tp4588
a(g68
g19
F0.8302
tp4589
a(S'your'
p4590
g10
F0.989
tp4591
a(S'friend'
p4592
g3
F0.9958
tp4593
asI532
(lp4594
(S'xxx'
p4595
g43
F0.8437
tp4596
asI533
(lp4597
(S'he'
p4598
g47
F0.9905
tp4599
a(g68
g19
F0.8341
tp4600
a(S'on'
p4601
g6
F0.8894
tp4602
a(S'that'
p4603
g10
F0.8684
tp4604
a(S'bicycle'
p4605
g3
F0.9794
tp4606
asI534
(lp4607
(S'really'
p4608
g88
F0.9938
tp4609
asI535
(lp4610
(S'why'
p4611
g88
F0.9375
tp4612
a(S'don'
p4613
g3
F0.2525
tp4614
a(g342
g19
F0.5898
tp4615
a(S'you'
p4616
g47
F0.999
tp4617
a(S'come'
p4618
g19
F0.9999
tp4619
a(S'over'
p4620
g6
F0.5317
tp4621
a(S'here'
p4622
g88
F0.9892
tp4623
a(S'and'
p4624
g296
F0.9961
tp4625
a(S'eat'
p4626
g19
F0.9764
tp4627
asI536
(lp4628
(S'xxx'
p4629
g43
F0.8437
tp4630
asI537
(lp4631
(S'who'
p4632
g47
F0.9905
tp4633
a(g68
g19
F0.7799
tp4634
a(S'running'
p4635
g19
F0.9988
tp4636
a(S'that'
p4637
g47
F0.5358
tp4638
asI538
(lp4639
(S'the'
p4640
g10
F0.9972
tp4641
a(S'parking'
p4642
g3
F0.9618
tp4643
a(S'lot'
p4644
g3
F0.9639
tp4645
asI539
(lp4646
(S'running'
p4647
g19
F0.9961
tp4648
a(S'in'
p4649
g6
F0.978
tp4650
a(S'the'
p4651
g10
F0.9985
tp4652
a(S'parking'
p4653
g3
F0.9745
tp4654
a(S'lot'
p4655
g3
F0.9177
tp4656
asI540
(lp4657
(S'yup'
p4658
g36
F0.9875
tp4659
a(S'and'
p4660
g296
F0.9989
tp4661
a(S'he'
p4662
g47
F0.9969
tp4663
a(S'left'
p4664
g19
F0.9651
tp4665
asI541
(lp4666
(S'yeah'
p4667
g36
F0.9988
tp4668
asI542
(lp4669
(S'chi'
p4670
g61
F0.6802
tp4671
a(S'come'
p4672
g19
F0.994
tp4673
a(S'on'
p4674
g6
F0.8277
tp4675
a(S'two'
p4676
g16
F0.8754
tp4677
a(S'more'
p4678
g22
F0.7565
tp4679
a(S'bites'
p4680
g3
F0.8936
tp4681
asI543
(lp4682
(S'no'
p4683
g36
F0.9253
tp4684
asI544
(lp4685
(S'adult'
p4686
g3
F0.7236
tp4687
a(g68
g83
F0.7559
tp4688
a(S'name'
p4689
g3
F0.8159
tp4690
a(S'you'
p4691
g47
F0.9941
tp4692
a(S'wanna'
p4693
g19
F0.996
tp4694
a(S'go'
p4695
g19
F0.9977
tp4696
a(S'make'
p4697
g19
F0.8784
tp4698
a(S'sure'
p4699
g22
F0.9475
tp4700
a(S'he'
p4701
g47
F0.989
tp4702
a(S'don'
p4703
g19
F0.8576
tp4704
a(g342
g83
F0.2731
tp4705
a(S'flood'
p4706
g19
F0.8536
tp4707
a(S'the'
p4708
g10
F0.9991
tp4709
a(S'bath'
p4710
g3
F0.9951
tp4711
a(S'room'
p4712
g3
F0.9915
tp4713
asI545
(lp4714
(S'he'
p4715
g47
F0.9905
tp4716
a(g68
g19
F0.7029
tp4717
a(S'not'
p4718
g88
F0.9962
tp4719
a(S'washing'
p4720
g19
F0.9993
tp4721
a(S'his'
p4722
g10
F0.9996
tp4723
a(S'hands'
p4724
g3
F0.9961
tp4725
asI546
(lp4726
(S'yes'
p4727
g36
F0.9834
tp4728
a(S'he'
p4729
g47
F0.9987
tp4730
a(S'is'
p4731
g19
F0.9998
tp4732
a(S'washing'
p4733
g19
F0.9947
tp4734
a(S'his'
p4735
g10
F0.9996
tp4736
a(S'hands'
p4737
g3
F0.9961
tp4738
asI547
(lp4739
(S'will'
p4740
g19
F0.9979
tp4741
a(S'you'
p4742
g47
F0.9986
tp4743
a(S'finish'
p4744
g19
F0.9985
tp4745
a(S'eatin'
p4746
g19
F0.5613
tp4747
a(g1049
g3
F0.3096
tp4748
a(S'please'
p4749
g19
F0.9819
tp4750
asI548
(lp4751
(S'wash'
p4752
g19
F0.8579
tp4753
a(S'your'
p4754
g10
F0.9939
tp4755
a(S'hands'
p4756
g3
F0.999
tp4757
asI549
(lp4758
(g97
g47
F0.988
tp4759
a(S'am'
p4760
g19
F0.9952
tp4761
asI550
(lp4762
(S'chi'
p4763
g36
F0.4684
tp4764
asI551
(lp4765
(g97
g47
F0.953
tp4766
a(g483
g19
F0.9629
tp4767
a(S'gonna'
p4768
g19
F0.9926
tp4769
a(S'go'
p4770
g19
F0.9985
tp4771
a(S'put'
p4772
g19
F0.9161
tp4773
a(S'this'
p4774
g47
F0.7292
tp4775
a(S'in'
p4776
g6
F0.9799
tp4777
a(S'the'
p4778
g10
F0.9991
tp4779
a(S'closet'
p4780
g3
F0.9947
tp4781
asI552
(lp4782
(S'no'
p4783
g36
F0.6674
tp4784
a(S'no'
p4785
g36
F0.5368
tp4786
a(S'chi'
p4787
g3
F0.5102
tp4788
a(S'chi'
p4789
g3
F0.4274
tp4790
a(g97
g47
F0.9737
tp4791
a(S'want'
p4792
g19
F1.0
tp4793
a(S'you'
p4794
g47
F0.9989
tp4795
a(S'to'
p4796
g6
F0.9809
tp4797
a(S'finish'
p4798
g19
F0.9975
tp4799
a(S'eatin'
p4800
g19
F0.7241
tp4801
a(g1049
g83
F0.3402
tp4802
asI553
(lp4803
(S'forget'
p4804
g19
F0.9955
tp4805
a(S'about'
p4806
g6
F0.9848
tp4807
a(S'that'
p4808
g47
F0.9424
tp4809
asI554
(lp4810
(S'okay'
p4811
g36
F0.9452
tp4812
a(S'stand'
p4813
g19
F0.9233
tp4814
a(S'up'
p4815
g369
F0.9882
tp4816
asI555
(lp4817
(S'cries'
p4818
g19
F0.6365
tp4819
asI556
(lp4820
(S'you'
p4821
g47
F0.9754
tp4822
a(S're'
p4823
g19
F0.6354
tp4824
a(S'really'
p4825
g88
F0.9996
tp4826
a(S'strong'
p4827
g22
F0.9881
tp4828
asI557
(lp4829
(S'don'
p4830
g61
F0.4468
tp4831
a(g342
g61
F0.546
tp4832
a(S'complain'
p4833
g19
F0.9944
tp4834
asI558
(lp4835
(S'xxx'
p4836
g43
F0.7243
tp4837
a(S'move'
p4838
g19
F0.9607
tp4839
a(S'it'
p4840
g47
F0.9849
tp4841
asI559
(lp4842
(S'all'
p4843
g10
F0.7816
tp4844
a(S'done'
p4845
g19
F0.7478
tp4846
a(S'let'
p4847
g19
F0.9962
tp4848
a(S'me'
p4849
g47
F0.9994
tp4850
a(S'see'
p4851
g19
F0.998
tp4852
a(S'your'
p4853
g10
F0.9971
tp4854
a(S'hands'
p4855
g3
F0.9982
tp4856
asI560
(lp4857
(S'cries'
p4858
g19
F0.6365
tp4859
asI561
(lp4860
(S'nice'
p4861
g22
F0.9926
tp4862
a(S'and'
p4863
g296
F0.9982
tp4864
a(S'clean'
p4865
g19
F0.5464
tp4866
a(S'good'
p4867
g22
F0.9921
tp4868
a(S'boy'
p4869
g3
F0.9964
tp4870
asI562
(lp4871
(S'oh'
p4872
g36
F0.9887
tp4873
a(S'let'
p4874
g19
F0.9027
tp4875
a(g68
g83
F0.3992
tp4876
a(S'get'
p4877
g19
F0.9967
tp4878
a(g9
g10
F0.9982
tp4879
a(S'towel'
p4880
g3
F0.9981
tp4881
asI563
(lp4882
(S'mom'
p4883
g3
F0.8995
tp4884
a(S'crying'
p4885
g19
F0.9995
tp4886
asI564
(lp4887
(S'woof'
p4888
g36
F0.9842
tp4889
a(S'woof'
p4890
g36
F0.9896
tp4891
a(S'woof'
p4892
g36
F0.9872
tp4893
asI565
(lp4894
(S'oh'
p4895
g36
F0.9988
tp4896
asI566
(lp4897
(S'xxx'
p4898
g43
F0.7728
tp4899
a(g97
g47
F0.9771
tp4900
a(S'take'
p4901
g19
F0.9997
tp4902
a(S'two'
p4903
g16
F0.9199
tp4904
a(S'bites'
p4905
g3
F0.6844
tp4906
asI567
(lp4907
(S'then'
p4908
g88
F0.9682
tp4909
a(S'let'
p4910
g19
F0.9987
tp4911
a(S'me'
p4912
g47
F0.9995
tp4913
a(S'see'
p4914
g19
F0.9961
tp4915
a(S'you'
p4916
g47
F0.9941
tp4917
a(S'take'
p4918
g19
F0.9986
tp4919
a(S'two'
p4920
g16
F0.9342
tp4921
a(S'bites'
p4922
g3
F0.7897
tp4923
asI568
(lp4924
(S'mom'
p4925
g3
F0.7188
tp4926
asI569
(lp4927
(g97
g47
F0.9948
tp4928
a(S'did'
p4929
g19
F0.9993
tp4930
asI570
(lp4931
(g97
g47
F0.9855
tp4932
a(S'see'
p4933
g19
F0.9958
tp4934
a(S'one'
p4935
g16
F0.6938
tp4936
a(S'bite'
p4937
g3
F0.8338
tp4938
asI571
(lp4939
(S'mom'
p4940
g3
F0.8127
tp4941
a(S'xxx'
p4942
g43
F0.7828
tp4943
asI572
(lp4944
(S'take'
p4945
g19
F0.9812
tp4946
a(S'one'
p4947
g16
F0.9142
tp4948
a(S'more'
p4949
g88
F0.5136
tp4950
a(S'bite'
p4951
g19
F0.7867
tp4952
a(S'and'
p4953
g296
F0.9955
tp4954
a(S'then'
p4955
g88
F0.9839
tp4956
a(S'you'
p4957
g47
F0.9964
tp4958
a(S're'
p4959
g19
F0.9497
tp4960
a(S'all'
p4961
g10
F0.7593
tp4962
a(S'done'
p4963
g22
F0.495
tp4964
a(S'and'
p4965
g296
F0.9982
tp4966
a(S'you'
p4967
g47
F0.999
tp4968
a(S'don'
p4969
g19
F0.8626
tp4970
a(g342
g3
F0.2172
tp4971
a(S'have'
p4972
g19
F0.9978
tp4973
a(S'to'
p4974
g6
F0.9975
tp4975
a(S'eat'
p4976
g19
F0.999
tp4977
a(S'no'
p4978
g10
F0.602
tp4979
a(S'more'
p4980
g22
F0.4284
tp4981
asI573
(lp4982
(S'xxx'
p4983
g43
F0.8437
tp4984
asI574
(lp4985
(S'yeah'
p4986
g36
F0.9903
tp4987
a(S'it'
p4988
g47
F0.9949
tp4989
a(g68
g19
F0.6684
tp4990
a(S'the'
p4991
g10
F0.9926
tp4992
a(S'uh'
p4993
g3
F0.3601
tp4994
a(S'washing'
p4995
g19
F0.9801
tp4996
a(S'machine'
p4997
g3
F0.9791
tp4998
asI575
(lp4999
(S'mom'
p5000
g3
F0.9049
tp5001
a(g97
g47
F0.9804
tp5002
a(S'did'
p5003
g19
F0.9996
tp5004
asI576
(lp5005
(S'be'
p5006
g19
F0.9727
tp5007
a(S'cause'
p5008
g6
F0.7105
tp5009
a(g97
g47
F0.9944
tp5010
a(S'washed'
p5011
g19
F0.9862
tp5012
a(S'and'
p5013
g296
F0.9965
tp5014
a(S'my'
p5015
g10
F0.9945
tp5016
a(S'mom'
p5017
g3
F0.9943
tp5018
a(S'had'
p5019
g19
F0.9992
tp5020
a(S'the'
p5021
g10
F0.9994
tp5022
a(S'car'
p5023
g3
F0.9931
tp5024
a(S'and'
p5025
g296
F0.9989
tp5026
a(g97
g47
F0.9853
tp5027
a(g483
g19
F0.9865
tp5028
a(S'done'
p5029
g19
F0.9797
tp5030
a(S'washing'
p5031
g19
F0.9984
tp5032
a(S'it'
p5033
g47
F0.9744
tp5034
asI577
(lp5035
(S'mom'
p5036
g3
F0.7097
tp5037
a(S'mom'
p5038
g3
F0.9074
tp5039
a(S'saw'
p5040
g19
F0.9993
tp5041
a(S'me'
p5042
g47
F0.9987
tp5043
a(S'take'
p5044
g19
F0.9977
tp5045
a(S'that'
p5046
g10
F0.9115
tp5047
a(S'other'
p5048
g22
F0.944
tp5049
a(S'bite'
p5050
g3
F0.8939
tp5051
asI578
(lp5052
(S'and'
p5053
g296
F0.9984
tp5054
a(S'uh'
p5055
g36
F0.9342
tp5056
a(S'huh'
p5057
g36
F0.9921
tp5058
asI579
(lp5059
(g97
g47
F0.9855
tp5060
a(S'take'
p5061
g19
F0.9999
tp5062
a(S'that'
p5063
g10
F0.9288
tp5064
a(S'other'
p5065
g22
F0.9014
tp5066
a(S'bite'
p5067
g3
F0.8455
tp5068
asI580
(lp5069
(S'yes'
p5070
g36
F0.9899
tp5071
a(g97
g47
F0.9936
tp5072
a(S'seen'
p5073
g19
F0.9999
tp5074
a(S'you'
p5075
g47
F0.999
tp5076
a(S'take'
p5077
g19
F0.9998
tp5078
a(S'the'
p5079
g10
F0.9998
tp5080
a(S'other'
p5081
g22
F0.8992
tp5082
a(S'bite'
p5083
g3
F0.6932
tp5084
a(S'good'
p5085
g22
F0.9955
tp5086
a(S'boy'
p5087
g3
F0.9918
tp5088
a(S'you'
p5089
g47
F0.9731
tp5090
a(S'all'
p5091
g10
F0.9152
tp5092
a(S'done'
p5093
g19
F0.7845
tp5094
a(S'put'
p5095
g19
F0.9842
tp5096
a(S'your'
p5097
g10
F0.9956
tp5098
a(S'bowl'
p5099
g3
F0.9996
tp5100
a(S'in'
p5101
g6
F0.999
tp5102
a(S'the'
p5103
g10
F0.9973
tp5104
a(S'sink'
p5105
g3
F0.9898
tp5106
asI581
(lp5107
(S'dump'
p5108
g19
F0.9457
tp5109
a(S'the'
p5110
g10
F0.9993
tp5111
a(S'pizza'
p5112
g3
F0.9892
tp5113
a(S'in'
p5114
g6
F0.9992
tp5115
a(S'the'
p5116
g10
F0.9994
tp5117
a(S'trash'
p5118
g3
F0.9952
tp5119
asI582
(lp5120
(S'xxx'
p5121
g43
F0.8437
tp5122
asI583
(lp5123
(S'put'
p5124
g19
F0.9811
tp5125
a(S'the'
p5126
g10
F0.9995
tp5127
a(S'bowl'
p5128
g3
F0.9986
tp5129
a(S'in'
p5130
g6
F0.9991
tp5131
a(S'the'
p5132
g10
F0.997
tp5133
a(S'sink'
p5134
g3
F0.9859
tp5135
asI584
(lp5136
(S'xxx'
p5137
g43
F0.8437
tp5138
asI585
(lp5139
(S'no'
p5140
g36
F0.9253
tp5141
asI586
(lp5142
(S'xxx'
p5143
g43
F0.8437
tp5144
asI587
(lp5145
(S'xxx'
p5146
g43
F0.8437
tp5147
asI588
(lp5148
(S'xxx'
p5149
g43
F0.8437
tp5150
asI589
(lp5151
(S'get'
p5152
g19
F0.993
tp5153
a(S'in'
p5154
g6
F0.9628
tp5155
a(S'the'
p5156
g10
F0.9989
tp5157
a(S'bath'
p5158
g3
F0.9939
tp5159
a(S'room'
p5160
g3
F0.9891
tp5161
a(S'wash'
p5162
g19
F0.9243
tp5163
a(S'your'
p5164
g10
F0.9959
tp5165
a(S'face'
p5166
g3
F0.996
tp5167
a(S'and'
p5168
g296
F0.9981
tp5169
a(S'hands'
p5170
g3
F0.8943
tp5171
asI590
(lp5172
(S'have'
p5173
g19
F0.9973
tp5174
a(g9
g10
F0.9975
tp5175
a(S'good'
p5176
g22
F0.9987
tp5177
a(S'day'
p5178
g3
F0.9987
tp5179
as.