(dp0
I0
(lp1
(S'xxx'
p2
S'E'
p3
F0.8437
tp4
asI1
(lp5
(S'is'
p6
S'V'
p7
F0.9993
tp8
a(S'it'
p9
S'O'
p10
F0.9903
tp11
a(S'good'
p12
S'A'
p13
F0.9943
tp14
asI2
(lp15
(S'yeah'
p16
S'!'
p17
F0.9988
tp18
asI3
(lp19
(S'yeah'
p20
g17
F0.9988
tp21
asI4
(lp22
(S'i'
p23
g10
F0.9708
tp24
a(S'like'
p25
g7
F0.6661
tp26
a(S'the'
p27
S'D'
p28
F0.9988
tp29
a(S'music'
p30
S'N'
p31
F0.9977
tp32
asI5
(lp33
(S'uhhuh'
p34
g17
F0.9892
tp35
asI6
(lp36
(S'yeah'
p37
g17
F0.9988
tp38
asI7
(lp39
(S'did'
p40
g7
F0.9986
tp41
a(S'you'
p42
g10
F0.9993
tp43
a(S'have'
p44
g7
F0.9999
tp45
a(S'a'
p46
g28
F0.9976
tp47
a(S'good'
p48
g13
F0.999
tp49
a(S'day'
p50
g31
F0.9989
tp51
a(S'today'
p52
g31
F0.9927
tp53
asI8
(lp54
(S'mhm'
p55
g17
F0.9747
tp56
asI9
(lp57
(S'mhm'
p58
g17
F0.9647
tp59
a(S'what'
p60
g10
F0.9721
tp61
a(S'd'
p62
g7
F0.5168
tp63
a(S'you'
p64
g10
F0.9995
tp65
a(S'do'
p66
g7
F0.9996
tp67
asI10
(lp68
(S'mm'
p69
g17
F0.627
tp70
asI11
(lp71
(S'good'
p72
g13
F0.9644
tp73
asI12
(lp74
(S'yes'
p75
g17
F0.9958
tp76
asI13
(lp77
(S'what'
p78
g10
F0.9493
tp79
a(g62
g7
F0.5463
tp80
a(S'you'
p81
g10
F0.9996
tp82
a(S'do'
p83
g7
F0.9991
tp84
a(S'today'
p85
g31
F0.9689
tp86
asI14
(lp87
(S'oat'
p88
g31
F0.8084
tp89
a(S'bran'
p90
g31
F0.9884
tp91
a(S'cereal'
p92
g31
F0.9974
tp93
asI15
(lp94
(S'uhhuh'
p95
g17
F0.9892
tp96
asI16
(lp97
(S'oat'
p98
g31
F0.8084
tp99
a(S'bran'
p100
g31
F0.9884
tp101
a(S'cereal'
p102
g31
F0.9974
tp103
asI17
(lp104
(S'okay'
p105
g17
F0.9725
tp106
a(S'then'
p107
S'R'
p108
F0.9715
tp109
a(S'eat'
p110
g7
F0.9425
tp111
asI18
(lp112
(S'there'
p113
S'X'
p114
F0.4664
tp115
a(S's'
p116
S'G'
p117
F0.726
tp118
a(S'my'
p119
g28
F0.9926
tp120
a(S'eggo'
p121
g31
F0.9979
tp122
asI19
(lp123
(S'there'
p124
g114
F0.4664
tp125
a(g116
g117
F0.7119
tp126
a(S'my'
p127
g28
F0.9926
tp128
a(S'eggo'
p129
g31
F0.9963
tp130
a(S'xxx'
p131
g3
F0.779
tp132
asI20
(lp133
(S'you'
p134
g10
F0.9929
tp135
a(S'having'
p136
g7
F0.9993
tp137
a(S'fun'
p138
g31
F0.7944
tp139
asI21
(lp140
(S'having'
p141
g7
F0.9952
tp142
a(S'fun'
p143
g31
F0.5272
tp144
asI22
(lp145
(S'oh'
p146
g17
F0.9903
tp147
a(S'my'
p148
g28
F0.9084
tp149
a(S'goodness'
p150
g31
F0.8771
tp151
a(g46
g28
F0.8868
tp152
a(S'h'
p153
g31
F0.7037
tp154
a(S'gasps'
p155
g7
F0.5509
tp156
asI23
(lp157
(S'you'
p158
g10
F0.9923
tp159
a(S'like'
p160
g7
F0.6457
tp161
a(S'the'
p162
g28
F0.9989
tp163
a(S'commercial'
p164
g31
F0.9907
tp165
asI24
(lp166
(S'yeah'
p167
g17
F0.9988
tp168
asI25
(lp169
(S'me'
p170
g10
F0.9918
tp171
asI26
(lp172
(S'my'
p173
g28
F0.9932
tp174
a(S'eggo'
p175
g31
F0.9968
tp176
a(S'please'
p177
g7
F0.9552
tp178
asI27
(lp179
(S'don'
p180
S'^'
p181
F0.5427
tp182
a(S't'
p183
g181
F0.3881
tp184
a(S'get'
p185
g7
F0.9962
tp186
a(S'mad'
p187
g13
F0.9561
tp188
a(S'get'
p189
g7
F0.9751
tp190
a(S'glad'
p191
g13
F0.9829
tp192
asI28
(lp193
(S'don'
p194
g181
F0.5427
tp195
a(g183
g181
F0.3881
tp196
a(S'get'
p197
g7
F0.9962
tp198
a(S'mad'
p199
g13
F0.9561
tp200
a(S'get'
p201
g7
F0.9751
tp202
a(S'glad'
p203
g13
F0.9829
tp204
asI29
(lp205
(S'mad'
p206
g13
F0.8404
tp207
a(S'get'
p208
g7
F0.9633
tp209
a(S'glad'
p210
g13
F0.9784
tp211
asI30
(lp212
(S'don'
p213
g181
F0.5427
tp214
a(g183
g181
F0.3881
tp215
a(S'get'
p216
g7
F0.9962
tp217
a(S'mad'
p218
g13
F0.9561
tp219
a(S'get'
p220
g7
F0.9751
tp221
a(S'glad'
p222
g13
F0.9829
tp223
asI31
(lp224
(S'finish'
p225
g7
F0.94
tp226
a(S'eating'
p227
g7
F0.9991
tp228
a(S'your'
p229
g28
F0.9896
tp230
a(S'cereal'
p231
g31
F0.9981
tp232
asI32
(lp233
(S'okay'
p234
g17
F0.9857
tp235
asI33
(lp236
(g23
g10
F0.9718
tp237
a(S'like'
p238
g7
F0.8011
tp239
asI34
(lp240
(S'mhm'
p241
g17
F0.9747
tp242
asI35
(lp243
(S'mhm'
p244
g17
F0.9747
tp245
asI36
(lp246
(S'were'
p247
g7
F0.9954
tp248
a(S'you'
p249
g10
F0.995
tp250
a(S'good'
p251
g13
F0.9969
tp252
a(S'today'
p253
g31
F0.9989
tp254
asI37
(lp255
(S'mhm'
p256
g17
F0.9747
tp257
asI38
(lp258
(S'you'
p259
g10
F0.9709
tp260
a(g46
g28
F0.9904
tp261
a(S'good'
p262
g13
F0.9981
tp263
a(S'boy'
p264
g31
F0.9982
tp265
asI39
(lp266
(S'mhm'
p267
g17
F0.9747
tp268
asI40
(lp269
(S'you'
p270
g10
F0.9923
tp271
a(S'like'
p272
g7
F0.8119
tp273
a(S'your'
p274
g28
F0.9898
tp275
a(S'hair'
p276
g31
F0.9994
tp277
a(S'cut'
p278
g31
F0.8053
tp279
asI41
(lp280
(S'mhm'
p281
g17
F0.9747
tp282
asI42
(lp283
(S'uhhum'
p284
g17
F0.9859
tp285
asI43
(lp286
(S'don'
p287
g181
F0.5427
tp288
a(g183
g181
F0.3881
tp289
a(S'get'
p290
g7
F0.9962
tp291
a(S'mad'
p292
g13
F0.9561
tp293
a(S'get'
p294
g7
F0.9751
tp295
a(S'glad'
p296
g13
F0.9829
tp297
asI44
(lp298
(S'say'
p299
g7
F0.9945
tp300
a(S'it'
p301
g10
F0.9939
tp302
a(S'back'
p303
g108
F0.4651
tp304
asI45
(lp305
(S'don'
p306
g181
F0.5427
tp307
a(g183
g181
F0.3881
tp308
a(S'get'
p309
g7
F0.9962
tp310
a(S'mad'
p311
g13
F0.9561
tp312
a(S'get'
p313
g7
F0.9751
tp314
a(S'glad'
p315
g13
F0.9829
tp316
asI46
(lp317
(S'mhm'
p318
g17
F0.9747
tp319
asI47
(lp320
(S'don'
p321
g181
F0.5427
tp322
a(g183
g181
F0.3881
tp323
a(S'get'
p324
g7
F0.9962
tp325
a(S'mad'
p326
g13
F0.9561
tp327
a(S'get'
p328
g7
F0.9751
tp329
a(S'glad'
p330
g13
F0.9829
tp331
asI48
(lp332
(S'what'
p333
g10
F0.9931
tp334
a(S'do'
p335
g7
F0.9993
tp336
a(S'you'
p337
g10
F0.9997
tp338
a(S'want'
p339
g7
F0.9997
tp340
a(S'for'
p341
S'P'
p342
F0.9972
tp343
a(S'lunch'
p344
g31
F0.9103
tp345
a(S'tomorrow'
p346
g31
F0.9825
tp347
asI49
(lp348
(S'oat'
p349
g31
F0.8084
tp350
a(S'bran'
p351
g31
F0.9884
tp352
a(S'cereal'
p353
g31
F0.9974
tp354
asI50
(lp355
(S'you'
p356
g10
F0.9754
tp357
a(S're'
p358
g7
F0.7607
tp359
a(S'eating'
p360
g7
F0.9942
tp361
a(S'oat'
p362
g31
F0.961
tp363
a(S'bran'
p364
g31
F0.9843
tp365
a(S'cereal'
p366
g31
F0.9955
tp367
asI51
(lp368
(S'what'
p369
g10
F0.9931
tp370
a(S'do'
p371
g7
F0.9993
tp372
a(S'you'
p373
g10
F0.9997
tp374
a(S'want'
p375
g7
F0.9997
tp376
a(S'for'
p377
g342
F0.9982
tp378
a(S'lunch'
p379
g31
F0.9103
tp380
a(S'tomorrow'
p381
g31
F0.9633
tp382
a(S'chi'
p383
g117
F0.6539
tp384
asI52
(lp385
(g23
g10
F0.9902
tp386
a(S'want'
p387
g7
F0.9998
tp388
a(S'yogurt'
p389
g31
F0.7695
tp390
asI53
(lp391
(S'you'
p392
g10
F0.998
tp393
a(S'want'
p394
g7
F0.9995
tp395
a(S'yogurt'
p396
g31
F0.649
tp397
a(S'and'
p398
S'&'
p399
F0.9965
tp400
a(S'your'
p401
g28
F0.9021
tp402
a(S'sandwich'
p403
g31
F0.9982
tp404
asI54
(lp405
(g46
g28
F0.9928
tp406
a(S'sandwich'
p407
g31
F0.9971
tp408
a(S'my'
p409
g28
F0.9904
tp410
a(S'bread'
p411
g31
F0.9991
tp412
asI55
(lp413
(S'and'
p414
g399
F0.999
tp415
a(S'your'
p416
g28
F0.899
tp417
a(S'bread'
p418
g31
F0.9995
tp419
asI56
(lp420
(S'yes'
p421
g17
F0.9958
tp422
asI57
(lp423
(S'grandma'
p424
g31
F0.7522
tp425
a(S'makes'
p426
g7
F0.9987
tp427
a(S'my'
p428
g28
F0.9951
tp429
a(S'lunch'
p430
g31
F0.9934
tp431
asI58
(lp432
(S'yep'
p433
g17
F0.9815
tp434
a(S'grandma'
p435
g31
F0.8419
tp436
a(S'makes'
p437
g7
F0.9988
tp438
a(S'your'
p439
g28
F0.9809
tp440
a(S'lunch'
p441
g31
F0.9907
tp442
asI59
(lp443
(S'yeah'
p444
g17
F0.9869
tp445
a(S'grandma'
p446
g31
F0.8774
tp447
a(S'is'
p448
g7
F0.9982
tp449
a(S'making'
p450
g7
F0.9919
tp451
a(S'some'
p452
g28
F0.993
tp453
a(S'lunch'
p454
g31
F0.9549
tp455
asI60
(lp456
(S'some'
p457
g28
F0.9823
tp458
a(S'coffee'
p459
g31
F0.9928
tp460
asI61
(lp461
(S'rice'
p462
g31
F0.8854
tp463
a(S'crispies'
p464
g31
F0.9805
tp465
asI62
(lp466
(S'mom'
p467
g31
F0.7188
tp468
asI63
(lp469
(S'rice'
p470
g31
F0.8854
tp471
a(S'crispies'
p472
g31
F0.9805
tp473
asI64
(lp474
(S'rice'
p475
g31
F0.8854
tp476
a(S'crispies'
p477
g31
F0.9704
tp478
a(S'nah'
p479
g17
F0.8436
tp480
asI65
(lp481
(g23
g10
F0.9708
tp482
a(S'like'
p483
g7
F0.8608
tp484
a(S'that'
p485
g28
F0.6294
tp486
a(S'music'
p487
g31
F0.9982
tp488
asI66
(lp489
(S'it'
p490
g10
F0.9858
tp491
a(g116
g7
F0.5544
tp492
a(S'not'
p493
g108
F0.9856
tp494
asI67
(lp495
(S'it'
p496
g10
F0.9888
tp497
a(g116
g7
F0.7058
tp498
a(g46
g28
F0.9959
tp499
a(S'tape'
p500
g31
F0.9993
tp501
asI68
(lp502
(g46
g28
F0.9939
tp503
a(S'tape'
p504
g31
F0.999
tp505
asI69
(lp506
(S'it'
p507
g10
F0.9858
tp508
a(g116
g7
F0.6905
tp509
a(S'recording'
p510
g7
F0.9714
tp511
asI70
(lp512
(S'that'
p513
g10
F0.473
tp514
a(g116
g7
F0.6118
tp515
a(g46
g28
F0.8875
tp516
a(g46
g28
F0.9125
tp517
a(S'tape'
p518
g31
F0.999
tp519
asI71
(lp520
(S'mhm'
p521
g17
F0.9747
tp522
asI72
(lp523
(g46
g28
F0.9939
tp524
a(S'tape'
p525
g31
F0.998
tp526
a(S'yeah'
p527
g17
F0.984
tp528
asI73
(lp529
(S'yeah'
p530
g17
F0.9988
tp531
asI74
(lp532
(S'yeah'
p533
g17
F0.9988
tp534
asI75
(lp535
(S'did'
p536
g7
F0.9986
tp537
a(S'you'
p538
g10
F0.9993
tp539
a(S'have'
p540
g7
F0.9977
tp541
a(S'fun'
p542
g31
F0.5991
tp543
a(S'saturday'
p544
g181
F0.6657
tp545
a(S'with'
p546
g342
F0.997
tp547
a(S'barry'
p548
g181
F0.9912
tp549
asI76
(lp550
(S'mhm'
p551
g17
F0.9747
tp552
asI77
(lp553
(S'yeah'
p554
g17
F0.9988
tp555
asI78
(lp556
(S'yeah'
p557
g17
F0.9988
tp558
asI79
(lp559
(S'you'
p560
g10
F0.9911
tp561
a(S'didn'
p562
g7
F0.9886
tp563
a(g183
g7
F0.8986
tp564
a(S'like'
p565
g342
F0.8843
tp566
a(S'your'
p567
g28
F0.988
tp568
a(S'hair'
p569
g31
F0.9991
tp570
a(S'cut'
p571
g31
F0.8899
tp572
asI80
(lp573
(S'you'
p574
g10
F0.9911
tp575
a(S'didn'
p576
g7
F0.9886
tp577
a(g183
g7
F0.8834
tp578
a(S'like'
p579
g342
F0.8699
tp580
a(S'it'
p581
g10
F0.9986
tp582
asI81
(lp583
(S'you'
p584
g10
F0.9945
tp585
a(S'were'
p586
g7
F0.9982
tp587
a(S'crying'
p588
g7
F0.9945
tp589
a(S'huh'
p590
g17
F0.9122
tp591
asI82
(lp592
(S'yes'
p593
g17
F0.9836
tp594
a(S'you'
p595
g10
F0.9988
tp596
a(S'do'
p597
g7
F0.9994
tp598
asI83
(lp599
(S'you'
p600
g10
F0.9945
tp601
a(S'were'
p602
g7
F0.9982
tp603
a(S'crying'
p604
g7
F0.9945
tp605
a(S'huh'
p606
g17
F0.9122
tp607
asI84
(lp608
(S'no'
p609
g17
F0.791
tp610
a(S'yes'
p611
g17
F0.9169
tp612
a(S'you'
p613
g10
F0.9992
tp614
a(S'do'
p615
g7
F0.9989
tp616
asI85
(lp617
(S'no'
p618
g17
F0.9253
tp619
asI86
(lp620
(S'you'
p621
g10
F0.9923
tp622
a(S'like'
p623
g7
F0.6543
tp624
a(S'the'
p625
g28
F0.999
tp626
a(S'movie'
p627
g31
F0.9989
tp628
a(S'yesterday'
p629
g31
F0.8995
tp630
asI87
(lp631
(S'mhm'
p632
g17
F0.9747
tp633
asI88
(lp634
(S'was'
p635
g7
F0.9988
tp636
a(S'it'
p637
g10
F0.9662
tp638
a(S'good'
p639
g13
F0.9943
tp640
asI89
(lp641
(S'good'
p642
g13
F0.9921
tp643
a(S'movie'
p644
g31
F0.9988
tp645
asI90
(lp646
(S'yes'
p647
g17
F0.9958
tp648
asI91
(lp649
(S'the'
p650
g28
F0.9982
tp651
a(S'abyss'
p652
g31
F0.9922
tp653
asI92
(lp654
(S'yes'
p655
g17
F0.9958
tp656
asI93
(lp657
(S'was'
p658
g7
F0.983
tp659
a(S'bro'
p660
g31
F0.7829
tp661
a(S'good'
p662
g13
F0.9764
tp663
asI94
(lp664
(S'no'
p665
g17
F0.9253
tp666
asI95
(lp667
(S'no'
p668
g17
F0.8387
tp669
a(S'he'
p670
g10
F0.9957
tp671
a(S'was'
p672
g7
F0.9989
tp673
a(S'bad'
p674
g13
F0.9733
tp675
asI96
(lp676
(S'no'
p677
g17
F0.9253
tp678
asI97
(lp679
(S'yeah'
p680
g17
F0.9958
tp681
a(S'he'
p682
g10
F0.9963
tp683
a(g116
g7
F0.6846
tp684
a(S'bad'
p685
g13
F0.9774
tp686
asI98
(lp687
(S'he'
p688
g10
F0.996
tp689
a(S'was'
p690
g7
F0.9988
tp691
a(S'bad'
p692
g13
F0.9869
tp693
a(S'yesterday'
p694
g31
F0.979
tp695
asI99
(lp696
(S'what'
p697
g10
F0.9864
tp698
a(S'happened'
p699
g7
F0.9921
tp700
asI100
(lp701
(S'bro'
p702
g31
F0.7268
tp703
a(S'um'
p704
g17
F0.7186
tp705
a(S'xxx'
p706
g3
F0.4377
tp707
a(S'play'
p708
g7
F0.9798
tp709
a(S'in'
p710
g342
F0.9702
tp711
a(S'the'
p712
g28
F0.9989
tp713
a(S'door'
p714
g31
F0.9973
tp715
asI101
(lp716
(S'oh'
p717
g17
F0.9988
tp718
asI102
(lp719
(S'yes'
p720
g17
F0.9958
tp721
asI103
(lp722
(S'he'
p723
g10
F0.9883
tp724
a(S'xxx'
p725
g7
F0.3756
tp726
a(S'don'
p727
g181
F0.3697
tp728
a(g183
g181
F0.4756
tp729
a(S'come'
p730
g7
F0.9823
tp731
a(S'xxx'
p732
g3
F0.7818
tp733
asI104
(lp734
(S'xxx'
p735
g3
F0.8437
tp736
asI105
(lp737
(S'xxx'
p738
g3
F0.6585
tp739
a(S'second'
p740
g13
F0.9914
tp741
a(S'piece'
p742
g31
F0.9978
tp743
asI106
(lp744
(S'that'
p745
g10
F0.4727
tp746
a(g116
g117
F0.4353
tp747
a(S'not'
p748
g108
F0.9735
tp749
asI107
(lp750
(S'uhhuh'
p751
g17
F0.9892
tp752
asI108
(lp753
(S'good'
p754
g13
F0.9893
tp755
a(S'cereal'
p756
g31
F0.9969
tp757
asI109
(lp758
(S'uhhum'
p759
g17
F0.9859
tp760
asI110
(lp761
(S'bro'
p762
g31
F0.966
tp763
a(S'get'
p764
g7
F0.9963
tp765
a(S'in'
p766
g342
F0.8935
tp767
a(S'your'
p768
g28
F0.9891
tp769
a(S'bed'
p770
g31
F0.9954
tp771
asI111
(lp772
(g23
g10
F0.9902
tp773
a(S'want'
p774
g7
F0.9997
tp775
a(S'cereal'
p776
g31
F0.9817
tp777
asI112
(lp778
(S'you'
p779
g10
F0.998
tp780
a(S'want'
p781
g7
F0.9998
tp782
a(S'some'
p783
g28
F0.7722
tp784
a(S'too'
p785
g108
F0.9272
tp786
asI113
(lp787
(S'you'
p788
g10
F0.998
tp789
a(S'want'
p790
g7
F0.9997
tp791
a(S'to'
p792
g342
F0.9921
tp793
a(S'eat'
p794
g7
F0.9942
tp795
a(S'too'
p796
g108
F0.9819
tp797
asI114
(lp798
(S'yeah'
p799
g17
F0.9988
tp800
asI115
(lp801
(S'yeah'
p802
g17
F0.9988
tp803
asI116
(lp804
(S'what'
p805
g10
F0.9739
tp806
a(g116
g7
F0.4505
tp807
a(S'that'
p808
g10
F0.8603
tp809
asI117
(lp810
(g46
g28
F0.9939
tp811
a(S'tape'
p812
g31
F0.9976
tp813
a(S'recorder'
p814
g31
F0.9966
tp815
asI118
(lp816
(S'it'
p817
g10
F0.9888
tp818
a(g116
g7
F0.7058
tp819
a(g46
g28
F0.9959
tp820
a(S'tape'
p821
g31
F0.9993
tp822
asI119
(lp823
(S'it'
p824
g10
F0.9858
tp825
a(g116
g7
F0.6905
tp826
a(S'taping'
p827
g7
F0.9353
tp828
asI120
(lp829
(S'tapes'
p830
g31
F0.9865
tp831
asI121
(lp832
(S'and'
p833
g399
F0.9991
tp834
a(S'they'
p835
g10
F0.9933
tp836
a(S'play'
p837
g7
F0.9961
tp838
a(S'music'
p839
g31
F0.9969
tp840
asI122
(lp841
(S'xxx'
p842
g3
F0.6826
tp843
a(S'bed'
p844
g31
F0.9151
tp845
asI123
(lp846
(S'play'
p847
g7
F0.8551
tp848
a(S'music'
p849
g31
F0.9956
tp850
asI124
(lp851
(S'or'
p852
g399
F0.9901
tp853
a(S'mommy'
p854
g31
F0.8926
tp855
a(S'gonna'
p856
g7
F0.9968
tp857
a(S'find'
p858
g7
F0.9997
tp859
a(S'you'
p860
g10
F0.9989
tp861
a(S'up'
p862
S'T'
p863
F0.7495
tp864
asI125
(lp865
(S'it'
p866
g10
F0.9888
tp867
a(g116
g7
F0.6477
tp868
a(S'getting'
p869
g7
F0.9967
tp870
a(S'late'
p871
g13
F0.9252
tp872
asI126
(lp873
(g23
g10
F0.9897
tp874
a(S'want'
p875
g7
F1.0
tp876
a(S'some'
p877
g28
F0.96
tp878
a(g23
g10
F0.943
tp879
a(S'wanna'
p880
g7
F0.9987
tp881
a(S'eat'
p882
g7
F0.9913
tp883
asI127
(lp884
(g23
g10
F0.9902
tp885
a(S'want'
p886
g7
F0.9997
tp887
a(S'cereal'
p888
g31
F0.9817
tp889
asI128
(lp890
(S'you'
p891
g10
F0.998
tp892
a(S'want'
p893
g7
F0.9998
tp894
a(S'some'
p895
g28
F0.9924
tp896
a(S'cereal'
p897
g31
F0.9911
tp898
asI129
(lp899
(S'come'
p900
g7
F0.9849
tp901
a(S'on'
p902
g863
F0.5632
tp903
asI130
(lp904
(S'mhm'
p905
g17
F0.9747
tp906
asI131
(lp907
(S'sit'
p908
g7
F0.9825
tp909
a(S'down'
p910
g863
F0.8561
tp911
a(S'chi'
p912
g117
F0.4371
tp913
asI132
(lp914
(S'don'
p915
g181
F0.5427
tp916
a(g183
g181
F0.462
tp917
a(S'touch'
p918
g7
F0.6335
tp919
a(S'anything'
p920
g31
F0.993
tp921
asI133
(lp922
(S'bro'
p923
g31
F0.9478
tp924
a(S'sit'
p925
g7
F0.9864
tp926
a(S'down'
p927
g863
F0.9538
tp928
asI134
(lp929
(S'don'
p930
g181
F0.5427
tp931
a(g183
g181
F0.549
tp932
a(S'touch'
p933
g7
F0.6335
tp934
a(S'anything'
p935
g31
F0.9917
tp936
a(S'chi'
p937
g117
F0.4674
tp938
asI135
(lp939
(S'okay'
p940
g17
F0.9857
tp941
asI136
(lp942
(S'don'
p943
g181
F0.5427
tp944
a(g183
g181
F0.549
tp945
a(S'touch'
p946
g7
F0.8542
tp947
a(S'the'
p948
g28
F0.9993
tp949
a(S'tape'
p950
g31
F0.9974
tp951
asI137
(lp952
(S'okay'
p953
g17
F0.9857
tp954
asI138
(lp955
(S'okay'
p956
g17
F0.9857
tp957
asI139
(lp958
(S'okay'
p959
g17
F0.9857
tp960
asI140
(lp961
(S'don'
p962
g181
F0.5427
tp963
a(g183
g181
F0.462
tp964
a(S'touch'
p965
g7
F0.6335
tp966
a(S'anything'
p967
g31
F0.993
tp968
asI141
(lp969
(S'okay'
p970
g17
F0.9857
tp971
asI142
(lp972
(S'what'
p973
g10
F0.9739
tp974
a(g116
g7
F0.4505
tp975
a(S'that'
p976
g10
F0.8603
tp977
asI143
(lp978
(S'what'
p979
g10
F0.9739
tp980
a(g116
g7
F0.4505
tp981
a(S'that'
p982
g10
F0.8603
tp983
asI144
(lp984
(S'cereal'
p985
g31
F0.9448
tp986
a(S'xxx'
p987
g3
F0.6847
tp988
asI145
(lp989
(S'what'
p990
g10
F0.9739
tp991
a(g116
g7
F0.4505
tp992
a(S'that'
p993
g10
F0.8603
tp994
asI146
(lp995
(S'xxx'
p996
g3
F0.8437
tp997
asI147
(lp998
(S'xxx'
p999
g3
F0.7739
tp1000
a(S'alright'
p1001
g17
F0.9522
tp1002
asI148
(lp1003
(S'come'
p1004
g7
F0.9844
tp1005
a(S'sit'
p1006
g7
F0.9968
tp1007
a(S'down'
p1008
g863
F0.6989
tp1009
a(S'here'
p1010
g108
F0.9909
tp1011
a(S'with'
p1012
g342
F0.9985
tp1013
a(S'chi'
p1014
g181
F0.9022
tp1015
a(S'and'
p1016
g399
F0.9981
tp1017
a(S'eat'
p1018
g7
F0.998
tp1019
a(S'your'
p1020
g28
F0.9937
tp1021
a(S'food'
p1022
g31
F0.9969
tp1023
asI149
(lp1024
(S'chi'
p1025
g181
F0.68
tp1026
a(S'don'
p1027
g181
F0.8746
tp1028
a(g183
g181
F0.5341
tp1029
a(S'do'
p1030
g7
F0.9955
tp1031
a(S'that'
p1032
g10
F0.8584
tp1033
asI150
(lp1034
(S'you'
p1035
g10
F0.9926
tp1036
a(S'don'
p1037
g7
F0.8675
tp1038
a(g183
g117
F0.5086
tp1039
a(S'xxx'
p1040
g117
F0.4334
tp1041
a(S'you'
p1042
g10
F0.9938
tp1043
a(S'don'
p1044
g7
F0.8626
tp1045
a(g183
g31
F0.2762
tp1046
a(S'understand'
p1047
g7
F0.9849
tp1048
a(S'where'
p1049
g108
F0.9906
tp1050
a(S'you'
p1051
g10
F0.9987
tp1052
a(S'are'
p1053
g7
F0.9982
tp1054
asI151
(lp1055
(S'xxx'
p1056
g3
F0.6944
tp1057
a(S'mom'
p1058
g31
F0.8217
tp1059
asI152
(lp1060
(S'okay'
p1061
g17
F0.9857
tp1062
asI153
(lp1063
(S'is'
p1064
g7
F0.998
tp1065
a(S'that'
p1066
g10
F0.9253
tp1067
a(S'xxx'
p1068
g3
F0.5748
tp1069
asI154
(lp1070
(S'don'
p1071
g181
F0.5427
tp1072
a(g183
g181
F0.549
tp1073
a(S'touch'
p1074
g7
F0.8542
tp1075
a(S'the'
p1076
g28
F0.9994
tp1077
a(S'picture'
p1078
g31
F0.9899
tp1079
asI155
(lp1080
(S'don'
p1081
g181
F0.4468
tp1082
a(g183
g181
F0.462
tp1083
a(S'touch'
p1084
g31
F0.5526
tp1085
asI156
(lp1086
(S'don'
p1087
g181
F0.4468
tp1088
a(g183
g181
F0.462
tp1089
a(S'touch'
p1090
g31
F0.5526
tp1091
asI157
(lp1092
(S'you'
p1093
g10
F0.9754
tp1094
a(S're'
p1095
g7
F0.5918
tp1096
a(S'gonna'
p1097
g7
F0.9856
tp1098
a(S'break'
p1099
g7
F0.9993
tp1100
a(S'it'
p1101
g10
F0.9871
tp1102
asI158
(lp1103
(S'gonna'
p1104
g7
F0.9709
tp1105
a(S'break'
p1106
g7
F0.9996
tp1107
a(S'it'
p1108
g10
F0.988
tp1109
asI159
(lp1110
(S'don'
p1111
g181
F0.5427
tp1112
a(g183
g181
F0.549
tp1113
a(S'touch'
p1114
g7
F0.8767
tp1115
a(S'the'
p1116
g28
F0.9994
tp1117
a(S'stereo'
p1118
g31
F0.9671
tp1119
a(S'and'
p1120
g399
F0.9966
tp1121
a(S'sit'
p1122
g7
F0.9657
tp1123
asI160
(lp1124
(S'sit'
p1125
g7
F0.993
tp1126
a(S'up'
p1127
g863
F0.9908
tp1128
asI161
(lp1129
(S'don'
p1130
g181
F0.5427
tp1131
a(g183
g181
F0.4522
tp1132
a(S'make'
p1133
g7
F0.9898
tp1134
a(g46
g28
F0.9945
tp1135
a(S'mess'
p1136
g31
F0.9867
tp1137
a(S'now'
p1138
g108
F0.9934
tp1139
a(S'bro'
p1140
g31
F0.8297
tp1141
asI162
(lp1142
(S'whoops'
p1143
g17
F0.9789
tp1144
asI163
(lp1145
(S'look'
p1146
g7
F0.8919
tp1147
a(S'what'
p1148
g10
F0.9859
tp1149
a(S'you'
p1150
g10
F0.9998
tp1151
a(S'did'
p1152
g7
F0.9976
tp1153
asI164
(lp1154
(S'did'
p1155
g7
F0.9986
tp1156
a(S'you'
p1157
g10
F0.9993
tp1158
a(S'do'
p1159
g7
F0.9999
tp1160
a(S'that'
p1161
g10
F0.8292
tp1162
asI165
(lp1163
(S'you'
p1164
g10
F0.9944
tp1165
a(S'be'
p1166
g7
F0.9978
tp1167
a(S'careful'
p1168
g13
F0.9231
tp1169
asI166
(lp1170
(S'xxx'
p1171
g3
F0.8437
tp1172
asI167
(lp1173
(S'chi'
p1174
g181
F0.68
tp1175
a(S'don'
p1176
g181
F0.8746
tp1177
a(g183
g181
F0.5692
tp1178
a(S'eat'
p1179
g7
F0.9693
tp1180
a(S'all'
p1181
g28
F0.6201
tp1182
a(S'the'
p1183
g28
F0.9992
tp1184
a(S'milk'
p1185
g31
F0.9969
tp1186
a(S'try'
p1187
g7
F0.8805
tp1188
a(S'to'
p1189
g342
F0.9935
tp1190
a(S'eat'
p1191
g7
F0.9993
tp1192
a(S'all'
p1193
g28
F0.8549
tp1194
a(S'your'
p1195
g28
F0.9862
tp1196
a(S'cereal'
p1197
g31
F0.9981
tp1198
a(S'together'
p1199
g108
F0.8863
tp1200
asI168
(lp1201
(S'huh'
p1202
g17
F0.993
tp1203
asI169
(lp1204
(S'yeah'
p1205
g17
F0.9988
tp1206
asI170
(lp1207
(S'yeah'
p1208
g17
F0.9988
tp1209
asI171
(lp1210
(S'yeah'
p1211
g17
F0.9988
tp1212
asI172
(lp1213
(S'exercise'
p1214
g31
F0.8906
tp1215
asI173
(lp1216
(S'huh'
p1217
g17
F0.993
tp1218
asI174
(lp1219
(S'exercise'
p1220
g31
F0.8906
tp1221
asI175
(lp1222
(S'no'
p1223
g17
F0.6532
tp1224
a(g23
g10
F0.9247
tp1225
a(S'm'
p1226
g7
F0.9794
tp1227
a(S'not'
p1228
g108
F0.9956
tp1229
a(S'gonna'
p1230
g7
F0.9986
tp1231
a(S'do'
p1232
g7
F0.9999
tp1233
a(S'no'
p1234
g28
F0.9818
tp1235
a(S'exercises'
p1236
g31
F0.999
tp1237
asI176
(lp1238
(S'it'
p1239
g10
F0.9888
tp1240
a(g116
g7
F0.5384
tp1241
a(S'too'
p1242
g108
F0.9975
tp1243
a(S'late'
p1244
g13
F0.9696
tp1245
asI177
(lp1246
(S'it'
p1247
g10
F0.9888
tp1248
a(g116
g7
F0.5384
tp1249
a(S'too'
p1250
g108
F0.9975
tp1251
a(S'late'
p1252
g13
F0.9696
tp1253
asI178
(lp1254
(g23
g10
F0.9586
tp1255
a(g1226
g7
F0.9847
tp1256
a(S'tired'
p1257
g13
F0.8635
tp1258
asI179
(lp1259
(S'tired'
p1260
g13
F0.8122
tp1261
asI180
(lp1262
(S'too'
p1263
g108
F0.9915
tp1264
a(S'hot'
p1265
g13
F0.9973
tp1266
asI181
(lp1267
(S'too'
p1268
g108
F0.9915
tp1269
a(S'hot'
p1270
g13
F0.9973
tp1271
asI182
(lp1272
(S'uhhum'
p1273
g17
F0.9859
tp1274
asI183
(lp1275
(S'yeah'
p1276
g17
F0.9903
tp1277
a(S'it'
p1278
g10
F0.9949
tp1279
a(g116
g7
F0.4496
tp1280
a(S'real'
p1281
g13
F0.7266
tp1282
a(S'hot'
p1283
g13
F0.9567
tp1284
asI184
(lp1285
(S'it'
p1286
g10
F0.9888
tp1287
a(g116
g7
F0.5384
tp1288
a(S'too'
p1289
g108
F0.9928
tp1290
a(S'hot'
p1291
g13
F0.994
tp1292
asI185
(lp1293
(g23
g10
F0.9873
tp1294
a(S'do'
p1295
g7
F1.0
tp1296
a(S'it'
p1297
g10
F0.9899
tp1298
a(S'with'
p1299
g342
F0.9982
tp1300
a(g183
g117
F0.6159
tp1301
a(S'v'
p1302
g117
F0.7732
tp1303
asI186
(lp1304
(S'exercise'
p1305
g31
F0.8906
tp1306
asI187
(lp1307
(g23
g10
F0.9895
tp1308
a(S'got'
p1309
g7
F0.9999
tp1310
a(S'it'
p1311
g10
F0.9867
tp1312
asI188
(lp1313
(S'mhm'
p1314
g17
F0.9747
tp1315
asI189
(lp1316
(S'oh'
p1317
g17
F0.9983
tp1318
a(g23
g10
F0.9935
tp1319
a(S'won'
p1320
g7
F0.9912
tp1321
asI190
(lp1322
(g23
g10
F0.9764
tp1323
a(S'hope'
p1324
g7
F0.9996
tp1325
a(S'this'
p1326
g28
F0.9619
tp1327
a(S'thing'
p1328
g31
F0.9981
tp1329
a(g116
g117
F0.5128
tp1330
a(S'working'
p1331
g7
F0.9882
tp1332
asI191
(lp1333
(S'xxx'
p1334
g3
F0.8304
tp1335
a(S'how'
p1336
g108
F0.972
tp1337
a(S'this'
p1338
g28
F0.9322
tp1339
a(S'tapes'
p1340
g31
F0.9983
tp1341
asI192
(lp1342
(S'the'
p1343
g28
F0.9989
tp1344
a(S'pictures'
p1345
g31
F0.9962
tp1346
asI193
(lp1347
(S'xxx'
p1348
g3
F0.8437
tp1349
asI194
(lp1350
(S'xxx'
p1351
g3
F0.5336
tp1352
a(S'crying'
p1353
g7
F0.9971
tp1354
asI195
(lp1355
(S'what'
p1356
g10
F0.9739
tp1357
a(g116
g117
F0.4595
tp1358
a(S'wrong'
p1359
g13
F0.9525
tp1360
asI196
(lp1361
(S'my'
p1362
g28
F0.9932
tp1363
a(S'milk'
p1364
g31
F0.9989
tp1365
asI197
(lp1366
(S'be'
p1367
g7
F0.9805
tp1368
a(S'careful'
p1369
g13
F0.9695
tp1370
asI198
(lp1371
(S'look'
p1372
g7
F0.9901
tp1373
a(S'it'
p1374
g10
F0.9961
tp1375
asI199
(lp1376
(S'mom'
p1377
g31
F0.7188
tp1378
asI200
(lp1379
(S'what'
p1380
g10
F0.949
tp1381
asI201
(lp1382
(S'come'
p1383
g7
F0.9843
tp1384
a(S'here'
p1385
g108
F0.9694
tp1386
asI202
(lp1387
(S'what'
p1388
g10
F0.9739
tp1389
a(g116
g117
F0.4595
tp1390
a(S'wrong'
p1391
g13
F0.9525
tp1392
asI203
(lp1393
(S'what'
p1394
g10
F0.9784
tp1395
a(g116
g117
F0.4512
tp1396
a(S'wrong'
p1397
g13
F0.9137
tp1398
a(S'with'
p1399
g342
F0.9997
tp1400
a(S'your'
p1401
g28
F0.9978
tp1402
a(S'mouth'
p1403
g31
F0.9997
tp1404
asI204
(lp1405
(S'nothing'
p1406
g31
F0.98
tp1407
a(S'right'
p1408
g17
F0.4211
tp1409
asI205
(lp1410
(S'your'
p1411
g28
F0.9799
tp1412
a(S'mouth'
p1413
g31
F0.9999
tp1414
a(S'is'
p1415
g7
F0.9947
tp1416
a(S'alright'
p1417
g17
F0.5842
tp1418
asI206
(lp1419
(S'there'
p1420
g114
F0.4664
tp1421
a(g116
g117
F0.5218
tp1422
a(S'nothing'
p1423
g31
F0.9896
tp1424
a(S'wrong'
p1425
g13
F0.8915
tp1426
asI207
(lp1427
(S'with'
p1428
g342
F0.9896
tp1429
a(S'what'
p1430
g10
F0.9923
tp1431
asI208
(lp1432
(S'what'
p1433
g10
F0.949
tp1434
asI209
(lp1435
(S'huh'
p1436
g17
F0.993
tp1437
asI210
(lp1438
(S'huh'
p1439
g17
F0.993
tp1440
asI211
(lp1441
(S'huh'
p1442
g17
F0.993
tp1443
asI212
(lp1444
(S'huh'
p1445
g17
F0.993
tp1446
asI213
(lp1447
(S'huh'
p1448
g17
F0.993
tp1449
asI214
(lp1450
(S'huh'
p1451
g17
F0.993
tp1452
asI215
(lp1453
(S'it'
p1454
g10
F0.9888
tp1455
a(g116
g7
F0.5544
tp1456
a(S'not'
p1457
g108
F0.992
tp1458
a(S'working'
p1459
g7
F0.9944
tp1460
asI216
(lp1461
(S'it'
p1462
g10
F0.9979
tp1463
a(S'is'
p1464
g7
F0.9993
tp1465
a(S'working'
p1466
g7
F0.9589
tp1467
a(g23
g10
F0.9906
tp1468
a(S'hope'
p1469
g7
F0.9999
tp1470
a(S'it'
p1471
g10
F0.9979
tp1472
a(S'is'
p1473
g7
F0.9989
tp1474
asI217
(lp1475
(S'no'
p1476
g17
F0.9253
tp1477
asI218
(lp1478
(g23
g10
F0.9891
tp1479
a(S'broke'
p1480
g7
F0.7632
tp1481
asI219
(lp1482
(S'it'
p1483
g10
F0.9888
tp1484
a(g116
g7
F0.5544
tp1485
a(S'not'
p1486
g108
F0.992
tp1487
a(S'working'
p1488
g7
F0.9944
tp1489
asI220
(lp1490
(S'finish'
p1491
g7
F0.94
tp1492
a(S'eating'
p1493
g7
F0.9987
tp1494
a(S'the'
p1495
g28
F0.9997
tp1496
a(S'whole'
p1497
g13
F0.9468
tp1498
a(S'bowl'
p1499
g31
F0.9963
tp1500
a(S'okay'
p1501
g17
F0.8746
tp1502
asI221
(lp1503
(S'okay'
p1504
g17
F0.9857
tp1505
asI222
(lp1506
(S'don'
p1507
g181
F0.5427
tp1508
a(g183
g181
F0.549
tp1509
a(S'touch'
p1510
g7
F0.8542
tp1511
a(S'the'
p1512
g28
F0.9993
tp1513
a(S'tape'
p1514
g31
F0.9974
tp1515
asI223
(lp1516
(g23
g10
F0.9586
tp1517
a(g1226
g7
F0.9718
tp1518
a(S'finished'
p1519
g7
F0.9913
tp1520
asI224
(lp1521
(S'you'
p1522
g10
F0.997
tp1523
a(S'finished'
p1524
g7
F0.9967
tp1525
asI225
(lp1526
(S'mhm'
p1527
g17
F0.9747
tp1528
asI226
(lp1529
(S'mhm'
p1530
g17
F0.9747
tp1531
asI227
(lp1532
(S'yeah'
p1533
g17
F0.9988
tp1534
asI228
(lp1535
(S'finish'
p1536
g7
F0.9797
tp1537
a(S'this'
p1538
g10
F0.6226
tp1539
asI229
(lp1540
(S'come'
p1541
g7
F0.9849
tp1542
a(S'on'
p1543
g863
F0.5632
tp1544
asI230
(lp1545
(S'hm'
p1546
g17
F0.995
tp1547
asI231
(lp1548
(S'come'
p1549
g7
F0.9849
tp1550
a(S'on'
p1551
g863
F0.5632
tp1552
asI232
(lp1553
(S'bro'
p1554
g31
F0.7177
tp1555
a(S'you'
p1556
g10
F0.9938
tp1557
a(S'almost'
p1558
g108
F0.9905
tp1559
a(S'done'
p1560
g7
F0.9518
tp1561
asI233
(lp1562
(S'no'
p1563
g17
F0.6652
tp1564
a(S'yet'
p1565
g108
F0.7467
tp1566
asI234
(lp1567
(S'not'
p1568
g108
F0.9972
tp1569
a(S'yet'
p1570
g108
F0.9661
tp1571
asI235
(lp1572
(S'want'
p1573
g7
F0.9975
tp1574
a(S'some'
p1575
g28
F0.9918
tp1576
a(S'juice'
p1577
g31
F0.9689
tp1578
a(S'chi'
p1579
g117
F0.5006
tp1580
asI236
(lp1581
(S'xxx'
p1582
g3
F0.8437
tp1583
asI237
(lp1584
(S'want'
p1585
g7
F0.9966
tp1586
a(S'some'
p1587
g28
F0.9918
tp1588
a(S'juice'
p1589
g31
F0.9848
tp1590
asI238
(lp1591
(S'no'
p1592
g17
F0.9003
tp1593
a(S'thank'
p1594
g7
F0.9286
tp1595
a(S'you'
p1596
g10
F0.999
tp1597
asI239
(lp1598
(S'no'
p1599
g17
F0.9003
tp1600
a(S'thank'
p1601
g7
F0.9286
tp1602
a(S'you'
p1603
g10
F0.999
tp1604
asI240
(lp1605
(S'want'
p1606
g7
F0.9966
tp1607
a(S'some'
p1608
g28
F0.9912
tp1609
a(S'milk'
p1610
g31
F0.9974
tp1611
asI241
(lp1612
(S'no'
p1613
g17
F0.9003
tp1614
a(S'thank'
p1615
g7
F0.9286
tp1616
a(S'you'
p1617
g10
F0.999
tp1618
asI242
(lp1619
(S'no'
p1620
g17
F0.9003
tp1621
a(S'thank'
p1622
g7
F0.9286
tp1623
a(S'you'
p1624
g10
F0.999
tp1625
asI243
(lp1626
(S'no'
p1627
g17
F0.9253
tp1628
asI244
(lp1629
(S'no'
p1630
g17
F0.9003
tp1631
a(S'thank'
p1632
g7
F0.9286
tp1633
a(S'you'
p1634
g10
F0.999
tp1635
asI245
(lp1636
(S'want'
p1637
g7
F0.9966
tp1638
a(S'some'
p1639
g28
F0.9912
tp1640
a(S'milk'
p1641
g31
F0.9974
tp1642
asI246
(lp1643
(S'yeah'
p1644
g17
F0.9988
tp1645
asI247
(lp1646
(S'you'
p1647
g10
F0.995
tp1648
a(S'already'
p1649
g108
F0.9933
tp1650
a(S'got'
p1651
g7
F0.9959
tp1652
a(S'milk'
p1653
g31
F0.9953
tp1654
a(S'in'
p1655
g342
F0.9935
tp1656
a(S'there'
p1657
g108
F0.5783
tp1658
asI248
(lp1659
(S'finish'
p1660
g7
F0.9909
tp1661
a(S'your'
p1662
g28
F0.9921
tp1663
a(S'cereal'
p1664
g31
F0.9985
tp1665
asI249
(lp1666
(S'put'
p1667
g7
F0.9764
tp1668
a(S'this'
p1669
g10
F0.7315
tp1670
a(S'in'
p1671
g342
F0.9298
tp1672
a(S'the'
p1673
g28
F0.997
tp1674
a(S'sink'
p1675
g31
F0.9811
tp1676
asI250
(lp1677
(S'xxx'
p1678
g3
F0.8437
tp1679
asI251
(lp1680
(S'no'
p1681
g17
F0.7224
tp1682
a(S'xxx'
p1683
g31
F0.3245
tp1684
a(S'no'
p1685
g17
F0.5052
tp1686
a(S'no'
p1687
g17
F0.645
tp1688
asI252
(lp1689
(g23
g10
F0.9902
tp1690
a(S'want'
p1691
g7
F0.9997
tp1692
a(S'juice'
p1693
g31
F0.9612
tp1694
asI253
(lp1695
(S'there'
p1696
g114
F0.4664
tp1697
a(g116
g117
F0.5367
tp1698
a(S'no'
p1699
g28
F0.4778
tp1700
a(S'more'
p1701
g108
F0.5385
tp1702
a(S'now'
p1703
g108
F0.9955
tp1704
asI254
(lp1705
(g23
g10
F0.9902
tp1706
a(S'want'
p1707
g7
F0.9997
tp1708
a(S'juice'
p1709
g31
F0.9612
tp1710
asI255
(lp1711
(g23
g10
F0.9896
tp1712
a(S'have'
p1713
g7
F0.9998
tp1714
a(S'to'
p1715
g342
F0.9934
tp1716
a(S'make'
p1717
g7
F0.9995
tp1718
a(S'it'
p1719
g10
F0.8482
tp1720
asI256
(lp1721
(g23
g10
F0.9902
tp1722
a(S'want'
p1723
g7
F0.9997
tp1724
a(S'milk'
p1725
g31
F0.9934
tp1726
asI257
(lp1727
(S'well'
p1728
g108
F0.5656
tp1729
a(S'here'
p1730
g108
F0.9824
tp1731
a(S'put'
p1732
g7
F0.9176
tp1733
a(S'this'
p1734
g10
F0.6966
tp1735
a(S'in'
p1736
g342
F0.9508
tp1737
a(S'the'
p1738
g28
F0.9961
tp1739
a(S'sink'
p1740
g31
F0.9855
tp1741
asI258
(lp1742
(g23
g10
F0.9902
tp1743
a(S'want'
p1744
g7
F0.9997
tp1745
a(S'milk'
p1746
g31
F0.9934
tp1747
asI259
(lp1748
(S'xxx'
p1749
g3
F0.8437
tp1750
asI260
(lp1751
(S'you'
p1752
g10
F0.9963
tp1753
a(S'finish'
p1754
g7
F0.9998
tp1755
a(S'your'
p1756
g28
F0.9927
tp1757
a(S'cereal'
p1758
g31
F0.9955
tp1759
a(S'and'
p1760
g399
F0.9959
tp1761
a(S'you'
p1762
g10
F0.9995
tp1763
a(S'can'
p1764
g7
F0.9997
tp1765
a(S'have'
p1766
g7
F0.9998
tp1767
a(S'some'
p1768
g28
F0.9654
tp1769
a(S'more'
p1770
g13
F0.9289
tp1771
asI261
(lp1772
(S'don'
p1773
g181
F0.5427
tp1774
a(g183
g181
F0.549
tp1775
a(S'touch'
p1776
g7
F0.8542
tp1777
a(S'the'
p1778
g28
F0.9993
tp1779
a(S'tape'
p1780
g31
F0.9974
tp1781
asI262
(lp1782
(S'huh'
p1783
g17
F0.9713
tp1784
a(S'chi'
p1785
g181
F0.5048
tp1786
a(S'come'
p1787
g7
F0.9922
tp1788
a(S'here'
p1789
g108
F0.9854
tp1790
asI263
(lp1791
(S'chi'
p1792
g17
F0.4684
tp1793
asI264
(lp1794
(S'huh'
p1795
g17
F0.993
tp1796
asI265
(lp1797
(S'come'
p1798
g7
F0.9843
tp1799
a(S'here'
p1800
g108
F0.9694
tp1801
asI266
(lp1802
(S'huh'
p1803
g17
F0.993
tp1804
asI267
(lp1805
(S'what'
p1806
g10
F0.9739
tp1807
a(g116
g7
F0.4505
tp1808
a(S'that'
p1809
g10
F0.8603
tp1810
asI268
(lp1811
(S'don'
p1812
g181
F0.5427
tp1813
a(g183
g181
F0.462
tp1814
a(S'touch'
p1815
g7
F0.9278
tp1816
a(S'it'
p1817
g10
F0.9858
tp1818
asI269
(lp1819
(S'xxx'
p1820
g3
F0.8437
tp1821
asI270
(lp1822
(S'go'
p1823
g7
F0.9637
tp1824
a(S'sit'
p1825
g7
F0.9828
tp1826
a(S'down'
p1827
g863
F0.8371
tp1828
a(S'and'
p1829
g399
F0.9957
tp1830
a(S'eat'
p1831
g7
F0.9821
tp1832
asI271
(lp1833
(S'let'
p1834
g7
F0.8654
tp1835
a(g116
g117
F0.4154
tp1836
a(S'go'
p1837
g7
F0.9348
tp1838
asI272
(lp1839
(S'mommy'
p1840
g31
F0.4252
tp1841
a(S'my'
p1842
g28
F0.9661
tp1843
a(S'boom'
p1844
g31
F0.8824
tp1845
a(S'boom'
p1846
g31
F0.4292
tp1847
asI273
(lp1848
(S'your'
p1849
g28
F0.8496
tp1850
a(S'boom'
p1851
g31
F0.8604
tp1852
a(S'boom'
p1853
g31
F0.5277
tp1854
a(S'hurt'
p1855
g7
F0.8828
tp1856
asI274
(lp1857
(S'why'
p1858
g108
F0.885
tp1859
a(S'your'
p1860
g28
F0.8886
tp1861
a(S'boom'
p1862
g31
F0.8974
tp1863
a(S'boom'
p1864
g31
F0.5789
tp1865
a(S'hurt'
p1866
g7
F0.9609
tp1867
asI275
(lp1868
(S'picture'
p1869
g31
F0.9292
tp1870
a(S'pictures'
p1871
g31
F0.963
tp1872
asI276
(lp1873
(S'come'
p1874
g7
F0.9897
tp1875
a(S'on'
p1876
g342
F0.8983
tp1877
a(S'come'
p1878
g7
F0.842
tp1879
a(S'on'
p1880
g342
F0.9126
tp1881
a(S'sit'
p1882
g7
F0.8973
tp1883
a(S'down'
p1884
g863
F0.909
tp1885
asI277
(lp1886
(S'okay'
p1887
g17
F0.9857
tp1888
asI278
(lp1889
(S'don'
p1890
g181
F0.5427
tp1891
a(g183
g181
F0.5086
tp1892
a(S'spill'
p1893
g7
F0.8334
tp1894
a(S'the'
p1895
g28
F0.9991
tp1896
a(S'carton'
p1897
g31
F0.965
tp1898
asI279
(lp1899
(S'okay'
p1900
g17
F0.9857
tp1901
asI280
(lp1902
(S'thanks'
p1903
g31
F0.857
tp1904
a(S'mommy'
p1905
g31
F0.805
tp1906
asI281
(lp1907
(S'you'
p1908
g10
F0.963
tp1909
a(S're'
p1910
g7
F0.5951
tp1911
a(S'welcome'
p1912
g7
F0.4795
tp1913
asI282
(lp1914
(S'xxx'
p1915
g3
F0.8437
tp1916
asI283
(lp1917
(S'hurry'
p1918
g7
F0.9546
tp1919
a(S'up'
p1920
g863
F0.965
tp1921
a(S'and'
p1922
g399
F0.9969
tp1923
a(S'finish'
p1924
g7
F0.9416
tp1925
a(S'xxx'
p1926
g7
F0.3989
tp1927
a(S'you'
p1928
g10
F0.9995
tp1929
a(S'ought'
p1930
g7
F0.9978
tp1931
a(S'to'
p1932
g342
F0.9857
tp1933
a(S'go'
p1934
g7
F0.9993
tp1935
a(S'to'
p1936
g342
F0.9868
tp1937
a(S'bed'
p1938
g31
F0.8078
tp1939
asI284
(lp1940
(S'xxx'
p1941
g3
F0.8437
tp1942
asI285
(lp1943
(S'huh'
p1944
g17
F0.993
tp1945
asI286
(lp1946
(S'xxx'
p1947
g3
F0.8437
tp1948
asI287
(lp1949
(S'if'
p1950
g342
F0.9977
tp1951
a(S'you'
p1952
g10
F0.9982
tp1953
a(S're'
p1954
g7
F0.8332
tp1955
a(S'good'
p1956
g13
F0.9903
tp1957
a(S'maybe'
p1958
g108
F0.9658
tp1959
a(S'we'
p1960
g10
F0.9984
tp1961
a(S'can'
p1962
g7
F0.9996
tp1963
a(S'go'
p1964
g7
F0.997
tp1965
a(S'shopping'
p1966
g31
F0.5474
tp1967
a(S'with'
p1968
g342
F0.9989
tp1969
a(S'grandma'
p1970
g31
F0.9549
tp1971
a(S'tonight'
p1972
g31
F0.5551
tp1973
asI288
(lp1974
(S'huh'
p1975
g17
F0.993
tp1976
asI289
(lp1977
(S'go'
p1978
g7
F0.9221
tp1979
a(S'shopping'
p1980
g31
F0.5192
tp1981
a(S'with'
p1982
g342
F0.9962
tp1983
a(S'grandma'
p1984
g31
F0.9616
tp1985
a(S'tonight'
p1986
g108
F0.6191
tp1987
asI290
(lp1988
(S'xxx'
p1989
g3
F0.6944
tp1990
a(S'grandma'
p1991
g31
F0.7636
tp1992
asI291
(lp1993
(S'you'
p1994
g10
F0.998
tp1995
a(S'want'
p1996
g7
F0.9997
tp1997
a(S'to'
p1998
g342
F0.9738
tp1999
a(S'go'
p2000
g7
F0.9965
tp2001
a(S'shopping'
p2002
g31
F0.5474
tp2003
a(S'with'
p2004
g342
F0.9985
tp2005
a(S'grandma'
p2006
g31
F0.9445
tp2007
a(S'tonight'
p2008
g108
F0.5451
tp2009
asI292
(lp2010
(S'yeah'
p2011
g17
F0.9988
tp2012
asI293
(lp2013
(S'yeah'
p2014
g17
F0.9988
tp2015
asI294
(lp2016
(S'yeah'
p2017
g17
F0.9988
tp2018
asI295
(lp2019
(S'sit'
p2020
g7
F0.9825
tp2021
a(S'down'
p2022
g863
F0.9271
tp2023
asI296
(lp2024
(g23
g10
F0.9635
tp2025
a(S'don'
p2026
g7
F0.9231
tp2027
a(g183
g31
F0.2503
tp2028
a(S'want'
p2029
g7
F0.9959
tp2030
a(S'to'
p2031
g342
F0.9907
tp2032
a(S'sit'
p2033
g7
F0.9993
tp2034
a(S'down'
p2035
g863
F0.8745
tp2036
asI297
(lp2037
(S'finish'
p2038
g7
F0.9934
tp2039
a(S'your'
p2040
g28
F0.9926
tp2041
a(S'dinner'
p2042
g31
F0.9954
tp2043
a(S'and'
p2044
g399
F0.9969
tp2045
a(S'drink'
p2046
g7
F0.9899
tp2047
a(S'your'
p2048
g28
F0.9808
tp2049
a(S'milk'
p2050
g31
F0.9991
tp2051
asI298
(lp2052
(S'xxx'
p2053
g3
F0.8437
tp2054
asI299
(lp2055
(S'that'
p2056
g10
F0.473
tp2057
a(g116
g7
F0.509
tp2058
a(S'the'
p2059
g28
F0.999
tp2060
a(S'milk'
p2061
g31
F0.9977
tp2062
asI300
(lp2063
(S'okay'
p2064
g17
F0.9469
tp2065
a(S'you'
p2066
g10
F0.9883
tp2067
a(S're'
p2068
g7
F0.9327
tp2069
a(S'all'
p2070
g28
F0.5794
tp2071
a(S'finished'
p2072
g7
F0.9375
tp2073
as.