(dp0
I18
(lp1
(S'okay'
p2
S'!'
p3
F0.5073
tp4
a(S'girls'
p5
S'N'
p6
F0.9672
tp7
a(S"it's"
p8
S'L'
p9
F0.9802
tp10
a(S'time'
p11
g6
F0.981
tp12
a(S'for'
p13
S'P'
p14
F0.9994
tp15
a(S'supper'
p16
g6
F0.9385
tp17
a(S"let's"
p18
g9
F0.9832
tp19
a(S'go'
p20
S'V'
p21
F0.9898
tp22
a(g3
S','
p23
F0.9979
tp24
asI25
(lp25
(S'Wubby'
p26
S'^'
p27
F0.3421
tp28
a(S'['
p29
g23
F0.9764
tp30
a(S'?'
p31
g23
F0.976
tp32
a(S']'
p33
g23
F0.9188
tp34
a(S'what'
p35
S'O'
p36
F0.9815
tp37
a(S'are'
p38
g21
F0.9927
tp39
a(S'we'
p40
g36
F0.9984
tp41
a(S'eating'
p42
g21
F0.9983
tp43
a(g31
g23
F0.9972
tp44
asI29
(lp45
(S'xxx'
p46
S'E'
p47
F0.6993
tp48
a(S'cucumbers'
p49
g6
F0.9035
tp50
a(S'.'
p51
g23
F0.9987
tp52
asI32
(lp53
(S'cucumbers'
p54
g27
F0.4845
tp55
a(S'and'
p56
S'&'
p57
F0.9986
tp58
a(S'what'
p59
g36
F0.991
tp60
a(S'else'
p61
S'R'
p62
F0.8951
tp63
a(S'(.)'
p64
g47
F0.3158
tp65
a(g31
g23
F0.9618
tp66
asI36
(lp67
(S'&-um'
p68
g3
F0.9046
tp69
a(S'cucumbers'
p70
g6
F0.8159
tp71
a(g51
g23
F0.9987
tp72
asI39
(lp73
(S'what'
p74
g36
F0.9798
tp75
a(S'else'
p76
g62
F0.7535
tp77
a(S'are'
p78
g21
F0.997
tp79
a(S'you'
p80
g36
F0.9993
tp81
a(S'eating'
p82
g21
F0.9989
tp83
a(g31
g23
F0.9961
tp84
asI43
(lp85
(S'Mom'
p86
g6
F0.8046
tp87
a(S'+'
p88
S'G'
p89
F0.4361
tp90
a(S'...'
p91
S'~'
p92
F0.8309
tp93
asI47
(lp94
(S'xxx'
p95
g47
F0.7103
tp96
a(g31
g23
F0.9715
tp97
asI49
(lp98
(S'what'
p99
g36
F0.9511
tp100
a(S'(.)'
p101
g47
F0.3151
tp102
a(g31
g23
F0.9749
tp103
asI53
(lp104
(S'xxx'
p105
g47
F0.5822
tp106
a(g51
g23
F0.9648
tp107
asI55
(lp108
(S'yeah'
p109
g3
F0.9943
tp110
a(S'meat'
p111
g6
F0.9481
tp112
a(g31
g23
F0.9969
tp113
asI59
(lp114
(S'yes'
p115
g3
F0.9961
tp116
a(g51
g23
F0.9972
tp117
asI62
(lp118
(S'and'
p119
g57
F0.9988
tp120
a(S'what'
p121
g36
F0.9926
tp122
a(S'else'
p123
g62
F0.8413
tp124
a(S'are'
p125
g21
F0.9955
tp126
a(S'you'
p127
g36
F0.9992
tp128
a(S'eating'
p129
g21
F0.9983
tp130
a(g31
g23
F0.9968
tp131
asI67
(lp132
(S'xxx'
p133
g47
F0.8252
tp134
a(S'xxx'
p135
g47
F0.9283
tp136
a(S'get'
p137
g21
F0.9987
tp138
a(S'some'
p139
S'D'
p140
F0.9888
tp141
a(S'mustard'
p142
g6
F0.9925
tp143
a(S'come'
p144
g21
F0.9639
tp145
a(S'on'
p146
g14
F0.6318
tp147
a(g51
g23
F0.9971
tp148
asI71
(lp149
(S'where'
p150
g62
F0.9164
tp151
a(S'did'
p152
g21
F0.9986
tp153
a(S'you'
p154
g36
F0.9986
tp155
a(S'go'
p156
g21
F0.9993
tp157
a(S'the'
p158
g140
F0.9974
tp159
a(S'other'
p160
S'A'
p161
F0.9912
tp162
a(S'night'
p163
g6
F0.9716
tp164
a(S'Chi'
p165
g27
F0.7654
tp166
a(g31
g23
F0.9943
tp167
asI77
(lp168
(S'to'
p169
g14
F0.9981
tp170
a(S'the'
p171
g140
F0.9992
tp172
a(S'fireworks'
p173
g6
F0.998
tp174
a(g51
g23
F0.9986
tp175
asI80
(lp176
(S'zzz'
p177
g3
F0.3756
tp178
a(g51
g23
F0.9972
tp179
asI84
(lp180
(S'and'
p181
g57
F0.9988
tp182
a(S'what'
p183
g36
F0.9988
tp184
a(S'did'
p185
g21
F0.9963
tp186
a(S'we'
p187
g36
F0.9978
tp188
a(S'see'
p189
g21
F0.9987
tp190
a(S'there'
p191
g62
F0.6453
tp192
a(S'(.)'
p193
g47
F0.3575
tp194
a(g31
g23
F0.9768
tp195
asI88
(lp196
(S'colors'
p197
g6
F0.9808
tp198
a(g29
g23
F0.9868
tp199
a(g31
g23
F0.979
tp200
a(g33
g23
F0.9016
tp201
a(g51
g23
F0.9962
tp202
asI91
(lp203
(S'all'
p204
g140
F0.9858
tp205
a(S'colors'
p206
g6
F0.9965
tp207
a(g31
g23
F0.9979
tp208
asI95
(lp209
(S'and'
p210
g57
F0.9988
tp211
a(S'what'
p212
g36
F0.9938
tp213
a(S'else'
p214
g62
F0.8686
tp215
a(g31
g23
F0.9979
tp216
asI99
(lp217
(S'xxx'
p218
g47
F0.8981
tp219
a(g29
g23
F0.661
tp220
a(S'>'
p221
g47
F0.3811
tp222
a(g33
g23
F0.7604
tp223
a(g51
g23
F0.9962
tp224
asI100
(lp225
(S'xxx'
p226
g47
F0.8981
tp227
a(g29
g23
F0.6622
tp228
a(S'<'
p229
g92
F0.972
tp230
a(g33
g23
F0.9847
tp231
a(g51
g23
F0.9962
tp232
asI101
(lp233
(S'xxx'
p234
g47
F0.5822
tp235
a(g51
g23
F0.9648
tp236
asI102
(lp237
(S'and'
p238
g57
F0.9988
tp239
a(S'what'
p240
g36
F0.9988
tp241
a(S'did'
p242
g21
F0.9963
tp243
a(S'we'
p244
g36
F0.9977
tp245
a(S'go'
p246
g21
F0.9991
tp247
a(S'on'
p248
g14
F0.7948
tp249
a(g31
g23
F0.9969
tp250
asI105
(lp251
(S'or'
p252
g57
F0.9924
tp253
a(S'you'
p254
g36
F0.999
tp255
a(S'go'
p256
g21
F0.9982
tp257
a(S'on'
p258
g14
F0.9433
tp259
a(S'(.)'
p260
g27
F0.6445
tp261
a(g31
g23
F0.9934
tp262
asI109
(lp263
(S'xxx'
p264
g47
F0.5822
tp265
a(g51
g23
F0.9648
tp266
asI110
(lp267
(S'and'
p268
g57
F0.9988
tp269
a(S'what'
p270
g36
F0.9938
tp271
a(S'else'
p272
g62
F0.8686
tp273
a(g31
g23
F0.9979
tp274
asI113
(lp275
(S'and'
p276
g57
F0.9979
tp277
a(S'in'
p278
g14
F0.794
tp279
a(S'and'
p280
g57
F0.9949
tp281
a(S'out'
p282
g14
F0.6492
tp283
a(S'of'
p284
g14
F0.9984
tp285
a(S'the'
p286
g140
F0.9993
tp287
a(S'helicopters'
p288
g6
F0.9971
tp289
a(g51
g23
F0.9986
tp290
asI118
(lp291
(S'the'
p292
g140
F0.9989
tp293
a(S'helicopters'
p294
g6
F0.9982
tp295
a(g51
g23
F0.9986
tp296
asI121
(lp297
(S'what'
p298
g36
F0.9757
tp299
a(S'else'
p300
g62
F0.8472
tp301
a(g31
g23
F0.9976
tp302
asI124
(lp303
(S'and'
p304
g57
F0.9977
tp305
a(S'the'
p306
g140
F0.9983
tp307
a(S'horses'
p308
g6
F0.999
tp309
a(g51
g23
F0.9986
tp310
asI127
(lp311
(S'yeah'
p312
g3
F0.9986
tp313
a(g51
g23
F0.997
tp314
asI130
(lp315
(S'and'
p316
g57
F0.9988
tp317
a(S'what'
p318
g36
F0.9938
tp319
a(S'else'
p320
g62
F0.8686
tp321
a(g31
g23
F0.9979
tp322
asI133
(lp323
(S'and'
p324
g57
F0.9977
tp325
a(S'the'
p326
g140
F0.9872
tp327
a(S'&-um'
p328
g89
F0.6658
tp329
a(g88
g89
F0.7523
tp330
a(S'...'
p331
g92
F0.6673
tp332
asI137
(lp333
(S'and'
p334
g57
F0.9977
tp335
a(S'the'
p336
g140
F0.9872
tp337
a(S'&-um'
p338
g89
F0.6968
tp339
a(S'(.)'
p340
g89
F0.6744
tp341
a(S'the'
p342
g140
F0.9736
tp343
a(S'&-um'
p344
g89
F0.7196
tp345
a(S'(.)'
p346
g89
F0.3009
tp347
a(S'cars'
p348
g6
F0.9916
tp349
a(g51
g23
F0.9989
tp350
asI141
(lp351
(S'the'
p352
g140
F0.9991
tp353
a(S'cars'
p354
g6
F0.999
tp355
a(g51
g23
F0.9987
tp356
asI144
(lp357
(S'what'
p358
g36
F0.9777
tp359
a(S'about'
p360
g14
F0.9966
tp361
a(S'the'
p362
g140
F0.9996
tp363
a(S'motorcycles'
p364
g6
F0.9974
tp365
a(g31
g23
F0.9987
tp366
asI148
(lp367
(S"they're"
p368
g9
F0.9698
tp369
a(S'not'
p370
g62
F0.969
tp371
a(S'motorcycles'
p372
g6
F0.8349
tp373
a(S"they're"
p374
g9
F0.5398
tp375
a(S'bikes'
p376
g6
F0.9813
tp377
a(g3
g23
F0.9988
tp378
asI152
(lp379
(S'oh'
p380
g3
F0.9904
tp381
a(S'bikes'
p382
g6
F0.9693
tp383
a(g51
g23
F0.9987
tp384
asI155
(lp385
(S'excuse'
p386
g21
F0.9631
tp387
a(S'me'
p388
g36
F0.9986
tp389
a(g51
g23
F0.9983
tp390
asI159
(lp391
(S'and'
p392
g57
F0.9988
tp393
a(S'what'
p394
g36
F0.9988
tp395
a(S'did'
p396
g21
F0.9902
tp397
a(S'Auntie'
p398
g6
F0.4402
tp399
a(S'buy'
p400
g21
F0.9965
tp401
a(S'you'
p402
g36
F0.997
tp403
a(g31
g23
F0.9994
tp404
asI164
(lp405
(S'xxx'
p406
g47
F0.5822
tp407
a(g51
g23
F0.9648
tp408
asI165
(lp409
(S'a'
p410
g140
F0.9118
tp411
a(S'what'
p412
g36
F0.9575
tp413
a(g31
g23
F0.9924
tp414
asI168
(lp415
(S'xxx'
p416
g47
F0.5822
tp417
a(g51
g23
F0.9648
tp418
asI170
(lp419
(g229
g92
F0.9526
tp420
a(S'I'
p421
g36
F0.9983
tp422
a(S"can't"
p423
g21
F1.0
tp424
a(S'hear'
p425
g21
F0.9991
tp426
a(S'you'
p427
g36
F0.9986
tp428
a(g221
g47
F0.3773
tp429
a(g29
g47
F0.5345
tp430
a(g221
g47
F0.9555
tp431
a(g33
g23
F0.8291
tp432
a(g51
g23
F0.9959
tp433
asI173
(lp434
(g229
g92
F0.925
tp435
a(S'we'
p436
g36
F0.9971
tp437
a(S"can't"
p438
g21
F0.9999
tp439
a(S'hear'
p440
g21
F0.9991
tp441
a(S'you'
p442
g36
F0.9986
tp443
a(g221
g47
F0.3773
tp444
a(g29
g47
F0.535
tp445
a(g229
g92
F0.7916
tp446
a(g33
g23
F0.9861
tp447
a(g51
g23
F0.9959
tp448
asI176
(lp449
(S'talk'
p450
g21
F0.971
tp451
a(S'over'
p452
g14
F0.7858
tp453
a(S'here'
p454
g62
F0.9411
tp455
a(g51
g23
F0.9987
tp456
asI179
(lp457
(S'what'
p458
g36
F0.9965
tp459
a(S'did'
p460
g21
F0.989
tp461
a(S'Auntie'
p462
g6
F0.4461
tp463
a(S'buy'
p464
g21
F0.9882
tp465
a(S'you'
p466
g36
F0.9964
tp467
a(g31
g23
F0.9993
tp468
asI183
(lp469
(g410
g140
F0.9886
tp470
a(S'balloon'
p471
g6
F0.8167
tp472
a(S'(.)'
p473
g6
F0.2705
tp474
a(g51
g23
F0.9979
tp475
asI186
(lp476
(g410
g140
F0.9876
tp477
a(S'balloon'
p478
g6
F0.9525
tp479
a(g51
g23
F0.9982
tp480
asI189
(lp481
(S'yeah'
p482
g3
F0.9988
tp483
a(g31
g23
F0.9966
tp484
asI193
(lp485
(S'xxx'
p486
g47
F0.8981
tp487
a(g29
g23
F0.661
tp488
a(g221
g47
F0.3811
tp489
a(g33
g23
F0.7604
tp490
a(g51
g23
F0.9962
tp491
asI194
(lp492
(g229
g92
F0.8896
tp493
a(S'and'
p494
g57
F0.9988
tp495
a(S'what'
p496
g36
F0.9987
tp497
a(S'did'
p498
g21
F0.9993
tp499
a(S'you'
p500
g36
F0.9981
tp501
a(g221
g47
F0.3773
tp502
a(g29
g47
F0.535
tp503
a(g229
g92
F0.8293
tp504
a(g33
g23
F0.988
tp505
a(g57
g57
F0.9951
tp506
a(S'ha'
p507
g3
F0.8308
tp508
a(S'have_to'
p509
g21
F0.9869
tp510
a(S'eat'
p511
g21
F0.9859
tp512
a(g31
g23
F0.9987
tp513
asI199
(lp514
(S'the'
p515
g140
F0.9981
tp516
a(S'corn'
p517
g6
F0.9982
tp518
a(g29
g23
F0.9857
tp519
a(g31
g23
F0.9842
tp520
a(g33
g23
F0.9156
tp521
a(g51
g23
F0.995
tp522
asI202
(lp523
(S'what'
p524
g36
F0.9798
tp525
a(S'else'
p526
g62
F0.79
tp527
a(S'(.)'
p528
g89
F0.277
tp529
a(g31
g23
F0.9891
tp530
asI205
(lp531
(S"what's"
p532
g9
F0.9925
tp533
a(S'your'
p534
g140
F0.9798
tp535
a(S'favorite'
p536
g161
F0.5044
tp537
a(g31
g23
F0.9977
tp538
asI208
(lp539
(S'mm'
p540
g89
F0.3707
tp541
a(S'mm'
p542
g89
F0.7438
tp543
a(g88
g89
F0.7789
tp544
a(S'...'
p545
g92
F0.6127
tp546
asI212
(lp547
(S'macaroni'
p548
g27
F0.5293
tp549
a(g29
g23
F0.9855
tp550
a(g3
g23
F0.9888
tp551
a(g33
g23
F0.9754
tp552
a(g51
g23
F0.9962
tp553
asI215
(lp554
(S'yes'
p555
g3
F0.9898
tp556
a(S"what's"
p557
g9
F0.9951
tp558
a(S'your'
p559
g140
F0.9791
tp560
a(S'favorite'
p561
g161
F0.5975
tp562
a(g31
g23
F0.9983
tp563
asI219
(lp564
(S'&-um'
p565
g3
F0.9134
tp566
a(S'nothing'
p567
g6
F0.9869
tp568
a(g51
g23
F0.9984
tp569
asI222
(lp570
(S'no'
p571
g3
F0.5452
tp572
a(S'Chi'
p573
g27
F0.5942
tp574
a(S'talk'
p575
g21
F0.983
tp576
a(S'over'
p577
g14
F0.7937
tp578
a(S'here'
p579
g62
F0.9754
tp580
a(g51
g23
F0.9982
tp581
asI225
(lp582
(S'nothing'
p583
g6
F0.9908
tp584
a(g51
g23
F0.998
tp585
asI228
(lp586
(S'yes'
p587
g3
F0.9847
tp588
a(S'Bridget'
p589
g27
F0.9846
tp590
a(g51
g23
F0.9946
tp591
asI232
(lp592
(S'pizza'
p593
g6
F0.9435
tp594
a(g31
g23
F0.9968
tp595
asI235
(lp596
(S'what'
p597
g36
F0.9965
tp598
a(S'did'
p599
g21
F0.9994
tp600
a(S'you'
p601
g36
F0.9995
tp602
a(S'have'
p603
g21
F0.9924
tp604
a(g31
g23
F0.997
tp605
asI238
(lp606
(g421
g36
F0.9976
tp607
a(S"can't"
p608
g21
F1.0
tp609
a(S'hear'
p610
g21
F0.9994
tp611
a(S'you'
p612
g36
F0.9974
tp613
a(g51
g23
F0.9995
tp614
asI241
(lp615
(S'pizza'
p616
g6
F0.9624
tp617
a(g51
g23
F0.9983
tp618
asI246
(lp619
(S'you'
p620
g36
F0.9963
tp621
a(S'go'
p622
g21
F0.9985
tp623
a(S'in'
p624
g14
F0.9811
tp625
a(S'the'
p626
g140
F0.9992
tp627
a(S'pool'
p628
g6
F0.9984
tp629
a(S'today'
p630
g6
F0.9947
tp631
a(g31
g23
F0.9977
tp632
asI250
(lp633
(S'what'
p634
g36
F0.8195
tp635
a(S'pool'
p636
g6
F0.997
tp637
a(S'did'
p638
g21
F0.9989
tp639
a(S'you'
p640
g36
F0.9984
tp641
a(S'go'
p642
g21
F0.9992
tp643
a(S'in'
p644
g14
F0.8066
tp645
a(g31
g23
F0.9938
tp646
asI254
(lp647
(g410
g140
F0.9944
tp648
a(S'different'
p649
g161
F0.9971
tp650
a(S'pool'
p651
g6
F0.9993
tp652
a(S'than'
p653
g14
F0.9974
tp654
a(S'that'
p655
g140
F0.5946
tp656
a(S'pool'
p657
g6
F0.9986
tp658
a(g51
g23
F0.9989
tp659
asI257
(lp660
(S'you'
p661
g36
F0.998
tp662
a(S'went'
p663
g21
F0.9991
tp664
a(S'in'
p665
g14
F0.967
tp666
a(S'the'
p667
g140
F0.9997
tp668
a(S'big'
p669
g161
F0.9451
tp670
a(S'pool'
p671
g6
F0.9991
tp672
a(g31
g23
F0.9986
tp673
asI261
(lp674
(S'whose'
p675
g9
F0.725
tp676
a(S'pool'
p677
g6
F0.9951
tp678
a(S'is'
p679
g21
F0.999
tp680
a(S'that'
p681
g36
F0.9103
tp682
a(g31
g23
F0.9987
tp683
asI264
(lp684
(S'me'
p685
g36
F0.9951
tp686
a(g29
g23
F0.9901
tp687
a(g31
g23
F0.976
tp688
a(g33
g23
F0.9488
tp689
a(S"Daddy's"
p690
S'Z'
p691
F0.5663
tp692
a(S'and'
p693
g57
F0.9984
tp694
a(S'Jack'
p695
g27
F0.999
tp696
a(g29
g23
F0.9799
tp697
a(g31
g23
F0.9841
tp698
a(g33
g23
F0.9465
tp699
a(S'and'
p700
g57
F0.9988
tp701
a(S"Mom's"
p702
g6
F0.8736
tp703
a(g51
g23
F0.998
tp704
asI269
(lp705
(S'and'
p706
g57
F0.9985
tp707
a(S"David's"
p708
g691
F0.8173
tp709
a(g29
g23
F0.9771
tp710
a(g31
g23
F0.9842
tp711
a(g33
g23
F0.9156
tp712
a(g51
g23
F0.995
tp713
asI272
(lp714
(S'and'
p715
g57
F0.9987
tp716
a(S'do'
p717
g21
F0.9997
tp718
a(S'you'
p719
g36
F0.9997
tp720
a(S'know'
p721
g21
F0.9986
tp722
a(S'how'
p723
g62
F0.9928
tp724
a(S'to'
p725
g14
F0.9953
tp726
a(S'swim'
p727
g21
F0.9012
tp728
a(g31
g23
F0.9979
tp729
asI276
(lp730
(S'no'
p731
g3
F0.8389
tp732
a(g29
g23
F0.9935
tp733
a(g31
g23
F0.979
tp734
a(g33
g23
F0.9016
tp735
a(g51
g23
F0.9962
tp736
asI279
(lp737
(S'huh'
p738
g3
F0.9936
tp739
a(g31
g23
F0.9967
tp740
asI283
(lp741
(S'but'
p742
g57
F0.9916
tp743
a(S'Sandy'
p744
g27
F0.9993
tp745
a(S'do'
p746
g21
F0.9848
tp747
a(g51
g23
F0.9974
tp748
asI286
(lp749
(S'but'
p750
g57
F0.9916
tp751
a(S'Sandy'
p752
g27
F0.9992
tp753
a(S'does'
p754
g21
F0.9795
tp755
a(g31
g23
F0.9979
tp756
asI289
(lp757
(S'yeah'
p758
g3
F0.9986
tp759
a(g51
g23
F0.997
tp760
asI292
(lp761
(S'what'
p762
g36
F0.9931
tp763
a(S'do'
p764
g21
F0.9993
tp765
a(S'you'
p766
g36
F0.9993
tp767
a(S'wear'
p768
g21
F0.9961
tp769
a(S'on'
p770
g14
F0.9698
tp771
a(S'your'
p772
g140
F0.9956
tp773
a(S'arms'
p774
g6
F0.9976
tp775
a(g31
g23
F0.9981
tp776
asI296
(lp777
(g421
g36
F0.9976
tp778
a(S"don't"
p779
g21
F1.0
tp780
a(S'know'
p781
g21
F0.9986
tp782
a(g51
g23
F0.9981
tp783
asI299
(lp784
(g421
g36
F0.9976
tp785
a(S"can't"
p786
g21
F1.0
tp787
a(S'hear'
p788
g21
F0.9994
tp789
a(S'you'
p790
g36
F0.9974
tp791
a(g51
g23
F0.9995
tp792
asI302
(lp793
(S'xxx'
p794
g47
F0.5822
tp795
a(g51
g23
F0.9648
tp796
asI304
(lp797
(S'water'
p798
g6
F0.9246
tp799
a(S'wings'
p800
g6
F0.9967
tp801
a(S'(.)'
p802
g89
F0.37
tp803
a(g31
g23
F0.9891
tp804
asI310
(lp805
(S'what'
p806
g36
F0.9965
tp807
a(S'did'
p808
g21
F0.9994
tp809
a(S'you'
p810
g36
F0.9994
tp811
a(S'do'
p812
g21
F0.9999
tp813
a(S'out'
p814
S'T'
p815
F0.8256
tp816
a(S'in'
p817
g14
F0.9977
tp818
a(S'the'
p819
g140
F0.9993
tp820
a(S'yard'
p821
g6
F0.9902
tp822
a(S'today'
p823
g6
F0.9916
tp824
a(S'(.)'
p825
g27
F0.3676
tp826
a(g31
g23
F0.9953
tp827
asI316
(lp828
(S'nothing'
p829
g6
F0.971
tp830
a(S'(.)'
p831
g89
F0.2804
tp832
a(g51
g23
F0.9899
tp833
asI319
(lp834
(g421
g36
F0.9978
tp835
a(S"didn't"
p836
g21
F1.0
tp837
a(S'do'
p838
g21
F0.9999
tp839
a(S'nothing'
p840
g6
F0.9967
tp841
a(g51
g23
F0.9984
tp842
asI322
(lp843
(S'did'
p844
g21
F0.9986
tp845
a(S'you'
p846
g36
F0.9988
tp847
a(S'play'
p848
g21
F0.9906
tp849
a(g31
g23
F0.9976
tp850
asI326
(lp851
(S'no'
p852
g3
F0.8389
tp853
a(g29
g23
F0.9935
tp854
a(g31
g23
F0.979
tp855
a(g33
g23
F0.9016
tp856
a(g51
g23
F0.9962
tp857
asI329
(lp858
(S'huh'
p859
g3
F0.9936
tp860
a(g31
g23
F0.9967
tp861
asI333
(lp862
(S'yeah'
p863
g3
F0.9951
tp864
a(g29
g23
F0.9854
tp865
a(g31
g23
F0.979
tp866
a(g33
g23
F0.9016
tp867
a(g51
g23
F0.9962
tp868
asI336
(lp869
(g421
g36
F0.9978
tp870
a(S'played'
p871
g21
F0.9997
tp872
a(S'in'
p873
g14
F0.9898
tp874
a(S"Daddy's"
p875
g691
F0.8076
tp876
a(S'pool'
p877
g6
F0.9976
tp878
a(g3
g23
F0.999
tp879
asI339
(lp880
(S'you'
p881
g36
F0.998
tp882
a(S'played'
p883
g21
F0.9991
tp884
a(S'in'
p885
g14
F0.9898
tp886
a(S"Daddy's"
p887
g691
F0.8916
tp888
a(S'big'
p889
g161
F0.9634
tp890
a(S'pool'
p891
g6
F0.9991
tp892
a(g31
g23
F0.9986
tp893
asI344
(lp894
(g421
g36
F0.9978
tp895
a(S'played'
p896
g21
F0.9997
tp897
a(S'in'
p898
g14
F0.9952
tp899
a(S'the'
p900
g140
F0.9992
tp901
a(S'pool'
p902
g6
F0.9978
tp903
a(S'huh'
p904
g3
F0.7066
tp905
a(S'Daddy'
p906
g6
F0.6669
tp907
a(g31
g23
F0.9981
tp908
asI349
(lp909
(S'mhm'
p910
g3
F0.9761
tp911
a(g51
g23
F0.9962
tp912
asI352
(lp913
(g421
g36
F0.9978
tp914
a(S'played'
p915
g21
F0.9997
tp916
a(S'in'
p917
g14
F0.9952
tp918
a(S'the'
p919
g140
F0.9992
tp920
a(S'pool'
p921
g6
F0.9978
tp922
a(S'huh'
p923
g3
F0.7066
tp924
a(S'Daddy'
p925
g6
F0.6669
tp926
a(g31
g23
F0.9981
tp927
asI357
(lp928
(S'and'
p929
g57
F0.9988
tp930
a(S'what'
p931
g36
F0.9917
tp932
a(S'[//]'
p933
g23
F0.2251
tp934
a(S'what'
p935
g36
F0.9964
tp936
a(S'did'
p937
g21
F0.9993
tp938
a(S'you'
p939
g36
F0.999
tp940
a(S'play'
p941
g21
F0.9882
tp942
a(g31
g23
F0.9977
tp943
asI361
(lp944
(S'&-uh'
p945
g3
F0.8671
tp946
a(S'xxx'
p947
g47
F0.4691
tp948
a(g51
g23
F0.9721
tp949
asI362
(lp950
(S'what'
p951
g36
F0.9171
tp952
a(g31
g23
F0.9924
tp953
asI366
(lp954
(S'alley'
p955
g6
F0.9429
tp956
a(g29
g23
F0.9885
tp957
a(g31
g23
F0.979
tp958
a(g33
g23
F0.9016
tp959
a(g51
g23
F0.9962
tp960
asI369
(lp961
(S'Olly'
p962
g27
F0.8949
tp963
a(g31
g23
F0.9956
tp964
asI373
(lp965
(S'uhhuh'
p966
g3
F0.9881
tp967
a(g51
g23
F0.997
tp968
asI376
(lp969
(S"what's"
p970
g9
F0.9874
tp971
a(S'Olly'
p972
g27
F0.903
tp973
a(g31
g23
F0.9958
tp974
asI380
(lp975
(S'xxx'
p976
g47
F0.5822
tp977
a(g51
g23
F0.9648
tp978
asI382
(lp979
(g421
g36
F0.9976
tp980
a(S"can't"
p981
g21
F1.0
tp982
a(S'hear'
p983
g21
F0.9994
tp984
a(S'you'
p985
g36
F0.9974
tp986
a(g51
g23
F0.9995
tp987
asI385
(lp988
(S"it's"
p989
g9
F0.9942
tp990
a(S'an'
p991
g140
F0.9929
tp992
a(S'alligator'
p993
g6
F0.9997
tp994
a(g51
g23
F0.9985
tp995
asI388
(lp996
(S'oh'
p997
g3
F0.9969
tp998
a(S"it's"
p999
g9
F0.9961
tp1000
a(S'an'
p1001
g140
F0.9932
tp1002
a(S'alligator'
p1003
g6
F0.9997
tp1004
a(g51
g23
F0.9985
tp1005
asI391
(lp1006
(S'yeah'
p1007
g3
F0.9973
tp1008
a(S'(.)'
p1009
g27
F0.2739
tp1010
a(g51
g23
F0.9933
tp1011
asI394
(lp1012
(S'and'
p1013
g57
F0.9988
tp1014
a(S'what'
p1015
g36
F0.9926
tp1016
a(S'else'
p1017
g62
F0.8864
tp1018
a(S'did'
p1019
g21
F0.9991
tp1020
a(S'you'
p1021
g36
F0.9987
tp1022
a(S'play'
p1023
g21
F0.991
tp1024
a(g31
g23
F0.9976
tp1025
asI398
(lp1026
(S'xxx'
p1027
g47
F0.5822
tp1028
a(g51
g23
F0.9648
tp1029
asI400
(lp1030
(S'xxx'
p1031
g47
F0.6521
tp1032
a(g3
g23
F0.9801
tp1033
asI401
(lp1034
(S'what'
p1035
g36
F0.9511
tp1036
a(S'(.)'
p1037
g47
F0.3151
tp1038
a(g31
g23
F0.9749
tp1039
asI404
(lp1040
(S'what'
p1041
g36
F0.9171
tp1042
a(g31
g23
F0.9924
tp1043
asI407
(lp1044
(S'what'
p1045
g36
F0.9962
tp1046
a(S'is'
p1047
g21
F0.9997
tp1048
a(S'it'
p1049
g36
F0.9974
tp1050
a(g31
g23
F0.999
tp1051
asI410
(lp1052
(S"it's"
p1053
g9
F0.9955
tp1054
a(g410
g140
F0.9943
tp1055
a(S'nanny'
p1056
g6
F0.9605
tp1057
a(S'@n'
p1058
S'@'
p1059
F0.9896
tp1060
a(g51
g23
F0.9959
tp1061
asI413
(lp1062
(S'it'
p1063
g36
F0.9826
tp1064
a(S'[/]'
p1065
g21
F0.4542
tp1066
a(S'it'
p1067
g36
F0.9873
tp1068
a(S'[//]'
p1069
g23
F0.6395
tp1070
a(S"it's"
p1071
g9
F0.9951
tp1072
a(g410
g140
F0.9952
tp1073
a(S'bunny'
p1074
g6
F0.9958
tp1075
a(g51
g23
F0.9984
tp1076
asI416
(lp1077
(g410
g140
F0.9944
tp1078
a(S'bunny'
p1079
g6
F0.994
tp1080
a(g31
g23
F0.9979
tp1081
asI420
(lp1082
(g410
g140
F0.9836
tp1083
a(S"bunny's"
p1084
S'S'
p1085
F0.6847
tp1086
a(S'out'
p1087
g14
F0.5389
tp1088
a(S'there'
p1089
g62
F0.8903
tp1090
a(g31
g23
F0.9983
tp1091
asI423
(lp1092
(S'yeah'
p1093
g3
F0.9986
tp1094
a(g51
g23
F0.997
tp1095
asI427
(lp1096
(S'are'
p1097
g21
F0.9964
tp1098
a(S'you'
p1099
g36
F0.9995
tp1100
a(S'going'
p1101
g21
F0.9997
tp1102
a(S'to'
p1103
g14
F0.9515
tp1104
a(S'go'
p1105
g21
F0.9993
tp1106
a(S'in'
p1107
g14
F0.9897
tp1108
a(S'the'
p1109
g140
F0.9992
tp1110
a(S'pool'
p1111
g6
F0.9992
tp1112
a(S'after'
p1113
g14
F0.9868
tp1114
a(S'supper'
p1115
g6
F0.9731
tp1116
a(S'with'
p1117
g14
F0.9998
tp1118
a(S'me'
p1119
g36
F0.9968
tp1120
a(g31
g23
F0.9979
tp1121
asI432
(lp1122
(S'the'
p1123
g140
F0.9983
tp1124
a(S'pool'
p1125
g6
F0.9984
tp1126
a(g31
g23
F0.9984
tp1127
asI435
(lp1128
(S"didn't"
p1129
g21
F0.9998
tp1130
a(S'you'
p1131
g36
F0.9986
tp1132
a(S'come'
p1133
g21
F0.9996
tp1134
a(S'for'
p1135
g14
F0.9969
tp1136
a(S'supper'
p1137
g6
F0.9159
tp1138
a(S'xxx'
p1139
g47
F0.5681
tp1140
a(g31
g23
F0.9729
tp1141
asI438
(lp1142
(S'no'
p1143
g3
F0.8567
tp1144
a(g421
g36
F0.9967
tp1145
a(S"didn't"
p1146
g21
F1.0
tp1147
a(S'come'
p1148
g21
F0.9997
tp1149
a(S'for'
p1150
g14
F0.9947
tp1151
a(S'supper'
p1152
g6
F0.959
tp1153
a(g51
g23
F0.9985
tp1154
asI441
(lp1155
(S'oh'
p1156
g3
F0.9984
tp1157
a(g51
g23
F0.9938
tp1158
asI444
(lp1159
(S'did'
p1160
g21
F0.9986
tp1161
a(S'you'
p1162
g36
F0.9993
tp1163
a(S'do'
p1164
g21
F0.9999
tp1165
a(S'those'
p1166
g36
F0.7074
tp1167
a(g29
g23
F0.9903
tp1168
a(g31
g23
F0.9841
tp1169
a(g33
g23
F0.8965
tp1170
a(S'things'
p1171
g6
F0.9398
tp1172
a(S'last'
p1173
g161
F0.9449
tp1174
a(S'night'
p1175
g6
F0.9917
tp1176
a(g31
g23
F0.9989
tp1177
asI448
(lp1178
(g421
g36
F0.9982
tp1179
a(S'started'
p1180
g21
F0.9974
tp1181
a(S'('
p1182
g23
F0.9896
tp1183
a(S'th)em'
p1184
g36
F0.6419
tp1185
a(g51
g23
F0.9978
tp1186
asI451
(lp1187
(S'xxx'
p1188
g47
F0.5822
tp1189
a(g51
g23
F0.9648
tp1190
asI452
(lp1191
(S'xxx'
p1192
g47
F0.5822
tp1193
a(g51
g23
F0.9648
tp1194
asI455
(lp1195
(S'where'
p1196
g62
F0.9769
tp1197
a(S'[//]'
p1198
g23
F0.231
tp1199
a(S'where'
p1200
g62
F0.9882
tp1201
a(S'Mommy'
p1202
g27
F0.4946
tp1203
a(S'gonna'
p1204
g21
F0.9825
tp1205
a(S'go'
p1206
g21
F0.9934
tp1207
a(g31
g23
F0.997
tp1208
asI458
(lp1209
(S'out'
p1210
g815
F0.4771
tp1211
a(S'(.)'
p1212
g27
F0.4341
tp1213
a(S'side'
p1214
g6
F0.9226
tp1215
a(g51
g23
F0.9985
tp1216
asI461
(lp1217
(S"she's"
p1218
g9
F0.9834
tp1219
a(S'making'
p1220
g21
F0.9725
tp1221
a(g29
g23
F0.9833
tp1222
a(g31
g23
F0.9878
tp1223
a(g33
g23
F0.8668
tp1224
a(S'the'
p1225
g140
F0.9987
tp1226
a(S'dishes'
p1227
g6
F0.9994
tp1228
a(g51
g23
F0.9986
tp1229
asI464
(lp1230
(S'why'
p1231
g62
F0.9408
tp1232
a(g31
g23
F0.9946
tp1233
asI467
(lp1234
(S"Daddy's"
p1235
g691
F0.4099
tp1236
a(S'gonna'
p1237
g21
F0.9763
tp1238
a(S'take'
p1239
g21
F0.9999
tp1240
a(S'you'
p1241
g36
F0.9945
tp1242
a(S'in'
p1243
g14
F0.9878
tp1244
a(S'the'
p1245
g140
F0.9992
tp1246
a(S'pool'
p1247
g6
F0.9995
tp1248
a(S'while'
p1249
g14
F0.948
tp1250
a(S'Mama'
p1251
g6
F0.5392
tp1252
a(S'does'
p1253
g21
F0.9993
tp1254
a(S'the'
p1255
g140
F0.9996
tp1256
a(S'dishes'
p1257
g6
F0.9995
tp1258
a(g51
g23
F0.9983
tp1259
asI474
(lp1260
(S"aren't"
p1261
g21
F0.9744
tp1262
a(S'you'
p1263
g36
F0.9996
tp1264
a(S'gonna'
p1265
g21
F0.9995
tp1266
a(S'go'
p1267
g21
F0.9992
tp1268
a(S'in'
p1269
g14
F0.9897
tp1270
a(S'the'
p1271
g140
F0.9989
tp1272
a(S'pool'
p1273
g6
F0.9978
tp1274
a(g31
g23
F0.9987
tp1275
asI479
(lp1276
(S'maybe'
p1277
g62
F0.966
tp1278
a(g51
g23
F0.9966
tp1279
asI482
(lp1280
(g229
g92
F0.8896
tp1281
a(S'and'
p1282
g57
F0.9987
tp1283
a(S'you'
p1284
g36
F0.9991
tp1285
a(g221
g23
F0.5218
tp1286
a(S'[//]'
p1287
g23
F0.297
tp1288
a(S'and'
p1289
g57
F0.999
tp1290
a(S'you'
p1291
g36
F0.9953
tp1292
a(S'dunk'
p1293
g21
F0.7035
tp1294
a(g3
g23
F0.999
tp1295
asI485
(lp1296
(S'xxx'
p1297
g47
F0.564
tp1298
a(S'dunk'
p1299
g6
F0.8929
tp1300
a(g29
g23
F0.9885
tp1301
a(g31
g23
F0.9842
tp1302
a(g33
g23
F0.9156
tp1303
a(g51
g23
F0.995
tp1304
asI488
(lp1305
(S'yeah'
p1306
g3
F0.9986
tp1307
a(g51
g23
F0.997
tp1308
asI491
(lp1309
(S'will'
p1310
g21
F0.9979
tp1311
a(S'you'
p1312
g36
F0.9931
tp1313
a(S'dunk'
p1314
g21
F0.9434
tp1315
a(S'with'
p1316
g14
F0.9992
tp1317
a(S'me'
p1318
g36
F0.9981
tp1319
a(g31
g23
F0.998
tp1320
asI494
(lp1321
(S'yeah'
p1322
g3
F0.9986
tp1323
a(g51
g23
F0.997
tp1324
asI497
(lp1325
(g421
g36
F0.9879
tp1326
a(S'dunk'
p1327
g21
F0.9848
tp1328
a(S'with'
p1329
g14
F0.9988
tp1330
a(S'you'
p1331
g36
F0.9988
tp1332
a(g51
g23
F0.9995
tp1333
asI500
(lp1334
(S'are'
p1335
g21
F0.9964
tp1336
a(S'you'
p1337
g36
F0.9994
tp1338
a(S'gonna'
p1339
g21
F0.9992
tp1340
a(S'swim'
p1341
g21
F0.8699
tp1342
a(g31
g23
F0.9981
tp1343
asI503
(lp1344
(S'and'
p1345
g57
F0.9987
tp1346
a(S'[/]'
p1347
g27
F0.3132
tp1348
a(S'and'
p1349
g57
F0.9981
tp1350
a(S'[//]'
p1351
g27
F0.2982
tp1352
a(S'and'
p1353
g57
F0.9987
tp1354
a(S'you'
p1355
g36
F0.9994
tp1356
a(S"can't"
p1357
g21
F0.9999
tp1358
a(S'catch'
p1359
g21
F0.9999
tp1360
a(S'me'
p1361
g36
F0.9975
tp1362
a(g51
g23
F0.9983
tp1363
asI506
(lp1364
(S'no'
p1365
g3
F0.9596
tp1366
a(g31
g23
F0.9962
tp1367
asI509
(lp1368
(S'no'
p1369
g3
F0.9704
tp1370
a(g51
g23
F0.9989
tp1371
asI512
(lp1372
(S"I'm"
p1373
g9
F0.9951
tp1374
a(S'gonna'
p1375
g21
F0.9887
tp1376
a(S'swim'
p1377
g21
F0.9691
tp1378
a(S'xxx'
p1379
g47
F0.6819
tp1380
a(S'xxx'
p1381
g47
F0.9443
tp1382
a(S"can't"
p1383
g21
F0.9982
tp1384
a(S'catch'
p1385
g21
F0.9999
tp1386
a(S'me'
p1387
g36
F0.9985
tp1388
a(g229
g92
F0.7578
tp1389
a(S'Daddy'
p1390
g6
F0.7431
tp1391
a(S"c(ann't)>"
p1392
g21
F0.885
tp1393
a(S'[//]'
p1394
g21
F0.2252
tp1395
a(S'Daddy'
p1396
g6
F0.8248
tp1397
a(S"can't"
p1398
g21
F0.999
tp1399
a(S'catch'
p1400
g21
F0.9999
tp1401
a(S'me'
p1402
g36
F0.9918
tp1403
a(S'any'
p1404
g140
F0.9359
tp1405
a(S'way'
p1406
g6
F0.9805
tp1407
a(g51
g23
F0.9985
tp1408
asI519
(lp1409
(S'he'
p1410
g36
F0.9939
tp1411
a(S"can't"
p1412
g21
F0.9999
tp1413
a(S'catch'
p1414
g21
F0.9998
tp1415
a(S'you'
p1416
g36
F0.9964
tp1417
a(g31
g23
F0.9994
tp1418
asI522
(lp1419
(S'no'
p1420
g3
F0.9847
tp1421
a(g3
g23
F0.999
tp1422
asI525
(lp1423
(g229
g92
F0.9177
tp1424
a(S'he'
p1425
g36
F0.988
tp1426
a(S"can't>"
p1427
g21
F0.9902
tp1428
a(S'[//]'
p1429
g89
F0.2378
tp1430
a(S'(.)'
p1431
g89
F0.6213
tp1432
a(S'he'
p1433
g36
F0.9954
tp1434
a(S"can't"
p1435
g21
F0.9999
tp1436
a(S'do'
p1437
g21
F0.9994
tp1438
a(g29
g23
F0.9833
tp1439
a(g3
g23
F0.9901
tp1440
a(g33
g23
F0.981
tp1441
a(S'that'
p1442
g14
F0.4334
tp1443
a(S'(.)'
p1444
g27
F0.4712
tp1445
a(g51
g23
F0.9965
tp1446
asI528
(lp1447
(S'fast'
p1448
g161
F0.6372
tp1449
a(S'enough'
p1450
g6
F0.6764
tp1451
a(g51
g23
F0.999
tp1452
asI531
(lp1453
(S'yeah'
p1454
g3
F0.9994
tp1455
a(g3
g23
F0.9967
tp1456
asI534
(lp1457
(S'say'
p1458
g21
F0.9945
tp1459
a(S'it'
p1460
g36
F0.985
tp1461
a(g51
g23
F0.9987
tp1462
asI537
(lp1463
(S'he'
p1464
g36
F0.9961
tp1465
a(S'said'
p1466
g21
F0.9989
tp1467
a(S'faster'
p1468
g62
F0.6825
tp1469
a(g29
g23
F0.9898
tp1470
a(g3
g23
F0.9901
tp1471
a(g33
g23
F0.9722
tp1472
a(S'faster'
p1473
g161
F0.5326
tp1474
a(g3
g23
F0.9989
tp1475
asI540
(lp1476
(S'yeah'
p1477
g3
F0.9986
tp1478
a(g51
g23
F0.997
tp1479
asI543
(lp1480
(S'and'
p1481
g57
F0.9987
tp1482
a(S'[/]'
p1483
g27
F0.3132
tp1484
a(S'and'
p1485
g57
F0.9978
tp1486
a(S"I'm"
p1487
g9
F0.9972
tp1488
a(S'telling'
p1489
g21
F0.9998
tp1490
a(S'him'
p1491
g36
F0.9929
tp1492
a(S'if'
p1493
g14
F0.9938
tp1494
a(S'there'
p1495
g62
F0.8706
tp1496
a(S'more'
p1497
g161
F0.6777
tp1498
a(S'xxx'
p1499
g47
F0.423
tp1500
a(g3
g23
F0.9846
tp1501
asI548
(lp1502
(S'no'
p1503
g3
F0.9704
tp1504
a(g51
g23
F0.9989
tp1505
asI552
(lp1506
(S'did'
p1507
g21
F0.9834
tp1508
a(S'[/]'
p1509
g36
F0.2952
tp1510
a(S'did'
p1511
g21
F0.9959
tp1512
a(S'Daddy'
p1513
g6
F0.5984
tp1514
a(S'make'
p1515
g21
F0.8959
tp1516
a(S'believe'
p1517
g21
F0.9788
tp1518
a(S'he'
p1519
g36
F0.9985
tp1520
a(S'was'
p1521
g21
F0.9999
tp1522
a(S'the'
p1523
g140
F0.9996
tp1524
a(S'shark'
p1525
g6
F0.9821
tp1526
a(g229
g92
F0.6852
tp1527
a(S'in'
p1528
g14
F0.9949
tp1529
a(S'the'
p1530
g140
F0.9913
tp1531
a(g221
g89
F0.2983
tp1532
a(S'[//]'
p1533
g89
F0.2588
tp1534
a(S'in'
p1535
g14
F0.9937
tp1536
a(S'the'
p1537
g140
F0.9985
tp1538
a(S'beg(inning'
p1539
g6
F0.955
tp1540
a(S')'
p1541
g23
F0.9964
tp1542
a(S'[///]'
p1543
g23
F0.34
tp1544
a(S"don't"
p1545
g21
F0.9994
tp1546
a(S'touch'
p1547
g21
F0.9898
tp1548
a(S'that'
p1549
g36
F0.8267
tp1550
a(g3
g23
F0.9985
tp1551
asI559
(lp1552
(S'why'
p1553
g62
F0.9408
tp1554
a(g31
g23
F0.9946
tp1555
asI563
(lp1556
(S"don't"
p1557
g21
F0.9983
tp1558
a(S'touch'
p1559
g21
F0.998
tp1560
a(S'it'
p1561
g36
F0.9841
tp1562
a(g3
g23
F0.9992
tp1563
asI567
(lp1564
(S'why'
p1565
g62
F0.9408
tp1566
a(g31
g23
F0.9946
tp1567
asI572
(lp1568
(S'because'
p1569
g14
F0.9961
tp1570
a(g421
g36
F0.9995
tp1571
a(S'have_to'
p1572
g21
F0.9996
tp1573
a(S'have'
p1574
g21
F0.9997
tp1575
a(S'that'
p1576
g36
F0.7724
tp1577
a(S'on'
p1578
g14
F0.9728
tp1579
a(S'(.)'
p1580
g27
F0.6764
tp1581
a(g51
g23
F0.9938
tp1582
asI576
(lp1583
(g229
g92
F0.9374
tp1584
a(S'no'
p1585
g3
F0.6201
tp1586
a(S"don't>"
p1587
g21
F0.9377
tp1588
a(g29
g23
F0.9833
tp1589
a(g221
g47
F0.4438
tp1590
a(g33
g23
F0.7665
tp1591
a(S'touch'
p1592
g21
F0.9436
tp1593
a(S'it'
p1594
g36
F0.9903
tp1595
a(g3
g23
F0.9993
tp1596
asI579
(lp1597
(g229
g92
F0.9526
tp1598
a(g421
g36
F0.995
tp1599
a(S'[/]'
p1600
g21
F0.5751
tp1601
a(g421
g36
F0.9982
tp1602
a(g221
g47
F0.3467
tp1603
a(g29
g47
F0.535
tp1604
a(g229
g92
F0.8293
tp1605
a(g33
g23
F0.954
tp1606
a(g88
g57
F0.4772
tp1607
a(S'...'
p1608
g23
F0.5782
tp1609
asI582
(lp1610
(g421
g36
F0.9983
tp1611
a(S'want'
p1612
g21
F0.9999
tp1613
a(S'to'
p1614
g14
F0.9929
tp1615
a(S'see'
p1616
g21
F0.9996
tp1617
a(S'it'
p1618
g36
F0.9059
tp1619
a(g51
g23
F0.9986
tp1620
asI586
(lp1621
(S'you'
p1622
g36
F0.9969
tp1623
a(S'can'
p1624
g21
F0.9998
tp1625
a(S'see'
p1626
g21
F0.9998
tp1627
a(S'it'
p1628
g36
F0.9073
tp1629
a(g51
g23
F0.9989
tp1630
asI589
(lp1631
(S'no'
p1632
g3
F0.8567
tp1633
a(g421
g36
F0.9971
tp1634
a(S"can't"
p1635
g21
F0.9999
tp1636
a(g3
g23
F0.9979
tp1637
asI593
(lp1638
(S'Chi'
p1639
g27
F0.5638
tp1640
a(S'you'
p1641
g36
F0.9964
tp1642
a(S"can't"
p1643
g21
F0.9998
tp1644
a(S'touch'
p1645
g21
F0.9831
tp1646
a(S'this'
p1647
g36
F0.9319
tp1648
a(g51
g23
F0.9982
tp1649
asI596
(lp1650
(g421
g36
F0.9926
tp1651
a(S'xxx'
p1652
g21
F0.6935
tp1653
a(g51
g23
F0.9974
tp1654
asI601
(lp1655
(S'listen'
p1656
g21
F0.9674
tp1657
a(g3
g23
F0.9978
tp1658
asI604
(lp1659
(S'listen'
p1660
g21
F0.9674
tp1661
a(g3
g23
F0.9978
tp1662
asI607
(lp1663
(S'relax'
p1664
g21
F0.408
tp1665
a(g29
g23
F0.9908
tp1666
a(g31
g23
F0.976
tp1667
a(g33
g23
F0.9593
tp1668
a(S'and'
p1669
g57
F0.9992
tp1670
a(S'then'
p1671
g62
F0.9947
tp1672
a(S'after'
p1673
g14
F0.7239
tp1674
a(g29
g23
F0.9802
tp1675
a(g3
g23
F0.9901
tp1676
a(g33
g23
F0.9769
tp1677
a(S'Mama'
p1678
g6
F0.6819
tp1679
a(S'will'
p1680
g21
F0.9941
tp1681
a(S'play'
p1682
g21
F0.9999
tp1683
a(S'it'
p1684
g36
F0.993
tp1685
a(S'for'
p1686
g14
F0.9992
tp1687
a(S'you'
p1688
g36
F0.9993
tp1689
a(S'after'
p1690
g62
F0.6855
tp1691
a(S'okay'
p1692
g161
F0.6468
tp1693
a(g31
g23
F0.9965
tp1694
asI612
(lp1695
(S'and'
p1696
g57
F0.9989
tp1697
a(S'you'
p1698
g36
F0.9994
tp1699
a(S'can'
p1700
g21
F0.9997
tp1701
a(S'hear'
p1702
g21
F0.9987
tp1703
a(S'you'
p1704
g36
F0.998
tp1705
a(g29
g23
F0.9947
tp1706
a(g3
g23
F0.9901
tp1707
a(g33
g23
F0.9803
tp1708
a(S'on'
p1709
g14
F0.9889
tp1710
a(S'it'
p1711
g36
F0.9965
tp1712
a(g51
g23
F0.999
tp1713
asI616
(lp1714
(S'no'
p1715
g3
F0.8567
tp1716
a(g421
g36
F0.9965
tp1717
a(S"can't"
p1718
g21
F1.0
tp1719
a(S'hear'
p1720
g21
F0.9994
tp1721
a(S'me'
p1722
g36
F0.9978
tp1723
a(S'on'
p1724
g14
F0.931
tp1725
a(S'it'
p1726
g36
F0.9968
tp1727
a(g51
g23
F0.999
tp1728
asI621
(lp1729
(S'yes'
p1730
g3
F0.965
tp1731
a(S'it'
p1732
g36
F0.9986
tp1733
a(S'is'
p1734
g21
F0.9999
tp1735
a(S'you'
p1736
g36
F0.9996
tp1737
a(S'wait'
p1738
g21
F0.9984
tp1739
a(S'and'
p1740
g57
F0.9948
tp1741
a(S'see'
p1742
g21
F0.9328
tp1743
a(g51
g23
F0.9978
tp1744
asI625
(lp1745
(S'well'
p1746
g3
F0.8726
tp1747
a(S'(.)'
p1748
g27
F0.3349
tp1749
a(S'are'
p1750
g21
F0.9968
tp1751
a(S'you'
p1752
g36
F0.9994
tp1753
a(S'gonna'
p1754
g21
F0.9994
tp1755
a(S'go'
p1756
g21
F0.9992
tp1757
a(S'in'
p1758
g14
F0.9897
tp1759
a(S'the'
p1760
g140
F0.9992
tp1761
a(S'pool'
p1762
g6
F0.998
tp1763
a(S'with'
p1764
g14
F0.9993
tp1765
a(S'Daddy'
p1766
g6
F0.4978
tp1767
a(S'and'
p1768
g57
F0.9976
tp1769
a(S'me'
p1770
g36
F0.9972
tp1771
a(S'after'
p1772
g62
F0.5595
tp1773
a(g31
g23
F0.9968
tp1774
asI631
(lp1775
(S'well'
p1776
g3
F0.8338
tp1777
a(S'[/]'
p1778
g23
F0.6603
tp1779
a(S'well'
p1780
g62
F0.4985
tp1781
a(S'[/]'
p1782
g23
F0.5652
tp1783
a(S'well'
p1784
g3
F0.4543
tp1785
a(S'xxx'
p1786
g47
F0.7062
tp1787
a(g421
g36
F0.9552
tp1788
a(S'xxx'
p1789
g21
F0.6802
tp1790
a(g51
g23
F0.9981
tp1791
asI634
(lp1792
(S'xxx'
p1793
g47
F0.4676
tp1794
a(S'me'
p1795
g36
F0.9968
tp1796
a(S'and'
p1797
g57
F0.99
tp1798
a(S'Daddy'
p1799
g6
F0.8456
tp1800
a(S'in'
p1801
g14
F0.9936
tp1802
a(S'(.)'
p1803
g27
F0.6442
tp1804
a(S'with'
p1805
g14
F0.9948
tp1806
a(S'Daddy'
p1807
g27
F0.5499
tp1808
a(S'(.)'
p1809
g27
F0.6785
tp1810
a(S'go'
p1811
g21
F0.9578
tp1812
a(S'[//]'
p1813
g62
F0.3026
tp1814
a(S'gonna'
p1815
g21
F0.9946
tp1816
a(S'go'
p1817
g21
F0.9992
tp1818
a(S'in'
p1819
g14
F0.9897
tp1820
a(S'the'
p1821
g140
F0.9993
tp1822
a(S'pool'
p1823
g6
F0.9994
tp1824
a(g51
g23
F0.9986
tp1825
asI639
(lp1826
(S'okay'
p1827
g3
F0.9741
tp1828
a(g51
g23
F0.9977
tp1829
asI642
(lp1830
(S'&-um'
p1831
g3
F0.7959
tp1832
a(S'(.)'
p1833
g47
F0.3916
tp1834
a(S'what'
p1835
g36
F0.9971
tp1836
a(S'did'
p1837
g21
F0.9993
tp1838
a(S'you'
p1839
g36
F0.9994
tp1840
a(S'have'
p1841
g21
F0.9994
tp1842
a(S'for'
p1843
g14
F0.9985
tp1844
a(S'lunch'
p1845
g6
F0.8893
tp1846
a(S'today'
p1847
g6
F0.9976
tp1848
a(g31
g23
F0.9975
tp1849
asI646
(lp1850
(S'nothing'
p1851
g6
F0.9843
tp1852
a(S'xxx'
p1853
g47
F0.4652
tp1854
a(g51
g23
F0.9721
tp1855
asI649
(lp1856
(S'nothing'
p1857
g6
F0.986
tp1858
a(g31
g23
F0.9976
tp1859
asI652
(lp1860
(S'no'
p1861
g3
F0.9847
tp1862
a(g3
g23
F0.999
tp1863
asI655
(lp1864
(S'Mommy'
p1865
g6
F0.4766
tp1866
a(S"didn't"
p1867
g21
F0.9992
tp1868
a(S'feed'
p1869
g21
F0.9998
tp1870
a(S'you'
p1871
g36
F0.9966
tp1872
a(g31
g23
F0.9994
tp1873
asI658
(lp1874
(S'xxx'
p1875
g47
F0.5822
tp1876
a(g51
g23
F0.9648
tp1877
asI659
(lp1878
(g229
g92
F0.9526
tp1879
a(g421
g36
F0.9988
tp1880
a(S'think'
p1881
g21
F0.9995
tp1882
a(g221
g23
F0.2737
tp1883
a(S'[//]'
p1884
g89
F0.2387
tp1885
a(S'(.)'
p1886
g89
F0.5667
tp1887
a(g229
g92
F0.9309
tp1888
a(g421
g36
F0.9963
tp1889
a(g221
g21
F0.2795
tp1890
a(S'[/]'
p1891
g23
F0.2642
tp1892
a(g229
g92
F0.9375
tp1893
a(g421
g36
F0.9963
tp1894
a(g221
g21
F0.2795
tp1895
a(S'[//]'
p1896
g23
F0.2642
tp1897
a(g229
g92
F0.9375
tp1898
a(g421
g36
F0.9987
tp1899
a(S'had'
p1900
g21
F0.9996
tp1901
a(g221
g47
F0.2649
tp1902
a(S'[//]'
p1903
g47
F0.7743
tp1904
a(g229
g92
F0.8503
tp1905
a(g421
g36
F0.9963
tp1906
a(g221
g21
F0.2795
tp1907
a(S'[//]'
p1908
g23
F0.4145
tp1909
a(g421
g36
F0.9984
tp1910
a(S'had'
p1911
g21
F1.0
tp1912
a(g410
g140
F0.9975
tp1913
a(S'bowl'
p1914
g6
F0.9996
tp1915
a(S'of'
p1916
g14
F0.9967
tp1917
a(S'soup'
p1918
g6
F0.9716
tp1919
a(g51
g23
F0.9984
tp1920
asI662
(lp1921
(S'no'
p1922
g3
F0.7985
tp1923
a(S'you'
p1924
g36
F0.9966
tp1925
a(S"didn't"
p1926
g21
F0.9999
tp1927
a(S'have'
p1928
g21
F0.9999
tp1929
a(g410
g140
F0.998
tp1930
a(S'bowl'
p1931
g6
F0.9996
tp1932
a(S'of'
p1933
g14
F0.9968
tp1934
a(S'soup'
p1935
g6
F0.9468
tp1936
a(S'you'
p1937
g36
F0.9963
tp1938
a(S'had'
p1939
g21
F0.9995
tp1940
a(S'what'
p1941
g36
F0.9897
tp1942
a(g31
g23
F0.9908
tp1943
asI668
(lp1944
(S'tuna'
p1945
g6
F0.9201
tp1946
a(g31
g23
F0.9968
tp1947
asI672
(lp1948
(S'huh'
p1949
g3
F0.9973
tp1950
a(g3
g23
F0.9968
tp1951
asI676
(lp1952
(S'you'
p1953
g36
F0.998
tp1954
a(S'had'
p1955
g21
F0.9999
tp1956
a(S'your'
p1957
g140
F0.9848
tp1958
a(S'favorite'
p1959
g6
F0.5804
tp1960
a(g3
g23
F0.9992
tp1961
asI679
(lp1962
(S'xxx'
p1963
g47
F0.5822
tp1964
a(g51
g23
F0.9648
tp1965
asI680
(lp1966
(S'what'
p1967
g36
F0.9965
tp1968
a(S'did'
p1969
g21
F0.9994
tp1970
a(S'you'
p1971
g36
F0.9994
tp1972
a(S'have'
p1973
g21
F0.9993
tp1974
a(S'for'
p1975
g14
F0.9985
tp1976
a(S'lunch'
p1977
g6
F0.8987
tp1978
a(S'today'
p1979
g6
F0.9976
tp1980
a(g31
g23
F0.9978
tp1981
asI685
(lp1982
(S'&-um'
p1983
g3
F0.7959
tp1984
a(S'(.)'
p1985
g27
F0.2666
tp1986
a(S'tuna+fish'
p1987
g6
F0.7888
tp1988
a(g51
g23
F0.9986
tp1989
asI688
(lp1990
(S'and'
p1991
g57
F0.9988
tp1992
a(S'what'
p1993
g36
F0.9938
tp1994
a(S'else'
p1995
g62
F0.8686
tp1996
a(g31
g23
F0.9979
tp1997
asI692
(lp1998
(S'did'
p1999
g21
F0.9986
tp2000
a(S'you'
p2001
g36
F0.9993
tp2002
a(S'have'
p2003
g21
F0.9999
tp2004
a(S'it'
p2005
g36
F0.9889
tp2006
a(S'in'
p2007
g14
F0.977
tp2008
a(S'the'
p2009
g140
F0.9989
tp2010
a(S'bread'
p2011
g6
F0.9966
tp2012
a(g31
g23
F0.9977
tp2013
asI696
(lp2014
(S'yeah'
p2015
g3
F0.9986
tp2016
a(g51
g23
F0.997
tp2017
asI699
(lp2018
(S'xxx'
p2019
g47
F0.5822
tp2020
a(g51
g23
F0.9648
tp2021
asI700
(lp2022
(S'milk'
p2023
g6
F0.9853
tp2024
a(g29
g23
F0.988
tp2025
a(g31
g23
F0.979
tp2026
a(g33
g23
F0.8336
tp2027
a(g31
g23
F0.9963
tp2028
asI703
(lp2029
(S'no'
p2030
g3
F0.8389
tp2031
a(g29
g23
F0.9935
tp2032
a(g31
g23
F0.979
tp2033
a(g33
g23
F0.9016
tp2034
a(g51
g23
F0.9962
tp2035
asI706
(lp2036
(S'how'
p2037
g62
F0.9547
tp2038
a(S'did'
p2039
g21
F0.9989
tp2040
a(S'you'
p2041
g36
F0.9994
tp2042
a(S'have'
p2043
g21
F0.9998
tp2044
a(S'it'
p2045
g36
F0.9743
tp2046
a(g31
g23
F0.9987
tp2047
asI710
(lp2048
(S'on'
p2049
g14
F0.9931
tp2050
a(S'the'
p2051
g140
F0.9993
tp2052
a(S'plate'
p2053
g6
F0.9993
tp2054
a(g51
g23
F0.9983
tp2055
asI713
(lp2056
(S'on'
p2057
g14
F0.9931
tp2058
a(S'the'
p2059
g140
F0.9993
tp2060
a(S'plate'
p2061
g6
F0.9975
tp2062
a(g31
g23
F0.9981
tp2063
asI717
(lp2064
(S'yeah'
p2065
g3
F0.9986
tp2066
a(g51
g23
F0.997
tp2067
asI720
(lp2068
(S'honey'
p2069
g6
F0.831
tp2070
a(g29
g23
F0.9874
tp2071
a(g31
g23
F0.979
tp2072
a(g33
g23
F0.8336
tp2073
a(g31
g23
F0.9963
tp2074
asI723
(lp2075
(S'oh'
p2076
g3
F0.9984
tp2077
a(g51
g23
F0.9938
tp2078
asI726
(lp2079
(S'and'
p2080
g57
F0.9988
tp2081
a(S'what'
p2082
g36
F0.9926
tp2083
a(S'else'
p2084
g62
F0.8864
tp2085
a(S'did'
p2086
g21
F0.9955
tp2087
a(g421
g36
F0.9991
tp2088
a(S'give'
p2089
g21
F1.0
tp2090
a(S'you'
p2091
g36
F0.9967
tp2092
a(g31
g23
F0.9994
tp2093
asI731
(lp2094
(g229
g92
F0.9776
tp2095
a(S'please'
p2096
g21
F0.9716
tp2097
a(S"don't>"
p2098
g21
F0.9974
tp2099
a(g29
g23
F0.9833
tp2100
a(g221
g47
F0.4438
tp2101
a(g33
g23
F0.8189
tp2102
a(S'give'
p2103
g21
F0.9993
tp2104
a(S'it'
p2105
g36
F0.9905
tp2106
a(S'to'
p2107
g14
F0.9912
tp2108
a(S'Star'
p2109
g27
F0.9504
tp2110
a(g51
g23
F0.9942
tp2111
asI734
(lp2112
(g229
g92
F0.9385
tp2113
a(S'what'
p2114
g36
F0.9973
tp2115
a(S'did'
p2116
g21
F0.9993
tp2117
a(S'you'
p2118
g36
F0.9993
tp2119
a(S'have'
p2120
g21
F0.9994
tp2121
a(S'for'
p2122
g14
F0.9985
tp2123
a(S'dessert'
p2124
g6
F0.9548
tp2125
a(g221
g47
F0.5149
tp2126
a(g29
g47
F0.535
tp2127
a(g229
g92
F0.768
tp2128
a(g33
g23
F0.9751
tp2129
a(g31
g23
F0.9934
tp2130
asI738
(lp2131
(S'xxx'
p2132
g47
F0.8981
tp2133
a(g29
g23
F0.661
tp2134
a(g221
g47
F0.3811
tp2135
a(g33
g23
F0.7604
tp2136
a(g51
g23
F0.9962
tp2137
asI739
(lp2138
(S'xxx'
p2139
g47
F0.8981
tp2140
a(g29
g23
F0.6622
tp2141
a(g229
g92
F0.972
tp2142
a(g33
g23
F0.9847
tp2143
a(g51
g23
F0.9962
tp2144
asI740
(lp2145
(g421
g36
F0.9923
tp2146
a(S'xxx'
p2147
g21
F0.8357
tp2148
a(S'play'
p2149
g21
F0.9844
tp2150
a(S'with'
p2151
g14
F0.9988
tp2152
a(S'it'
p2153
g36
F0.9974
tp2154
a(g51
g23
F0.9986
tp2155
asI743
(lp2156
(S'say'
p2157
g21
F0.9015
tp2158
a(S'what'
p2159
g36
F0.9789
tp2160
a(g31
g23
F0.9924
tp2161
asI746
(lp2162
(S'ice'
p2163
g161
F0.4834
tp2164
a(S'cone'
p2165
g6
F0.9996
tp2166
a(g51
g23
F0.9983
tp2167
asI749
(lp2168
(S'ice'
p2169
g6
F0.642
tp2170
a(S'cream'
p2171
g6
F0.7428
tp2172
a(S'cone'
p2173
g6
F0.999
tp2174
a(g51
g23
F0.9983
tp2175
asI753
(lp2176
(S'ice'
p2177
g6
F0.642
tp2178
a(S'cream'
p2179
g6
F0.7428
tp2180
a(S'cone'
p2181
g6
F0.9989
tp2182
a(g3
g23
F0.9989
tp2183
asI756
(lp2184
(g421
g36
F0.9983
tp2185
a(S'bet'
p2186
g21
F0.9998
tp2187
a(S'that'
p2188
g36
F0.8754
tp2189
a(S'was'
p2190
g21
F0.9978
tp2191
a(S'good'
p2192
g161
F0.9953
tp2193
a(g51
g23
F0.9979
tp2194
asI759
(lp2195
(S'mm'
p2196
g3
F0.5842
tp2197
a(g51
g23
F0.9932
tp2198
asI762
(lp2199
(S'was'
p2200
g21
F0.9914
tp2201
a(S'good'
p2202
g161
F0.9981
tp2203
a(g3
g23
F0.998
tp2204
asI765
(lp2205
(S'you'
p2206
g36
F0.9983
tp2207
a(S'know'
p2208
g21
F0.9986
tp2209
a(S'what'
p2210
g36
F0.9843
tp2211
a(S'Chi'
p2212
g27
F0.8509
tp2213
a(S'likes'
p2214
g21
F0.9947
tp2215
a(S'Dad'
p2216
g6
F0.6884
tp2217
a(g31
g23
F0.9981
tp2218
asI768
(lp2219
(S'what'
p2220
g36
F0.9171
tp2221
a(g31
g23
F0.9924
tp2222
asI771
(lp2223
(S'corn'
p2224
g6
F0.9787
tp2225
a(S'on'
p2226
g14
F0.9994
tp2227
a(S'the'
p2228
g140
F0.9988
tp2229
a(S'cob'
p2230
g6
F0.8886
tp2231
a(g51
g23
F0.9992
tp2232
asI774
(lp2233
(S'oh'
p2234
g3
F0.9939
tp2235
a(S'ho'
p2236
g3
F0.8999
tp2237
a(S'ho'
p2238
g3
F0.8118
tp2239
a(g51
g23
F0.9977
tp2240
asI777
(lp2241
(S'yeah'
p2242
g3
F0.9986
tp2243
a(g51
g23
F0.997
tp2244
asI781
(lp2245
(S'pretty'
p2246
g62
F0.96
tp2247
a(S'soon'
p2248
g62
F0.7363
tp2249
a(S'the'
p2250
g140
F0.9989
tp2251
a(S'farm'
p2252
g6
F0.9883
tp2253
a(S'will'
p2254
g21
F0.9896
tp2255
a(S'have'
p2256
g21
F0.9999
tp2257
a(S'it'
p2258
g36
F0.9847
tp2259
a(S'(.)'
p2260
g23
F0.3502
tp2261
a(S'and'
p2262
g57
F0.9986
tp2263
a(S"we'll"
p2264
g9
F0.9678
tp2265
a(S'go'
p2266
g21
F0.9998
tp2267
a(S'up'
p2268
g815
F0.6919
tp2269
a(S'and'
p2270
g57
F0.996
tp2271
a(S'get'
p2272
g21
F0.9998
tp2273
a(S'it'
p2274
g36
F0.9912
tp2275
a(g51
g23
F0.9992
tp2276
asI788
(lp2277
(S'why'
p2278
g62
F0.9408
tp2279
a(g31
g23
F0.9946
tp2280
asI792
(lp2281
(g1182
g23
F0.9736
tp2282
a(S'be)cause'
p2283
g14
F0.9891
tp2284
a(S"that's"
p2285
g9
F0.9938
tp2286
a(S'where'
p2287
g62
F0.9812
tp2288
a(S'it'
p2289
g36
F0.9926
tp2290
a(S'tastes'
p2291
g21
F0.9983
tp2292
a(S'the'
p2293
g140
F0.9994
tp2294
a(S'best'
p2295
g161
F0.9643
tp2296
a(g51
g23
F0.9986
tp2297
asI797
(lp2298
(S'hunhunh'
p2299
g3
F0.2825
tp2300
a(S'xxx'
p2301
g47
F0.4418
tp2302
a(g51
g23
F0.9721
tp2303
asI802
(lp2304
(S'no'
p2305
g3
F0.8455
tp2306
a(S'the'
p2307
g140
F0.9981
tp2308
a(S'farm'
p2309
g6
F0.9877
tp2310
a(S'is'
p2311
g21
F0.9955
tp2312
a(S'where'
p2313
g62
F0.9794
tp2314
a(S'they'
p2315
g36
F0.9899
tp2316
a(S'grow'
p2317
g21
F0.9996
tp2318
a(S'the'
p2319
g140
F0.9992
tp2320
a(S'corn'
p2321
g6
F0.9996
tp2322
a(g51
g23
F0.9985
tp2323
asI807
(lp2324
(S'why'
p2325
g62
F0.9408
tp2326
a(g31
g23
F0.9946
tp2327
asI811
(lp2328
(S'because'
p2329
g14
F0.998
tp2330
a(S'they'
p2331
g36
F0.9932
tp2332
a(S'put'
p2333
g21
F0.9994
tp2334
a(S'it'
p2335
g36
F0.9633
tp2336
a(S'[//]'
p2337
g23
F0.3692
tp2338
a(S'the'
p2339
g140
F0.9993
tp2340
a(S'seeds'
p2341
g6
F0.9977
tp2342
a(S'in'
p2343
g14
F0.9991
tp2344
a(S'the'
p2345
g140
F0.9994
tp2346
a(S'ground'
p2347
g6
F0.5922
tp2348
a(S'and'
p2349
g57
F0.991
tp2350
a(S'the'
p2351
g140
F0.9985
tp2352
a(S'corn'
p2353
g6
F0.9974
tp2354
a(S'comes'
p2355
g21
F0.9978
tp2356
a(S'up'
p2357
g815
F0.9889
tp2358
a(S'(.)'
p2359
g27
F0.4405
tp2360
a(g51
g23
F0.9917
tp2361
asI818
(lp2362
(S'but'
p2363
g57
F0.9921
tp2364
a(S'how'
p2365
g62
F0.9484
tp2366
a(S'seeds'
p2367
g6
F0.9697
tp2368
a(S'come'
p2369
g21
F0.9988
tp2370
a(S'up'
p2371
g815
F0.9636
tp2372
a(g31
g23
F0.9973
tp2373
asI822
(lp2374
(S'zzz'
p2375
g3
F0.3756
tp2376
a(g51
g23
F0.9972
tp2377
asI826
(lp2378
(S'how'
p2379
g62
F0.8214
tp2380
a(S'seeds'
p2381
g6
F0.9628
tp2382
a(S'come'
p2383
g21
F0.9992
tp2384
a(S'up'
p2385
g815
F0.9566
tp2386
a(g31
g23
F0.9981
tp2387
asI831
(lp2388
(S'xxx'
p2389
g47
F0.8252
tp2390
a(S'xxx'
p2391
g47
F0.979
tp2392
a(S'xxx'
p2393
g47
F0.9325
tp2394
a(S'and'
p2395
g57
F0.9993
tp2396
a(g421
g36
F0.998
tp2397
a(S'and'
p2398
g57
F0.9944
tp2399
a(S'xxx'
p2400
g47
F0.6606
tp2401
a(S'xxx'
p2402
g47
F0.9789
tp2403
a(S'xxx'
p2404
g47
F0.9466
tp2405
a(S'and'
p2406
g57
F0.9978
tp2407
a(S'xxx'
p2408
g47
F0.4334
tp2409
a(g3
g23
F0.9733
tp2410
asI834
(lp2411
(S'oh'
p2412
g3
F0.9979
tp2413
a(S'wow'
p2414
g3
F0.9996
tp2415
a(g3
g23
F0.9963
tp2416
asI838
(lp2417
(S'tell'
p2418
g21
F0.9045
tp2419
a(S'Auntie'
p2420
g6
F0.5937
tp2421
a(S'what'
p2422
g36
F0.7858
tp2423
a(S'you'
p2424
g36
F0.9998
tp2425
a(S'did'
p2426
g21
F0.9984
tp2427
a(S'today'
p2428
g6
F0.9476
tp2429
a(S'with'
p2430
g14
F0.9994
tp2431
a(S'Daddy'
p2432
g6
F0.7103
tp2433
a(S'in'
p2434
g14
F0.9988
tp2435
a(S'the'
p2436
g140
F0.9992
tp2437
a(S'pool'
p2438
g6
F0.9995
tp2439
a(g51
g23
F0.9983
tp2440
asI843
(lp2441
(S'know'
p2442
g21
F0.9631
tp2443
a(S'what'
p2444
g36
F0.9834
tp2445
a(g421
g36
F0.9998
tp2446
a(S'did'
p2447
g21
F0.9983
tp2448
a(g31
g23
F0.9977
tp2449
asI846
(lp2450
(S'what'
p2451
g36
F0.9171
tp2452
a(g31
g23
F0.9924
tp2453
asI849
(lp2454
(S'what'
p2455
g36
F0.9965
tp2456
a(S'did'
p2457
g21
F0.9994
tp2458
a(S'you'
p2459
g36
F0.9995
tp2460
a(S'do'
p2461
g21
F0.9983
tp2462
a(g31
g23
F0.9976
tp2463
asI852
(lp2464
(S'what'
p2465
g36
F0.9965
tp2466
a(S'did'
p2467
g21
F0.9994
tp2468
a(S'you'
p2469
g36
F0.9995
tp2470
a(S'do'
p2471
g21
F0.9983
tp2472
a(g31
g23
F0.9976
tp2473
asI856
(lp2474
(S'what'
p2475
g36
F0.9701
tp2476
a(S'[//]'
p2477
g23
F0.2707
tp2478
a(S'what'
p2479
g36
F0.997
tp2480
a(S'did'
p2481
g21
F0.9915
tp2482
a(S'[///]'
p2483
g23
F0.2827
tp2484
a(S'Daddy'
p2485
g6
F0.828
tp2486
a(S'was'
p2487
g21
F0.9953
tp2488
a(S'standing'
p2489
g21
F0.9982
tp2490
a(S'in'
p2491
g14
F0.984
tp2492
a(S'the'
p2493
g140
F0.9992
tp2494
a(S'pool'
p2495
g6
F0.9968
tp2496
a(S'and'
p2497
g57
F0.9966
tp2498
a(S'you'
p2499
g36
F0.9992
tp2500
a(S'were'
p2501
g21
F0.9979
tp2502
a(S'standing'
p2503
g21
F0.9961
tp2504
a(S'on'
p2505
g14
F0.982
tp2506
a(S'the'
p2507
g140
F0.9994
tp2508
a(S'deck'
p2509
g6
F0.9653
tp2510
a(S'(.)'
p2511
g89
F0.2493
tp2512
a(S'and'
p2513
g57
F0.9988
tp2514
a(S'what'
p2515
g36
F0.9987
tp2516
a(S'did'
p2517
g21
F0.9993
tp2518
a(S'you'
p2519
g36
F0.9994
tp2520
a(S'do'
p2521
g21
F0.9995
tp2522
a(S'(.)'
p2523
g27
F0.3996
tp2524
a(g31
g23
F0.9937
tp2525
asI865
(lp2526
(S'xxx'
p2527
g47
F0.5822
tp2528
a(g51
g23
F0.9648
tp2529
asI866
(lp2530
(S'xxx'
p2531
g47
F0.8981
tp2532
a(g29
g23
F0.6622
tp2533
a(g229
g92
F0.972
tp2534
a(g33
g23
F0.9847
tp2535
a(g51
g23
F0.9962
tp2536
asI868
(lp2537
(S'we'
p2538
g36
F0.9965
tp2539
a(S"can't"
p2540
g21
F0.9999
tp2541
a(S'hear'
p2542
g21
F0.9916
tp2543
a(g229
g92
F0.7532
tp2544
a(S'you'
p2545
g36
F0.9894
tp2546
a(S'whis(per)'
p2547
g21
F0.9649
tp2548
a(g221
g47
F0.3434
tp2549
a(S'[//]'
p2550
g47
F0.438
tp2551
a(S'if'
p2552
g14
F0.9983
tp2553
a(S'you'
p2554
g36
F0.9979
tp2555
a(S'whisper'
p2556
g21
F0.8155
tp2557
a(g51
g23
F0.9955
tp2558
asI871
(lp2559
(S'say'
p2560
g21
F0.9956
tp2561
a(S'it'
p2562
g36
F0.9943
tp2563
a(S'out'
p2564
g815
F0.8271
tp2565
a(S'loud'
p2566
g161
F0.892
tp2567
a(g51
g23
F0.9987
tp2568
asI875
(lp2569
(S'is'
p2570
g21
F0.9933
tp2571
a(S'[/]'
p2572
g36
F0.3756
tp2573
a(S'is'
p2574
g21
F0.999
tp2575
a(S'[/]'
p2576
g36
F0.3111
tp2577
a(S'is'
p2578
g21
F0.9979
tp2579
a(S'Daddy'
p2580
g6
F0.6691
tp2581
a(S'xxx'
p2582
g6
F0.3224
tp2583
a(g51
g23
F0.9983
tp2584
asI878
(lp2585
(S'if'
p2586
g14
F0.9872
tp2587
a(S'[/]'
p2588
g23
F0.3082
tp2589
a(S'if'
p2590
g14
F0.9796
tp2591
a(S'[/]'
p2592
g23
F0.3678
tp2593
a(S'if'
p2594
g14
F0.9955
tp2595
a(g421
g36
F0.9994
tp2596
a(S'slipped'
p2597
g21
F0.9981
tp2598
a(g29
g23
F0.9905
tp2599
a(g31
g23
F0.9868
tp2600
a(g33
g23
F0.8832
tp2601
a(g51
g23
F0.9964
tp2602
asI881
(lp2603
(S'what'
p2604
g36
F0.9171
tp2605
a(g31
g23
F0.9924
tp2606
asI885
(lp2607
(S'did'
p2608
g21
F0.9773
tp2609
a(S'Daddy'
p2610
g6
F0.5682
tp2611
a(S'catch'
p2612
g21
F0.9935
tp2613
a(S'you'
p2614
g36
F0.9964
tp2615
a(g31
g23
F0.9994
tp2616
asI889
(lp2617
(S'yeah'
p2618
g3
F0.9978
tp2619
a(S'yeah'
p2620
g3
F0.9989
tp2621
a(S'yeah'
p2622
g3
F0.9984
tp2623
a(S'yeah'
p2624
g3
F0.9969
tp2625
a(g51
g23
F0.9977
tp2626
asI892
(lp2627
(S'and'
p2628
g57
F0.9987
tp2629
a(S'[/]'
p2630
g27
F0.3132
tp2631
a(S'and'
p2632
g57
F0.9981
tp2633
a(S'[//]'
p2634
g27
F0.2982
tp2635
a(S'and'
p2636
g57
F0.9994
tp2637
a(g421
g36
F0.9989
tp2638
a(S"didn't"
p2639
g21
F0.9999
tp2640
a(S'dunk'
p2641
g21
F0.7544
tp2642
a(g3
g23
F0.999
tp2643
asI895
(lp2644
(S'you'
p2645
g36
F0.997
tp2646
a(S"didn't"
p2647
g21
F0.9998
tp2648
a(S'dunk'
p2649
g21
F0.6586
tp2650
a(g51
g23
F0.9984
tp2651
asI898
(lp2652
(S'good'
p2653
g161
F0.9942
tp2654
a(S'girl'
p2655
g6
F0.9977
tp2656
a(g3
g23
F0.9983
tp2657
asI901
(lp2658
(g229
g92
F0.9526
tp2659
a(g421
g36
F0.9967
tp2660
a(g221
g92
F0.2694
tp2661
a(S'[/]'
p2662
g23
F0.327
tp2663
a(g421
g36
F0.998
tp2664
a(S"didn't"
p2665
g21
F1.0
tp2666
a(S'slip'
p2667
g21
F0.976
tp2668
a(g51
g23
F0.9984
tp2669
asI905
(lp2670
(S'are'
p2671
g21
F0.9964
tp2672
a(S'you'
p2673
g36
F0.9984
tp2674
a(S'afraid'
p2675
g161
F0.789
tp2676
a(S'to'
p2677
g14
F0.9968
tp2678
a(S'dunk'
p2679
g21
F0.7008
tp2680
a(g31
g23
F0.9976
tp2681
asI909
(lp2682
(S'no'
p2683
g3
F0.9704
tp2684
a(g51
g23
F0.9989
tp2685
asI912
(lp2686
(S'why'
p2687
g62
F0.9408
tp2688
a(g31
g23
F0.9946
tp2689
asI916
(lp2690
(S'because'
p2691
g14
F0.997
tp2692
a(S"I'm"
p2693
g9
F0.9958
tp2694
a(g410
g140
F0.9906
tp2695
a(S'big'
p2696
g161
F0.9873
tp2697
a(S'girl'
p2698
g6
F0.9982
tp2699
a(g51
g23
F0.9966
tp2700
asI919
(lp2701
(S'oh'
p2702
g3
F0.9966
tp2703
a(S"you're"
p2704
g9
F0.9795
tp2705
a(g410
g140
F0.995
tp2706
a(S'big'
p2707
g161
F0.9873
tp2708
a(S'girl'
p2709
g6
F0.9982
tp2710
a(g51
g23
F0.9966
tp2711
asI922
(lp2712
(S'oh'
p2713
g3
F0.9984
tp2714
a(g51
g23
F0.9938
tp2715
asI926
(lp2716
(S'xxx'
p2717
g47
F0.5822
tp2718
a(g51
g23
F0.9648
tp2719
asI927
(lp2720
(S'more'
p2721
g161
F0.8137
tp2722
a(S'meat'
p2723
g6
F0.998
tp2724
a(g51
g23
F0.9985
tp2725
asI930
(lp2726
(S'you'
p2727
g36
F0.997
tp2728
a(S'eat'
p2729
g21
F0.9994
tp2730
a(S'some'
p2731
g140
F0.8725
tp2732
a(S'of'
p2733
g14
F0.9907
tp2734
a(S'that'
p2735
g36
F0.9211
tp2736
a(S'and'
p2737
g57
F0.9966
tp2738
a(S"I'll"
p2739
g9
F0.9894
tp2740
a(S'give'
p2741
g21
F0.9999
tp2742
a(S'you'
p2743
g36
F0.9951
tp2744
a(S'more'
p2745
g161
F0.8706
tp2746
a(S'meat'
p2747
g6
F0.9901
tp2748
a(S'Donna'
p2749
g27
F0.8074
tp2750
a(g29
g23
F0.9799
tp2751
a(g31
g23
F0.9914
tp2752
a(g33
g23
F0.8976
tp2753
a(g51
g23
F0.9972
tp2754
asI935
(lp2755
(S'some'
p2756
g140
F0.9039
tp2757
a(S'more'
p2758
g161
F0.9925
tp2759
a(S'chicken'
p2760
g6
F0.9916
tp2761
a(g51
g23
F0.9986
tp2762
asI938
(lp2763
(S'chicken'
p2764
g6
F0.7995
tp2765
a(g51
g23
F0.9983
tp2766
asI941
(lp2767
(S"that's"
p2768
g9
F0.9974
tp2769
a(S'not'
p2770
g62
F0.9791
tp2771
a(S'chicken'
p2772
g6
F0.7429
tp2773
a(S"it's"
p2774
g9
F0.9784
tp2775
a(S'steak'
p2776
g6
F0.9921
tp2777
a(g51
g23
F0.9982
tp2778
asI945
(lp2779
(S'xxx'
p2780
g47
F0.8252
tp2781
a(S'xxx'
p2782
g47
F0.98
tp2783
a(S'xxx'
p2784
g47
F0.9051
tp2785
a(g51
g23
F0.9663
tp2786
asI946
(lp2787
(S'yeah'
p2788
g3
F0.9986
tp2789
a(g51
g23
F0.997
tp2790
asI949
(lp2791
(S'so'
p2792
g14
F0.7418
tp2793
a(S'what'
p2794
g36
F0.9955
tp2795
a(S'are'
p2796
g21
F0.9982
tp2797
a(S'you'
p2798
g36
F0.9995
tp2799
a(S'going'
p2800
g21
F0.9997
tp2801
a(S'to'
p2802
g14
F0.8782
tp2803
a(S'do'
p2804
g21
F0.9996
tp2805
a(S'tonight'
p2806
g62
F0.8984
tp2807
a(S'when'
p2808
g62
F0.9894
tp2809
a(S'you'
p2810
g36
F0.9985
tp2811
a(S'go'
p2812
g21
F0.9987
tp2813
a(S'in'
p2814
g14
F0.9897
tp2815
a(S'the'
p2816
g140
F0.9992
tp2817
a(S'pool'
p2818
g6
F0.998
tp2819
a(S'with'
p2820
g14
F0.9993
tp2821
a(S'Daddy'
p2822
g27
F0.591
tp2823
a(S'(.)'
p2824
g27
F0.6933
tp2825
a(g31
g23
F0.9962
tp2826
asI957
(lp2827
(g229
g92
F0.9526
tp2828
a(g421
g36
F0.9967
tp2829
a(g221
g92
F0.2694
tp2830
a(S'[/]'
p2831
g23
F0.327
tp2832
a(g421
g36
F0.9978
tp2833
a(S'gonna'
p2834
g21
F0.9995
tp2835
a(S'(.)'
p2836
g27
F0.2833
tp2837
a(S'dunk'
p2838
g6
F0.7642
tp2839
a(g51
g23
F0.999
tp2840
asI960
(lp2841
(S"you're"
p2842
g9
F0.9894
tp2843
a(S'gonna'
p2844
g21
F0.9833
tp2845
a(S'dunk'
p2846
g21
F0.5567
tp2847
a(g31
g23
F0.998
tp2848
asI964
(lp2849
(S'no'
p2850
g3
F0.8449
tp2851
a(S"I'm"
p2852
g9
F0.9976
tp2853
a(S'not'
p2854
g62
F0.9951
tp2855
a(g51
g23
F0.996
tp2856
asI968
(lp2857
(S'are'
p2858
g21
F0.9964
tp2859
a(S'you'
p2860
g36
F0.9994
tp2861
a(S'gonna'
p2862
g21
F0.9992
tp2863
a(S'dunk'
p2864
g21
F0.8106
tp2865
a(S'Daddy'
p2866
g6
F0.9043
tp2867
a(g31
g23
F0.9977
tp2868
asI971
(lp2869
(g421
g36
F0.9976
tp2870
a(S"can't"
p2871
g21
F0.9999
tp2872
a(g51
g23
F0.9971
tp2873
asI974
(lp2874
(g421
g36
F0.9976
tp2875
a(S"can't"
p2876
g21
F0.9999
tp2877
a(g51
g23
F0.9971
tp2878
asI977
(lp2879
(S'why'
p2880
g62
F0.9408
tp2881
a(g31
g23
F0.9946
tp2882
asI980
(lp2883
(g229
g92
F0.8848
tp2884
a(S'be(cause)'
p2885
g14
F0.9765
tp2886
a(g221
g89
F0.3195
tp2887
a(S'[/]'
p2888
g89
F0.3964
tp2889
a(g229
g92
F0.8795
tp2890
a(S'be(cause)'
p2891
g14
F0.9727
tp2892
a(g221
g89
F0.3519
tp2893
a(S'[//]'
p2894
g89
F0.2845
tp2895
a(S'because'
p2896
g14
F0.9905
tp2897
a(S'Daddy'
p2898
g6
F0.7871
tp2899
a(S'will'
p2900
g21
F0.9939
tp2901
a(S'slip'
p2902
g21
F0.9834
tp2903
a(S'and'
p2904
g57
F0.9956
tp2905
a(S'then'
p2906
g62
F0.9928
tp2907
a(S"I'll"
p2908
g9
F0.9815
tp2909
a(S'dunk'
p2910
g21
F0.6456
tp2911
a(g51
g23
F0.9978
tp2912
asI985
(lp2913
(S'zzz'
p2914
g3
F0.3756
tp2915
a(g51
g23
F0.9972
tp2916
asI989
(lp2917
(S'oh'
p2918
g3
F0.9984
tp2919
a(g51
g23
F0.9938
tp2920
asI992
(lp2921
(S'Daddy'
p2922
g6
F0.871
tp2923
a(S'will'
p2924
g21
F0.9944
tp2925
a(S'slip'
p2926
g21
F0.984
tp2927
a(S'and'
p2928
g57
F0.997
tp2929
a(S"you'll"
p2930
g9
F0.9807
tp2931
a(S'dunk'
p2932
g21
F0.6461
tp2933
a(g51
g23
F0.9982
tp2934
asI996
(lp2935
(S'yeah'
p2936
g3
F0.9986
tp2937
a(g51
g23
F0.997
tp2938
asI999
(lp2939
(S'oh'
p2940
g3
F0.9984
tp2941
a(g51
g23
F0.9938
tp2942
asI1005
(lp2943
(S'Mommy'
p2944
g6
F0.479
tp2945
a(S'xxx'
p2946
g21
F0.5924
tp2947
a(S'me'
p2948
g36
F0.9986
tp2949
a(S'up'
p2950
g815
F0.9596
tp2951
a(g51
g23
F0.9981
tp2952
asI1008
(lp2953
(S'Mommy'
p2954
g6
F0.7586
tp2955
a(g3
g23
F0.9986
tp2956
asI1011
(lp2957
(S'Star'
p2958
g27
F0.7967
tp2959
a(S'(.)'
p2960
g27
F0.6258
tp2961
a(S'get'
p2962
g21
F0.9988
tp2963
a(S'out'
p2964
g815
F0.9191
tp2965
a(g29
g23
F0.9878
tp2966
a(g3
g23
F0.9901
tp2967
a(g33
g23
F0.9816
tp2968
a(S'of'
p2969
g14
F0.9679
tp2970
a(S'here'
p2971
g62
F0.9478
tp2972
a(g51
g23
F0.9986
tp2973
asI1014
(lp2974
(S'come'
p2975
g21
F0.9888
tp2976
a(S'here'
p2977
g62
F0.9759
tp2978
a(S'(.)'
p2979
g23
F0.2226
tp2980
a(g51
g23
F0.9962
tp2981
asI1018
(lp2982
(S'come'
p2983
g21
F0.9843
tp2984
a(S'here'
p2985
g62
F0.9832
tp2986
a(g51
g23
F0.9986
tp2987
asI1022
(lp2988
(S'Star'
p2989
g27
F0.4926
tp2990
a(g51
g23
F0.9934
tp2991
asI1025
(lp2992
(S'Star'
p2993
g27
F0.7127
tp2994
a(S'(.)'
p2995
g27
F0.62
tp2996
a(g3
g23
F0.9868
tp2997
asI1028
(lp2998
(S'did'
p2999
g21
F0.9986
tp3000
a(S'you'
p3001
g36
F0.9973
tp3002
a(S'like'
p3003
g21
F0.7106
tp3004
a(S'the'
p3005
g140
F0.9992
tp3006
a(S'fireworks'
p3007
g6
F0.9867
tp3008
a(S'when'
p3009
g62
F0.9724
tp3010
a(S'we'
p3011
g36
F0.9977
tp3012
a(S'saw'
p3013
g21
F0.9999
tp3014
a(S'them'
p3015
g36
F0.9772
tp3016
a(g31
g23
F0.9981
tp3017
asI1034
(lp3018
(S'yeah'
p3019
g3
F0.9986
tp3020
a(g51
g23
F0.997
tp3021
asI1037
(lp3022
(S'wan(t'
p3023
g21
F0.9557
tp3024
a(g1541
g23
F0.9434
tp3025
a(g1182
g23
F0.94
tp3026
a(S't)a'
p3027
g14
F0.6261
tp3028
a(S'go'
p3029
g21
F0.9857
tp3030
a(S'back'
p3031
g62
F0.9905
tp3032
a(S'next'
p3033
g161
F0.965
tp3034
a(S'year'
p3035
g6
F0.9836
tp3036
a(g31
g23
F0.9983
tp3037
asI1040
(lp3038
(S'no'
p3039
g3
F0.8567
tp3040
a(g421
g36
F0.9974
tp3041
a(S'want'
p3042
g21
F0.9999
tp3043
a(S'to'
p3044
g14
F0.9835
tp3045
a(S'go'
p3046
g21
F0.9987
tp3047
a(S'tomorrow'
p3048
g6
F0.6742
tp3049
a(g51
g23
F0.996
tp3050
asI1043
(lp3051
(S'tomorrow'
p3052
g6
F0.9497
tp3053
a(g31
g23
F0.9941
tp3054
asI1047
(lp3055
(S'yeah'
p3056
g3
F0.9994
tp3057
a(g3
g23
F0.9967
tp3058
asI1050
(lp3059
(S'well'
p3060
g3
F0.8994
tp3061
a(S'we'
p3062
g36
F0.9993
tp3063
a(S'got'
p3064
g21
F0.9998
tp3065
a(g410
g140
F0.9971
tp3066
a(S'long'
p3067
g161
F0.9983
tp3068
a(S'time'
p3069
g6
F0.9993
tp3070
a(S'to'
p3071
g14
F0.9977
tp3072
a(S'wait'
p3073
g21
F0.9991
tp3074
a(S'for'
p3075
g14
F0.9945
tp3076
a(S'fireworks'
p3077
g6
F0.976
tp3078
a(g29
g23
F0.987
tp3079
a(g3
g23
F0.9901
tp3080
a(g33
g23
F0.9869
tp3081
a(S'again'
p3082
g62
F0.968
tp3083
a(g51
g23
F0.9976
tp3084
asI1055
(lp3085
(S'did'
p3086
g21
F0.9986
tp3087
a(S'you'
p3088
g36
F0.9973
tp3089
a(S'like'
p3090
g21
F0.9402
tp3091
a(S'them'
p3092
g36
F0.9908
tp3093
a(g31
g23
F0.9984
tp3094
asI1059
(lp3095
(S'yeah'
p3096
g3
F0.9962
tp3097
a(S'but'
p3098
g57
F0.9965
tp3099
a(g421
g36
F0.9994
tp3100
a(S'was'
p3101
g21
F0.9996
tp3102
a(S'afraid'
p3103
g161
F0.9836
tp3104
a(g51
g23
F0.9977
tp3105
asI1062
(lp3106
(S'no'
p3107
g3
F0.7985
tp3108
a(S'you'
p3109
g36
F0.984
tp3110
a(S"weren't"
p3111
g21
F0.9967
tp3112
a(S'afraid'
p3113
g161
F0.9897
tp3114
a(g51
g23
F0.9983
tp3115
asI1065
(lp3116
(S'yeah'
p3117
g3
F0.9986
tp3118
a(g51
g23
F0.997
tp3119
asI1068
(lp3120
(S'what'
p3121
g36
F0.9965
tp3122
a(S'did'
p3123
g21
F0.9973
tp3124
a(S'they'
p3125
g36
F0.9953
tp3126
a(S'do'
p3127
g21
F0.9996
tp3128
a(S'when'
p3129
g62
F0.9693
tp3130
a(S'they'
p3131
g36
F0.9882
tp3132
a(S'went'
p3133
g21
F0.9999
tp3134
a(S'up'
p3135
g815
F0.9024
tp3136
a(S'in'
p3137
g14
F0.9967
tp3138
a(S'the'
p3139
g140
F0.9993
tp3140
a(S'sky'
p3141
g6
F0.8093
tp3142
a(g31
g23
F0.9979
tp3143
asI1074
(lp3144
(S'made'
p3145
g21
F0.9932
tp3146
a(g410
g140
F0.9888
tp3147
a(S'boom'
p3148
g6
F0.9676
tp3149
a(g51
g23
F0.9975
tp3150
asI1077
(lp3151
(S'did'
p3152
g21
F0.9935
tp3153
a(S'they'
p3154
g36
F0.9782
tp3155
a(S'(.)'
p3156
g89
F0.4217
tp3157
a(g31
g23
F0.9891
tp3158
asI1081
(lp3159
(S'and'
p3160
g57
F0.9988
tp3161
a(S'what'
p3162
g36
F0.8207
tp3163
a(S'colors'
p3164
g6
F0.9866
tp3165
a(S'was'
p3166
g21
F0.9972
tp3167
a(S'[//]'
p3168
g23
F0.3445
tp3169
a(S'were'
p3170
g21
F0.9885
tp3171
a(S'there'
p3172
g62
F0.9081
tp3173
a(g31
g23
F0.9981
tp3174
asI1085
(lp3175
(S'blue'
p3176
g161
F0.8776
tp3177
a(S'and'
p3178
g57
F0.997
tp3179
a(S'red'
p3180
g161
F0.9172
tp3181
a(g51
g23
F0.9982
tp3182
asI1088
(lp3183
(S'blue'
p3184
g161
F0.8776
tp3185
a(S'and'
p3186
g57
F0.9972
tp3187
a(S'red'
p3188
g161
F0.9575
tp3189
a(S'and'
p3190
g57
F0.9978
tp3191
a(S'what'
p3192
g36
F0.9898
tp3193
a(S'else'
p3194
g62
F0.9298
tp3195
a(g31
g23
F0.9977
tp3196
asI1092
(lp3197
(S'green'
p3198
g161
F0.9317
tp3199
a(g29
g23
F0.9888
tp3200
a(g31
g23
F0.976
tp3201
a(g33
g23
F0.9593
tp3202
a(S'and'
p3203
g57
F0.9988
tp3204
a(S'white'
p3205
g161
F0.8824
tp3206
a(S'(.)'
p3207
g27
F0.3314
tp3208
a(g51
g23
F0.9938
tp3209
asI1095
(lp3210
(S'xxx'
p3211
g47
F0.6521
tp3212
a(g3
g23
F0.9801
tp3213
asI1096
(lp3214
(S'what'
p3215
g36
F0.9923
tp3216
a(S'was'
p3217
g21
F0.9987
tp3218
a(S'the'
p3219
g140
F0.9998
tp3220
a(S'other'
p3221
g161
F0.9884
tp3222
a(S'colors'
p3223
g6
F0.9905
tp3224
a(S'(.)'
p3225
g47
F0.4375
tp3226
a(g31
g23
F0.9711
tp3227
asI1099
(lp3228
(S'green'
p3229
g161
F0.9115
tp3230
a(g51
g23
F0.9978
tp3231
asI1102
(lp3232
(S'green'
p3233
g161
F0.9115
tp3234
a(g51
g23
F0.9978
tp3235
asI1105
(lp3236
(S'and'
p3237
g57
F0.9981
tp3238
a(S'yellow'
p3239
g161
F0.9629
tp3240
a(S'green'
p3241
g161
F0.6754
tp3242
a(g51
g23
F0.9982
tp3243
asI1108
(lp3244
(S'yeah'
p3245
g3
F0.9986
tp3246
a(g51
g23
F0.997
tp3247
asI1111
(lp3248
(S'purple'
p3249
g161
F0.8814
tp3250
a(g31
g23
F0.9949
tp3251
asI1114
(lp3252
(S'no'
p3253
g3
F0.9704
tp3254
a(g51
g23
F0.9989
tp3255
asI1117
(lp3256
(S'no'
p3257
g3
F0.5844
tp3258
a(S'there'
p3259
g62
F0.4696
tp3260
a(S'was'
p3261
g21
F0.9979
tp3262
a(S'no'
p3263
g140
F0.7902
tp3264
a(S'purple'
p3265
g6
F0.6209
tp3266
a(g31
g23
F0.9975
tp3267
asI1120
(lp3268
(S'no'
p3269
g140
F0.5558
tp3270
a(S'purple'
p3271
g6
F0.6249
tp3272
a(g51
g23
F0.9987
tp3273
asI1123
(lp3274
(S'was'
p3275
g21
F0.9931
tp3276
a(S'there'
p3277
g62
F0.5224
tp3278
a(S'any'
p3279
g140
F0.9454
tp3280
a(S'yellow'
p3281
g161
F0.7486
tp3282
a(g31
g23
F0.9969
tp3283
asI1127
(lp3284
(S'&-um'
p3285
g3
F0.9631
tp3286
a(S'yeah'
p3287
g3
F0.9989
tp3288
a(g51
g23
F0.9975
tp3289
asI1130
(lp3290
(S'&-um'
p3291
g3
F0.7959
tp3292
a(S'(.)'
p3293
g47
F0.3313
tp3294
a(S'uhhuh'
p3295
g3
F0.9334
tp3296
a(g51
g23
F0.9979
tp3297
asI1133
(lp3298
(S'there'
p3299
S'X'
p3300
F0.6065
tp3301
a(S'was'
p3302
g21
F0.9844
tp3303
a(S'yellow'
p3304
g161
F0.925
tp3305
a(g51
g23
F0.9982
tp3306
asI1136
(lp3307
(S'xxx'
p3308
g47
F0.5822
tp3309
a(g51
g23
F0.9648
tp3310
asI1137
(lp3311
(S'there'
p3312
g3300
F0.6065
tp3313
a(S'was'
p3314
g21
F0.9842
tp3315
a(S'orange'
p3316
g161
F0.9395
tp3317
a(g51
g23
F0.9982
tp3318
asI1140
(lp3319
(S'oh'
p3320
g3
F0.9917
tp3321
a(S'there'
p3322
g3300
F0.5222
tp3323
a(S'was'
p3324
g21
F0.9886
tp3325
a(S'orange'
p3326
g161
F0.9478
tp3327
a(g31
g23
F0.9969
tp3328
asI1144
(lp3329
(S'yeah'
p3330
g3
F0.9994
tp3331
a(g3
g23
F0.9967
tp3332
asI1147
(lp3333
(S'oh'
p3334
g3
F0.997
tp3335
a(g421
g36
F0.9983
tp3336
a(S"didn't"
p3337
g21
F1.0
tp3338
a(S'see'
p3339
g21
F0.9997
tp3340
a(S'the'
p3341
g140
F0.9993
tp3342
a(S'orange'
p3343
g161
F0.4721
tp3344
a(g51
g23
F0.9981
tp3345
asI1150
(lp3346
(S'yes'
p3347
g3
F0.9701
tp3348
a(S'you'
p3349
g36
F0.9994
tp3350
a(S'did'
p3351
g21
F0.9977
tp3352
a(g51
g23
F0.9978
tp3353
asI1153
(lp3354
(S'oh'
p3355
g3
F0.997
tp3356
a(g421
g36
F0.9995
tp3357
a(S'did'
p3358
g21
F0.9991
tp3359
a(g31
g23
F0.9978
tp3360
asI1157
(lp3361
(S'yeah'
p3362
g3
F0.9986
tp3363
a(g51
g23
F0.997
tp3364
asI1160
(lp3365
(S'all'
p3366
g3300
F0.7572
tp3367
a(S'the'
p3368
g140
F0.9992
tp3369
a(S'pretty'
p3370
g161
F0.92
tp3371
a(S'colors'
p3372
g6
F0.9987
tp3373
a(g51
g23
F0.9986
tp3374
asI1163
(lp3375
(S'all'
p3376
g3300
F0.7572
tp3377
a(S'the'
p3378
g140
F0.9992
tp3379
a(S'pretty'
p3380
g161
F0.92
tp3381
a(S'colors'
p3382
g6
F0.9982
tp3383
a(g31
g23
F0.9984
tp3384
asI1167
(lp3385
(S'yeah'
p3386
g3
F0.9963
tp3387
a(S'all'
p3388
g140
F0.719
tp3389
a(S'[/]'
p3390
g23
F0.373
tp3391
a(S'all'
p3392
g3300
F0.7353
tp3393
a(S'the'
p3394
g140
F0.9992
tp3395
a(S'pretty'
p3396
g161
F0.9149
tp3397
a(S'colors'
p3398
g6
F0.9949
tp3399
a(S'xxx'
p3400
g47
F0.552
tp3401
a(S'pretty'
p3402
g62
F0.7316
tp3403
a(g29
g23
F0.9791
tp3404
a(g31
g23
F0.9841
tp3405
a(g33
g23
F0.8521
tp3406
a(S'colors'
p3407
g6
F0.9733
tp3408
a(g3
g23
F0.9994
tp3409
asI1171
(lp3410
(S'colors'
p3411
g6
F0.9792
tp3412
a(g3
g23
F0.9986
tp3413
asI1174
(lp3414
(S'all'
p3415
g140
F0.4876
tp3416
a(S'around'
p3417
g14
F0.7272
tp3418
a(S'(.)'
p3419
g89
F0.2993
tp3420
a(S'xxx'
p3421
g89
F0.6048
tp3422
a(g51
g23
F0.9943
tp3423
asI1178
(lp3424
(S"you're"
p3425
g9
F0.9904
tp3426
a(S'silly'
p3427
g161
F0.9985
tp3428
a(g51
g23
F0.9985
tp3429
asI1181
(lp3430
(S'zzz'
p3431
g89
F0.5434
tp3432
a(S'(.)'
p3433
g89
F0.453
tp3434
a(g51
g23
F0.9899
tp3435
asI1185
(lp3436
(S'if'
p3437
g14
F0.9977
tp3438
a(S'you'
p3439
g36
F0.9997
tp3440
a(S'eat'
p3441
g21
F0.9997
tp3442
a(S'all'
p3443
g140
F0.6781
tp3444
a(S'that'
p3445
g36
F0.6477
tp3446
a(S'up'
p3447
g815
F0.6597
tp3448
a(S'(.)'
p3449
g47
F0.329
tp3450
a(S'what'
p3451
g36
F0.9917
tp3452
a(S'would'
p3453
g21
F0.9997
tp3454
a(S'you'
p3455
g36
F0.995
tp3456
a(S'like'
p3457
g21
F0.8818
tp3458
a(S'for'
p3459
g14
F0.9958
tp3460
a(S'dessert'
p3461
g6
F0.9607
tp3462
a(g31
g23
F0.9985
tp3463
asI1191
(lp3464
(S'&-um'
p3465
g3
F0.7959
tp3466
a(S'(.)'
p3467
g27
F0.3671
tp3468
a(S'ice'
p3469
g6
F0.4225
tp3470
a(S'cream'
p3471
g6
F0.8627
tp3472
a(S'cone'
p3473
g6
F0.9976
tp3474
a(g51
g23
F0.9977
tp3475
asI1194
(lp3476
(S'ice'
p3477
g6
F0.642
tp3478
a(S'cream'
p3479
g6
F0.7428
tp3480
a(S'cone'
p3481
g6
F0.9988
tp3482
a(g31
g23
F0.9981
tp3483
asI1198
(lp3484
(S'yeah'
p3485
g3
F0.9986
tp3486
a(g51
g23
F0.997
tp3487
asI1201
(lp3488
(S'yeah'
p3489
g3
F0.9986
tp3490
a(g51
g23
F0.997
tp3491
asI1204
(lp3492
(S'alright'
p3493
g3
F0.9793
tp3494
a(g51
g23
F0.9973
tp3495
asI1207
(lp3496
(S'but'
p3497
g57
F0.9965
tp3498
a(g421
g36
F0.9992
tp3499
a(S"don't"
p3500
g21
F1.0
tp3501
a(S'want'
p3502
g21
F1.0
tp3503
a(S'any'
p3504
g140
F0.9903
tp3505
a(S'ice'
p3506
g6
F0.8882
tp3507
a(S'cream'
p3508
g6
F0.8365
tp3509
a(S'cone'
p3510
g6
F0.9918
tp3511
a(S'now'
p3512
g62
F0.995
tp3513
a(g51
g23
F0.9985
tp3514
asI1212
(lp3515
(S'but'
p3516
g57
F0.9965
tp3517
a(g421
g36
F0.9994
tp3518
a(S'want'
p3519
g21
F1.0
tp3520
a(S'an'
p3521
g140
F0.9928
tp3522
a(S'ice'
p3523
g6
F0.9491
tp3524
a(S'cream'
p3525
g6
F0.8341
tp3526
a(S'cone'
p3527
g6
F0.9986
tp3528
a(g51
g23
F0.9984
tp3529
asI1215
(lp3530
(S"don't"
p3531
g21
F0.999
tp3532
a(S'talk'
p3533
g21
F0.9992
tp3534
a(S'with'
p3535
g14
F0.9994
tp3536
a(S'your'
p3537
g140
F0.9979
tp3538
a(S'mouth'
p3539
g6
F0.999
tp3540
a(S'full'
p3541
g161
F0.9655
tp3542
a(g51
g23
F0.9983
tp3543
asI1218
(lp3544
(S'Mommy'
p3545
g6
F0.8032
tp3546
a(g421
g36
F0.9937
tp3547
a(S'want'
p3548
g21
F1.0
tp3549
a(S'an'
p3550
g140
F0.9928
tp3551
a(S'ice'
p3552
g6
F0.9491
tp3553
a(S'cream'
p3554
g6
F0.8365
tp3555
a(S'cone'
p3556
g6
F0.9973
tp3557
a(S'tomorrow'
p3558
g6
F0.9726
tp3559
a(g51
g23
F0.9969
tp3560
asI1223
(lp3561
(S'tomorrow'
p3562
g6
F0.9497
tp3563
a(g31
g23
F0.9941
tp3564
asI1227
(lp3565
(S'alright'
p3566
g3
F0.9664
tp3567
a(S'(.)'
p3568
g3
F0.2532
tp3569
a(g51
g23
F0.9973
tp3570
asI1230
(lp3571
(S'did'
p3572
g21
F0.9986
tp3573
a(S'you'
p3574
g36
F0.9993
tp3575
a(S'have'
p3576
g21
F0.9991
tp3577
a(S'enough'
p3578
g6
F0.4376
tp3579
a(S'to'
p3580
g14
F0.9977
tp3581
a(S'eat'
p3582
g21
F0.9822
tp3583
a(g31
g23
F0.9978
tp3584
asI1234
(lp3585
(S'yes'
p3586
g3
F0.9961
tp3587
a(g51
g23
F0.9972
tp3588
asI1237
(lp3589
(S'you'
p3590
g36
F0.9867
tp3591
a(S'[/]'
p3592
g21
F0.5498
tp3593
a(S'you'
p3594
g36
F0.9996
tp3595
a(S'want'
p3596
g21
F0.9999
tp3597
a(S'some'
p3598
g140
F0.9404
tp3599
a(S'more'
p3600
g161
F0.9576
tp3601
a(S'cucumbers'
p3602
g6
F0.9713
tp3603
a(g31
g23
F0.9975
tp3604
asI1241
(lp3605
(S'&-um'
p3606
g3
F0.7959
tp3607
a(S'(.)'
p3608
g47
F0.3486
tp3609
a(S'mhm'
p3610
g3
F0.6294
tp3611
a(S'(.)'
p3612
g47
F0.4513
tp3613
a(S'yeah'
p3614
g3
F0.9943
tp3615
a(g51
g23
F0.997
tp3616
asI1244
(lp3617
(S'what'
p3618
g36
F0.9835
tp3619
a(S'are'
p3620
g21
F0.996
tp3621
a(S'these'
p3622
g36
F0.722
tp3623
a(g31
g23
F0.9983
tp3624
asI1248
(lp3625
(S'cucumbers'
p3626
g6
F0.4696
tp3627
a(S'(.)'
p3628
g6
F0.3389
tp3629
a(g51
g23
F0.9976
tp3630
asI1251
(lp3631
(g421
g36
F0.9982
tp3632
a(S'think'
p3633
g21
F0.9999
tp3634
a(g421
g36
F0.9989
tp3635
a(S'can'
p3636
g21
F0.9998
tp3637
a(S'get'
p3638
g21
F0.9987
tp3639
a(g1182
g23
F0.9808
tp3640
a(S'th)em'
p3641
g36
F0.717
tp3642
a(S'by'
p3643
g14
F0.9961
tp3644
a(S'myself'
p3645
g36
F0.9962
tp3646
a(S'now'
p3647
g62
F0.9978
tp3648
a(g51
g23
F0.9987
tp3649
asI1256
(lp3650
(S'alright'
p3651
g3
F0.9793
tp3652
a(g51
g23
F0.9973
tp3653
asI1259
(lp3654
(S'you'
p3655
g36
F0.9969
tp3656
a(S'can'
p3657
g21
F0.9998
tp3658
a(S'take'
p3659
g21
F0.9934
tp3660
a(g1182
g23
F0.992
tp3661
a(S'th)em'
p3662
g36
F0.717
tp3663
a(S'by'
p3664
g14
F0.9967
tp3665
a(S'yourself'
p3666
g36
F0.9916
tp3667
a(g51
g23
F0.9984
tp3668
asI1262
(lp3669
(S'xxx'
p3670
g47
F0.5822
tp3671
a(g51
g23
F0.9648
tp3672
asI1263
(lp3673
(S'use'
p3674
g21
F0.9473
tp3675
a(S'your'
p3676
g140
F0.9927
tp3677
a(S'fork'
p3678
g6
F0.9992
tp3679
a(g51
g23
F0.9985
tp3680
asI1266
(lp3681
(S'are'
p3682
g21
F0.9964
tp3683
a(S'you'
p3684
g36
F0.9984
tp3685
a(S'hungry'
p3686
g161
F0.7614
tp3687
a(S'again'
p3688
g62
F0.9756
tp3689
a(g31
g23
F0.9979
tp3690
asI1270
(lp3691
(S'hunhunh'
p3692
g3
F0.4147
tp3693
a(g51
g23
F0.9969
tp3694
asI1273
(lp3695
(S'cucumbers'
p3696
g27
F0.4975
tp3697
a(S'Chi'
p3698
g27
F0.9828
tp3699
a(g51
g23
F0.9882
tp3700
asI1277
(lp3701
(S'xxx'
p3702
g47
F0.7443
tp3703
a(S'Chi'
p3704
g27
F0.8651
tp3705
a(g31
g23
F0.9908
tp3706
asI1281
(lp3707
(S'cucumbers'
p3708
g6
F0.7854
tp3709
a(g51
g23
F0.9985
tp3710
asI1284
(lp3711
(S'cucumbers'
p3712
g6
F0.7052
tp3713
a(g31
g23
F0.9963
tp3714
asI1288
(lp3715
(S'yeah'
p3716
g3
F0.9986
tp3717
a(g51
g23
F0.997
tp3718
asI1291
(lp3719
(S'how'
p3720
g62
F0.9945
tp3721
a(S'many'
p3722
g161
F0.884
tp3723
a(S'is'
p3724
g21
F0.9759
tp3725
a(S'there'
p3726
g62
F0.8597
tp3727
a(g31
g23
F0.9983
tp3728
asI1295
(lp3729
(S'one'
p3730
S'$'
p3731
F0.958
tp3732
a(S'two'
p3733
g3731
F0.9083
tp3734
a(S'three'
p3735
g3731
F0.8504
tp3736
a(g51
g23
F0.9976
tp3737
asI1298
(lp3738
(g421
g36
F0.9974
tp3739
a(S'see'
p3740
g21
F0.9989
tp3741
a(S'more'
p3742
g161
F0.9016
tp3743
a(S'than'
p3744
g14
F0.9941
tp3745
a(S'three'
p3746
g3731
F0.8601
tp3747
a(g51
g23
F0.9967
tp3748
asI1301
(lp3749
(S'well'
p3750
g3
F0.6793
tp3751
a(S'one'
p3752
g3731
F0.9439
tp3753
a(S'more'
p3754
g161
F0.8675
tp3755
a(S'than'
p3756
g14
F0.9941
tp3757
a(S'three'
p3758
g3731
F0.8601
tp3759
a(g51
g23
F0.9967
tp3760
asI1305
(lp3761
(S'little'
p3762
g161
F0.9606
tp3763
a(S'bites'
p3764
g6
F0.9833
tp3765
a(g29
g23
F0.9873
tp3766
a(g221
g47
F0.5453
tp3767
a(g33
g23
F0.7789
tp3768
a(g51
g23
F0.995
tp3769
asI1308
(lp3770
(S'zzz'
p3771
g89
F0.409
tp3772
a(g29
g23
F0.9451
tp3773
a(g229
g92
F0.972
tp3774
a(g33
g23
F0.9847
tp3775
a(g51
g23
F0.9962
tp3776
asI1312
(lp3777
(S"you're"
p3778
g9
F0.9894
tp3779
a(S'gonna'
p3780
g21
F0.9967
tp3781
a(S'choke'
p3782
g21
F0.9919
tp3783
a(S'(.)'
p3784
g27
F0.4461
tp3785
a(g51
g23
F0.9943
tp3786
asI1316
(lp3787
(S'Chi'
p3788
g27
F0.6936
tp3789
a(g3
g23
F0.9785
tp3790
asI1320
(lp3791
(S"that's"
p3792
g9
F0.9859
tp3793
a(S'enough'
p3794
g161
F0.7926
tp3795
a(g51
g23
F0.9987
tp3796
asI1323
(lp3797
(S'no'
p3798
g3
F0.8567
tp3799
a(g421
g36
F0.9974
tp3800
a(S'want'
p3801
g21
F1.0
tp3802
a(S'all'
p3803
g140
F0.8795
tp3804
a(S'of'
p3805
g14
F0.9919
tp3806
a(S'it'
p3807
g36
F0.997
tp3808
a(g51
g23
F0.9989
tp3809
asI1327
(lp3810
(S'no'
p3811
g3
F0.7985
tp3812
a(S'you'
p3813
g36
F0.9954
tp3814
a(S"can't"
p3815
g21
F0.9999
tp3816
a(S'have'
p3817
g21
F1.0
tp3818
a(S'all'
p3819
g140
F0.9384
tp3820
a(S'of'
p3821
g14
F0.9947
tp3822
a(S'it'
p3823
g36
F0.9945
tp3824
a(S'cause'
p3825
g14
F0.8335
tp3826
a(S"there's"
p3827
g9
F0.7469
tp3828
a(S'others'
p3829
g6
F0.8385
tp3830
a(S'here'
p3831
g62
F0.9453
tp3832
a(g51
g23
F0.9978
tp3833
asI1332
(lp3834
(S'you'
p3835
g36
F0.998
tp3836
a(S'have'
p3837
g21
F0.9972
tp3838
a(S'plenty'
p3839
g6
F0.98
tp3840
a(g29
g23
F0.9894
tp3841
a(g3
g23
F0.9917
tp3842
a(g33
g23
F0.9703
tp3843
a(g51
g23
F0.9959
tp3844
asI1335
(lp3845
(S'no'
p3846
g3
F0.8567
tp3847
a(g421
g36
F0.9962
tp3848
a(S"don't"
p3849
g21
F1.0
tp3850
a(S'(.)'
p3851
g89
F0.2012
tp3852
a(g51
g23
F0.9925
tp3853
asI1339
(lp3854
(S'take'
p3855
g21
F0.9842
tp3856
a(S'little'
p3857
g161
F0.9885
tp3858
a(S'bites'
p3859
g6
F0.9704
tp3860
a(S'please'
p3861
g21
F0.9525
tp3862
a(S'(.)'
p3863
g27
F0.4374
tp3864
a(g51
g23
F0.9915
tp3865
asI1342
(lp3866
(S'would'
p3867
g21
F0.9987
tp3868
a(S'you'
p3869
g36
F0.9948
tp3870
a(S'like'
p3871
g21
F0.7687
tp3872
a(g410
g140
F0.9946
tp3873
a(S'glass'
p3874
g6
F0.9985
tp3875
a(S'of'
p3876
g14
F0.9968
tp3877
a(S'milk'
p3878
g6
F0.9906
tp3879
a(S'now'
p3880
g62
F0.9932
tp3881
a(g31
g23
F0.9988
tp3882
asI1348
(lp3883
(S'no'
p3884
g3
F0.9704
tp3885
a(g51
g23
F0.9989
tp3886
asI1351
(lp3887
(S'how'
p3888
g62
F0.9957
tp3889
a(S'about'
p3890
g14
F0.9894
tp3891
a(g410
g140
F0.9968
tp3892
a(S'glass'
p3893
g6
F0.9982
tp3894
a(S'of'
p3895
g14
F0.9941
tp3896
a(S'&-uh'
p3897
g89
F0.5852
tp3898
a(S'(.)'
p3899
g89
F0.334
tp3900
a(S'juice'
p3901
g6
F0.9332
tp3902
a(g31
g23
F0.9976
tp3903
asI1355
(lp3904
(g421
g36
F0.9983
tp3905
a(S'want'
p3906
g21
F1.0
tp3907
a(g410
g140
F0.9966
tp3908
a(S'popsicle'
p3909
g6
F0.9714
tp3910
a(g51
g23
F0.9988
tp3911
asI1358
(lp3912
(g410
g140
F0.991
tp3913
a(S'popsicle'
p3914
g6
F0.9532
tp3915
a(g31
g23
F0.9976
tp3916
asI1362
(lp3917
(S'you'
p3918
g36
F0.9963
tp3919
a(S'go'
p3920
g21
F0.9899
tp3921
a(S't_t'
p3922
g47
F0.275
tp3923
a(S'o'
p3924
g14
F0.8282
tp3925
a(S'be'
p3926
g21
F0.9906
tp3927
a(S'stupid'
p3928
g161
F0.9982
tp3929
a(g29
g23
F0.9893
tp3930
a(g3
g23
F0.9901
tp3931
a(g33
g23
F0.9728
tp3932
a(S'to'
p3933
g14
F0.9906
tp3934
a(S'be'
p3935
g21
F0.9992
tp3936
a(S'treating'
p3937
g21
F0.9181
tp3938
a(g1182
g23
F0.988
tp3939
a(S'th)em'
p3940
g36
F0.7078
tp3941
a(g51
g23
F0.9976
tp3942
asI1368
(lp3943
(S'you'
p3944
g36
F0.9968
tp3945
a(S"don't"
p3946
g21
F1.0
tp3947
a(S'cut'
p3948
g21
F0.8343
tp3949
a(g29
g23
F0.991
tp3950
a(g3
g23
F0.9901
tp3951
a(g33
g23
F0.9718
tp3952
a(S'things'
p3953
g6
F0.928
tp3954
a(S'up'
p3955
g815
F0.4648
tp3956
a(g51
g23
F0.9984
tp3957
asI1371
(lp3958
(S'are'
p3959
g21
F0.9964
tp3960
a(S'you'
p3961
g36
F0.9961
tp3962
a(S'all'
p3963
g140
F0.8801
tp3964
a(S'finished'
p3965
g21
F0.6588
tp3966
a(g31
g23
F0.9978
tp3967
asI1375
(lp3968
(S'yeah'
p3969
g3
F0.9986
tp3970
a(g51
g23
F0.997
tp3971
asI1378
(lp3972
(S'xxx'
p3973
g47
F0.5822
tp3974
a(g51
g23
F0.9648
tp3975
asI1380
(lp3976
(S'xxx'
p3977
g47
F0.5822
tp3978
a(g51
g23
F0.9648
tp3979
asI1381
(lp3980
(S"what's"
p3981
g9
F0.9931
tp3982
a(S'that'
p3983
g14
F0.4843
tp3984
a(S'Chi'
p3985
g27
F0.9638
tp3986
a(g31
g23
F0.9923
tp3987
asI1385
(lp3988
(S'what'
p3989
g36
F0.9171
tp3990
a(g31
g23
F0.9924
tp3991
asI1389
(lp3992
(S'what'
p3993
g36
F0.9962
tp3994
a(S'is'
p3995
g21
F0.9997
tp3996
a(S'it'
p3997
g36
F0.9974
tp3998
a(g31
g23
F0.999
tp3999
asI1393
(lp4000
(S'truck'
p4001
g6
F0.9912
tp4002
a(g51
g23
F0.9981
tp4003
asI1396
(lp4004
(g410
g140
F0.9945
tp4005
a(S'truck'
p4006
g6
F0.9988
tp4007
a(g31
g23
F0.9981
tp4008
asI1400
(lp4009
(S'yeah'
p4010
g3
F0.9973
tp4011
a(S'(.)'
p4012
g27
F0.2739
tp4013
a(g51
g23
F0.9933
tp4014
asI1403
(lp4015
(S'zzz'
p4016
g89
F0.409
tp4017
a(g29
g23
F0.9395
tp4018
a(g221
g47
F0.3811
tp4019
a(g33
g23
F0.7604
tp4020
a(g51
g23
F0.9962
tp4021
asI1407
(lp4022
(g229
g92
F0.936
tp4023
a(S'Chi'
p4024
g27
F0.9027
tp4025
a(S'(.)'
p4026
g27
F0.8514
tp4027
a(S'come'
p4028
g21
F0.993
tp4029
a(S'here'
p4030
g62
F0.9855
tp4031
a(g221
g47
F0.5738
tp4032
a(g29
g47
F0.535
tp4033
a(g229
g92
F0.7916
tp4034
a(g33
g23
F0.9861
tp4035
a(g51
g23
F0.9959
tp4036
asI1410
(lp4037
(S'it'
p4038
g36
F0.9826
tp4039
a(S'[/]'
p4040
g21
F0.4542
tp4041
a(S'it'
p4042
g36
F0.9973
tp4043
a(S'found'
p4044
g21
F0.9998
tp4045
a(S'my'
p4046
g140
F0.9974
tp4047
a(S'belly'
p4048
g6
F0.9979
tp4049
a(g51
g23
F0.9983
tp4050
asI1413
(lp4051
(S'zzz'
p4052
g89
F0.409
tp4053
a(g29
g23
F0.9395
tp4054
a(g221
g47
F0.3811
tp4055
a(g33
g23
F0.7604
tp4056
a(g51
g23
F0.9962
tp4057
asI1417
(lp4058
(g229
g92
F0.9209
tp4059
a(S'but'
p4060
g57
F0.9937
tp4061
a(S"you've"
p4062
g9
F0.9334
tp4063
a(S'got'
p4064
g21
F0.9978
tp4065
a(S'ta'
p4066
g14
F0.9696
tp4067
a(S'take'
p4068
g21
F0.9708
tp4069
a(S'little'
p4070
g161
F0.9766
tp4071
a(S'bites'
p4072
g6
F0.9657
tp4073
a(g221
g47
F0.5237
tp4074
a(g29
g47
F0.535
tp4075
a(g229
g92
F0.7713
tp4076
a(g33
g23
F0.9737
tp4077
a(g51
g23
F0.9952
tp4078
asI1422
(lp4079
(S'zzz'
p4080
g3
F0.3756
tp4081
a(g51
g23
F0.9972
tp4082
asI1426
(lp4083
(S'Donna'
p4084
g27
F0.8953
tp4085
a(g3
g23
F0.9903
tp4086
asI1429
(lp4087
(S'zzz'
p4088
g3
F0.3756
tp4089
a(g51
g23
F0.9972
tp4090
asI1433
(lp4091
(S'Donna'
p4092
g27
F0.9326
tp4093
a(g51
g23
F0.9946
tp4094
asI1436
(lp4095
(S'xxx'
p4096
g47
F0.5822
tp4097
a(g51
g23
F0.9648
tp4098
asI1437
(lp4099
(S'zzz'
p4100
g3
F0.3756
tp4101
a(g51
g23
F0.9972
tp4102
asI1441
(lp4103
(S'zzz'
p4104
g89
F0.409
tp4105
a(g29
g23
F0.9395
tp4106
a(g221
g47
F0.3811
tp4107
a(g33
g23
F0.7604
tp4108
a(g51
g23
F0.9962
tp4109
asI1445
(lp4110
(g229
g92
F0.9755
tp4111
a(S'alright'
p4112
g3
F0.7984
tp4113
a(S'now'
p4114
g62
F0.9862
tp4115
a(g221
g47
F0.5844
tp4116
a(g29
g47
F0.535
tp4117
a(g229
g92
F0.8293
tp4118
a(g33
g23
F0.9888
tp4119
a(S'you'
p4120
g36
F0.9789
tp4121
a(S'all'
p4122
g140
F0.8134
tp4123
a(S'finished'
p4124
g21
F0.8145
tp4125
a(g31
g23
F0.9977
tp4126
asI1449
(lp4127
(S'yeah'
p4128
g3
F0.9986
tp4129
a(g51
g23
F0.997
tp4130
asI1452
(lp4131
(S'okay'
p4132
g3
F0.9741
tp4133
a(g51
g23
F0.9977
tp4134
asI1455
(lp4135
(S'yeah'
p4136
g3
F0.9986
tp4137
a(g51
g23
F0.997
tp4138
as.