(dp0
I0
(lp1
(S'zzz'
p2
S'!'
p3
F0.361
tp4
asI1
(lp5
(S'okay'
p6
g3
F0.6893
tp7
a(S'guys'
p8
S'N'
p9
F0.9767
tp10
asI2
(lp11
(S'xxx'
p12
S'E'
p13
F0.8437
tp14
asI3
(lp15
(S'huh'
p16
g3
F0.993
tp17
asI4
(lp18
(S'xxx'
p19
g13
F0.8437
tp20
asI5
(lp21
(S'no'
p22
g3
F0.9253
tp23
asI6
(lp24
(S'he'
p25
S'O'
p26
F0.99
tp27
a(S'didn'
p28
S'V'
p29
F0.9855
tp30
a(S't'
p31
g29
F0.9008
tp32
a(S'no'
p33
g3
F0.5429
tp34
asI7
(lp35
(S'why'
p36
S'R'
p37
F0.8931
tp38
a(S'are'
p39
g29
F0.9924
tp40
a(S'you'
p41
g26
F0.9986
tp42
a(S'xxx'
p43
g13
F0.5998
tp44
asI8
(lp45
(S'ouch'
p46
g3
F0.9968
tp47
asI9
(lp48
(S'for'
p49
S'P'
p50
F0.9981
tp51
a(S'um'
p52
g26
F0.3343
tp53
a(S'be'
p54
g29
F0.9948
tp55
a(S'cause'
p56
g50
F0.9622
tp57
a(S'we'
p58
g26
F0.9989
tp59
a(S'have'
p60
g29
F0.9997
tp61
a(S'to'
p62
g50
F0.9867
tp63
a(S'for'
p64
g50
F0.9712
tp65
a(S'emily'
p66
S'^'
p67
F0.9894
tp68
a(S's'
p69
S'G'
p70
F0.4298
tp71
a(S'thing'
p72
g9
F0.983
tp73
asI10
(lp74
(S'well'
p75
g3
F0.741
tp76
a(S'you'
p77
g26
F0.9959
tp78
a(S'you'
p79
g26
F0.9953
tp80
a(S'know'
p81
g29
F0.9986
tp82
a(S'how'
p83
g37
F0.9619
tp84
a(S'the'
p85
S'D'
p86
F0.9977
tp87
a(S'people'
p88
g9
F0.9987
tp89
a(S'were'
p90
g29
F0.99
tp91
a(S'here'
p92
g37
F0.9198
tp93
a(S'the'
p94
g86
F0.9987
tp95
a(S'other'
p96
S'A'
p97
F0.9927
tp98
a(S'day'
p99
g9
F0.9965
tp100
asI11
(lp101
(S'did'
p102
g29
F0.9501
tp103
a(S'i'
p104
g26
F0.9944
tp105
a(S'tell'
p106
g29
F0.9998
tp107
a(S'you'
p108
g26
F0.9994
tp109
a(S'about'
p110
g50
F0.8696
tp111
a(S'them'
p112
g26
F0.9808
tp113
asI12
(lp114
(S'no'
p115
g3
F0.9253
tp116
asI13
(lp117
(S'nope'
p118
g3
F0.996
tp119
asI14
(lp120
(S'oh'
p121
g3
F0.9957
tp122
a(S'well'
p123
g3
F0.9763
tp124
a(S'they'
p125
g26
F0.9853
tp126
a(S're'
p127
g29
F0.747
tp128
a(S'doing'
p129
g29
F0.9993
tp130
a(S'a'
p131
g86
F0.9979
tp132
a(S'study'
p133
g9
F0.9941
tp134
a(S'on'
p135
g50
F0.9946
tp136
a(S'language'
p137
g9
F0.9851
tp138
asI15
(lp139
(S'zzz'
p140
g3
F0.361
tp141
asI16
(lp142
(S'it'
p143
g26
F0.9888
tp144
a(g69
g29
F0.7213
tp145
a(S'on'
p146
g50
F0.857
tp147
a(S'language'
p148
g9
F0.9821
tp149
asI17
(lp150
(S'on'
p151
g50
F0.9805
tp152
a(S'chi'
p153
g67
F0.7202
tp154
a(g69
g67
F0.527
tp155
a(S'language'
p156
g9
F0.8544
tp157
asI18
(lp158
(S'yep'
p159
g3
F0.9977
tp160
asI19
(lp161
(S'what'
p162
g26
F0.9931
tp163
a(S'do'
p164
g29
F0.9991
tp165
a(S'you'
p166
g26
F0.9997
tp167
a(S'need'
p168
g29
F0.9915
tp169
asI20
(lp170
(S'xxx'
p171
g13
F0.8437
tp172
asI21
(lp173
(S'that'
p174
g26
F0.473
tp175
a(g69
g70
F0.4404
tp176
a(S'what'
p177
g26
F0.9623
tp178
a(g104
g26
F0.9942
tp179
a(S'said'
p180
g29
F0.9998
tp181
a(S'they'
p182
g26
F0.9761
tp183
a(S're'
p184
g29
F0.7375
tp185
a(S'doing'
p186
g29
F0.9993
tp187
a(g131
g86
F0.9979
tp188
a(S'study'
p189
g9
F0.9927
tp190
a(S'on'
p191
g50
F0.9917
tp192
a(S'xxx'
p193
g13
F0.5882
tp194
asI22
(lp195
(S'what'
p196
g26
F0.9931
tp197
a(S'do'
p198
g29
F0.9973
tp199
a(S'they'
p200
g26
F0.9973
tp201
a(S'have'
p202
g29
F0.9986
tp203
asI23
(lp204
(S'that'
p205
g26
F0.473
tp206
a(g69
g29
F0.621
tp207
a(S'on'
p208
g50
F0.9731
tp209
a(S'the'
p210
g86
F0.9651
tp211
a(S'on'
p212
g50
F0.9225
tp213
a(S'that'
p214
g86
F0.6353
tp215
a(S'yellow'
p216
g97
F0.9778
tp217
a(S'thing'
p218
g9
F0.9991
tp219
asI24
(lp220
(S'yup'
p221
g3
F0.9978
tp222
asI25
(lp223
(S'they'
p224
g26
F0.9929
tp225
a(S'had'
p226
g29
F0.9992
tp227
a(S'toys'
p228
g9
F0.9889
tp229
a(S'huh'
p230
g3
F0.9148
tp231
asI26
(lp232
(S'what'
p233
g26
F0.792
tp234
a(S'yellow'
p235
g97
F0.9806
tp236
a(S'things'
p237
g9
F0.9994
tp238
asI27
(lp239
(S'ma'
p240
g86
F0.3067
tp241
a(S'look'
p242
g29
F0.4806
tp243
a(S'at'
p244
g50
F0.9872
tp245
a(S'heather'
p246
g67
F0.9863
tp247
asI28
(lp248
(g104
g26
F0.9635
tp249
a(S'don'
p250
g29
F0.9231
tp251
a(g31
g9
F0.2457
tp252
a(S'know'
p253
g29
F0.9913
tp254
a(S'wha'
p255
g26
F0.9068
tp256
a(g31
g70
F0.435
tp257
a(S'oh'
p258
g3
F0.9583
tp259
a(S'no'
p260
g3
F0.8884
tp261
a(S'heather'
p262
g9
F0.7049
tp263
asI29
(lp264
(S'what'
p265
g26
F0.792
tp266
a(S'yellow'
p267
g97
F0.9834
tp268
a(S'thing'
p269
g9
F0.9995
tp270
asI30
(lp271
(g104
g26
F0.9896
tp272
a(S'have'
p273
g29
F0.9999
tp274
a(S'no'
p275
g86
F0.9913
tp276
a(S'idea'
p277
g9
F0.9912
tp278
a(S'what'
p279
g26
F0.7591
tp280
a(S'you'
p281
g26
F0.9964
tp282
a(S're'
p283
g29
F0.7547
tp284
a(S'talking'
p285
g29
F0.9821
tp286
a(S'about'
p287
g50
F0.9068
tp288
asI31
(lp289
(S'the'
p290
g86
F0.9968
tp291
a(S'yellow'
p292
g97
F0.9709
tp293
a(S'thing'
p294
g9
F0.9989
tp295
a(S'that'
p296
g50
F0.989
tp297
a(S'um'
p298
g70
F0.422
tp299
a(S'susan'
p300
g67
F0.9689
tp301
a(S'had'
p302
g29
F0.9837
tp303
asI32
(lp304
(S'that'
p305
g26
F0.514
tp306
a(S'that'
p307
g86
F0.8629
tp308
a(S'girl'
p309
g9
F0.9951
tp310
a(S'susan'
p311
g67
F0.7781
tp312
a(S'had'
p313
g29
F0.9911
tp314
asI33
(lp315
(S'yeah'
p316
g3
F0.9988
tp317
asI34
(lp318
(S'what'
p319
g26
F0.792
tp320
a(S'yellow'
p321
g97
F0.9834
tp322
a(S'thing'
p323
g9
F0.9995
tp324
asI35
(lp325
(S'oh'
p326
g3
F0.9962
tp327
a(S'the'
p328
g86
F0.9975
tp329
a(S'cups'
p330
g9
F0.9967
tp331
asI36
(lp332
(S'no'
p333
g3
F0.9253
tp334
asI37
(lp335
(S'you'
p336
g26
F0.9981
tp337
a(S'mean'
p338
g29
F0.9927
tp339
a(S'the'
p340
g86
F0.9995
tp341
a(S'cups'
p342
g9
F0.9938
tp343
a(S'and'
p344
S'&'
p345
F0.9984
tp346
asI38
(lp347
(S'xxx'
p348
g13
F0.8437
tp349
asI39
(lp350
(g104
g26
F0.9635
tp351
a(S'don'
p352
g29
F0.9231
tp353
a(g31
g9
F0.2457
tp354
a(S'know'
p355
g29
F0.9915
tp356
a(S'what'
p357
g26
F0.9063
tp358
a(S'yellow'
p359
g97
F0.9643
tp360
a(S'thing'
p361
g9
F0.9944
tp362
a(S'you'
p363
g26
F0.9629
tp364
a(S're'
p365
g29
F0.7941
tp366
a(S'talking'
p367
g29
F0.9909
tp368
a(S'about'
p369
g50
F0.9669
tp370
a(S'emily'
p371
g67
F0.9681
tp372
asI40
(lp373
(S'ashtray'
p374
g9
F0.5465
tp375
asI41
(lp376
(S'zzz'
p377
g3
F0.361
tp378
asI42
(lp379
(S'zzz'
p380
g3
F0.361
tp381
asI43
(lp382
(S'susan'
p383
g67
F0.9148
tp384
a(S'who'
p385
g26
F0.9857
tp386
asI44
(lp387
(S'susan'
p388
g67
F0.8705
tp389
asI45
(lp390
(S'not'
p391
g37
F0.9697
tp392
a(S'that'
p393
g86
F0.7185
tp394
a(S'lady'
p395
g9
F0.9921
tp396
a(S'that'
p397
g50
F0.9292
tp398
a(S'came'
p399
g29
F0.9874
tp400
a(S'to'
p401
g50
F0.9772
tp402
a(S'visit'
p403
g29
F0.999
tp404
a(S'you'
p405
g26
F0.9974
tp406
a(S'the'
p407
g86
F0.9996
tp408
a(S'other'
p409
g97
F0.9923
tp410
a(S'day'
p411
g9
F0.997
tp412
a(S'with'
p413
g50
F0.9996
tp414
a(S'that'
p415
g86
F0.9546
tp416
a(S'lady'
p417
g9
F0.9828
tp418
a(S'jean'
p419
g67
F0.9152
tp420
a(S'where'
p421
g37
F0.9776
tp422
a(S'we'
p423
g26
F0.9979
tp424
a(S'played'
p425
g29
F0.9976
tp426
a(S'toys'
p427
g9
F0.9852
tp428
asI46
(lp429
(S'oh'
p430
g3
F0.9987
tp431
a(S'yeah'
p432
g3
F0.9997
tp433
asI47
(lp434
(S'not'
p435
g37
F0.9853
tp436
a(S'her'
p437
g26
F0.7677
tp438
asI48
(lp439
(S'jean'
p440
g67
F0.9727
tp441
asI49
(lp442
(S'yeah'
p443
g3
F0.9969
tp444
a(S'jean'
p445
g67
F0.9615
tp446
asI50
(lp447
(g104
g26
F0.9635
tp448
a(S'don'
p449
g29
F0.9231
tp450
a(g31
g9
F0.2842
tp451
a(S'remember'
p452
g29
F0.9781
tp453
a(S'yellow'
p454
g97
F0.9801
tp455
a(S'things'
p456
g9
F0.999
tp457
asI51
(lp458
(S'xxx'
p459
g13
F0.8437
tp460
asI52
(lp461
(S'that'
p462
g50
F0.8103
tp463
a(S'she'
p464
g26
F0.9992
tp465
a(S'had'
p466
g29
F0.9981
tp467
asI53
(lp468
(S'do'
p469
g29
F0.9985
tp470
a(S'you'
p471
g26
F0.9996
tp472
a(S'remember'
p473
g29
F0.9998
tp474
a(g131
g86
F0.993
tp475
a(S'yellow'
p476
g97
F0.9809
tp477
a(S'thing'
p478
g9
F0.9987
tp479
a(S'that'
p480
g50
F0.9957
tp481
a(S'she'
p482
g26
F0.9993
tp483
a(S'had'
p484
g29
F0.998
tp485
asI54
(lp486
(S'no'
p487
g3
F0.9253
tp488
asI55
(lp489
(S'you'
p490
g26
F0.9926
tp491
a(S'don'
p492
g29
F0.8675
tp493
a(g31
g9
F0.2842
tp494
a(S'remember'
p495
g29
F0.9981
tp496
a(g131
g86
F0.9929
tp497
a(S'yellow'
p498
g97
F0.9806
tp499
a(S'thing'
p500
g9
F0.9969
tp501
a(S'either'
p502
g345
F0.4733
tp503
asI56
(lp504
(S'zzz'
p505
g3
F0.361
tp506
asI57
(lp507
(g131
g86
F0.9703
tp508
a(S'h'
p509
g9
F0.7438
tp510
asI58
(lp511
(S'your'
p512
g86
F0.9799
tp513
a(S'mouth'
p514
g9
F0.9999
tp515
a(S'is'
p516
g29
F0.9961
tp517
a(S'white'
p518
g97
F0.9463
tp519
asI59
(lp520
(S'did'
p521
g29
F0.9986
tp522
a(S'you'
p523
g26
F0.9993
tp524
a(S'have'
p525
g29
F0.9972
tp526
a(S'fun'
p527
g9
F0.8693
tp528
asI60
(lp529
(S'it'
p530
g26
F0.9888
tp531
a(g69
g70
F0.4696
tp532
a(S'very'
p533
g37
F0.9776
tp534
a(S'hot'
p535
g97
F0.9995
tp536
a(S'pat'
p537
g67
F0.7094
tp538
asI61
(lp539
(S'very'
p540
g37
F0.9887
tp541
a(S'hot'
p542
g97
F0.9994
tp543
asI62
(lp544
(S'where'
p545
g37
F0.9711
tp546
a(g69
g70
F0.671
tp547
a(S'the'
p548
g86
F0.9773
tp549
a(S'xxx'
p550
g9
F0.511
tp551
a(S'mom'
p552
g9
F0.9325
tp553
asI63
(lp554
(S'here'
p555
g37
F0.7796
tp556
asI64
(lp557
(S'butter'
p558
g9
F0.9502
tp559
asI65
(lp560
(S'yup'
p561
g3
F0.9978
tp562
asI66
(lp563
(S'xxx'
p564
g13
F0.8437
tp565
asI67
(lp566
(S'heather'
p567
g67
F0.9211
tp568
asI68
(lp569
(S'heather'
p570
g67
F0.9815
tp571
a(S'must'
p572
g29
F0.994
tp573
a(S'like'
p574
g29
F0.9362
tp575
a(S'to'
p576
g50
F0.9904
tp577
a(S'eat'
p578
g29
F0.9991
tp579
a(S'off'
p580
S'T'
p581
F0.541
tp582
a(S'the'
p583
g86
F0.9957
tp584
a(S'um'
p585
g70
F0.3344
tp586
a(S'table'
p587
g9
F0.8557
tp588
a(S'more'
p589
g97
F0.8262
tp590
a(S'than'
p591
g50
F0.9988
tp592
a(S'she'
p593
g26
F0.9996
tp594
a(S'likes'
p595
g29
F0.9995
tp596
a(S'to'
p597
g50
F0.9951
tp598
a(S'eat'
p599
g29
F0.9991
tp600
a(S'off'
p601
g581
F0.6286
tp602
a(S'the'
p603
g86
F0.9998
tp604
a(S'dish'
p605
g9
F0.9975
tp606
asI69
(lp607
(S'xxx'
p608
g13
F0.8437
tp609
asI70
(lp610
(S'she'
p611
g26
F0.9917
tp612
a(g69
g29
F0.5951
tp613
a(S'eating'
p614
g29
F0.9959
tp615
a(S'emily'
p616
g67
F0.9718
tp617
a(g69
g70
F0.6419
tp618
asI71
(lp619
(S'she'
p620
g26
F0.9917
tp621
a(g69
g29
F0.5951
tp622
a(S'eating'
p623
g29
F0.9959
tp624
a(S'emily'
p625
g67
F0.9718
tp626
a(g69
g70
F0.6419
tp627
asI72
(lp628
(S'ma'
p629
g70
F0.3605
tp630
a(S'she'
p631
g26
F0.988
tp632
a(g69
g29
F0.6033
tp633
a(S'eating'
p634
g29
F0.9925
tp635
a(S'emily'
p636
g67
F0.9772
tp637
a(g69
g70
F0.6427
tp638
asI73
(lp639
(S'xxx'
p640
g13
F0.8437
tp641
asI74
(lp642
(S'eat'
p643
g29
F0.99
tp644
a(S'your'
p645
g86
F0.9952
tp646
a(S'own'
p647
g97
F0.5749
tp648
a(S'baby'
p649
g9
F0.9964
tp650
asI75
(lp651
(S'haha'
p652
g3
F0.9993
tp653
asI76
(lp654
(S'haha'
p655
g3
F0.9993
tp656
asI77
(lp657
(S'no'
p658
g3
F0.8403
tp659
a(S'she'
p660
g26
F0.9932
tp661
a(S'can'
p662
g29
F0.9993
tp663
a(S'eat'
p664
g29
F0.9982
tp665
a(S'mine'
p666
g26
F0.9616
tp667
a(S'too'
p668
g37
F0.9856
tp669
asI78
(lp670
(S'no'
p671
g3
F0.9253
tp672
asI79
(lp673
(S'she'
p674
g26
F0.9958
tp675
a(S'can'
p676
g29
F0.9984
tp677
a(g31
g29
F0.5963
tp678
asI80
(lp679
(S'xxx'
p680
g13
F0.8437
tp681
asI81
(lp682
(S'ma'
p683
g3
F0.3265
tp684
asI82
(lp685
(S'ma'
p686
g86
F0.5636
tp687
a(g104
g26
F0.983
tp688
a(S'can'
p689
g29
F0.9996
tp690
a(g31
g29
F0.6733
tp691
a(S'eat'
p692
g29
F0.9412
tp693
a(S'xxx'
p694
g13
F0.7939
tp695
asI83
(lp696
(S'mom'
p697
g9
F0.7188
tp698
asI84
(lp699
(S'you'
p700
g26
F0.997
tp701
a(S'forgot'
p702
g29
F0.9983
tp703
asI85
(lp704
(S'no'
p705
g3
F0.9253
tp706
asI86
(lp707
(S'there'
p708
S'X'
p709
F0.8572
tp710
a(S'is'
p711
g29
F0.9978
tp712
a(S'no'
p713
g86
F0.5781
tp714
a(S'more'
p715
g97
F0.4776
tp716
asI87
(lp717
(S'xxx'
p718
g13
F0.8437
tp719
asI88
(lp720
(S'do'
p721
g29
F0.9985
tp722
a(S'you'
p723
g26
F0.9996
tp724
a(S'want'
p725
g29
F0.9999
tp726
a(S'some'
p727
g86
F0.9928
tp728
a(S'broccoli'
p729
g9
F0.9935
tp730
asI89
(lp731
(S'no'
p732
g3
F0.9253
tp733
asI90
(lp734
(g104
g26
F0.9912
tp735
a(S'hate'
p736
g29
F0.9995
tp737
a(S'broccoli'
p738
g9
F0.9916
tp739
asI91
(lp740
(S'mom'
p741
g9
F0.7188
tp742
asI92
(lp743
(S'zzz'
p744
g3
F0.361
tp745
asI93
(lp746
(S'mom'
p747
g9
F0.7188
tp748
asI94
(lp749
(S'any'
p750
g86
F0.8454
tp751
a(S'more'
p752
g97
F0.9625
tp753
a(S'porkchops'
p754
g9
F0.9673
tp755
asI95
(lp756
(S'no'
p757
g3
F0.9253
tp758
asI96
(lp759
(S'but'
p760
g345
F0.9948
tp761
a(g104
g26
F0.9929
tp762
a(S'only'
p763
g37
F0.9221
tp764
a(S'got'
p765
g29
F0.9777
tp766
a(S'one'
p767
S'$'
p768
F0.6747
tp769
asI97
(lp770
(S'mom'
p771
g9
F0.8909
tp772
a(g104
g26
F0.9184
tp773
a(S'only'
p774
g37
F0.9553
tp775
a(S'got'
p776
g29
F0.9858
tp777
a(S'one'
p778
g768
F0.8548
tp779
a(S'pork'
p780
g9
F0.9958
tp781
a(S'chop'
p782
g9
F0.6405
tp783
asI98
(lp784
(S'xxx'
p785
g13
F0.8437
tp786
asI99
(lp787
(S'and'
p788
g345
F0.999
tp789
a(g104
g26
F0.996
tp790
a(S'was'
p791
g29
F0.9998
tp792
a(S'starting'
p793
g29
F0.9925
tp794
a(S'to'
p795
g50
F0.9932
tp796
a(S'love'
p797
g29
F0.9982
tp798
a(S'them'
p799
g26
F0.9835
tp800
a(S'too'
p801
g37
F0.9762
tp802
a(S'mom'
p803
g9
F0.585
tp804
asI100
(lp805
(S'baba'
p806
g67
F0.5001
tp807
a(S'b'
p808
g29
F0.4477
tp809
asI101
(lp810
(S'alright'
p811
g3
F0.9588
tp812
a(S'xxx'
p813
g13
F0.7938
tp814
asI102
(lp815
(S'let'
p816
g29
F0.8948
tp817
a(g69
g70
F0.3976
tp818
a(S'see'
p819
g29
F0.986
tp820
a(S'if'
p821
g50
F0.9872
tp822
a(S'dad'
p823
g9
F0.9501
tp824
a(S'wants'
p825
g29
F0.9993
tp826
a(S'any'
p827
g86
F0.8631
tp828
a(S'more'
p829
g97
F0.8475
tp830
asI103
(lp831
(S'there'
p832
g709
F0.4664
tp833
a(g69
g70
F0.4358
tp834
a(S'one'
p835
g768
F0.8567
tp836
a(S'left'
p837
g97
F0.4889
tp838
a(S'xxx'
p839
g13
F0.7385
tp840
asI104
(lp841
(S'do'
p842
g29
F0.9985
tp843
a(S'you'
p844
g26
F0.9996
tp845
a(S'want'
p846
g29
F0.9999
tp847
a(S'another'
p848
g86
F0.9927
tp849
a(S'porkchop'
p850
g9
F0.9739
tp851
asI105
(lp852
(S'xxx'
p853
g13
F0.8437
tp854
asI106
(lp855
(S'no'
p856
g3
F0.5844
tp857
a(S'there'
p858
g37
F0.6352
tp859
a(S'isn'
p860
g70
F0.471
tp861
a(g31
g70
F0.939
tp862
a(S'xxx'
p863
g13
F0.6311
tp864
asI107
(lp865
(S'there'
p866
g709
F0.4664
tp867
a(g69
g70
F0.6897
tp868
a(S'only'
p869
g97
F0.8317
tp870
a(S'one'
p871
g768
F0.8835
tp872
a(S'left'
p873
g97
F0.575
tp874
a(S'and'
p875
g345
F0.9966
tp876
a(S'two'
p877
g768
F0.9793
tp878
a(S'kids'
p879
g9
F0.9873
tp880
a(S'want'
p881
g29
F0.9981
tp882
a(S'one'
p883
g768
F0.8449
tp884
asI108
(lp885
(S'xxx'
p886
g13
F0.8437
tp887
asI109
(lp888
(S'alright'
p889
g3
F0.9205
tp890
a(S'guys'
p891
g9
F0.977
tp892
asI110
(lp893
(S'this'
p894
g26
F0.9526
tp895
a(S'is'
p896
g29
F0.9962
tp897
a(S'what'
p898
g26
F0.9905
tp899
a(S'we'
p900
g26
F0.9936
tp901
a(S're'
p902
g9
F0.4782
tp903
a(S'gonna'
p904
g29
F0.9948
tp905
a(S'have'
p906
g29
F0.9995
tp907
a(S'to'
p908
g50
F0.9854
tp909
a(S'do'
p910
g29
F0.9994
tp911
asI111
(lp912
(S'what'
p913
g26
F0.949
tp914
asI112
(lp915
(S'hot'
p916
g97
F0.8061
tp917
asI113
(lp918
(S'it'
p919
g26
F0.9888
tp920
a(g69
g70
F0.4756
tp921
a(S'very'
p922
g37
F0.9776
tp923
a(S'hot'
p924
g97
F0.9988
tp925
asI114
(lp926
(S'what'
p927
g26
F0.949
tp928
asI115
(lp929
(g104
g26
F0.9894
tp930
a(S'knew'
p931
g29
F0.9999
tp932
a(S'it'
p933
g26
F0.9544
tp934
a(S'mom'
p935
g9
F0.7797
tp936
asI116
(lp937
(S'there'
p938
g709
F0.4664
tp939
a(g69
g70
F0.5795
tp940
a(S'more'
p941
g97
F0.9119
tp942
a(S'broccoli'
p943
g9
F0.9978
tp944
a(S'there'
p945
g37
F0.7416
tp946
a(g69
g70
F0.5664
tp947
a(S'more'
p948
g97
F0.9333
tp949
a(S'potato'
p950
g9
F0.995
tp951
a(S'salad'
p952
g9
F0.997
tp953
a(S'and'
p954
g345
F0.997
tp955
a(S'there'
p956
g37
F0.5938
tp957
a(S'is'
p958
g29
F0.9934
tp959
a(S'uh'
p960
g3
F0.6681
tp961
a(S'corn'
p962
g9
F0.9825
tp963
a(S'on'
p964
g50
F0.9993
tp965
a(S'the'
p966
g86
F0.9989
tp967
a(S'cob'
p968
g9
F0.5236
tp969
asI117
(lp970
(S'mom'
p971
g9
F0.7188
tp972
asI118
(lp973
(S'heather'
p974
g67
F0.985
tp975
a(S'gave'
p976
g29
F0.9991
tp977
a(S'me'
p978
g26
F0.9982
tp979
a(S'her'
p980
g86
F0.9274
tp981
a(S'spoon'
p982
g9
F0.9955
tp983
asI119
(lp984
(S'she'
p985
g26
F0.9984
tp986
a(S'did'
p987
g29
F0.9971
tp988
asI120
(lp989
(S'xxx'
p990
g13
F0.6625
tp991
a(S'corn'
p992
g9
F0.9876
tp993
a(S'on'
p994
g50
F0.9986
tp995
a(S'the'
p996
g86
F0.999
tp997
a(S'cob'
p998
g9
F0.5869
tp999
asI121
(lp1000
(S'and'
p1001
g345
F0.999
tp1002
a(S'she'
p1003
g26
F0.9971
tp1004
a(g69
g29
F0.6196
tp1005
a(S'using'
p1006
g29
F0.9984
tp1007
a(S'your'
p1008
g86
F0.9946
tp1009
a(S'fork'
p1010
g9
F0.9973
tp1011
asI122
(lp1012
(S'no'
p1013
g3
F0.6931
tp1014
a(S'this'
p1015
g26
F0.941
tp1016
a(S'is'
p1017
g29
F0.9985
tp1018
a(S'mine'
p1019
g26
F0.9734
tp1020
asI123
(lp1021
(S'whose'
p1022
S'L'
p1023
F0.6409
tp1024
a(S'fork'
p1025
g9
F0.9785
tp1026
a(S'is'
p1027
g29
F0.9974
tp1028
a(S'she'
p1029
g26
F0.9984
tp1030
a(S'using'
p1031
g29
F0.9983
tp1032
asI124
(lp1033
(S'pat'
p1034
g67
F0.9819
tp1035
a(g69
g70
F0.7198
tp1036
asI125
(lp1037
(S'nope'
p1038
g3
F0.996
tp1039
asI126
(lp1040
(S'mine'
p1041
g26
F0.9638
tp1042
a(g69
g70
F0.5075
tp1043
a(S'right'
p1044
g37
F0.4073
tp1045
a(S'there'
p1046
g37
F0.7654
tp1047
asI127
(lp1048
(S'oh'
p1049
g3
F0.9849
tp1050
a(S'guess'
p1051
g29
F0.9013
tp1052
a(g104
g26
F0.9958
tp1053
a(S'am'
p1054
g29
F0.993
tp1055
a(S'too'
p1056
g37
F0.9819
tp1057
asI128
(lp1058
(g104
g26
F0.9899
tp1059
a(S'guess'
p1060
g29
F0.9996
tp1061
a(S'so'
p1062
g37
F0.6477
tp1063
asI129
(lp1064
(S'mom'
p1065
g9
F0.7188
tp1066
asI130
(lp1067
(S'what'
p1068
g26
F0.949
tp1069
asI131
(lp1070
(S'when'
p1071
g37
F0.9811
tp1072
a(g104
g26
F0.9872
tp1073
a(S'stuck'
p1074
g29
F0.9998
tp1075
a(S'my'
p1076
g86
F0.9986
tp1077
a(S'tooth'
p1078
g9
F0.9992
tp1079
a(S'on'
p1080
g50
F0.999
tp1081
a(S'it'
p1082
g26
F0.9923
tp1083
a(S'it'
p1084
g26
F0.9847
tp1085
a(S'burned'
p1086
g29
F0.9417
tp1087
asI132
(lp1088
(S'well'
p1089
g3
F0.6296
tp1090
a(S'wait'
p1091
g29
F0.9829
tp1092
a(S'until'
p1093
g50
F0.9972
tp1094
a(S'it'
p1095
g26
F0.999
tp1096
a(S'cools'
p1097
g29
F0.9992
tp1098
a(S'down'
p1099
g581
F0.8357
tp1100
asI133
(lp1101
(S'ma'
p1102
g86
F0.5636
tp1103
a(g104
g26
F0.966
tp1104
a(S'like'
p1105
g29
F0.9117
tp1106
a(S'it'
p1107
g26
F0.9979
tp1108
a(S'when'
p1109
g37
F0.9803
tp1110
a(S'it'
p1111
g26
F0.9932
tp1112
a(g69
g29
F0.465
tp1113
a(S'hot'
p1114
g97
F0.9719
tp1115
asI134
(lp1116
(S'yeah'
p1117
g3
F0.9988
tp1118
asI135
(lp1119
(S'wait'
p1120
g29
F0.9294
tp1121
a(S'un'
p1122
g67
F0.2908
tp1123
a(S'til'
p1124
g50
F0.9427
tp1125
a(S'it'
p1126
g26
F0.9978
tp1127
a(S'cools'
p1128
g29
F0.9988
tp1129
a(S'down'
p1130
g581
F0.8003
tp1131
a(g131
g86
F0.9979
tp1132
a(S'little'
p1133
g97
F0.9921
tp1134
a(S'brian'
p1135
g67
F0.9684
tp1136
asI136
(lp1137
(S'xxx'
p1138
g13
F0.8437
tp1139
asI137
(lp1140
(S'mom'
p1141
g9
F0.7188
tp1142
asI138
(lp1143
(S'you'
p1144
g26
F0.998
tp1145
a(S'forgot'
p1146
g29
F0.9997
tp1147
a(S'to'
p1148
g50
F0.9823
tp1149
a(S'cut'
p1150
g29
F0.9846
tp1151
a(S'it'
p1152
g26
F0.9824
tp1153
asI139
(lp1154
(S'oh'
p1155
g3
F0.9988
tp1156
asI140
(lp1157
(S'you'
p1158
g26
F0.963
tp1159
a(S're'
p1160
g29
F0.843
tp1161
a(S'right'
p1162
g37
F0.3518
tp1163
asI141
(lp1164
(S'zzz'
p1165
g3
F0.361
tp1166
asI142
(lp1167
(S'no'
p1168
g3
F0.5167
tp1169
a(S'leave'
p1170
g29
F0.9842
tp1171
a(S'it'
p1172
g26
F0.9903
tp1173
asI143
(lp1174
(S'heather'
p1175
g67
F0.9211
tp1176
asI144
(lp1177
(S'can'
p1178
g29
F0.9755
tp1179
a(g104
g26
F0.987
tp1180
a(S'have'
p1181
g29
F0.9999
tp1182
a(S'some'
p1183
g86
F0.974
tp1184
a(S'more'
p1185
g97
F0.9415
tp1186
a(S'applesauce'
p1187
g9
F0.9795
tp1188
asI145
(lp1189
(S'did'
p1190
g29
F0.9808
tp1191
a(S'heather'
p1192
g67
F0.9586
tp1193
a(S'eat'
p1194
g29
F0.9913
tp1195
a(S'her'
p1196
g86
F0.9007
tp1197
a(S'porkchops'
p1198
g9
F0.9503
tp1199
asI146
(lp1200
(g104
g26
F0.9635
tp1201
a(S'don'
p1202
g29
F0.9156
tp1203
a(g31
g9
F0.3074
tp1204
a(S'know'
p1205
g29
F0.965
tp1206
asI147
(lp1207
(S'where'
p1208
g37
F0.8605
tp1209
a(S'is'
p1210
g29
F0.9991
tp1211
a(S'it'
p1212
g26
F0.9986
tp1213
asI148
(lp1214
(S'xxx'
p1215
g13
F0.8437
tp1216
asI149
(lp1217
(S'zzz'
p1218
g70
F0.5123
tp1219
a(S'zzz'
p1220
g70
F0.7797
tp1221
asI150
(lp1222
(S'here'
p1223
g37
F0.7796
tp1224
asI151
(lp1225
(S'it'
p1226
g26
F0.9342
tp1227
a(S'this'
p1228
g86
F0.5378
tp1229
a(S'what'
p1230
g26
F0.9865
tp1231
a(S'you'
p1232
g26
F0.9996
tp1233
a(S'want'
p1234
g29
F0.9994
tp1235
asI152
(lp1236
(S'you'
p1237
g26
F0.9876
tp1238
a(S'like'
p1239
g29
F0.6661
tp1240
a(S'porkchops'
p1241
g9
F0.8451
tp1242
asI153
(lp1243
(S'zzz'
p1244
g3
F0.361
tp1245
asI154
(lp1246
(S'do'
p1247
g29
F0.9985
tp1248
a(S'you'
p1249
g26
F0.9996
tp1250
a(S'want'
p1251
g29
F0.9999
tp1252
a(S'this'
p1253
g86
F0.9668
tp1254
a(S'one'
p1255
g768
F0.7693
tp1256
asI155
(lp1257
(S'xxx'
p1258
g13
F0.8437
tp1259
asI156
(lp1260
(S'yeah'
p1261
g3
F0.9988
tp1262
asI157
(lp1263
(S'oh'
p1264
g3
F0.9878
tp1265
a(S'you'
p1266
g26
F0.9961
tp1267
a(S'want'
p1268
g29
F0.9999
tp1269
a(S'the'
p1270
g86
F0.9995
tp1271
a(S'corn'
p1272
g9
F0.998
tp1273
a(S'on'
p1274
g50
F0.9994
tp1275
a(S'the'
p1276
g86
F0.9991
tp1277
a(S'cob'
p1278
g9
F0.6334
tp1279
asI158
(lp1280
(S'oh'
p1281
g3
F0.9988
tp1282
asI159
(lp1283
(S'you'
p1284
g26
F0.9754
tp1285
a(S're'
p1286
g29
F0.6727
tp1287
a(S'too'
p1288
g37
F0.9941
tp1289
a(S'little'
p1290
g97
F0.9561
tp1291
a(S'to'
p1292
g50
F0.9983
tp1293
a(S'eat'
p1294
g29
F0.9928
tp1295
a(S'corn'
p1296
g9
F0.9946
tp1297
a(S'on'
p1298
g50
F0.9994
tp1299
a(S'the'
p1300
g86
F0.999
tp1301
a(S'cob'
p1302
g67
F0.6158
tp1303
a(S'heather'
p1304
g67
F0.9883
tp1305
asI160
(lp1306
(S'haha'
p1307
g3
F0.9993
tp1308
asI161
(lp1309
(S'no'
p1310
g3
F0.9253
tp1311
asI162
(lp1312
(S'she'
p1313
g26
F0.9972
tp1314
a(S'wants'
p1315
g29
F0.9999
tp1316
a(S'the'
p1317
g86
F0.9983
tp1318
a(S'porkchops'
p1319
g9
F0.8534
tp1320
asI163
(lp1321
(S'why'
p1322
g37
F0.8527
tp1323
asI164
(lp1324
(S'why'
p1325
g37
F0.8527
tp1326
asI165
(lp1327
(S'why'
p1328
g37
F0.8527
tp1329
asI166
(lp1330
(S'pat'
p1331
g67
F0.9412
tp1332
asI167
(lp1333
(S'grab'
p1334
g29
F0.9978
tp1335
a(S'me'
p1336
g26
F0.9915
tp1337
a(S'some'
p1338
g86
F0.9839
tp1339
a(S'napkins'
p1340
g9
F0.991
tp1341
a(S'over'
p1342
g50
F0.9424
tp1343
a(S'there'
p1344
g37
F0.632
tp1345
a(S'please'
p1346
g29
F0.9349
tp1347
asI168
(lp1348
(S'where'
p1349
g37
F0.9493
tp1350
asI169
(lp1351
(S'give'
p1352
g29
F0.9985
tp1353
a(S'me'
p1354
g26
F0.9925
tp1355
a(S'some'
p1356
g86
F0.5573
tp1357
a(S'more'
p1358
g97
F0.8965
tp1359
a(S'while'
p1360
g50
F0.9893
tp1361
a(S'you'
p1362
g26
F0.9984
tp1363
a(S're'
p1364
g29
F0.9467
tp1365
a(S'up'
p1366
g581
F0.9593
tp1367
asI170
(lp1368
(S'up'
p1369
g581
F0.7365
tp1370
a(S'there'
p1371
g37
F0.5845
tp1372
asI171
(lp1373
(S'it'
p1374
g26
F0.9888
tp1375
a(g69
g29
F0.9265
tp1376
a(S'up'
p1377
g581
F0.9488
tp1378
a(S'there'
p1379
g37
F0.7157
tp1380
asI172
(lp1381
(S'they'
p1382
g26
F0.9104
tp1383
a(S're'
p1384
g29
F0.9477
tp1385
a(S'up'
p1386
g581
F0.96
tp1387
a(S'there'
p1388
g37
F0.7157
tp1389
asI173
(lp1390
(S'they'
p1391
g26
F0.9104
tp1392
a(S're'
p1393
g29
F0.9477
tp1394
a(S'up'
p1395
g581
F0.96
tp1396
a(S'there'
p1397
g37
F0.7157
tp1398
asI174
(lp1399
(S'nobody'
p1400
g9
F0.9157
tp1401
a(S'takes'
p1402
g29
F0.9991
tp1403
a(S'my'
p1404
g86
F0.9941
tp1405
a(S'corn'
p1406
g9
F0.9981
tp1407
a(S'heather'
p1408
g67
F0.5232
tp1409
asI175
(lp1410
(g131
g86
F0.972
tp1411
a(g509
g9
F0.6344
tp1412
a(S'they'
p1413
g26
F0.9279
tp1414
a(S're'
p1415
g29
F0.9074
tp1416
a(S'up'
p1417
g581
F0.938
tp1418
a(S'there'
p1419
g37
F0.7427
tp1420
asI176
(lp1421
(S'the'
p1422
g86
F0.9991
tp1423
a(S'napkins'
p1424
g9
F0.989
tp1425
a(S'are'
p1426
g29
F0.9994
tp1427
a(S'up'
p1428
g581
F0.5769
tp1429
a(S'there'
p1430
g37
F0.7635
tp1431
asI177
(lp1432
(S'xxx'
p1433
g13
F0.8437
tp1434
asI178
(lp1435
(S'paper'
p1436
g9
F0.9447
tp1437
a(S'napkins'
p1438
g9
F0.9932
tp1439
asI179
(lp1440
(S'heehee'
p1441
g3
F0.9977
tp1442
asI180
(lp1443
(S'here'
p1444
g37
F0.7796
tp1445
asI181
(lp1446
(S'heehee'
p1447
g3
F0.9977
tp1448
asI182
(lp1449
(S'heather'
p1450
g67
F0.9211
tp1451
asI183
(lp1452
(S'on'
p1453
g50
F0.9889
tp1454
a(S'your'
p1455
g86
F0.9945
tp1456
a(S'bum'
p1457
g9
F0.9981
tp1458
asI184
(lp1459
(S'xxx'
p1460
g13
F0.8437
tp1461
asI185
(lp1462
(S'yeah'
p1463
g3
F0.9988
tp1464
asI186
(lp1465
(S'good'
p1466
g97
F0.9942
tp1467
a(S'girl'
p1468
g9
F0.9961
tp1469
asI187
(lp1470
(S'the'
p1471
g86
F0.9991
tp1472
a(S'napkins'
p1473
g9
F0.9932
tp1474
asI188
(lp1475
(g131
g86
F0.9957
tp1476
a(S'whole'
p1477
g97
F0.996
tp1478
a(S'year'
p1479
g9
F0.9136
tp1480
a(S'supply'
p1481
g9
F0.9429
tp1482
a(S'mommy'
p1483
g9
F0.8842
tp1484
asI189
(lp1485
(S'uhhuh'
p1486
g3
F0.9892
tp1487
asI190
(lp1488
(S'there'
p1489
g709
F0.4664
tp1490
a(g69
g70
F0.6539
tp1491
a(g131
g86
F0.9941
tp1492
a(S'year'
p1493
g9
F0.9606
tp1494
a(g131
g86
F0.98
tp1495
a(S'whole'
p1496
g97
F0.9937
tp1497
a(S'year'
p1498
g9
F0.7807
tp1499
a(S'supply'
p1500
g9
F0.9483
tp1501
asI191
(lp1502
(S'oh'
p1503
g3
F0.9984
tp1504
a(S'thank'
p1505
g29
F0.9629
tp1506
a(S'you'
p1507
g26
F0.999
tp1508
asI192
(lp1509
(S'xxx'
p1510
g13
F0.8437
tp1511
asI193
(lp1512
(S'water'
p1513
g9
F0.9486
tp1514
a(S'mommy'
p1515
g9
F0.936
tp1516
asI194
(lp1517
(S'mommy'
p1518
g9
F0.7607
tp1519
a(g104
g26
F0.9545
tp1520
a(S'have'
p1521
g29
F0.9998
tp1522
a(S'to'
p1523
g50
F0.99
tp1524
a(S'xxx'
p1525
g13
F0.5025
tp1526
asI195
(lp1527
(g104
g26
F0.9889
tp1528
a(S'need'
p1529
g29
F0.9999
tp1530
a(S'it'
p1531
g26
F0.9792
tp1532
asI196
(lp1533
(S'hey'
p1534
g3
F0.9986
tp1535
asI197
(lp1536
(S'is'
p1537
g29
F0.9955
tp1538
a(S'there'
p1539
g709
F0.8404
tp1540
a(S'any'
p1541
g86
F0.9327
tp1542
a(S'more'
p1543
g97
F0.9492
tp1544
a(S'corn'
p1545
g9
F0.999
tp1546
a(S'on'
p1547
g50
F0.9994
tp1548
a(S'the'
p1549
g86
F0.9991
tp1550
a(S'cob'
p1551
g9
F0.6334
tp1552
asI198
(lp1553
(S'no'
p1554
g3
F0.9253
tp1555
asI199
(lp1556
(S'there'
p1557
g709
F0.4664
tp1558
a(g69
g70
F0.575
tp1559
a(S'more'
p1560
g97
F0.9454
tp1561
a(S'broccoli'
p1562
g9
F0.9988
tp1563
asI200
(lp1564
(S'eat'
p1565
g29
F0.8861
tp1566
a(S'broccoli'
p1567
g9
F0.9931
tp1568
asI201
(lp1569
(g104
g26
F0.9635
tp1570
a(S'don'
p1571
g29
F0.9231
tp1572
a(g31
g9
F0.3137
tp1573
a(S'want'
p1574
g29
F0.9849
tp1575
a(S'broccoli'
p1576
g9
F0.983
tp1577
asI202
(lp1578
(S'broccoli'
p1579
g9
F0.9206
tp1580
a(g69
g70
F0.7898
tp1581
a(S'good'
p1582
g97
F0.9858
tp1583
a(S'for'
p1584
g50
F0.9997
tp1585
a(S'you'
p1586
g26
F0.999
tp1587
asI203
(lp1588
(S'xxx'
p1589
g13
F0.8437
tp1590
asI204
(lp1591
(S'what'
p1592
g26
F0.9739
tp1593
a(g69
g70
F0.4949
tp1594
a(S'dessert'
p1595
g9
F0.9525
tp1596
asI205
(lp1597
(S'what'
p1598
g26
F0.9965
tp1599
a(S'did'
p1600
g29
F0.9948
tp1601
a(S'he'
p1602
g26
F0.9987
tp1603
a(S'say'
p1604
g29
F0.9934
tp1605
asI206
(lp1606
(S'honey'
p1607
g9
F0.7215
tp1608
a(S'dew'
p1609
g9
F0.845
tp1610
asI207
(lp1611
(S'honey'
p1612
g9
F0.7215
tp1613
a(S'dew'
p1614
g9
F0.845
tp1615
asI208
(lp1616
(S'ma'
p1617
g3
F0.3265
tp1618
asI209
(lp1619
(S'ma'
p1620
g3
F0.3265
tp1621
asI210
(lp1622
(S'xxx'
p1623
g13
F0.8437
tp1624
asI211
(lp1625
(S'fruit'
p1626
g9
F0.9316
tp1627
a(S'salad'
p1628
g9
F0.9975
tp1629
asI212
(lp1630
(S'alright'
p1631
g3
F0.9864
tp1632
asI213
(lp1633
(g104
g26
F0.9635
tp1634
a(S'don'
p1635
g29
F0.9231
tp1636
a(g31
g9
F0.2384
tp1637
a(S'have'
p1638
g29
F0.9967
tp1639
a(S'enough'
p1640
g97
F0.6548
tp1641
a(S'stuff'
p1642
g9
F0.9939
tp1643
a(S'for'
p1644
g50
F0.9998
tp1645
a(g131
g86
F0.9967
tp1646
a(S'fruit'
p1647
g9
F0.9936
tp1648
a(S'salad'
p1649
g9
F0.9956
tp1650
asI214
(lp1651
(S'mom'
p1652
g9
F0.7188
tp1653
asI215
(lp1654
(S'yeah'
p1655
g3
F0.9988
tp1656
asI216
(lp1657
(g104
g26
F0.9897
tp1658
a(S'want'
p1659
g29
F0.9998
tp1660
a(S'more'
p1661
g97
F0.7582
tp1662
a(S'applesauce'
p1663
g9
F0.9866
tp1664
asI217
(lp1665
(S'mom'
p1666
g9
F0.7188
tp1667
asI218
(lp1668
(S'what'
p1669
g26
F0.9777
tp1670
a(S'about'
p1671
g50
F0.9961
tp1672
a(S'the'
p1673
g86
F0.9866
tp1674
a(S'fudgesicles'
p1675
g9
F0.5926
tp1676
asI219
(lp1677
(S'eat'
p1678
g29
F0.8777
tp1679
a(S'what'
p1680
g26
F0.9901
tp1681
a(g69
g29
F0.4685
tp1682
a(S'in'
p1683
g50
F0.9774
tp1684
a(S'your'
p1685
g86
F0.93
tp1686
a(S'xxx'
p1687
g9
F0.3438
tp1688
a(S'first'
p1689
g97
F0.7674
tp1690
asI220
(lp1691
(S'you'
p1692
g26
F0.9981
tp1693
a(S'said'
p1694
g29
F0.9991
tp1695
a(S'we'
p1696
g26
F0.9984
tp1697
a(S'were'
p1698
g29
F0.9963
tp1699
a(S'gonna'
p1700
g29
F0.9902
tp1701
a(S'have'
p1702
g29
F0.9993
tp1703
a(S'fudgesicles'
p1704
g9
F0.3541
tp1705
asI221
(lp1706
(S'yup'
p1707
g3
F0.9978
tp1708
asI222
(lp1709
(S'you'
p1710
g26
F0.9969
tp1711
a(S'can'
p1712
g29
F0.9997
tp1713
a(S'have'
p1714
g29
F0.9995
tp1715
a(S'fudgesicles'
p1716
g9
F0.5093
tp1717
a(S'too'
p1718
g37
F0.9721
tp1719
asI223
(lp1720
(S'is'
p1721
g29
F0.9993
tp1722
a(S'it'
p1723
g26
F0.9763
tp1724
a(S'hot'
p1725
g97
F0.9702
tp1726
asI224
(lp1727
(S'no'
p1728
g3
F0.9253
tp1729
asI225
(lp1730
(g104
g26
F0.9896
tp1731
a(S'have'
p1732
g29
F0.9999
tp1733
a(g131
g86
F0.9976
tp1734
a(S'corn'
p1735
g9
F0.998
tp1736
a(S'for'
p1737
g50
F0.9999
tp1738
a(S'you'
p1739
g26
F0.9993
tp1740
a(S'if'
p1741
g50
F0.9952
tp1742
a(S'you'
p1743
g26
F0.9998
tp1744
a(S'want'
p1745
g29
F0.999
tp1746
asI226
(lp1747
(S'no'
p1748
g3
F0.9253
tp1749
asI227
(lp1750
(S'thank'
p1751
g29
F0.9631
tp1752
a(S'you'
p1753
g26
F0.9987
tp1754
asI228
(lp1755
(S'daddy'
p1756
g9
F0.857
tp1757
a(S'you'
p1758
g26
F0.9924
tp1759
a(S'were'
p1760
g29
F0.9987
tp1761
a(S'on'
p1762
g50
F0.9412
tp1763
a(S'here'
p1764
g37
F0.9531
tp1765
asI229
(lp1766
(S'you'
p1767
g26
F0.9926
tp1768
a(S'don'
p1769
g29
F0.8675
tp1770
a(g31
g9
F0.2503
tp1771
a(S'want'
p1772
g29
F0.9932
tp1773
a(S'corn'
p1774
g9
F0.9907
tp1775
a(S'on'
p1776
g50
F0.9994
tp1777
a(S'the'
p1778
g86
F0.9991
tp1779
a(S'cob'
p1780
g9
F0.6334
tp1781
asI230
(lp1782
(S'daddy'
p1783
g9
F0.857
tp1784
a(S'you'
p1785
g26
F0.9924
tp1786
a(S'were'
p1787
g29
F0.9987
tp1788
a(S'on'
p1789
g50
F0.9412
tp1790
a(S'here'
p1791
g37
F0.9531
tp1792
asI231
(lp1793
(S'on'
p1794
g50
F0.993
tp1795
a(S'the'
p1796
g86
F0.9994
tp1797
a(S'radio'
p1798
g9
F0.9943
tp1799
asI232
(lp1800
(S'on'
p1801
g50
F0.9889
tp1802
a(S'your'
p1803
g86
F0.9937
tp1804
a(S'player'
p1805
g9
F0.9991
tp1806
asI233
(lp1807
(S'he'
p1808
g26
F0.996
tp1809
a(S'was'
p1810
g29
F0.9998
tp1811
a(S'on'
p1812
g50
F0.9464
tp1813
a(S'the'
p1814
g86
F0.9994
tp1815
a(S'radio'
p1816
g9
F0.9883
tp1817
asI234
(lp1818
(g131
g86
F0.9893
tp1819
a(S'long'
p1820
g97
F0.999
tp1821
a(S'time'
p1822
g9
F0.9991
tp1823
a(S'ago'
p1824
g37
F0.946
tp1825
a(g104
g26
F0.9926
tp1826
a(S'was'
p1827
g29
F0.9998
tp1828
a(S'amanda'
p1829
g67
F0.8456
tp1830
asI235
(lp1831
(g104
g26
F0.9912
tp1832
a(S'know'
p1833
g29
F0.9989
tp1834
asI236
(lp1835
(S'can'
p1836
g29
F0.9755
tp1837
a(g104
g26
F0.987
tp1838
a(S'have'
p1839
g29
F0.9999
tp1840
a(S'some'
p1841
g86
F0.974
tp1842
a(S'more'
p1843
g97
F0.9415
tp1844
a(S'applesauce'
p1845
g9
F0.9795
tp1846
asI237
(lp1847
(S'it'
p1848
g26
F0.9788
tp1849
a(S'tastes'
p1850
g29
F0.9982
tp1851
a(S'the'
p1852
g86
F0.9993
tp1853
a(S'best'
p1854
g97
F0.9782
tp1855
asI238
(lp1856
(S'while'
p1857
g50
F0.922
tp1858
a(S'you'
p1859
g26
F0.9997
tp1860
a(S'were'
p1861
g29
F0.9986
tp1862
a(S'on'
p1863
g50
F0.9908
tp1864
a(S'the'
p1865
g86
F0.9715
tp1866
a(S'while'
p1867
g50
F0.6767
tp1868
a(S'you'
p1869
g26
F0.9997
tp1870
a(S'were'
p1871
g29
F0.9984
tp1872
a(S'on'
p1873
g50
F0.9923
tp1874
a(S'the'
p1875
g86
F0.9919
tp1876
a(S'xxx'
p1877
g9
F0.4435
tp1878
asI239
(lp1879
(S'finish'
p1880
g29
F0.9708
tp1881
a(S'everything'
p1882
g9
F0.9762
tp1883
a(S'in'
p1884
g50
F0.9953
tp1885
a(S'your'
p1886
g86
F0.9929
tp1887
a(S'dish'
p1888
g9
F0.9984
tp1889
asI240
(lp1890
(g104
g26
F0.9891
tp1891
a(S'ate'
p1892
g29
F0.9998
tp1893
a(S'my'
p1894
g86
F0.994
tp1895
a(S'broccoli'
p1896
g9
F0.9991
tp1897
asI241
(lp1898
(S'mommy'
p1899
g9
F0.5271
tp1900
asI242
(lp1901
(S'mom'
p1902
g9
F0.7188
tp1903
asI243
(lp1904
(S'mom'
p1905
g9
F0.7188
tp1906
asI244
(lp1907
(S'what'
p1908
g26
F0.949
tp1909
asI245
(lp1910
(S'are'
p1911
g29
F0.987
tp1912
a(S'we'
p1913
g26
F0.9989
tp1914
a(S'going'
p1915
g29
F0.9999
tp1916
a(S'to'
p1917
g50
F0.9819
tp1918
a(S'um'
p1919
g3
F0.3696
tp1920
a(S'radio'
p1921
g9
F0.9247
tp1922
asI246
(lp1923
(S'we'
p1924
g26
F0.9849
tp1925
a(S're'
p1926
g29
F0.4911
tp1927
a(S'gonna'
p1928
g29
F0.9898
tp1929
a(S'go'
p1930
g29
F0.9997
tp1931
a(S'out'
p1932
g581
F0.464
tp1933
a(S'and'
p1934
g345
F0.9955
tp1935
a(S'make'
p1936
g29
F0.993
tp1937
a(g131
g86
F0.9966
tp1938
a(S'tape'
p1939
g9
F0.9994
tp1940
asI247
(lp1941
(S'all'
p1942
g86
F0.752
tp1943
a(S'of'
p1944
g50
F0.994
tp1945
a(S'us'
p1946
g26
F0.9717
tp1947
a(S'could'
p1948
g29
F0.9963
tp1949
a(S'make'
p1950
g29
F0.9988
tp1951
a(S'the'
p1952
g86
F0.9995
tp1953
a(S'tape'
p1954
g9
F0.9977
tp1955
asI248
(lp1956
(S'yup'
p1957
g3
F0.9978
tp1958
asI249
(lp1959
(S'see'
p1960
g29
F0.8335
tp1961
asI250
(lp1962
(S'you'
p1963
g26
F0.9887
tp1964
a(S'sure'
p1965
g97
F0.973
tp1966
asI251
(lp1967
(S'yup'
p1968
g3
F0.9978
tp1969
asI252
(lp1970
(S'xxx'
p1971
g13
F0.8437
tp1972
asI253
(lp1973
(S'xxx'
p1974
g13
F0.8437
tp1975
asI254
(lp1976
(S'this'
p1977
g86
F0.9671
tp1978
a(S'summer'
p1979
g9
F0.9922
tp1980
asI255
(lp1981
(S'christmas'
p1982
g67
F0.9379
tp1983
a(S'time'
p1984
g9
F0.99
tp1985
asI256
(lp1986
(S'you'
p1987
g26
F0.998
tp1988
a(S'got'
p1989
g29
F0.9999
tp1990
a(S'them'
p1991
g26
F0.984
tp1992
a(S'over'
p1993
g50
F0.97
tp1994
a(S'the'
p1995
g86
F0.9993
tp1996
a(S'summer'
p1997
g9
F0.9831
tp1998
asI257
(lp1999
(S'no'
p2000
g3
F0.8016
tp2001
a(S'this'
p2002
g86
F0.973
tp2003
a(S'year'
p2004
g9
F0.9886
tp2005
asI258
(lp2006
(S'guys'
p2007
g9
F0.9841
tp2008
a(S'hurry'
p2009
g29
F0.9921
tp2010
a(S'up'
p2011
g581
F0.9937
tp2012
asI259
(lp2013
(S'we'
p2014
g26
F0.9973
tp2015
a(S'got'
p2016
g29
F0.9997
tp2017
a(S'to'
p2018
g50
F0.7428
tp2019
a(S'go'
p2020
g29
F0.9975
tp2021
a(S'soon'
p2022
g37
F0.9918
tp2023
asI260
(lp2024
(S'where'
p2025
g37
F0.9493
tp2026
asI261
(lp2027
(S'what'
p2028
g26
F0.5932
tp2029
a(S'time'
p2030
g9
F0.9934
tp2031
asI262
(lp2032
(g104
g26
F0.9896
tp2033
a(S'have'
p2034
g29
F0.9998
tp2035
a(S'to'
p2036
g50
F0.9965
tp2037
a(S'leave'
p2038
g29
F0.9985
tp2039
a(S'in'
p2040
g50
F0.9218
tp2041
a(S'twenty'
p2042
g768
F0.8017
tp2043
a(S'minutes'
p2044
g9
F0.9903
tp2045
asI263
(lp2046
(S'where'
p2047
g37
F0.9493
tp2048
asI264
(lp2049
(S'and'
p2050
g345
F0.999
tp2051
a(g104
g26
F0.9943
tp2052
a(S'have'
p2053
g29
F0.9998
tp2054
a(S'to'
p2055
g50
F0.9971
tp2056
a(S'take'
p2057
g29
F0.9997
tp2058
a(g131
g86
F0.9966
tp2059
a(S'shower'
p2060
g9
F0.997
tp2061
a(S'yet'
p2062
g37
F0.9351
tp2063
asI265
(lp2064
(S'we'
p2065
g26
F0.9849
tp2066
a(S're'
p2067
g29
F0.6919
tp2068
a(S'going'
p2069
g29
F0.9976
tp2070
a(S'to'
p2071
g50
F0.9747
tp2072
a(S'church'
p2073
g9
F0.6229
tp2074
asI266
(lp2075
(S'twenty'
p2076
g768
F0.8936
tp2077
a(S'minutes'
p2078
g9
F0.991
tp2079
asI267
(lp2080
(S'zzz'
p2081
g3
F0.361
tp2082
asI268
(lp2083
(S'zzz'
p2084
g3
F0.361
tp2085
asI269
(lp2086
(S'uhhum'
p2087
g3
F0.9859
tp2088
asI270
(lp2089
(S'hurry'
p2090
g29
F0.9362
tp2091
a(S'up'
p2092
g581
F0.9889
tp2093
asI271
(lp2094
(g104
g26
F0.9635
tp2095
a(S'don'
p2096
g29
F0.9231
tp2097
a(g31
g29
F0.3155
tp2098
a(S'think'
p2099
g29
F0.9962
tp2100
a(S'we'
p2101
g26
F0.9946
tp2102
a(S're'
p2103
g29
F0.6673
tp2104
a(S'going'
p2105
g29
F0.9976
tp2106
a(S'to'
p2107
g50
F0.9865
tp2108
a(S'make'
p2109
g29
F0.9997
tp2110
a(S'it'
p2111
g26
F0.455
tp2112
a(S'mom'
p2113
g9
F0.7514
tp2114
asI272
(lp2115
(S'well'
p2116
g3
F0.9019
tp2117
a(S'hurry'
p2118
g29
F0.9351
tp2119
a(S'up'
p2120
g581
F0.9937
tp2121
asI273
(lp2122
(S'can'
p2123
g29
F0.9755
tp2124
a(g104
g26
F0.987
tp2125
a(S'have'
p2126
g29
F0.9999
tp2127
a(S'some'
p2128
g86
F0.995
tp2129
a(S'corn'
p2130
g9
F0.9954
tp2131
asI274
(lp2132
(g104
g26
F0.9896
tp2133
a(S'asked'
p2134
g29
F0.9976
tp2135
a(S'first'
p2136
g97
F0.725
tp2137
asI275
(lp2138
(S'why'
p2139
g37
F0.8527
tp2140
asI276
(lp2141
(S'why'
p2142
g37
F0.8527
tp2143
asI277
(lp2144
(g104
g26
F0.989
tp2145
a(S'asked'
p2146
g29
F0.9976
tp2147
a(S'first'
p2148
g97
F0.7945
tp2149
a(S'brian'
p2150
g67
F0.9683
tp2151
asI278
(lp2152
(S'xxx'
p2153
g13
F0.8437
tp2154
asI279
(lp2155
(g104
g26
F0.9586
tp2156
a(S'm'
p2157
g29
F0.9805
tp2158
a(S'coming'
p2159
g29
F0.9891
tp2160
asI280
(lp2161
(S'are'
p2162
g29
F0.9964
tp2163
a(S'you'
p2164
g26
F0.9995
tp2165
a(S'going'
p2166
g29
F0.9997
tp2167
a(S'to'
p2168
g50
F0.9747
tp2169
a(S'church'
p2170
g9
F0.6229
tp2171
asI281
(lp2172
(S'gi'
p2173
g67
F0.4662
tp2174
a(S've'
p2175
g29
F0.5515
tp2176
a(S'me'
p2177
g26
F0.9974
tp2178
a(S'the'
p2179
g86
F0.998
tp2180
a(S'butter'
p2181
g9
F0.9795
tp2182
a(S'please'
p2183
g29
F0.9568
tp2184
asI282
(lp2185
(g104
g26
F0.9882
tp2186
a(S'need'
p2187
g29
F0.9997
tp2188
a(S'the'
p2189
g86
F0.9992
tp2190
a(S'butter'
p2191
g9
F0.9904
tp2192
asI283
(lp2193
(S'are'
p2194
g29
F0.9964
tp2195
a(S'you'
p2196
g26
F0.9996
tp2197
a(S'done'
p2198
g29
F0.9971
tp2199
a(S'eating'
p2200
g29
F0.9744
tp2201
asI284
(lp2202
(S'no'
p2203
g3
F0.9253
tp2204
asI285
(lp2205
(S'can'
p2206
g29
F0.9755
tp2207
a(g104
g26
F0.987
tp2208
a(S'have'
p2209
g29
F1.0
tp2210
a(S'another'
p2211
g86
F0.9958
tp2212
a(S'one'
p2213
g768
F0.7784
tp2214
asI286
(lp2215
(S'another'
p2216
g86
F0.8865
tp2217
a(S'what'
p2218
g26
F0.979
tp2219
asI287
(lp2220
(S'there'
p2221
g709
F0.4664
tp2222
a(g69
g70
F0.6897
tp2223
a(S'only'
p2224
g97
F0.8317
tp2225
a(S'one'
p2226
g768
F0.9595
tp2227
a(S'more'
p2228
g97
F0.9171
tp2229
a(S'corn'
p2230
g9
F0.999
tp2231
a(S'on'
p2232
g50
F0.9994
tp2233
a(S'the'
p2234
g86
F0.999
tp2235
a(S'cob'
p2236
g9
F0.5012
tp2237
a(S'and'
p2238
g345
F0.9979
tp2239
a(S'three'
p2240
g768
F0.9553
tp2241
a(S'of'
p2242
g50
F0.9987
tp2243
a(S'you'
p2244
g26
F0.9462
tp2245
a(S'guys'
p2246
g9
F0.9601
tp2247
asI288
(lp2248
(S'can'
p2249
g29
F0.9755
tp2250
a(g104
g26
F0.987
tp2251
a(S'have'
p2252
g29
F0.9994
tp2253
a(S'half'
p2254
g9
F0.8645
tp2255
a(S'of'
p2256
g50
F0.9975
tp2257
a(S'it'
p2258
g26
F0.9973
tp2259
asI289
(lp2260
(S'what'
p2261
g26
F0.9931
tp2262
a(S'do'
p2263
g29
F0.9991
tp2264
a(S'you'
p2265
g26
F0.9997
tp2266
a(S'want'
p2267
g29
F0.9982
tp2268
asI290
(lp2269
(S'you'
p2270
g26
F0.995
tp2271
a(S'still'
p2272
g37
F0.9873
tp2273
a(S'have'
p2274
g29
F0.9985
tp2275
a(S'some'
p2276
g86
F0.8409
tp2277
a(S'in'
p2278
g50
F0.992
tp2279
a(S'your'
p2280
g86
F0.9915
tp2281
a(S'dish'
p2282
g9
F0.9973
tp2283
a(S'heather'
p2284
g67
F0.5316
tp2285
asI291
(lp2286
(g104
g26
F0.9896
tp2287
a(S'asked'
p2288
g29
F0.9976
tp2289
a(S'first'
p2290
g97
F0.725
tp2291
asI292
(lp2292
(g104
g26
F0.953
tp2293
a(g2157
g29
F0.9829
tp2294
a(S'having'
p2295
g29
F0.9969
tp2296
a(S'half'
p2297
g9
F0.7729
tp2298
a(S'of'
p2299
g50
F0.9975
tp2300
a(S'it'
p2301
g26
F0.9973
tp2302
asI293
(lp2303
(g104
g26
F0.9896
tp2304
a(S'asked'
p2305
g29
F0.9976
tp2306
a(S'first'
p2307
g97
F0.725
tp2308
asI294
(lp2309
(S'uh'
p2310
g3
F0.9621
tp2311
a(S'guys'
p2312
g9
F0.968
tp2313
asI295
(lp2314
(S'nobody'
p2315
g9
F0.8459
tp2316
a(g69
g70
F0.7673
tp2317
a(S'gonna'
p2318
g29
F0.9936
tp2319
a(S'be'
p2320
g29
F0.9991
tp2321
a(S'cause'
p2322
g50
F0.9596
tp2323
a(S'we'
p2324
g26
F0.998
tp2325
a(S'don'
p2326
g29
F0.8369
tp2327
a(g31
g70
F0.2158
tp2328
a(S'have'
p2329
g29
F0.9714
tp2330
a(S'time'
p2331
g9
F0.9935
tp2332
asI296
(lp2333
(S'we'
p2334
g26
F0.9973
tp2335
a(S'have'
p2336
g29
F0.9994
tp2337
a(S'to'
p2338
g50
F0.9767
tp2339
a(S'go'
p2340
g29
F0.9953
tp2341
asI297
(lp2342
(S'you'
p2343
g26
F0.9406
tp2344
a(S'guys'
p2345
g9
F0.9624
tp2346
a(S'while'
p2347
g50
F0.7522
tp2348
a(g104
g26
F0.9921
tp2349
a(g2157
g29
F0.9883
tp2350
a(S'in'
p2351
g50
F0.9866
tp2352
a(S'the'
p2353
g86
F0.9991
tp2354
a(S'shower'
p2355
g9
F0.9946
tp2356
a(S'are'
p2357
g29
F0.9912
tp2358
a(S'cleaning'
p2359
g29
F0.9545
tp2360
a(S'off'
p2361
g581
F0.6373
tp2362
a(S'this'
p2363
g86
F0.9938
tp2364
a(S'table'
p2365
g9
F0.9951
tp2366
asI298
(lp2367
(S'what'
p2368
g26
F0.9777
tp2369
a(S'about'
p2370
g50
F0.9848
tp2371
a(S'um'
p2372
g86
F0.4252
tp2373
a(S'honey'
p2374
g9
F0.8369
tp2375
a(S'dew'
p2376
g9
F0.811
tp2377
asI299
(lp2378
(S'uh'
p2379
g3
F0.9927
tp2380
asI300
(lp2381
(S'you'
p2382
g26
F0.9754
tp2383
a(S're'
p2384
g29
F0.6587
tp2385
a(S'just'
p2386
g37
F0.9995
tp2387
a(S'gonna'
p2388
g29
F0.9983
tp2389
a(S'have'
p2390
g29
F0.9997
tp2391
a(S'to'
p2392
g50
F0.9964
tp2393
a(S'wait'
p2394
g29
F0.9993
tp2395
a(S'until'
p2396
g50
F0.9982
tp2397
a(S'we'
p2398
g26
F0.9991
tp2399
a(S'come'
p2400
g29
F0.9992
tp2401
a(S'uh'
p2402
g3
F0.9126
tp2403
asI301
(lp2404
(S'you'
p2405
g26
F0.998
tp2406
a(S'have'
p2407
g29
F0.9996
tp2408
a(S'the'
p2409
g86
F0.9963
tp2410
a(S'fudgesicles'
p2411
g9
F0.5926
tp2412
asI302
(lp2413
(S'xxx'
p2414
g13
F0.8437
tp2415
asI303
(lp2416
(S'ma'
p2417
g3
F0.3265
tp2418
asI304
(lp2419
(S'xxx'
p2420
g13
F0.663
tp2421
a(S'can'
p2422
g29
F0.9896
tp2423
a(g104
g26
F0.9756
tp2424
a(S'do'
p2425
g29
F1.0
tp2426
a(S'it'
p2427
g26
F0.9924
tp2428
a(S'when'
p2429
g37
F0.9837
tp2430
a(S'we'
p2431
g26
F0.9957
tp2432
a(S'get'
p2433
g29
F0.9997
tp2434
a(S'home'
p2435
g9
F0.9165
tp2436
asI305
(lp2437
(S'it'
p2438
g26
F0.9904
tp2439
a(S'll'
p2440
g29
F0.5635
tp2441
a(S'be'
p2442
g29
F0.9964
tp2443
a(S'ten'
p2444
g768
F0.5392
tp2445
a(S'o'
p2446
g50
F0.8291
tp2447
a(S'clock'
p2448
g9
F0.9551
tp2449
asI306
(lp2450
(g104
g26
F0.9912
tp2451
a(S'know'
p2452
g29
F0.9989
tp2453
asI307
(lp2454
(S'when'
p2455
g37
F0.9604
tp2456
a(S'we'
p2457
g26
F0.9971
tp2458
a(S'get'
p2459
g29
F0.9997
tp2460
a(S'home'
p2461
g9
F0.934
tp2462
asI308
(lp2463
(S'ten'
p2464
g768
F0.742
tp2465
asI309
(lp2466
(S'yeah'
p2467
g3
F0.9988
tp2468
asI310
(lp2469
(S'uh'
p2470
g3
F0.9746
tp2471
a(S'if'
p2472
g50
F0.9979
tp2473
a(S'you'
p2474
g26
F0.9906
tp2475
a(S'guys'
p2476
g9
F0.9429
tp2477
a(S'want'
p2478
g29
F0.9999
tp2479
a(S'you'
p2480
g26
F0.9993
tp2481
a(S'can'
p2482
g29
F0.9997
tp2483
a(S'stay'
p2484
g29
F0.9943
tp2485
a(S'here'
p2486
g37
F0.9961
tp2487
a(S'and'
p2488
g345
F0.9963
tp2489
a(S'play'
p2490
g29
F0.9881
tp2491
a(S'with'
p2492
g50
F0.9991
tp2493
a(S'your'
p2494
g86
F0.9977
tp2495
a(S'friends'
p2496
g9
F0.9939
tp2497
asI311
(lp2498
(S'mom'
p2499
g9
F0.8391
tp2500
a(S'can'
p2501
g29
F0.9973
tp2502
a(g104
g26
F0.9862
tp2503
a(S'have'
p2504
g29
F0.9994
tp2505
a(S'can'
p2506
g29
F0.9599
tp2507
a(g104
g26
F0.9868
tp2508
a(S'have'
p2509
g29
F0.9999
tp2510
a(S'the'
p2511
g86
F0.9995
tp2512
a(S'ice'
p2513
g9
F0.9264
tp2514
a(S'cream'
p2515
g9
F0.9108
tp2516
a(S'now'
p2517
g37
F0.9902
tp2518
asI312
(lp2519
(S'and'
p2520
g345
F0.9986
tp2521
a(S'stay'
p2522
g29
F0.9821
tp2523
a(S'out'
p2524
g581
F0.9157
tp2525
a(S'until'
p2526
g50
F0.9961
tp2527
a(S'like'
p2528
g50
F0.3805
tp2529
a(S'nine'
p2530
g9
F0.4913
tp2531
asI313
(lp2532
(S'we'
p2533
g26
F0.9849
tp2534
a(S're'
p2535
g29
F0.4911
tp2536
a(S'gonna'
p2537
g29
F0.9939
tp2538
a(S'be'
p2539
g29
F0.9995
tp2540
a(S'back'
p2541
g37
F0.9296
tp2542
a(S'at'
p2543
g50
F0.9985
tp2544
a(S'ten'
p2545
g768
F0.5961
tp2546
asI314
(lp2547
(S'zzz'
p2548
g3
F0.361
tp2549
asI315
(lp2550
(S'what'
p2551
g26
F0.846
tp2552
a(S'church'
p2553
g9
F0.9821
tp2554
a(S'are'
p2555
g29
F0.9624
tp2556
a(S'we'
p2557
g26
F0.9989
tp2558
a(S'going'
p2559
g29
F0.9999
tp2560
a(S'to'
p2561
g50
F0.9197
tp2562
asI316
(lp2563
(S'parkway'
p2564
g9
F0.6033
tp2565
asI317
(lp2566
(S'zzz'
p2567
g3
F0.361
tp2568
asI318
(lp2569
(S'what'
p2570
g26
F0.9931
tp2571
a(S'do'
p2572
g29
F0.9991
tp2573
a(S'you'
p2574
g26
F0.9997
tp2575
a(S'want'
p2576
g29
F0.9982
tp2577
asI319
(lp2578
(S'mom'
p2579
g9
F0.7871
tp2580
a(S'mom'
p2581
g9
F0.8215
tp2582
asI320
(lp2583
(S'what'
p2584
g26
F0.949
tp2585
asI321
(lp2586
(S'what'
p2587
g26
F0.949
tp2588
asI322
(lp2589
(S'eat'
p2590
g29
F0.9778
tp2591
a(S'this'
p2592
g26
F0.5782
tp2593
asI323
(lp2594
(S'do'
p2595
g29
F0.9929
tp2596
a(S'we'
p2597
g26
F0.9992
tp2598
a(S'have'
p2599
g29
F0.9997
tp2600
a(S'to'
p2601
g50
F0.99
tp2602
a(S'go'
p2603
g29
F0.9993
tp2604
a(S'upstairs'
p2605
g37
F0.603
tp2606
asI324
(lp2607
(S'eat'
p2608
g29
F0.9778
tp2609
a(S'this'
p2610
g26
F0.5782
tp2611
asI325
(lp2612
(S'no'
p2613
g3
F0.9253
tp2614
asI326
(lp2615
(S'we'
p2616
g26
F0.9943
tp2617
a(S'don'
p2618
g29
F0.8461
tp2619
a(g31
g9
F0.3213
tp2620
a(S'go'
p2621
g29
F0.9839
tp2622
a(S'upstairs'
p2623
g37
F0.6712
tp2624
asI327
(lp2625
(S'mom'
p2626
g9
F0.7188
tp2627
asI328
(lp2628
(S'do'
p2629
g29
F0.9929
tp2630
a(S'we'
p2631
g26
F0.9988
tp2632
a(S'go'
p2633
g29
F0.9987
tp2634
a(S'upstairs'
p2635
g37
F0.555
tp2636
asI329
(lp2637
(g104
g26
F0.9635
tp2638
a(S'don'
p2639
g29
F0.9156
tp2640
a(g31
g9
F0.3074
tp2641
a(S'know'
p2642
g29
F0.965
tp2643
asI330
(lp2644
(S'you'
p2645
g26
F0.9754
tp2646
a(S're'
p2647
g29
F0.5904
tp2648
a(S'gon'
p2649
g29
F0.9587
tp2650
a(g31
g29
F0.8571
tp2651
a(g131
g86
F0.9386
tp2652
a(S'going'
p2653
g29
F0.6443
tp2654
a(S'to'
p2655
g50
F0.9724
tp2656
a(S'be'
p2657
g29
F0.9995
tp2658
a(S'with'
p2659
g50
F0.9996
tp2660
a(S'the'
p2661
g86
F0.9997
tp2662
a(S'baby'
p2663
g9
F0.9947
tp2664
a(S'sitter'
p2665
g9
F0.9946
tp2666
asI331
(lp2667
(S'this'
p2668
g26
F0.9526
tp2669
a(S'is'
p2670
g29
F0.9988
tp2671
a(g131
g86
F0.9981
tp2672
a(S'meeting'
p2673
g9
F0.9979
tp2674
asI332
(lp2675
(S'this'
p2676
g26
F0.9526
tp2677
a(S'is'
p2678
g29
F0.9957
tp2679
a(S'not'
p2680
g37
F0.995
tp2681
a(S'um'
p2682
g3
F0.6931
tp2683
asI333
(lp2684
(S'ketchup'
p2685
g9
F0.932
tp2686
asI334
(lp2687
(S'regular'
p2688
g97
F0.9764
tp2689
a(S'church'
p2690
g9
F0.9873
tp2691
asI335
(lp2692
(S'mommy'
p2693
g9
F0.7607
tp2694
a(g104
g26
F0.9644
tp2695
a(S'want'
p2696
g29
F1.0
tp2697
a(S'some'
p2698
g86
F0.889
tp2699
asI336
(lp2700
(S'give'
p2701
g29
F0.9974
tp2702
a(S'her'
p2703
g26
F0.7336
tp2704
a(S'her'
p2705
g86
F0.9628
tp2706
a(S'spoon'
p2707
g9
F0.997
tp2708
a(S'right'
p2709
g37
F0.9376
tp2710
a(S'now'
p2711
g37
F0.9943
tp2712
asI337
(lp2713
(S'ketchup'
p2714
g9
F0.9525
tp2715
a(S'please'
p2716
g29
F0.9499
tp2717
a(S'mom'
p2718
g9
F0.8861
tp2719
asI338
(lp2720
(S'give'
p2721
g29
F0.9974
tp2722
a(S'her'
p2723
g86
F0.6518
tp2724
a(S'heather'
p2725
g67
F0.6591
tp2726
a(S'her'
p2727
g86
F0.9344
tp2728
a(S'spoon'
p2729
g9
F0.9916
tp2730
a(S'emily'
p2731
g67
F0.8932
tp2732
asI339
(lp2733
(S'use'
p2734
g29
F0.8636
tp2735
a(g131
g86
F0.9979
tp2736
a(S'fork'
p2737
g9
F0.9983
tp2738
asI340
(lp2739
(S'where'
p2740
g37
F0.9711
tp2741
a(g69
g70
F0.6962
tp2742
a(S'my'
p2743
g86
F0.9949
tp2744
a(S'fork'
p2745
g9
F0.9985
tp2746
a(S'then'
p2747
g37
F0.984
tp2748
asI341
(lp2749
(g104
g26
F0.9635
tp2750
a(S'don'
p2751
g29
F0.9156
tp2752
a(g31
g9
F0.3074
tp2753
a(S'know'
p2754
g29
F0.965
tp2755
asI342
(lp2756
(S'it'
p2757
g26
F0.9888
tp2758
a(g69
g29
F0.6797
tp2759
a(S'right'
p2760
g37
F0.8196
tp2761
a(S'here'
p2762
g37
F0.9752
tp2763
asI343
(lp2764
(S'xxx'
p2765
g13
F0.6101
tp2766
a(S'heather'
p2767
g67
F0.9058
tp2768
a(g69
g67
F0.4043
tp2769
a(S'spoon'
p2770
g9
F0.6939
tp2771
asI344
(lp2772
(S'no'
p2773
g3
F0.9253
tp2774
asI345
(lp2775
(g104
g26
F0.9635
tp2776
a(S'don'
p2777
g29
F0.9231
tp2778
a(g31
g9
F0.2384
tp2779
a(S'have'
p2780
g29
F0.9986
tp2781
a(g131
g86
F0.9986
tp2782
a(S'spoon'
p2783
g9
F0.994
tp2784
asI346
(lp2785
(S'use'
p2786
g29
F0.7851
tp2787
a(S'that'
p2788
g86
F0.7963
tp2789
a(S'fork'
p2790
g9
F0.995
tp2791
asI347
(lp2792
(g104
g26
F0.9908
tp2793
a(S'know'
p2794
g29
F0.9987
tp2795
a(g104
g26
F0.9908
tp2796
a(S'just'
p2797
g37
F0.9995
tp2798
a(S'gave'
p2799
g29
F0.9997
tp2800
a(S'it'
p2801
g26
F0.9923
tp2802
a(S'to'
p2803
g50
F0.9939
tp2804
a(S'her'
p2805
g26
F0.8075
tp2806
asI348
(lp2807
(g104
g26
F0.9635
tp2808
a(S'don'
p2809
g29
F0.9231
tp2810
a(g31
g9
F0.2384
tp2811
a(S'have'
p2812
g29
F0.9986
tp2813
a(g131
g86
F0.9986
tp2814
a(S'spoon'
p2815
g9
F0.994
tp2816
asI349
(lp2817
(S'salt'
p2818
g9
F0.6014
tp2819
a(S'and'
p2820
g345
F0.9981
tp2821
a(S'pepper'
p2822
g9
F0.5852
tp2823
a(S'mom'
p2824
g9
F0.9702
tp2825
asI350
(lp2826
(S'freddy'
p2827
g67
F0.9979
tp2828
a(S'give'
p2829
g29
F0.9991
tp2830
a(S'me'
p2831
g26
F0.9976
tp2832
a(S'the'
p2833
g86
F0.9964
tp2834
a(S'salt'
p2835
g9
F0.9363
tp2836
a(S'please'
p2837
g29
F0.9294
tp2838
asI351
(lp2839
(S'ma'
p2840
g86
F0.5636
tp2841
a(g104
g26
F0.9842
tp2842
a(S'need'
p2843
g29
F0.9998
tp2844
a(S'the'
p2845
g86
F0.9993
tp2846
a(S'butter'
p2847
g9
F0.9837
tp2848
asI352
(lp2849
(S'emily'
p2850
g67
F0.9514
tp2851
asI353
(lp2852
(S'where'
p2853
g37
F0.9711
tp2854
a(g69
g70
F0.6848
tp2855
a(S'the'
p2856
g86
F0.9982
tp2857
a(S'butter'
p2858
g9
F0.9904
tp2859
asI354
(lp2860
(S'where'
p2861
g37
F0.9711
tp2862
a(g69
g70
F0.6848
tp2863
a(S'the'
p2864
g86
F0.9982
tp2865
a(S'butter'
p2866
g9
F0.9904
tp2867
asI355
(lp2868
(S'chi'
p2869
g3
F0.4684
tp2870
asI356
(lp2871
(g104
g26
F0.9651
tp2872
asI357
(lp2873
(S'you'
p2874
g26
F0.9754
tp2875
a(S're'
p2876
g29
F0.7849
tp2877
a(S'not'
p2878
g37
F0.9954
tp2879
a(S'gon'
p2880
g29
F0.9854
tp2881
a(g31
g29
F0.849
tp2882
a(g131
g86
F0.9386
tp2883
a(S'going'
p2884
g29
F0.6443
tp2885
a(S'to'
p2886
g50
F0.9724
tp2887
a(S'be'
p2888
g29
F0.9996
tp2889
a(S'able'
p2890
g97
F0.9684
tp2891
a(S'to'
p2892
g50
F0.9985
tp2893
a(S'finish'
p2894
g29
F0.9992
tp2895
a(S'this'
p2896
g86
F0.96
tp2897
a(S'corn'
p2898
g9
F0.9979
tp2899
asI358
(lp2900
(S'why'
p2901
g37
F0.9375
tp2902
a(S'don'
p2903
g9
F0.2525
tp2904
a(g31
g70
F0.3088
tp2905
a(S'we'
p2906
g26
F0.9947
tp2907
a(S'save'
p2908
g29
F0.9996
tp2909
a(S'this'
p2910
g86
F0.9606
tp2911
a(S'corn'
p2912
g9
F0.9977
tp2913
a(S'for'
p2914
g50
F0.9999
tp2915
a(S'you'
p2916
g26
F0.9994
tp2917
a(S'for'
p2918
g50
F0.9841
tp2919
a(S'later'
p2920
g97
F0.5364
tp2921
asI359
(lp2922
(S'no'
p2923
g3
F0.9253
tp2924
asI360
(lp2925
(S'yeah'
p2926
g3
F0.9988
tp2927
asI361
(lp2928
(S'eat'
p2929
g29
F0.959
tp2930
a(S'everything'
p2931
g9
F0.9848
tp2932
a(S'else'
p2933
g37
F0.9435
tp2934
a(S'in'
p2935
g50
F0.995
tp2936
a(S'your'
p2937
g86
F0.9937
tp2938
a(S'dish'
p2939
g9
F0.9987
tp2940
asI362
(lp2941
(g104
g26
F0.9793
tp2942
a(S'll'
p2943
g29
F0.7483
tp2944
a(S'eat'
p2945
g29
F0.9991
tp2946
a(S'it'
p2947
g26
F0.9894
tp2948
asI363
(lp2949
(S'no'
p2950
g3
F0.9253
tp2951
asI364
(lp2952
(S'freddy'
p2953
g67
F0.9919
tp2954
asI365
(lp2955
(S'but'
p2956
g345
F0.9948
tp2957
a(g104
g26
F0.9906
tp2958
a(g2157
g29
F0.9866
tp2959
a(S'hungry'
p2960
g97
F0.9513
tp2961
asI366
(lp2962
(S'mom'
p2963
g9
F0.9407
tp2964
a(S'is'
p2965
g29
F0.9995
tp2966
a(S'my'
p2967
g86
F0.998
tp2968
a(S'mouth'
p2969
g9
F0.9968
tp2970
a(S'bigger'
p2971
g97
F0.9857
tp2972
a(S'than'
p2973
g50
F0.9985
tp2974
a(S'yours'
p2975
g26
F0.9812
tp2976
asI367
(lp2977
(S'hm'
p2978
g3
F0.995
tp2979
asI368
(lp2980
(S'my'
p2981
g86
F0.9977
tp2982
a(S'mouth'
p2983
g9
F0.9992
tp2984
a(g69
g70
F0.7097
tp2985
a(S'bigger'
p2986
g97
F0.9913
tp2987
a(S'than'
p2988
g50
F0.9975
tp2989
a(S'yours'
p2990
g26
F0.9862
tp2991
asI369
(lp2992
(S'no'
p2993
g3
F0.9253
tp2994
asI370
(lp2995
(g104
g26
F0.9635
tp2996
a(S'don'
p2997
g29
F0.9231
tp2998
a(g31
g29
F0.3155
tp2999
a(S'think'
p3000
g29
F0.9891
tp3001
a(S'so'
p3002
g37
F0.5781
tp3003
a(S'pat'
p3004
g67
F0.9311
tp3005
a(S'uh'
p3006
g3
F0.861
tp3007
a(S'brian'
p3008
g67
F0.9856
tp3009
asI371
(lp3010
(g104
g26
F0.953
tp3011
a(g2157
g29
F0.9485
tp3012
a(S'pat'
p3013
g67
F0.8386
tp3014
a(S'not'
p3015
g37
F0.9909
tp3016
a(S'brian'
p3017
g67
F0.9593
tp3018
asI372
(lp3019
(S'pat'
p3020
g67
F0.9412
tp3021
asI373
(lp3022
(S'finish'
p3023
g29
F0.9138
tp3024
a(S'eating'
p3025
g29
F0.9845
tp3026
asI374
(lp3027
(g131
g86
F0.9703
tp3028
a(g509
g9
F0.7438
tp3029
asI375
(lp3030
(S'mom'
p3031
g9
F0.7188
tp3032
asI376
(lp3033
(S'is'
p3034
g29
F0.9965
tp3035
a(S'she'
p3036
g26
F0.998
tp3037
a(S'xxx'
p3038
g29
F0.443
tp3039
a(S'food'
p3040
g9
F0.9787
tp3041
asI377
(lp3042
(S'haha'
p3043
g3
F0.9993
tp3044
asI378
(lp3045
(S'she'
p3046
g26
F0.9917
tp3047
a(g69
g29
F0.6125
tp3048
a(S'taking'
p3049
g29
F0.9995
tp3050
a(S'my'
p3051
g86
F0.9977
tp3052
a(S'food'
p3053
g9
F0.9974
tp3054
asI379
(lp3055
(S'don'
p3056
g67
F0.5427
tp3057
a(g31
g67
F0.4087
tp3058
a(S'let'
p3059
g29
F0.9963
tp3060
a(S'her'
p3061
g26
F0.8436
tp3062
asI380
(lp3063
(S'heather'
p3064
g67
F0.9211
tp3065
asI381
(lp3066
(g104
g26
F0.953
tp3067
a(g2157
g29
F0.9621
tp3068
a(S'still'
p3069
g37
F0.999
tp3070
a(S'hungry'
p3071
g97
F0.9704
tp3072
asI382
(lp3073
(S'have'
p3074
g29
F0.9787
tp3075
a(S'potato'
p3076
g9
F0.9894
tp3077
a(S'salad'
p3078
g9
F0.9985
tp3079
asI383
(lp3080
(g104
g26
F0.9908
tp3081
a(S'hate'
p3082
g29
F0.9995
tp3083
a(S'potato'
p3084
g9
F0.9757
tp3085
a(S'salad'
p3086
g9
F0.9983
tp3087
asI384
(lp3088
(S'xxx'
p3089
g13
F0.8437
tp3090
asI385
(lp3091
(S'xxx'
p3092
g13
F0.6645
tp3093
a(S'broccoli'
p3094
g9
F0.9836
tp3095
asI386
(lp3096
(g104
g26
F0.9635
tp3097
a(S'don'
p3098
g29
F0.9231
tp3099
a(g31
g29
F0.4066
tp3100
a(S'like'
p3101
g50
F0.8699
tp3102
a(S'it'
p3103
g26
F0.9986
tp3104
asI387
(lp3105
(g131
g86
F0.9436
tp3106
a(S'fudgesicle'
p3107
g9
F0.4617
tp3108
asI388
(lp3109
(S'zzz'
p3110
g3
F0.361
tp3111
asI389
(lp3112
(S'zzz'
p3113
g3
F0.361
tp3114
asI390
(lp3115
(S'fudgesicle'
p3116
g3
F0.2841
tp3117
asI391
(lp3118
(S'have'
p3119
g29
F0.9901
tp3120
a(S'more'
p3121
g97
F0.9174
tp3122
a(S'applesauce'
p3123
g9
F0.989
tp3124
asI392
(lp3125
(S'emily'
p3126
g67
F0.9895
tp3127
a(S'don'
p3128
g67
F0.8194
tp3129
a(g31
g67
F0.6363
tp3130
a(S'do'
p3131
g29
F0.9973
tp3132
a(S'that'
p3133
g26
F0.8486
tp3134
a(S'to'
p3135
g50
F0.9931
tp3136
a(S'your'
p3137
g86
F0.9844
tp3138
a(S'chair'
p3139
g9
F0.9986
tp3140
asI393
(lp3141
(S'heather'
p3142
g67
F0.9211
tp3143
asI394
(lp3144
(S'zzz'
p3145
g3
F0.361
tp3146
asI395
(lp3147
(S'wan'
p3148
g97
F0.4967
tp3149
a(g31
g70
F0.3692
tp3150
a(g31
g70
F0.7953
tp3151
a(g131
g86
F0.9173
tp3152
a(S'see'
p3153
g9
F0.4617
tp3154
a(S'how'
p3155
g37
F0.9748
tp3156
a(S'big'
p3157
g97
F0.9083
tp3158
a(S'my'
p3159
g86
F0.995
tp3160
a(S'mouth'
p3161
g9
F0.9999
tp3162
a(S'is'
p3163
g29
F0.9957
tp3164
asI396
(lp3165
(S'no'
p3166
g3
F0.9253
tp3167
asI397
(lp3168
(S'look'
p3169
g29
F0.911
tp3170
a(S'brian'
p3171
g67
F0.9583
tp3172
asI398
(lp3173
(S'keep'
p3174
g29
F0.9904
tp3175
a(S'your'
p3176
g86
F0.9955
tp3177
a(S'mouth'
p3178
g9
F0.9998
tp3179
a(S'shut'
p3180
g29
F0.893
tp3181
a(S'when'
p3182
g37
F0.9869
tp3183
a(S'you'
p3184
g26
F0.9993
tp3185
a(S'have'
p3186
g29
F0.9967
tp3187
a(S'food'
p3188
g9
F0.9942
tp3189
a(S'in'
p3190
g50
F0.9972
tp3191
a(S'it'
p3192
g26
F0.9945
tp3193
asI399
(lp3194
(S'if'
p3195
g50
F0.9977
tp3196
a(S'you'
p3197
g26
F0.9992
tp3198
a(S'open'
p3199
g29
F0.9926
tp3200
a(S'it'
p3201
g26
F0.9806
tp3202
a(S'again'
p3203
g37
F0.9544
tp3204
a(S'you'
p3205
g26
F0.9905
tp3206
a(S're'
p3207
g29
F0.7505
tp3208
a(S'going'
p3209
g29
F0.9979
tp3210
a(S'in'
p3211
g50
F0.9412
tp3212
a(S'your'
p3213
g86
F0.9921
tp3214
a(S'room'
p3215
g9
F0.9984
tp3216
asI400
(lp3217
(S'xxx'
p3218
g13
F0.8437
tp3219
asI401
(lp3220
(S'oh'
p3221
g3
F0.9988
tp3222
asI402
(lp3223
(S'zzz'
p3224
g3
F0.361
tp3225
asI403
(lp3226
(S'do'
p3227
g29
F0.9985
tp3228
a(S'you'
p3229
g26
F0.9997
tp3230
a(S'know'
p3231
g29
F0.9989
tp3232
a(S'what'
p3233
g26
F0.9947
tp3234
a(S'happens'
p3235
g29
F0.991
tp3236
a(S'xxx'
p3237
g13
F0.8037
tp3238
asI404
(lp3239
(S'hm'
p3240
g3
F0.995
tp3241
asI405
(lp3242
(S'xxx'
p3243
g13
F0.8437
tp3244
asI406
(lp3245
(S'zzz'
p3246
g3
F0.361
tp3247
asI407
(lp3248
(S'no'
p3249
g3
F0.8487
tp3250
a(S'if'
p3251
g50
F0.9982
tp3252
a(S'you'
p3253
g26
F0.9906
tp3254
a(S'guys'
p3255
g9
F0.9813
tp3256
a(S'are'
p3257
g29
F0.9989
tp3258
a(S'done'
p3259
g29
F0.7762
tp3260
asI408
(lp3261
(S'finish'
p3262
g29
F0.94
tp3263
a(S'eating'
p3264
g29
F0.9968
tp3265
a(S'um'
p3266
g26
F0.2946
tp3267
a(S'go'
p3268
g29
F0.971
tp3269
a(S'get'
p3270
g29
F0.9907
tp3271
a(S'washed'
p3272
g29
F0.8345
tp3273
asI409
(lp3274
(S'zzz'
p3275
g3
F0.361
tp3276
asI410
(lp3277
(S'what'
p3278
g26
F0.9784
tp3279
a(g69
g70
F0.613
tp3280
a(S'the'
p3281
g86
F0.9986
tp3282
a(S'matter'
p3283
g9
F0.9916
tp3284
asI411
(lp3285
(g104
g26
F0.9635
tp3286
a(S'don'
p3287
g29
F0.9156
tp3288
a(g31
g9
F0.3074
tp3289
a(S'know'
p3290
g29
F0.965
tp3291
asI412
(lp3292
(S'xxx'
p3293
g13
F0.8437
tp3294
asI413
(lp3295
(g104
g26
F0.9873
tp3296
a(S'can'
p3297
g29
F0.9996
tp3298
a(g31
g29
F0.8363
tp3299
a(S'help'
p3300
g29
F0.9956
tp3301
a(S'it'
p3302
g26
F0.9869
tp3303
a(S'if'
p3304
g50
F0.9981
tp3305
a(S'you'
p3306
g26
F0.9998
tp3307
a(S'hate'
p3308
g29
F0.9986
tp3309
a(S'half'
p3310
g9
F0.552
tp3311
a(S'of'
p3312
g50
F0.9969
tp3313
a(S'what'
p3314
g26
F0.9876
tp3315
a(S'we'
p3316
g26
F0.998
tp3317
a(S'got'
p3318
g29
F0.9985
tp3319
asI414
(lp3320
(S'you'
p3321
g26
F0.998
tp3322
a(S'have'
p3323
g29
F0.9994
tp3324
a(S'to'
p3325
g50
F0.9959
tp3326
a(S'learn'
p3327
g29
F0.9996
tp3328
a(S'to'
p3329
g50
F0.9899
tp3330
a(S'eat'
p3331
g29
F0.9997
tp3332
a(S'it'
p3333
g26
F0.99
tp3334
asI415
(lp3335
(g104
g26
F0.9835
tp3336
a(S'always'
p3337
g37
F0.9854
tp3338
a(S'hate'
p3339
g29
F0.9949
tp3340
a(S'xxx'
p3341
g13
F0.8188
tp3342
asI416
(lp3343
(S'xxx'
p3344
g13
F0.8437
tp3345
asI417
(lp3346
(S'washed'
p3347
g29
F0.964
tp3348
a(S'again'
p3349
g37
F0.9727
tp3350
asI418
(lp3351
(S'xxx'
p3352
g13
F0.8437
tp3353
asI419
(lp3354
(S'zzz'
p3355
g3
F0.361
tp3356
asI420
(lp3357
(S'heather'
p3358
g67
F0.9598
tp3359
a(S'what'
p3360
g26
F0.9913
tp3361
a(S'do'
p3362
g29
F0.9993
tp3363
a(S'you'
p3364
g26
F0.9996
tp3365
a(S'want'
p3366
g29
F0.9994
tp3367
asI421
(lp3368
(S'xxx'
p3369
g13
F0.6253
tp3370
a(S'brian'
p3371
g67
F0.9867
tp3372
a(g69
g70
F0.4758
tp3373
a(S'teasing'
p3374
g29
F0.8929
tp3375
a(S'xxx'
p3376
g13
F0.8109
tp3377
asI422
(lp3378
(S'xxx'
p3379
g13
F0.8437
tp3380
asI423
(lp3381
(S'oh'
p3382
g3
F0.995
tp3383
a(S'he'
p3384
g26
F0.9979
tp3385
a(S'is'
p3386
g29
F0.9997
tp3387
a(S'huh'
p3388
g3
F0.8732
tp3389
asI424
(lp3390
(S'didn'
p3391
g29
F0.598
tp3392
a(g31
g29
F0.5502
tp3393
a(S'uh'
p3394
g3
F0.8223
tp3395
a(S'tim'
p3396
g67
F0.9136
tp3397
a(S'just'
p3398
g37
F0.998
tp3399
a(S'yell'
p3400
g29
F0.9682
tp3401
a(S'at'
p3402
g50
F0.9931
tp3403
a(S'somebody'
p3404
g9
F0.9822
tp3405
a(S'for'
p3406
g50
F0.9991
tp3407
a(S'doing'
p3408
g29
F0.9995
tp3409
a(S'that'
p3410
g26
F0.721
tp3411
asI425
(lp3412
(g104
g26
F0.9635
tp3413
a(S'don'
p3414
g29
F0.9156
tp3415
a(g31
g9
F0.3074
tp3416
a(S'know'
p3417
g29
F0.965
tp3418
asI426
(lp3419
(S'zzz'
p3420
g3
F0.361
tp3421
asI427
(lp3422
(S'mom'
p3423
g9
F0.7188
tp3424
asI428
(lp3425
(S'xxx'
p3426
g13
F0.8437
tp3427
asI429
(lp3428
(S'zzz'
p3429
g3
F0.361
tp3430
asI430
(lp3431
(S'hey'
p3432
g3
F0.9986
tp3433
asI431
(lp3434
(g104
g26
F0.988
tp3435
a(S'am'
p3436
g29
F0.9967
tp3437
a(S'not'
p3438
g37
F0.987
tp3439
asI432
(lp3440
(S'xxx'
p3441
g13
F0.6351
tp3442
a(S'did'
p3443
g29
F0.9737
tp3444
asI433
(lp3445
(S'xxx'
p3446
g13
F0.8437
tp3447
asI434
(lp3448
(S'alright'
p3449
g3
F0.9205
tp3450
a(S'guys'
p3451
g9
F0.977
tp3452
asI435
(lp3453
(S'ow'
p3454
g3
F0.9682
tp3455
asI436
(lp3456
(S'heather'
p3457
g67
F0.9211
tp3458
asI437
(lp3459
(S'here'
p3460
g37
F0.7796
tp3461
asI438
(lp3462
(S'zzz'
p3463
g3
F0.361
tp3464
asI439
(lp3465
(S'here'
p3466
g37
F0.95
tp3467
a(S'give'
p3468
g29
F0.9824
tp3469
a(S'that'
p3470
g26
F0.8767
tp3471
a(S'to'
p3472
g50
F0.9804
tp3473
a(S'heather'
p3474
g67
F0.9654
tp3475
asI440
(lp3476
(S'alright'
p3477
g3
F0.9315
tp3478
a(S'freddie'
p3479
g67
F0.9921
tp3480
a(S'if'
p3481
g50
F0.9972
tp3482
a(S'you'
p3483
g26
F0.9981
tp3484
a(S're'
p3485
g29
F0.7974
tp3486
a(S'done'
p3487
g29
F0.91
tp3488
a(S'please'
p3489
g29
F0.9438
tp3490
a(S'go'
p3491
g29
F0.9828
tp3492
a(S'get'
p3493
g29
F0.9841
tp3494
a(S'washed'
p3495
g29
F0.8634
tp3496
asI441
(lp3497
(S'this'
p3498
g26
F0.9526
tp3499
a(S'is'
p3500
g29
F0.997
tp3501
a(S'heather'
p3502
g67
F0.9515
tp3503
a(g69
g67
F0.4559
tp3504
a(S'plate'
p3505
g9
F0.832
tp3506
asI442
(lp3507
(S'xxx'
p3508
g13
F0.8437
tp3509
asI443
(lp3510
(S'one'
p3511
g768
F0.9514
tp3512
a(S'pork'
p3513
g9
F0.9968
tp3514
a(S'chop'
p3515
g9
F0.6934
tp3516
asI444
(lp3517
(g104
g26
F0.9793
tp3518
a(S'll'
p3519
g29
F0.6803
tp3520
a(S'get'
p3521
g29
F0.9998
tp3522
a(S'it'
p3523
g26
F0.9928
tp3524
asI445
(lp3525
(g104
g26
F0.953
tp3526
a(g2157
g29
F0.9629
tp3527
a(S'gonna'
p3528
g29
F0.9907
tp3529
a(S'get'
p3530
g29
F0.9993
tp3531
a(S'more'
p3532
g97
F0.8974
tp3533
asI446
(lp3534
(g104
g26
F0.9897
tp3535
a(S'want'
p3536
g29
F0.9999
tp3537
a(S'some'
p3538
g86
F0.9924
tp3539
a(S'water'
p3540
g9
F0.9923
tp3541
asI447
(lp3542
(S'xxx'
p3543
g13
F0.8437
tp3544
asI448
(lp3545
(S'this'
p3546
g26
F0.9526
tp3547
a(S'is'
p3548
g29
F0.997
tp3549
a(S'heather'
p3550
g67
F0.9515
tp3551
a(g69
g67
F0.4559
tp3552
a(S'plate'
p3553
g9
F0.832
tp3554
asI449
(lp3555
(S'and'
p3556
g345
F0.9989
tp3557
a(S'you'
p3558
g26
F0.9962
tp3559
a(S're'
p3560
g29
F0.7591
tp3561
a(S'not'
p3562
g37
F0.9994
tp3563
a(S'close'
p3564
g97
F0.3941
tp3565
a(S'to'
p3566
g50
F0.9992
tp3567
a(S'her'
p3568
g26
F0.6942
tp3569
asI450
(lp3570
(S'and'
p3571
g345
F0.9992
tp3572
a(S'this'
p3573
g26
F0.985
tp3574
a(S'is'
p3575
g29
F0.9948
tp3576
a(S'xxx'
p3577
g13
F0.7968
tp3578
asI451
(lp3579
(S'this'
p3580
g26
F0.9526
tp3581
a(S'is'
p3582
g29
F0.9945
tp3583
a(S'dirty'
p3584
g97
F0.9423
tp3585
a(S'anyway'
p3586
g37
F0.9603
tp3587
asI452
(lp3588
(S'xxx'
p3589
g13
F0.5908
tp3590
a(S'the'
p3591
g86
F0.9969
tp3592
a(S'popsicle'
p3593
g9
F0.8965
tp3594
asI453
(lp3595
(S'here'
p3596
g37
F0.7827
tp3597
a(S'heather'
p3598
g67
F0.8184
tp3599
asI454
(lp3600
(S'xxx'
p3601
g13
F0.5859
tp3602
a(S'here'
p3603
g37
F0.8471
tp3604
asI455
(lp3605
(g104
g26
F0.9897
tp3606
a(S'want'
p3607
g29
F1.0
tp3608
a(S'some'
p3609
g86
F0.9397
tp3610
a(S'more'
p3611
g97
F0.9363
tp3612
a(S'um'
p3613
g3
F0.6679
tp3614
a(S'applesauce'
p3615
g9
F0.7086
tp3616
asI456
(lp3617
(S'here'
p3618
g37
F0.7796
tp3619
asI457
(lp3620
(S'good'
p3621
g97
F0.9644
tp3622
asI458
(lp3623
(S'there'
p3624
g709
F0.4664
tp3625
a(g69
g70
F0.6539
tp3626
a(g131
g86
F0.9893
tp3627
a(S'lot'
p3628
g9
F0.7614
tp3629
a(S'more'
p3630
g37
F0.831
tp3631
a(S'left'
p3632
g29
F0.6062
tp3633
asI459
(lp3634
(S'frank'
p3635
g67
F0.9503
tp3636
asI460
(lp3637
(S'what'
p3638
g26
F0.949
tp3639
asI461
(lp3640
(S'and'
p3641
g345
F0.9986
tp3642
a(S'pat'
p3643
g67
F0.9192
tp3644
a(S'and'
p3645
g345
F0.9984
tp3646
a(S'brian'
p3647
g67
F0.9834
tp3648
asI462
(lp3649
(S'yeah'
p3650
g3
F0.9988
tp3651
asI463
(lp3652
(S'xxx'
p3653
g13
F0.8437
tp3654
asI464
(lp3655
(S'you'
p3656
g26
F0.9754
tp3657
a(S're'
p3658
g29
F0.5918
tp3659
a(S'gonna'
p3660
g29
F0.9883
tp3661
a(S'get'
p3662
g29
F0.9995
tp3663
a(S'dirty'
p3664
g97
F0.9396
tp3665
a(S'with'
p3666
g50
F0.9999
tp3667
a(S'the'
p3668
g86
F0.9968
tp3669
a(S'fudgesicle'
p3670
g9
F0.6384
tp3671
a(S'anyway'
p3672
g37
F0.9823
tp3673
asI465
(lp3674
(S'xxx'
p3675
g13
F0.7048
tp3676
a(S'feel'
p3677
g29
F0.9973
tp3678
a(S'it'
p3679
g26
F0.9959
tp3680
asI466
(lp3681
(S'xxx'
p3682
g13
F0.8437
tp3683
asI467
(lp3684
(S'xxx'
p3685
g13
F0.8437
tp3686
asI468
(lp3687
(S'leave'
p3688
g29
F0.9956
tp3689
a(S'it'
p3690
g26
F0.9946
tp3691
a(S'alone'
p3692
g97
F0.4973
tp3693
a(S'emily'
p3694
g67
F0.9307
tp3695
asI469
(lp3696
(S'xxx'
p3697
g13
F0.6398
tp3698
a(S'this'
p3699
g86
F0.9309
tp3700
a(S'one'
p3701
g768
F0.6915
tp3702
asI470
(lp3703
(S'are'
p3704
g29
F0.9964
tp3705
a(S'you'
p3706
g26
F0.9961
tp3707
a(S'all'
p3708
g86
F0.9278
tp3709
a(S'done'
p3710
g29
F0.6637
tp3711
a(S'eating'
p3712
g29
F0.9907
tp3713
asI471
(lp3714
(S'xxx'
p3715
g13
F0.7848
tp3716
a(S'yeah'
p3717
g3
F0.9952
tp3718
asI472
(lp3719
(S'mom'
p3720
g9
F0.8909
tp3721
a(g104
g26
F0.9493
tp3722
a(S'have'
p3723
g29
F0.9998
tp3724
a(S'to'
p3725
g50
F0.9979
tp3726
a(S'get'
p3727
g29
F0.9999
tp3728
a(S'off'
p3729
g581
F0.8867
tp3730
asI473
(lp3731
(S'it'
p3732
g26
F0.9888
tp3733
a(g69
g29
F0.7475
tp3734
a(S'on'
p3735
g50
F0.9637
tp3736
a(S'the'
p3737
g86
F0.9993
tp3738
a(S'counter'
p3739
g9
F0.9964
tp3740
asI474
(lp3741
(S'huh'
p3742
g3
F0.993
tp3743
asI475
(lp3744
(S'alright'
p3745
g3
F0.9864
tp3746
asI476
(lp3747
(S'get'
p3748
g29
F0.9988
tp3749
a(S'up'
p3750
g581
F0.9739
tp3751
asI477
(lp3752
(S'get'
p3753
g29
F0.9988
tp3754
a(S'up'
p3755
g581
F0.9739
tp3756
asI478
(lp3757
(S'go'
p3758
g29
F0.966
tp3759
a(S'find'
p3760
g29
F0.9759
tp3761
a(S'clothes'
p3762
g9
F0.9923
tp3763
a(S'to'
p3764
g50
F0.9995
tp3765
a(S'wear'
p3766
g29
F0.9952
tp3767
as.