(dp0
I0
(lp1
(S'come'
p2
S'V'
p3
F0.9897
tp4
a(S'on'
p5
S'P'
p6
F0.9273
tp7
a(S'make'
p8
g3
F0.7968
tp9
a(S'some'
p10
S'D'
p11
F0.994
tp12
a(S'phone'
p13
S'N'
p14
F0.9964
tp15
a(S'calls'
p16
g3
F0.8528
tp17
asI1
(lp18
(S'zzz'
p19
S'!'
p20
F0.361
tp21
asI2
(lp22
(S'bro'
p23
g14
F0.8895
tp24
a(S'there'
p25
S'R'
p26
F0.5837
tp27
a(S'goes'
p28
g3
F0.997
tp29
a(S'a'
p30
g11
F0.998
tp31
a(S'fire'
p32
g14
F0.8071
tp33
a(S'hat'
p34
g14
F0.9853
tp35
asI3
(lp36
(S'zzz'
p37
g20
F0.361
tp38
asI4
(lp39
(S'you'
p40
S'O'
p41
F0.995
tp42
a(S'always'
p43
g26
F0.994
tp44
a(S'like'
p45
g3
F0.5588
tp46
a(S'hats'
p47
g14
F0.9929
tp48
a(S'well'
p49
g26
F0.938
tp50
a(S'here'
p51
g26
F0.9874
tp52
asI5
(lp53
(S'here'
p54
g26
F0.9531
tp55
a(S'goes'
p56
g3
F0.6732
tp57
a(S'one'
p58
S'$'
p59
F0.7293
tp60
asI6
(lp61
(S'xxx'
p62
S'E'
p63
F0.8437
tp64
asI7
(lp65
(S'zzz'
p66
g20
F0.361
tp67
asI8
(lp68
(S'xxx'
p69
g63
F0.8325
tp70
a(S'xxx'
p71
g63
F0.9813
tp72
asI9
(lp73
(S'oh'
p74
g20
F0.9988
tp75
asI10
(lp76
(S'doesn'
p77
g3
F0.8416
tp78
a(S't'
p79
g6
F0.3658
tp80
a(S'he'
p81
g41
F0.9967
tp82
a(S'look'
p83
g3
F0.9973
tp84
a(S'like'
p85
g6
F0.9674
tp86
a(g30
g11
F0.9933
tp87
a(S'fireman'
p88
g14
F0.9786
tp89
a(S'huh'
p90
g20
F0.9345
tp91
asI11
(lp92
(S'chi'
p93
g20
F0.394
tp94
a(S'that'
p95
g41
F0.5676
tp96
a(S's'
p97
g3
F0.6461
tp98
a(S'an'
p99
g11
F0.9936
tp100
a(S'old'
p101
S'A'
p102
F0.9951
tp103
a(S'lady'
p104
g14
F0.9549
tp105
a(g97
S'G'
p106
F0.7025
tp107
a(S'hat'
p108
g14
F0.8721
tp109
asI12
(lp110
(S'where'
p111
g26
F0.9648
tp112
a(S'they'
p113
g41
F0.9911
tp114
a(S'get'
p115
g3
F0.9999
tp116
a(S'that'
p117
g41
F0.8726
tp118
a(S'from'
p119
g6
F0.9784
tp120
asI13
(lp121
(S'zzz'
p122
g106
F0.5123
tp123
a(S'zzz'
p124
g106
F0.7797
tp125
asI14
(lp126
(S'you'
p127
g41
F0.9923
tp128
a(S'like'
p129
g3
F0.8444
tp130
a(S'that'
p131
g41
F0.9325
tp132
a(S'xxx'
p133
g63
F0.7156
tp134
asI15
(lp135
(S'she'
p136
g41
F0.9972
tp137
a(S'likes'
p138
g3
F0.9998
tp139
a(S'that'
p140
g6
F0.6642
tp141
a(S'the'
p142
g11
F0.9992
tp143
a(S'hat'
p144
g14
F0.9598
tp145
asI16
(lp146
(S'zzz'
p147
g20
F0.361
tp148
asI17
(lp149
(S'she'
p150
g41
F0.9972
tp151
a(S'thinks'
p152
g3
F0.9997
tp153
a(S'this'
p154
g41
F0.9816
tp155
a(S'is'
p156
g3
F0.9944
tp157
a(S'funny'
p158
g102
F0.9992
tp159
asI18
(lp160
(S'zzz'
p161
g20
F0.361
tp162
asI19
(lp163
(S'come'
p164
g3
F0.9897
tp165
a(S'on'
p166
g6
F0.922
tp167
a(S'let'
p168
g14
F0.4783
tp169
a(g97
g106
F0.5402
tp170
a(S'build'
p171
g3
F0.9955
tp172
a(S'some'
p173
g11
F0.9898
tp174
a(S'blocks'
p175
g14
F0.9059
tp176
a(S'chi'
p177
g106
F0.499
tp178
asI20
(lp179
(S'what'
p180
g41
F0.9777
tp181
a(S'about'
p182
g6
F0.9676
tp183
a(S'having'
p184
g3
F0.9987
tp185
a(S'some'
p186
g11
F0.9931
tp187
a(S'tea'
p188
g14
F0.9684
tp189
asI21
(lp190
(S'eeee'
p191
g20
F0.9477
tp192
a(S'b'
p193
g3
F0.4413
tp194
a(S'eehee'
p195
S'^'
p196
F0.3237
tp197
a(g193
g3
F0.3102
tp198
asI22
(lp199
(S'come'
p200
g3
F0.9897
tp201
a(S'on'
p202
g6
F0.922
tp203
a(S'let'
p204
g14
F0.4783
tp205
a(g97
g106
F0.5328
tp206
a(S'get'
p207
g3
F0.9971
tp208
a(S'organized'
p209
g3
F0.9364
tp210
a(S'here'
p211
g26
F0.9756
tp212
asI23
(lp213
(S'come'
p214
g3
F0.9849
tp215
a(S'on'
p216
S'T'
p217
F0.5632
tp218
asI24
(lp219
(S'eee'
p220
g196
F0.8636
tp221
a(g193
g14
F0.361
tp222
a(S'eee'
p223
g14
F0.6498
tp224
a(g193
g14
F0.7555
tp225
a(S'eee'
p226
g14
F0.5926
tp227
a(g193
g14
F0.8179
tp228
asI25
(lp229
(S'zzz'
p230
g106
F0.5123
tp231
a(S'zzz'
p232
g106
F0.7797
tp233
asI26
(lp234
(S'zzz'
p235
g20
F0.361
tp236
asI27
(lp237
(S'here'
p238
g26
F0.922
tp239
a(S'chi'
p240
g196
F0.4447
tp241
a(S'look'
p242
g3
F0.8993
tp243
a(S'xxx'
p244
g63
F0.7425
tp245
a(S'xxx'
p246
g63
F0.9867
tp247
asI28
(lp248
(S'xxx'
p249
g63
F0.7425
tp250
a(S'cooking'
p251
g3
F0.9191
tp252
asI29
(lp253
(S'she'
p254
g41
F0.9917
tp255
a(g97
g106
F0.5414
tp256
a(S'always'
p257
g26
F0.9883
tp258
a(S'servin'
p259
g3
F0.855
tp260
a(S'g'
p261
g3
F0.7999
tp262
a(S'me'
p263
g41
F0.9891
tp264
a(S'tea'
p265
g14
F0.7791
tp266
asI30
(lp267
(S'you'
p268
g41
F0.9979
tp269
a(S'going'
p270
g3
F0.9995
tp271
a(S'to'
p272
g6
F0.8251
tp273
a(S'do'
p274
g3
F0.9999
tp275
a(S'some'
p276
g11
F0.9211
tp277
a(S'cooking'
p278
g14
F0.4978
tp279
a(S'chi'
p280
g106
F0.376
tp281
asI31
(lp282
(S'2'
p283
g6
F0.6005
tp284
a(S'don'
p285
g3
F0.4404
tp286
a(g79
g14
F0.4058
tp287
a(S'break'
p288
g3
F0.9894
tp289
a(S'it'
p290
g41
F0.9871
tp291
asI32
(lp292
(S'you'
p293
g41
F0.9968
tp294
a(S'gonna'
p295
g3
F0.9994
tp296
a(S'build'
p297
g3
F0.9995
tp298
a(S'something'
p299
g14
F0.9937
tp300
asI33
(lp301
(g283
g6
F0.6789
tp302
a(S'no'
p303
g20
F0.835
tp304
asI34
(lp305
(S'you'
p306
g41
F0.9835
tp307
a(S'zzz'
p308
g3
F0.5094
tp309
asI35
(lp310
(S'okay'
p311
g20
F0.9785
tp312
a(S'chi'
p313
g20
F0.4355
tp314
asI36
(lp315
(g283
g59
F0.6969
tp316
a(S'ew'
p317
g20
F0.85
tp318
a(S'you'
p319
g41
F0.9973
tp320
a(S'look'
p321
g3
F0.9891
tp322
a(S'ugly'
p323
g102
F0.9942
tp324
asI37
(lp325
(S'ew'
p326
g20
F0.8771
tp327
a(S'you'
p328
g41
F0.9956
tp329
a(S'look'
p330
g3
F0.995
tp331
a(S'ugly'
p332
g102
F0.9964
tp333
asI38
(lp334
(g283
g59
F0.6877
tp335
a(S'i'
p336
g41
F0.9542
tp337
a(S'don'
p338
g3
F0.9162
tp339
a(g79
g106
F0.5134
tp340
asI39
(lp341
(S'see'
p342
g3
F0.8873
tp343
a(S'bro'
p344
g14
F0.9914
tp345
a(S'is'
p346
g3
F0.9977
tp347
a(S'enjoying'
p348
g3
F0.9986
tp349
a(S'the'
p350
g11
F0.9998
tp351
a(S'toys'
p352
g14
F0.9937
tp353
a(S'more'
p354
g102
F0.5377
tp355
a(S'than'
p356
g6
F0.9987
tp357
a(S'you'
p358
g41
F0.9998
tp359
a(S'are'
p360
g3
F0.999
tp361
asI40
(lp362
(S'that'
p363
g6
F0.4651
tp364
a(S'don'
p365
g196
F0.3715
tp366
a(g79
g196
F0.6022
tp367
a(S'go'
p368
g3
F0.9615
tp369
a(S'in'
p370
g6
F0.9072
tp371
a(S'there'
p372
g26
F0.5783
tp373
asI41
(lp374
(S'1'
p375
g59
F0.9807
tp376
a(S'you'
p377
g41
F0.9929
tp378
a(S'like'
p379
g3
F0.7645
tp380
a(S'the'
p381
g11
F0.9991
tp382
a(S'phone'
p383
g14
F0.9983
tp384
asI42
(lp385
(S'yeah'
p386
g20
F0.9958
tp387
a(S'he'
p388
g41
F0.9982
tp389
a(S'likes'
p390
g3
F0.9999
tp391
a(S'the'
p392
g11
F0.9993
tp393
a(S'phone'
p394
g14
F0.9983
tp395
asI43
(lp396
(S'see'
p397
g3
F0.8121
tp398
a(S'xxx'
p399
g63
F0.3866
tp400
a(S'they'
p401
g41
F0.9881
tp402
a(S'were'
p403
g3
F0.9978
tp404
a(S'going'
p405
g3
F0.9916
tp406
a(S'like'
p407
g6
F0.5024
tp408
a(S'that'
p409
g41
F0.794
tp410
a(S'huh'
p411
g20
F0.8572
tp412
asI44
(lp413
(S'give'
p414
g3
F0.9429
tp415
a(S'chi'
p416
g106
F0.2786
tp417
a(g30
g11
F0.923
tp418
a(S'call'
p419
g14
F0.989
tp420
asI45
(lp421
(S'tell'
p422
g3
F0.8176
tp423
a(S'chi'
p424
g196
F0.452
tp425
a(S'to'
p426
g6
F0.9912
tp427
a(S'pick'
p428
g3
F0.9997
tp429
a(S'up'
p430
g217
F0.9671
tp431
a(S'her'
p432
g11
F0.9687
tp433
a(S'phone'
p434
g14
F0.9996
tp435
asI46
(lp436
(S'you'
p437
g41
F0.9923
tp438
a(S'like'
p439
g3
F0.7193
tp440
a(S'this'
p441
g11
F0.802
tp442
a(S'hat'
p443
g14
F0.9842
tp444
asI47
(lp445
(g336
g41
F0.9635
tp446
a(S'don'
p447
g3
F0.9231
tp448
a(g79
g3
F0.3155
tp449
a(S'think'
p450
g3
F0.9971
tp451
a(S'they'
p452
g41
F0.9947
tp453
a(S'll'
p454
g3
F0.5091
tp455
a(S'get'
p456
g3
F0.9987
tp457
a(S'back'
p458
g217
F0.3286
tp459
a(S'this'
p460
g11
F0.9858
tp461
a(S'hat'
p462
g14
F0.9787
tp463
a(S'from'
p464
g6
F0.9999
tp465
a(S'you'
p466
g41
F0.9984
tp467
asI48
(lp468
(S'chi'
p469
g196
F0.7269
tp470
a(S'do'
p471
g3
F0.999
tp472
a(S'you'
p473
g41
F0.999
tp474
a(S'like'
p475
g3
F0.921
tp476
a(S'to'
p477
g6
F0.983
tp478
a(S'build'
p479
g3
F0.9982
tp480
a(S'blocks'
p481
g14
F0.8953
tp482
asI49
(lp483
(S'yeah'
p484
g20
F0.9988
tp485
asI50
(lp486
(g283
g6
F0.6819
tp487
a(S'come'
p488
g3
F0.9961
tp489
a(S'on'
p490
g6
F0.8505
tp491
a(S'cook'
p492
g14
F0.8836
tp493
asI51
(lp494
(S'no'
p495
g20
F0.6532
tp496
a(g336
g41
F0.9623
tp497
a(S'wanna'
p498
g3
F0.9989
tp499
a(S'build'
p500
g3
F0.9951
tp501
asI52
(lp502
(g336
g41
F0.9876
tp503
a(S'wanna'
p504
g3
F0.9987
tp505
a(S'build'
p506
g3
F0.997
tp507
asI53
(lp508
(g283
g6
F0.4653
tp509
a(S'want'
p510
g3
F0.9991
tp511
a(S'some'
p512
g11
F0.8559
tp513
asI54
(lp514
(S'zzz'
p515
g20
F0.361
tp516
asI55
(lp517
(S'don'
p518
g196
F0.5427
tp519
a(g79
g3
F0.4091
tp520
a(S'you'
p521
g41
F0.9996
tp522
a(S'want'
p523
g3
F0.9992
tp524
a(S'build'
p525
g3
F0.9937
tp526
a(S'something'
p527
g14
F0.9907
tp528
asI56
(lp529
(S'come'
p530
g3
F0.9849
tp531
a(S'on'
p532
g217
F0.5632
tp533
asI57
(lp534
(S'don'
p535
g196
F0.4468
tp536
a(g79
g106
F0.4162
tp537
asI58
(lp538
(S'stop'
p539
g3
F0.8032
tp540
a(S'bro'
p541
g14
F0.9516
tp542
asI59
(lp543
(g283
g59
F0.6644
tp544
a(S'what'
p545
g41
F0.995
tp546
a(S'did'
p547
g3
F0.9538
tp548
a(g336
g41
F0.9957
tp549
a(S'do'
p550
g3
F0.9998
tp551
asI60
(lp552
(S'you'
p553
g41
F0.9954
tp554
a(S'taking'
p555
g3
F1.0
tp556
a(S'my'
p557
g11
F0.9986
tp558
a(S'stuff'
p559
g14
F0.9987
tp560
asI61
(lp561
(g283
g6
F0.7491
tp562
a(S'it'
p563
g41
F0.9841
tp564
a(S'isn'
p565
g106
F0.3504
tp566
a(g79
g106
F0.7164
tp567
a(S'yours'
p568
g41
F0.9074
tp569
asI62
(lp570
(S'xxx'
p571
g63
F0.8437
tp572
asI63
(lp573
(S'xxx'
p574
g63
F0.8325
tp575
a(S'xxx'
p576
g63
F0.9813
tp577
asI64
(lp578
(g283
g59
F0.6765
tp579
a(S'xxx'
p580
g63
F0.6773
tp581
asI65
(lp582
(S'mhm'
p583
g20
F0.9747
tp584
asI66
(lp585
(g283
g6
F0.6005
tp586
a(S'don'
p587
g3
F0.4404
tp588
a(g79
g14
F0.4058
tp589
a(S'break'
p590
g3
F0.9894
tp591
a(S'it'
p592
g41
F0.9871
tp593
asI67
(lp594
(S'xxx'
p595
g63
F0.8437
tp596
asI68
(lp597
(S'zzz'
p598
g20
F0.361
tp599
asI69
(lp600
(g283
g59
F0.6759
tp601
a(S'xxx'
p602
g63
F0.3574
tp603
a(S'break'
p604
g3
F0.9924
tp605
a(S'it'
p606
g41
F0.9874
tp607
asI70
(lp608
(g283
g6
F0.4736
tp609
a(S'told'
p610
g3
F0.9997
tp611
a(S'you'
p612
g41
F0.9989
tp613
a(S'not'
p614
g26
F0.9975
tp615
a(S'to'
p616
g6
F0.9884
tp617
a(S'break'
p618
g3
F0.9996
tp619
a(S'it'
p620
g41
F0.9884
tp621
asI71
(lp622
(S'already'
p623
g26
F0.9873
tp624
a(S'did'
p625
g3
F0.9933
tp626
asI72
(lp627
(S'wh'
p628
g106
F0.5559
tp629
a(S'oo'
p630
g20
F0.968
tp631
a(S'ps'
p632
g20
F0.757
tp633
a(S'wh'
p634
g106
F0.4502
tp635
a(S'oo'
p636
g20
F0.9654
tp637
a(S'ps'
p638
g20
F0.8681
tp639
asI73
(lp640
(S'this'
p641
g11
F0.505
tp642
a(S'go'
p643
g3
F0.7083
tp644
a(S'in'
p645
g6
F0.8902
tp646
a(S'there'
p647
g26
F0.5423
tp648
asI74
(lp649
(S'xxx'
p650
g63
F0.6962
tp651
a(S'wh'
p652
g106
F0.3772
tp653
a(S'oop'
p654
g14
F0.3689
tp655
a(g97
g106
F0.9032
tp656
asI75
(lp657
(S'zzz'
p658
g20
F0.361
tp659
asI76
(lp660
(S'okay'
p661
g20
F0.9857
tp662
asI77
(lp663
(g283
g59
F0.6877
tp664
a(g336
g41
F0.9795
tp665
a(S'want'
p666
g3
F0.9998
tp667
a(S'one'
p668
g59
F0.9706
tp669
a(S'of'
p670
g6
F0.9986
tp671
a(S'them'
p672
g11
F0.7033
tp673
a(S'blocks'
p674
g14
F0.904
tp675
a(S'chi'
p676
g14
F0.4441
tp677
a(S'is'
p678
g3
F0.9987
tp679
a(S'playing'
p680
g3
F0.9973
tp681
a(S'with'
p682
g6
F0.9882
tp683
asI78
(lp684
(S'0'
p685
g59
F0.9638
tp686
asI79
(lp687
(g283
g6
F0.4838
tp688
a(S'thank'
p689
g3
F0.9898
tp690
a(S'you'
p691
g41
F0.999
tp692
asI80
(lp693
(S'zzz'
p694
g106
F0.5123
tp695
a(S'zzz'
p696
g106
F0.7797
tp697
asI81
(lp698
(S'here'
p699
g26
F0.9327
tp700
a(S'bro'
p701
g14
F0.783
tp702
asI82
(lp703
(S'where'
p704
g26
F0.9164
tp705
a(S'did'
p706
g3
F0.9903
tp707
a(S'he'
p708
g41
F0.997
tp709
a(S'go'
p710
g3
F0.9952
tp711
asI83
(lp712
(S'kitchen'
p713
g14
F0.7885
tp714
asI84
(lp715
(S'go'
p716
g3
F0.9278
tp717
a(S'get'
p718
g3
F0.9645
tp719
a(S'bro'
p720
g14
F0.9788
tp721
asI85
(lp722
(S'what'
p723
g41
F0.9965
tp724
a(S'did'
p725
g3
F0.9994
tp726
a(S'you'
p727
g41
F0.9988
tp728
a(S'take'
p729
g3
F0.9959
tp730
a(S'come'
p731
g3
F0.9809
tp732
a(S'here'
p733
g26
F0.9852
tp734
asI86
(lp735
(g375
g59
F0.9922
tp736
a(S'zzz'
p737
g106
F0.51
tp738
asI87
(lp739
(S'come'
p740
g3
F0.9843
tp741
a(S'here'
p742
g26
F0.9694
tp743
asI88
(lp744
(S'don'
p745
g196
F0.5427
tp746
a(g79
g196
F0.4679
tp747
a(S'swipe'
p748
g3
F0.5896
tp749
a(S'the'
p750
g11
F0.9996
tp751
a(S'toys'
p752
g14
F0.9953
tp753
asI89
(lp754
(S'come'
p755
g3
F0.9843
tp756
a(S'here'
p757
g26
F0.9694
tp758
as.