(dp0
I16
(lp1
(S'come'
p2
S'V'
p3
F0.9897
tp4
a(S'on'
p5
S'P'
p6
F0.9273
tp7
a(S'make'
p8
g3
F0.7968
tp9
a(S'some'
p10
S'D'
p11
F0.9947
tp12
a(S'phone'
p13
S'N'
p14
F0.9964
tp15
a(S'calls'
p16
g3
F0.689
tp17
a(S'.'
p18
S','
p19
F0.9991
tp20
asI20
(lp21
(S'zzz'
p22
S'!'
p23
F0.3756
tp24
a(g18
g19
F0.9972
tp25
asI25
(lp26
(S'<'
p27
S'~'
p28
F0.9318
tp29
a(S'Bro'
p30
g14
F0.7903
tp31
a(S'there'
p32
S'R'
p33
F0.7225
tp34
a(S'goes'
p35
g3
F0.996
tp36
a(S'a'
p37
g11
F0.9982
tp38
a(S'fire'
p39
g14
F0.8331
tp40
a(S'hat'
p41
g14
F0.989
tp42
a(S'>'
p43
S'E'
p44
F0.6734
tp45
a(S'['
p46
g44
F0.5345
tp47
a(g43
g44
F0.949
tp48
a(S']'
p49
g19
F0.7992
tp50
a(g18
g19
F0.9936
tp51
asI28
(lp52
(S'zzz'
p53
S'G'
p54
F0.409
tp55
a(g46
g19
F0.9727
tp56
a(S'<][>'
p57
g44
F0.2489
tp58
a(g49
g19
F0.862
tp59
a(g18
g19
F0.9962
tp60
asI32
(lp61
(g27
g28
F0.9001
tp62
a(S'you'
p63
S'O'
p64
F0.9955
tp65
a(S'always'
p66
g33
F0.9963
tp67
a(S'like'
p68
g3
F0.4481
tp69
a(S'hats'
p70
g14
F0.9896
tp71
a(S'well'
p72
g33
F0.9417
tp73
a(S'here'
p74
g33
F0.9849
tp75
a(g43
g44
F0.5738
tp76
a(g46
g44
F0.535
tp77
a(g27
g28
F0.768
tp78
a(g49
g19
F0.985
tp79
a(g18
g19
F0.9936
tp80
asI35
(lp81
(S'here'
p82
g33
F0.9611
tp83
a(S'goes'
p84
g3
F0.6732
tp85
a(S'one'
p86
S'$'
p87
F0.8677
tp88
a(g18
g19
F0.9976
tp89
asI39
(lp90
(S'xxx'
p91
g44
F0.5822
tp92
a(g18
g19
F0.9648
tp93
asI40
(lp94
(g27
g28
F0.9508
tp95
a(S'zzz'
p96
g54
F0.5206
tp97
a(g43
g28
F0.4967
tp98
a(g46
g19
F0.9512
tp99
a(g43
g44
F0.5563
tp100
a(g49
g19
F0.6899
tp101
a(g18
g19
F0.9959
tp102
asI44
(lp103
(g27
g28
F0.97
tp104
a(S'xxx'
p105
g44
F0.7306
tp106
a(S'xxx'
p107
g44
F0.9784
tp108
a(g43
g44
F0.955
tp109
a(g46
g44
F0.535
tp110
a(g27
g28
F0.6902
tp111
a(g49
g19
F0.9839
tp112
a(g18
g19
F0.9962
tp113
asI45
(lp114
(S'oh'
p115
g23
F0.9994
tp116
a(g23
g19
F0.9921
tp117
asI48
(lp118
(S"doesn't"
p119
g3
F0.9934
tp120
a(S'he'
p121
g64
F0.9959
tp122
a(g46
g19
F0.974
tp123
a(S'?'
p124
g19
F0.9878
tp125
a(g49
g19
F0.937
tp126
a(S'look'
p127
g3
F0.9898
tp128
a(S'like'
p129
g6
F0.9674
tp130
a(g37
g11
F0.9948
tp131
a(S'fireman'
p132
g14
F0.9877
tp133
a(S'huh'
p134
g23
F0.93
tp135
a(g124
g19
F0.998
tp136
asI54
(lp137
(S'Chi'
p138
S'^'
p139
F0.848
tp140
a(S"that's"
p141
S'L'
p142
F0.9798
tp143
a(S'an'
p144
g11
F0.9933
tp145
a(S'old'
p146
S'A'
p147
F0.9961
tp148
a(S"lady's"
p149
S'S'
p150
F0.8719
tp151
a(S'hat'
p152
g14
F0.9795
tp153
a(g18
g19
F0.9982
tp154
asI59
(lp155
(S'where'
p156
g33
F0.9648
tp157
a(S'they'
p158
g64
F0.9911
tp159
a(S'get'
p160
g3
F0.9999
tp161
a(S'that'
p162
g64
F0.8726
tp163
a(S'from'
p164
g6
F0.9716
tp165
a(g124
g19
F0.9921
tp166
asI63
(lp167
(g27
g28
F0.9508
tp168
a(S'zzz'
p169
g54
F0.5102
tp170
a(S'zzz'
p171
g54
F0.8206
tp172
a(g43
g54
F0.3427
tp173
a(g46
g19
F0.899
tp174
a(g43
g44
F0.6043
tp175
a(g49
g19
F0.7541
tp176
a(g18
g19
F0.9962
tp177
asI67
(lp178
(g27
g28
F0.9001
tp179
a(S'you'
p180
g64
F0.9928
tp181
a(S'like'
p182
g3
F0.8805
tp183
a(S'that'
p184
g64
F0.8727
tp185
a(S'xxx'
p186
g44
F0.637
tp187
a(g43
g44
F0.9474
tp188
a(g46
g44
F0.535
tp189
a(g27
g28
F0.7916
tp190
a(g49
g19
F0.9861
tp191
a(g18
g19
F0.9959
tp192
asI70
(lp193
(g27
g28
F0.9227
tp194
a(S'she'
p195
g64
F0.998
tp196
a(S'likes'
p197
g3
F0.9998
tp198
a(S'that'
p199
g64
F0.7507
tp200
a(S'[='
p201
g44
F0.833
tp202
a(S'the'
p203
g11
F0.9982
tp204
a(S'hat]'
p205
g14
F0.9918
tp206
a(g43
g44
F0.6734
tp207
a(g46
g44
F0.5345
tp208
a(g43
g44
F0.949
tp209
a(g49
g19
F0.7992
tp210
a(g18
g19
F0.9936
tp211
asI73
(lp212
(g27
g28
F0.9508
tp213
a(S'zzz'
p214
g54
F0.5206
tp215
a(g43
g28
F0.4967
tp216
a(g46
g19
F0.9521
tp217
a(g27
g28
F0.948
tp218
a(g49
g19
F0.9803
tp219
a(g18
g19
F0.9959
tp220
asI78
(lp221
(S'she'
p222
g64
F0.9972
tp223
a(S'thinks'
p224
g3
F0.9997
tp225
a(S'this'
p226
g64
F0.9758
tp227
a(S'is'
p228
g3
F0.9944
tp229
a(S'funny'
p230
g147
F0.9992
tp231
a(g18
g19
F0.9981
tp232
asI81
(lp233
(g27
g28
F0.9508
tp234
a(S'zzz'
p235
g54
F0.5206
tp236
a(g43
g28
F0.4967
tp237
a(g46
g19
F0.9799
tp238
a(S'<][>'
p239
g44
F0.3848
tp240
a(g49
g19
F0.8164
tp241
a(g18
g19
F0.9959
tp242
asI85
(lp243
(g27
g28
F0.9365
tp244
a(S'come'
p245
g3
F0.9941
tp246
a(S'on'
p247
g6
F0.7149
tp248
a(S"let's"
p249
g142
F0.9615
tp250
a(S'build'
p251
g3
F0.9996
tp252
a(S'some'
p253
g11
F0.9921
tp254
a(S'blocks'
p255
g14
F0.8805
tp256
a(S'Chi'
p257
g139
F0.6024
tp258
a(g43
g139
F0.2884
tp259
a(g46
g19
F0.9654
tp260
a(g27
g28
F0.9506
tp261
a(g49
g19
F0.9737
tp262
a(g18
g19
F0.9952
tp263
asI90
(lp264
(S'what'
p265
g64
F0.9777
tp266
a(S'about'
p267
g6
F0.9676
tp268
a(S'having'
p269
g3
F0.9988
tp270
a(S'some'
p271
g11
F0.9931
tp272
a(S'tea'
p273
g14
F0.9704
tp274
a(g124
g19
F0.9962
tp275
asI94
(lp276
(S'eeee'
p277
g23
F0.9349
tp278
a(S'@b'
p279
S'@'
p280
F0.9977
tp281
a(S'eehee'
p282
g54
F0.5235
tp283
a(S'@b'
p284
g280
F0.9927
tp285
a(g18
g19
F0.9959
tp286
asI97
(lp287
(S'come'
p288
g3
F0.9897
tp289
a(S'on'
p290
g6
F0.8278
tp291
a(S"let's"
p292
g142
F0.9684
tp293
a(S'get'
p294
g3
F0.9997
tp295
a(S'organized'
p296
g3
F0.9635
tp297
a(S'here'
p298
g33
F0.9847
tp299
a(g18
g19
F0.9985
tp300
asI101
(lp301
(g27
g28
F0.9365
tp302
a(S'come'
p303
g3
F0.9941
tp304
a(S'on'
p305
g6
F0.6856
tp306
a(g43
g44
F0.302
tp307
a(g46
g44
F0.5345
tp308
a(g43
g44
F0.9749
tp309
a(g49
g19
F0.7541
tp310
a(g18
g19
F0.9962
tp311
asI104
(lp312
(g27
g28
F0.9473
tp313
a(S'eee'
p314
g139
F0.5472
tp315
a(S'@b'
p316
g280
F0.9917
tp317
a(g43
g44
F0.4216
tp318
a(g46
g44
F0.535
tp319
a(g27
g28
F0.8293
tp320
a(g49
g19
F0.973
tp321
a(S'eee'
p322
g139
F0.4582
tp323
a(S'@b'
p324
g280
F0.9897
tp325
a(S'eee'
p326
g139
F0.6042
tp327
a(S'@b'
p328
g280
F0.9742
tp329
a(g18
g19
F0.9928
tp330
asI107
(lp331
(S'zzz'
p332
g54
F0.5123
tp333
a(S'zzz'
p334
g54
F0.6926
tp335
a(g18
g19
F0.9933
tp336
asI111
(lp337
(g27
g28
F0.9508
tp338
a(S'zzz'
p339
g54
F0.5206
tp340
a(g43
g28
F0.4967
tp341
a(g46
g19
F0.9512
tp342
a(g43
g44
F0.5563
tp343
a(g49
g19
F0.6899
tp344
a(g18
g19
F0.9959
tp345
asI115
(lp346
(g27
g28
F0.9125
tp347
a(S'here'
p348
g33
F0.9027
tp349
a(S'Chi'
p350
g139
F0.9492
tp351
a(S'look'
p352
g3
F0.9036
tp353
a(S'xxx'
p354
g44
F0.6846
tp355
a(S'xxx'
p356
g44
F0.9826
tp357
a(g43
g44
F0.9474
tp358
a(g46
g44
F0.535
tp359
a(g27
g28
F0.7815
tp360
a(g49
g19
F0.9822
tp361
a(g18
g19
F0.9964
tp362
asI118
(lp363
(S'xxx'
p364
g44
F0.7425
tp365
a(S'cooking'
p366
g3
F0.8383
tp367
a(g18
g19
F0.9963
tp368
asI121
(lp369
(S"she's"
p370
g142
F0.9883
tp371
a(S'always'
p372
g33
F0.9976
tp373
a(S'servin(g'
p374
g3
F0.9623
tp375
a(S')'
p376
g19
F0.9982
tp377
a(S'me'
p378
g64
F0.994
tp379
a(g46
g19
F0.9888
tp380
a(g23
g19
F0.9901
tp381
a(g49
g19
F0.9719
tp382
a(S'tea'
p383
g14
F0.8904
tp384
a(S'(.)'
p385
g54
F0.3784
tp386
a(g18
g19
F0.992
tp387
asI125
(lp388
(S'you'
p389
g64
F0.9979
tp390
a(S'going'
p391
g3
F0.9995
tp392
a(S'to'
p393
g6
F0.8251
tp394
a(S'do'
p395
g3
F0.9999
tp396
a(S'some'
p397
g11
F0.9261
tp398
a(S'cooking'
p399
g3
F0.4765
tp400
a(S'Chi'
p401
g139
F0.9306
tp402
a(S'(.)'
p403
g139
F0.8144
tp404
a(g124
g19
F0.9964
tp405
asI130
(lp406
(S"don't"
p407
g3
F0.9984
tp408
a(S'break'
p409
g3
F0.9999
tp410
a(S'it'
p411
g64
F0.9846
tp412
a(g18
g19
F0.999
tp413
asI134
(lp414
(S'you'
p415
g64
F0.9968
tp416
a(S'gonna'
p417
g3
F0.9996
tp418
a(S'build'
p419
g3
F0.9995
tp420
a(S'something'
p421
g14
F0.9977
tp422
a(g124
g19
F0.9984
tp423
asI137
(lp424
(S'no'
p425
g23
F0.9847
tp426
a(g23
g19
F0.999
tp427
asI140
(lp428
(S'you'
p429
g64
F0.9835
tp430
a(S'zzz'
p431
g3
F0.579
tp432
a(g18
g19
F0.9975
tp433
asI144
(lp434
(S'okay'
p435
g23
F0.9689
tp436
a(S'Chi'
p437
g139
F0.9567
tp438
a(g18
g19
F0.9882
tp439
asI147
(lp440
(S'ew'
p441
g23
F0.8771
tp442
a(S'you'
p443
g64
F0.9958
tp444
a(S'look'
p445
g3
F0.995
tp446
a(S'ugly'
p447
g147
F0.9965
tp448
a(g18
g19
F0.9987
tp449
asI152
(lp450
(S'ew'
p451
g23
F0.8771
tp452
a(S'you'
p453
g64
F0.9958
tp454
a(S'look'
p455
g3
F0.995
tp456
a(S'ugly'
p457
g147
F0.9956
tp458
a(g23
g19
F0.9989
tp459
asI155
(lp460
(S'I'
p461
g64
F0.9976
tp462
a(S"don't"
p463
g3
F1.0
tp464
a(g18
g19
F0.9969
tp465
asI158
(lp466
(S'see'
p467
g3
F0.888
tp468
a(S'Bro'
p469
g14
F0.9125
tp470
a(S'is'
p471
g3
F0.9977
tp472
a(S'enjoying'
p473
g3
F0.9986
tp474
a(S'the'
p475
g11
F0.9998
tp476
a(S'toys'
p477
g14
F0.9937
tp478
a(S'more'
p479
g147
F0.5377
tp480
a(S'than'
p481
g6
F0.9987
tp482
a(S'you'
p483
g64
F0.9998
tp484
a(S'are'
p485
g3
F0.9987
tp486
a(g18
g19
F0.9966
tp487
asI163
(lp488
(S'that'
p489
g64
F0.7305
tp490
a(S"don't"
p491
g3
F0.9999
tp492
a(S'go'
p493
g3
F0.9997
tp494
a(S'in'
p495
g6
F0.947
tp496
a(S'there'
p497
g33
F0.8181
tp498
a(g18
g19
F0.9976
tp499
asI167
(lp500
(S'you'
p501
g64
F0.9923
tp502
a(S'like'
p503
g3
F0.6543
tp504
a(S'the'
p505
g11
F0.9989
tp506
a(S'phone'
p507
g14
F0.9997
tp508
a(g18
g19
F0.9982
tp509
asI170
(lp510
(S'yeah'
p511
g23
F0.9958
tp512
a(S'he'
p513
g64
F0.9982
tp514
a(S'likes'
p515
g3
F0.9999
tp516
a(S'the'
p517
g11
F0.9993
tp518
a(S'phone'
p519
g14
F0.9995
tp520
a(g18
g19
F0.9975
tp521
asI174
(lp522
(S'see'
p523
g3
F0.8121
tp524
a(S'xxx'
p525
g44
F0.3866
tp526
a(S'they'
p527
g64
F0.9881
tp528
a(S'were'
p529
g3
F0.9957
tp530
a(g46
g19
F0.9858
tp531
a(g23
g19
F0.9901
tp532
a(g49
g19
F0.9844
tp533
a(S'going'
p534
g3
F0.999
tp535
a(S'like'
p536
g3
F0.5152
tp537
a(S'that'
p538
g64
F0.774
tp539
a(S'huh'
p540
g23
F0.8601
tp541
a(g124
g19
F0.9966
tp542
asI178
(lp543
(S'give'
p544
g3
F0.9397
tp545
a(S'Chi'
p546
g139
F0.862
tp547
a(g37
g11
F0.9566
tp548
a(S'call'
p549
g14
F0.9933
tp550
a(g18
g19
F0.9989
tp551
asI182
(lp552
(S'tell'
p553
g3
F0.8128
tp554
a(S'Chi'
p555
g139
F0.9257
tp556
a(S'to'
p557
g6
F0.9905
tp558
a(S'pick'
p559
g3
F0.9997
tp560
a(S'up'
p561
S'T'
p562
F0.9485
tp563
a(S'her'
p564
g11
F0.9687
tp565
a(S'phone'
p566
g14
F0.9998
tp567
a(g18
g19
F0.9983
tp568
asI185
(lp569
(S'you'
p570
g64
F0.9923
tp571
a(S'like'
p572
g3
F0.7287
tp573
a(S'this'
p574
g11
F0.802
tp575
a(S'hat'
p576
g14
F0.9909
tp577
a(g18
g19
F0.9984
tp578
asI188
(lp579
(g461
g64
F0.9976
tp580
a(S"don't"
p581
g3
F1.0
tp582
a(S'think'
p583
g3
F0.9999
tp584
a(S"they'll"
p585
g142
F0.9738
tp586
a(S'get'
p587
g3
F0.9998
tp588
a(S'back'
p589
g562
F0.3286
tp590
a(S'this'
p591
g11
F0.4878
tp592
a(g46
g19
F0.9843
tp593
a(g23
g19
F0.9901
tp594
a(g49
g19
F0.9743
tp595
a(S'hat'
p596
g14
F0.8739
tp597
a(S'from'
p598
g6
F0.9998
tp599
a(S'you'
p600
g64
F0.9989
tp601
a(g18
g19
F0.9997
tp602
asI195
(lp603
(S'Chi'
p604
g139
F0.9162
tp605
a(S'do'
p606
g3
F0.999
tp607
a(S'you'
p608
g64
F0.999
tp609
a(S'like'
p610
g3
F0.921
tp611
a(S'to'
p612
g6
F0.99
tp613
a(S'build'
p614
g3
F0.9982
tp615
a(S'blocks'
p616
g14
F0.927
tp617
a(g124
g19
F0.9981
tp618
asI199
(lp619
(S'yeah'
p620
g23
F0.9986
tp621
a(g18
g19
F0.997
tp622
asI202
(lp623
(S'come'
p624
g3
F0.9897
tp625
a(S'on'
p626
g6
F0.9163
tp627
a(S'cook'
p628
g14
F0.9366
tp629
a(g23
g19
F0.9989
tp630
asI205
(lp631
(S'no'
p632
g23
F0.8567
tp633
a(g461
g64
F0.9965
tp634
a(S'wanna'
p635
g3
F0.9992
tp636
a(S'build'
p637
g3
F0.9891
tp638
a(g18
g19
F0.9983
tp639
asI209
(lp640
(g461
g64
F0.9976
tp641
a(S'wanna'
p642
g3
F0.9991
tp643
a(S'build'
p644
g3
F0.993
tp645
a(g18
g19
F0.9983
tp646
asI212
(lp647
(S'want'
p648
g3
F0.9966
tp649
a(S'some'
p650
g11
F0.5857
tp651
a(g124
g19
F0.9947
tp652
asI217
(lp653
(S'zzz'
p654
g23
F0.3756
tp655
a(g18
g19
F0.9972
tp656
asI221
(lp657
(S"don't"
p658
g3
F0.9999
tp659
a(S'you'
p660
g64
F0.9991
tp661
a(S'want'
p662
g3
F0.9996
tp663
a(S'build'
p664
g3
F0.9806
tp665
a(S'something'
p666
g14
F0.9952
tp667
a(g124
g19
F0.9977
tp668
asI225
(lp669
(S'come'
p670
g3
F0.9849
tp671
a(S'on'
p672
g6
F0.4922
tp673
a(g18
g19
F0.9968
tp674
asI228
(lp675
(S"don't"
p676
g3
F0.9978
tp677
a(S'(.)'
p678
g3
F0.3041
tp679
a(g23
g19
F0.9973
tp680
asI231
(lp681
(S'stop'
p682
g3
F0.8094
tp683
a(S'Bro'
p684
g14
F0.9192
tp685
a(g23
g19
F0.999
tp686
asI234
(lp687
(S'what'
p688
g64
F0.9965
tp689
a(S'did'
p690
g3
F0.9939
tp691
a(g461
g64
F0.9995
tp692
a(S'do'
p693
g3
F0.9993
tp694
a(g124
g19
F0.9976
tp695
asI237
(lp696
(S'you'
p697
g64
F0.9954
tp698
a(S'taking'
p699
g3
F1.0
tp700
a(S'my'
p701
g11
F0.9986
tp702
a(S'stuff'
p703
g14
F0.9992
tp704
a(g18
g19
F0.9986
tp705
asI240
(lp706
(S'it'
p707
g64
F0.9948
tp708
a(S"isn't"
p709
g3
F0.9999
tp710
a(S'yours'
p711
g64
F0.9569
tp712
a(g18
g19
F0.9985
tp713
asI243
(lp714
(S'xxx'
p715
g44
F0.5822
tp716
a(g18
g19
F0.9648
tp717
asI244
(lp718
(S'xxx'
p719
g44
F0.8325
tp720
a(S'xxx'
p721
g44
F0.9233
tp722
a(g18
g19
F0.9721
tp723
asI245
(lp724
(S'xxx'
p725
g44
F0.5822
tp726
a(g18
g19
F0.9648
tp727
asI247
(lp728
(S'mhm'
p729
g23
F0.9761
tp730
a(g18
g19
F0.9962
tp731
asI250
(lp732
(S"don't"
p733
g3
F0.9984
tp734
a(S'break'
p735
g3
F0.9999
tp736
a(S'it'
p737
g64
F0.9846
tp738
a(g18
g19
F0.999
tp739
asI253
(lp740
(S'xxx'
p741
g44
F0.5822
tp742
a(g18
g19
F0.9648
tp743
asI254
(lp744
(S'zzz'
p745
g23
F0.3756
tp746
a(g18
g19
F0.9972
tp747
asI258
(lp748
(S'xxx'
p749
g44
F0.69
tp750
a(S'break'
p751
g3
F0.9931
tp752
a(S'it'
p753
g64
F0.9846
tp754
a(g18
g19
F0.999
tp755
asI261
(lp756
(S'told'
p757
g3
F0.9988
tp758
a(S'you'
p759
g64
F0.9988
tp760
a(S'not'
p761
g33
F0.9974
tp762
a(S'to'
p763
g6
F0.9936
tp764
a(S'break'
p765
g3
F0.9998
tp766
a(S'it'
p767
g64
F0.986
tp768
a(g18
g19
F0.9989
tp769
asI264
(lp770
(S'already'
p771
g33
F0.981
tp772
a(g46
g19
F0.9829
tp773
a(g124
g19
F0.976
tp774
a(g49
g19
F0.9083
tp775
a(S'did'
p776
g3
F0.9906
tp777
a(g18
g19
F0.9969
tp778
asI267
(lp779
(S'('
p780
g19
F0.9435
tp781
a(S'wh)oo(ps'
p782
g23
F0.9327
tp783
a(g376
g19
F0.8945
tp784
a(g780
g19
F0.9705
tp785
a(S'wh)oo(ps'
p786
g23
F0.9233
tp787
a(g376
g19
F0.9793
tp788
a(g18
g19
F0.9958
tp789
asI270
(lp790
(S'this'
p791
g64
F0.6107
tp792
a(g46
g19
F0.9912
tp793
a(g124
g19
F0.976
tp794
a(g49
g19
F0.9406
tp795
a(S'go'
p796
g3
F0.9941
tp797
a(S'in'
p798
g6
F0.949
tp799
a(S'there'
p800
g33
F0.7918
tp801
a(g18
g19
F0.9981
tp802
asI274
(lp803
(S'xxx'
p804
g44
F0.8981
tp805
a(g46
g19
F0.7544
tp806
a(g23
g19
F0.9842
tp807
a(g49
g19
F0.9148
tp808
a(g780
g19
F0.968
tp809
a(S'wh)oop(s'
p810
g23
F0.9126
tp811
a(g376
g19
F0.9879
tp812
a(g18
g19
F0.9961
tp813
asI277
(lp814
(S'zzz'
p815
g23
F0.3756
tp816
a(g18
g19
F0.9972
tp817
asI281
(lp818
(S'okay'
p819
g23
F0.9741
tp820
a(g18
g19
F0.9977
tp821
asI284
(lp822
(g461
g64
F0.9983
tp823
a(S'want'
p824
g3
F0.9996
tp825
a(S'one'
p826
g87
F0.9632
tp827
a(S'of'
p828
g6
F0.9986
tp829
a(S'them'
p830
g64
F0.9456
tp831
a(S'[='
p832
g44
F0.8877
tp833
a(S'blocks'
p834
g14
F0.7076
tp835
a(S'Chi'
p836
g139
F0.8788
tp837
a(S'is'
p838
g3
F0.9956
tp839
a(S'playing'
p840
g3
F0.9966
tp841
a(S'with'
p842
g6
F0.9706
tp843
a(g49
g19
F0.9813
tp844
a(g18
g19
F0.9952
tp845
asI288
(lp846
(S'0'
p847
g87
F0.9876
tp848
a(g18
g19
F0.9949
tp849
asI290
(lp850
(S'thank'
p851
g3
F0.9631
tp852
a(S'you'
p853
g64
F0.9987
tp854
a(g18
g19
F0.9995
tp855
asI293
(lp856
(S'zzz'
p857
g54
F0.5123
tp858
a(S'zzz'
p859
g54
F0.6926
tp860
a(g18
g19
F0.9933
tp861
asI297
(lp862
(S'here'
p863
g33
F0.933
tp864
a(S'Bro'
p865
g14
F0.7801
tp866
a(g18
g19
F0.9987
tp867
asI301
(lp868
(S'where'
p869
g33
F0.9164
tp870
a(S'did'
p871
g3
F0.9929
tp872
a(S'he'
p873
g64
F0.997
tp874
a(S'go'
p875
g3
F0.989
tp876
a(g124
g19
F0.9974
tp877
asI305
(lp878
(S'kitchen'
p879
g14
F0.8701
tp880
a(g18
g19
F0.9987
tp881
asI309
(lp882
(S'go'
p883
g3
F0.9419
tp884
a(S'get'
p885
g3
F0.9649
tp886
a(S'Bro'
p887
g14
F0.9661
tp888
a(g18
g19
F0.9988
tp889
asI313
(lp890
(S'what'
p891
g64
F0.9965
tp892
a(S'did'
p893
g3
F0.9994
tp894
a(S'you'
p895
g64
F0.9988
tp896
a(S'take'
p897
g3
F0.9984
tp898
a(S'(.)'
p899
g139
F0.258
tp900
a(S'come'
p901
g3
F0.9919
tp902
a(S'here'
p903
g33
F0.993
tp904
a(g18
g19
F0.9986
tp905
asI316
(lp906
(S'zzz'
p907
g23
F0.3756
tp908
a(g18
g19
F0.9972
tp909
asI320
(lp910
(S'come'
p911
g3
F0.9843
tp912
a(S'here'
p913
g33
F0.9832
tp914
a(g18
g19
F0.9986
tp915
asI323
(lp916
(S"don't"
p917
g3
F0.9984
tp918
a(S'swipe'
p919
g3
F0.9875
tp920
a(S'the'
p921
g11
F0.9995
tp922
a(S'toys'
p923
g14
F0.9992
tp924
a(g18
g19
F0.9988
tp925
asI326
(lp926
(S'come'
p927
g3
F0.9843
tp928
a(S'here'
p929
g33
F0.9832
tp930
a(g18
g19
F0.9986
tp931
as.