(dp0
I14
(lp1
(S'now'
p2
S'R'
p3
F0.9927
tp4
a(S'get'
p5
S'V'
p6
F0.9987
tp7
a(S'in'
p8
S'P'
p9
F0.9199
tp10
a(S'your'
p11
S'D'
p12
F0.9923
tp13
a(S'chair'
p14
S'N'
p15
F0.9982
tp16
a(S'and'
p17
S'&'
p18
F0.996
tp19
a(S'eat'
p20
g6
F0.9597
tp21
a(S'okay'
p22
S'A'
p23
F0.5877
tp24
a(S'?'
p25
S','
p26
F0.9974
tp27
asI21
(lp28
(S'xxx'
p29
S'E'
p30
F0.7901
tp31
a(S'hey'
p32
S'!'
p33
F0.9887
tp34
a(S'Mot'
p35
S'^'
p36
F0.5883
tp37
a(S'xxx'
p38
g30
F0.3219
tp39
a(S'.'
p40
g26
F0.9688
tp41
asI24
(lp42
(S'eat'
p43
g6
F0.99
tp44
a(S'your'
p45
g12
F0.9928
tp46
a(S'sandwich'
p47
g15
F0.9994
tp48
a(g40
g26
F0.9986
tp49
asI27
(lp50
(S'keep'
p51
g6
F0.9817
tp52
a(S'the'
p53
g12
F0.9919
tp54
a(S'xxx'
p55
g15
F0.7898
tp56
a(S'out'
p57
g9
F0.423
tp58
a(S'['
p59
g26
F0.9875
tp60
a(g33
g26
F0.9901
tp61
a(S']'
p62
g26
F0.9814
tp63
a(g18
g18
F0.9942
tp64
a(S'='
p65
g26
F0.912
tp66
a(S'grunting'
p67
g6
F0.995
tp68
a(g40
g26
F0.9991
tp69
asI30
(lp70
(S'Chi'
p71
g36
F0.8798
tp72
a(S'stop'
p73
g6
F0.9681
tp74
a(S'singin(g'
p75
g6
F0.9694
tp76
a(S')'
p77
g26
F0.9973
tp78
a(S'at'
p79
g9
F0.9991
tp80
a(S'the'
p81
g12
F0.9992
tp82
a(S'table'
p83
g15
F0.989
tp84
a(S'and'
p85
g18
F0.9962
tp86
a(S'eat'
p87
g6
F0.9585
tp88
a(g40
g26
F0.9982
tp89
asI35
(lp90
(S'yeah'
p91
g33
F0.9932
tp92
a(g18
g18
F0.99
tp93
a(g65
g26
F0.8844
tp94
a(S'giggling'
p95
g6
F0.9909
tp96
a(g40
g26
F0.999
tp97
asI38
(lp98
(S'be'
p99
g6
F0.9951
tp100
a(S'a'
p101
g12
F0.9826
tp102
a(S'good'
p103
g23
F0.998
tp104
a(S'boy'
p105
g15
F0.9968
tp106
a(S'and'
p107
g18
F0.9966
tp108
a(S'eat'
p109
g6
F0.9506
tp110
a(g40
g26
F0.9981
tp111
asI41
(lp112
(S'<'
p113
S'~'
p114
F0.9526
tp115
a(S'I'
p116
S'O'
p117
F0.9983
tp118
a(S"don't"
p119
g6
F1.0
tp120
a(S'know'
p121
g6
F0.9991
tp122
a(S'>'
p123
g30
F0.5343
tp124
a(g59
g30
F0.5345
tp125
a(g123
g30
F0.9732
tp126
a(g62
g26
F0.8062
tp127
a(g40
g26
F0.9969
tp128
asI44
(lp129
(g113
g114
F0.9356
tp130
a(S'drink'
p131
g6
F0.9812
tp132
a(S'your'
p133
g12
F0.9835
tp134
a(S'milk'
p135
g15
F0.9994
tp136
a(g123
g30
F0.5184
tp137
a(g59
g30
F0.535
tp138
a(g113
g114
F0.8293
tp139
a(g62
g26
F0.9815
tp140
a(S'[///]'
p141
g26
F0.3728
tp142
a(S'eat'
p143
g6
F0.9678
tp144
a(g33
g26
F0.9982
tp145
asI47
(lp146
(S'sit'
p147
g6
F0.972
tp148
a(S'there'
p149
g3
F0.9009
tp150
a(S'and'
p151
g18
F0.9971
tp152
a(S'eat'
p153
g6
F0.9272
tp154
a(g40
g26
F0.9983
tp155
asI51
(lp156
(S'no'
p157
g33
F0.9847
tp158
a(g33
g26
F0.999
tp159
asI55
(lp160
(S'(.)'
p161
g30
F0.3392
tp162
a(g116
g117
F0.9969
tp163
a(S'want'
p164
g6
F0.9999
tp165
a(S'to'
p166
g9
F0.9945
tp167
a(S'sit'
p168
g6
F0.9992
tp169
a(S'there'
p170
g3
F0.9019
tp171
a(g40
g26
F0.998
tp172
asI59
(lp173
(S'(..)'
p174
g30
F0.3565
tp175
a(S'eat'
p176
g6
F0.9358
tp177
a(g40
g26
F0.998
tp178
asI62
(lp179
(S'0'
p180
S'$'
p181
F0.9816
tp182
a(S'[='
p183
g30
F0.9666
tp184
a(g33
g26
F0.9915
tp185
a(S'high'
p186
g23
F0.412
tp187
a(S'pitched'
p188
g23
F0.8421
tp189
a(S'noises'
p190
g15
F0.9986
tp191
a(g62
g26
F0.9943
tp192
a(g40
g26
F0.9962
tp193
asI63
(lp194
(g113
g114
F0.936
tp195
a(S'Chi'
p196
g36
F0.8407
tp197
a(g123
g36
F0.3311
tp198
a(g59
g26
F0.9707
tp199
a(g123
g30
F0.5563
tp200
a(g62
g26
F0.6899
tp201
a(g40
g26
F0.9959
tp202
asI66
(lp203
(S'<&='
p204
g36
F0.2641
tp205
a(S'growl'
p206
g15
F0.717
tp207
a(g123
g30
F0.4456
tp208
a(g59
g30
F0.4963
tp209
a(g113
g114
F0.7259
tp210
a(g62
g26
F0.9803
tp211
a(g40
g26
F0.9959
tp212
asI67
(lp213
(S'if'
p214
g9
F0.9977
tp215
a(S'you'
p216
g117
F0.9997
tp217
a(S"don't"
p218
g6
F1.0
tp219
a(S'eat'
p220
g6
F0.9986
tp221
a(S'then'
p222
g3
F0.9758
tp223
a(S"we're"
p224
S'L'
p225
F0.9801
tp226
a(S'not'
p227
g3
F0.9986
tp228
a(S'gonna'
p229
g6
F0.9967
tp230
a(S'go'
p231
g6
F0.9992
tp232
a(S'to'
p233
g9
F0.9984
tp234
a(S'the'
p235
g12
F0.999
tp236
a(S'beach'
p237
g15
F0.9801
tp238
a(g40
g26
F0.9987
tp239
asI73
(lp240
(S'hey'
p241
g33
F0.9955
tp242
a(S'please'
p243
g6
F0.7919
tp244
a(g25
g26
F0.9978
tp245
asI78
(lp246
(S'then'
p247
g3
F0.9732
tp248
a(S'sit'
p249
g6
F0.9271
tp250
a(g59
g26
F0.9871
tp251
a(g33
g26
F0.9922
tp252
a(g62
g26
F0.9866
tp253
a(S'and'
p254
g18
F0.999
tp255
a(S'eat'
p256
g6
F0.9984
tp257
a(S'your'
p258
g12
F0.9918
tp259
a(S'sandwich'
p260
g15
F0.9995
tp261
a(g40
g26
F0.9985
tp262
asI82
(lp263
(g113
g114
F0.9147
tp264
a(S'can'
p265
g6
F0.998
tp266
a(S'we'
p267
g117
F0.992
tp268
a(g123
S'G'
p269
F0.2864
tp270
a(S'[/]'
p271
g269
F0.2679
tp272
a(S'can'
p273
g6
F0.9976
tp274
a(S'we'
p275
g117
F0.9885
tp276
a(S'xxx'
p277
g6
F0.6243
tp278
a(S'go'
p279
g6
F0.9916
tp280
a(S'to'
p281
g9
F0.9984
tp282
a(S'the'
p283
g12
F0.999
tp284
a(S'beach'
p285
g15
F0.9348
tp286
a(g25
g26
F0.9984
tp287
asI86
(lp288
(S'yeah'
p289
g33
F0.9962
tp290
a(S'but'
p291
g18
F0.9942
tp292
a(S'we'
p293
g117
F0.9985
tp294
a(S'have_to'
p295
g6
F0.9989
tp296
a(S'get'
p297
g6
F0.9998
tp298
a(g101
g12
F0.9844
tp299
a(S'(.)'
p300
g36
F0.315
tp301
a(S'car'
p302
g15
F0.7366
tp303
a(S'first'
p304
g23
F0.568
tp305
a(g40
g26
F0.9986
tp306
asI92
(lp307
(S'so'
p308
g9
F0.6866
tp309
a(S'why'
p310
g3
F0.9523
tp311
a(S"don't"
p312
g6
F0.9999
tp313
a(S'you'
p314
g117
F0.9982
tp315
a(S'just'
p316
g3
F0.9996
tp317
a(S'sit'
p318
g6
F0.9965
tp319
a(S'there'
p320
g3
F0.9416
tp321
a(S'and'
p322
g18
F0.9972
tp323
a(S'be'
p324
g6
F0.999
tp325
a(g101
g12
F0.9779
tp326
a(S'good'
p327
g23
F0.9988
tp328
a(S'boy'
p329
g15
F0.9984
tp330
a(g25
g26
F0.9976
tp331
asI98
(lp332
(g116
g117
F0.9984
tp333
a(S'know'
p334
g6
F0.9987
tp335
a(S'xxx'
p336
g15
F0.3526
tp337
a(g40
g26
F0.9983
tp338
asI101
(lp339
(S'okay'
p340
g33
F0.9309
tp341
a(S'good'
p342
g23
F0.9923
tp343
a(g40
g26
F0.9981
tp344
asI104
(lp345
(S'what'
p346
g117
F0.9962
tp347
a(S'is'
p348
g6
F0.9994
tp349
a(S'that'
p350
g12
F0.7855
tp351
a(S'stuff'
p352
g15
F0.9982
tp353
a(g25
g26
F0.9985
tp354
asI108
(lp355
(S'you'
p356
g117
F0.9942
tp357
a(S'just'
p358
g3
F0.9992
tp359
a(S'gotta'
p360
g6
F0.9995
tp361
a(S'wait'
p362
g6
F0.9942
tp363
a(S'Chi'
p364
g36
F0.9711
tp365
a(S'and'
p366
g18
F0.9981
tp367
a(S'eat'
p368
g6
F0.9817
tp369
a(S"what's"
p370
g225
F0.983
tp371
a(S'in'
p372
g9
F0.9645
tp373
a(S'front'
p374
g15
F0.95
tp375
a(S'o(f'
p376
g9
F0.6193
tp377
a(g77
g26
F0.9916
tp378
a(S'you'
p379
g117
F0.9948
tp380
a(S'and'
p381
g18
F0.9937
tp382
a(S'then'
p383
g3
F0.9928
tp384
a(S"I'll"
p385
g225
F0.9891
tp386
a(S'give'
p387
g6
F0.9999
tp388
a(S'you'
p389
g117
F0.993
tp390
a(S'this'
p391
g117
F0.4776
tp392
a(g40
g26
F0.9981
tp393
asI116
(lp394
(S'oh'
p395
g33
F0.9963
tp396
a(S'xxx'
p397
g30
F0.3657
tp398
a(g40
g26
F0.9721
tp399
asI119
(lp400
(S'okay'
p401
g33
F0.9732
tp402
a(g25
g26
F0.9976
tp403
asI123
(lp404
(S'yeah'
p405
g33
F0.9986
tp406
a(g40
g26
F0.997
tp407
asI126
(lp408
(S'hey'
p409
g33
F0.9929
tp410
a(S'xxx'
p411
g30
F0.6229
tp412
a(S'[/]'
p413
g30
F0.362
tp414
a(S'(.)'
p415
g30
F0.9411
tp416
a(S'xxx'
p417
g30
F0.9381
tp418
a(S'taking'
p419
g6
F0.9988
tp420
a(S'that'
p421
g12
F0.8507
tp422
a(S'big'
p423
g23
F0.9706
tp424
a(S'car'
p425
g15
F0.9991
tp426
a(g25
g26
F0.9979
tp427
asI130
(lp428
(g116
g117
F0.9976
tp429
a(S"don't"
p430
g6
F1.0
tp431
a(S'know'
p432
g6
F0.9985
tp433
a(g59
g26
F0.9894
tp434
a(g33
g26
F0.9901
tp435
a(g62
g26
F0.9887
tp436
a(S'yet'
p437
g3
F0.9021
tp438
a(S'Chi'
p439
g36
F0.9447
tp440
a(g40
g26
F0.993
tp441
asI133
(lp442
(S'we'
p443
g117
F0.9938
tp444
a(g113
g114
F0.6554
tp445
a(S'have_to'
p446
g6
F0.9909
tp447
a(S'get'
p448
g6
F0.9996
tp449
a(S'in'
p450
g9
F0.9147
tp451
a(S'touch'
p452
g15
F0.9812
tp453
a(g123
g30
F0.529
tp454
a(g59
g30
F0.5345
tp455
a(g123
g30
F0.9532
tp456
a(g62
g26
F0.8379
tp457
a(S'with'
p458
g9
F0.9935
tp459
a(S'Daddy'
p460
g15
F0.7216
tp461
a(g59
g26
F0.9861
tp462
a(g33
g26
F0.9901
tp463
a(g62
g26
F0.9866
tp464
a(S'and'
p465
g18
F0.9992
tp466
a(S'then'
p467
g3
F0.9937
tp468
a(S"we'll"
p469
g225
F0.971
tp470
a(S'go'
p471
g6
F0.9983
tp472
a(S'see'
p473
g6
F0.8124
tp474
a(g40
g26
F0.9958
tp475
asI138
(lp476
(S'xxx'
p477
g30
F0.8981
tp478
a(g59
g26
F0.6622
tp479
a(g113
g114
F0.972
tp480
a(g62
g26
F0.9847
tp481
a(g40
g26
F0.9962
tp482
asI139
(lp483
(S'by'
p484
g9
F0.985
tp485
a(S'[/]'
p486
g36
F0.6471
tp487
a(S'by'
p488
g9
F0.9987
tp489
a(S'the'
p490
g12
F0.9991
tp491
a(S'beach'
p492
g15
F0.9057
tp493
a(g25
g26
F0.9983
tp494
asI143
(lp495
(S'yeah'
p496
g33
F0.9986
tp497
a(g40
g26
F0.997
tp498
asI146
(lp499
(S'oh'
p500
g33
F0.9984
tp501
a(g40
g26
F0.9938
tp502
asI149
(lp503
(g113
g114
F0.9262
tp504
a(S"they're"
p505
g225
F0.8995
tp506
a(S'getting'
p507
g6
F0.9949
tp508
a(S'wet'
p509
g23
F0.9204
tp510
a(g123
g30
F0.5065
tp511
a(g59
g30
F0.5345
tp512
a(g123
g30
F0.9532
tp513
a(g62
g26
F0.7629
tp514
a(S'+/'
p515
g15
F0.1634
tp516
a(g40
g26
F0.9979
tp517
asI152
(lp518
(g113
g114
F0.907
tp519
a(S'just'
p520
g3
F0.9991
tp521
a(S'eat'
p522
g6
F0.9872
tp523
a(g123
g30
F0.4973
tp524
a(g59
g30
F0.535
tp525
a(g113
g114
F0.6902
tp526
a(g62
g26
F0.963
tp527
a(g33
g26
F0.9969
tp528
asI155
(lp529
(S"don't"
p530
g6
F0.9992
tp531
a(S'eat'
p532
g6
F0.9995
tp533
a(S'wit(h'
p534
g9
F0.8931
tp535
a(g77
g26
F0.9919
tp536
a(S'your'
p537
g12
F0.9802
tp538
a(S'mouth'
p539
g15
F0.9992
tp540
a(S'full'
p541
g23
F0.9334
tp542
a(S'just'
p543
g3
F0.999
tp544
a(S'(.)'
p545
g269
F0.2238
tp546
a(S'eat'
p547
g6
F0.9307
tp548
a(g40
g26
F0.9983
tp549
asI160
(lp550
(S'get'
p551
g6
F0.9899
tp552
a(S'wet'
p553
g23
F0.9879
tp554
a(g25
g26
F0.9961
tp555
asI164
(lp556
(S'Chi'
p557
g36
F0.8074
tp558
a(g40
g26
F0.9887
tp559
asI167
(lp560
(S"don't"
p561
g6
F0.999
tp562
a(S'talk'
p563
g6
F0.992
tp564
a(g59
g26
F0.9863
tp565
a(g33
g26
F0.9922
tp566
a(g62
g26
F0.9801
tp567
a(S'with'
p568
g9
F0.9985
tp569
a(S'your'
p570
g12
F0.9979
tp571
a(S'mouth'
p572
g15
F0.9992
tp573
a(S'full'
p574
g23
F0.9177
tp575
a(S'eat'
p576
g6
F0.4909
tp577
a(g33
g26
F0.9982
tp578
asI172
(lp579
(S'(.)'
p580
g36
F0.4332
tp581
a(S'do'
p582
g6
F0.993
tp583
a(S'what'
p584
g117
F0.9875
tp585
a(g116
g117
F0.9993
tp586
a(S'asked'
p587
g6
F0.9988
tp588
a(g40
g26
F0.9967
tp589
asI175
(lp590
(S'(.)'
p591
g269
F0.2932
tp592
a(S'Mot'
p593
g269
F0.5221
tp594
a(g33
g26
F0.9879
tp595
asI178
(lp596
(S'Chi'
p597
g36
F0.8074
tp598
a(g40
g26
F0.9887
tp599
asI181
(lp600
(S'xxx'
p601
g30
F0.7556
tp602
a(g116
g117
F0.995
tp603
a(S"can't"
p604
g6
F0.9999
tp605
a(S'go'
p606
g6
F0.9999
tp607
a(S'out'
p608
S'T'
p609
F0.5844
tp610
a(S'0and'
p611
g3
F0.5004
tp612
a(S'play'
p613
g6
F0.9913
tp614
a(S'with'
p615
g9
F0.9957
tp616
a(S'Lydia'
p617
g36
F0.9995
tp618
a(g25
g26
F0.9955
tp619
asI187
(lp620
(S'(..)'
p621
g26
F0.3701
tp622
a(S'are'
p623
g6
F0.9965
tp624
a(S'we'
p625
g117
F0.9991
tp626
a(S'gonna'
p627
g6
F0.9995
tp628
a(S'go'
p629
g6
F0.9992
tp630
a(S'to'
p631
g9
F0.9984
tp632
a(S'the'
p633
g12
F0.9991
tp634
a(S'beach'
p635
g15
F0.9206
tp636
a(g25
g26
F0.9988
tp637
asI192
(lp638
(S'Chi'
p639
g36
F0.8074
tp640
a(g40
g26
F0.9887
tp641
asI195
(lp642
(S'(..)'
p643
g30
F0.3828
tp644
a(S'Marky'
p645
g36
F0.998
tp646
a(S'will'
p647
g6
F0.9562
tp648
a(S'love'
p649
g6
F0.8763
tp650
a(g59
g26
F0.9612
tp651
a(g33
g26
F0.9901
tp652
a(g62
g26
F0.9861
tp653
a(S'it'
p654
g117
F0.9819
tp655
a(g40
g26
F0.9991
tp656
asI200
(lp657
(S'Marky'
p658
g36
F0.9976
tp659
a(S'will'
p660
g6
F0.9654
tp661
a(S'love'
p662
g6
F0.863
tp663
a(g59
g26
F0.9681
tp664
a(g33
g26
F0.9901
tp665
a(g62
g26
F0.9832
tp666
a(S'it'
p667
g117
F0.9842
tp668
a(g59
g26
F0.9925
tp669
a(g123
g30
F0.4696
tp670
a(g62
g26
F0.6017
tp671
a(g33
g26
F0.9971
tp672
asI203
(lp673
(S'yes'
p674
g33
F0.9832
tp675
a(g59
g26
F0.9851
tp676
a(g113
g114
F0.9843
tp677
a(g62
g26
F0.9884
tp678
a(S'he'
p679
g117
F0.9938
tp680
a(S'will'
p681
g6
F0.9994
tp682
a(S'love'
p683
g6
F0.9981
tp684
a(S'it'
p685
g117
F0.9958
tp686
a(g40
g26
F0.9991
tp687
asI206
(lp688
(S'xxx'
p689
g30
F0.7556
tp690
a(g116
g117
F0.9962
tp691
a(S'want'
p692
g6
F1.0
tp693
a(S'you'
p694
g117
F0.9987
tp695
a(S'to'
p696
g9
F0.9801
tp697
a(S'eat'
p698
g6
F0.9915
tp699
a(g33
g26
F0.9979
tp700
asI209
(lp701
(S'if'
p702
g9
F0.9977
tp703
a(S'you'
p704
g117
F0.9997
tp705
a(S"don't"
p706
g6
F1.0
tp707
a(S'eat'
p708
g6
F0.9988
tp709
a(S"we're"
p710
g225
F0.9162
tp711
a(S'not'
p712
g3
F0.9988
tp713
a(S'going'
p714
g6
F0.9988
tp715
a(S'anywhere'
p716
g3
F0.9901
tp717
a(g40
g26
F0.9987
tp718
asI215
(lp719
(S'please'
p720
g6
F0.7885
tp721
a(g25
g26
F0.9975
tp722
asI220
(lp723
(S'just'
p724
g3
F0.9991
tp725
a(S'eat'
p726
g6
F0.9865
tp727
a(g33
g26
F0.9978
tp728
asI224
(lp729
(S'(..)'
p730
g30
F0.6776
tp731
a(g113
g114
F0.5485
tp732
a(S'when'
p733
g3
F0.9699
tp734
a(S"you're"
p735
g225
F0.9932
tp736
a(S'done'
p737
g6
F0.8779
tp738
a(g59
g26
F0.9967
tp739
a(S'>]>'
p740
g269
F0.2374
tp741
a(S'[/]'
p742
g269
F0.6205
tp743
a(S'(.)'
p744
g269
F0.4827
tp745
a(S'when'
p746
g3
F0.9614
tp747
a(S"you're"
p748
g225
F0.9928
tp749
a(S'done'
p750
g6
F0.981
tp751
a(S'with'
p752
g9
F0.9979
tp753
a(S'that'
p754
g117
F0.6129
tp755
a(S"I('ve"
p756
g225
F0.7841
tp757
a(g77
g26
F0.9778
tp758
a(S'got'
p759
g6
F0.9951
tp760
a(S'some'
p761
g12
F0.9561
tp762
a(S'more'
p763
g23
F0.9563
tp764
a(S'(.)'
p765
g30
F0.2106
tp766
a(S'sandwich'
p767
g15
F0.994
tp768
a(g40
g26
F0.9985
tp769
asI231
(lp770
(g113
g114
F0.9454
tp771
a(S'who'
p772
g117
F0.9985
tp773
a(S'is'
p774
g6
F0.9995
tp775
a(g123
g30
F0.5664
tp776
a(g59
g30
F0.535
tp777
a(g113
g114
F0.8293
tp778
a(g62
g26
F0.9881
tp779
a(S'that'
p780
g117
F0.6382
tp781
a(g25
g26
F0.9987
tp782
asI235
(lp783
(S'oh'
p784
g33
F0.9984
tp785
a(g40
g26
F0.9938
tp786
asI239
(lp787
(S'(..)'
p788
g26
F0.3907
tp789
a(S"I'm"
p790
g225
F0.9966
tp791
a(S'done'
p792
g6
F0.8907
tp793
a(g113
g114
F0.5281
tp794
a(S'wit(h)'
p795
g9
F0.9662
tp796
a(g123
g269
F0.3073
tp797
a(S'[/]'
p798
g269
F0.2676
tp799
a(S'wit(h'
p800
g9
F0.8944
tp801
a(g77
g26
F0.994
tp802
a(S'these'
p803
g117
F0.4159
tp804
a(g40
g26
F0.9988
tp805
asI242
(lp806
(S'no'
p807
g33
F0.6674
tp808
a(S'no'
p809
g33
F0.4752
tp810
a(S'no'
p811
g12
F0.3575
tp812
a(S'no'
p813
g15
F0.3645
tp814
a(S'no'
p815
g33
F0.2639
tp816
a(S"you're"
p817
g225
F0.9942
tp818
a(S'not'
p819
g3
F0.9988
tp820
a(S'done'
p821
g6
F0.9497
tp822
a(g40
g26
F0.9992
tp823
asI247
(lp824
(S'fine'
p825
g23
F0.9152
tp826
a(g40
g26
F0.9982
tp827
asI250
(lp828
(g18
g18
F0.9893
tp829
a(g65
g26
F0.8762
tp830
a(S'singing'
p831
g6
F0.9943
tp832
a(g40
g26
F0.999
tp833
asI251
(lp834
(S'(..)'
p835
g30
F0.4725
tp836
a(S'Mot'
p837
g15
F0.3688
tp838
a(g40
g26
F0.9964
tp839
asI254
(lp840
(S'(..)'
p841
g30
F0.4902
tp842
a(S'Chi'
p843
g36
F0.7969
tp844
a(g33
g26
F0.9759
tp845
asI257
(lp846
(S'keep'
p847
g6
F0.8926
tp848
a(S'eating'
p849
g6
F0.9777
tp850
a(g33
g26
F0.9976
tp851
asI260
(lp852
(S'xxx'
p853
g30
F0.5798
tp854
a(S'the'
p855
g12
F0.9975
tp856
a(S'room'
p857
g15
F0.999
tp858
a(g40
g26
F0.9989
tp859
asI263
(lp860
(S'Mom'
p861
g15
F0.8271
tp862
a(g113
g269
F0.3044
tp863
a(S"don't"
p864
g6
F0.9995
tp865
a(S'put'
p866
g6
F0.9956
tp867
a(g123
g26
F0.2525
tp868
a(S'[//]'
p869
g269
F0.2217
tp870
a(S'xxx'
p871
g30
F0.4059
tp872
a(S'beach'
p873
g15
F0.8772
tp874
a(g25
g26
F0.9988
tp875
asI267
(lp876
(S'not'
p877
g3
F0.9972
tp878
a(S'yet'
p879
g3
F0.9707
tp880
a(g33
g26
F0.9985
tp881
asI270
(lp882
(S'oh'
p883
g33
F0.9984
tp884
a(g40
g26
F0.9938
tp885
asI274
(lp886
(S"we're"
p887
g225
F0.9711
tp888
a(S'obviously'
p889
g3
F0.9972
tp890
a(S'not'
p891
g3
F0.9987
tp892
a(S'gonna'
p893
g6
F0.9966
tp894
a(S'go'
p895
g6
F0.9993
tp896
a(S'unless'
p897
g9
F0.9949
tp898
a(S'we'
p899
g117
F0.9992
tp900
a(S'get'
p901
g6
F1.0
tp902
a(S'our'
p903
g12
F0.9981
tp904
a(S'car'
p905
g15
F0.9922
tp906
a(S'(.)'
p907
g269
F0.336
tp908
a(S'from'
p909
g9
F0.9718
tp910
a(g59
g26
F0.98
tp911
a(g123
g30
F0.4438
tp912
a(g62
g26
F0.7678
tp913
a(S'Daddy'
p914
g15
F0.8935
tp915
a(g40
g26
F0.9982
tp916
asI280
(lp917
(S'alright'
p918
g33
F0.9391
tp919
a(g59
g26
F0.9854
tp920
a(g113
g114
F0.972
tp921
a(g62
g26
F0.9847
tp922
a(g40
g26
F0.9962
tp923
asI283
(lp924
(S'so'
p925
g3
F0.6349
tp926
a(S'just'
p927
g3
F0.9995
tp928
a(S'eat'
p929
g6
F0.9897
tp930
a(g33
g26
F0.9982
tp931
asI286
(lp932
(S'hot'
p933
g23
F0.7367
tp934
a(g33
g26
F0.9986
tp935
asI289
(lp936
(S'(.)'
p937
g30
F0.3715
tp938
a(S'xxx'
p939
g30
F0.944
tp940
a(S'Daddy'
p941
g15
F0.9006
tp942
a(g25
g26
F0.9979
tp943
asI293
(lp944
(S'xxx'
p945
g30
F0.5822
tp946
a(g40
g26
F0.9648
tp947
asI294
(lp948
(S'(.)'
p949
g36
F0.3799
tp950
a(S'Chi'
p951
g36
F0.9502
tp952
a(S'the'
p953
g12
F0.9957
tp954
a(S'longer'
p955
g3
F0.6532
tp956
a(S'you'
p957
g117
F0.9979
tp958
a(S'keep'
p959
g6
F0.9918
tp960
a(S'talkin(g'
p961
g6
F0.696
tp962
a(g77
g26
F0.9862
tp963
a(S'(.)'
p964
g269
F0.427
tp965
a(S'the'
p966
g12
F0.9934
tp967
a(S'longer'
p968
g23
F0.3419
tp969
a(S"you're"
p970
g225
F0.9892
tp971
a(S'gonna'
p972
g6
F0.9908
tp973
a(S'[:'
p974
g30
F0.7834
tp975
a(S'going'
p976
g6
F0.9979
tp977
a(S'to'
p978
g9
F0.898
tp979
a(g62
g26
F0.9729
tp980
a(S'sit'
p981
g6
F0.9902
tp982
a(S'there'
p983
g3
F0.9138
tp984
a(g40
g26
F0.9975
tp985
asI300
(lp986
(S'no'
p987
g33
F0.6739
tp988
a(g18
g18
F0.9865
tp989
a(g65
g26
F0.8378
tp990
a(S'laughs'
p991
g6
F0.8863
tp992
a(g59
g26
F0.988
tp993
a(g123
g30
F0.6043
tp994
a(g62
g26
F0.7541
tp995
a(g40
g26
F0.9962
tp996
asI303
(lp997
(g113
g114
F0.907
tp998
a(S'just'
p999
g3
F0.9991
tp1000
a(S'eat'
p1001
g6
F0.9872
tp1002
a(g123
g30
F0.4973
tp1003
a(g59
g30
F0.535
tp1004
a(g113
g114
F0.6902
tp1005
a(g62
g26
F0.9839
tp1006
a(g40
g26
F0.9962
tp1007
asI306
(lp1008
(g116
g117
F0.9976
tp1009
a(S'gonna'
p1010
g6
F0.9998
tp1011
a(S'go'
p1012
g6
F0.9993
tp1013
a(S'to'
p1014
g9
F0.9984
tp1015
a(S'the'
p1016
g12
F0.9915
tp1017
a(S'(.)'
p1018
g36
F0.7363
tp1019
a(S'beach'
p1020
g36
F0.5933
tp1021
a(g33
g26
F0.9946
tp1022
asI309
(lp1023
(S'you'
p1024
g117
F0.9968
tp1025
a(S'have_to'
p1026
g6
F0.9992
tp1027
a(S'finish'
p1028
g6
F0.9952
tp1029
a(S'eating'
p1030
g6
F0.9993
tp1031
a(S'your'
p1032
g12
F0.99
tp1033
a(S'sandwich'
p1034
g15
F0.9989
tp1035
a(g40
g26
F0.9985
tp1036
asI313
(lp1037
(g113
g114
F0.9511
tp1038
a(S'Marky'
p1039
g36
F0.9985
tp1040
a(S'will'
p1041
g6
F0.9562
tp1042
a(S'love'
p1043
g6
F0.8763
tp1044
a(g59
g26
F0.9612
tp1045
a(g33
g26
F0.9901
tp1046
a(g62
g26
F0.9832
tp1047
a(S'it'
p1048
g117
F0.99
tp1049
a(g123
g26
F0.3718
tp1050
a(S'[/]'
p1051
g269
F0.3021
tp1052
a(S'Marky'
p1053
g36
F0.9983
tp1054
a(S'will'
p1055
g6
F0.9641
tp1056
a(S'love'
p1057
g6
F0.9984
tp1058
a(S'it'
p1059
g117
F0.9949
tp1060
a(g33
g26
F0.9991
tp1061
asI316
(lp1062
(S'he'
p1063
g117
F0.9944
tp1064
a(S'will'
p1065
g6
F0.9994
tp1066
a(S'[/]'
p1067
g26
F0.2069
tp1068
a(S'will'
p1069
g6
F0.9931
tp1070
a(S'[/]'
p1071
g269
F0.3823
tp1072
a(S'(.)'
p1073
g269
F0.4957
tp1074
a(S'will'
p1075
g6
F0.9787
tp1076
a(g113
g114
F0.9107
tp1077
a(S'xxx'
p1078
g6
F0.5906
tp1079
a(S'it'
p1080
g117
F0.9955
tp1081
a(g123
g26
F0.3718
tp1082
a(S'[/]'
p1083
g269
F0.2217
tp1084
a(S'xxx'
p1085
g6
F0.4383
tp1086
a(S'it'
p1087
g117
F0.9915
tp1088
a(g40
g26
F0.9988
tp1089
asI319
(lp1090
(S'he'
p1091
g117
F0.9944
tp1092
a(S'will'
p1093
g6
F0.9987
tp1094
a(S'xxx'
p1095
g6
F0.4384
tp1096
a(g40
g26
F0.9977
tp1097
asI322
(lp1098
(S'and'
p1099
g18
F0.9984
tp1100
a(S"he'll"
p1101
g225
F0.9607
tp1102
a(S'xxx'
p1103
g6
F0.426
tp1104
a(g40
g26
F0.9977
tp1105
asI325
(lp1106
(S'what'
p1107
g117
F0.9931
tp1108
a(S'do'
p1109
g6
F0.9993
tp1110
a(S'you'
p1111
g117
F0.9997
tp1112
a(S'think'
p1113
g6
F0.9944
tp1114
a(g25
g26
F0.9976
tp1115
asI330
(lp1116
(g180
g181
F0.9816
tp1117
a(S'[='
p1118
g30
F0.9666
tp1119
a(g33
g26
F0.9768
tp1120
a(S'screeching'
p1121
g6
F0.8932
tp1122
a(S'noises'
p1123
g15
F0.9869
tp1124
a(g62
g26
F0.9924
tp1125
a(g40
g26
F0.9959
tp1126
asI331
(lp1127
(S'(.)'
p1128
g30
F0.4881
tp1129
a(g113
g114
F0.6745
tp1130
a(S'no'
p1131
g33
F0.6733
tp1132
a(S'it'
p1133
g117
F0.9906
tp1134
a(S'was'
p1135
g6
F0.9985
tp1136
a(S'(.)'
p1137
g30
F0.3431
tp1138
a(S'two'
p1139
g181
F0.9714
tp1140
a(S'girls'
p1141
g15
F0.9988
tp1142
a(S'at'
p1143
g9
F0.9993
tp1144
a(S'[/]'
p1145
g36
F0.6475
tp1146
a(S'(.)'
p1147
g36
F0.7076
tp1148
a(S'at'
p1149
g9
F0.9905
tp1150
a(S'xxx'
p1151
g30
F0.5459
tp1152
a(g59
g26
F0.7575
tp1153
a(g33
g26
F0.9901
tp1154
a(g62
g26
F0.9363
tp1155
a(g123
g269
F0.3717
tp1156
a(S'[//]'
p1157
g269
F0.2383
tp1158
a(S'it'
p1159
g117
F0.9967
tp1160
a(S'was'
p1161
g6
F0.9997
tp1162
a(S'his'
p1163
g12
F0.9997
tp1164
a(S'name'
p1165
g15
F0.9996
tp1166
a(S'is'
p1167
g6
F0.9965
tp1168
a(S'+'
p1169
g18
F0.5264
tp1170
a(S'...'
p1171
g114
F0.6499
tp1172
asI334
(lp1173
(S'xxx'
p1174
g30
F0.4516
tp1175
a(S'it'
p1176
g117
F0.9951
tp1177
a(S'was'
p1178
g6
F0.9986
tp1179
a(S'xxx'
p1180
g30
F0.7956
tp1181
a(g59
g26
F0.6588
tp1182
a(g123
g30
F0.4438
tp1183
a(g62
g26
F0.7021
tp1184
a(S'+/'
p1185
g36
F0.1842
tp1186
a(g40
g26
F0.9959
tp1187
asI337
(lp1188
(g113
g114
F0.9374
tp1189
a(S'no'
p1190
g33
F0.8717
tp1191
a(g59
g26
F0.9883
tp1192
a(g33
g26
F0.9922
tp1193
a(g62
g26
F0.9771
tp1194
a(g116
g117
F0.9964
tp1195
a(S"don't>"
p1196
g6
F0.9998
tp1197
a(g59
g26
F0.9797
tp1198
a(g113
g114
F0.9635
tp1199
a(g62
g26
F0.9821
tp1200
a(S'know'
p1201
g6
F0.9942
tp1202
a(S'anything'
p1203
g15
F0.9968
tp1204
a(g40
g26
F0.998
tp1205
asI340
(lp1206
(S'all'
p1207
g12
F0.6944
tp1208
a(g116
g117
F0.9983
tp1209
a(S'know'
p1210
g6
F0.9984
tp1211
a(S'is'
p1212
g6
F0.9985
tp1213
a(S'you'
p1214
g117
F0.9938
tp1215
a(S'better'
p1216
g3
F0.5696
tp1217
a(S'eat'
p1218
g6
F0.7945
tp1219
a(g40
g26
F0.9983
tp1220
asI344
(lp1221
(S'(.)'
p1222
g36
F0.2991
tp1223
a(S'be'
p1224
g6
F0.9889
tp1225
a(S'quiet'
p1226
g23
F0.9428
tp1227
a(S'and'
p1228
g18
F0.9959
tp1229
a(S'eat'
p1230
g6
F0.971
tp1231
a(S'(.)'
p1232
g26
F0.327
tp1233
a(S'now'
p1234
g3
F0.9851
tp1235
a(g33
g26
F0.9988
tp1236
asI348
(lp1237
(S'okay'
p1238
g33
F0.9741
tp1239
a(g40
g26
F0.9977
tp1240
asI352
(lp1241
(g180
g181
F0.9816
tp1242
a(S'[='
p1243
g30
F0.9666
tp1244
a(g33
g26
F0.9772
tp1245
a(S'airplane'
p1246
g15
F0.8424
tp1247
a(S'noises'
p1248
g15
F0.9941
tp1249
a(g62
g26
F0.9924
tp1250
a(g40
g26
F0.9959
tp1251
asI354
(lp1252
(g18
g18
F0.9893
tp1253
a(g65
g26
F0.8588
tp1254
a(S'cries'
p1255
g15
F0.5335
tp1256
a(g40
g26
F0.9982
tp1257
asI355
(lp1258
(S'eat'
p1259
g6
F0.979
tp1260
a(S'the'
p1261
g12
F0.9995
tp1262
a(S'sandwich'
p1263
g15
F0.9989
tp1264
a(g40
g26
F0.9986
tp1265
asI358
(lp1266
(S'right'
p1267
g3
F0.7278
tp1268
a(S'now'
p1269
g3
F0.9867
tp1270
a(g40
g26
F0.9986
tp1271
asI362
(lp1272
(S'and'
p1273
g18
F0.9986
tp1274
a(S"don't"
p1275
g6
F0.9996
tp1276
a(S'rock'
p1277
g6
F0.9957
tp1278
a(S'this'
p1279
g12
F0.9406
tp1280
a(S'chair'
p1281
g15
F0.9953
tp1282
a(S'because'
p1283
g9
F0.9998
tp1284
a(S"you're"
p1285
g225
F0.9753
tp1286
a(S'gonna'
p1287
g6
F0.992
tp1288
a(S'break'
p1289
g6
F0.9996
tp1290
a(S'it'
p1291
g117
F0.9804
tp1292
a(g40
g26
F0.999
tp1293
asI369
(lp1294
(S'come'
p1295
g6
F0.9897
tp1296
a(S'on'
p1297
g9
F0.9193
tp1298
a(S"you're"
p1299
g225
F0.949
tp1300
a(S'gonna'
p1301
g6
F0.993
tp1302
a(S'eat'
p1303
g6
F0.9958
tp1304
a(g40
g26
F0.9977
tp1305
as.