(dp0
I0
(lp1
(S'now'
p2
S'R'
p3
F0.9927
tp4
a(S'get'
p5
S'V'
p6
F0.9987
tp7
a(S'in'
p8
S'P'
p9
F0.9199
tp10
a(S'your'
p11
S'D'
p12
F0.9923
tp13
a(S'chair'
p14
S'N'
p15
F0.9982
tp16
a(S'and'
p17
S'&'
p18
F0.9957
tp19
a(S'eat'
p20
g6
F0.9597
tp21
a(S'okay'
p22
S'!'
p23
F0.552
tp24
asI1
(lp25
(S'xxx'
p26
S'E'
p27
F0.7901
tp28
a(S'hey'
p29
g23
F0.9909
tp30
a(S'mot'
p31
g15
F0.3762
tp32
a(S'xxx'
p33
g27
F0.6438
tp34
asI2
(lp35
(S'eat'
p36
g6
F0.9893
tp37
a(S'your'
p38
g12
F0.9928
tp39
a(S'sandwich'
p40
g15
F0.999
tp41
asI3
(lp42
(S'keep'
p43
g6
F0.9817
tp44
a(S'the'
p45
g12
F0.9919
tp46
a(S'xxx'
p47
g15
F0.8391
tp48
a(S'out'
p49
g9
F0.8709
tp50
a(S'grunting'
p51
g6
F0.995
tp52
asI4
(lp53
(S'chi'
p54
S'^'
p55
F0.6543
tp56
a(S'stop'
p57
g6
F0.9791
tp58
a(S'singin'
p59
g6
F0.9531
tp60
a(S'g'
p61
g15
F0.3676
tp62
a(S'at'
p63
g9
F0.9998
tp64
a(S'the'
p65
g12
F0.9992
tp66
a(S'table'
p67
g15
F0.9873
tp68
a(S'and'
p69
g18
F0.9962
tp70
a(S'eat'
p71
g6
F0.9764
tp72
asI5
(lp73
(S'yeah'
p74
g23
F0.9894
tp75
a(S'giggling'
p76
g6
F0.9899
tp77
asI6
(lp78
(S'be'
p79
g6
F0.9951
tp80
a(S'a'
p81
g12
F0.9826
tp82
a(S'good'
p83
S'A'
p84
F0.998
tp85
a(S'boy'
p86
g15
F0.9978
tp87
a(S'and'
p88
g18
F0.9966
tp89
a(S'eat'
p90
g6
F0.9728
tp91
asI7
(lp92
(S'i'
p93
S'O'
p94
F0.9635
tp95
a(S'don'
p96
g6
F0.9156
tp97
a(S't'
p98
g15
F0.3074
tp99
a(S'know'
p100
g6
F0.965
tp101
asI8
(lp102
(S'drink'
p103
g6
F0.9677
tp104
a(S'your'
p105
g12
F0.983
tp106
a(S'milk'
p107
g15
F0.9995
tp108
a(S'eat'
p109
g6
F0.8721
tp110
asI9
(lp111
(S'sit'
p112
g6
F0.972
tp113
a(S'there'
p114
g3
F0.895
tp115
a(S'and'
p116
g18
F0.9971
tp117
a(S'eat'
p118
g6
F0.9602
tp119
asI10
(lp120
(S'no'
p121
g23
F0.9253
tp122
asI11
(lp123
(g93
g94
F0.9897
tp124
a(S'want'
p125
g6
F0.9999
tp126
a(S'to'
p127
g9
F0.9892
tp128
a(S'sit'
p129
g6
F0.9975
tp130
a(S'there'
p131
g3
F0.7774
tp132
asI12
(lp133
(S'eat'
p134
g6
F0.8267
tp135
asI13
(lp136
(S'0'
p137
S'$'
p138
F0.988
tp139
a(S'high'
p140
g84
F0.5118
tp141
a(S'pitched'
p142
g84
F0.8099
tp143
a(S'noises'
p144
g15
F0.9973
tp145
asI14
(lp146
(S'chi'
p147
g23
F0.4684
tp148
asI15
(lp149
(S'growl'
p150
g15
F0.7714
tp151
asI16
(lp152
(S'if'
p153
g9
F0.9977
tp154
a(S'you'
p155
g94
F0.9995
tp156
a(S'don'
p157
g6
F0.8576
tp158
a(g98
g9
F0.2781
tp159
a(S'eat'
p160
g6
F0.9627
tp161
a(S'then'
p162
g3
F0.957
tp163
a(S'we'
p164
g94
F0.9936
tp165
a(S're'
p166
g6
F0.6836
tp167
a(S'not'
p168
g3
F0.9966
tp169
a(S'gonna'
p170
g6
F0.9967
tp171
a(S'go'
p172
g6
F0.9992
tp173
a(S'to'
p174
g9
F0.9987
tp175
a(S'the'
p176
g12
F0.999
tp177
a(S'beach'
p178
g15
F0.9373
tp179
asI17
(lp180
(S'hey'
p181
g23
F0.9955
tp182
a(S'please'
p183
g6
F0.8337
tp184
asI18
(lp185
(S'then'
p186
g3
F0.9732
tp187
a(S'sit'
p188
g6
F0.9438
tp189
a(S'and'
p190
g18
F0.9938
tp191
a(S'eat'
p192
g6
F0.9973
tp193
a(S'your'
p194
g12
F0.9934
tp195
a(S'sandwich'
p196
g15
F0.9982
tp197
asI19
(lp198
(S'can'
p199
g6
F0.9946
tp200
a(S'we'
p201
g94
F0.994
tp202
a(S'can'
p203
g6
F0.9999
tp204
a(S'we'
p205
g94
F0.9869
tp206
a(S'xxx'
p207
g6
F0.6243
tp208
a(S'go'
p209
g6
F0.9916
tp210
a(S'to'
p211
g9
F0.9986
tp212
a(S'the'
p213
g12
F0.9987
tp214
a(S'beach'
p215
g15
F0.9597
tp216
asI20
(lp217
(S'yeah'
p218
g23
F0.9962
tp219
a(S'but'
p220
g18
F0.9942
tp221
a(S'we'
p222
g94
F0.9987
tp223
a(S'have'
p224
g6
F0.9996
tp225
a(S'to'
p226
g9
F0.998
tp227
a(S'get'
p228
g6
F0.9999
tp229
a(g81
g12
F0.9981
tp230
a(S'car'
p231
g15
F0.992
tp232
a(S'first'
p233
g84
F0.5522
tp234
asI21
(lp235
(S'so'
p236
g9
F0.6866
tp237
a(S'why'
p238
g3
F0.9573
tp239
a(S'don'
p240
g15
F0.278
tp241
a(g98
g6
F0.5356
tp242
a(S'you'
p243
g94
F0.9991
tp244
a(S'just'
p245
g3
F0.9996
tp246
a(S'sit'
p247
g6
F0.9965
tp248
a(S'there'
p249
g3
F0.9416
tp250
a(S'and'
p251
g18
F0.9972
tp252
a(S'be'
p253
g6
F0.999
tp254
a(g81
g12
F0.9805
tp255
a(S'good'
p256
g84
F0.9987
tp257
a(S'boy'
p258
g15
F0.9977
tp259
asI22
(lp260
(g93
g94
F0.9912
tp261
a(S'know'
p262
g6
F0.9987
tp263
a(S'xxx'
p264
g27
F0.6949
tp265
asI23
(lp266
(S'okay'
p267
g23
F0.9309
tp268
a(S'good'
p269
g84
F0.9919
tp270
asI24
(lp271
(S'what'
p272
g94
F0.9962
tp273
a(S'is'
p274
g6
F0.9992
tp275
a(S'that'
p276
g12
F0.7855
tp277
a(S'stuff'
p278
g15
F0.9977
tp279
asI25
(lp280
(S'you'
p281
g94
F0.9942
tp282
a(S'just'
p283
g3
F0.9992
tp284
a(S'gotta'
p285
g6
F0.9995
tp286
a(S'wait'
p287
g6
F0.9937
tp288
a(S'chi'
p289
g55
F0.6914
tp290
a(S'and'
p291
g18
F0.9981
tp292
a(S'eat'
p293
g6
F0.9818
tp294
a(S'what'
p295
g94
F0.9896
tp296
a(S's'
p297
g6
F0.4413
tp298
a(S'in'
p299
g9
F0.961
tp300
a(S'front'
p301
g15
F0.9005
tp302
a(S'o'
p303
g9
F0.9103
tp304
a(S'f'
p305
g6
F0.3421
tp306
a(S'you'
p307
g94
F0.999
tp308
a(S'and'
p309
g18
F0.9937
tp310
a(S'then'
p311
g3
F0.992
tp312
a(g93
g94
F0.9889
tp313
a(S'll'
p314
g6
F0.7746
tp315
a(S'give'
p316
g6
F0.9995
tp317
a(S'you'
p318
g94
F0.9938
tp319
a(S'this'
p320
g12
F0.8421
tp321
asI26
(lp322
(S'oh'
p323
g23
F0.9963
tp324
a(S'xxx'
p325
g27
F0.6977
tp326
asI27
(lp327
(S'okay'
p328
g23
F0.9857
tp329
asI28
(lp330
(S'yeah'
p331
g23
F0.9988
tp332
asI29
(lp333
(S'hey'
p334
g23
F0.9929
tp335
a(S'xxx'
p336
g27
F0.7816
tp337
a(S'xxx'
p338
g27
F0.9376
tp339
a(S'taking'
p340
g6
F0.9988
tp341
a(S'that'
p342
g12
F0.8575
tp343
a(S'big'
p344
g84
F0.9562
tp345
a(S'car'
p346
g15
F0.9982
tp347
asI30
(lp348
(g93
g94
F0.9635
tp349
a(S'don'
p350
g6
F0.9231
tp351
a(g98
g15
F0.2457
tp352
a(S'know'
p353
g6
F0.9852
tp354
a(S'yet'
p355
g3
F0.9614
tp356
a(S'chi'
p357
g55
F0.3504
tp358
asI31
(lp359
(S'we'
p360
g94
F0.9973
tp361
a(S'have'
p362
g6
F0.9996
tp363
a(S'to'
p364
g9
F0.9967
tp365
a(S'get'
p366
g6
F0.9998
tp367
a(S'in'
p368
g9
F0.9147
tp369
a(S'touch'
p370
g15
F0.9618
tp371
a(S'with'
p372
g9
F0.9978
tp373
a(S'daddy'
p374
g15
F0.9781
tp375
a(S'and'
p376
g18
F0.998
tp377
a(S'then'
p378
g3
F0.98
tp379
a(S'we'
p380
g94
F0.9971
tp381
a(S'll'
p382
g6
F0.5689
tp383
a(S'go'
p384
g6
F0.9936
tp385
a(S'see'
p386
g6
F0.8828
tp387
asI32
(lp388
(S'xxx'
p389
g27
F0.8437
tp390
asI33
(lp391
(S'by'
p392
g9
F0.9554
tp393
a(S'by'
p394
g9
F0.9982
tp395
a(S'the'
p396
g12
F0.9991
tp397
a(S'beach'
p398
g15
F0.9466
tp399
asI34
(lp400
(S'yeah'
p401
g23
F0.9988
tp402
asI35
(lp403
(S'oh'
p404
g23
F0.9988
tp405
asI36
(lp406
(S'they'
p407
g94
F0.9104
tp408
a(S're'
p409
g6
F0.7107
tp410
a(S'getting'
p411
g6
F0.9968
tp412
a(S'wet'
p413
g84
F0.9103
tp414
asI37
(lp415
(S'just'
p416
g3
F0.9991
tp417
a(S'eat'
p418
g6
F0.9864
tp419
asI38
(lp420
(S'don'
p421
g55
F0.5427
tp422
a(g98
g55
F0.478
tp423
a(S'eat'
p424
g6
F0.7647
tp425
a(S'wit'
p426
g9
F0.9082
tp427
a(S'h'
p428
S'G'
p429
F0.4695
tp430
a(S'your'
p431
g12
F0.9712
tp432
a(S'mouth'
p433
g15
F0.9992
tp434
a(S'full'
p435
g84
F0.949
tp436
a(S'just'
p437
g3
F0.9996
tp438
a(S'eat'
p439
g6
F0.9908
tp440
asI39
(lp441
(S'get'
p442
g6
F0.9899
tp443
a(S'wet'
p444
g84
F0.9751
tp445
asI40
(lp446
(S'chi'
p447
g23
F0.4684
tp448
asI41
(lp449
(S'don'
p450
g55
F0.5427
tp451
a(g98
g55
F0.5014
tp452
a(S'talk'
p453
g6
F0.9656
tp454
a(S'with'
p455
g9
F0.9996
tp456
a(S'your'
p457
g12
F0.9979
tp458
a(S'mouth'
p459
g15
F0.9992
tp460
a(S'full'
p461
g84
F0.9571
tp462
a(S'eat'
p463
g6
F0.4878
tp464
asI42
(lp465
(S'do'
p466
g6
F0.9835
tp467
a(S'what'
p468
g94
F0.9858
tp469
a(g93
g94
F0.9949
tp470
a(S'asked'
p471
g6
F0.9982
tp472
asI43
(lp473
(S'mot'
p474
g23
F0.3458
tp475
asI44
(lp476
(S'chi'
p477
g23
F0.4684
tp478
asI45
(lp479
(S'xxx'
p480
g27
F0.7728
tp481
a(g93
g94
F0.9829
tp482
a(S'can'
p483
g6
F0.9996
tp484
a(g98
g6
F0.7649
tp485
a(S'go'
p486
g6
F0.9968
tp487
a(S'out'
p488
S'T'
p489
F0.5844
tp490
a(S'0and'
p491
g3
F0.5004
tp492
a(S'play'
p493
g6
F0.9891
tp494
a(S'with'
p495
g9
F0.9933
tp496
a(S'lydia'
p497
g55
F0.9906
tp498
asI46
(lp499
(S'are'
p500
g6
F0.987
tp501
a(S'we'
p502
g94
F0.9991
tp503
a(S'gonna'
p504
g6
F0.9995
tp505
a(S'go'
p506
g6
F0.9992
tp507
a(S'to'
p508
g9
F0.9972
tp509
a(S'the'
p510
g12
F0.9986
tp511
a(S'beach'
p512
g15
F0.9225
tp513
asI47
(lp514
(S'chi'
p515
g23
F0.4684
tp516
asI48
(lp517
(S'marky'
p518
g55
F0.9945
tp519
a(S'will'
p520
g6
F0.9678
tp521
a(S'love'
p522
g6
F0.9978
tp523
a(S'it'
p524
g94
F0.994
tp525
asI49
(lp526
(S'marky'
p527
g55
F0.9945
tp528
a(S'will'
p529
g6
F0.9678
tp530
a(S'love'
p531
g6
F0.9978
tp532
a(S'it'
p533
g94
F0.994
tp534
asI50
(lp535
(S'yes'
p536
g23
F0.9834
tp537
a(S'he'
p538
g94
F0.9968
tp539
a(S'will'
p540
g6
F0.9994
tp541
a(S'love'
p542
g6
F0.9968
tp543
a(S'it'
p544
g94
F0.9938
tp545
asI51
(lp546
(S'xxx'
p547
g27
F0.7728
tp548
a(g93
g94
F0.9855
tp549
a(S'want'
p550
g6
F1.0
tp551
a(S'you'
p552
g94
F0.9988
tp553
a(S'to'
p554
g9
F0.9801
tp555
a(S'eat'
p556
g6
F0.9913
tp557
asI52
(lp558
(S'if'
p559
g9
F0.9977
tp560
a(S'you'
p561
g94
F0.9995
tp562
a(S'don'
p563
g6
F0.8576
tp564
a(g98
g9
F0.2781
tp565
a(S'eat'
p566
g6
F0.9816
tp567
a(S'we'
p568
g94
F0.9948
tp569
a(S're'
p570
g6
F0.6836
tp571
a(S'not'
p572
g3
F0.9971
tp573
a(S'going'
p574
g6
F0.9992
tp575
a(S'anywhere'
p576
g3
F0.9852
tp577
asI53
(lp578
(S'please'
p579
g6
F0.8246
tp580
asI54
(lp581
(S'just'
p582
g3
F0.9991
tp583
a(S'eat'
p584
g6
F0.9864
tp585
asI55
(lp586
(S'when'
p587
g3
F0.9804
tp588
a(S'you'
p589
g94
F0.9918
tp590
a(S're'
p591
g6
F0.7906
tp592
a(S'done'
p593
g6
F0.9488
tp594
a(S'when'
p595
g3
F0.9873
tp596
a(S'you'
p597
g94
F0.9924
tp598
a(S're'
p599
g6
F0.7974
tp600
a(S'done'
p601
g6
F0.98
tp602
a(S'with'
p603
g9
F0.9979
tp604
a(S'that'
p605
g12
F0.5309
tp606
a(g93
g94
F0.9566
tp607
a(S've'
p608
g6
F0.866
tp609
a(S'got'
p610
g6
F0.9975
tp611
a(S'some'
p612
g12
F0.9525
tp613
a(S'more'
p614
g84
F0.9794
tp615
a(S'sandwich'
p616
g15
F0.9981
tp617
asI56
(lp618
(S'who'
p619
g94
F0.9978
tp620
a(S'is'
p621
g6
F0.9999
tp622
a(S'that'
p623
g94
F0.9565
tp624
asI57
(lp625
(S'oh'
p626
g23
F0.9988
tp627
asI58
(lp628
(g93
g94
F0.953
tp629
a(S'm'
p630
g6
F0.9875
tp631
a(S'done'
p632
g6
F0.9786
tp633
a(S'wit'
p634
g9
F0.9424
tp635
a(g428
g15
F0.4595
tp636
a(S'wit'
p637
g9
F0.9518
tp638
a(g428
g429
F0.2474
tp639
a(S'these'
p640
g94
F0.4603
tp641
asI59
(lp642
(S'no'
p643
g23
F0.6674
tp644
a(S'no'
p645
g23
F0.4752
tp646
a(S'no'
p647
g12
F0.3575
tp648
a(S'no'
p649
g15
F0.3645
tp650
a(S'no'
p651
g9
F0.2458
tp652
a(S'you'
p653
g94
F0.9861
tp654
a(S're'
p655
g6
F0.7229
tp656
a(S'not'
p657
g3
F0.9971
tp658
a(S'done'
p659
g6
F0.9738
tp660
asI60
(lp661
(S'fine'
p662
g84
F0.9079
tp663
asI61
(lp664
(S'singing'
p665
g6
F0.9945
tp666
asI62
(lp667
(S'mot'
p668
g23
F0.3458
tp669
asI63
(lp670
(S'chi'
p671
g23
F0.4684
tp672
asI64
(lp673
(S'keep'
p674
g6
F0.8926
tp675
a(S'eating'
p676
g6
F0.9856
tp677
asI65
(lp678
(S'xxx'
p679
g27
F0.5908
tp680
a(S'the'
p681
g12
F0.9975
tp682
a(S'room'
p683
g15
F0.9966
tp684
asI66
(lp685
(S'mom'
p686
g15
F0.7665
tp687
a(S'don'
p688
g6
F0.4773
tp689
a(g98
g15
F0.2417
tp690
a(S'put'
p691
g6
F0.797
tp692
a(S'xxx'
p693
g27
F0.4217
tp694
a(S'beach'
p695
g15
F0.834
tp696
asI67
(lp697
(S'not'
p698
g3
F0.9972
tp699
a(S'yet'
p700
g3
F0.9661
tp701
asI68
(lp702
(S'oh'
p703
g23
F0.9988
tp704
asI69
(lp705
(S'we'
p706
g94
F0.9849
tp707
a(S're'
p708
g6
F0.5552
tp709
a(S'obviously'
p710
g3
F0.9974
tp711
a(S'not'
p712
g3
F0.9986
tp713
a(S'gonna'
p714
g6
F0.9967
tp715
a(S'go'
p716
g6
F0.9993
tp717
a(S'unless'
p718
g9
F0.9949
tp719
a(S'we'
p720
g94
F0.9992
tp721
a(S'get'
p722
g6
F1.0
tp723
a(S'our'
p724
g12
F0.9981
tp725
a(S'car'
p726
g15
F0.9984
tp727
a(S'from'
p728
g9
F0.9988
tp729
a(S'daddy'
p730
g15
F0.9796
tp731
asI70
(lp732
(S'alright'
p733
g23
F0.9864
tp734
asI71
(lp735
(S'so'
p736
g3
F0.6273
tp737
a(S'just'
p738
g3
F0.9995
tp739
a(S'eat'
p740
g6
F0.9896
tp741
asI72
(lp742
(S'hot'
p743
g84
F0.8061
tp744
asI73
(lp745
(S'xxx'
p746
g27
F0.6944
tp747
a(S'daddy'
p748
g15
F0.9634
tp749
asI74
(lp750
(S'xxx'
p751
g27
F0.8437
tp752
asI75
(lp753
(S'chi'
p754
g429
F0.4692
tp755
a(S'the'
p756
g12
F0.9948
tp757
a(S'longer'
p758
g3
F0.6609
tp759
a(S'you'
p760
g94
F0.9976
tp761
a(S'keep'
p762
g6
F0.9957
tp763
a(S'talkin'
p764
g6
F0.7831
tp765
a(g61
g9
F0.3823
tp766
a(S'the'
p767
g12
F0.9965
tp768
a(S'longer'
p769
g3
F0.6545
tp770
a(S'you'
p771
g94
F0.9907
tp772
a(S're'
p773
g6
F0.5665
tp774
a(S'gonna'
p775
g6
F0.9928
tp776
a(S'going'
p777
g6
F0.9999
tp778
a(S'to'
p779
g9
F0.9832
tp780
a(S'sit'
p781
g6
F0.9986
tp782
a(S'there'
p783
g3
F0.7399
tp784
asI76
(lp785
(S'no'
p786
g23
F0.557
tp787
a(S'laughs'
p788
g6
F0.7527
tp789
asI77
(lp790
(S'just'
p791
g3
F0.9991
tp792
a(S'eat'
p793
g6
F0.9864
tp794
asI78
(lp795
(g93
g94
F0.9869
tp796
a(S'gonna'
p797
g6
F0.9997
tp798
a(S'go'
p799
g6
F0.9993
tp800
a(S'to'
p801
g9
F0.9985
tp802
a(S'the'
p803
g12
F0.9989
tp804
a(S'beach'
p805
g15
F0.9138
tp806
asI79
(lp807
(S'you'
p808
g94
F0.998
tp809
a(S'have'
p810
g6
F0.9994
tp811
a(S'to'
p812
g9
F0.9934
tp813
a(S'finish'
p814
g6
F0.9968
tp815
a(S'eating'
p816
g6
F0.9995
tp817
a(S'your'
p818
g12
F0.9878
tp819
a(S'sandwich'
p820
g15
F0.9983
tp821
asI80
(lp822
(S'marky'
p823
g55
F0.9945
tp824
a(S'will'
p825
g6
F0.9654
tp826
a(S'love'
p827
g6
F0.9985
tp828
a(S'it'
p829
g94
F0.9915
tp830
a(S'marky'
p831
g55
F0.9716
tp832
a(S'will'
p833
g6
F0.9518
tp834
a(S'love'
p835
g6
F0.9981
tp836
a(S'it'
p837
g94
F0.9964
tp838
asI81
(lp839
(S'he'
p840
g94
F0.9944
tp841
a(S'will'
p842
g6
F0.9986
tp843
a(S'will'
p844
g6
F0.9976
tp845
a(S'will'
p846
g6
F0.9983
tp847
a(S'xxx'
p848
g6
F0.932
tp849
a(S'it'
p850
g94
F0.9931
tp851
a(S'xxx'
p852
g6
F0.8257
tp853
a(S'it'
p854
g94
F0.9939
tp855
asI82
(lp856
(S'he'
p857
g94
F0.9938
tp858
a(S'will'
p859
g6
F0.9987
tp860
a(S'xxx'
p861
g27
F0.4596
tp862
asI83
(lp863
(S'and'
p864
g18
F0.9989
tp865
a(S'he'
p866
g94
F0.9962
tp867
a(S'll'
p868
g6
F0.5313
tp869
a(S'xxx'
p870
g27
F0.7814
tp871
asI84
(lp872
(S'what'
p873
g94
F0.9931
tp874
a(S'do'
p875
g6
F0.9991
tp876
a(S'you'
p877
g94
F0.9997
tp878
a(S'think'
p879
g6
F0.9972
tp880
asI85
(lp881
(g137
g138
F0.9779
tp882
a(S'screeching'
p883
g15
F0.8029
tp884
a(S'noises'
p885
g15
F0.9931
tp886
asI86
(lp887
(S'no'
p888
g23
F0.7608
tp889
a(S'it'
p890
g94
F0.9921
tp891
a(S'was'
p892
g6
F0.9991
tp893
a(S'two'
p894
g138
F0.9399
tp895
a(S'girls'
p896
g15
F0.9988
tp897
a(S'at'
p898
g9
F0.9971
tp899
a(S'at'
p900
g9
F0.9034
tp901
a(S'xxx'
p902
g6
F0.2926
tp903
a(S'it'
p904
g94
F0.9972
tp905
a(S'was'
p906
g6
F0.9997
tp907
a(S'his'
p908
g12
F0.9998
tp909
a(S'name'
p910
g15
F0.9996
tp911
a(S'is'
p912
g6
F0.9952
tp913
asI87
(lp914
(S'xxx'
p915
g27
F0.4516
tp916
a(S'it'
p917
g94
F0.9955
tp918
a(S'was'
p919
g6
F0.9986
tp920
a(S'xxx'
p921
g27
F0.7732
tp922
asI88
(lp923
(S'no'
p924
g23
F0.6532
tp925
a(g93
g94
F0.9261
tp926
a(S'don'
p927
g6
F0.9187
tp928
a(g98
g15
F0.2903
tp929
a(S'know'
p930
g6
F0.9972
tp931
a(S'anything'
p932
g15
F0.9868
tp933
asI89
(lp934
(S'all'
p935
g12
F0.9491
tp936
a(g93
g94
F0.9877
tp937
a(S'know'
p938
g6
F0.9983
tp939
a(S'is'
p940
g6
F0.9985
tp941
a(S'you'
p942
g94
F0.9938
tp943
a(S'better'
p944
g3
F0.5696
tp945
a(S'eat'
p946
g6
F0.8508
tp947
asI90
(lp948
(S'be'
p949
g6
F0.9862
tp950
a(S'quiet'
p951
g84
F0.9762
tp952
a(S'and'
p953
g18
F0.9961
tp954
a(S'eat'
p955
g6
F0.9715
tp956
a(S'now'
p957
g3
F0.9943
tp958
asI91
(lp959
(S'okay'
p960
g23
F0.9857
tp961
asI92
(lp962
(g137
g138
F0.9873
tp963
a(S'airplane'
p964
g15
F0.9881
tp965
a(S'noises'
p966
g15
F0.9916
tp967
asI93
(lp968
(S'cries'
p969
g6
F0.6365
tp970
asI94
(lp971
(S'eat'
p972
g6
F0.9772
tp973
a(S'the'
p974
g12
F0.9995
tp975
a(S'sandwich'
p976
g15
F0.9964
tp977
asI95
(lp978
(S'right'
p979
g3
F0.7278
tp980
a(S'now'
p981
g3
F0.9839
tp982
asI96
(lp983
(S'and'
p984
g18
F0.9975
tp985
a(S'don'
p986
g6
F0.3559
tp987
a(g98
g15
F0.2761
tp988
a(S'rock'
p989
g6
F0.8698
tp990
a(S'this'
p991
g12
F0.9317
tp992
a(S'chair'
p993
g15
F0.9953
tp994
a(S'because'
p995
g9
F0.9997
tp996
a(S'you'
p997
g94
F0.9978
tp998
a(S're'
p999
g6
F0.5665
tp1000
a(S'gonna'
p1001
g6
F0.9876
tp1002
a(S'break'
p1003
g6
F0.9995
tp1004
a(S'it'
p1005
g94
F0.9849
tp1006
asI97
(lp1007
(S'come'
p1008
g6
F0.9897
tp1009
a(S'on'
p1010
g9
F0.9533
tp1011
a(S'you'
p1012
g94
F0.9961
tp1013
a(S're'
p1014
g15
F0.5494
tp1015
a(S'gonna'
p1016
g6
F0.9966
tp1017
a(S'eat'
p1018
g6
F0.9948
tp1019
as.