(dp0
I128
(lp1
(S'did'
p2
S'V'
p3
F0.9986
tp4
a(S'you'
p5
S'O'
p6
F0.9987
tp7
a(S'eat'
p8
g3
F0.9997
tp9
a(S'all'
p10
S'D'
p11
F0.8457
tp12
a(S'your'
p13
g11
F0.9868
tp14
a(S'lunch'
p15
S'N'
p16
F0.9916
tp17
a(S'?'
p18
S','
p19
F0.9975
tp20
asI258
(lp21
(S'huh'
p22
S'!'
p23
F0.9936
tp24
a(g18
g19
F0.9967
tp25
asI235
(lp26
(S'mommy'
p27
g16
F0.703
tp28
a(S'I'
p29
g6
F0.9949
tp30
a(S'found'
p31
g3
F1.0
tp32
a(S'a'
p33
g11
F0.996
tp34
a(S'ketchup'
p35
g16
F0.9969
tp36
a(S'in'
p37
S'P'
p38
F0.9982
tp39
a(S'it'
p40
g6
F0.9924
tp41
a(S'.'
p42
g19
F0.999
tp43
asI132
(lp44
(S'yeah'
p45
g23
F0.9986
tp46
a(g42
g19
F0.997
tp47
asI262
(lp48
(S'drink'
p49
g3
F0.9677
tp50
a(S'your'
p51
g11
F0.985
tp52
a(S'juice'
p53
g16
F0.9978
tp54
a(g42
g19
F0.9986
tp55
asI135
(lp56
(S'what'
p57
g6
F0.9965
tp58
a(S'did'
p59
g3
F0.9994
tp60
a(S'you'
p61
g6
F0.9994
tp62
a(S'have'
p63
g3
F0.9993
tp64
a(S'for'
p65
g38
F0.9979
tp66
a(S'lunch'
p67
g16
F0.8763
tp68
a(g18
g19
F0.9975
tp69
asI265
(lp70
(S'okay'
p71
g23
F0.9741
tp72
a(g42
g19
F0.9977
tp73
asI139
(lp74
(g29
g6
F0.9983
tp75
a(S'had'
p76
g3
F0.9996
tp77
a(S'lunch'
p78
g16
F0.8152
tp79
a(S'(.)'
p80
g19
F0.3093
tp81
a(S'and'
p82
S'&'
p83
F0.9995
tp84
a(g29
g6
F0.9992
tp85
a(S'had'
p86
g3
F0.9998
tp87
a(S'0an'
p88
S'A'
p89
F0.2648
tp90
a(S'orange'
p91
g89
F0.6314
tp92
a(S'in'
p93
g38
F0.9974
tp94
a(S'my'
p95
g11
F0.9978
tp96
a(S'book'
p97
g16
F0.9857
tp98
a(S'bag'
p99
g16
F0.9951
tp100
a(g42
g19
F0.9993
tp101
asI194
(lp102
(S'what'
p103
g6
F0.9171
tp104
a(g18
g19
F0.9924
tp105
asI14
(lp106
(S'xxx'
p107
S'E'
p108
F0.6888
tp109
a(S'sit'
p110
g3
F0.9918
tp111
a(S'down'
p112
S'T'
p113
F0.7867
tp114
a(S'and'
p115
g83
F0.9959
tp116
a(S'eat'
p117
g3
F0.9984
tp118
a(S'your'
p119
g11
F0.993
tp120
a(S'food'
p121
g16
F0.9987
tp122
a(g42
g19
F0.9984
tp123
asI145
(lp124
(S'Mom'
p125
g16
F0.7517
tp126
a(S'xxx'
p127
g3
F0.3311
tp128
a(S'my'
p129
g11
F0.9962
tp130
a(S'book'
p131
g16
F0.9816
tp132
a(S'bag'
p133
g16
F0.7389
tp134
a(S'you'
p135
g6
F0.9786
tp136
a(g42
g19
F0.9995
tp137
asI18
(lp138
(S'mm'
p139
g23
F0.5842
tp140
a(g42
g19
F0.9932
tp141
asI148
(lp142
(S'Mom'
p143
g16
F0.5411
tp144
a(S'you'
p145
g6
F0.997
tp146
a(S'remember'
p147
g3
F0.995
tp148
a(g18
g19
F0.9976
tp149
asI21
(lp150
(S'okay'
p151
g23
F0.9527
tp152
a(S"you'd"
p153
S'L'
p154
F0.9588
tp155
a(S'like'
p156
g3
F0.9216
tp157
a(S'your'
p158
g11
F0.9798
tp159
a(S'rice'
p160
g16
F0.9926
tp161
a(g18
g19
F0.9971
tp162
asI152
(lp163
(S'lost'
p164
g3
F0.955
tp165
a(S'my'
p166
g11
F0.9398
tp167
a(S'xxx'
p168
g16
F0.9068
tp169
a(g42
g19
F0.9983
tp170
asI25
(lp171
(S'eat'
p172
g3
F0.9933
tp173
a(S'it'
p174
g6
F0.9756
tp175
a(S'all'
p176
g11
F0.6734
tp177
a(S'up'
p178
g113
F0.4673
tp179
a(g42
g19
F0.9981
tp180
asI155
(lp181
(S'can'
p182
g3
F0.999
tp183
a(S'you'
p184
g6
F0.9987
tp185
a(S'buy'
p186
g3
F0.9997
tp187
a(S'me'
p188
g6
F0.9892
tp189
a(S'another'
p190
g11
F0.9616
tp191
a(S'one'
p192
S'$'
p193
F0.8455
tp194
a(g18
g19
F0.9965
tp195
asI28
(lp196
(S'there'
p197
S'R'
p198
F0.5362
tp199
a(S'you'
p200
g6
F0.9982
tp201
a(S'go'
p202
g3
F0.9916
tp203
a(g42
g19
F0.998
tp204
asI248
(lp205
(S'finished'
p206
g3
F0.9745
tp207
a(g18
g19
F0.9967
tp208
asI31
(lp209
(S"what's"
p210
g154
F0.9911
tp211
a(S'that'
p212
g6
F0.7339
tp213
a(g18
g19
F0.9981
tp214
asI35
(lp215
(S'oh'
p216
g23
F0.9903
tp217
a(S'gotta'
p218
g3
F0.9784
tp219
a(S'look'
p220
g3
F0.9921
tp221
a(S'for'
p222
g38
F0.9998
tp223
a(S'the'
p224
g11
F0.9992
tp225
a(S'meat'
p226
g16
F0.9932
tp227
a(g42
g19
F0.9985
tp228
asI198
(lp229
(S'bubble'
p230
g16
F0.5279
tp231
a(g23
g19
F0.9986
tp232
asI38
(lp233
(S'you'
p234
g6
F0.9923
tp235
a(S'like'
p236
g3
F0.8119
tp237
a(S'your'
p238
g11
F0.9748
tp239
a(S'meat'
p240
g16
F0.9971
tp241
a(g18
g19
F0.9981
tp242
asI168
(lp243
(S'you'
p244
g6
F0.9899
tp245
a(S"won't"
p246
g3
F0.9932
tp247
a(S'come'
p248
g3
F0.9995
tp249
a(S'back'
p250
g198
F0.9729
tp251
a(S'here'
p252
g198
F0.9837
tp253
a(g42
g19
F0.9982
tp254
asI42
(lp255
(S'hm'
p256
g23
F0.9699
tp257
a(S':'
p258
g19
F0.7686
tp259
a(S'['
p260
g19
F0.816
tp261
a(S'x'
p262
g108
F0.4859
tp263
a(S'2'
p264
g193
F0.5647
tp265
a(S']'
p266
g19
F0.975
tp267
a(g18
g19
F0.9959
tp268
asI172
(lp269
(S"I'm"
p270
g154
F0.9951
tp271
a(S'want'
p272
g3
F0.9995
tp273
a(S'you'
p274
g6
F0.9996
tp275
a(S'here'
p276
g198
F0.985
tp277
a(g42
g19
F0.9987
tp278
asI46
(lp279
(S'are'
p280
g3
F0.9964
tp281
a(S'you'
p282
g6
F0.9992
tp283
a(S'eating'
p284
g3
F1.0
tp285
a(S'it'
p286
g6
F0.9795
tp287
a(S'all'
p288
g11
F0.6597
tp289
a(S'up'
p290
g113
F0.6032
tp291
a(S'like'
p292
g38
F0.9596
tp293
a(g33
g11
F0.9965
tp294
a(S'big'
p295
g89
F0.986
tp296
a(S'boy'
p297
g16
F0.9962
tp298
a(g18
g19
F0.998
tp299
asI176
(lp300
(g29
g6
F0.9981
tp301
a(S'made'
p302
g3
F0.9999
tp303
a(g33
g11
F0.9978
tp304
a(S'bubble'
p305
g16
F0.876
tp306
a(g23
g19
F0.999
tp307
asI179
(lp308
(S'hello'
p309
g23
F0.9937
tp310
a(g18
g19
F0.9965
tp311
asI53
(lp312
(S'am'
p313
g3
F0.922
tp314
a(g29
g6
F0.9994
tp315
a(S'gonna'
p316
g3
F0.9999
tp317
a(S'be'
p318
g3
F0.9984
tp319
a(S'strong'
p320
g89
F0.9611
tp321
a(g18
g19
F0.9968
tp322
asI182
(lp323
(S'hi'
p324
g23
F0.9698
tp325
a(g260
g19
F0.9835
tp326
a(S'>'
p327
g108
F0.3811
tp328
a(g266
g19
F0.551
tp329
a(g23
g19
F0.997
tp330
asI201
(lp331
(S'xxx'
p332
g108
F0.5822
tp333
a(g42
g19
F0.9648
tp334
asI57
(lp335
(S'yeah'
p336
g23
F0.9973
tp337
a(S"you're"
p338
g154
F0.9883
tp339
a(S'gonna'
p340
g3
F0.9971
tp341
a(S'be'
p342
g3
F0.999
tp343
a(S'strong'
p344
g89
F0.9839
tp345
a(S'(.)'
p346
g19
F0.3474
tp347
a(S'so'
p348
g38
F0.6197
tp349
a(S'eat'
p350
g3
F0.9866
tp351
a(S'up'
p352
g113
F0.934
tp353
a(S'all'
p354
g11
F0.8029
tp355
a(S'your'
p356
g11
F0.9878
tp357
a(S'food'
p358
g16
F0.999
tp359
a(g42
g19
F0.9979
tp360
asI159
(lp361
(S'can'
p362
g3
F0.999
tp363
a(S'you'
p364
g6
F0.9987
tp365
a(S'buy'
p366
g3
F0.9997
tp367
a(S'me'
p368
g6
F0.9892
tp369
a(S'another'
p370
g11
F0.9616
tp371
a(S'one'
p372
g193
F0.8455
tp373
a(g18
g19
F0.9965
tp374
asI188
(lp375
(S'okay'
p376
g23
F0.9741
tp377
a(g42
g19
F0.9977
tp378
asI63
(lp379
(S'Popeye'
p380
S'^'
p381
F0.9945
tp382
a(S'eats'
p383
g3
F0.7838
tp384
a(S'spinach'
p385
g16
F0.9821
tp386
a(g42
g19
F0.9986
tp387
asI224
(lp388
(S'xxx'
p389
g108
F0.5822
tp390
a(g42
g19
F0.9648
tp391
asI66
(lp392
(S'who'
p393
g6
F0.9566
tp394
a(g18
g19
F0.9951
tp395
asI70
(lp396
(S'Popeye'
p397
g381
F0.9911
tp398
a(g42
g19
F0.9951
tp399
asI73
(lp400
(S'you'
p401
g6
F0.9923
tp402
a(S'like'
p403
g38
F0.5791
tp404
a(S'Popeye'
p405
g381
F0.9969
tp406
a(g18
g19
F0.9955
tp407
asI202
(lp408
(S'see'
p409
g3
F0.7243
tp410
a(g18
g19
F0.9965
tp411
asI231
(lp412
(S'okay'
p413
g23
F0.9741
tp414
a(g42
g19
F0.9977
tp415
asI77
(lp416
(S'yeah'
p417
g23
F0.9986
tp418
a(g42
g19
F0.997
tp419
asI206
(lp420
(S'pop'
p421
g3
F0.7405
tp422
a(S'it'
p423
g6
F0.9859
tp424
a(g23
g19
F0.999
tp425
asI80
(lp426
(S'are'
p427
g3
F0.9964
tp428
a(S'you'
p429
g6
F0.9994
tp430
a(S'gonna'
p431
g3
F0.9997
tp432
a(S'be'
p433
g3
F0.9982
tp434
a(S'Popeye'
p435
g381
F0.9983
tp436
a(g18
g19
F0.9946
tp437
asI209
(lp438
(g29
g6
F0.9978
tp439
a(S'wanted'
p440
g3
F0.9983
tp441
a(S'to'
p442
g38
F0.9831
tp443
a(S'blow'
p444
g3
F0.9497
tp445
a(S'it'
p446
g6
F0.9748
tp447
a(g42
g19
F0.9986
tp448
asI255
(lp449
(S'drink'
p450
g3
F0.9677
tp451
a(S'your'
p452
g11
F0.985
tp453
a(S'juice'
p454
g16
F0.9978
tp455
a(g42
g19
F0.9986
tp456
asI163
(lp457
(S'Mom'
p458
g16
F0.7126
tp459
a(S"I'm"
p460
g154
F0.9934
tp461
a(S'sorry'
p462
g89
F0.7356
tp463
a(S'you'
p464
g6
F0.9986
tp465
a(S'have_to'
p466
g3
F0.9986
tp467
a(S'go'
p468
g3
F0.9987
tp469
a(S'to'
p470
g38
F0.9809
tp471
a(S'church'
p472
g16
F0.831
tp473
a(g42
g19
F0.9987
tp474
asI84
(lp475
(S'uhhuh'
p476
g23
F0.9881
tp477
a(g42
g19
F0.997
tp478
asI214
(lp479
(S'alright'
p480
g23
F0.9631
tp481
a(S'then'
p482
g198
F0.9697
tp483
a(g42
g19
F0.9964
tp484
asI185
(lp485
(S'<'
p486
S'~'
p487
F0.9216
tp488
a(S"I'm>"
p489
g154
F0.9585
tp490
a(g260
g19
F0.9501
tp491
a(g486
g487
F0.9566
tp492
a(g266
g19
F0.9886
tp493
a(S'gonna'
p494
g3
F0.9978
tp495
a(S'blow'
p496
g3
F0.9781
tp497
a(S'it'
p498
g6
F0.9872
tp499
a(g23
g19
F0.9993
tp500
asI88
(lp501
(S'is'
p502
g3
F0.988
tp503
a(S'Popeye'
p504
g381
F0.9943
tp505
a(S'xxx'
p506
g16
F0.2757
tp507
a(g18
g19
F0.9975
tp508
asI218
(lp509
(S'Mommy'
p510
g16
F0.8032
tp511
a(g29
g6
F0.99
tp512
a(S'eat'
p513
g3
F0.9998
tp514
a(S'all'
p515
g11
F0.6132
tp516
a(S'my'
p517
g11
F0.998
tp518
a(S'food'
p519
g16
F0.9982
tp520
a(g42
g19
F0.9983
tp521
asI92
(lp522
(S'huh'
p523
g23
F0.9936
tp524
a(g18
g19
F0.9967
tp525
asI221
(lp526
(S'eat'
p527
g3
F0.9933
tp528
a(S'it'
p529
g6
F0.9756
tp530
a(S'all'
p531
g11
F0.6734
tp532
a(S'up'
p533
g113
F0.4673
tp534
a(g42
g19
F0.9981
tp535
asI96
(lp536
(S'his'
p537
g11
F0.9982
tp538
a(S'clothes'
p539
g16
F0.9989
tp540
a(g42
g19
F0.9987
tp541
asI226
(lp542
(S"don't"
p543
g3
F0.9992
tp544
a(S'play'
p545
g3
F0.9996
tp546
a(S'with'
p547
g38
F0.9984
tp548
a(S'your'
p549
g11
F0.9956
tp550
a(S'food'
p551
g16
F0.997
tp552
a(S'and'
p553
g83
F0.9958
tp554
a(S'eat'
p555
g3
F0.9987
tp556
a(S'it'
p557
g6
F0.9948
tp558
a(S'up'
p559
g113
F0.8717
tp560
a(S'Chi'
p561
g381
F0.9712
tp562
a(g42
g19
F0.9899
tp563
asI99
(lp564
(S'his'
p565
g11
F0.9646
tp566
a(S'[/]'
p567
S'G'
p568
F0.471
tp569
a(S'his'
p570
g11
F0.9962
tp571
a(S'spinach'
p572
g16
F0.9949
tp573
a(g18
g19
F0.9981
tp574
asI103
(lp575
(S'yeah'
p576
g23
F0.9986
tp577
a(g42
g19
F0.997
tp578
asI252
(lp579
(S'yeah'
p580
g23
F0.9986
tp581
a(g42
g19
F0.997
tp582
asI107
(lp583
(S'xxx'
p584
g108
F0.7103
tp585
a(g18
g19
F0.9715
tp586
asI109
(lp587
(S'Fred'
p588
g381
F0.9968
tp589
a(S'Krueger'
p590
g381
F0.9997
tp591
a(S'loves'
p592
g3
F0.9995
tp593
a(S'me'
p594
g6
F0.9976
tp595
a(g42
g19
F0.9984
tp596
asI239
(lp597
(S'just'
p598
g198
F0.9992
tp599
a(S'eat'
p600
g3
F0.9993
tp601
a(S'it'
p602
g6
F0.9885
tp603
a(S'that'
p604
g11
F0.7107
tp605
a(S'way'
p606
g16
F0.964
tp607
a(g42
g19
F0.998
tp608
asI112
(lp609
(S'and'
p610
g83
F0.9989
tp611
a(S'he'
p612
g6
F0.9958
tp613
a(S'xxx'
p614
g3
F0.7176
tp615
a(S'little'
p616
g89
F0.9961
tp617
a(S'kids'
p618
g16
F0.9868
tp619
a(S'faster'
p620
g198
F0.8745
tp621
a(g42
g19
F0.9982
tp622
asI242
(lp623
(S'Mommy'
p624
g16
F0.4941
tp625
a(S"I'm"
p626
g154
F0.9933
tp627
a(S'finished'
p628
g3
F0.9656
tp629
a(g42
g19
F0.9976
tp630
asI115
(lp631
(S'what'
p632
g6
F0.9965
tp633
a(S'did'
p634
g3
F0.9994
tp635
a(S'you'
p636
g6
F0.9994
tp637
a(S'do'
p638
g3
F0.9998
tp639
a(S'in'
p640
g38
F0.9376
tp641
a(S'school'
p642
g16
F0.9977
tp643
a(S'today'
p644
g16
F0.9963
tp645
a(g18
g19
F0.9978
tp646
asI245
(lp647
(S'no'
p648
g23
F0.9005
tp649
a(S"you're"
p650
g154
F0.9942
tp651
a(S'not'
p652
g198
F0.9967
tp653
a(g42
g19
F0.996
tp654
asI120
(lp655
(S'hm'
p656
g23
F0.9699
tp657
a(g258
g19
F0.9014
tp658
a(S'(.)'
p659
g108
F0.7356
tp660
a(g486
g487
F0.8456
tp661
a(g29
g6
F0.9986
tp662
a(S'was'
p663
g3
F0.9998
tp664
a(S'eatin(g)'
p665
g3
F0.7958
tp666
a(g327
g568
F0.2778
tp667
a(S'[/]'
p668
g568
F0.3115
tp669
a(g29
g6
F0.9979
tp670
a(S'was'
p671
g3
F0.9998
tp672
a(S'eatin(g'
p673
g3
F0.8633
tp674
a(S')'
p675
g19
F0.9891
tp676
a(S'my'
p677
g11
F0.9948
tp678
a(S'food'
p679
g16
F0.9979
tp680
a(S'up'
p681
g113
F0.5873
tp682
a(g42
g19
F0.9973
tp683
asI212
(lp684
(S'xxx'
p685
g108
F0.5822
tp686
a(g42
g19
F0.9648
tp687
asI191
(lp688
(S'blow'
p689
g3
F0.5905
tp690
a(S'it'
p691
g6
F0.9801
tp692
a(g42
g19
F0.9987
tp693
asI124
(lp694
(S'all'
p695
g11
F0.752
tp696
a(S'of'
p697
g38
F0.9929
tp698
a(S'them'
p699
g6
F0.9855
tp700
a(g42
g19
F0.9985
tp701
asI127
(lp702
(S'xxx'
p703
g108
F0.5822
tp704
a(g42
g19
F0.9648
tp705
as.