(dp0
I0
(lp1
(S'xxx'
p2
S'E'
p3
F0.6888
tp4
a(S'sit'
p5
S'V'
p6
F0.9918
tp7
a(S'down'
p8
S'T'
p9
F0.7867
tp10
a(S'and'
p11
S'&'
p12
F0.9959
tp13
a(S'eat'
p14
g6
F0.9988
tp15
a(S'your'
p16
S'D'
p17
F0.993
tp18
a(S'food'
p19
S'N'
p20
F0.9978
tp21
asI1
(lp22
(S'mm'
p23
S'!'
p24
F0.627
tp25
asI2
(lp26
(S'okay'
p27
g24
F0.9469
tp28
a(S'you'
p29
S'O'
p30
F0.9889
tp31
a(S'd'
p32
g6
F0.8395
tp33
a(S'like'
p34
S'P'
p35
F0.8617
tp36
a(S'your'
p37
g17
F0.9724
tp38
a(S'rice'
p39
g20
F0.9932
tp40
asI3
(lp41
(S'eat'
p42
g6
F0.9933
tp43
a(S'it'
p44
g30
F0.9774
tp45
a(S'all'
p46
g17
F0.6734
tp47
a(S'up'
p48
g9
F0.6951
tp49
asI4
(lp50
(S'there'
p51
S'R'
p52
F0.5244
tp53
a(S'you'
p54
g30
F0.9982
tp55
a(S'go'
p56
g6
F0.9953
tp57
asI5
(lp58
(S'what'
p59
g30
F0.9739
tp60
a(S's'
p61
g6
F0.4505
tp62
a(S'that'
p63
g30
F0.8603
tp64
asI6
(lp65
(S'oh'
p66
g24
F0.9903
tp67
a(S'gotta'
p68
g6
F0.9784
tp69
a(S'look'
p70
g6
F0.9921
tp71
a(S'for'
p72
g35
F0.9998
tp73
a(S'the'
p74
g17
F0.9992
tp75
a(S'meat'
p76
g20
F0.9786
tp77
asI7
(lp78
(S'you'
p79
g30
F0.9923
tp80
a(S'like'
p81
g6
F0.806
tp82
a(S'your'
p83
g17
F0.9748
tp84
a(S'meat'
p85
g20
F0.9971
tp86
asI8
(lp87
(S'hm'
p88
g24
F0.9856
tp89
a(S'x'
p90
g3
F0.6367
tp91
a(S'2'
p92
S'$'
p93
F0.4672
tp94
asI9
(lp95
(S'are'
p96
g6
F0.9964
tp97
a(S'you'
p98
g30
F0.9992
tp99
a(S'eating'
p100
g6
F1.0
tp101
a(S'it'
p102
g30
F0.9795
tp103
a(S'all'
p104
g17
F0.6597
tp105
a(S'up'
p106
g9
F0.6032
tp107
a(S'like'
p108
g35
F0.9596
tp109
a(S'a'
p110
g17
F0.9959
tp111
a(S'big'
p112
S'A'
p113
F0.986
tp114
a(S'boy'
p115
g20
F0.9939
tp116
asI10
(lp117
(S'am'
p118
g6
F0.7695
tp119
a(S'i'
p120
g30
F0.9963
tp121
a(S'gonna'
p122
g6
F0.9998
tp123
a(S'be'
p124
g6
F0.9984
tp125
a(S'strong'
p126
g113
F0.965
tp127
asI11
(lp128
(S'yeah'
p129
g24
F0.9922
tp130
a(S'you'
p131
g30
F0.9874
tp132
a(S're'
p133
g6
F0.5559
tp134
a(S'gonna'
p135
g6
F0.9935
tp136
a(S'be'
p137
g6
F0.9991
tp138
a(S'strong'
p139
g113
F0.9408
tp140
a(S'so'
p141
g35
F0.8825
tp142
a(S'eat'
p143
g6
F0.9866
tp144
a(S'up'
p145
g9
F0.934
tp146
a(S'all'
p147
g17
F0.7787
tp148
a(S'your'
p149
g17
F0.9878
tp150
a(S'food'
p151
g20
F0.9984
tp152
asI12
(lp153
(S'popeye'
p154
S'^'
p155
F0.9907
tp156
a(S'eats'
p157
g6
F0.7936
tp158
a(S'spinach'
p159
g20
F0.9708
tp160
asI13
(lp161
(S'who'
p162
g30
F0.9764
tp163
asI14
(lp164
(S'popeye'
p165
g155
F0.9794
tp166
asI15
(lp167
(S'you'
p168
g30
F0.9876
tp169
a(S'like'
p170
g35
F0.5081
tp171
a(S'popeye'
p172
g155
F0.9776
tp173
asI16
(lp174
(S'yeah'
p175
g24
F0.9988
tp176
asI17
(lp177
(S'are'
p178
g6
F0.9964
tp179
a(S'you'
p180
g30
F0.9994
tp181
a(S'gonna'
p182
g6
F0.9997
tp183
a(S'be'
p184
g6
F0.9982
tp185
a(S'popeye'
p186
g155
F0.9827
tp187
asI18
(lp188
(S'uhhuh'
p189
g24
F0.9892
tp190
asI19
(lp191
(S'is'
p192
g6
F0.9888
tp193
a(S'popeye'
p194
g155
F0.9611
tp195
a(S'xxx'
p196
g3
F0.6035
tp197
asI20
(lp198
(S'huh'
p199
g24
F0.993
tp200
asI21
(lp201
(S'his'
p202
g17
F0.9982
tp203
a(S'clothes'
p204
g20
F0.9973
tp205
asI22
(lp206
(S'his'
p207
g17
F0.8823
tp208
a(S'his'
p209
g17
F0.9855
tp210
a(S'spinach'
p211
g20
F0.995
tp212
asI23
(lp213
(S'yeah'
p214
g24
F0.9988
tp215
asI24
(lp216
(S'xxx'
p217
g3
F0.8437
tp218
asI25
(lp219
(S'fred'
p220
g155
F0.995
tp221
a(S'krueger'
p222
g155
F0.998
tp223
a(S'loves'
p224
g6
F0.9995
tp225
a(S'me'
p226
g30
F0.9984
tp227
asI26
(lp228
(S'and'
p229
g12
F0.9989
tp230
a(S'he'
p231
g30
F0.9958
tp232
a(S'xxx'
p233
g6
F0.7176
tp234
a(S'little'
p235
g113
F0.9961
tp236
a(S'kids'
p237
g20
F0.9868
tp238
a(S'faster'
p239
g52
F0.8767
tp240
asI27
(lp241
(S'what'
p242
g30
F0.9965
tp243
a(S'did'
p244
g6
F0.9994
tp245
a(S'you'
p246
g30
F0.9994
tp247
a(S'do'
p248
g6
F0.9998
tp249
a(S'in'
p250
g35
F0.8968
tp251
a(S'school'
p252
g20
F0.9977
tp253
a(S'today'
p254
g20
F0.9958
tp255
asI28
(lp256
(S'hm'
p257
g24
F0.987
tp258
a(g120
g30
F0.9957
tp259
a(S'was'
p260
g6
F0.9998
tp261
a(S'eatin'
p262
g6
F0.575
tp263
a(S'g'
p264
g20
F0.5438
tp265
a(g120
g30
F0.9826
tp266
a(S'was'
p267
g6
F0.9998
tp268
a(S'eatin'
p269
g6
F0.5866
tp270
a(g264
g6
F0.4814
tp271
a(S'my'
p272
g17
F0.994
tp273
a(S'food'
p274
g20
F0.9979
tp275
a(S'up'
p276
g9
F0.623
tp277
asI29
(lp278
(S'all'
p279
g17
F0.7443
tp280
a(S'of'
p281
g35
F0.9929
tp282
a(S'them'
p283
g30
F0.9434
tp284
asI30
(lp285
(S'xxx'
p286
g3
F0.8437
tp287
asI31
(lp288
(S'did'
p289
g6
F0.9986
tp290
a(S'you'
p291
g30
F0.9987
tp292
a(S'eat'
p293
g6
F0.9997
tp294
a(S'all'
p295
g17
F0.8454
tp296
a(S'your'
p297
g17
F0.9868
tp298
a(S'lunch'
p299
g20
F0.9913
tp300
asI32
(lp301
(S'yeah'
p302
g24
F0.9988
tp303
asI33
(lp304
(S'what'
p305
g30
F0.9965
tp306
a(S'did'
p307
g6
F0.9994
tp308
a(S'you'
p309
g30
F0.9994
tp310
a(S'have'
p311
g6
F0.9989
tp312
a(S'for'
p313
g35
F0.9979
tp314
a(S'lunch'
p315
g20
F0.8692
tp316
asI34
(lp317
(g120
g30
F0.9896
tp318
a(S'had'
p319
g6
F0.9996
tp320
a(S'lunch'
p321
g20
F0.867
tp322
a(S'and'
p323
g12
F0.998
tp324
a(g120
g30
F0.994
tp325
a(S'had'
p326
g6
F0.9998
tp327
a(S'0an'
p328
g113
F0.2648
tp329
a(S'orange'
p330
g113
F0.6314
tp331
a(S'in'
p332
g35
F0.9974
tp333
a(S'my'
p334
g17
F0.9978
tp335
a(S'book'
p336
g20
F0.9856
tp337
a(S'bag'
p338
g20
F0.9875
tp339
asI35
(lp340
(S'mom'
p341
g20
F0.7613
tp342
a(S'xxx'
p343
g6
F0.4047
tp344
a(S'my'
p345
g17
F0.9962
tp346
a(S'book'
p347
g20
F0.9878
tp348
a(S'bag'
p349
g20
F0.7389
tp350
a(S'you'
p351
g30
F0.9805
tp352
asI36
(lp353
(S'mom'
p354
g20
F0.6249
tp355
a(S'you'
p356
g30
F0.997
tp357
a(S'remember'
p358
g6
F0.9976
tp359
asI37
(lp360
(S'lost'
p361
g6
F0.9564
tp362
a(S'my'
p363
g17
F0.9398
tp364
a(S'xxx'
p365
g20
F0.6853
tp366
asI38
(lp367
(S'can'
p368
g6
F0.999
tp369
a(S'you'
p370
g30
F0.9987
tp371
a(S'buy'
p372
g6
F0.9997
tp373
a(S'me'
p374
g30
F0.9899
tp375
a(S'another'
p376
g17
F0.9616
tp377
a(S'one'
p378
g93
F0.8069
tp379
asI39
(lp380
(S'can'
p381
g6
F0.999
tp382
a(S'you'
p383
g30
F0.9987
tp384
a(S'buy'
p385
g6
F0.9997
tp386
a(S'me'
p387
g30
F0.9899
tp388
a(S'another'
p389
g17
F0.9616
tp390
a(S'one'
p391
g93
F0.8069
tp392
asI40
(lp393
(S'mom'
p394
g20
F0.8909
tp395
a(g120
g30
F0.8068
tp396
a(S'm'
p397
g6
F0.9421
tp398
a(S'sorry'
p399
g113
F0.6068
tp400
a(S'you'
p401
g30
F0.9991
tp402
a(S'have'
p403
g6
F0.9995
tp404
a(S'to'
p405
g35
F0.9898
tp406
a(S'go'
p407
g6
F0.9991
tp408
a(S'to'
p409
g35
F0.9704
tp410
a(S'church'
p411
g20
F0.5749
tp412
asI41
(lp413
(S'you'
p414
g30
F0.998
tp415
a(S'won'
p416
g6
F0.978
tp417
a(S't'
p418
g35
F0.2586
tp419
a(S'come'
p420
g6
F0.9912
tp421
a(S'back'
p422
g52
F0.9752
tp423
a(S'here'
p424
g52
F0.9708
tp425
asI42
(lp426
(g120
g30
F0.953
tp427
a(g397
g6
F0.9769
tp428
a(S'want'
p429
g6
F0.9991
tp430
a(S'you'
p431
g30
F0.9994
tp432
a(S'here'
p433
g52
F0.9746
tp434
asI43
(lp435
(g120
g30
F0.9882
tp436
a(S'made'
p437
g6
F0.9998
tp438
a(g110
g17
F0.9978
tp439
a(S'bubble'
p440
g20
F0.8022
tp441
asI44
(lp442
(S'hello'
p443
g24
F0.9965
tp444
asI45
(lp445
(S'hi'
p446
g24
F0.993
tp447
asI46
(lp448
(g120
g30
F0.953
tp449
a(g397
g6
F0.9629
tp450
a(S'gonna'
p451
g6
F0.9962
tp452
a(S'blow'
p453
g6
F0.9614
tp454
a(S'it'
p455
g30
F0.9793
tp456
asI47
(lp457
(S'okay'
p458
g24
F0.9857
tp459
asI48
(lp460
(S'blow'
p461
g6
F0.5905
tp462
a(S'it'
p463
g30
F0.9838
tp464
asI49
(lp465
(S'what'
p466
g30
F0.949
tp467
asI50
(lp468
(S'bubble'
p469
g20
F0.3816
tp470
asI51
(lp471
(S'xxx'
p472
g3
F0.8437
tp473
asI52
(lp474
(S'see'
p475
g6
F0.8335
tp476
asI53
(lp477
(S'pop'
p478
g6
F0.7405
tp479
a(S'it'
p480
g30
F0.9883
tp481
asI54
(lp482
(g120
g30
F0.9888
tp483
a(S'wanted'
p484
g6
F0.9987
tp485
a(S'to'
p486
g35
F0.9787
tp487
a(S'blow'
p488
g6
F0.9497
tp489
a(S'it'
p490
g30
F0.9793
tp491
asI55
(lp492
(S'xxx'
p493
g3
F0.8437
tp494
asI56
(lp495
(S'alright'
p496
g24
F0.9631
tp497
a(S'then'
p498
g52
F0.943
tp499
asI57
(lp500
(S'mommy'
p501
g20
F0.7607
tp502
a(g120
g30
F0.9213
tp503
a(S'eat'
p504
g6
F0.9998
tp505
a(S'all'
p506
g17
F0.6128
tp507
a(S'my'
p508
g17
F0.998
tp509
a(S'food'
p510
g20
F0.9976
tp511
asI58
(lp512
(S'eat'
p513
g6
F0.9933
tp514
a(S'it'
p515
g30
F0.9774
tp516
a(S'all'
p517
g17
F0.6734
tp518
a(S'up'
p519
g9
F0.6951
tp520
asI59
(lp521
(S'xxx'
p522
g3
F0.8437
tp523
asI60
(lp524
(S'don'
p525
g155
F0.5427
tp526
a(g418
g155
F0.478
tp527
a(S'play'
p528
g6
F0.9271
tp529
a(S'with'
p530
g35
F0.999
tp531
a(S'your'
p532
g17
F0.9956
tp533
a(S'food'
p534
g20
F0.997
tp535
a(S'and'
p536
g12
F0.9958
tp537
a(S'eat'
p538
g6
F0.9987
tp539
a(S'it'
p540
g30
F0.9951
tp541
a(S'up'
p542
g9
F0.9006
tp543
a(S'chi'
p544
g155
F0.4521
tp545
asI61
(lp546
(S'okay'
p547
g24
F0.9857
tp548
asI62
(lp549
(S'mommy'
p550
g20
F0.7607
tp551
a(g120
g30
F0.9549
tp552
a(S'found'
p553
g6
F0.9999
tp554
a(g110
g17
F0.996
tp555
a(S'ketchup'
p556
g20
F0.9964
tp557
a(S'in'
p558
g35
F0.9982
tp559
a(S'it'
p560
g30
F0.9949
tp561
asI63
(lp562
(S'just'
p563
g52
F0.9992
tp564
a(S'eat'
p565
g6
F0.9993
tp566
a(S'it'
p567
g30
F0.9907
tp568
a(S'that'
p569
g17
F0.7107
tp570
a(S'way'
p571
g20
F0.944
tp572
asI64
(lp573
(S'mommy'
p574
g20
F0.7607
tp575
a(g120
g30
F0.8587
tp576
a(g397
g6
F0.9751
tp577
a(S'finished'
p578
g6
F0.9829
tp579
asI65
(lp580
(S'no'
p581
g24
F0.7985
tp582
a(S'you'
p583
g30
F0.978
tp584
a(S're'
p585
g6
F0.6994
tp586
a(S'not'
p587
g52
F0.9941
tp588
asI66
(lp589
(S'finished'
p590
g6
F0.9864
tp591
asI67
(lp592
(S'yeah'
p593
g24
F0.9988
tp594
asI68
(lp595
(S'drink'
p596
g6
F0.9524
tp597
a(S'your'
p598
g17
F0.985
tp599
a(S'juice'
p600
g20
F0.9964
tp601
asI69
(lp602
(S'huh'
p603
g24
F0.993
tp604
asI70
(lp605
(S'drink'
p606
g6
F0.9524
tp607
a(S'your'
p608
g17
F0.985
tp609
a(S'juice'
p610
g20
F0.9964
tp611
asI71
(lp612
(S'okay'
p613
g24
F0.9857
tp614
as.