(dp0
I0
(lp1
(S'zzz'
p2
S'!'
p3
F0.361
tp4
asI1
(lp5
(S'sergeant'
p6
S'^'
p7
F0.5753
tp8
a(S'lee'
p9
g7
F0.9948
tp10
a(S'seymore'
p11
g7
F0.9373
tp12
asI2
(lp13
(S'zzz'
p14
g3
F0.361
tp15
asI3
(lp16
(S'zzz'
p17
g3
F0.361
tp18
asI4
(lp19
(S'what'
p20
S'O'
p21
F0.9784
tp22
a(S's'
p23
S'V'
p24
F0.4505
tp25
a(S'that'
p26
S'D'
p27
F0.8489
tp28
a(S'thing'
p29
S'N'
p30
F0.9984
tp31
asI5
(lp32
(S'what'
p33
g21
F0.9784
tp34
a(g23
g24
F0.4505
tp35
a(S'that'
p36
g27
F0.8489
tp37
a(S'thing'
p38
g30
F0.9984
tp39
asI6
(lp40
(S'that'
p41
g21
F0.5118
tp42
a(S'that'
p43
g27
F0.8675
tp44
a(S'thing'
p45
g30
F0.9984
tp46
asI7
(lp47
(S'i'
p48
g21
F0.953
tp49
a(S'm'
p50
g24
F0.9805
tp51
a(S'rewinding'
p52
g24
F0.9951
tp53
a(S'it'
p54
g21
F0.9934
tp55
asI8
(lp56
(S'and'
p57
S'&'
p58
F0.9977
tp59
a(S'the'
p60
g27
F0.9869
tp61
a(S'howard'
p62
g7
F0.9951
tp63
a(S'the'
p64
g27
F0.9964
tp65
a(S'duck'
p66
g30
F0.9971
tp67
asI9
(lp68
(S'just'
p69
S'R'
p70
F0.9992
tp71
a(S'finish'
p72
g24
F0.9949
tp73
a(S'eating'
p74
g24
F0.9868
tp75
a(S'okay'
p76
g3
F0.5343
tp77
asI10
(lp78
(S'was'
p79
g24
F0.9964
tp80
a(S'that'
p81
g21
F0.4601
tp82
a(S'the'
p83
g27
F0.9914
tp84
a(S'howard'
p85
g7
F0.9966
tp86
a(S'the'
p87
g27
F0.9965
tp88
a(S'duck'
p89
g30
F0.9934
tp90
a(S'tape'
p91
g30
F0.9922
tp92
asI11
(lp93
(S'no'
p94
g3
F0.7608
tp95
a(S'it'
p96
g21
F0.9844
tp97
a(g23
g24
F0.5535
tp98
a(S'not'
p99
g70
F0.9922
tp100
asI12
(lp101
(S'so'
p102
S'P'
p103
F0.7418
tp104
a(S'what'
p105
g21
F0.9989
tp106
a(S'did'
p107
g24
F0.9993
tp108
a(S'you'
p109
g21
F0.9993
tp110
a(S'do'
p111
g24
F0.9998
tp112
a(S'in'
p113
g103
F0.9425
tp114
a(S'school'
p115
g30
F0.9972
tp116
a(S'today'
p117
g30
F0.996
tp118
asI13
(lp119
(S'mama'
p120
g30
F0.6981
tp121
a(S'first'
p122
S'A'
p123
F0.669
tp124
a(S'we'
p125
g21
F0.9979
tp126
a(S'did'
p127
g24
F0.9999
tp128
a(S'the'
p129
g27
F0.9997
tp130
a(S'papers'
p131
g30
F0.995
tp132
a(S'in'
p133
g103
F0.9991
tp134
a(S'the'
p135
g27
F0.9996
tp136
a(S'other'
p137
g123
F0.9856
tp138
a(S'room'
p139
g30
F0.9926
tp140
a(S'and'
p141
g58
F0.9982
tp142
a(S'then'
p143
g70
F0.9745
tp144
a(S'we'
p145
g21
F0.9971
tp146
a(S'played'
p147
g24
F0.9987
tp148
asI14
(lp149
(g48
g21
F0.9651
tp150
asI15
(lp151
(S'what'
p152
g21
F0.9965
tp153
a(S'did'
p154
g24
F0.9992
tp155
a(S'you'
p156
g21
F0.9995
tp157
a(S'do'
p158
g24
F0.9989
tp159
asI16
(lp160
(S'and'
p161
g58
F0.9973
tp162
a(S'and'
p163
g58
F0.9982
tp164
a(S'then'
p165
g70
F0.9812
tp166
a(S'we'
p167
g21
F0.9888
tp168
a(S'we'
p169
g21
F0.9823
tp170
a(S'made'
p171
g24
F0.9998
tp172
a(S'a'
p173
g27
F0.9984
tp174
a(S'funky'
p175
g123
F0.9969
tp176
a(S'monkey'
p177
g30
F0.9919
tp178
asI17
(lp179
(S'you'
p180
g21
F0.998
tp181
a(S'made'
p182
g24
F0.9997
tp183
a(g173
g27
F0.998
tp184
a(S'funky'
p185
g123
F0.9953
tp186
a(S'monkey'
p187
g30
F0.9861
tp188
asI18
(lp189
(S'oh'
p190
g3
F0.9928
tp191
a(S'the'
p192
g27
F0.9973
tp193
a(S'monkey'
p194
g30
F0.975
tp195
a(S'that'
p196
g103
F0.9917
tp197
a(S'you'
p198
g21
F0.9997
tp199
a(S'made'
p200
g24
F0.9959
tp201
a(S'huh'
p202
g3
F0.9598
tp203
asI19
(lp204
(S'that'
p205
g21
F0.473
tp206
a(g23
g24
F0.6118
tp207
a(g173
g27
F0.993
tp208
a(S'cute'
p209
g123
F0.9977
tp210
a(S'monkey'
p211
g30
F0.9817
tp212
asI20
(lp213
(S'where'
p214
g70
F0.8648
tp215
a(S'is'
p216
g24
F0.9991
tp217
a(S'it'
p218
g21
F0.9991
tp219
a(S'anyway'
p220
g70
F0.9881
tp221
asI21
(lp222
(g48
g21
F0.989
tp223
a(S'think'
p224
g24
F0.9999
tp225
a(S'we'
p226
g21
F0.9974
tp227
a(S'left'
p228
g24
F0.9982
tp229
a(S'it'
p230
g21
F0.9823
tp231
a(S'in'
p232
g103
F0.8739
tp233
a(S'roy'
p234
g7
F0.9886
tp235
a(g23
S'G'
p236
F0.3797
tp237
a(S'by'
p238
g103
F0.9965
tp239
a(g50
g24
F0.6253
tp240
a(S'by'
p241
g103
F0.9902
tp242
a(S'accident'
p243
g30
F0.9608
tp244
a(S'when'
p245
g70
F0.9531
tp246
a(S'we'
p247
g21
F0.9969
tp248
a(S'were'
p249
g24
F0.9985
tp250
a(S'there'
p251
g70
F0.7043
tp252
asI22
(lp253
(S'uh'
p254
g3
F0.9515
tp255
a(S'mommy'
p256
g30
F0.4419
tp257
a(S'it'
p258
g21
F0.9596
tp259
a(g23
g24
F0.7229
tp260
a(S'under'
p261
g103
F0.993
tp262
a(S'it'
p263
g21
F0.9941
tp264
a(S'it'
p265
g21
F0.9649
tp266
a(g23
g24
F0.7078
tp267
a(S'under'
p268
g103
F0.9953
tp269
a(S'your'
p270
g27
F0.9941
tp271
a(S'coat'
p272
g30
F0.9973
tp273
asI23
(lp274
(S'it'
p275
g21
F0.9888
tp276
a(g23
g236
F0.4341
tp277
a(g48
g21
F0.9875
tp278
a(S'know'
p279
g24
F0.9992
tp280
a(S'but'
p281
g58
F0.9886
tp282
a(g48
g21
F0.9956
tp283
a(S'think'
p284
g24
F0.9994
tp285
a(g48
g21
F0.9936
tp286
a(S'left'
p287
g24
F0.9992
tp288
a(S'it'
p289
g21
F0.9895
tp290
a(S'at'
p291
g103
F0.9989
tp292
a(S'the'
p293
g27
F0.9993
tp294
a(S'store'
p295
g30
F0.9886
tp296
asI24
(lp297
(S'we'
p298
g21
F0.9948
tp299
a(S'll'
p300
g24
F0.6915
tp301
a(S'have'
p302
g24
F0.9989
tp303
a(S'to'
p304
g103
F0.998
tp305
a(S'get'
p306
g24
F1.0
tp307
a(S'it'
p308
g21
F0.9956
tp309
a(S'tomorrow'
p310
g30
F0.5232
tp311
a(S'be'
p312
g24
F0.9904
tp313
a(S'cause'
p314
g103
F0.8084
tp315
a(S'roy'
p316
g7
F0.9655
tp317
a(g23
g7
F0.6445
tp318
a(S'is'
p319
g24
F0.9953
tp320
a(S'closed'
p321
g24
F0.5729
tp322
a(S'now'
p323
g70
F0.9933
tp324
asI25
(lp325
(g48
g21
F0.989
tp326
a(S'think'
p327
g24
F0.9994
tp328
a(g48
g21
F0.9932
tp329
a(S'left'
p330
g24
F0.9991
tp331
a(S'it'
p332
g21
F0.973
tp333
a(S'on'
p334
g103
F0.9766
tp335
a(S'the'
p336
g27
F0.9993
tp337
a(S'counter'
p338
g30
F0.9975
tp339
a(S'by'
p340
g103
F0.9976
tp341
a(S'accident'
p342
g30
F0.9584
tp343
asI26
(lp344
(g50
g24
F0.3047
tp345
a(S'aybe'
p346
g30
F0.186
tp347
a(S'maybe'
p348
g70
F0.9635
tp349
a(S'they'
p350
g21
F0.993
tp351
a(S'already'
p352
g70
F0.9982
tp353
a(S'threw'
p354
g24
F0.9991
tp355
a(S'it'
p356
g21
F0.993
tp357
a(S'away'
p358
g70
F0.9521
tp359
asI27
(lp360
(S'no'
p361
g3
F0.6532
tp362
a(g48
g21
F0.9261
tp363
a(S'don'
p364
g24
F0.9187
tp365
a(S't'
p366
g30
F0.2707
tp367
a(S'think'
p368
g24
F0.9917
tp369
a(S'so'
p370
g70
F0.7787
tp371
asI28
(lp372
(g48
g21
F0.953
tp373
a(g50
g24
F0.9874
tp374
a(S'sure'
p375
g123
F0.8768
tp376
a(S'they'
p377
g21
F0.977
tp378
a(S'll'
p379
g24
F0.6451
tp380
a(S'save'
p381
g24
F0.9992
tp382
a(S'it'
p383
g21
F0.9894
tp384
a(S'and'
p385
g58
F0.994
tp386
a(S'give'
p387
g24
F0.9993
tp388
a(S'it'
p389
g21
F0.9905
tp390
a(S'to'
p391
g103
F0.9912
tp392
a(S'us'
p393
g21
F0.9544
tp394
a(S'tomorrow'
p395
g30
F0.9017
tp396
asI29
(lp397
(S'okay'
p398
g3
F0.9857
tp399
asI30
(lp400
(S'jeff'
p401
g7
F0.9639
tp402
a(S'that'
p403
g21
F0.7703
tp404
a(S'was'
p405
g24
F0.9997
tp406
a(g173
g27
F0.9974
tp407
a(S'beautiful'
p408
g123
F0.9982
tp409
a(S'monkey'
p410
g30
F0.9791
tp411
asI31
(lp412
(g48
g21
F0.9897
tp413
a(S'want'
p414
g24
F0.9999
tp415
a(S'to'
p416
g103
F0.9914
tp417
a(S'hang'
p418
g24
F1.0
tp419
a(S'him'
p420
g21
F0.9946
tp421
a(S'up'
p422
S'T'
p423
F0.9304
tp424
a(S'on'
p425
g103
F0.9975
tp426
a(S'the'
p427
g27
F0.9987
tp428
a(S'wall'
p429
g30
F0.9743
tp430
asI32
(lp431
(S'we'
p432
g21
F0.9973
tp433
a(S'need'
p434
g24
F0.9992
tp435
a(S'some'
p436
g27
F0.8313
tp437
a(S'xxx'
p438
S'E'
p439
F0.6335
tp440
asI33
(lp441
(g50
g236
F0.3467
tp442
a(S'ommy'
p443
g3
F0.6677
tp444
a(S'mommy'
p445
g30
F0.558
tp446
a(S'you'
p447
g21
F0.9965
tp448
a(S'had'
p449
g24
F0.9997
tp450
a(S'to'
p451
g103
F0.9875
tp452
a(S'have'
p453
g24
F0.9999
tp454
a(S'it'
p455
g21
F0.9936
tp456
a(S'stapled'
p457
g24
F0.7994
tp458
asI34
(lp459
(S'okay'
p460
g3
F0.9483
tp461
a(S'well'
p462
g3
F0.7945
tp463
a(g48
g21
F0.9952
tp464
a(S'll'
p465
g24
F0.6518
tp466
a(S'get'
p467
g24
F0.9999
tp468
a(S'it'
p469
g21
F0.995
tp470
a(S'stapled'
p471
g24
F0.6744
tp472
asI35
(lp473
(S'we'
p474
g21
F0.9969
tp475
a(S'can'
p476
g24
F0.9997
tp477
a(S'hang'
p478
g24
F1.0
tp479
a(S'it'
p480
g21
F0.9903
tp481
a(S'up'
p482
g423
F0.9836
tp483
a(S'with'
p484
g103
F0.9959
tp485
a(S'tape'
p486
g30
F0.9856
tp487
asI36
(lp488
(S'put'
p489
g24
F0.9914
tp490
a(S'it'
p491
g21
F0.9741
tp492
a(S'on'
p493
g103
F0.9569
tp494
a(S'the'
p495
g27
F0.9993
tp496
a(S'bath'
p497
g30
F0.9933
tp498
a(S'room'
p499
g30
F0.979
tp500
a(S'door'
p501
g30
F0.9877
tp502
asI37
(lp503
(S'okay'
p504
g3
F0.9857
tp505
asI38
(lp506
(S'no'
p507
g3
F0.7627
tp508
a(S'on'
p509
g103
F0.9901
tp510
a(S'the'
p511
g27
F0.9993
tp512
a(S'ceiling'
p513
g30
F0.9977
tp514
asI39
(lp515
(S'on'
p516
g103
F0.993
tp517
a(S'the'
p518
g27
F0.9994
tp519
a(S'ceiling'
p520
g30
F0.998
tp521
asI40
(lp522
(S'yeah'
p523
g3
F0.9988
tp524
asI41
(lp525
(S'why'
p526
g70
F0.8842
tp527
a(S'do'
p528
g24
F0.9981
tp529
a(S'you'
p530
g21
F0.9997
tp531
a(S'want'
p532
g24
F0.9997
tp533
a(S'to'
p534
g103
F0.9955
tp535
a(S'put'
p536
g24
F0.9997
tp537
a(S'it'
p538
g21
F0.972
tp539
a(S'on'
p540
g103
F0.9818
tp541
a(S'the'
p542
g27
F0.9994
tp543
a(S'ceiling'
p544
g30
F0.9949
tp545
asI42
(lp546
(S'because'
p547
g103
F0.983
tp548
a(g48
g21
F0.9948
tp549
a(S'so'
p550
g70
F0.8144
tp551
a(g48
g21
F0.9887
tp552
a(S'can'
p553
g24
F0.9998
tp554
a(S'see'
p555
g24
F0.9998
tp556
a(S'up'
p557
g423
F0.9274
tp558
a(S'there'
p559
g70
F0.7452
tp560
asI43
(lp561
(g48
g21
F0.9873
tp562
a(S'can'
p563
g24
F0.9999
tp564
a(S'do'
p565
g24
F0.9999
tp566
a(g173
g27
F0.9959
tp567
a(S'dance'
p568
g30
F0.9951
tp569
a(S'and'
p570
g58
F0.9942
tp571
a(S'see'
p572
g24
F0.9944
tp573
a(S'if'
p574
g103
F0.9987
tp575
a(S'it'
p576
g21
F0.9984
tp577
a(g23
g24
F0.7339
tp578
a(S'on'
p579
g103
F0.9855
tp580
a(S'the'
p581
g27
F0.9994
tp582
a(S'ceiling'
p583
g30
F0.9966
tp584
asI44
(lp585
(S'oh'
p586
g3
F0.9987
tp587
a(S'yeah'
p588
g3
F0.9997
tp589
asI45
(lp590
(S'jeffrey'
p591
g7
F0.9889
tp592
a(S'it'
p593
g21
F0.993
tp594
a(S'might'
p595
g24
F0.9984
tp596
a(S'fall'
p597
g24
F0.9882
tp598
a(S'off'
p599
g423
F0.8847
tp600
asI46
(lp601
(S'no'
p602
g3
F0.9253
tp603
asI47
(lp604
(S'come'
p605
g24
F0.9849
tp606
a(S'on'
p607
g103
F0.9163
tp608
a(S'eat'
p609
g24
F0.413
tp610
asI48
(lp611
(S'where'
p612
g70
F0.8648
tp613
a(S'is'
p614
g24
F0.9961
tp615
a(S'howard'
p616
g7
F0.9814
tp617
a(S'the'
p618
g27
F0.9964
tp619
a(S'duck'
p620
g30
F0.9971
tp621
asI49
(lp622
(S'don'
p623
g7
F0.5427
tp624
a(g366
g7
F0.6311
tp625
a(S'worry'
p626
g24
F0.9804
tp627
a(S'when'
p628
g70
F0.9843
tp629
a(S'you'
p630
g21
F0.9924
tp631
a(S're'
p632
g24
F0.7812
tp633
a(S'done'
p634
g24
F0.9495
tp635
a(S'eating'
p636
g24
F0.9837
tp637
asI50
(lp638
(S'zzz'
p639
g3
F0.361
tp640
asI51
(lp641
(S'did'
p642
g24
F0.9986
tp643
a(S'you'
p644
g21
F0.9731
tp645
a(S'color'
p646
g24
F0.7014
tp647
a(S'in'
p648
g103
F0.9795
tp649
a(S'school'
p650
g30
F0.9976
tp651
a(S'today'
p652
g30
F0.9964
tp653
asI52
(lp654
(g48
g21
F0.9948
tp655
a(S'did'
p656
g24
F0.9993
tp657
asI53
(lp658
(S'did'
p659
g24
F0.9983
tp660
a(S'you'
p661
g21
F0.9942
tp662
a(S'jeff'
p663
g7
F0.8629
tp664
asI54
(lp665
(S'what'
p666
g21
F0.9832
tp667
a(S'cha'
p668
g24
F0.5434
tp669
a(S'you'
p670
g21
F0.9996
tp671
a(S'do'
p672
g24
F0.9989
tp673
asI55
(lp674
(S'you'
p675
g21
F0.9911
tp676
a(S'didn'
p677
g24
F0.9886
tp678
a(g366
g24
F0.8348
tp679
a(S'do'
p680
g24
F0.9975
tp681
a(S'anything'
p682
g30
F0.9882
tp683
a(S'at'
p684
g103
F0.9997
tp685
a(S'all'
p686
g27
F0.958
tp687
asI56
(lp688
(g48
g21
F0.9635
tp689
a(S'don'
p690
g24
F0.9231
tp691
a(g366
g30
F0.2457
tp692
a(S'know'
p693
g24
F0.9915
tp694
a(S'what'
p695
g21
F0.9849
tp696
a(S'we'
p697
g21
F0.9993
tp698
a(S'did'
p699
g24
F0.9986
tp700
asI57
(lp701
(S'did'
p702
g24
F0.9986
tp703
a(S'you'
p704
g21
F0.9985
tp705
a(S'read'
p706
g24
F0.9965
tp707
a(S'today'
p708
g30
F0.9896
tp709
a(S'in'
p710
g103
F0.9957
tp711
a(S'school'
p712
g30
F0.997
tp713
asI58
(lp714
(S'did'
p715
g24
F0.984
tp716
a(S'rhonda'
p717
g7
F0.9754
tp718
a(S'read'
p719
g24
F0.9957
tp720
a(g173
g27
F0.9965
tp721
a(S'book'
p722
g30
F0.9928
tp723
a(S'to'
p724
g103
F0.9995
tp725
a(S'you'
p726
g21
F0.9981
tp727
asI59
(lp728
(S'mama'
p729
g30
F0.7716
tp730
asI60
(lp731
(S'mom'
p732
g30
F0.9049
tp733
a(g48
g21
F0.8888
tp734
asI61
(lp735
(S'was'
p736
g24
F0.9874
tp737
a(S'not'
p738
g70
F0.999
tp739
a(S'in'
p740
g103
F0.9863
tp741
a(S'school'
p742
g30
F0.9984
tp743
a(S'today'
p744
g30
F0.9949
tp745
asI62
(lp746
(S'mama'
p747
g30
F0.7716
tp748
asI63
(lp749
(S'um'
p750
g3
F0.979
tp751
asI64
(lp752
(S'well'
p753
g3
F0.8594
tp754
a(S'where'
p755
g70
F0.9185
tp756
a(S'were'
p757
g24
F0.9956
tp758
a(S'you'
p759
g21
F0.9986
tp760
asI65
(lp761
(S'at'
p762
g103
F0.9959
tp763
a(S'school'
p764
g30
F0.991
tp765
asI66
(lp766
(S'well'
p767
g3
F0.741
tp768
a(S'you'
p769
g21
F0.9989
tp770
a(S'just'
p771
g70
F0.9996
tp772
a(S'said'
p773
g24
F0.9995
tp774
a(S'you'
p775
g21
F0.9966
tp776
a(S'weren'
p777
g24
F0.9812
tp778
a(g366
g30
F0.2993
tp779
a(S'in'
p780
g103
F0.9964
tp781
a(S'school'
p782
g30
F0.9981
tp783
asI67
(lp784
(S'where'
p785
g70
F0.9538
tp786
a(S'were'
p787
g24
F0.9931
tp788
a(S'you'
p789
g21
F0.9989
tp790
asI68
(lp791
(g48
g21
F0.9914
tp792
a(S'was'
p793
g24
F0.9998
tp794
a(S'at'
p795
g103
F0.9812
tp796
a(S'school'
p797
g30
F0.9918
tp798
asI69
(lp799
(S'oh'
p800
g3
F0.9981
tp801
a(S'okay'
p802
g3
F0.9822
tp803
asI70
(lp804
(S'did'
p805
g24
F0.9983
tp806
a(S'you'
p807
g21
F0.9985
tp808
a(S'paint'
p809
g24
F0.9729
tp810
asI71
(lp811
(S'not'
p812
g70
F0.9871
tp813
a(S'today'
p814
g30
F0.9491
tp815
a(S'maggie'
p816
g7
F0.9947
tp817
a(S'said'
p818
g24
F0.9924
tp819
a(S'no'
p820
g3
F0.9162
tp821
asI72
(lp822
(g48
g21
F0.9793
tp823
a(S'll'
p824
g24
F0.82
tp825
a(S'tomorrow'
p826
g30
F0.7866
tp827
a(S'ask'
p828
g24
F0.9789
tp829
a(S'maggie'
p830
g7
F0.9597
tp831
a(S'to'
p832
g103
F0.99
tp833
a(S'paint'
p834
g24
F0.9718
tp835
asI73
(lp836
(S'okay'
p837
g3
F0.9857
tp838
asI74
(lp839
(S'want'
p840
g24
F0.9993
tp841
a(S'me'
p842
g21
F0.9985
tp843
a(S'to'
p844
g103
F0.9777
tp845
a(S'make'
p846
g24
F0.9961
tp847
a(S'brownies'
p848
g30
F0.9669
tp849
a(S'for'
p850
g103
F0.9993
tp851
a(S'dessert'
p852
g30
F0.9299
tp853
asI75
(lp854
(S'yippee'
p855
g3
F0.9813
tp856
asI76
(lp857
(S'yeah'
p858
g3
F0.9988
tp859
asI77
(lp860
(S'yeah'
p861
g3
F0.9988
tp862
asI78
(lp863
(S'yeah'
p864
g3
F0.9946
tp865
a(S'goodie'
p866
g123
F0.6789
tp867
asI79
(lp868
(S'did'
p869
g24
F0.9986
tp870
a(S'you'
p871
g21
F0.9987
tp872
a(S'eat'
p873
g24
F0.9997
tp874
a(S'all'
p875
g27
F0.9047
tp876
a(S'of'
p877
g103
F0.9935
tp878
a(S'your'
p879
g27
F0.9911
tp880
a(S'spaghetti'
p881
g30
F0.9989
tp882
asI80
(lp883
(S'yummy'
p884
g123
F0.4298
tp885
asI81
(lp886
(S'yummy'
p887
g123
F0.6213
tp888
a(S'in'
p889
g103
F0.9966
tp890
a(S'my'
p891
g27
F0.9974
tp892
a(S'cocky'
p893
g123
F0.9767
tp894
a(S'c'
p895
g30
F0.6597
tp896
asI82
(lp897
(g48
g21
F0.953
tp898
a(g50
g24
F0.9655
tp899
a(S'almost'
p900
g70
F0.9919
tp901
a(S'done'
p902
g24
F0.9518
tp903
asI83
(lp904
(S'that'
p905
g21
F0.473
tp906
a(g23
g236
F0.4353
tp907
a(S'not'
p908
g70
F0.9981
tp909
a(S'nice'
p910
g123
F0.9917
tp911
asI84
(lp912
(g48
g21
F0.9635
tp913
a(S'don'
p914
g24
F0.9231
tp915
a(g366
g24
F0.4437
tp916
a(S'like'
p917
g103
F0.8772
tp918
a(S'that'
p919
g21
F0.8694
tp920
a(S'talk'
p921
g24
F0.9572
tp922
asI85
(lp923
(S'zzz'
p924
g3
F0.361
tp925
asI86
(lp926
(S'well'
p927
g3
F0.9502
tp928
a(S'that'
p929
g21
F0.9705
tp930
a(S'was'
p931
g24
F0.9971
tp932
a(S'nonsense'
p933
g30
F0.9243
tp934
asI87
(lp935
(g48
g21
F0.9635
tp936
a(S'don'
p937
g24
F0.9231
tp938
a(g366
g24
F0.4066
tp939
a(S'like'
p940
g103
F0.8772
tp941
a(S'that'
p942
g21
F0.9294
tp943
asI88
(lp944
(S'that'
p945
g21
F0.9111
tp946
a(S'is'
p947
g24
F0.996
tp948
a(S'nonsense'
p949
g30
F0.9401
tp950
asI89
(lp951
(S'ma'
p952
g27
F0.284
tp953
a(S'look'
p954
g24
F0.9579
tp955
a(S'it'
p956
g21
F0.996
tp957
asI90
(lp958
(S'mhm'
p959
g3
F0.9747
tp960
asI91
(lp961
(S'what'
p962
g21
F0.988
tp963
a(S'happened'
p964
g24
F0.9981
tp965
a(S'to'
p966
g103
F0.9913
tp967
a(S'your'
p968
g27
F0.988
tp969
a(S'book'
p970
g30
F0.9941
tp971
a(S'where'
p972
g70
F0.9067
tp973
a(S'the'
p974
g27
F0.9986
tp975
a(S'wild'
p976
g123
F0.9972
tp977
a(S'things'
p978
g30
F0.9992
tp979
a(S'are'
p980
g24
F0.9949
tp981
asI92
(lp982
(S'it'
p983
g21
F0.9888
tp984
a(g23
g24
F0.8514
tp985
a(S'all'
p986
g27
F0.7336
tp987
a(S'ripped'
p988
g24
F0.9717
tp989
a(S'up'
p990
g423
F0.9855
tp991
asI93
(lp992
(S'who'
p993
g21
F0.9956
tp994
a(S'ripped'
p995
g24
F0.9998
tp996
a(S'it'
p997
g21
F0.9766
tp998
asI94
(lp999
(S'jeffrey'
p1000
g7
F0.9885
tp1001
asI95
(lp1002
(S'jeffrey'
p1003
g7
F0.9929
tp1004
a(g48
g21
F0.9262
tp1005
a(g50
g24
F0.9644
tp1006
a(S'gonna'
p1007
g24
F0.9944
tp1008
a(S'take'
p1009
g24
F0.9998
tp1010
a(S'all'
p1011
g27
F0.6402
tp1012
a(S'the'
p1013
g27
F0.9995
tp1014
a(S'books'
p1015
g30
F0.9877
tp1016
a(S'out'
p1017
g103
F0.9661
tp1018
a(S'of'
p1019
g103
F0.9901
tp1020
a(S'there'
p1021
g70
F0.5083
tp1022
a(S'if'
p1023
g103
F0.9991
tp1024
a(S'you'
p1025
g21
F0.9983
tp1026
a(S're'
p1027
g24
F0.7305
tp1028
a(S'goin'
p1029
g24
F0.9857
tp1030
a(S'g'
p1031
g236
F0.3707
tp1032
a(g366
g236
F0.7647
tp1033
a(g173
g27
F0.8806
tp1034
a(S'rip'
p1035
g236
F0.3523
tp1036
a(S'them'
p1037
g21
F0.9203
tp1038
asI96
(lp1039
(S'okay'
p1040
g3
F0.9857
tp1041
asI97
(lp1042
(g48
g21
F0.9859
tp1043
a(S'may'
p1044
g24
F0.9932
tp1045
a(S'just'
p1046
g70
F0.9993
tp1047
a(S'have'
p1048
g24
F0.9984
tp1049
a(S'to'
p1050
g103
F0.9971
tp1051
a(S'put'
p1052
g24
F0.9997
tp1053
a(S'them'
p1054
g21
F0.9081
tp1055
a(S'all'
p1056
g27
F0.7957
tp1057
a(S'up'
p1058
g423
F0.6739
tp1059
asI98
(lp1060
(S'be'
p1061
g24
F0.9727
tp1062
a(S'cause'
p1063
g103
F0.9573
tp1064
a(S'they'
p1065
g21
F0.9584
tp1066
a(S're'
p1067
g24
F0.7522
tp1068
a(S'getting'
p1069
g24
F0.9987
tp1070
a(S'ripped'
p1071
g24
F0.9989
tp1072
a(S'up'
p1073
g423
F0.9711
tp1074
asI99
(lp1075
(S'mama'
p1076
g30
F0.7716
tp1077
asI100
(lp1078
(S'mama'
p1079
g30
F0.7716
tp1080
asI101
(lp1081
(g48
g21
F0.9635
tp1082
a(S'don'
p1083
g24
F0.9231
tp1084
a(g366
g30
F0.2384
tp1085
a(S'have'
p1086
g24
F0.9986
tp1087
a(g173
g27
F0.9987
tp1088
a(S'book'
p1089
g30
F0.9929
tp1090
asI102
(lp1091
(S'what'
p1092
g21
F0.9777
tp1093
a(S'about'
p1094
g103
F0.9892
tp1095
a(S'all'
p1096
S'X'
p1097
F0.5373
tp1098
a(S'the'
p1099
g27
F0.9999
tp1100
a(S'books'
p1101
g30
F0.9813
tp1102
a(S'in'
p1103
g103
F0.9955
tp1104
a(S'there'
p1105
g70
F0.468
tp1106
a(S'that'
p1107
g103
F0.9329
tp1108
a(S'you'
p1109
g21
F0.9997
tp1110
a(S'ripped'
p1111
g24
F0.9998
tp1112
a(S'up'
p1113
g423
F0.9806
tp1114
asI103
(lp1115
(S'he'
p1116
g21
F0.9945
tp1117
a(S'ripped'
p1118
g24
F0.9998
tp1119
a(S'up'
p1120
g423
F0.9587
tp1121
a(S'my'
p1122
g27
F0.9512
tp1123
asI104
(lp1124
(S'did'
p1125
g24
F0.9938
tp1126
a(S'cha'
p1127
g3
F0.4524
tp1128
a(S'you'
p1129
g21
F0.999
tp1130
a(S'know'
p1131
g24
F0.9986
tp1132
a(S'paul'
p1133
g7
F0.9532
tp1134
a(S'paid'
p1135
g24
F0.9925
tp1136
a(g173
g27
F0.9968
tp1137
a(S'lot'
p1138
g30
F0.9842
tp1139
a(S'of'
p1140
g103
F0.9964
tp1141
a(S'money'
p1142
g30
F0.9879
tp1143
a(S'for'
p1144
g103
F0.9999
tp1145
a(S'those'
p1146
g27
F0.9526
tp1147
a(S'doctor'
p1148
g30
F0.9956
tp1149
a(S'seuss'
p1150
g7
F0.4722
tp1151
a(S'books'
p1152
g30
F0.684
tp1153
a(S'and'
p1154
g58
F0.9959
tp1155
a(S'you'
p1156
g21
F0.9995
tp1157
a(S'ripped'
p1158
g24
F0.9991
tp1159
a(S'in'
p1160
g103
F0.9613
tp1161
a(S'them'
p1162
g21
F0.9737
tp1163
a(S'and'
p1164
g58
F0.9958
tp1165
a(S'scribbled'
p1166
g24
F0.9969
tp1167
a(S'in'
p1168
g103
F0.9534
tp1169
a(S'them'
p1170
g21
F0.9032
tp1171
asI105
(lp1172
(S'he'
p1173
g21
F0.9905
tp1174
a(g23
g24
F0.7029
tp1175
a(S'not'
p1176
g70
F0.9957
tp1177
a(S'going'
p1178
g24
F0.9991
tp1179
a(S'to'
p1180
g103
F0.9882
tp1181
a(S'buy'
p1182
g24
F0.9997
tp1183
a(S'you'
p1184
g21
F0.9925
tp1185
a(S'any'
p1186
g27
F0.7927
tp1187
a(S'more'
p1188
g123
F0.742
tp1189
asI106
(lp1190
(S'zzz'
p1191
g3
F0.361
tp1192
asI107
(lp1193
(S'well'
p1194
g3
F0.7958
tp1195
a(S'then'
p1196
g70
F0.9786
tp1197
a(S'd'
p1198
g236
F0.6755
tp1199
a(S'o'
p1200
g103
F0.8344
tp1201
a(S'you'
p1202
g21
F0.9991
tp1203
a(S'promise'
p1204
g24
F0.9997
tp1205
a(S'me'
p1206
g21
F0.9958
tp1207
a(S'you'
p1208
g21
F0.9902
tp1209
a(S'willn'
p1210
g24
F0.5982
tp1211
a(g366
g24
F0.227
tp1212
a(S'rip'
p1213
g24
F0.9518
tp1214
a(S'them'
p1215
g21
F0.9723
tp1216
a(S'anymore'
p1217
g70
F0.9956
tp1218
asI108
(lp1219
(S'mhm'
p1220
g3
F0.9747
tp1221
asI109
(lp1222
(S'okay'
p1223
g3
F0.9857
tp1224
asI110
(lp1225
(S'next'
p1226
g123
F0.9335
tp1227
a(S'time'
p1228
g30
F0.982
tp1229
a(S'one'
p1230
S'$'
p1231
F0.976
tp1232
a(S'of'
p1233
g103
F0.9991
tp1234
a(S'those'
p1235
g27
F0.9881
tp1236
a(S'books'
p1237
g30
F0.9803
tp1238
a(S'gets'
p1239
g24
F0.9994
tp1240
a(S'ripped'
p1241
g24
F0.9582
tp1242
a(S'chi'
p1243
g7
F0.3085
tp1244
a(g48
g21
F0.9095
tp1245
a(g50
g24
F0.9607
tp1246
a(S'gonna'
p1247
g24
F0.9931
tp1248
a(S'have'
p1249
g24
F0.9997
tp1250
a(S'to'
p1251
g103
F0.9971
tp1252
a(S'put'
p1253
g24
F0.9997
tp1254
a(S'them'
p1255
g21
F0.9282
tp1256
a(S'all'
p1257
g27
F0.7436
tp1258
a(S'up'
p1259
g423
F0.7169
tp1260
asI111
(lp1261
(S'uhhuh'
p1262
g3
F0.9892
tp1263
asI112
(lp1264
(S'right'
p1265
g123
F0.4746
tp1266
a(S'mama'
p1267
g30
F0.9851
tp1268
asI113
(lp1269
(S'yep'
p1270
g3
F0.9977
tp1271
asI114
(lp1272
(S'tomorrow'
p1273
g30
F0.9841
tp1274
a(S'is'
p1275
g24
F0.9951
tp1276
a(S'show'
p1277
g30
F0.8576
tp1278
a(S'and'
p1279
g58
F0.993
tp1280
a(S'tell'
p1281
g24
F0.9663
tp1282
a(S'bro'
p1283
g30
F0.9679
tp1284
asI115
(lp1285
(g48
g21
F0.9912
tp1286
a(S'know'
p1287
g24
F0.9989
tp1288
asI116
(lp1289
(S'zzz'
p1290
g3
F0.361
tp1291
asI117
(lp1292
(S'the'
p1293
g27
F0.9981
tp1294
a(S'bus'
p1295
g30
F0.9293
tp1296
a(S'driver'
p1297
g30
F0.9985
tp1298
a(S'told'
p1299
g24
F0.9989
tp1300
a(S'me'
p1301
g21
F0.9985
tp1302
a(S'that'
p1303
g21
F0.4826
tp1304
asI118
(lp1305
(S'the'
p1306
g27
F0.999
tp1307
a(S'other'
p1308
g123
F0.9968
tp1309
a(S'day'
p1310
g30
F0.9975
tp1311
asI119
(lp1312
(S'mama'
p1313
g30
F0.7315
tp1314
a(S'my'
p1315
g27
F0.9956
tp1316
a(S'teacher'
p1317
g30
F0.9958
tp1318
a(S'said'
p1319
g24
F0.994
tp1320
a(S'no'
p1321
g3
F0.9162
tp1322
asI120
(lp1323
(S'your'
p1324
g27
F0.9743
tp1325
a(S'teacher'
p1326
g30
F0.9948
tp1327
a(S'said'
p1328
g24
F0.9969
tp1329
a(S'no'
p1330
g3
F0.8792
tp1331
asI121
(lp1332
(S'she'
p1333
g21
F0.9971
tp1334
a(S'said'
p1335
g24
F0.9956
tp1336
a(S'sh'
p1337
g236
F0.7371
tp1338
a(S'e'
p1339
g236
F0.7105
tp1340
a(S'she'
p1341
g21
F0.9964
tp1342
a(S'said'
p1343
g24
F0.9951
tp1344
a(S'show'
p1345
g30
F0.9113
tp1346
a(S'and'
p1347
g58
F0.9947
tp1348
a(S'tell'
p1349
g24
F0.9204
tp1350
a(S'was'
p1351
g24
F0.9967
tp1352
a(S'the'
p1353
g27
F0.9997
tp1354
a(S'bus'
p1355
g30
F0.9601
tp1356
a(S'man'
p1357
g30
F0.972
tp1358
a(S'says'
p1359
g24
F0.9945
tp1360
a(S'friday'
p1361
g7
F0.8404
tp1362
asI122
(lp1363
(S'friday'
p1364
g7
F0.876
tp1365
asI123
(lp1366
(S'oh'
p1367
g3
F0.9988
tp1368
asI124
(lp1369
(S'who'
p1370
g21
F0.9963
tp1371
a(S'said'
p1372
g24
F0.9995
tp1373
a(S'that'
p1374
g21
F0.7039
tp1375
a(S'joe'
p1376
g7
F0.9815
tp1377
asI125
(lp1378
(S'xxx'
p1379
g439
F0.8437
tp1380
asI126
(lp1381
(S'no'
p1382
g3
F0.7131
tp1383
a(S'tony'
p1384
g123
F0.42
tp1385
asI127
(lp1386
(S'tony'
p1387
g7
F0.9202
tp1388
asI128
(lp1389
(S'right'
p1390
g3
F0.7526
tp1391
a(S'chi'
p1392
g236
F0.3571
tp1393
a(S'tony'
p1394
g7
F0.8006
tp1395
asI129
(lp1396
(S'mama'
p1397
g30
F0.726
tp1398
a(S'tony'
p1399
g7
F0.7643
tp1400
a(g23
g236
F0.6602
tp1401
a(S'the'
p1402
g27
F0.9921
tp1403
a(S'b'
p1404
g30
F0.6285
tp1405
a(S'us'
p1406
g21
F0.9463
tp1407
asI130
(lp1408
(g48
g21
F0.9893
tp1409
a(S'thought'
p1410
g24
F0.9994
tp1411
a(S'joe'
p1412
g7
F0.9962
tp1413
a(S'was'
p1414
g24
F0.9984
tp1415
a(S'the'
p1416
g27
F0.9921
tp1417
a(S'the'
p1418
g27
F0.9714
tp1419
a(S'bus'
p1420
g30
F0.9353
tp1421
a(S'driver'
p1422
g30
F0.9977
tp1423
a(g23
g236
F0.7147
tp1424
a(S'name'
p1425
g30
F0.972
tp1426
asI131
(lp1427
(S'zzz'
p1428
g3
F0.361
tp1429
asI132
(lp1430
(S'um'
p1431
g3
F0.887
tp1432
a(S'the'
p1433
g27
F0.9981
tp1434
a(S'different'
p1435
g123
F0.9828
tp1436
a(S'bus'
p1437
g30
F0.9833
tp1438
a(S'driver'
p1439
g30
F0.9974
tp1440
asI133
(lp1441
(S'what'
p1442
g21
F0.9931
tp1443
a(S'do'
p1444
g24
F0.9991
tp1445
a(S'you'
p1446
g21
F0.9997
tp1447
a(S'say'
p1448
g24
F0.9924
tp1449
asI134
(lp1450
(S'but'
p1451
g58
F0.9889
tp1452
a(S'tony'
p1453
g7
F0.9331
tp1454
a(g23
g236
F0.6602
tp1455
a(S'the'
p1456
g27
F0.9983
tp1457
a(S'bus'
p1458
g30
F0.9774
tp1459
a(S'driving'
p1460
g24
F0.9856
tp1461
a(S'joe'
p1462
g7
F0.9924
tp1463
asI135
(lp1464
(S'excuse'
p1465
g24
F0.9631
tp1466
a(S'me'
p1467
g21
F0.9987
tp1468
asI136
(lp1469
(S'oh'
p1470
g3
F0.9988
tp1471
asI137
(lp1472
(S'both'
p1473
g21
F0.2545
tp1474
a(S'of'
p1475
g103
F0.9888
tp1476
a(S'them'
p1477
g21
F0.9645
tp1478
a(S'are'
p1479
g24
F0.9903
tp1480
asI138
(lp1481
(S'did'
p1482
g24
F0.9986
tp1483
a(S'you'
p1484
g21
F0.9925
tp1485
a(S'drink'
p1486
g24
F0.9982
tp1487
a(S'all'
p1488
g27
F0.7255
tp1489
a(S'your'
p1490
g27
F0.9778
tp1491
a(S'drink'
p1492
g30
F0.9889
tp1493
asI139
(lp1494
(S'are'
p1495
g24
F0.9963
tp1496
a(S'you'
p1497
g21
F0.9996
tp1498
a(S'done'
p1499
g24
F0.9927
tp1500
asI140
(lp1501
(S'there'
p1502
g1097
F0.4649
tp1503
a(g23
g236
F0.5504
tp1504
a(S'yellow'
p1505
g123
F0.9049
tp1506
asI141
(lp1507
(g48
g21
F0.9897
tp1508
a(S'mean'
p1509
g24
F0.9751
tp1510
a(S'red'
p1511
g123
F0.9812
tp1512
a(S'yellow'
p1513
g123
F0.7565
tp1514
a(S'green'
p1515
g123
F0.9462
tp1516
a(S'blue'
p1517
g30
F0.5732
tp1518
asI142
(lp1519
(S'right'
p1520
g3
F0.861
tp1521
asI143
(lp1522
(S'what'
p1523
g21
F0.7628
tp1524
a(S'color'
p1525
g30
F0.9671
tp1526
a(g23
g236
F0.6537
tp1527
a(S'that'
p1528
g103
F0.4367
tp1529
a(S'jeff'
p1530
g7
F0.9753
tp1531
asI144
(lp1532
(S'blue'
p1533
g123
F0.6728
tp1534
asI145
(lp1535
(S'no'
p1536
g3
F0.9253
tp1537
asI146
(lp1538
(S'what'
p1539
g21
F0.7628
tp1540
a(S'color'
p1541
g30
F0.9934
tp1542
a(S'is'
p1543
g24
F0.9991
tp1544
a(S'that'
p1545
g21
F0.9272
tp1546
asI147
(lp1547
(S'so'
p1548
g103
F0.5176
tp1549
a(S'was'
p1550
g24
F0.9803
tp1551
a(S'rhonda'
p1552
g7
F0.9648
tp1553
a(S'in'
p1554
g103
F0.954
tp1555
a(S'today'
p1556
g30
F0.994
tp1557
a(S'jeff'
p1558
g7
F0.9895
tp1559
asI148
(lp1560
(S'no'
p1561
g3
F0.9253
tp1562
asI149
(lp1563
(S'no'
p1564
g3
F0.9253
tp1565
asI150
(lp1566
(S'she'
p1567
g21
F0.9912
tp1568
a(g23
g24
F0.5711
tp1569
a(S'sick'
p1570
g123
F0.9796
tp1571
asI151
(lp1572
(S'she'
p1573
g21
F0.9912
tp1574
a(g23
g24
F0.5711
tp1575
a(S'sick'
p1576
g123
F0.9796
tp1577
asI152
(lp1578
(S'what'
p1579
g21
F0.9784
tp1580
a(g23
g236
F0.4512
tp1581
a(S'wrong'
p1582
g123
F0.9238
tp1583
a(S'with'
p1584
g103
F0.9995
tp1585
a(S'her'
p1586
g21
F0.6111
tp1587
asI153
(lp1588
(S'she'
p1589
g21
F0.9802
tp1590
a(S'she'
p1591
g21
F0.9601
tp1592
a(S'her'
p1593
g21
F0.5995
tp1594
a(S'back'
p1595
g70
F0.7754
tp1596
a(S'was'
p1597
g24
F0.9956
tp1598
a(S'hurting'
p1599
g24
F0.9985
tp1600
a(S'her'
p1601
g21
F0.5865
tp1602
asI154
(lp1603
(S'her'
p1604
g21
F0.6906
tp1605
a(S'back'
p1606
g70
F0.6746
tp1607
a(S'was'
p1608
g24
F0.9943
tp1609
a(S'hurting'
p1610
g24
F0.9976
tp1611
a(S'her'
p1612
g21
F0.6588
tp1613
asI155
(lp1614
(S'like'
p1615
g103
F0.7708
tp1616
a(S'ronnie'
p1617
g7
F0.9941
tp1618
a(g23
g236
F0.7153
tp1619
asI156
(lp1620
(S'like'
p1621
g103
F0.7708
tp1622
a(S'ronnie'
p1623
g7
F0.9941
tp1624
a(g23
g236
F0.7153
tp1625
asI157
(lp1626
(S'why'
p1627
g70
F0.8436
tp1628
a(S'what'
p1629
g21
F0.9948
tp1630
a(S'happened'
p1631
g24
F0.9975
tp1632
a(S'to'
p1633
g103
F0.9758
tp1634
a(S'ronnie'
p1635
g7
F0.9883
tp1636
asI158
(lp1637
(g173
g27
F0.995
tp1638
a(S'cat'
p1639
g30
F0.9338
tp1640
a(S'opened'
p1641
g24
F0.9991
tp1642
a(S'her'
p1643
g21
F0.5554
tp1644
a(S'back'
p1645
g70
F0.784
tp1646
asI159
(lp1647
(g173
g27
F0.995
tp1648
a(S'cat'
p1649
g30
F0.9338
tp1650
a(S'opened'
p1651
g24
F0.9991
tp1652
a(S'her'
p1653
g21
F0.5554
tp1654
a(S'back'
p1655
g70
F0.784
tp1656
asI160
(lp1657
(S'yeah'
p1658
g3
F0.9988
tp1659
asI161
(lp1660
(S'yeah'
p1661
g3
F0.9988
tp1662
asI162
(lp1663
(S'be'
p1664
g24
F0.9727
tp1665
a(S'cause'
p1666
g103
F0.9703
tp1667
a(S'she'
p1668
g21
F0.9987
tp1669
a(S'had'
p1670
g24
F0.9996
tp1671
a(g173
g27
F0.9981
tp1672
a(S'cat'
p1673
g30
F0.9402
tp1674
asI163
(lp1675
(S'oh'
p1676
g3
F0.9988
tp1677
asI164
(lp1678
(S'y'
p1679
g70
F0.5829
tp1680
a(S'ou'
p1681
g21
F0.2614
tp1682
a(g1679
g70
F0.7885
tp1683
a(S'ou'
p1684
g236
F0.3732
tp1685
a(S'you'
p1686
g21
F0.9988
tp1687
a(S'mean'
p1688
g24
F0.9861
tp1689
a(S'broke'
p1690
g24
F0.8854
tp1691
a(S'him'
p1692
g21
F0.9892
tp1693
a(S'in'
p1694
g103
F0.9753
tp1695
a(S'half'
p1696
g30
F0.5075
tp1697
asI165
(lp1698
(S'just'
p1699
g70
F0.9981
tp1700
a(g173
g27
F0.9922
tp1701
a(S'little'
p1702
g123
F0.9969
tp1703
a(S'bit'
p1704
g30
F0.9367
tp1705
asI166
(lp1706
(S'so'
p1707
g70
F0.4912
tp1708
a(S'did'
p1709
g24
F0.9838
tp1710
a(S'everyone'
p1711
g30
F0.8943
tp1712
a(S'like'
p1713
g103
F0.949
tp1714
a(S'your'
p1715
g27
F0.988
tp1716
a(S'hair'
p1717
g30
F0.9991
tp1718
a(S'cut'
p1719
g30
F0.8899
tp1720
asI167
(lp1721
(S'no'
p1722
g27
F0.8808
tp1723
a(S'girl'
p1724
g30
F0.9997
tp1725
a(S'kissed'
p1726
g24
F0.9998
tp1727
a(S'me'
p1728
g21
F0.9984
tp1729
asI168
(lp1730
(S'who'
p1731
g21
F0.998
tp1732
a(S'did'
p1733
g24
F0.9984
tp1734
asI169
(lp1735
(S'no'
p1736
g3
F0.9253
tp1737
asI170
(lp1738
(S'no'
p1739
g27
F0.8532
tp1740
a(S'girls'
p1741
g30
F0.9996
tp1742
asI171
(lp1743
(S'no'
p1744
g27
F0.9054
tp1745
a(S'girls'
p1746
g30
F0.9997
tp1747
a(S'kissed'
p1748
g24
F0.9999
tp1749
a(S'you'
p1750
g21
F0.9974
tp1751
asI172
(lp1752
(S'uh'
p1753
g3
F0.9849
tp1754
a(g48
g21
F0.9847
tp1755
a(S'don'
p1756
g24
F0.9162
tp1757
a(g366
g30
F0.3073
tp1758
a(S'care'
p1759
g24
F0.7677
tp1760
asI173
(lp1761
(S'why'
p1762
g70
F0.8931
tp1763
a(S'are'
p1764
g24
F0.9848
tp1765
a(S'they'
p1766
g21
F0.9964
tp1767
a(S'supposed'
p1768
g24
F0.7286
tp1769
a(S'to'
p1770
g103
F0.9906
tp1771
a(S'kiss'
p1772
g24
F0.9988
tp1773
a(S'you'
p1774
g21
F0.9978
tp1775
asI174
(lp1776
(S'no'
p1777
g3
F0.9253
tp1778
asI175
(lp1779
(S'zzz'
p1780
g3
F0.361
tp1781
asI176
(lp1782
(S'ma'
p1783
g27
F0.3854
tp1784
a(S'can'
p1785
g24
F0.9325
tp1786
a(g48
g21
F0.9862
tp1787
a(S'have'
p1788
g24
F0.9998
tp1789
a(S'some'
p1790
g27
F0.9725
tp1791
a(S'more'
p1792
g123
F0.9239
tp1793
asI177
(lp1794
(S'did'
p1795
g24
F0.9963
tp1796
a(S'any'
p1797
g27
F0.9946
tp1798
a(S'girls'
p1799
g30
F0.998
tp1800
a(S'kiss'
p1801
g24
F0.98
tp1802
a(S'you'
p1803
g21
F0.9975
tp1804
a(S'eddie'
p1805
g7
F0.9254
tp1806
asI178
(lp1807
(S'yeah'
p1808
g3
F0.9988
tp1809
asI179
(lp1810
(S'who'
p1811
g21
F0.9764
tp1812
asI180
(lp1813
(S'oh'
p1814
g3
F0.9965
tp1815
a(S'lisa'
p1816
g7
F0.7688
tp1817
asI181
(lp1818
(S'zzz'
p1819
g3
F0.361
tp1820
asI182
(lp1821
(S'why'
p1822
g70
F0.9128
tp1823
a(S'she'
p1824
g21
F0.9989
tp1825
a(S'thinks'
p1826
g24
F0.9999
tp1827
a(S'you'
p1828
g21
F0.999
tp1829
a(S'look'
p1830
g24
F0.9938
tp1831
a(S'handsome'
p1832
g123
F0.9942
tp1833
asI183
(lp1834
(S'you'
p1835
g21
F0.9909
tp1836
a(S'are'
p1837
g24
F0.9984
tp1838
a(S'handsome'
p1839
g123
F0.9979
tp1840
asI184
(lp1841
(S'mama'
p1842
g30
F0.8492
tp1843
a(S'can'
p1844
g24
F0.9937
tp1845
a(g48
g21
F0.9862
tp1846
a(S'have'
p1847
g24
F0.9998
tp1848
a(S'some'
p1849
g27
F0.9725
tp1850
a(S'more'
p1851
g123
F0.9239
tp1852
asI185
(lp1853
(S'there'
p1854
g1097
F0.5079
tp1855
a(S'it'
p1856
g21
F0.9893
tp1857
a(g23
g24
F0.8426
tp1858
a(S'all'
p1859
g27
F0.8188
tp1860
a(S'gone'
p1861
g123
F0.5799
tp1862
asI186
(lp1863
(S'zzz'
p1864
g3
F0.361
tp1865
asI187
(lp1866
(g48
g21
F0.953
tp1867
a(g50
g24
F0.9629
tp1868
a(S'gonna'
p1869
g24
F0.9948
tp1870
a(S'make'
p1871
g24
F0.9994
tp1872
a(S'some'
p1873
g27
F0.9902
tp1874
a(S'brownies'
p1875
g30
F0.9871
tp1876
a(S'anyway'
p1877
g70
F0.9509
tp1878
asI188
(lp1879
(S'don'
p1880
g7
F0.5427
tp1881
a(g366
g24
F0.4091
tp1882
a(S'you'
p1883
g21
F0.9996
tp1884
a(S'want'
p1885
g24
F0.9998
tp1886
a(S'some'
p1887
g27
F0.986
tp1888
a(S'brownies'
p1889
g30
F0.9651
tp1890
asI189
(lp1891
(S'yeah'
p1892
g3
F0.9988
tp1893
asI190
(lp1894
(S'yeah'
p1895
g3
F0.9988
tp1896
asI191
(lp1897
(S'yeah'
p1898
g3
F0.9988
tp1899
asI192
(lp1900
(S'yeah'
p1901
g3
F0.9988
tp1902
asI193
(lp1903
(S'okay'
p1904
g3
F0.9469
tp1905
a(S'you'
p1906
g21
F0.9777
tp1907
a(S'guys'
p1908
g30
F0.9239
tp1909
a(S'done'
p1910
g24
F0.9876
tp1911
asI194
(lp1912
(S'put'
p1913
g24
F0.9896
tp1914
a(S'your'
p1915
g27
F0.9962
tp1916
a(S'bowls'
p1917
g30
F0.9987
tp1918
a(S'in'
p1919
g103
F0.9992
tp1920
a(S'the'
p1921
g27
F0.997
tp1922
a(S'sink'
p1923
g30
F0.9859
tp1924
asI195
(lp1925
(S'mama'
p1926
g30
F0.9035
tp1927
a(S'put'
p1928
g24
F0.9664
tp1929
a(S'candles'
p1930
g30
F0.9722
tp1931
a(S'in'
p1932
g103
F0.9974
tp1933
a(S'them'
p1934
g21
F0.9194
tp1935
asI196
(lp1936
(S'what'
p1937
g21
F0.949
tp1938
asI197
(lp1939
(S'put'
p1940
g24
F0.9272
tp1941
a(S'candles'
p1942
g30
F0.9534
tp1943
a(S'in'
p1944
g103
F0.995
tp1945
a(S'them'
p1946
g21
F0.895
tp1947
a(S'be'
p1948
g24
F0.9947
tp1949
a(S'cause'
p1950
g103
F0.9596
tp1951
a(S'we'
p1952
g21
F0.9963
tp1953
a(S'like'
p1954
g24
F0.9051
tp1955
a(S'to'
p1956
g103
F0.9781
tp1957
a(S'blow'
p1958
g24
F0.7391
tp1959
asI198
(lp1960
(S'okay'
p1961
g3
F0.9857
tp1962
asI199
(lp1963
(S'candles'
p1964
g30
F0.8905
tp1965
a(S'in'
p1966
g103
F0.9989
tp1967
a(S'the'
p1968
g27
F0.9986
tp1969
a(S'brownies'
p1970
g30
F0.9793
tp1971
asI200
(lp1972
(S'why'
p1973
g70
F0.8527
tp1974
asI201
(lp1975
(S'be'
p1976
g24
F0.9727
tp1977
a(S'cause'
p1978
g103
F0.956
tp1979
a(g1198
g236
F0.5248
tp1980
a(S'we'
p1981
g21
F0.9868
tp1982
a(S'like'
p1983
g24
F0.9463
tp1984
a(S'to'
p1985
g103
F0.984
tp1986
a(S'blow'
p1987
g24
F0.5439
tp1988
asI202
(lp1989
(S'okay'
p1990
g3
F0.9857
tp1991
asI203
(lp1992
(S'you'
p1993
g21
F0.9897
tp1994
a(S'promise'
p1995
g24
F0.9806
tp1996
asI204
(lp1997
(S'you'
p1998
g21
F0.9897
tp1999
a(S'promise'
p2000
g24
F0.9806
tp2001
asI205
(lp2002
(S'good'
p2003
g123
F0.9939
tp2004
a(S'boy'
p2005
g30
F0.9943
tp2006
a(S'jeff'
p2007
g7
F0.8429
tp2008
asI206
(lp2009
(S'we'
p2010
g21
F0.994
tp2011
a(S'll'
p2012
g24
F0.6895
tp2013
a(S'see'
p2014
g24
F0.9855
tp2015
asI207
(lp2016
(g48
g21
F0.9635
tp2017
a(S'don'
p2018
g24
F0.9231
tp2019
a(g366
g236
F0.2839
tp2020
a(S'even'
p2021
g70
F0.9939
tp2022
a(S'know'
p2023
g24
F0.9987
tp2024
a(S'if'
p2025
g103
F0.9869
tp2026
a(g48
g21
F0.9972
tp2027
a(S'have'
p2028
g24
F0.9999
tp2029
a(S'any'
p2030
g27
F0.9981
tp2031
a(S'candles'
p2032
g30
F0.9799
tp2033
a(S'bro'
p2034
g30
F0.9667
tp2035
asI208
(lp2036
(g48
g21
F0.989
tp2037
a(S'think'
p2038
g24
F0.9999
tp2039
a(S'we'
p2040
g21
F0.9974
tp2041
a(S'used'
p2042
g24
F0.9988
tp2043
a(S'them'
p2044
g21
F0.9068
tp2045
a(S'all'
p2046
g27
F0.8034
tp2047
a(S'at'
p2048
g103
F0.9989
tp2049
a(S'your'
p2050
g27
F0.9971
tp2051
a(S'birthday'
p2052
g30
F0.9995
tp2053
a(S'party'
p2054
g30
F0.9844
tp2055
asI209
(lp2056
(S'no'
p2057
g3
F0.8542
tp2058
a(S'yeah'
p2059
g3
F0.9795
tp2060
a(S'we'
p2061
g21
F0.9995
tp2062
a(S'did'
p2063
g24
F0.9982
tp2064
asI210
(lp2065
(S'no'
p2066
g3
F0.8465
tp2067
a(S'we'
p2068
g21
F0.8822
tp2069
a(S'no'
p2070
g70
F0.2844
tp2071
a(S'no'
p2072
g27
F0.5191
tp2073
a(S'jeff'
p2074
g7
F0.6178
tp2075
a(S'but'
p2076
g58
F0.9948
tp2077
a(S'we'
p2078
g21
F0.9981
tp2079
a(S'put'
p2080
g24
F0.9914
tp2081
a(S'five'
p2082
g1231
F0.6648
tp2083
a(S'of'
p2084
g103
F0.9986
tp2085
a(S'them'
p2086
g21
F0.9648
tp2087
a(S'in'
p2088
g103
F0.874
tp2089
asI211
(lp2090
(S'we'
p2091
g21
F0.9958
tp2092
a(S'put'
p2093
g24
F0.9922
tp2094
a(S'five'
p2095
g1231
F0.6279
tp2096
a(S'of'
p2097
g103
F0.9983
tp2098
a(S'them'
p2099
g21
F0.9682
tp2100
a(S'in'
p2101
g103
F0.8788
tp2102
asI212
(lp2103
(S'mom'
p2104
g30
F0.6807
tp2105
a(S'it'
p2106
g21
F0.9455
tp2107
a(g23
g24
F0.6821
tp2108
a(S'doing'
p2109
g24
F0.9996
tp2110
a(S'it'
p2111
g21
F0.9959
tp2112
a(S'again'
p2113
g70
F0.9786
tp2114
asI213
(lp2115
(S'you'
p2116
g21
F0.9616
tp2117
a(S'all'
p2118
g27
F0.9339
tp2119
a(S'done'
p2120
g24
F0.6128
tp2121
asI214
(lp2122
(S'bro'
p2123
g30
F0.9444
tp2124
a(S'put'
p2125
g24
F0.992
tp2126
a(S'your'
p2127
g27
F0.9953
tp2128
a(S'bowl'
p2129
g30
F0.9995
tp2130
a(S'in'
p2131
g103
F0.999
tp2132
a(S'the'
p2133
g27
F0.9961
tp2134
a(S'sink'
p2135
g30
F0.9862
tp2136
a(S'please'
p2137
g24
F0.9662
tp2138
asI215
(lp2139
(g48
g21
F0.953
tp2140
a(g50
g24
F0.994
tp2141
a(S'all'
p2142
g27
F0.8172
tp2143
a(S'done'
p2144
g24
F0.5835
tp2145
a(S'drinking'
p2146
g24
F0.9596
tp2147
asI216
(lp2148
(S'where'
p2149
g70
F0.9711
tp2150
a(g23
g236
F0.6001
tp2151
a(S'your'
p2152
g27
F0.969
tp2153
a(S'bowl'
p2154
g30
F0.9996
tp2155
a(S'go'
p2156
g24
F0.9772
tp2157
asI217
(lp2158
(S'and'
p2159
g58
F0.9991
tp2160
a(S'your'
p2161
g27
F0.9221
tp2162
a(S'cup'
p2163
g30
F0.9973
tp2164
a(S'please'
p2165
g24
F0.9473
tp2166
asI218
(lp2167
(S'zzz'
p2168
g3
F0.361
tp2169
asI219
(lp2170
(S'bro'
p2171
g30
F0.7862
tp2172
asI220
(lp2173
(S'your'
p2174
g27
F0.9713
tp2175
a(S'bowl'
p2176
g30
F0.9991
tp2177
a(S'and'
p2178
g58
F0.9971
tp2179
a(S'your'
p2180
g27
F0.9296
tp2181
a(S'cup'
p2182
g30
F0.9972
tp2183
a(S'in'
p2184
g103
F0.9991
tp2185
a(S'the'
p2186
g27
F0.9974
tp2187
a(S'sink'
p2188
g30
F0.9857
tp2189
asI221
(lp2190
(g48
g21
F0.9873
tp2191
a(S'can'
p2192
g24
F0.9998
tp2193
a(S'only'
p2194
g70
F0.9494
tp2195
a(S'take'
p2196
g24
F0.9948
tp2197
a(S'one'
p2198
g1231
F0.9369
tp2199
a(S'at'
p2200
g103
F0.9995
tp2201
a(g173
g27
F0.999
tp2202
a(S'time'
p2203
g30
F0.9981
tp2204
asI222
(lp2205
(S'thank'
p2206
g24
F0.9631
tp2207
a(S'you'
p2208
g21
F0.9987
tp2209
asI223
(lp2210
(S'well'
p2211
g3
F0.7958
tp2212
a(S'then'
p2213
g70
F0.9531
tp2214
a(S'do'
p2215
g24
F0.9986
tp2216
a(S'that'
p2217
g21
F0.8292
tp2218
asI224
(lp2219
(g48
g21
F0.9718
tp2220
a(S'like'
p2221
g24
F0.8854
tp2222
a(S'it'
p2223
g21
F0.9985
tp2224
asI225
(lp2225
(S'good'
p2226
g123
F0.9939
tp2227
a(S'boy'
p2228
g30
F0.9964
tp2229
asI226
(lp2230
(S'mama'
p2231
g30
F0.808
tp2232
a(S'xxx'
p2233
g439
F0.6637
tp2234
a(g48
g21
F0.9541
tp2235
a(S'like'
p2236
g24
F0.8101
tp2237
a(S'it'
p2238
g21
F0.9986
tp2239
a(S'xxx'
p2240
g439
F0.736
tp2241
asI227
(lp2242
(S'now'
p2243
g70
F0.9934
tp2244
a(S'will'
p2245
g24
F0.9993
tp2246
a(S'you'
p2247
g21
F0.9987
tp2248
a(S'set'
p2249
g24
F0.9961
tp2250
a(S'out'
p2251
g423
F0.7012
tp2252
a(S'the'
p2253
g27
F0.9844
tp2254
a(S'xxx'
p2255
g439
F0.4257
tp2256
asI228
(lp2257
(S'yes'
p2258
g3
F0.9958
tp2259
asI229
(lp2260
(S'thank'
p2261
g24
F0.9631
tp2262
a(S'you'
p2263
g21
F0.9777
tp2264
a(S'guys'
p2265
g30
F0.9729
tp2266
as.