(dp0
I16
(lp1
(S'tell'
p2
S'V'
p3
F0.9944
tp4
a(S'me'
p5
S'O'
p6
F0.9994
tp7
a(S'if'
p8
S'P'
p9
F0.9953
tp10
a(S'you'
p11
g6
F0.9995
tp12
a(S'like'
p13
g3
F0.9071
tp14
a(S'that'
p15
g6
F0.9566
tp16
a(S'.'
p17
S','
p18
F0.9987
tp19
asI20
(lp20
(S'that'
p21
g6
F0.9115
tp22
a(S'is'
p23
g3
F0.9996
tp24
a(S'something'
p25
S'N'
p26
F0.9539
tp27
a(S'new'
p28
S'A'
p29
F0.9434
tp30
a(S"I'll"
p31
S'L'
p32
F0.9469
tp33
a(S'get'
p34
g3
F0.9995
tp35
a(S'more'
p36
g29
F0.9161
tp37
a(S'of'
p38
g9
F0.9991
tp39
a(S'it'
p40
g6
F0.9977
tp41
a(S'if'
p42
g9
F0.9981
tp43
a(S'you'
p44
g6
F0.9995
tp45
a(S'like'
p46
g3
F0.793
tp47
a(g17
g18
F0.9967
tp48
asI26
(lp49
(S'try'
p50
g3
F0.9896
tp51
a(S'these'
p52
g6
F0.7253
tp53
a(S'here'
p54
S'R'
p55
F0.955
tp56
a(g17
g18
F0.9987
tp57
asI29
(lp58
(S'these'
p59
S'D'
p60
F0.5444
tp61
a(S'are'
p62
g3
F0.9198
tp63
a(S'called'
p64
g3
F0.9822
tp65
a(S'<'
p66
S'~'
p67
F0.5033
tp68
a(S'&m'
p69
g67
F0.2357
tp70
a(S'>'
p71
S'G'
p72
F0.2848
tp73
a(S'[//]'
p74
g72
F0.446
tp75
a(S'Chi'
p76
S'^'
p77
F0.9108
tp78
a(S'beef'
p79
g26
F0.8759
tp80
a(S'turnovers'
p81
g26
F0.9646
tp82
a(g17
g18
F0.9989
tp83
asI34
(lp84
(S"they're"
p85
g32
F0.6043
tp86
a(S'kind'
p87
g26
F0.7633
tp88
a(S'of'
p89
g9
F0.9898
tp90
a(S'hot'
p91
g29
F0.9206
tp92
a(S'so'
p93
g9
F0.8314
tp94
a(S'be'
p95
g3
F0.9329
tp96
a(S'careful'
p97
g29
F0.936
tp98
a(g17
g18
F0.9986
tp99
asI39
(lp100
(S'&'
p101
g101
F0.9893
tp102
a(S'='
p103
g18
F0.8588
tp104
a(S'yelps'
p105
g26
F0.8556
tp106
a(g17
g18
F0.9982
tp107
asI40
(lp108
(S'I'
p109
g6
F0.9982
tp110
a(S'told'
p111
g3
F0.999
tp112
a(S'['
p113
g18
F0.9817
tp114
a(S'!'
p115
g18
F0.9922
tp116
a(S']'
p117
g18
F0.9821
tp118
a(S'you'
p119
g6
F0.994
tp120
a(S'to'
p121
g9
F0.9728
tp122
a(S'blow'
p123
g26
F0.7067
tp124
a(g113
g18
F0.9701
tp125
a(g115
g18
F0.9901
tp126
a(g117
g18
F0.9803
tp127
a(S'on'
p128
g9
F0.9891
tp129
a(S'it'
p130
g6
F0.997
tp131
a(g17
g18
F0.9994
tp132
asI44
(lp133
(S'ow'
p134
g115
F0.9868
tp135
a(g115
g18
F0.9967
tp136
asI47
(lp137
(S'let'
p138
g3
F0.9967
tp139
a(S'it'
p140
g6
F0.9884
tp141
a(S'cool'
p142
g29
F0.9507
tp143
a(g17
g18
F0.9986
tp144
asI50
(lp145
(S'eat'
p146
g3
F0.99
tp147
a(S'your'
p148
g60
F0.9928
tp149
a(S'potatoes'
p150
g26
F0.9996
tp151
a(g17
g18
F0.9986
tp152
asI53
(lp153
(S'xxx'
p154
S'E'
p155
F0.5822
tp156
a(g17
g18
F0.9648
tp157
asI54
(lp158
(S'xxx'
p159
g155
F0.6944
tp160
a(S'mama'
p161
g26
F0.9627
tp162
a(g17
g18
F0.9984
tp163
asI57
(lp164
(S'hm'
p165
g115
F0.9811
tp166
a(S':'
p167
g18
F0.891
tp168
a(S'?'
p169
g18
F0.9885
tp170
asI61
(lp171
(S'you'
p172
g6
F0.9969
tp173
a(S'can'
p174
g3
F0.9997
tp175
a(S'have'
p176
g3
F0.9993
tp177
a(S'chicken'
p178
g26
F0.9701
tp179
a(S'tomorrow'
p180
g26
F0.9875
tp181
a(g17
g18
F0.995
tp182
asI64
(lp183
(S'what'
p184
g6
F0.7559
tp185
a(S'Mom'
p186
g26
F0.97
tp187
a(g169
g18
F0.9981
tp188
asI70
(lp189
(S"we're"
p190
g32
F0.9586
tp191
a(S'having'
p192
g3
F0.9939
tp193
a(S'chicken'
p194
g26
F0.9713
tp195
a(S'tomorrow'
p196
g26
F0.994
tp197
a(g17
g18
F0.9964
tp198
asI73
(lp199
(S'chicken'
p200
g26
F0.7248
tp201
a(g169
g18
F0.9968
tp202
asI77
(lp203
(S'mhm'
p204
g115
F0.9761
tp205
a(g17
g18
F0.9962
tp206
asI80
(lp207
(g109
g6
F0.9976
tp208
a(S'have_to'
p209
g3
F0.9997
tp210
a(S'defrost'
p211
g3
F0.9966
tp212
a(S'it'
p213
g6
F0.988
tp214
a(g17
g18
F0.9989
tp215
asI84
(lp216
(S'xxx'
p217
g155
F0.5822
tp218
a(g17
g18
F0.9648
tp219
asI85
(lp220
(S'so'
p221
g9
F0.6691
tp222
a(S"what'd"
p223
g6
F0.3324
tp224
a(S'you'
p225
g6
F0.9985
tp226
a(S'xxx'
p227
g3
F0.3801
tp228
a(g17
g18
F0.9977
tp229
asI88
(lp230
(S'Momma'
p231
g26
F0.7453
tp232
a(g17
g18
F0.9983
tp233
asI91
(lp234
(S'what'
p235
g6
F0.9171
tp236
a(g169
g18
F0.9924
tp237
asI95
(lp238
(S'this'
p239
g6
F0.9526
tp240
a(S'is'
p241
g3
F0.999
tp242
a(S'a'
p243
g60
F0.9988
tp244
a(S'big'
p245
g29
F0.9908
tp246
a(S'plate'
p247
g26
F0.9935
tp248
a(S'Mom'
p249
g26
F0.9549
tp250
a(g17
g18
F0.9983
tp251
asI98
(lp252
(S'this'
p253
g6
F0.9526
tp254
a(S'is'
p255
g3
F0.999
tp256
a(g243
g60
F0.9988
tp257
a(S'big'
p258
g29
F0.9313
tp259
a(S'fat'
p260
g29
F0.9913
tp261
a(S'plate'
p262
g26
F0.9993
tp263
a(g17
g18
F0.9982
tp264
asI101
(lp265
(S"it's"
p266
g32
F0.9984
tp267
a(S'not'
p268
g55
F0.9911
tp269
a(g243
g60
F0.9934
tp270
a(S'big'
p271
g29
F0.9908
tp272
a(S'plate'
p273
g26
F0.9979
tp274
a(S"it's"
p275
g32
F0.9915
tp276
a(g243
g60
F0.9917
tp277
a(S'medium'
p278
g26
F0.8222
tp279
a(S'size'
p280
g26
F0.9818
tp281
a(S'plate'
p282
g26
F0.9941
tp283
a(g17
g18
F0.9984
tp284
asI106
(lp285
(S'what'
p286
g6
F0.7559
tp287
a(S'Mom'
p288
g26
F0.97
tp289
a(g169
g18
F0.9981
tp290
asI110
(lp291
(S"it's"
p292
g32
F0.9984
tp293
a(S'not'
p294
g55
F0.9911
tp295
a(g243
g60
F0.8968
tp296
a(S'+'
p297
g72
F0.5639
tp298
a(S'...'
p299
g67
F0.6673
tp300
asI113
(lp301
(S'what'
p302
g6
F0.7559
tp303
a(S'Mom'
p304
g26
F0.97
tp305
a(g169
g18
F0.9981
tp306
asI118
(lp307
(S'nothing'
p308
g26
F0.9908
tp309
a(g17
g18
F0.998
tp310
asI121
(lp311
(S'what'
p312
g6
F0.9674
tp313
a(S'xxx'
p314
g26
F0.4943
tp315
a(g17
g18
F0.9981
tp316
asI124
(lp317
(S'what'
p318
g6
F0.9171
tp319
a(g169
g18
F0.9924
tp320
asI128
(lp321
(g66
g67
F0.9328
tp322
a(S"it's"
p323
g32
F0.9956
tp324
a(g243
g60
F0.9974
tp325
a(S'big'
p326
g29
F0.9507
tp327
a(g71
g18
F0.297
tp328
a(S'[//]'
p329
g18
F0.3357
tp330
a(S"it's"
p331
g32
F0.9983
tp332
a(S'not'
p333
g55
F0.9947
tp334
a(g243
g60
F0.9933
tp335
a(S'big'
p336
g29
F0.9808
tp337
a(S'size'
p338
g26
F0.9902
tp339
a(S'plate'
p340
g26
F0.9879
tp341
a(S"it's"
p342
g32
F0.9915
tp343
a(g243
g60
F0.9917
tp344
a(S'medium'
p345
g26
F0.8723
tp346
a(S'(.)'
p347
g72
F0.361
tp348
a(S'size'
p349
g26
F0.7579
tp350
a(S'plate'
p351
g26
F0.9963
tp352
a(g17
g18
F0.9983
tp353
asI133
(lp354
(S'xxx'
p355
g155
F0.5822
tp356
a(g17
g18
F0.9648
tp357
asI135
(lp358
(S'xxx'
p359
g155
F0.6563
tp360
a(S'have'
p361
g3
F0.9992
tp362
a(S'you'
p363
g6
F0.9994
tp364
a(S'been'
p365
g3
F0.9981
tp366
a(S'learning'
p367
g3
F0.9997
tp368
a(S'any'
p369
g60
F0.9966
tp370
a(S'stories'
p371
g26
F0.9981
tp372
a(S'in'
p373
g9
F0.9904
tp374
a(g66
g67
F0.6681
tp375
a(S'&s'
p376
g67
F0.2268
tp377
a(g71
g72
F0.2848
tp378
a(S'[/]'
p379
g72
F0.3513
tp380
a(S'day'
p381
g26
F0.9866
tp382
a(S'care'
p383
g26
F0.5021
tp384
a(g169
g18
F0.9968
tp385
asI141
(lp386
(S'what'
p387
g6
F0.7559
tp388
a(S'Mom'
p389
g26
F0.97
tp390
a(g169
g18
F0.9981
tp391
asI145
(lp392
(S'have'
p393
g3
F0.9991
tp394
a(S'you'
p395
g6
F0.9975
tp396
a(S'xxx'
p397
g3
F0.8788
tp398
a(S'in'
p399
g9
F0.9704
tp400
a(S'school'
p401
g26
F0.997
tp402
a(g169
g18
F0.9974
tp403
asI149
(lp404
(S'yeah'
p405
g115
F0.9986
tp406
a(g17
g18
F0.997
tp407
asI152
(lp408
(S'can'
p409
g3
F0.9807
tp410
a(g66
g3
F0.4672
tp411
a(S'you'
p412
g6
F0.9988
tp413
a(S'tell'
p414
g3
F0.9998
tp415
a(S'me'
p416
g6
F0.9876
tp417
a(S'one'
p418
S'$'
p419
F0.8783
tp420
a(g71
g155
F0.6304
tp421
a(g113
g155
F0.5345
tp422
a(g71
g155
F0.9577
tp423
a(g117
g18
F0.6335
tp424
a(g169
g18
F0.9962
tp425
asI156
(lp426
(S'xxx'
p427
g155
F0.8981
tp428
a(g113
g18
F0.6622
tp429
a(g66
g67
F0.9843
tp430
a(g117
g18
F0.952
tp431
a(S'xxx'
p432
g155
F0.5406
tp433
a(g17
g18
F0.9527
tp434
asI157
(lp435
(S'can'
p436
g3
F0.999
tp437
a(S'you'
p438
g6
F0.9986
tp439
a(S'tell'
p440
g3
F0.9998
tp441
a(S'me'
p442
g6
F0.9979
tp443
a(g243
g60
F0.9918
tp444
a(S'story'
p445
g26
F0.9988
tp446
a(g169
g18
F0.9985
tp447
asI161
(lp448
(S'&-um'
p449
g115
F0.8863
tp450
a(S'xxx'
p451
g155
F0.4691
tp452
a(g17
g18
F0.9721
tp453
asI162
(lp454
(S'and'
p455
g101
F0.9977
tp456
a(S'the'
p457
g60
F0.9981
tp458
a(S'horsie'
p459
g26
F0.9889
tp460
a(S'too'
p461
g55
F0.9692
tp462
a(g169
g18
F0.9973
tp463
asI166
(lp464
(S'yeah'
p465
g115
F0.9994
tp466
a(g115
g18
F0.9967
tp467
asI169
(lp468
(S'and'
p469
g101
F0.9989
tp470
a(S'he'
p471
g6
F0.9979
tp472
a(S'was'
p473
g3
F0.9997
tp474
a(S'walking'
p475
g3
F0.9836
tp476
a(S'on'
p477
g9
F0.9803
tp478
a(S'his'
p479
g60
F0.999
tp480
a(S'feet'
p481
g26
F0.9979
tp482
a(g17
g18
F0.9984
tp483
asI173
(lp484
(S'xxx'
p485
g155
F0.676
tp486
a(S'and'
p487
g101
F0.9965
tp488
a(S'the'
p489
g60
F0.9813
tp490
a(S'xxx'
p491
g26
F0.6701
tp492
a(S'kicked'
p493
g3
F0.9946
tp494
a(S'[//]'
p495
g18
F0.4048
tp496
a(S'kicked'
p497
g3
F0.9948
tp498
a(S'in'
p499
g9
F0.9805
tp500
a(S'the'
p501
g60
F0.9997
tp502
a(S'face'
p503
g26
F0.9669
tp504
a(S'Mom'
p505
g26
F0.9637
tp506
a(g17
g18
F0.9974
tp507
asI180
(lp508
(S'really'
p509
g55
F0.9969
tp510
a(g169
g18
F0.9957
tp511
asI184
(lp512
(S'yeah'
p513
g115
F0.9926
tp514
a(S'Mom'
p515
g26
F0.7808
tp516
a(g17
g18
F0.9984
tp517
asI188
(lp518
(S'hold'
p519
g3
F0.973
tp520
a(S'on'
p521
g9
F0.6194
tp522
a(S'let'
p523
g3
F0.9712
tp524
a(S'me'
p525
g6
F0.9993
tp526
a(S'hang'
p527
g3
F0.9995
tp528
a(S'up'
p529
S'T'
p530
F0.9301
tp531
a(S'the'
p532
g60
F0.9996
tp533
a(S'phone'
p534
g26
F0.9996
tp535
a(g17
g18
F0.9986
tp536
asI195
(lp537
(g101
g101
F0.9893
tp538
a(g103
g18
F0.8588
tp539
a(S'coughs'
p540
g26
F0.7594
tp541
a(g17
g18
F0.9982
tp542
asI196
(lp543
(S'xxx'
p544
g155
F0.5822
tp545
a(g17
g18
F0.9648
tp546
asI197
(lp547
(S"what's"
p548
g32
F0.9911
tp549
a(S'that'
p550
g6
F0.8718
tp551
a(g17
g18
F0.9986
tp552
asI200
(lp553
(S'lemme'
p554
g32
F0.9367
tp555
a(S'[:'
p556
g155
F0.933
tp557
a(S'let'
p558
g3
F0.9985
tp559
a(S'me'
p560
g6
F0.999
tp561
a(g117
g18
F0.996
tp562
a(S'see'
p563
g3
F0.95
tp564
a(g17
g18
F0.9976
tp565
asI203
(lp566
(S'the'
p567
g60
F0.9985
tp568
a(S'mail'
p569
g26
F0.9931
tp570
a(S'comed'
p571
g26
F0.4489
tp572
a(S'@n'
p573
S'@'
p574
F0.9929
tp575
a(g17
g18
F0.9959
tp576
asI206
(lp577
(S'eat'
p578
g3
F0.979
tp579
a(S'the'
p580
g60
F0.9995
tp581
a(S'potatoes'
p582
g26
F0.9992
tp583
a(g17
g18
F0.9986
tp584
asI209
(lp585
(S'these'
p586
g60
F0.5444
tp587
a(S'are'
p588
g3
F0.9615
tp589
a(S'good'
p590
g29
F0.9982
tp591
a(g17
g18
F0.9984
tp592
asI213
(lp593
(S'so'
p594
g9
F0.7418
tp595
a(S'what'
p596
g6
F0.9961
tp597
a(S'happened'
p598
g3
F0.9981
tp599
a(S'to'
p600
g9
F0.9967
tp601
a(S'the'
p602
g60
F0.9992
tp603
a(S'horse'
p604
g26
F0.9921
tp605
a(S'and'
p606
g101
F0.9915
tp607
a(S'the'
p608
g60
F0.999
tp609
a(S'feet'
p610
g26
F0.9987
tp611
a(g169
g18
F0.9978
tp612
asI219
(lp613
(S'what'
p614
g6
F0.7559
tp615
a(S'Mom'
p616
g26
F0.97
tp617
a(g169
g18
F0.9981
tp618
asI223
(lp619
(S'what'
p620
g6
F0.988
tp621
a(S'happened'
p622
g3
F0.9981
tp623
a(S'to'
p624
g9
F0.9945
tp625
a(S'the'
p626
g60
F0.9992
tp627
a(S'horse'
p628
g26
F0.9941
tp629
a(g169
g18
F0.9977
tp630
asI227
(lp631
(S'he'
p632
g6
F0.9944
tp633
a(S'broke'
p634
g3
F0.9847
tp635
a(S'his'
p636
g60
F0.9846
tp637
a(S'xxx'
p638
g26
F0.6986
tp639
a(g17
g18
F0.9984
tp640
asI230
(lp641
(S"how'd"
p642
g55
F0.6821
tp643
a(S'[:'
p644
g155
F0.9484
tp645
a(S'how'
p646
g55
F0.973
tp647
a(S'did'
p648
g3
F0.969
tp649
a(g117
g18
F0.9934
tp650
a(S'he'
p651
g6
F0.988
tp652
a(S'xxx'
p653
g3
F0.472
tp654
a(g17
g18
F0.9976
tp655
asI234
(lp656
(S'xxx'
p657
g155
F0.5944
tp658
a(S'table'
p659
g26
F0.9874
tp660
a(g17
g18
F0.9983
tp661
asI237
(lp662
(S'did'
p663
g3
F0.991
tp664
a(S'he'
p665
g6
F0.9965
tp666
a(S'get'
p667
g3
F0.9997
tp668
a(S'hit'
p669
g3
F0.9693
tp670
a(S'by'
p671
g9
F0.9986
tp672
a(g243
g60
F0.9969
tp673
a(S'car'
p674
g26
F0.998
tp675
a(g169
g18
F0.9981
tp676
asI241
(lp677
(S'xxx'
p678
g155
F0.5822
tp679
a(g17
g18
F0.9648
tp680
asI242
(lp681
(S'oh'
p682
g115
F0.995
tp683
a(S'he'
p684
g6
F0.9959
tp685
a(S'took'
p686
g3
F0.9987
tp687
a(S'xxx'
p688
g155
F0.4637
tp689
a(g17
g18
F0.9688
tp690
asI245
(lp691
(S'no'
p692
g115
F0.9704
tp693
a(g17
g18
F0.9989
tp694
asI248
(lp695
(S'uhhuh'
p696
g115
F0.9881
tp697
a(g17
g18
F0.997
tp698
asI251
(lp699
(S'he'
p700
g6
F0.9945
tp701
a(S'kicked'
p702
g3
F0.9955
tp703
a(S'xxx'
p704
g155
F0.3308
tp705
a(g17
g18
F0.9663
tp706
asI254
(lp707
(S'xxx'
p708
g155
F0.5822
tp709
a(g17
g18
F0.9648
tp710
asI255
(lp711
(S'what'
p712
g6
F0.9372
tp713
a(S'Mot'
p714
g26
F0.6284
tp715
a(g169
g18
F0.9946
tp716
asI259
(lp717
(S'xxx'
p718
g155
F0.5414
tp719
a(S'kicked'
p720
g3
F0.9533
tp721
a(S'xxx'
p722
g155
F0.3021
tp723
a(S'broked'
p724
g29
F0.4846
tp725
a(S'@n'
p726
g574
F0.9971
tp727
a(S'his'
p728
g60
F0.9965
tp729
a(S'tummy'
p730
g26
F0.9877
tp731
a(S'off'
p732
g9
F0.5223
tp733
a(g17
g18
F0.9982
tp734
asI262
(lp735
(S'he'
p736
g6
F0.9883
tp737
a(S'xxx'
p738
g3
F0.847
tp739
a(S'broked'
p740
g3
F0.5815
tp741
a(S'@n'
p742
g574
F0.9973
tp743
a(S'his'
p744
g60
F0.998
tp745
a(S'paw'
p746
g26
F0.9985
tp747
a(g113
g18
F0.988
tp748
a(g169
g18
F0.9858
tp749
a(g117
g18
F0.921
tp750
a(g17
g18
F0.9959
tp751
asI265
(lp752
(S'was'
p753
g3
F0.9966
tp754
a(S'the'
p755
g60
F0.9996
tp756
a(S'horsie'
p757
g26
F0.9408
tp758
a(g243
g60
F0.9715
tp759
a(S'bad'
p760
g29
F0.9918
tp761
a(S'horsie'
p762
g26
F0.9871
tp763
a(S'or'
p764
g101
F0.9906
tp765
a(S'+/'
p766
g26
F0.3709
tp767
a(g17
g18
F0.9984
tp768
asI270
(lp769
(S'he'
p770
g6
F0.9858
tp771
a(S'xxx'
p772
g3
F0.5313
tp773
a(g17
g18
F0.9974
tp774
asI273
(lp775
(S'what'
p776
g6
F0.9931
tp777
a(S'do'
p778
g3
F0.9993
tp779
a(S'you'
p780
g6
F0.9997
tp781
a(S'say'
p782
g3
F0.9857
tp783
a(g169
g18
F0.9977
tp784
asI277
(lp785
(S'what'
p786
g6
F0.9931
tp787
a(S'do'
p788
g3
F0.9993
tp789
a(S'you'
p790
g6
F0.9997
tp791
a(S'say'
p792
g3
F0.9857
tp793
a(g169
g18
F0.9977
tp794
asI281
(lp795
(S'bad'
p796
g29
F0.9522
tp797
a(g113
g18
F0.9881
tp798
a(g169
g18
F0.976
tp799
a(g117
g18
F0.9204
tp800
a(S'please'
p801
g3
F0.9778
tp802
a(g17
g18
F0.9975
tp803
asI284
(lp804
(S'now'
p805
g55
F0.9628
tp806
a(S'what'
p807
g6
F0.996
tp808
a(S'do'
p809
g3
F0.9993
tp810
a(S'you'
p811
g6
F0.9996
tp812
a(S'say'
p813
g3
F0.9947
tp814
a(g169
g18
F0.997
tp815
asI288
(lp816
(S'no'
p817
g60
F0.68
tp818
a(S'milk'
p819
g26
F0.9999
tp820
a(g17
g18
F0.9985
tp821
asI291
(lp822
(S'xxx'
p823
g155
F0.5822
tp824
a(g17
g18
F0.9648
tp825
asI292
(lp826
(S'xxx'
p827
g155
F0.7103
tp828
a(g169
g18
F0.9715
tp829
asI294
(lp830
(S'you'
p831
g6
F0.998
tp832
a(S'kicked'
p833
g3
F0.9995
tp834
a(g243
g60
F0.9983
tp835
a(S'ball'
p836
g26
F0.999
tp837
a(g169
g18
F0.9984
tp838
asI298
(lp839
(S'Uncle'
p840
g77
F0.5588
tp841
a(S'Richard'
p842
g77
F1.0
tp843
a(S'likes'
p844
g3
F0.9964
tp845
a(S'to'
p846
g9
F0.995
tp847
a(S'play'
p848
g3
F0.9972
tp849
a(S'soccer'
p850
g26
F0.9811
tp851
a(g17
g18
F0.9981
tp852
asI301
(lp853
(S'what'
p854
g6
F0.8047
tp855
a(S'Mama'
p856
g26
F0.9546
tp857
a(g169
g18
F0.9975
tp858
asI305
(lp859
(S'Uncle'
p860
g77
F0.5588
tp861
a(S'Richard'
p862
g77
F1.0
tp863
a(S'likes'
p864
g3
F0.9964
tp865
a(S'to'
p866
g9
F0.995
tp867
a(S'play'
p868
g3
F0.9972
tp869
a(S'soccer'
p870
g26
F0.9811
tp871
a(g17
g18
F0.9981
tp872
asI308
(lp873
(g66
g67
F0.9526
tp874
a(g109
g6
F0.9967
tp875
a(g71
g67
F0.2694
tp876
a(S'[/]'
p877
g18
F0.327
tp878
a(g109
g6
F0.9938
tp879
a(S'like'
p880
g3
F0.9574
tp881
a(S'to'
p882
g9
F0.99
tp883
a(S'play'
p884
g3
F0.996
tp885
a(S'soccer'
p886
g26
F0.9809
tp887
a(S'outside'
p888
g9
F0.6666
tp889
a(S'Mom'
p890
g26
F0.856
tp891
a(g17
g18
F0.9974
tp892
asI311
(lp893
(S'you'
p894
g6
F0.9968
tp895
a(S'gonna'
p896
g3
F0.9996
tp897
a(S'eat'
p898
g3
F0.9997
tp899
a(S'your'
p900
g60
F0.9421
tp901
a(S'xxx'
p902
g26
F0.7808
tp903
a(g17
g18
F0.9978
tp904
asI315
(lp905
(S'like'
p906
g9
F0.7814
tp907
a(S'that'
p908
g60
F0.7261
tp909
a(S'mom'
p910
g26
F0.9824
tp911
a(S'xxx'
p912
g155
F0.5762
tp913
a(S'and'
p914
g101
F0.9993
tp915
a(g109
g6
F0.9989
tp916
a(S'broke'
p917
g3
F0.993
tp918
a(S'my'
p919
g60
F0.9992
tp920
a(S'foot'
p921
g26
F0.9983
tp922
a(S'like'
p923
g9
F0.9657
tp924
a(S'that'
p925
g6
F0.9593
tp926
a(g17
g18
F0.9979
tp927
asI320
(lp928
(S'did'
p929
g3
F0.9983
tp930
a(S'you'
p931
g6
F0.9861
tp932
a(g169
g18
F0.9993
tp933
asI324
(lp934
(g101
g101
F0.9893
tp935
a(g103
g18
F0.8669
tp936
a(S'laughs'
p937
g3
F0.8696
tp938
a(g17
g18
F0.9983
tp939
asI325
(lp940
(g109
g6
F0.9991
tp941
a(S'did'
p942
g3
F0.9982
tp943
a(S'Mom'
p944
g26
F0.7495
tp945
a(g17
g18
F0.9984
tp946
asI328
(lp947
(g109
g6
F0.9991
tp948
a(S'did'
p949
g3
F0.9999
tp950
a(S'broke'
p951
g3
F0.893
tp952
a(S'my'
p953
g60
F0.9993
tp954
a(S'foot'
p955
g26
F0.9989
tp956
a(S'off'
p957
g9
F0.5685
tp958
a(g17
g18
F0.9975
tp959
asI331
(lp960
(S'xxx'
p961
g155
F0.5822
tp962
a(g17
g18
F0.9648
tp963
asI332
(lp964
(S'xxx'
p965
g155
F0.5822
tp966
a(g17
g18
F0.9648
tp967
asI333
(lp968
(S'if'
p969
g9
F0.9977
tp970
a(S'you'
p971
g6
F0.9997
tp972
a(S'broke'
p973
g3
F0.98
tp974
a(S'your'
p975
g60
F0.9965
tp976
a(S'foot'
p977
g26
F0.9991
tp978
a(S'Chi'
p979
g77
F0.645
tp980
a(g66
g67
F0.8328
tp981
a(S'you'
p982
g6
F0.9979
tp983
a(S'would'
p984
g3
F0.9996
tp985
a(S'know'
p986
g3
F1.0
tp987
a(S'it'
p988
g6
F0.9951
tp989
a(g71
g155
F0.4648
tp990
a(g113
g155
F0.5345
tp991
a(g71
g155
F0.9625
tp992
a(g117
g18
F0.7995
tp993
a(g17
g18
F0.9972
tp994
asI339
(lp995
(S'xxx'
p996
g155
F0.8981
tp997
a(g113
g18
F0.6622
tp998
a(g66
g67
F0.9843
tp999
a(g117
g18
F0.952
tp1000
a(S'xxx'
p1001
g155
F0.6296
tp1002
a(g115
g18
F0.9744
tp1003
asI341
(lp1004
(S'eat'
p1005
g3
F0.99
tp1006
a(S'your'
p1007
g60
F0.9939
tp1008
a(S'supper'
p1009
g26
F0.9949
tp1010
a(S'and'
p1011
g101
F0.9974
tp1012
a(S"I'll"
p1013
g32
F0.9901
tp1014
a(S'hang'
p1015
g3
F0.9999
tp1016
a(S'up'
p1017
g530
F0.9547
tp1018
a(g17
g18
F0.998
tp1019
asI347
(lp1020
(S'xxx'
p1021
g155
F0.6919
tp1022
a(S'go'
p1023
g3
F0.9882
tp1024
a(S'like'
p1025
g9
F0.5949
tp1026
a(S'whoa'
p1027
g115
F0.7295
tp1028
a(S'xxx'
p1029
g155
F0.68
tp1030
a(g109
g6
F0.9963
tp1031
a(S'bumped'
p1032
g3
F0.9999
tp1033
a(S'my'
p1034
g60
F0.9576
tp1035
a(S'xxx'
p1036
g26
F0.7475
tp1037
a(g109
g6
F0.9961
tp1038
a(S'bumped'
p1039
g3
F0.9999
tp1040
a(S'my'
p1041
g60
F0.9991
tp1042
a(S'head'
p1043
g26
F0.9948
tp1044
a(S'xxx'
p1045
g155
F0.7638
tp1046
a(S'whoa'
p1047
g115
F0.9881
tp1048
a(g17
g18
F0.9979
tp1049
asI355
(lp1050
(g66
g67
F0.9258
tp1051
a(S"isn't"
p1052
g3
F0.9997
tp1053
a(S'it'
p1054
g6
F0.9979
tp1055
a(g71
g18
F0.431
tp1056
a(S'[//]'
p1057
g18
F0.2602
tp1058
a(S"doesn't"
p1059
g3
F0.9997
tp1060
a(S'it'
p1061
g6
F0.9936
tp1062
a(S'stink'
p1063
g3
F0.9978
tp1064
a(S'to'
p1065
g9
F0.9868
tp1066
a(S'be'
p1067
g3
F0.999
tp1068
a(S'so'
p1069
g55
F0.8024
tp1070
a(S'&-um'
p1071
g72
F0.738
tp1072
a(S'(.)'
p1073
g72
F0.5712
tp1074
a(S'popular'
p1075
g29
F0.9405
tp1076
a(S'Chi'
p1077
g77
F0.837
tp1078
a(g169
g18
F0.9936
tp1079
asI361
(lp1080
(S'everybody'
p1081
g26
F0.9602
tp1082
a(g113
g18
F0.9854
tp1083
a(g115
g18
F0.9842
tp1084
a(g117
g18
F0.9809
tp1085
a(S'wants'
p1086
g3
F0.9992
tp1087
a(S'to'
p1088
g9
F0.9926
tp1089
a(S'talk'
p1090
g3
F0.9962
tp1091
a(S'to'
p1092
g9
F0.9982
tp1093
a(S'you'
p1094
g6
F0.9981
tp1095
a(S'everybody'
p1096
g26
F0.9483
tp1097
a(g17
g18
F0.9985
tp1098
asI366
(lp1099
(S'Mom'
p1100
g26
F0.8533
tp1101
a(g115
g18
F0.9985
tp1102
asI369
(lp1103
(S'but'
p1104
g101
F0.9918
tp1105
a(S'who'
p1106
g6
F0.9967
tp1107
a(S'xxx'
p1108
g3
F0.5856
tp1109
a(S'know'
p1110
g3
F0.9282
tp1111
a(g17
g18
F0.998
tp1112
asI372
(lp1113
(S'tell'
p1114
g3
F0.9928
tp1115
a(S'you'
p1116
g6
F0.9991
tp1117
a(S'what'
p1118
g6
F0.801
tp1119
a(S"you're"
p1120
g32
F0.9866
tp1121
a(S'going'
p1122
g3
F0.9967
tp1123
a(S'to'
p1124
g9
F0.9724
tp1125
a(S'be'
p1126
g3
F0.9991
tp1127
a(S'doing'
p1128
g3
F0.9917
tp1129
a(S'tomorrow'
p1130
g26
F0.9711
tp1131
a(g17
g18
F0.9956
tp1132
asI377
(lp1133
(S"I'm"
p1134
g32
F0.997
tp1135
a(S'going'
p1136
g3
F0.9912
tp1137
a(S'to'
p1138
g9
F0.968
tp1139
a(S'paint'
p1140
g3
F0.9658
tp1141
a(S'Mom'
p1142
g26
F0.7772
tp1143
a(g17
g18
F0.9979
tp1144
asI380
(lp1145
(S"you're"
p1146
g32
F0.9942
tp1147
a(S'going'
p1148
g3
F0.9957
tp1149
a(S'to'
p1150
g9
F0.9595
tp1151
a(S'paint'
p1152
g3
F0.878
tp1153
a(g169
g18
F0.9981
tp1154
asI384
(lp1155
(S'ah'
p1156
g115
F0.9953
tp1157
a(g17
g18
F0.9961
tp1158
asI387
(lp1159
(S'you'
p1160
g6
F0.9948
tp1161
a(S'love'
p1162
g3
F0.983
tp1163
a(S'to'
p1164
g9
F0.9871
tp1165
a(S'paint'
p1166
g3
F0.9629
tp1167
a(S"don't"
p1168
g3
F0.9999
tp1169
a(S'you'
p1170
g6
F0.9954
tp1171
a(g169
g18
F0.9994
tp1172
asI391
(lp1173
(S'xxx'
p1174
g155
F0.5822
tp1175
a(g17
g18
F0.9648
tp1176
asI392
(lp1177
(S"I'm"
p1178
g32
F0.9905
tp1179
a(S'all'
p1180
g60
F0.6907
tp1181
a(S'done'
p1182
g29
F0.5678
tp1183
a(S'Mom'
p1184
g26
F0.9853
tp1185
a(g17
g18
F0.9985
tp1186
asI395
(lp1187
(S'no'
p1188
g115
F0.9005
tp1189
a(S"you're"
p1190
g32
F0.9942
tp1191
a(S'not'
p1192
g55
F0.9967
tp1193
a(g17
g18
F0.996
tp1194
asI398
(lp1195
(S'uhhum'
p1196
g115
F0.9859
tp1197
a(g17
g18
F0.9962
tp1198
asI401
(lp1199
(g109
g6
F0.9983
tp1200
a(S'want'
p1201
g3
F0.9999
tp1202
a(S'to'
p1203
g9
F0.9929
tp1204
a(S'see'
p1205
g3
F0.9997
tp1206
a(S'you'
p1207
g6
F0.9942
tp1208
a(S'eat'
p1209
g3
F0.9995
tp1210
a(g243
g60
F0.9988
tp1211
a(S'little'
p1212
g29
F0.9495
tp1213
a(S'more'
p1214
g29
F0.667
tp1215
a(S'Chi'
p1216
g77
F0.8554
tp1217
a(S'xxx'
p1218
g77
F0.3606
tp1219
a(g17
g18
F0.9897
tp1220
asI406
(lp1221
(S'what'
p1222
g6
F0.9171
tp1223
a(g169
g18
F0.9924
tp1224
asI410
(lp1225
(S'what'
p1226
g6
F0.7559
tp1227
a(S'Mom'
p1228
g26
F0.97
tp1229
a(g169
g18
F0.9981
tp1230
asI414
(lp1231
(S'xxx'
p1232
g155
F0.6944
tp1233
a(S'Mom'
p1234
g26
F0.8896
tp1235
a(g17
g18
F0.9984
tp1236
asI417
(lp1237
(S'Mom'
p1238
g26
F0.8533
tp1239
a(g115
g18
F0.9985
tp1240
asI420
(lp1241
(S'xxx'
p1242
g155
F0.7121
tp1243
a(S'probably'
p1244
g55
F0.9977
tp1245
a(S'be'
p1246
g3
F0.9973
tp1247
a(S'playing'
p1248
g3
F0.9973
tp1249
a(S'in'
p1250
g9
F0.9904
tp1251
a(S'the'
p1252
g60
F0.9993
tp1253
a(S'yard'
p1254
g26
F0.9927
tp1255
a(S'again'
p1256
g55
F0.9599
tp1257
a(g17
g18
F0.9981
tp1258
asI424
(lp1259
(g101
g101
F0.9893
tp1260
a(g103
g18
F0.8613
tp1261
a(S'whines'
p1262
g3
F0.6745
tp1263
a(g17
g18
F0.9978
tp1264
asI425
(lp1265
(S"I'm"
p1266
g32
F0.9875
tp1267
a(S'xxx'
p1268
g155
F0.3494
tp1269
a(g17
g18
F0.9721
tp1270
asI428
(lp1271
(S'(..)'
p1272
g18
F0.3701
tp1273
a(S'are'
p1274
g3
F0.9989
tp1275
a(S'you'
p1276
g6
F0.9972
tp1277
a(S'all'
p1278
g60
F0.6484
tp1279
a(S'the'
p1280
g60
F0.9993
tp1281
a(S'way'
p1282
g26
F0.9533
tp1283
a(S'done'
p1284
g3
F0.9408
tp1285
a(g169
g18
F0.9989
tp1286
asI432
(lp1287
(S'huh'
p1288
g115
F0.9936
tp1289
a(g169
g18
F0.9967
tp1290
asI436
(lp1291
(S'are'
p1292
g3
F0.9964
tp1293
a(S'you'
p1294
g6
F0.9961
tp1295
a(S'all'
p1296
g60
F0.6645
tp1297
a(S'the'
p1298
g60
F0.9942
tp1299
a(g66
g67
F0.8612
tp1300
a(S'way'
p1301
g26
F0.6663
tp1302
a(S'done'
p1303
g3
F0.9788
tp1304
a(g71
g155
F0.4844
tp1305
a(g113
g155
F0.5345
tp1306
a(g71
g155
F0.949
tp1307
a(g117
g18
F0.7992
tp1308
a(g17
g18
F0.9936
tp1309
asI439
(lp1310
(g66
g67
F0.9374
tp1311
a(S'no'
p1312
g115
F0.9169
tp1313
a(S"you're"
p1314
g32
F0.9946
tp1315
a(S'not'
p1316
g55
F0.9969
tp1317
a(g71
g155
F0.4839
tp1318
a(g113
g155
F0.5345
tp1319
a(g71
g155
F0.9532
tp1320
a(g117
g18
F0.6574
tp1321
a(S'Chi'
p1322
g77
F0.8488
tp1323
a(g17
g18
F0.9883
tp1324
asI442
(lp1325
(g66
g67
F0.9526
tp1326
a(g109
g6
F0.9988
tp1327
a(S'want'
p1328
g3
F0.9997
tp1329
a(S'xxx'
p1330
g155
F0.5575
tp1331
a(S'>[<'
p1332
g155
F0.9305
tp1333
a(g117
g18
F0.8164
tp1334
a(g17
g18
F0.9959
tp1335
asI445
(lp1336
(S'hm'
p1337
g115
F0.9811
tp1338
a(g167
g18
F0.891
tp1339
a(g169
g18
F0.9885
tp1340
asI449
(lp1341
(g109
g6
F0.9983
tp1342
a(S'want'
p1343
g3
F0.9996
tp1344
a(S'xxx'
p1345
g26
F0.3729
tp1346
a(g17
g18
F0.9983
tp1347
asI452
(lp1348
(S'where'
p1349
g55
F0.9373
tp1350
a(S'are'
p1351
g3
F0.987
tp1352
a(S'you'
p1353
g6
F0.9997
tp1354
a(S'going'
p1355
g3
F0.9946
tp1356
a(g169
g18
F0.9987
tp1357
asI456
(lp1358
(S'xxx'
p1359
g155
F0.5822
tp1360
a(g17
g18
F0.9648
tp1361
asI457
(lp1362
(S'huh'
p1363
g115
F0.9936
tp1364
a(g169
g18
F0.9967
tp1365
asI461
(lp1366
(S"I'm"
p1367
g32
F0.997
tp1368
a(S'almost'
p1369
g55
F0.9881
tp1370
a(S'done'
p1371
g3
F0.9625
tp1372
a(g17
g18
F0.999
tp1373
asI464
(lp1374
(S"I'm"
p1375
g32
F0.9905
tp1376
a(S'all'
p1377
g60
F0.684
tp1378
a(S'done'
p1379
g3
F0.4481
tp1380
a(g17
g18
F0.999
tp1381
asI467
(lp1382
(S'xxx'
p1383
g155
F0.5822
tp1384
a(g17
g18
F0.9648
tp1385
asI468
(lp1386
(S'xxx'
p1387
g155
F0.6536
tp1388
a(g101
g101
F0.9897
tp1389
a(g103
g18
F0.8875
tp1390
a(S'yells'
p1391
g3
F0.5627
tp1392
a(g115
g18
F0.9991
tp1393
asI469
(lp1394
(S'xxx'
p1395
g155
F0.6995
tp1396
a(S'all'
p1397
g60
F0.6965
tp1398
a(S'done'
p1399
g29
F0.5678
tp1400
a(S'mom'
p1401
g26
F0.9967
tp1402
a(g17
g18
F0.9985
tp1403
asI472
(lp1404
(S'no'
p1405
g115
F0.9005
tp1406
a(S"you're"
p1407
g32
F0.9942
tp1408
a(S'not'
p1409
g55
F0.9967
tp1410
a(g17
g18
F0.996
tp1411
asI475
(lp1412
(S'all'
p1413
g60
F0.6529
tp1414
a(g113
g18
F0.9742
tp1415
a(g115
g18
F0.9842
tp1416
a(g117
g18
F0.9883
tp1417
a(S'done'
p1418
g3
F0.9453
tp1419
a(g113
g18
F0.9936
tp1420
a(g115
g18
F0.9901
tp1421
a(g117
g18
F0.9862
tp1422
a(S'all'
p1423
g60
F0.6372
tp1424
a(g113
g18
F0.9744
tp1425
a(g115
g18
F0.9901
tp1426
a(g117
g18
F0.9765
tp1427
a(S'done'
p1428
g3
F0.9577
tp1429
a(g115
g18
F0.9994
tp1430
asI479
(lp1431
(S'you'
p1432
g6
F0.9963
tp1433
a(S'stay'
p1434
g3
F0.9985
tp1435
a(S'out'
p1436
g530
F0.8521
tp1437
a(S'back'
p1438
g26
F0.5437
tp1439
a(S'('
p1440
g18
F0.9954
tp1441
a(S'be)cause'
p1442
g9
F0.9978
tp1443
a(S"you're"
p1444
g32
F0.985
tp1445
a(S'coming'
p1446
g3
F0.9968
tp1447
a(S'in'
p1448
g9
F0.8732
tp1449
a(S'in'
p1450
g9
F0.9251
tp1451
a(S'fifteen'
p1452
g419
F0.7834
tp1453
a(S'minutes'
p1454
g26
F0.9965
tp1455
a(g17
g18
F0.9982
tp1456
asI485
(lp1457
(S'okay'
p1458
g115
F0.7863
tp1459
a(S'Mom'
p1460
g26
F0.7318
tp1461
a(g17
g18
F0.9984
tp1462
asI489
(lp1463
(S'bye'
p1464
g115
F0.9728
tp1465
a(g17
g18
F0.9977
tp1466
asI492
(lp1467
(S'okay'
p1468
g115
F0.991
tp1469
a(g115
g18
F0.9973
tp1470
as.