(dp0
I0
(lp1
(S'tell'
p2
S'V'
p3
F0.9944
tp4
a(S'me'
p5
S'O'
p6
F0.9994
tp7
a(S'if'
p8
S'P'
p9
F0.9953
tp10
a(S'you'
p11
g6
F0.9995
tp12
a(S'like'
p13
g3
F0.9071
tp14
a(S'that'
p15
g6
F0.9314
tp16
asI1
(lp17
(S'that'
p18
g6
F0.9115
tp19
a(S'is'
p20
g3
F0.9996
tp21
a(S'something'
p22
S'N'
p23
F0.9539
tp24
a(S'new'
p25
S'A'
p26
F0.9179
tp27
a(S'i'
p28
g6
F0.9424
tp29
a(S'll'
p30
g3
F0.6615
tp31
a(S'get'
p32
g3
F0.998
tp33
a(S'more'
p34
g26
F0.9161
tp35
a(S'of'
p36
g9
F0.9991
tp37
a(S'it'
p38
g6
F0.9977
tp39
a(S'if'
p40
g9
F0.9985
tp41
a(S'you'
p42
g6
F0.9993
tp43
a(S'like'
p44
g3
F0.7237
tp45
asI2
(lp46
(S'try'
p47
g3
F0.9853
tp48
a(S'these'
p49
g6
F0.7253
tp50
a(S'here'
p51
S'R'
p52
F0.9495
tp53
asI3
(lp54
(S'these'
p55
S'D'
p56
F0.5444
tp57
a(S'are'
p58
g3
F0.9198
tp59
a(S'called'
p60
g3
F0.9854
tp61
a(S'm'
p62
S'G'
p63
F0.2738
tp64
a(S'chi'
p65
S'^'
p66
F0.4595
tp67
a(S'beef'
p68
g23
F0.7517
tp69
a(S'turnovers'
p70
g23
F0.9412
tp71
asI4
(lp72
(S'they'
p73
g6
F0.9104
tp74
a(S're'
p75
g3
F0.7845
tp76
a(S'kind'
p77
g23
F0.9027
tp78
a(S'of'
p79
g9
F0.9927
tp80
a(S'hot'
p81
g26
F0.9047
tp82
a(S'so'
p83
g9
F0.8373
tp84
a(S'be'
p85
g3
F0.9132
tp86
a(S'careful'
p87
g26
F0.9243
tp88
asI5
(lp89
(S'yelps'
p90
g23
F0.607
tp91
asI6
(lp92
(g28
g6
F0.989
tp93
a(S'told'
p94
g3
F1.0
tp95
a(S'you'
p96
g6
F0.9989
tp97
a(S'to'
p98
g9
F0.9739
tp99
a(S'blow'
p100
g3
F0.8319
tp101
a(S'on'
p102
g9
F0.9271
tp103
a(S'it'
p104
g6
F0.9969
tp105
asI7
(lp106
(S'ow'
p107
S'!'
p108
F0.9682
tp109
asI8
(lp110
(S'let'
p111
g3
F0.9956
tp112
a(S'it'
p113
g6
F0.9884
tp114
a(S'cool'
p115
g26
F0.955
tp116
asI9
(lp117
(S'eat'
p118
g3
F0.9893
tp119
a(S'your'
p120
g56
F0.9928
tp121
a(S'potatoes'
p122
g23
F0.9993
tp123
asI10
(lp124
(S'xxx'
p125
S'E'
p126
F0.8437
tp127
asI11
(lp128
(S'xxx'
p129
g126
F0.6944
tp130
a(S'mama'
p131
g23
F0.8842
tp132
asI12
(lp133
(S'hm'
p134
g108
F0.995
tp135
asI13
(lp136
(S'you'
p137
g6
F0.9969
tp138
a(S'can'
p139
g3
F0.9997
tp140
a(S'have'
p141
g3
F0.9992
tp142
a(S'chicken'
p143
g23
F0.9701
tp144
a(S'tomorrow'
p145
g23
F0.9753
tp146
asI14
(lp147
(S'what'
p148
g6
F0.7559
tp149
a(S'mom'
p150
g23
F0.9657
tp151
asI15
(lp152
(S'we'
p153
g6
F0.9849
tp154
a(S're'
p155
g3
F0.678
tp156
a(S'having'
p157
g3
F0.9966
tp158
a(S'chicken'
p159
g23
F0.9679
tp160
a(S'tomorrow'
p161
g23
F0.9753
tp162
asI16
(lp163
(S'chicken'
p164
g23
F0.7024
tp165
asI17
(lp166
(S'mhm'
p167
g108
F0.9747
tp168
asI18
(lp169
(g28
g6
F0.9896
tp170
a(S'have'
p171
g3
F0.9998
tp172
a(S'to'
p173
g9
F0.993
tp174
a(S'defrost'
p175
g3
F0.9969
tp176
a(S'it'
p177
g6
F0.9901
tp178
asI19
(lp179
(S'xxx'
p180
g126
F0.8437
tp181
asI20
(lp182
(S'so'
p183
g9
F0.7418
tp184
a(S'what'
p185
g6
F0.9871
tp186
a(S'd'
p187
g3
F0.5168
tp188
a(S'you'
p189
g6
F0.998
tp190
a(S'xxx'
p191
g126
F0.4682
tp192
asI21
(lp193
(S'momma'
p194
g108
F0.4579
tp195
asI22
(lp196
(S'what'
p197
g6
F0.949
tp198
asI23
(lp199
(S'this'
p200
g6
F0.9526
tp201
a(S'is'
p202
g3
F0.999
tp203
a(S'a'
p204
g56
F0.9988
tp205
a(S'big'
p206
g26
F0.9886
tp207
a(S'plate'
p208
g23
F0.9935
tp209
a(S'mom'
p210
g23
F0.9349
tp211
asI24
(lp212
(S'this'
p213
g6
F0.9526
tp214
a(S'is'
p215
g3
F0.999
tp216
a(g204
g56
F0.9988
tp217
a(S'big'
p218
g26
F0.9235
tp219
a(S'fat'
p220
g26
F0.9913
tp221
a(S'plate'
p222
g23
F0.9985
tp223
asI25
(lp224
(S'it'
p225
g6
F0.9888
tp226
a(S's'
p227
g3
F0.585
tp228
a(S'not'
p229
g52
F0.9889
tp230
a(g204
g56
F0.9935
tp231
a(S'big'
p232
g26
F0.9889
tp233
a(S'plate'
p234
g23
F0.9938
tp235
a(S'it'
p236
g6
F0.9435
tp237
a(g227
g3
F0.7126
tp238
a(g204
g56
F0.9927
tp239
a(S'medium'
p240
g23
F0.7281
tp241
a(S'size'
p242
g23
F0.9851
tp243
a(S'plate'
p244
g23
F0.9922
tp245
asI26
(lp246
(S'what'
p247
g6
F0.7559
tp248
a(S'mom'
p249
g23
F0.9657
tp250
asI27
(lp251
(S'it'
p252
g6
F0.9888
tp253
a(g227
g3
F0.5544
tp254
a(S'not'
p255
g52
F0.9832
tp256
a(g204
g56
F0.911
tp257
asI28
(lp258
(S'what'
p259
g6
F0.7559
tp260
a(S'mom'
p261
g23
F0.9657
tp262
asI29
(lp263
(S'nothing'
p264
g23
F0.9678
tp265
asI30
(lp266
(S'what'
p267
g6
F0.9674
tp268
a(S'xxx'
p269
g126
F0.6988
tp270
asI31
(lp271
(S'what'
p272
g6
F0.949
tp273
asI32
(lp274
(S'it'
p275
g6
F0.9888
tp276
a(g227
g3
F0.7285
tp277
a(g204
g56
F0.9976
tp278
a(S'big'
p279
g26
F0.9696
tp280
a(S'it'
p281
g6
F0.9757
tp282
a(g227
g3
F0.5675
tp283
a(S'not'
p284
g52
F0.9896
tp285
a(g204
g56
F0.9933
tp286
a(S'big'
p287
g26
F0.9808
tp288
a(S'size'
p289
g23
F0.9902
tp290
a(S'plate'
p291
g23
F0.8552
tp292
a(S'it'
p293
g6
F0.9435
tp294
a(g227
g3
F0.7126
tp295
a(g204
g56
F0.9927
tp296
a(S'medium'
p297
g23
F0.8362
tp298
a(S'size'
p299
g23
F0.9781
tp300
a(S'plate'
p301
g23
F0.9854
tp302
asI33
(lp303
(S'xxx'
p304
g126
F0.8437
tp305
asI34
(lp306
(S'xxx'
p307
g126
F0.6563
tp308
a(S'have'
p309
g3
F0.9992
tp310
a(S'you'
p311
g6
F0.9994
tp312
a(S'been'
p313
g3
F0.9981
tp314
a(S'learning'
p315
g3
F0.9997
tp316
a(S'any'
p317
g56
F0.9966
tp318
a(S'stories'
p319
g23
F0.9981
tp320
a(S'in'
p321
g9
F0.9976
tp322
a(g227
g63
F0.4373
tp323
a(S'day'
p324
g23
F0.9742
tp325
a(S'care'
p326
g3
F0.6015
tp327
asI35
(lp328
(S'what'
p329
g6
F0.7559
tp330
a(S'mom'
p331
g23
F0.9657
tp332
asI36
(lp333
(S'have'
p334
g3
F0.9991
tp335
a(S'you'
p336
g6
F0.9975
tp337
a(S'xxx'
p338
g3
F0.8648
tp339
a(S'in'
p340
g9
F0.9704
tp341
a(S'school'
p342
g23
F0.9966
tp343
asI37
(lp344
(S'yeah'
p345
g108
F0.9988
tp346
asI38
(lp347
(S'can'
p348
g3
F0.999
tp349
a(S'you'
p350
g6
F0.9986
tp351
a(S'tell'
p352
g3
F0.9998
tp353
a(S'me'
p354
g6
F0.9863
tp355
a(S'one'
p356
S'$'
p357
F0.7715
tp358
asI39
(lp359
(S'xxx'
p360
g126
F0.8325
tp361
a(S'xxx'
p362
g126
F0.9813
tp363
asI40
(lp364
(S'can'
p365
g3
F0.999
tp366
a(S'you'
p367
g6
F0.9986
tp368
a(S'tell'
p369
g3
F0.9998
tp370
a(S'me'
p371
g6
F0.9981
tp372
a(g204
g56
F0.9918
tp373
a(S'story'
p374
g23
F0.999
tp375
asI41
(lp376
(S'um'
p377
g108
F0.9357
tp378
a(S'xxx'
p379
g126
F0.751
tp380
asI42
(lp381
(S'and'
p382
S'&'
p383
F0.9977
tp384
a(S'the'
p385
g56
F0.9978
tp386
a(S'horsie'
p387
g23
F0.9889
tp388
a(S'too'
p389
g52
F0.9243
tp390
asI43
(lp391
(S'yeah'
p392
g108
F0.9988
tp393
asI44
(lp394
(S'and'
p395
g383
F0.9989
tp396
a(S'he'
p397
g6
F0.9979
tp398
a(S'was'
p399
g3
F0.9997
tp400
a(S'walking'
p401
g3
F0.9836
tp402
a(S'on'
p403
g9
F0.966
tp404
a(S'his'
p405
g56
F0.999
tp406
a(S'feet'
p407
g23
F0.9956
tp408
asI45
(lp409
(S'xxx'
p410
g126
F0.676
tp411
a(S'and'
p412
g383
F0.9965
tp413
a(S'the'
p414
g56
F0.9813
tp415
a(S'xxx'
p416
g23
F0.6701
tp417
a(S'kicked'
p418
g3
F0.9976
tp419
a(S'kicked'
p420
g3
F0.9905
tp421
a(S'in'
p422
g9
F0.9805
tp423
a(S'the'
p424
g56
F0.9996
tp425
a(S'face'
p426
g23
F0.9841
tp427
a(S'mom'
p428
g23
F0.8766
tp429
asI46
(lp430
(S'really'
p431
g52
F0.9938
tp432
asI47
(lp433
(S'yeah'
p434
g108
F0.9926
tp435
a(S'mom'
p436
g23
F0.7107
tp437
asI48
(lp438
(S'hold'
p439
g3
F0.973
tp440
a(S'on'
p441
g9
F0.6194
tp442
a(S'let'
p443
g3
F0.9712
tp444
a(S'me'
p445
g6
F0.9993
tp446
a(S'hang'
p447
g3
F0.9995
tp448
a(S'up'
p449
S'T'
p450
F0.9248
tp451
a(S'the'
p452
g56
F0.9996
tp453
a(S'phone'
p454
g23
F0.9985
tp455
asI49
(lp456
(S'coughs'
p457
g23
F0.5349
tp458
asI50
(lp459
(S'xxx'
p460
g126
F0.8437
tp461
asI51
(lp462
(S'what'
p463
g6
F0.9739
tp464
a(g227
g3
F0.4505
tp465
a(S'that'
p466
g6
F0.8603
tp467
asI52
(lp468
(S'lemme'
p469
S'L'
p470
F0.973
tp471
a(S'let'
p472
g3
F0.9999
tp473
a(S'me'
p474
g6
F0.9996
tp475
a(S'see'
p476
g3
F0.9449
tp477
asI53
(lp478
(S'the'
p479
g56
F0.9985
tp480
a(S'mail'
p481
g23
F0.9955
tp482
a(S'comed'
p483
g23
F0.7174
tp484
a(S'n'
p485
g383
F0.8194
tp486
asI54
(lp487
(S'eat'
p488
g3
F0.9772
tp489
a(S'the'
p490
g56
F0.9995
tp491
a(S'potatoes'
p492
g23
F0.9974
tp493
asI55
(lp494
(S'these'
p495
g56
F0.5392
tp496
a(S'are'
p497
g3
F0.9615
tp498
a(S'good'
p499
g26
F0.9983
tp500
asI56
(lp501
(S'so'
p502
g9
F0.7418
tp503
a(S'what'
p504
g6
F0.9961
tp505
a(S'happened'
p506
g3
F0.9981
tp507
a(S'to'
p508
g9
F0.9967
tp509
a(S'the'
p510
g56
F0.9992
tp511
a(S'horse'
p512
g23
F0.9921
tp513
a(S'and'
p514
g383
F0.9903
tp515
a(S'the'
p516
g56
F0.999
tp517
a(S'feet'
p518
g23
F0.9984
tp519
asI57
(lp520
(S'what'
p521
g6
F0.7559
tp522
a(S'mom'
p523
g23
F0.9657
tp524
asI58
(lp525
(S'what'
p526
g6
F0.988
tp527
a(S'happened'
p528
g3
F0.9981
tp529
a(S'to'
p530
g9
F0.9927
tp531
a(S'the'
p532
g56
F0.9992
tp533
a(S'horse'
p534
g23
F0.9943
tp535
asI59
(lp536
(S'he'
p537
g6
F0.9944
tp538
a(S'broke'
p539
g3
F0.9724
tp540
a(S'his'
p541
g56
F0.9846
tp542
a(S'xxx'
p543
g126
F0.4306
tp544
asI60
(lp545
(S'how'
p546
g52
F0.9773
tp547
a(g187
g63
F0.386
tp548
a(S'how'
p549
g52
F0.9594
tp550
a(S'did'
p551
g3
F0.9904
tp552
a(S'he'
p553
g6
F0.9954
tp554
a(S'xxx'
p555
g126
F0.5962
tp556
asI61
(lp557
(S'xxx'
p558
g126
F0.5944
tp559
a(S'table'
p560
g23
F0.9694
tp561
asI62
(lp562
(S'did'
p563
g3
F0.991
tp564
a(S'he'
p565
g6
F0.9965
tp566
a(S'get'
p567
g3
F0.9997
tp568
a(S'hit'
p569
g3
F0.9693
tp570
a(S'by'
p571
g9
F0.9977
tp572
a(g204
g56
F0.9969
tp573
a(S'car'
p574
g23
F0.9982
tp575
asI63
(lp576
(S'xxx'
p577
g126
F0.8437
tp578
asI64
(lp579
(S'oh'
p580
g108
F0.995
tp581
a(S'he'
p582
g6
F0.9963
tp583
a(S'took'
p584
g3
F0.9987
tp585
a(S'xxx'
p586
g126
F0.8084
tp587
asI65
(lp588
(S'no'
p589
g108
F0.9253
tp590
asI66
(lp591
(S'uhhuh'
p592
g108
F0.9892
tp593
asI67
(lp594
(S'he'
p595
g6
F0.9941
tp596
a(S'kicked'
p597
g3
F0.9955
tp598
a(S'xxx'
p599
g126
F0.7023
tp600
asI68
(lp601
(S'xxx'
p602
g126
F0.8437
tp603
asI69
(lp604
(S'what'
p605
g6
F0.9372
tp606
a(S'mot'
p607
g23
F0.5944
tp608
asI70
(lp609
(S'xxx'
p610
g126
F0.5414
tp611
a(S'kicked'
p612
g3
F0.9533
tp613
a(S'xxx'
p614
g126
F0.3021
tp615
a(S'broked'
p616
g26
F0.6598
tp617
a(g485
g383
F0.7642
tp618
a(S'his'
p619
g56
F0.9989
tp620
a(S'tummy'
p621
g23
F0.9877
tp622
a(S'off'
p623
g9
F0.7894
tp624
asI71
(lp625
(S'he'
p626
g6
F0.9883
tp627
a(S'xxx'
p628
g3
F0.847
tp629
a(S'broked'
p630
g3
F0.4977
tp631
a(g485
g383
F0.7163
tp632
a(S'his'
p633
g56
F0.9995
tp634
a(S'paw'
p635
g23
F0.996
tp636
asI72
(lp637
(S'was'
p638
g3
F0.9966
tp639
a(S'the'
p640
g56
F0.9996
tp641
a(S'horsie'
p642
g23
F0.9408
tp643
a(g204
g56
F0.9715
tp644
a(S'bad'
p645
g26
F0.9915
tp646
a(S'horsie'
p647
g23
F0.9849
tp648
a(S'or'
p649
g383
F0.99
tp650
asI73
(lp651
(S'he'
p652
g6
F0.9858
tp653
a(S'xxx'
p654
g126
F0.4698
tp655
asI74
(lp656
(S'what'
p657
g6
F0.9931
tp658
a(S'do'
p659
g3
F0.9991
tp660
a(S'you'
p661
g6
F0.9997
tp662
a(S'say'
p663
g3
F0.9924
tp664
asI75
(lp665
(S'what'
p666
g6
F0.9931
tp667
a(S'do'
p668
g3
F0.9991
tp669
a(S'you'
p670
g6
F0.9997
tp671
a(S'say'
p672
g3
F0.9924
tp673
asI76
(lp674
(S'bad'
p675
g26
F0.9414
tp676
a(S'please'
p677
g3
F0.6279
tp678
asI77
(lp679
(S'now'
p680
g52
F0.9628
tp681
a(S'what'
p682
g6
F0.996
tp683
a(S'do'
p684
g3
F0.9993
tp685
a(S'you'
p686
g6
F0.9996
tp687
a(S'say'
p688
g3
F0.9972
tp689
asI78
(lp690
(S'no'
p691
g56
F0.68
tp692
a(S'milk'
p693
g23
F0.9999
tp694
asI79
(lp695
(S'xxx'
p696
g126
F0.8437
tp697
asI80
(lp698
(S'xxx'
p699
g126
F0.8437
tp700
asI81
(lp701
(S'you'
p702
g6
F0.998
tp703
a(S'kicked'
p704
g3
F0.9991
tp705
a(g204
g56
F0.9983
tp706
a(S'ball'
p707
g23
F0.9991
tp708
asI82
(lp709
(S'uncle'
p710
g23
F0.7145
tp711
a(S'richard'
p712
g66
F0.9949
tp713
a(S'likes'
p714
g3
F0.9967
tp715
a(S'to'
p716
g9
F0.9953
tp717
a(S'play'
p718
g3
F0.9972
tp719
a(S'soccer'
p720
g23
F0.9691
tp721
asI83
(lp722
(S'what'
p723
g6
F0.7559
tp724
a(S'mama'
p725
g23
F0.9821
tp726
asI84
(lp727
(S'uncle'
p728
g23
F0.7145
tp729
a(S'richard'
p730
g66
F0.9949
tp731
a(S'likes'
p732
g3
F0.9967
tp733
a(S'to'
p734
g9
F0.9953
tp735
a(S'play'
p736
g3
F0.9972
tp737
a(S'soccer'
p738
g23
F0.9691
tp739
asI85
(lp740
(g28
g6
F0.9583
tp741
a(g28
g6
F0.8325
tp742
a(S'like'
p743
g3
F0.9445
tp744
a(S'to'
p745
g9
F0.9904
tp746
a(S'play'
p747
g3
F0.996
tp748
a(S'soccer'
p749
g23
F0.9797
tp750
a(S'outside'
p751
g9
F0.5637
tp752
a(S'mom'
p753
g23
F0.9177
tp754
asI86
(lp755
(S'you'
p756
g6
F0.9968
tp757
a(S'gonna'
p758
g3
F0.9996
tp759
a(S'eat'
p760
g3
F0.9997
tp761
a(S'your'
p762
g56
F0.9421
tp763
a(S'xxx'
p764
g126
F0.4198
tp765
asI87
(lp766
(S'like'
p767
g9
F0.7814
tp768
a(S'that'
p769
g56
F0.7261
tp770
a(S'mom'
p771
g23
F0.9824
tp772
a(S'xxx'
p773
g126
F0.5762
tp774
a(S'and'
p775
g383
F0.999
tp776
a(g28
g6
F0.9917
tp777
a(S'broke'
p778
g3
F0.9947
tp779
a(S'my'
p780
g56
F0.9992
tp781
a(S'foot'
p782
g23
F0.9985
tp783
a(S'like'
p784
g9
F0.9657
tp785
a(S'that'
p786
g6
F0.9179
tp787
asI88
(lp788
(S'did'
p789
g3
F0.9983
tp790
a(S'you'
p791
g6
F0.992
tp792
asI89
(lp793
(S'laughs'
p794
g3
F0.9102
tp795
asI90
(lp796
(g28
g6
F0.9948
tp797
a(S'did'
p798
g3
F0.9986
tp799
a(S'mom'
p800
g23
F0.7631
tp801
asI91
(lp802
(g28
g6
F0.9946
tp803
a(S'did'
p804
g3
F0.9998
tp805
a(S'broke'
p806
g3
F0.893
tp807
a(S'my'
p808
g56
F0.9992
tp809
a(S'foot'
p810
g23
F0.9989
tp811
a(S'off'
p812
g9
F0.799
tp813
asI92
(lp814
(S'xxx'
p815
g126
F0.8437
tp816
asI93
(lp817
(S'xxx'
p818
g126
F0.8437
tp819
asI94
(lp820
(S'if'
p821
g9
F0.9977
tp822
a(S'you'
p823
g6
F0.9997
tp824
a(S'broke'
p825
g3
F0.98
tp826
a(S'your'
p827
g56
F0.9965
tp828
a(S'foot'
p829
g23
F0.9992
tp830
a(S'chi'
p831
g9
F0.5276
tp832
a(S'you'
p833
g6
F0.9992
tp834
a(S'would'
p835
g3
F0.9995
tp836
a(S'know'
p837
g3
F1.0
tp838
a(S'it'
p839
g6
F0.9858
tp840
asI95
(lp841
(S'xxx'
p842
g126
F0.8325
tp843
a(S'xxx'
p844
g126
F0.9813
tp845
asI96
(lp846
(S'eat'
p847
g3
F0.99
tp848
a(S'your'
p849
g56
F0.9939
tp850
a(S'supper'
p851
g23
F0.9949
tp852
a(S'and'
p853
g383
F0.998
tp854
a(g28
g6
F0.9896
tp855
a(S'll'
p856
g3
F0.7066
tp857
a(S'hang'
p858
g3
F0.9995
tp859
a(S'up'
p860
g450
F0.9772
tp861
asI97
(lp862
(S'xxx'
p863
g126
F0.6919
tp864
a(S'go'
p865
g3
F0.9882
tp866
a(S'like'
p867
g9
F0.5949
tp868
a(S'whoa'
p869
g108
F0.7295
tp870
a(S'xxx'
p871
g126
F0.7007
tp872
a(g28
g6
F0.9821
tp873
a(S'bumped'
p874
g3
F0.9999
tp875
a(S'my'
p876
g56
F0.9576
tp877
a(S'xxx'
p878
g23
F0.8473
tp879
a(g28
g6
F0.9611
tp880
a(S'bumped'
p881
g3
F0.9999
tp882
a(S'my'
p883
g56
F0.9991
tp884
a(S'head'
p885
g23
F0.9952
tp886
a(S'xxx'
p887
g126
F0.7638
tp888
a(S'whoa'
p889
g108
F0.9806
tp890
asI98
(lp891
(S'isn'
p892
g63
F0.5578
tp893
a(S't'
p894
g63
F0.5158
tp895
a(S'it'
p896
g6
F0.992
tp897
a(S'doesn'
p898
g3
F0.9905
tp899
a(g894
g3
F0.5936
tp900
a(S'it'
p901
g6
F0.9944
tp902
a(S'stink'
p903
g3
F0.9978
tp904
a(S'to'
p905
g9
F0.9868
tp906
a(S'be'
p907
g3
F0.999
tp908
a(S'so'
p909
g9
F0.5673
tp910
a(S'um'
p911
g63
F0.4699
tp912
a(S'popular'
p913
g26
F0.9621
tp914
a(S'chi'
p915
g23
F0.4127
tp916
asI99
(lp917
(S'everybody'
p918
g23
F0.8379
tp919
a(S'wants'
p920
g3
F0.9988
tp921
a(S'to'
p922
g9
F0.9881
tp923
a(S'talk'
p924
g3
F0.9964
tp925
a(S'to'
p926
g9
F0.9969
tp927
a(S'you'
p928
g6
F0.9983
tp929
a(S'everybody'
p930
g23
F0.9363
tp931
asI100
(lp932
(S'mom'
p933
g23
F0.7188
tp934
asI101
(lp935
(S'but'
p936
g383
F0.9918
tp937
a(S'who'
p938
g6
F0.9972
tp939
a(S'xxx'
p940
g3
F0.5856
tp941
a(S'know'
p942
g3
F0.9622
tp943
asI102
(lp944
(S'tell'
p945
g3
F0.9928
tp946
a(S'you'
p947
g6
F0.9991
tp948
a(S'what'
p949
g6
F0.6326
tp950
a(S'you'
p951
g6
F0.9959
tp952
a(S're'
p953
g3
F0.7505
tp954
a(S'going'
p955
g3
F0.9976
tp956
a(S'to'
p957
g9
F0.9724
tp958
a(S'be'
p959
g3
F0.9988
tp960
a(S'doing'
p961
g3
F0.9916
tp962
a(S'tomorrow'
p963
g23
F0.9268
tp964
asI103
(lp965
(g28
g6
F0.953
tp966
a(g62
g3
F0.9834
tp967
a(S'going'
p968
g3
F0.9981
tp969
a(S'to'
p970
g9
F0.9817
tp971
a(S'paint'
p972
g3
F0.99
tp973
a(S'mom'
p974
g23
F0.9135
tp975
asI104
(lp976
(S'you'
p977
g6
F0.9754
tp978
a(S're'
p979
g3
F0.7708
tp980
a(S'going'
p981
g3
F0.9976
tp982
a(S'to'
p983
g9
F0.9817
tp984
a(S'paint'
p985
g3
F0.986
tp986
asI105
(lp987
(S'ah'
p988
g108
F0.996
tp989
asI106
(lp990
(S'you'
p991
g6
F0.9948
tp992
a(S'love'
p993
g3
F0.983
tp994
a(S'to'
p995
g9
F0.9871
tp996
a(S'paint'
p997
g3
F0.9615
tp998
a(S'don'
p999
g66
F0.5218
tp1000
a(g894
g3
F0.3558
tp1001
a(S'you'
p1002
g6
F0.9968
tp1003
asI107
(lp1004
(S'xxx'
p1005
g126
F0.8437
tp1006
asI108
(lp1007
(g28
g6
F0.953
tp1008
a(g62
g3
F0.994
tp1009
a(S'all'
p1010
g56
F0.8172
tp1011
a(S'done'
p1012
g26
F0.7209
tp1013
a(S'mom'
p1014
g23
F0.9807
tp1015
asI109
(lp1016
(S'no'
p1017
g108
F0.7985
tp1018
a(S'you'
p1019
g6
F0.978
tp1020
a(S're'
p1021
g3
F0.6994
tp1022
a(S'not'
p1023
g52
F0.9941
tp1024
asI110
(lp1025
(S'uhhum'
p1026
g108
F0.9859
tp1027
asI111
(lp1028
(g28
g6
F0.9897
tp1029
a(S'want'
p1030
g3
F0.9999
tp1031
a(S'to'
p1032
g9
F0.9929
tp1033
a(S'see'
p1034
g3
F0.9997
tp1035
a(S'you'
p1036
g6
F0.9942
tp1037
a(S'eat'
p1038
g3
F0.9995
tp1039
a(g204
g56
F0.9988
tp1040
a(S'little'
p1041
g26
F0.9495
tp1042
a(S'more'
p1043
g26
F0.5026
tp1044
a(S'chi'
p1045
g63
F0.4451
tp1046
a(S'xxx'
p1047
g126
F0.512
tp1048
asI112
(lp1049
(S'what'
p1050
g6
F0.949
tp1051
asI113
(lp1052
(S'what'
p1053
g6
F0.7559
tp1054
a(S'mom'
p1055
g23
F0.9657
tp1056
asI114
(lp1057
(S'xxx'
p1058
g126
F0.6944
tp1059
a(S'mom'
p1060
g23
F0.8217
tp1061
asI115
(lp1062
(S'mom'
p1063
g23
F0.7188
tp1064
asI116
(lp1065
(S'xxx'
p1066
g126
F0.7121
tp1067
a(S'probably'
p1068
g52
F0.9977
tp1069
a(S'be'
p1070
g3
F0.9973
tp1071
a(S'playing'
p1072
g3
F0.9973
tp1073
a(S'in'
p1074
g9
F0.9904
tp1075
a(S'the'
p1076
g56
F0.999
tp1077
a(S'yard'
p1078
g23
F0.9927
tp1079
a(S'again'
p1080
g52
F0.9687
tp1081
asI117
(lp1082
(S'whines'
p1083
g3
F0.5694
tp1084
asI118
(lp1085
(g28
g6
F0.9586
tp1086
a(g62
g3
F0.9153
tp1087
a(S'xxx'
p1088
g126
F0.6357
tp1089
asI119
(lp1090
(S'are'
p1091
g3
F0.9964
tp1092
a(S'you'
p1093
g6
F0.9961
tp1094
a(S'all'
p1095
g56
F0.6645
tp1096
a(S'the'
p1097
g56
F0.9992
tp1098
a(S'way'
p1099
g23
F0.946
tp1100
a(S'done'
p1101
g3
F0.9806
tp1102
asI120
(lp1103
(S'huh'
p1104
g108
F0.993
tp1105
asI121
(lp1106
(S'are'
p1107
g3
F0.9964
tp1108
a(S'you'
p1109
g6
F0.9961
tp1110
a(S'all'
p1111
g56
F0.6645
tp1112
a(S'the'
p1113
g56
F0.9992
tp1114
a(S'way'
p1115
g23
F0.946
tp1116
a(S'done'
p1117
g3
F0.9806
tp1118
asI122
(lp1119
(S'no'
p1120
g108
F0.7985
tp1121
a(S'you'
p1122
g6
F0.9776
tp1123
a(S're'
p1124
g3
F0.6994
tp1125
a(S'not'
p1126
g52
F0.996
tp1127
a(S'chi'
p1128
g63
F0.4753
tp1129
asI123
(lp1130
(g28
g6
F0.9902
tp1131
a(S'want'
p1132
g3
F0.9996
tp1133
a(S'xxx'
p1134
g126
F0.7097
tp1135
asI124
(lp1136
(S'hm'
p1137
g108
F0.995
tp1138
asI125
(lp1139
(g28
g6
F0.9902
tp1140
a(S'want'
p1141
g3
F0.9996
tp1142
a(S'xxx'
p1143
g126
F0.7097
tp1144
asI126
(lp1145
(S'where'
p1146
g52
F0.9373
tp1147
a(S'are'
p1148
g3
F0.9864
tp1149
a(S'you'
p1150
g6
F0.9997
tp1151
a(S'going'
p1152
g3
F0.9977
tp1153
asI127
(lp1154
(S'xxx'
p1155
g126
F0.8437
tp1156
asI128
(lp1157
(S'huh'
p1158
g108
F0.993
tp1159
asI129
(lp1160
(g28
g6
F0.953
tp1161
a(g62
g3
F0.9655
tp1162
a(S'almost'
p1163
g52
F0.9919
tp1164
a(S'done'
p1165
g3
F0.9518
tp1166
asI130
(lp1167
(g28
g6
F0.953
tp1168
a(g62
g3
F0.9928
tp1169
a(S'all'
p1170
g56
F0.8172
tp1171
a(S'done'
p1172
g3
F0.4507
tp1173
asI131
(lp1174
(S'xxx'
p1175
g126
F0.8437
tp1176
asI132
(lp1177
(S'xxx'
p1178
g126
F0.5382
tp1179
a(S'yells'
p1180
g3
F0.7315
tp1181
asI133
(lp1182
(S'xxx'
p1183
g126
F0.6995
tp1184
a(S'all'
p1185
g56
F0.6919
tp1186
a(S'done'
p1187
g26
F0.5678
tp1188
a(S'mom'
p1189
g23
F0.9895
tp1190
asI134
(lp1191
(S'no'
p1192
g108
F0.7985
tp1193
a(S'you'
p1194
g6
F0.978
tp1195
a(S're'
p1196
g3
F0.6994
tp1197
a(S'not'
p1198
g52
F0.9941
tp1199
asI135
(lp1200
(S'all'
p1201
g56
F0.7816
tp1202
a(S'done'
p1203
g3
F0.8986
tp1204
a(S'all'
p1205
g56
F0.9246
tp1206
a(S'done'
p1207
g3
F0.4507
tp1208
asI136
(lp1209
(S'you'
p1210
g6
F0.9963
tp1211
a(S'stay'
p1212
g3
F0.9985
tp1213
a(S'out'
p1214
g450
F0.8521
tp1215
a(S'back'
p1216
g52
F0.6671
tp1217
a(S'be'
p1218
g3
F0.9817
tp1219
a(S'cause'
p1220
g9
F0.9396
tp1221
a(S'you'
p1222
g6
F0.9964
tp1223
a(S're'
p1224
g3
F0.7514
tp1225
a(S'coming'
p1226
g3
F0.9971
tp1227
a(S'in'
p1228
g9
F0.8732
tp1229
a(S'in'
p1230
g9
F0.9216
tp1231
a(S'fifteen'
p1232
g357
F0.8195
tp1233
a(S'minutes'
p1234
g23
F0.991
tp1235
asI137
(lp1236
(S'okay'
p1237
g108
F0.7863
tp1238
a(S'mom'
p1239
g23
F0.7295
tp1240
asI138
(lp1241
(S'bye'
p1242
g108
F0.9774
tp1243
asI139
(lp1244
(S'okay'
p1245
g108
F0.9857
tp1246
as.