(dp0
I513
(lp1
(S'what'
p2
S'O'
p3
F0.6574
tp4
a(S'honey'
p5
S'N'
p6
F0.9421
tp7
a(S'?'
p8
S','
p9
F0.9977
tp10
asI1026
(lp11
(S'is'
p12
S'V'
p13
F0.9904
tp14
a(S'green'
p15
S'A'
p16
F0.9889
tp17
a(S'your'
p18
S'D'
p19
F0.9621
tp20
a(S'favorite'
p21
g16
F0.9285
tp22
a(S'color'
p23
g6
F0.9934
tp24
a(g8
g9
F0.9977
tp25
asI517
(lp26
(S'(..)'
p27
S'E'
p28
F0.5556
tp29
a(S'what'
p30
g3
F0.8718
tp31
a(S'a'
p32
g19
F0.9862
tp33
a(S'good'
p34
g16
F0.999
tp35
a(S'girl'
p36
g6
F0.9939
tp37
a(S'you'
p38
g3
F0.9933
tp39
a(S'are'
p40
g13
F0.9975
tp41
a(S'.'
p42
g9
F0.9962
tp43
asI1030
(lp44
(S'yep'
p45
S'!'
p46
F0.9972
tp47
a(g42
g9
F0.9971
tp48
asI1023
(lp49
(S'I'
p50
g3
F0.9985
tp51
a(S'know'
p52
g13
F0.9986
tp53
a(g46
g9
F0.9976
tp54
asI520
(lp55
(S'it'
p56
g3
F0.9914
tp57
a(S'looks'
p58
g13
F0.9992
tp59
a(S'like'
p60
S'P'
p61
F0.8806
tp62
a(S'xxx'
p63
g28
F0.3234
tp64
a(S'this'
p65
g19
F0.9277
tp66
a(S'pea'
p67
g6
F0.9895
tp68
a(S'soup'
p69
g6
F0.997
tp70
a(S'likes'
p71
g13
F0.9686
tp72
a(S'broccoli'
p73
g6
F0.9957
tp74
a(g42
g9
F0.9985
tp75
asI1034
(lp76
(S'yep'
p77
g46
F0.9976
tp78
a(g8
g9
F0.9966
tp79
asI1198
(lp80
(S'well'
p81
g46
F0.8726
tp82
a(S'(.)'
p83
g9
F0.3096
tp84
a(S'you'
p85
g3
F0.9987
tp86
a(S'have'
p87
g13
F0.9957
tp88
a(S"girl's"
p89
S'S'
p90
F0.9194
tp91
a(S'plates'
p92
g6
F0.9924
tp93
a(g42
g9
F0.9986
tp94
asI525
(lp95
(S'you'
p96
g3
F0.998
tp97
a(S'ate'
p98
g13
F0.9997
tp99
a(S'all'
p100
g19
F0.708
tp101
a(S'your'
p102
g19
F0.9856
tp103
a(S'spinach'
p104
g6
F0.9947
tp105
a(g8
g9
F0.9971
tp106
asI14
(lp107
(S'you'
p108
g3
F0.9867
tp109
a(S'[//]'
p110
g9
F0.6544
tp111
a(S'is'
p112
g13
F0.9998
tp113
a(S'it'
p114
g3
F0.9887
tp115
a(g32
g19
F0.9858
tp116
a(S'good'
p117
g16
F0.9956
tp118
a(S'supper'
p119
g6
F0.9937
tp120
a(g8
g9
F0.9976
tp121
asI529
(lp122
(S'excellent'
p123
g16
F0.9509
tp124
a(g42
g9
F0.9983
tp125
asI19
(lp126
(S'need'
p127
g13
F0.9854
tp128
a(g32
g19
F0.9973
tp129
a(S'napkin'
p130
g6
F0.9993
tp131
a(g8
g9
F0.9981
tp132
asI532
(lp133
(S'mm'
p134
g46
F0.5842
tp135
a(g42
g9
F0.9932
tp136
asI1045
(lp137
(S'you'
p138
g3
F0.9968
tp139
a(S'gonna'
p140
g13
F0.9997
tp141
a(S'help'
p142
g13
F0.9997
tp143
a(S'me'
p144
g3
F0.9983
tp145
a(S'decorate'
p146
g13
F0.9993
tp147
a(S'your'
p148
g19
F0.9938
tp149
a(S'room'
p150
g6
F0.9976
tp151
a(S'when'
p152
S'R'
p153
F0.9539
tp154
a(S'we'
p155
g3
F0.9918
tp156
a(S'move'
p157
g13
F0.9288
tp158
a(g8
g9
F0.9974
tp159
asI23
(lp160
(S'yeah'
p161
g46
F0.9986
tp162
a(g42
g9
F0.997
tp163
asI1177
(lp164
(S'we'
p165
g3
F0.9973
tp166
a(S'got'
p167
g13
F0.9976
tp168
a(S'apple'
p169
g6
F0.7473
tp170
a(g42
g9
F0.9977
tp171
asI26
(lp172
(S'xxx'
p173
g28
F0.7065
tp174
a(S'eating'
p175
g13
F0.9808
tp176
a(g42
g9
F0.9976
tp177
asI802
(lp178
(S'was'
p179
g13
F0.9964
tp180
a(S'that'
p181
g3
F0.5025
tp182
a(g32
g19
F0.961
tp183
a(S'yes'
p184
g46
F0.4689
tp185
a(S'or'
p186
S'&'
p187
F0.9975
tp188
a(g32
g19
F0.8643
tp189
a(S'no'
p190
g153
F0.3396
tp191
a(g8
g9
F0.9979
tp192
asI29
(lp193
(S'good'
p194
g16
F0.9499
tp195
a(g46
g9
F0.998
tp196
asI1054
(lp197
(S'what'
p198
g3
F0.7628
tp199
a(S'color'
p200
g6
F0.9285
tp201
a(S'do'
p202
g13
F0.9976
tp203
a(S'you'
p204
g3
F0.9996
tp205
a(S'want'
p206
g13
F1.0
tp207
a(S'it'
p208
g3
F0.993
tp209
a(S'to'
p210
g61
F0.9892
tp211
a(S'be'
p212
g13
F0.9962
tp213
a(g8
g9
F0.9979
tp214
asI32
(lp215
(S'chew'
p216
g13
F0.996
tp217
a(S'it'
p218
g3
F0.9368
tp219
a(S'real'
p220
g153
F0.6901
tp221
a(S'good'
p222
g16
F0.9995
tp223
a(S'<'
p224
S'~'
p225
F0.7593
tp226
a(S"don't>"
p227
g13
F0.9976
tp228
a(S'[//]'
p229
g153
F0.3029
tp230
a(S'careful'
p231
g16
F0.9421
tp232
a(S'of'
p233
g61
F0.9995
tp234
a(S'the'
p235
g19
F0.9991
tp236
a(S'chicken'
p237
g6
F0.9071
tp238
a(S'okay'
p239
g46
F0.6906
tp240
a(g8
g9
F0.9979
tp241
asI545
(lp242
(S'spinach'
p243
g6
F0.8435
tp244
a(S'gives'
p245
g13
F0.9992
tp246
a(S'you'
p247
g3
F0.9564
tp248
a(S'muscles'
p249
g13
F0.7654
tp250
a(S'you'
p251
g3
F0.9994
tp252
a(S'know'
p253
g13
F0.9957
tp254
a(g42
g9
F0.9979
tp255
asI1041
(lp256
(S'(.)'
p257
g13
F0.2123
tp258
a(S'it'
p259
g3
F0.9944
tp260
a(S'xxx'
p261
g13
F0.3901
tp262
a(g42
g9
F0.9977
tp263
asI549
(lp264
(S'like'
p265
g61
F0.8907
tp266
a(g32
g19
F0.8983
tp267
a(S'mean'
p268
g16
F0.8984
tp269
a(S'muscle'
p270
g6
F0.936
tp271
a(g8
g9
F0.9978
tp272
asI38
(lp273
(S'(..)'
p274
g9
F0.5837
tp275
a(S'now'
p276
g153
F0.9861
tp277
a(S"it's"
p278
S'L'
p279
F0.9913
tp280
a(S'my'
p281
g19
F0.9518
tp282
a(S'turn'
p283
g6
F0.643
tp284
a(S'to'
p285
g61
F0.9911
tp286
a(S'get'
p287
g13
F0.9994
tp288
a(S'stuff'
p289
g6
F0.9888
tp290
a(g42
g9
F0.9988
tp291
asI945
(lp292
(g50
g3
F0.9978
tp293
a(S'wanted'
p294
g13
F0.9996
tp295
a(g32
g19
F0.9986
tp296
a(S'little'
p297
g16
F0.9847
tp298
a(S'['
p299
g9
F0.9889
tp300
a(g46
g9
F0.9901
tp301
a(S']'
p302
g9
F0.976
tp303
a(S'bit'
p304
g6
F0.721
tp305
a(g46
g9
F0.9982
tp306
asI1231
(lp307
(S'(.)'
p308
S'G'
p309
F0.3028
tp310
a(S'you'
p311
g3
F0.9981
tp312
a(S'got'
p313
g13
F0.9986
tp314
a(S'(.)'
p315
g28
F0.1783
tp316
a(S'cherry'
p317
g16
F0.9582
tp318
a(S'(.)'
p319
g9
F0.2715
tp320
a(S'tropical'
p321
g16
F0.7859
tp322
a(S'punch'
p323
g6
F0.9958
tp324
a(S'(.)'
p325
g309
F0.2243
tp326
a(S'grape'
p327
g6
F0.4147
tp328
a(S'(.)'
p329
g9
F0.2429
tp330
a(S'tropical'
p331
g16
F0.7859
tp332
a(S'punch'
p333
g6
F0.9976
tp334
a(S'+'
p335
g309
F0.3441
tp336
a(S'...'
p337
g225
F0.6955
tp338
asI553
(lp339
(S'mhm'
p340
g46
F0.9761
tp341
a(g42
g9
F0.9962
tp342
asI1067
(lp343
(S'what'
p344
g3
F0.9777
tp345
a(S'about'
p346
g61
F0.8286
tp347
a(S'purple'
p348
g16
F0.8624
tp349
a(g8
g9
F0.9958
tp350
asI44
(lp351
(S'so'
p352
g153
F0.7711
tp353
a(S'after'
p354
g61
F0.9085
tp355
a(S'supper'
p356
g6
F0.9737
tp357
a(g335
g309
F0.4869
tp358
a(S'...'
p359
g225
F0.6673
tp360
asI47
(lp361
(S'yeah'
p362
g46
F0.9988
tp363
a(g8
g9
F0.9966
tp364
asI560
(lp365
(S'yeah'
p366
g46
F0.9986
tp367
a(g42
g9
F0.997
tp368
asI1074
(lp369
(S'oh'
p370
g46
F0.9984
tp371
a(g42
g9
F0.9938
tp372
asI51
(lp373
(S'and'
p374
g187
F0.9989
tp375
a(S'you'
p376
g3
F0.9992
tp377
a(S'take'
p378
g13
F0.9998
tp379
a(g32
g19
F0.9967
tp380
a(S'bath'
p381
g6
F0.9988
tp382
a(g42
g9
F0.9973
tp383
asI1077
(lp384
(g50
g3
F0.9983
tp385
a(S'want'
p386
g13
F0.9998
tp387
a(S'blue'
p388
g16
F0.8482
tp389
a(S'and'
p390
g187
F0.9969
tp391
a(S'purple'
p392
g16
F0.9361
tp393
a(S'and'
p394
g187
F0.9972
tp395
a(S'green'
p396
g16
F0.9743
tp397
a(S'and'
p398
g187
F0.9972
tp399
a(S'orange'
p400
g16
F0.8958
tp401
a(S'and'
p402
g187
F0.9971
tp403
a(S'red'
p404
g16
F0.9462
tp405
a(g42
g9
F0.997
tp406
asI54
(lp407
(S'okay'
p408
g46
F0.9732
tp409
a(g8
g9
F0.9976
tp410
asI777
(lp411
(S'little'
p412
g16
F0.8921
tp413
a(S'bump'
p414
g6
F0.9386
tp415
a(S'on'
p416
g61
F0.9752
tp417
a(S'nose'
p418
g6
F0.9974
tp419
a(g42
g9
F0.9985
tp420
asI568
(lp421
(S'not'
p422
g153
F0.9972
tp423
a(S'yet'
p424
g153
F0.9792
tp425
a(g42
g9
F0.9984
tp426
asI1228
(lp427
(S'alright'
p428
g46
F0.9793
tp429
a(g42
g9
F0.9973
tp430
asI58
(lp431
(S'yeah'
p432
g46
F0.9986
tp433
a(g42
g9
F0.997
tp434
asI571
(lp435
(S'what'
p436
g3
F0.9171
tp437
a(g8
g9
F0.9924
tp438
asI61
(lp439
(S'and'
p440
g187
F0.9986
tp441
a(S'go'
p442
g13
F0.9892
tp443
a(S'pick'
p444
g13
F0.9702
tp445
a(S'out'
p446
S'T'
p447
F0.9066
tp448
a(S'what'
p449
g3
F0.8884
tp450
a(S'bathing'
p451
g6
F0.9703
tp452
a(S'suit'
p453
g6
F0.7947
tp454
a(S'you'
p455
g3
F0.9953
tp456
a(S'wanna'
p457
g13
F0.9977
tp458
a(S'wear'
p459
g13
F0.993
tp460
a(S'tomorrow'
p461
g6
F0.9931
tp462
a(g42
g9
F0.9937
tp463
asI575
(lp464
(S'eat'
p465
g13
F0.9797
tp466
a(S'some'
p467
g19
F0.8856
tp468
a(S'of'
p469
g61
F0.9949
tp470
a(S'your'
p471
g19
F0.9931
tp472
a(S'rice'
p473
g6
F0.9952
tp474
a(g42
g9
F0.9982
tp475
asI864
(lp476
(g50
g3
F0.9983
tp477
a(S'want'
p478
g13
F1.0
tp479
a(S'you'
p480
g3
F0.9989
tp481
a(S'to'
p482
g61
F0.9894
tp483
a(S'eat'
p484
g13
F0.9996
tp485
a(S'your'
p486
g19
F0.992
tp487
a(S'chicken'
p488
g6
F0.9834
tp489
a(g42
g9
F0.9987
tp490
asI66
(lp491
(S'alright'
p492
g46
F0.9792
tp493
a(g8
g9
F0.9969
tp494
asI579
(lp495
(S"it's"
p496
g279
F0.9913
tp497
a(S'white'
p498
g16
F0.9179
tp499
a(S'does'
p500
g13
F0.7408
tp501
a(S'rice'
p502
g6
F0.9485
tp503
a(S'make'
p504
g13
F0.9794
tp505
a(S'your'
p506
g19
F0.9966
tp507
a(S'muscles'
p508
g6
F0.9989
tp509
a(S'grow'
p510
g13
F0.8976
tp511
a(g8
g9
F0.9982
tp512
asI71
(lp513
(S'mhm'
p514
g46
F0.9761
tp515
a(g42
g9
F0.9962
tp516
asI585
(lp517
(S'every'
p518
g19
F0.9782
tp519
a(S'food'
p520
g6
F0.9968
tp521
a(S'does'
p522
g13
F0.9598
tp523
a(S'and'
p524
g187
F0.9982
tp525
a(S'every'
p526
g19
F0.9494
tp527
a(S'drink'
p528
g6
F0.8398
tp529
a(S'do'
p530
g13
F0.9417
tp531
a(g8
g9
F0.9974
tp532
asI74
(lp533
(S"I'm"
p534
g279
F0.9951
tp535
a(S'gonna'
p536
g13
F0.9926
tp537
a(S'go'
p538
g13
F0.9993
tp539
a(S'to'
p540
g61
F0.9841
tp541
a(S'bed'
p542
g6
F0.8306
tp543
a(g42
g9
F0.9981
tp544
asI1100
(lp545
(S'does'
p546
g13
F0.9972
tp547
a(S'that'
p548
g3
F0.6749
tp549
a(S'sound'
p550
g13
F0.9346
tp551
a(S'good'
p552
g16
F0.9944
tp553
a(g8
g9
F0.9972
tp554
asI77
(lp555
(S'after'
p556
g61
F0.9127
tp557
a(S'Fraggle'
p558
S'^'
p559
F0.6961
tp560
a(S'Rock'
p561
g559
F0.9752
tp562
a(g42
g9
F0.9928
tp563
asI590
(lp564
(S'every'
p565
g19
F0.9782
tp566
a(S'food'
p567
g6
F0.9957
tp568
a(S'and'
p569
g187
F0.9977
tp570
a(S'every'
p571
g19
F0.8098
tp572
a(S'(.)'
p573
g559
F0.3872
tp574
a(S'liquid'
p575
g559
F0.6082
tp576
a(S'gives'
p577
g13
F0.9983
tp578
a(S'you'
p579
g3
F0.9935
tp580
a(S'some'
p581
g19
F0.991
tp582
a(S'kind'
p583
g6
F0.9452
tp584
a(S'of'
p585
g61
F0.9954
tp586
a(S'vitamins'
p587
g6
F0.9878
tp588
a(S'or'
p589
g187
F0.9866
tp590
a(S'helps'
p591
g13
F0.9992
tp592
a(S'you'
p593
g3
F0.9991
tp594
a(S'get'
p595
g13
F0.9993
tp596
a(S'big'
p597
g16
F0.9826
tp598
a(S'and'
p599
g187
F0.9978
tp600
a(S'strong'
p601
g16
F0.9617
tp602
a(g42
g9
F0.9982
tp603
asI80
(lp604
(S'('
p605
g9
F0.974
tp606
a(S'you'
p607
g3
F0.9843
tp608
a(S')'
p609
g9
F0.9967
tp610
a(S'gotta'
p611
g13
F0.9935
tp612
a(S'watch'
p613
g13
F0.9923
tp614
a(S'Fraggle'
p615
g559
F0.782
tp616
a(S'Rock'
p617
g559
F0.9886
tp618
a(S'first'
p619
g16
F0.8028
tp620
a(g42
g9
F0.9989
tp621
asI696
(lp622
(S'(.)'
p623
g309
F0.3028
tp624
a(S'you'
p625
g3
F0.9991
tp626
a(S'did'
p627
g13
F0.9994
tp628
a(S'have'
p629
g13
F0.9978
tp630
a(g32
g19
F0.9992
tp631
a(S'mouth'
p632
g6
F0.9975
tp633
a(S'full'
p634
g16
F0.9219
tp635
a(S'of'
p636
g61
F0.9943
tp637
a(S'sand'
p638
g6
F0.8152
tp639
a(S'Chi'
p640
g559
F0.5726
tp641
a(g42
g9
F0.9899
tp642
asI84
(lp643
(g187
g187
F0.9893
tp644
a(S'='
p645
g9
F0.8669
tp646
a(S'laughs'
p647
g13
F0.8696
tp648
a(g42
g9
F0.9983
tp649
asI85
(lp650
(g50
g3
F0.9983
tp651
a(S'forgot'
p652
g13
F0.9991
tp653
a(g42
g9
F0.9974
tp654
asI1209
(lp655
(S'let'
p656
g13
F0.9975
tp657
a(S'me'
p658
g3
F0.9995
tp659
a(S'see'
p660
g13
F0.9796
tp661
a(S'let'
p662
g13
F0.9961
tp663
a(S'me'
p664
g3
F0.9995
tp665
a(S'see'
p666
g13
F0.9793
tp667
a(S'let'
p668
g13
F0.9962
tp669
a(S'me'
p670
g3
F0.9996
tp671
a(S'see'
p672
g13
F0.9527
tp673
a(g42
g9
F0.9976
tp674
asI88
(lp675
(S'pick'
p676
g13
F0.9882
tp677
a(S'out'
p678
g447
F0.8405
tp679
a(g32
g19
F0.9952
tp680
a(S'book'
p681
g6
F0.9936
tp682
a(S'too'
p683
g153
F0.886
tp684
a(S'if'
p685
g61
F0.9978
tp686
a(S'you'
p687
g3
F0.9998
tp688
a(S'want'
p689
g13
F1.0
tp690
a(S'me'
p691
g3
F0.9984
tp692
a(S'to'
p693
g61
F0.9793
tp694
a(S'read'
p695
g13
F0.9999
tp696
a(S'you'
p697
g3
F0.9973
tp698
a(g32
g19
F0.9973
tp699
a(S'book'
p700
g6
F0.9823
tp701
a(S'you'
p702
g3
F0.9954
tp703
a(S'gotta'
p704
g13
F0.9996
tp705
a(S'pick'
p706
g13
F0.9981
tp707
a(S'out'
p708
g447
F0.842
tp709
a(g32
g19
F0.9956
tp710
a(S'book'
p711
g6
F0.9811
tp712
a(S'alright'
p713
g46
F0.7371
tp714
a(g8
g9
F0.9977
tp715
asI1113
(lp716
(g187
g187
F0.9942
tp717
a(S'y'
p718
g153
F0.7942
tp719
a(S'you'
p720
g3
F0.9998
tp721
a(S'know'
p722
g13
F0.9985
tp723
a(S'what'
p724
g3
F0.9846
tp725
a(S"you're"
p726
g279
F0.9785
tp727
a(S'gonna'
p728
g13
F0.9938
tp729
a(S'get'
p730
g13
F0.9996
tp731
a(S'from'
p732
g61
F0.9981
tp733
a(S'Mimi'
p734
g559
F0.9998
tp735
a(S'and'
p736
g187
F0.9983
tp737
a(S'Pappa'
p738
g559
F0.9974
tp739
a(S'for'
p740
g61
F0.9993
tp741
a(S'your'
p742
g19
F0.9962
tp743
a(S'birthday'
p744
g6
F0.9989
tp745
a(S'when'
p746
g153
F0.9299
tp747
a(S'we'
p748
g3
F0.9924
tp749
a(S'move'
p750
g13
F0.8895
tp751
a(g8
g9
F0.997
tp752
asI603
(lp753
(S'yep'
p754
g46
F0.9989
tp755
a(g46
g9
F0.997
tp756
asI607
(lp757
(S'look'
p758
g13
F0.9178
tp759
a(S'how'
p760
g153
F0.9856
tp761
a(S'big'
p762
g16
F0.8431
tp763
a(S'you'
p764
g3
F0.9947
tp765
a(S'are'
p766
g13
F0.9993
tp767
a(S'already'
p768
g153
F0.9874
tp769
a(g42
g9
F0.9976
tp770
asI97
(lp771
(S'yeah'
p772
g46
F0.9986
tp773
a(g42
g9
F0.997
tp774
asI610
(lp775
(S'hm'
p776
g46
F0.9811
tp777
a(S':'
p778
g9
F0.891
tp779
a(g8
g9
F0.9885
tp780
asI955
(lp781
(g187
g187
F0.9893
tp782
a(g645
g9
F0.8669
tp783
a(S'laughs'
p784
g13
F0.8696
tp785
a(g42
g9
F0.9983
tp786
asI100
(lp787
(S'haha'
p788
g46
F0.9969
tp789
a(g299
g9
F0.9743
tp790
a(S'x'
p791
g28
F0.4037
tp792
a(S'2'
p793
S'$'
p794
F0.5684
tp795
a(g302
g9
F0.9886
tp796
a(g42
g9
F0.995
tp797
asI1126
(lp798
(g32
g19
F0.9662
tp799
a(S'play'
p800
g6
F0.6387
tp801
a(S'house'
p802
g6
F0.9828
tp803
a(S'that'
p804
g61
F0.8878
tp805
a(S'goes'
p806
g13
F0.9985
tp807
a(S'out'
p808
g447
F0.9382
tp809
a(S'in'
p810
g61
F0.9977
tp811
a(S'the'
p812
g19
F0.9993
tp813
a(S'backyard'
p814
g6
F0.9906
tp815
a(S'right'
p816
g153
F0.7347
tp817
a(S'near'
p818
g61
F0.9988
tp819
a(S'the'
p820
g19
F0.999
tp821
a(S'swingset'
p822
g6
F0.9949
tp823
a(g42
g9
F0.9992
tp824
asI614
(lp825
(S'look'
p826
g13
F0.9178
tp827
a(S'how'
p828
g153
F0.9856
tp829
a(S'big'
p830
g16
F0.8431
tp831
a(S'you'
p832
g3
F0.9947
tp833
a(S'are'
p834
g13
F0.9993
tp835
a(S'already'
p836
g153
F0.9874
tp837
a(g42
g9
F0.9976
tp838
asI103
(lp839
(S'what'
p840
g3
F0.9171
tp841
a(g8
g9
F0.9924
tp842
asI617
(lp843
(S"you're"
p844
g279
F0.9933
tp845
a(S'growing'
p846
g13
F0.9966
tp847
a(S'out'
p848
g61
F0.5783
tp849
a(S'of'
p850
g61
F0.9956
tp851
a(S'all'
p852
g19
F0.7937
tp853
a(S'your'
p854
g19
F0.9908
tp855
a(S'clothes'
p856
g6
F0.9992
tp857
a(g42
g9
F0.9987
tp858
asI107
(lp859
(S'something'
p860
g6
F0.987
tp861
a(S'in'
p862
g61
F0.9988
tp863
a(S'the'
p864
g19
F0.9992
tp865
a(S'middle'
p866
g6
F0.8458
tp867
a(S'xxx'
p868
g28
F0.5069
tp869
a(g42
g9
F0.9527
tp870
asI1132
(lp871
(S'you'
p872
g3
F0.9971
tp873
a(S'remember'
p874
g13
F0.991
tp875
a(g8
g9
F0.997
tp876
asI110
(lp877
(S'chicken'
p878
g6
F0.7248
tp879
a(g8
g9
F0.9968
tp880
asI1136
(lp881
(S'like'
p882
g61
F0.7839
tp883
a(S'xxx'
p884
g6
F0.3022
tp885
a(S'has'
p886
g13
F0.9876
tp887
a(g8
g9
F0.9976
tp888
asI625
(lp889
(S'mhm'
p890
g46
F0.9761
tp891
a(g42
g9
F0.9962
tp892
asI114
(lp893
(S'yeah'
p894
g46
F0.9962
tp895
a(S'but'
p896
g187
F0.9965
tp897
a(g50
g3
F0.9991
tp898
a(S"don't"
p899
g13
F1.0
tp900
a(S'like'
p901
g13
F0.9629
tp902
a(S'it'
p903
g3
F0.9989
tp904
a(S'there'
p905
g153
F0.9499
tp906
a(g42
g9
F0.9981
tp907
asI628
(lp908
(S'(..)'
p909
g28
F0.3551
tp910
a(S'eat'
p911
g13
F0.9968
tp912
a(S'your'
p913
g19
F0.9932
tp914
a(S'rice'
p915
g6
F0.9947
tp916
a(S'hon'
p917
g6
F0.9989
tp918
a(g42
g9
F0.9979
tp919
asI119
(lp920
(S'you'
p921
g3
F0.9923
tp922
a(S'like'
p923
g13
F0.7127
tp924
a(S'chicken'
p925
g6
F0.7694
tp926
a(S'what'
p927
g3
F0.9502
tp928
a(S'are'
p929
g13
F0.9976
tp930
a(S'you'
p931
g3
F0.9995
tp932
a(S'talking'
p933
g13
F0.9988
tp934
a(S'about'
p935
g61
F0.8473
tp936
a(g8
g9
F0.996
tp937
asI788
(lp938
(S'booboo'
p939
g6
F0.8202
tp940
a(g42
g9
F0.9981
tp941
asI634
(lp942
(S'oh'
p943
g46
F0.9947
tp944
a(S'good'
p945
g16
F0.9903
tp946
a(g42
g9
F0.9981
tp947
asI1148
(lp948
(S"what's"
p949
g279
F0.9924
tp950
a(g187
g187
F0.9978
tp951
a(S'an'
p952
g19
F0.6068
tp953
a(g187
g187
F0.9975
tp954
a(g32
g19
F0.9495
tp955
a(S'nama'
p956
g6
F0.4464
tp957
a(S'@n'
p958
S'@'
p959
F0.9955
tp960
a(g8
g9
F0.9957
tp961
asI125
(lp962
(g50
g3
F0.9976
tp963
a(S"don't"
p964
g13
F1.0
tp965
a(S'like'
p966
g13
F0.9733
tp967
a(S'it'
p968
g3
F0.9981
tp969
a(S'like'
p970
g61
F0.5664
tp971
a(S'chicken'
p972
g6
F0.9104
tp973
a(g42
g9
F0.9985
tp974
asI128
(lp975
(g50
g3
F0.9976
tp976
a(S"don't"
p977
g13
F1.0
tp978
a(S'have'
p979
g13
F1.0
tp980
a(S'any'
p981
g19
F0.9973
tp982
a(S'butter'
p983
g6
F0.9974
tp984
a(g50
g3
F0.9751
tp985
a(S'like'
p986
g13
F0.8199
tp987
a(S'xxx'
p988
g28
F0.6878
tp989
a(g299
g9
F0.6588
tp990
a(S'>'
p991
g28
F0.4438
tp992
a(g302
g9
F0.7544
tp993
a(S'+/'
p994
g559
F0.1868
tp995
a(g42
g9
F0.9918
tp996
asI952
(lp997
(S"don't"
p998
g13
F0.9993
tp999
a(S'call'
p1000
g13
F0.9998
tp1001
a(S'me'
p1002
g3
F0.9884
tp1003
a(S'bad'
p1004
g16
F0.9551
tp1005
a(g42
g9
F0.9982
tp1006
asI643
(lp1007
(S'just'
p1008
g153
F0.9976
tp1009
a(S'my'
p1010
g19
F0.9926
tp1011
a(S'rice'
p1012
g6
F0.9912
tp1013
a(S'xxx'
p1014
g28
F0.7425
tp1015
a(g299
g9
F0.6588
tp1016
a(g991
g28
F0.6043
tp1017
a(g302
g9
F0.7541
tp1018
a(g42
g9
F0.9962
tp1019
asI133
(lp1020
(g224
g225
F0.9526
tp1021
a(g50
g3
F0.9983
tp1022
a(S'put'
p1023
g13
F0.9976
tp1024
a(S'butter'
p1025
g6
F0.9801
tp1026
a(g991
g28
F0.5184
tp1027
a(g299
g28
F0.535
tp1028
a(g224
g225
F0.8293
tp1029
a(g302
g9
F0.987
tp1030
a(S'on'
p1031
g61
F0.9887
tp1032
a(S'it'
p1033
g3
F0.9988
tp1034
a(S'already'
p1035
g153
F0.9971
tp1036
a(S'melted'
p1037
g13
F0.727
tp1038
a(g42
g9
F0.9977
tp1039
asI646
(lp1040
(S'no'
p1041
g46
F0.8389
tp1042
a(g299
g9
F0.9936
tp1043
a(g224
g225
F0.9843
tp1044
a(g302
g9
F0.9916
tp1045
a(S'you'
p1046
g3
F0.9969
tp1047
a(S'eat'
p1048
g13
F0.9994
tp1049
a(S'some'
p1050
g19
F0.9939
tp1051
a(S'chicken'
p1052
g6
F0.9633
tp1053
a(S'too'
p1054
g153
F0.9769
tp1055
a(g42
g9
F0.997
tp1056
asI1159
(lp1057
(S'oh'
p1058
g46
F0.9984
tp1059
a(g42
g9
F0.9938
tp1060
asI137
(lp1061
(g50
g3
F0.9983
tp1062
a(S'want'
p1063
g13
F1.0
tp1064
a(S'some'
p1065
g19
F0.9397
tp1066
a(S'more'
p1067
g16
F0.9814
tp1068
a(S'butter'
p1069
g6
F0.9964
tp1070
a(g50
g3
F0.9936
tp1071
a(S'want'
p1072
g13
F1.0
tp1073
a(S'your'
p1074
g19
F0.8194
tp1075
a(g299
g9
F0.9442
tp1076
a(g46
g9
F0.9901
tp1077
a(g302
g9
F0.9763
tp1078
a(S'butter'
p1079
g6
F0.9858
tp1080
a(g42
g9
F0.9983
tp1081
asI650
(lp1082
(S'&-um'
p1083
g46
F0.9522
tp1084
a(S'what'
p1085
g3
F0.9941
tp1086
a(S'happened'
p1087
g13
F0.9934
tp1088
a(S'today'
p1089
g6
F0.991
tp1090
a(S'at'
p1091
g61
F0.9999
tp1092
a(S'the'
p1093
g19
F0.9949
tp1094
a(S'play'
p1095
g6
F0.6336
tp1096
a(S'ground'
p1097
g6
F0.7971
tp1098
a(S'how'
p1099
g153
F0.9862
tp1100
a(S'did'
p1101
g13
F0.999
tp1102
a(S'you'
p1103
g3
F0.9988
tp1104
a(S'get'
p1105
g13
F0.9995
tp1106
a(S'hurt'
p1107
g13
F0.6636
tp1108
a(g8
g9
F0.9986
tp1109
asI535
(lp1110
(S'(.)'
p1111
g28
F0.2355
tp1112
a(S'yummy'
p1113
g16
F0.9197
tp1114
a(g42
g9
F0.9982
tp1115
asI1250
(lp1116
(S'is'
p1117
g13
F0.9913
tp1118
a(S'tropical'
p1119
g16
F0.9487
tp1120
a(S'punch'
p1121
g6
F0.9959
tp1122
a(S'good'
p1123
g16
F0.9746
tp1124
a(g8
g9
F0.9972
tp1125
asI706
(lp1126
(S'huh'
p1127
g46
F0.9936
tp1128
a(g8
g9
F0.9967
tp1129
asI142
(lp1130
(S"I'll"
p1131
g279
F0.9855
tp1132
a(S'give'
p1133
g13
F0.9999
tp1134
a(S'you'
p1135
g3
F0.9934
tp1136
a(S'some'
p1137
g19
F0.9268
tp1138
a(S'of'
p1139
g61
F0.9934
tp1140
a(S'it'
p1141
g3
F0.997
tp1142
a(g42
g9
F0.9989
tp1143
asI1167
(lp1144
(S"we're"
p1145
g279
F0.8961
tp1146
a(S'xxx'
p1147
g28
F0.365
tp1148
a(g42
g9
F0.9721
tp1149
asI656
(lp1150
(S'someone'
p1151
g6
F0.9233
tp1152
a(S'pushed'
p1153
g13
F0.9995
tp1154
a(S'me'
p1155
g3
F0.9493
tp1156
a(S'one'
p1157
g794
F0.9558
tp1158
a(S'time'
p1159
g6
F0.9967
tp1160
a(S'then'
p1161
g153
F0.9735
tp1162
a(g50
g3
F0.9986
tp1163
a(S'stand'
p1164
g13
F0.9995
tp1165
a(S'up'
p1166
g447
F0.9328
tp1167
a(S'and'
p1168
g187
F0.9975
tp1169
a(S'got'
p1170
g13
F0.9925
tp1171
a(S'sand'
p1172
g6
F0.9543
tp1173
a(S'in'
p1174
g61
F0.9985
tp1175
a(S'my'
p1176
g19
F0.9988
tp1177
a(S'mouth'
p1178
g6
F0.9998
tp1179
a(g42
g9
F0.9989
tp1180
asI145
(lp1181
(S'thanks'
p1182
g6
F0.9172
tp1183
a(g42
g9
F0.9972
tp1184
asI1170
(lp1185
(S'hm'
p1186
g46
F0.9811
tp1187
a(g778
g9
F0.891
tp1188
a(g8
g9
F0.9885
tp1189
asI963
(lp1190
(S'oh'
p1191
g46
F0.9984
tp1192
a(g42
g9
F0.9938
tp1193
asI148
(lp1194
(S'push'
p1195
g13
F0.9709
tp1196
a(S'it'
p1197
g3
F0.9821
tp1198
a(S'on'
p1199
g61
F0.8748
tp1200
a(g32
g19
F0.9972
tp1201
a(S'bit'
p1202
g6
F0.7689
tp1203
a(S'okay'
p1204
g46
F0.795
tp1205
a(g8
g9
F0.9982
tp1206
asI622
(lp1207
(g50
g3
F0.9973
tp1208
a(S'get'
p1209
g13
F0.9998
tp1210
a(S'more'
p1211
g16
F0.8596
tp1212
a(S'bigger'
p1213
g16
F0.9425
tp1214
a(g42
g9
F0.9987
tp1215
asI1174
(lp1216
(S'xxx'
p1217
g28
F0.6914
tp1218
a(S'we'
p1219
g3
F0.9961
tp1220
a(S'got'
p1221
g13
F0.9984
tp1222
a(S'xxx'
p1223
g6
F0.3819
tp1224
a(g42
g9
F0.9984
tp1225
asI663
(lp1226
(S'someone'
p1227
g6
F0.9233
tp1228
a(S'pushed'
p1229
g13
F0.9992
tp1230
a(S'you'
p1231
g3
F0.9945
tp1232
a(g8
g9
F0.9995
tp1233
asI1109
(lp1234
(S'know'
p1235
g13
F0.9511
tp1236
a(S'what'
p1237
g3
F0.9881
tp1238
a(g8
g9
F0.9924
tp1239
asI153
(lp1240
(S'(..)'
p1241
g9
F0.4447
tp1242
a(S'so'
p1243
g153
F0.7419
tp1244
a(g299
g9
F0.9632
tp1245
a(g46
g9
F0.9922
tp1246
a(g302
g9
F0.9778
tp1247
a(S'tell'
p1248
g13
F0.9986
tp1249
a(S'me'
p1250
g3
F0.9993
tp1251
a(S'about'
p1252
g61
F0.8764
tp1253
a(S'yesterday'
p1254
g6
F0.842
tp1255
a(S'when'
p1256
g153
F0.9708
tp1257
a(S'you'
p1258
g3
F0.9991
tp1259
a(S'went'
p1260
g13
F0.9991
tp1261
a(S'to'
p1262
g61
F0.9839
tp1263
a(S"Friendly's"
p1264
S'Z'
p1265
F0.6177
tp1266
a(S'with'
p1267
g61
F0.9949
tp1268
a(S'&-um'
p1269
g309
F0.5691
tp1270
a(S'(.)'
p1271
g559
F0.3838
tp1272
a(S'Grand'
p1273
g559
F0.941
tp1274
a(S'and'
p1275
g187
F0.9984
tp1276
a(S'mother'
p1277
g6
F0.9803
tp1278
a(g42
g9
F0.9972
tp1279
asI667
(lp1280
(S'yep'
p1281
g46
F0.9972
tp1282
a(g42
g9
F0.9971
tp1283
asI1180
(lp1284
(S'we'
p1285
g3
F0.9973
tp1286
a(S'got'
p1287
g13
F0.9988
tp1288
a(S'Quick'
p1289
g559
F0.6352
tp1290
a(g46
g9
F0.9932
tp1291
asI538
(lp1292
(S'mm'
p1293
g46
F0.7864
tp1294
a(g46
g9
F0.9938
tp1295
asI670
(lp1296
(S'they'
p1297
g3
F0.9899
tp1298
a(S'pushed'
p1299
g13
F0.9999
tp1300
a(S'you'
p1301
g3
F0.9942
tp1302
a(S'\xe2\x86\x91'
p1303
g9
F0.4687
tp1304
a(S'were'
p1305
g13
F0.9983
tp1306
a(S'you'
p1307
g3
F0.9993
tp1308
a(S'on'
p1309
g61
F0.9937
tp1310
a(S'the'
p1311
g19
F0.9986
tp1312
a(S'swing'
p1313
g6
F0.9967
tp1314
a(g8
g9
F0.9974
tp1315
asI1183
(lp1316
(S'(.)'
p1317
g28
F0.3185
tp1318
a(S'she'
p1319
g3
F0.9971
tp1320
a(S'got'
p1321
g13
F0.9968
tp1322
a(S'xxx'
p1323
g6
F0.3819
tp1324
a(g42
g9
F0.9984
tp1325
asI160
(lp1326
(g50
g3
F0.9978
tp1327
a(S"didn't"
p1328
g13
F1.0
tp1329
a(S'cry'
p1330
g13
F0.9783
tp1331
a(g42
g9
F0.9972
tp1332
asI977
(lp1333
(S'are'
p1334
g13
F0.9964
tp1335
a(S'you'
p1336
g3
F0.9995
tp1337
a(S'tired'
p1338
g16
F0.7657
tp1339
a(g8
g9
F0.9969
tp1340
asI163
(lp1341
(S'you'
p1342
g3
F0.997
tp1343
a(S"didn't"
p1344
g13
F0.9999
tp1345
a(S'cry'
p1346
g13
F0.9788
tp1347
a(g8
g9
F0.9971
tp1348
asI676
(lp1349
(S'no'
p1350
g46
F0.9704
tp1351
a(g42
g9
F0.9989
tp1352
asI1189
(lp1353
(S'you'
p1354
g3
F0.998
tp1355
a(S'got'
p1356
g13
F0.9998
tp1357
a(S'the'
p1358
g19
F0.9988
tp1359
a(S'Muppet'
p1360
g559
F0.7562
tp1361
a(S'Babies'
p1362
g559
F0.8398
tp1363
a(S'plate'
p1364
g6
F0.9001
tp1365
a(g42
g9
F0.9982
tp1366
asI167
(lp1367
(S'no'
p1368
g46
F0.9704
tp1369
a(g42
g9
F0.9989
tp1370
asI1193
(lp1371
(S'yeah'
p1372
g46
F0.9933
tp1373
a(S'this'
p1374
g3
F0.9874
tp1375
a(S'is'
p1376
g13
F0.999
tp1377
a(g32
g19
F0.9987
tp1378
a(S'baby'
p1379
g6
F0.9847
tp1380
a(S'plate'
p1381
g6
F0.9874
tp1382
a(S'right'
p1383
g16
F0.4194
tp1384
a(g8
g9
F0.9983
tp1385
asI170
(lp1386
(S'what'
p1387
g3
F0.7628
tp1388
a(S'color'
p1389
g6
F0.9271
tp1390
a(S'ice'
p1391
g6
F0.8487
tp1392
a(S'cream'
p1393
g6
F0.9759
tp1394
a(S'did'
p1395
g13
F0.9973
tp1396
a(S'you'
p1397
g3
F0.9994
tp1398
a(S'have'
p1399
g13
F0.9921
tp1400
a(g8
g9
F0.9965
tp1401
asI684
(lp1402
(S'did'
p1403
g13
F0.9935
tp1404
a(S'they'
p1405
g3
F0.9852
tp1406
a(S'hit'
p1407
g13
F0.9988
tp1408
a(S'with'
p1409
g61
F0.9996
tp1410
a(S'you'
p1411
g3
F0.9993
tp1412
a(S'with'
p1413
g61
F0.9987
tp1414
a(S'their'
p1415
g19
F0.9982
tp1416
a(S'feet'
p1417
g6
F0.9993
tp1418
a(S'by'
p1419
g61
F0.9991
tp1420
a(S'accident'
p1421
g6
F0.9721
tp1422
a(g8
g9
F0.998
tp1423
asI174
(lp1424
(S'strawberry'
p1425
g559
F0.4879
tp1426
a(S'and'
p1427
g187
F0.9983
tp1428
a(S'she'
p1429
g3
F0.9984
tp1430
a(S'had'
p1431
g13
F0.9979
tp1432
a(S'strawberry'
p1433
g6
F0.8293
tp1434
a(g42
g9
F0.9985
tp1435
asI541
(lp1436
(S'that'
p1437
g3
F0.5216
tp1438
a(S'yum'
p1439
g46
F0.3784
tp1440
a(S'stuff'
p1441
g6
F0.9651
tp1442
a(S'xxx'
p1443
g13
F0.3027
tp1444
a(S'this'
p1445
g19
F0.8397
tp1446
a(S'good'
p1447
g16
F0.9977
tp1448
a(S'stuff'
p1449
g6
F0.9975
tp1450
a(S'xxx'
p1451
g28
F0.4495
tp1452
a(g42
g9
F0.9769
tp1453
asI177
(lp1454
(S'strawberry'
p1455
g6
F0.7264
tp1456
a(g8
g9
F0.9963
tp1457
asI690
(lp1458
(S'yep'
p1459
g46
F0.9972
tp1460
a(g42
g9
F0.9971
tp1461
asI181
(lp1462
(S'yep'
p1463
g46
F0.9972
tp1464
a(g42
g9
F0.9971
tp1465
asI184
(lp1466
(S"it's"
p1467
g279
F0.9932
tp1468
a(S'good'
p1469
g16
F0.9985
tp1470
a(g42
g9
F0.9981
tp1471
asI1140
(lp1472
(S'yes'
p1473
g46
F0.9984
tp1474
a(g46
g9
F0.997
tp1475
asI187
(lp1476
(S'it'
p1477
g3
F0.9956
tp1478
a(S'was'
p1479
g13
F0.9989
tp1480
a(S'good'
p1481
g16
F0.9959
tp1482
a(g8
g9
F0.9959
tp1483
asI701
(lp1484
(S'like'
p1485
g61
F0.8907
tp1486
a(g32
g19
F0.8473
tp1487
a(S'like'
p1488
g61
F0.8125
tp1489
a(S'an'
p1490
g19
F0.9066
tp1491
a(S'aminal'
p1492
g6
F0.6535
tp1493
a(S'[:'
p1494
g28
F0.8673
tp1495
a(S'animal'
p1496
g6
F0.8533
tp1497
a(g302
g9
F0.9891
tp1498
a(g8
g9
F0.9965
tp1499
asI1214
(lp1500
(S'yeah'
p1501
g46
F0.9971
tp1502
a(g50
g3
F0.9992
tp1503
a(S'guess'
p1504
g13
F1.0
tp1505
a(S'you'
p1506
g3
F0.9997
tp1507
a(S'did'
p1508
g13
F0.9994
tp1509
a(S'eat'
p1510
g13
F0.9848
tp1511
a(g32
g19
F0.9976
tp1512
a(S'lot'
p1513
g6
F0.9872
tp1514
a(S'is'
p1515
g13
F0.9987
tp1516
a(S'your'
p1517
g19
F0.9915
tp1518
a(S'tummy'
p1519
g6
F0.984
tp1520
a(S'full'
p1521
g16
F0.9142
tp1522
a(g8
g9
F0.9951
tp1523
asI191
(lp1524
(S'yeah'
p1525
g46
F0.9986
tp1526
a(g42
g9
F0.997
tp1527
asI705
(lp1528
(g187
g187
F0.9893
tp1529
a(g645
g9
F0.8669
tp1530
a(S'laughs'
p1531
g13
F0.8696
tp1532
a(g42
g9
F0.9983
tp1533
asI194
(lp1534
(S'well'
p1535
g46
F0.9274
tp1536
a(S"I'm"
p1537
g279
F0.9978
tp1538
a(S'glad'
p1539
g16
F0.9452
tp1540
a(S"you're"
p1541
g279
F0.9899
tp1542
a(g32
g19
F0.986
tp1543
a(S'good'
p1544
g16
F0.9988
tp1545
a(S'girl'
p1546
g6
F0.9945
tp1547
a(S'Chi'
p1548
g559
F0.8271
tp1549
a(g42
g9
F0.993
tp1550
asI1220
(lp1551
(S'here'
p1552
g153
F0.9599
tp1553
a(S"I'll"
p1554
g279
F0.9786
tp1555
a(S'give'
p1556
g13
F0.9999
tp1557
a(S'you'
p1558
g3
F0.9954
tp1559
a(g32
g19
F0.9941
tp1560
a(S'popsicle'
p1561
g6
F0.9548
tp1562
a(g42
g9
F0.9987
tp1563
asI1038
(lp1564
(S'it'
p1565
g3
F0.9974
tp1566
a(S'is'
p1567
g13
F0.9994
tp1568
a(g42
g9
F0.9976
tp1569
asI710
(lp1570
(S'like'
p1571
g61
F0.8907
tp1572
a(g32
g19
F0.959
tp1573
a(S'aminal'
p1574
g6
F0.6167
tp1575
a(S'[:'
p1576
g28
F0.8549
tp1577
a(S'animal'
p1578
g6
F0.8882
tp1579
a(g302
g9
F0.9851
tp1580
a(g8
g9
F0.9959
tp1581
asI200
(lp1582
(S'or'
p1583
g187
F0.9951
tp1584
a(S'some'
p1585
g19
F0.9863
tp1586
a(S'time'
p1587
g6
F0.995
tp1588
a(S'we'
p1589
g3
F0.9867
tp1590
a(S'can'
p1591
g13
F0.9997
tp1592
a(S'take'
p1593
g13
F0.9999
tp1594
a(S'him'
p1595
g3
F0.9737
tp1596
a(S'with'
p1597
g61
F0.9991
tp1598
a(S'us'
p1599
g3
F0.9832
tp1600
a(S'when'
p1601
g153
F0.9892
tp1602
a(S'we'
p1603
g3
F0.9965
tp1604
a(S'go'
p1605
g13
F0.9946
tp1606
a(g42
g9
F0.9971
tp1607
asI1225
(lp1608
(S'watch'
p1609
g13
F0.9907
tp1610
a(S'out'
p1611
g447
F0.5206
tp1612
a(S'you'
p1613
g3
F0.9994
tp1614
a(S"don't"
p1615
g13
F1.0
tp1616
a(S'fall'
p1617
g13
F0.984
tp1618
a(g46
g9
F0.9967
tp1619
asI714
(lp1620
(S'no'
p1621
g46
F0.9704
tp1622
a(g42
g9
F0.9989
tp1623
asI631
(lp1624
(g50
g3
F0.9976
tp1625
a(S'will'
p1626
g13
F0.9992
tp1627
a(g42
g9
F0.9968
tp1628
asI1201
(lp1629
(S'can'
p1630
g13
F0.9938
tp1631
a(g50
g3
F0.999
tp1632
a(S'put'
p1633
g13
F0.9995
tp1634
a(S'this'
p1635
g3
F0.7987
tp1636
a(S'on'
p1637
g61
F0.7062
tp1638
a(S'xxx'
p1639
g28
F0.402
tp1640
a(g8
g9
F0.9729
tp1641
asI205
(lp1642
(S'hm'
p1643
g46
F0.9811
tp1644
a(g778
g9
F0.891
tp1645
a(g8
g9
F0.9885
tp1646
asI717
(lp1647
(S'like'
p1648
g61
F0.8907
tp1649
a(g32
g19
F0.9801
tp1650
a(S'Fraggle'
p1651
g559
F0.4874
tp1652
a(S'Rock'
p1653
g559
F0.9928
tp1654
a(S'cartoon'
p1655
g559
F0.5553
tp1656
a(g8
g9
F0.9967
tp1657
asI209
(lp1658
(S'yep'
p1659
g46
F0.9972
tp1660
a(g42
g9
F0.9971
tp1661
asI212
(lp1662
(S'did'
p1663
g13
F0.9986
tp1664
a(S'you'
p1665
g3
F0.9986
tp1666
a(S'get'
p1667
g13
F0.9999
tp1668
a(S'along'
p1669
g447
F0.4956
tp1670
a(S'with'
p1671
g61
F0.9987
tp1672
a(S'him'
p1673
g3
F0.9903
tp1674
a(g8
g9
F0.9982
tp1675
asI974
(lp1676
(S"I'll"
p1677
g279
F0.9859
tp1678
a(S'see'
p1679
g13
F0.9992
tp1680
a(S'if'
p1681
g61
F0.9942
tp1682
a(S'there'
p1683
S'X'
p1684
F0.8585
tp1685
a(S'is'
p1686
g13
F0.9916
tp1687
a(S'green'
p1688
g16
F0.9906
tp1689
a(g42
g9
F0.9981
tp1690
asI1239
(lp1691
(S'here'
p1692
g153
F0.9346
tp1693
a(S'you'
p1694
g3
F0.9996
tp1695
a(S'go'
p1696
g13
F0.9916
tp1697
a(g42
g9
F0.998
tp1698
asI216
(lp1699
(S'yep'
p1700
g46
F0.9972
tp1701
a(g42
g9
F0.9971
tp1702
asI729
(lp1703
(g50
g3
F0.9991
tp1704
a(S'did'
p1705
g13
F0.9989
tp1706
a(g42
g9
F0.9974
tp1707
asI1186
(lp1708
(S'(.)'
p1709
g28
F0.3185
tp1710
a(S'she'
p1711
g3
F0.9971
tp1712
a(S'got'
p1713
g13
F0.998
tp1714
a(S'milk'
p1715
g6
F0.9972
tp1716
a(g42
g9
F0.9987
tp1717
asI219
(lp1718
(S'yep'
p1719
g46
F0.9976
tp1720
a(g8
g9
F0.9966
tp1721
asI732
(lp1722
(S'well'
p1723
g46
F0.741
tp1724
a(S'you'
p1725
g3
F0.9994
tp1726
a(S"didn't"
p1727
g13
F0.9999
tp1728
a(S'bleed'
p1729
g13
F0.9981
tp1730
a(g299
g9
F0.9861
tp1731
a(g46
g9
F0.9901
tp1732
a(g302
g9
F0.9821
tp1733
a(S'you'
p1734
g3
F0.9973
tp1735
a(S"didn't"
p1736
g13
F1.0
tp1737
a(S'cut'
p1738
g13
F0.9981
tp1739
a(S'yourself'
p1740
g3
F0.9855
tp1741
a(S'or'
p1742
g187
F0.9893
tp1743
a(S'anything'
p1744
g6
F0.9989
tp1745
a(g42
g9
F0.9991
tp1746
asI1245
(lp1747
(S"I'll"
p1748
g279
F0.9859
tp1749
a(S'put'
p1750
g13
F0.9881
tp1751
a(S'&-um'
p1752
g309
F0.3089
tp1753
a(S'Sesame'
p1754
g559
F0.7246
tp1755
a(S'Street'
p1756
g559
F0.9384
tp1757
a(S'on'
p1758
g61
F0.943
tp1759
a(S'okay'
p1760
g16
F0.6222
tp1761
a(g8
g9
F0.9972
tp1762
asI223
(lp1763
(S'played'
p1764
g13
F0.9944
tp1765
a(S'with'
p1766
g61
F0.9997
tp1767
a(S'him'
p1768
g3
F0.9947
tp1769
a(g42
g9
F0.9985
tp1770
asI1089
(lp1771
(S"I'm"
p1772
g279
F0.9968
tp1773
a(S'sure'
p1774
g16
F0.9809
tp1775
a(S'we'
p1776
g3
F0.9966
tp1777
a(S'could'
p1778
g13
F0.9997
tp1779
a(S'find'
p1780
g13
F0.9992
tp1781
a(S'some'
p1782
g19
F0.9399
tp1783
a(S'[//]'
p1784
g559
F0.2846
tp1785
a(S'pictures'
p1786
g6
F0.7124
tp1787
a(S'with'
p1788
g61
F0.9999
tp1789
a(S'those'
p1790
g19
F0.9849
tp1791
a(S'colors'
p1792
g6
F0.9967
tp1793
a(S'in'
p1794
g61
F0.9966
tp1795
a(S'them'
p1796
g3
F0.9075
tp1797
a(S'we'
p1798
g3
F0.9944
tp1799
a(S'could'
p1800
g13
F0.9997
tp1801
a(S'put'
p1802
g13
F0.9987
tp1803
a(S'them'
p1804
g3
F0.9755
tp1805
a(S'up'
p1806
g447
F0.9326
tp1807
a(S'on'
p1808
g61
F0.9946
tp1809
a(S'your'
p1810
g19
F0.9886
tp1811
a(S'wall'
p1812
g6
F0.993
tp1813
a(g42
g9
F0.998
tp1814
asI226
(lp1815
(S'good'
p1816
g16
F0.9499
tp1817
a(g46
g9
F0.998
tp1818
asI891
(lp1819
(S'no'
p1820
g46
F0.9847
tp1821
a(g46
g9
F0.999
tp1822
asI229
(lp1823
(S'how'
p1824
g153
F0.9856
tp1825
a(S'old'
p1826
g16
F0.9906
tp1827
a(S'is'
p1828
g13
F0.9566
tp1829
a(S'he'
p1830
g3
F0.9976
tp1831
a(g8
g9
F0.9969
tp1832
asI1254
(lp1833
(S'yes'
p1834
g46
F0.9832
tp1835
a(g299
g9
F0.9796
tp1836
a(g46
g9
F0.9842
tp1837
a(g302
g9
F0.9865
tp1838
a(S'you'
p1839
g3
F0.9964
tp1840
a(S'tell'
p1841
g13
F0.9998
tp1842
a(S'me'
p1843
g3
F0.9989
tp1844
a(g42
g9
F0.9985
tp1845
asI721
(lp1846
(S'yeah'
p1847
g46
F0.9986
tp1848
a(g42
g9
F0.997
tp1849
asI233
(lp1850
(S'&-uh'
p1851
g46
F0.8662
tp1852
a(S'three'
p1853
g794
F0.8902
tp1854
a(g42
g9
F0.9973
tp1855
asI1063
(lp1856
(S'blue'
p1857
g16
F0.6841
tp1858
a(g8
g9
F0.9943
tp1859
asI236
(lp1860
(S"he's"
p1861
g279
F0.97
tp1862
a(S'three'
p1863
g794
F0.8395
tp1864
a(g8
g9
F0.9954
tp1865
asI637
(lp1866
(S'(..)'
p1867
g9
F0.3907
tp1868
a(S"I'm"
p1869
g279
F0.9967
tp1870
a(S'done'
p1871
g13
F0.8372
tp1872
a(g42
g9
F0.999
tp1873
asI240
(lp1874
(S'mhm'
p1875
g46
F0.9761
tp1876
a(g42
g9
F0.9962
tp1877
asI905
(lp1878
(S'forget'
p1879
g13
F0.9987
tp1880
a(S'it'
p1881
g3
F0.9888
tp1882
a(g42
g9
F0.9987
tp1883
asI243
(lp1884
(S'he'
p1885
g3
F0.9913
tp1886
a(S'just'
p1887
g153
F0.9997
tp1888
a(S'turned'
p1889
g13
F0.9881
tp1890
a(g299
g9
F0.9913
tp1891
a(g46
g9
F0.9901
tp1892
a(g302
g9
F0.9188
tp1893
a(S'three'
p1894
g794
F0.9358
tp1895
a(g42
g9
F0.9975
tp1896
asI755
(lp1897
(S'oh'
p1898
g46
F0.9984
tp1899
a(g42
g9
F0.9938
tp1900
asI894
(lp1901
(g50
g3
F0.9978
tp1902
a(S"didn't"
p1903
g13
F1.0
tp1904
a(S'hear'
p1905
g13
F0.9991
tp1906
a(S'you'
p1907
g3
F0.9983
tp1908
a(S'ask'
p1909
g13
F0.9999
tp1910
a(S'me'
p1911
g3
F0.997
tp1912
a(g46
g9
F0.9986
tp1913
asI246
(lp1914
(S'he'
p1915
g3
F0.9913
tp1916
a(S'just'
p1917
g153
F0.9997
tp1918
a(S'turned'
p1919
g13
F0.9825
tp1920
a(S'three'
p1921
g794
F0.8115
tp1922
a(g8
g9
F0.9971
tp1923
asI724
(lp1924
(S'(..)'
p1925
g9
F0.3907
tp1926
a(S"I'm"
p1927
g279
F0.997
tp1928
a(S'glad'
p1929
g16
F0.8233
tp1930
a(S'you'
p1931
g3
F0.9978
tp1932
a(S"didn't"
p1933
g13
F0.9999
tp1934
a(S'get'
p1935
g13
F0.9997
tp1936
a(S'too'
p1937
g153
F0.8167
tp1938
a(S'hurt'
p1939
g13
F0.7024
tp1940
a(S'though'
p1941
g61
F0.5181
tp1942
a(g42
g9
F0.997
tp1943
asI250
(lp1944
(S'yep'
p1945
g46
F0.9972
tp1946
a(g42
g9
F0.9971
tp1947
asI253
(lp1948
(S'eat'
p1949
g13
F0.99
tp1950
a(S'your'
p1951
g19
F0.9933
tp1952
a(S'rice'
p1953
g6
F0.9978
tp1954
a(S'too'
p1955
g153
F0.8574
tp1956
a(S'hon'
p1957
g6
F0.8518
tp1958
a(S'(.)'
p1959
g28
F0.2923
tp1960
a(S'and'
p1961
g187
F0.9987
tp1962
a(S'your'
p1963
g19
F0.8823
tp1964
a(S'spinach'
p1965
g6
F0.9984
tp1966
a(g42
g9
F0.9985
tp1967
asI768
(lp1968
(S'look'
p1969
g13
F0.7386
tp1970
a(g42
g9
F0.9974
tp1971
asI640
(lp1972
(S'oh'
p1973
g46
F0.9903
tp1974
a(S'no'
p1975
g46
F0.9826
tp1976
a(S"you're"
p1977
g279
F0.9938
tp1978
a(S'not'
p1979
g153
F0.9979
tp1980
a(g42
g9
F0.9959
tp1981
asI258
(lp1982
(g50
g3
F0.9975
tp1983
a(S'am'
p1984
g13
F0.995
tp1985
a(S'gonna'
p1986
g13
F0.935
tp1987
a(g42
g9
F0.9978
tp1988
asI771
(lp1989
(S'looks'
p1990
g13
F0.9742
tp1991
a(S'perfect'
p1992
g16
F0.9976
tp1993
a(S'to'
p1994
g61
F0.9986
tp1995
a(S'me'
p1996
g3
F0.9983
tp1997
a(g42
g9
F0.9984
tp1998
asI1236
(lp1999
(g50
g3
F0.9983
tp2000
a(S'want'
p2001
g13
F0.9999
tp2002
a(S'tropical'
p2003
g16
F0.6319
tp2004
a(S'punch'
p2005
g6
F0.9995
tp2006
a(g42
g9
F0.9983
tp2007
asI261
(lp2008
(S'wanna'
p2009
g13
F0.9649
tp2010
a(S'see'
p2011
g13
F0.9996
tp2012
a(S'your'
p2013
g19
F0.9984
tp2014
a(S'face'
p2015
g6
F0.9962
tp2016
a(S'you'
p2017
g3
F0.997
tp2018
a(S'got'
p2019
g13
F0.9998
tp2020
a(g32
g19
F0.9989
tp2021
a(S'little'
p2022
g16
F0.9333
tp2023
a(S'sunburned'
p2024
g16
F0.9628
tp2025
a(S'today'
p2026
g6
F0.9972
tp2027
a(g42
g9
F0.9979
tp2028
asI774
(lp2029
(S'&-uh'
p2030
g46
F0.7694
tp2031
a(S'right'
p2032
g153
F0.4765
tp2033
a(S'here'
p2034
g153
F0.9753
tp2035
a(g42
g9
F0.9987
tp2036
asI897
(lp2037
(S'xxx'
p2038
g28
F0.5822
tp2039
a(g42
g9
F0.9648
tp2040
asI1060
(lp2041
(S'blue'
p2042
g16
F0.6018
tp2043
a(g42
g9
F0.9978
tp2044
asI556
(lp2045
(S'see'
p2046
g13
F0.9907
tp2047
a(S'my'
p2048
g19
F0.9957
tp2049
a(S'muscle'
p2050
g6
F0.9333
tp2051
a(g8
g9
F0.997
tp2052
asI266
(lp2053
(S'is'
p2054
g13
F0.9993
tp2055
a(S'it'
p2056
g3
F0.999
tp2057
a(S'gonna'
p2058
g13
F0.999
tp2059
a(S'hurt'
p2060
g13
F0.9626
tp2061
a(g8
g9
F0.9978
tp2062
asI780
(lp2063
(S'really'
p2064
g153
F0.9969
tp2065
a(g8
g9
F0.9957
tp2066
asI898
(lp2067
(S'what'
p2068
g3
F0.9171
tp2069
a(g8
g9
F0.9924
tp2070
asI270
(lp2071
(S'no'
p2072
g46
F0.9704
tp2073
a(g42
g9
F0.9989
tp2074
asI784
(lp2075
(S'feel'
p2076
g13
F0.9953
tp2077
a(S'my'
p2078
g19
F0.9976
tp2079
a(S'nose'
p2080
g6
F0.9992
tp2081
a(g8
g9
F0.9981
tp2082
asI273
(lp2083
(g187
g187
F0.9893
tp2084
a(g645
g9
F0.8784
tp2085
a(S'gasps'
p2086
g13
F0.7322
tp2087
a(S'hot'
p2088
g16
F0.9352
tp2089
a(g46
g9
F0.999
tp2090
asI276
(lp2091
(S'xxx'
p2092
g28
F0.5822
tp2093
a(g42
g9
F0.9648
tp2094
asI277
(lp2095
(S"it's"
p2096
g279
F0.9887
tp2097
a(S'hot'
p2098
g16
F0.9916
tp2099
a(g42
g9
F0.9985
tp2100
asI791
(lp2101
(S'does'
p2102
g13
F0.9995
tp2103
a(S'it'
p2104
g3
F0.9985
tp2105
a(S'hurt'
p2106
g13
F0.9523
tp2107
a(g8
g9
F0.9976
tp2108
asI280
(lp2109
(S'do'
p2110
g13
F0.9905
tp2111
a(g50
g3
F0.9993
tp2112
a(S'have_to'
p2113
g13
F0.9997
tp2114
a(S'eat'
p2115
g13
F0.9988
tp2116
a(S'the'
p2117
g19
F0.9996
tp2118
a(S'spinach'
p2119
g6
F0.9773
tp2120
a(g8
g9
F0.9976
tp2121
asI795
(lp2122
(S'uhhuh'
p2123
g46
F0.9881
tp2124
a(g42
g9
F0.997
tp2125
asI284
(lp2126
(S'yes'
p2127
g46
F0.9961
tp2128
a(g42
g9
F0.9972
tp2129
asI1242
(lp2130
(S'is'
p2131
g13
F0.9913
tp2132
a(S'tropical'
p2133
g16
F0.9725
tp2134
a(S'+/'
p2135
g6
F0.8164
tp2136
a(g42
g9
F0.9981
tp2137
asI798
(lp2138
(S'hm'
p2139
g46
F0.9811
tp2140
a(g778
g9
F0.891
tp2141
a(g8
g9
F0.9885
tp2142
asI287
(lp2143
(S'have_to'
p2144
g13
F0.9715
tp2145
a(S'chew'
p2146
g13
F0.9982
tp2147
a(S'on'
p2148
g61
F0.9318
tp2149
a(S'it'
p2150
g3
F0.9978
tp2151
a(S'like'
p2152
g61
F0.624
tp2153
a(S'this'
p2154
g3
F0.976
tp2155
a(g42
g9
F0.9986
tp2156
asI290
(lp2157
(S'the'
p2158
g19
F0.9982
tp2159
a(S'spinach'
p2160
g6
F0.9877
tp2161
a(g8
g9
F0.9969
tp2162
asI987
(lp2163
(S'huh'
p2164
g46
F0.9936
tp2165
a(g8
g9
F0.9967
tp2166
asI1152
(lp2167
(S'Adam'
p2168
g559
F0.9798
tp2169
a(S'that'
p2170
g19
F0.8303
tp2171
a(S'little'
p2172
g16
F0.9935
tp2173
a(S'boy'
p2174
g6
F0.9962
tp2175
a(S'who'
p2176
g3
F0.9723
tp2177
a(S'lives'
p2178
g13
F0.9702
tp2179
a(S'at'
p2180
g61
F0.999
tp2181
a(S'the'
p2182
g19
F0.9748
tp2183
a(g187
g187
F0.9718
tp2184
a(S'h'
p2185
g6
F0.2802
tp2186
a(S'where'
p2187
g153
F0.9798
tp2188
a(S"we're"
p2189
g279
F0.9154
tp2190
a(S'gonna'
p2191
g13
F0.983
tp2192
a(S'[:'
p2193
g28
F0.7834
tp2194
a(S'going'
p2195
g13
F0.9979
tp2196
a(S'to'
p2197
g61
F0.898
tp2198
a(g302
g9
F0.9617
tp2199
a(S'move'
p2200
g6
F0.4871
tp2201
a(g42
g9
F0.9982
tp2202
asI294
(lp2203
(S'yeah'
p2204
g46
F0.9986
tp2205
a(g42
g9
F0.997
tp2206
asI807
(lp2207
(S'yes'
p2208
g46
F0.9961
tp2209
a(g42
g9
F0.9972
tp2210
asI1122
(lp2211
(S'huh'
p2212
g46
F0.9936
tp2213
a(g8
g9
F0.9967
tp2214
asI297
(lp2215
(S'you'
p2216
g3
F0.995
tp2217
a(S"don't"
p2218
g13
F0.9999
tp2219
a(g8
g9
F0.9962
tp2220
asI810
(lp2221
(S'huh'
p2222
g46
F0.9936
tp2223
a(g8
g9
F0.9967
tp2224
asI302
(lp2225
(S'just'
p2226
g153
F0.9992
tp2227
a(S'chew'
p2228
g13
F0.9996
tp2229
a(S'it'
p2230
g3
F0.9935
tp2231
a(S'up'
p2232
g447
F0.97
tp2233
a(g42
g9
F0.9981
tp2234
asI743
(lp2235
(S'mhm'
p2236
g46
F0.9236
tp2237
a(S'[='
p2238
g28
F0.9486
tp2239
a(g46
g9
F0.9799
tp2240
a(S'clears'
p2241
g13
F0.9919
tp2242
a(S'throat'
p2243
g6
F0.972
tp2244
a(g302
g9
F0.99
tp2245
a(S'your'
p2246
g19
F0.9801
tp2247
a(S'heart'
p2248
g6
F0.9988
tp2249
a(S'got'
p2250
g13
F0.9873
tp2251
a(S'hurt'
p2252
g13
F0.9938
tp2253
a(S'you'
p2254
g3
F0.9996
tp2255
a(S'said'
p2256
g13
F0.9928
tp2257
a(g8
g9
F0.9963
tp2258
asI305
(lp2259
(g50
g3
F0.9976
tp2260
a(S"don't"
p2261
g13
F1.0
tp2262
a(S'want'
p2263
g13
F0.9999
tp2264
a(S'to'
p2265
g61
F0.9615
tp2266
a(g605
g9
F0.9714
tp2267
a(S'be)cause'
p2268
g61
F0.9964
tp2269
a(g50
g3
F0.9994
tp2270
a(S'can'
p2271
g13
F0.9999
tp2272
a(S'swallow'
p2273
g13
F0.9998
tp2274
a(S'it'
p2275
g3
F0.9446
tp2276
a(S'better'
p2277
g16
F0.6735
tp2278
a(g42
g9
F0.9974
tp2279
asI563
(lp2280
(S'oh'
p2281
g46
F0.9929
tp2282
a(S'xxx'
p2283
g28
F0.805
tp2284
a(g224
g225
F0.9349
tp2285
a(S"you're"
p2286
g279
F0.9939
tp2287
a(S'not'
p2288
g153
F0.9985
tp2289
a(S'gonna'
p2290
g13
F0.9946
tp2291
a(g991
g309
F0.2943
tp2292
a(S'[//]'
p2293
g309
F0.2746
tp2294
a(S"you're"
p2295
g279
F0.9877
tp2296
a(S'gonna'
p2297
g13
F0.9908
tp2298
a(S'[:'
p2299
g28
F0.7834
tp2300
a(S'going'
p2301
g13
F0.9979
tp2302
a(S'to'
p2303
g61
F0.898
tp2304
a(g302
g9
F0.9807
tp2305
a(S'eat'
p2306
g13
F0.997
tp2307
a(S'all'
p2308
g19
F0.8549
tp2309
a(S'your'
p2310
g19
F0.986
tp2311
a(S'spinach'
p2312
g6
F0.9918
tp2313
a(S'xxx'
p2314
g6
F0.5466
tp2315
a(g42
g9
F0.9977
tp2316
asI820
(lp2317
(S'it'
p2318
g3
F0.9881
tp2319
a(S"doesn't"
p2320
g13
F0.999
tp2321
a(S'hurt'
p2322
g13
F0.9908
tp2323
a(g42
g9
F0.9979
tp2324
asI310
(lp2325
(g605
g9
F0.9736
tp2326
a(S'be)cause'
p2327
g61
F0.9923
tp2328
a(S"it's"
p2329
g279
F0.9846
tp2330
a(S'hot'
p2331
g16
F0.9923
tp2332
a(S'(.)'
p2333
g9
F0.4199
tp2334
a(S'now'
p2335
g153
F0.9956
tp2336
a(S'watch'
p2337
g13
F0.9981
tp2338
a(S'me'
p2339
g3
F0.9985
tp2340
a(S'swallow'
p2341
g13
F0.9988
tp2342
a(S'it'
p2343
g3
F0.9813
tp2344
a(S'okay'
p2345
g16
F0.5283
tp2346
a(g8
g9
F0.9952
tp2347
asI823
(lp2348
(S'(..)'
p2349
g28
F0.4141
tp2350
a(S'&-uh'
p2351
g46
F0.8298
tp2352
a(S'ow'
p2353
g46
F0.9825
tp2354
a(g46
g9
F0.9978
tp2355
asI827
(lp2356
(S'Chi'
p2357
g559
F0.6936
tp2358
a(g46
g9
F0.9785
tp2359
asI1162
(lp2360
(S'remember'
p2361
g13
F0.9003
tp2362
a(g8
g9
F0.9967
tp2363
asI318
(lp2364
(S'well'
p2365
g46
F0.8247
tp2366
a(S'blow'
p2367
g6
F0.8038
tp2368
a(S'on'
p2369
g61
F0.9913
tp2370
a(S'it'
p2371
g3
F0.9977
tp2372
a(S'before'
p2373
g61
F0.9751
tp2374
a(S'you'
p2375
g3
F0.9995
tp2376
a(S'put'
p2377
g13
F0.9993
tp2378
a(S'it'
p2379
g3
F0.9831
tp2380
a(S'in'
p2381
g61
F0.9631
tp2382
a(S'your'
p2383
g19
F0.9963
tp2384
a(S'mouth'
p2385
g6
F0.9995
tp2386
a(S'hon'
p2387
g6
F0.9967
tp2388
a(g42
g9
F0.9981
tp2389
asI833
(lp2390
(g50
g3
F0.9982
tp2391
a(S'ate'
p2392
g13
F0.9999
tp2393
a(S'all'
p2394
g19
F0.7825
tp2395
a(g299
g9
F0.9801
tp2396
a(g46
g9
F0.9901
tp2397
a(g302
g9
F0.9581
tp2398
a(S'my'
p2399
g19
F0.9957
tp2400
a(S'dinner'
p2401
g6
F0.9956
tp2402
a(g42
g9
F0.9988
tp2403
asI323
(lp2404
(S'then'
p2405
g153
F0.9477
tp2406
a(S'it'
p2407
g3
F0.995
tp2408
a(S"won't"
p2409
g13
F0.9948
tp2410
a(S'be'
p2411
g13
F0.9979
tp2412
a(S'hot'
p2413
g16
F0.9649
tp2414
a(g42
g9
F0.9982
tp2415
asI836
(lp2416
(S"I'm"
p2417
g279
F0.995
tp2418
a(S'full'
p2419
g16
F0.9888
tp2420
a(S'ate'
p2421
g13
F0.8973
tp2422
a(S'all'
p2423
g1684
F0.5512
tp2424
a(S'my'
p2425
g19
F0.9995
tp2426
a(S'dinner'
p2427
g6
F0.9965
tp2428
a(g42
g9
F0.9985
tp2429
asI327
(lp2430
(S'0'
p2431
g794
F0.9816
tp2432
a(S'[='
p2433
g28
F0.9666
tp2434
a(g46
g9
F0.9799
tp2435
a(S'makes'
p2436
g13
F0.9969
tp2437
a(S'blowing'
p2438
g13
F0.9383
tp2439
a(S'sounds'
p2440
g6
F0.5701
tp2441
a(g302
g9
F0.9891
tp2442
a(g42
g9
F0.9962
tp2443
asI328
(lp2444
(S'good'
p2445
g16
F0.9837
tp2446
a(S'chicken'
p2447
g6
F0.9858
tp2448
a(g42
g9
F0.9985
tp2449
asI908
(lp2450
(g50
g3
F0.9983
tp2451
a(S'said'
p2452
g13
F0.9972
tp2453
a(S'please'
p2454
g13
F0.8133
tp2455
a(g46
g9
F0.9979
tp2456
asI331
(lp2457
(S'hot'
p2458
g16
F0.9442
tp2459
a(S'hot'
p2460
g16
F0.9592
tp2461
a(S'hot'
p2462
g16
F0.6487
tp2463
a(g42
g9
F0.9987
tp2464
asI738
(lp2465
(S'yeah'
p2466
g46
F0.9962
tp2467
a(S'but'
p2468
g187
F0.9965
tp2469
a(g50
g3
F0.9992
tp2470
a(S"didn't"
p2471
g13
F1.0
tp2472
a(S'get'
p2473
g13
F0.9997
tp2474
a(S'too'
p2475
g153
F0.8167
tp2476
a(S'hurt'
p2477
g13
F0.8509
tp2478
a(g50
g3
F0.9994
tp2479
a(S'got'
p2480
g13
F0.9999
tp2481
a(g32
g19
F0.9989
tp2482
a(S'little'
p2483
g16
F0.9968
tp2484
a(S'bit'
p2485
g6
F0.9272
tp2486
a(S'xxx'
p2487
g28
F0.383
tp2488
a(g42
g9
F0.9835
tp2489
asI335
(lp2490
(S'love'
p2491
g13
F0.7383
tp2492
a(S'Boston'
p2493
g559
F0.9977
tp2494
a(S'chicken'
p2495
g6
F0.9052
tp2496
a(g42
g9
F0.9986
tp2497
asI1051
(lp2498
(S'yep'
p2499
g46
F0.9989
tp2500
a(g46
g9
F0.997
tp2501
asI693
(lp2502
(S'wow'
p2503
g46
F0.9964
tp2504
a(g42
g9
F0.9961
tp2505
asI338
(lp2506
(g50
g3
F0.9976
tp2507
a(S"don't"
p2508
g13
F1.0
tp2509
a(g42
g9
F0.9969
tp2510
asI341
(lp2511
(S'yes'
p2512
g46
F0.9701
tp2513
a(S'you'
p2514
g3
F0.9988
tp2515
a(S'do'
p2516
g13
F0.9993
tp2517
a(g46
g9
F0.9971
tp2518
asI344
(lp2519
(S'nuhhuh'
p2520
g46
F0.4209
tp2521
a(g42
g9
F0.9969
tp2522
asI857
(lp2523
(S"don't"
p2524
g13
F0.9987
tp2525
a(S'worry'
p2526
g13
F0.9998
tp2527
a(S'about'
p2528
g61
F0.987
tp2529
a(S'it'
p2530
g3
F0.9987
tp2531
a(g42
g9
F0.9989
tp2532
asI347
(lp2533
(S'what'
p2534
g3
F0.9835
tp2535
a(S'are'
p2536
g13
F0.9978
tp2537
a(S'you'
p2538
g3
F0.9994
tp2539
a(S'eating'
p2540
g13
F1.0
tp2541
a(S'it'
p2542
g3
F0.9956
tp2543
a(S'for'
p2544
g61
F0.9945
tp2545
a(S'then'
p2546
g153
F0.9646
tp2547
a(g8
g9
F0.9967
tp2548
asI860
(lp2549
(g50
g3
F0.9975
tp2550
a(S'might'
p2551
g13
F0.9995
tp2552
a(S'have'
p2553
g13
F0.9999
tp2554
a(S'some'
p2555
g19
F0.976
tp2556
a(S'more'
p2557
g16
F0.9704
tp2558
a(S'rice'
p2559
g6
F0.996
tp2560
a(g42
g9
F0.9985
tp2561
asI1082
(lp2562
(S'wow'
p2563
g46
F0.9964
tp2564
a(g42
g9
F0.9961
tp2565
asI863
(lp2566
(S'xxx'
p2567
g28
F0.5822
tp2568
a(g42
g9
F0.9648
tp2569
asI352
(lp2570
(g605
g9
F0.9736
tp2571
a(S'be)cause'
p2572
g61
F0.9923
tp2573
a(S"it's"
p2574
g279
F0.9913
tp2575
a(S'good'
p2576
g16
F0.9963
tp2577
a(g42
g9
F0.9985
tp2578
asI1205
(lp2579
(S"I'm"
p2580
g279
F0.9967
tp2581
a(S'done'
p2582
g13
F0.9611
tp2583
a(S'now'
p2584
g153
F0.9939
tp2585
a(g50
g3
F0.9985
tp2586
a(S'can'
p2587
g13
F0.9999
tp2588
a(S'walk'
p2589
g13
F0.9759
tp2590
a(g42
g9
F0.9982
tp2591
asI867
(lp2592
(S"me's"
p2593
g6
F0.3234
tp2594
a(S'done'
p2595
g13
F0.9738
tp2596
a(g46
g9
F0.9987
tp2597
asI356
(lp2598
(g187
g187
F0.9893
tp2599
a(g645
g9
F0.8669
tp2600
a(S'laughs'
p2601
g13
F0.8696
tp2602
a(g42
g9
F0.9983
tp2603
asI357
(lp2604
(g50
g3
F0.9923
tp2605
a(S'xxx'
p2606
g13
F0.9816
tp2607
a(S'up'
p2608
g447
F0.96
tp2609
a(g42
g9
F0.9981
tp2610
asI870
(lp2611
(S"you're"
p2612
g279
F0.9953
tp2613
a(S'not'
p2614
g153
F0.9978
tp2615
a(S'done'
p2616
g13
F0.9897
tp2617
a(S'yet'
p2618
g153
F0.9655
tp2619
a(g42
g9
F0.9984
tp2620
asI1143
(lp2621
(S'and'
p2622
g187
F0.9989
tp2623
a(S'you'
p2624
g3
F0.9991
tp2625
a(S'and'
p2626
g187
F0.9925
tp2627
a(S'Adam'
p2628
g559
F0.998
tp2629
a(S'can'
p2630
g13
F0.9899
tp2631
a(S'play'
p2632
g13
F0.9987
tp2633
a(S'on'
p2634
g61
F0.9499
tp2635
a(S'there'
p2636
g153
F0.8052
tp2637
a(g42
g9
F0.9985
tp2638
asI360
(lp2639
(g50
g3
F0.9984
tp2640
a(S'know'
p2641
g13
F0.9999
tp2642
a(S'you'
p2643
g3
F0.9996
tp2644
a(S'do'
p2645
g13
F0.9985
tp2646
a(g42
g9
F0.9974
tp2647
asI873
(lp2648
(S'mhm'
p2649
g46
F0.9901
tp2650
a(g46
g9
F0.996
tp2651
asI363
(lp2652
(S'you'
p2653
g3
F0.9929
tp2654
a(S'fooling'
p2655
g13
F0.9988
tp2656
a(g42
g9
F0.9976
tp2657
asI876
(lp2658
(S'not'
p2659
g153
F0.9893
tp2660
a(S'if'
p2661
g61
F0.9988
tp2662
a(S'you'
p2663
g3
F0.9998
tp2664
a(S'want'
p2665
g13
F0.9999
tp2666
a(g32
g19
F0.9972
tp2667
a(S'popsicle'
p2668
g6
F0.9772
tp2669
a(S'later'
p2670
g153
F0.7078
tp2671
a(S"you're"
p2672
g279
F0.9944
tp2673
a(S'not'
p2674
g153
F0.9992
tp2675
a(S'done'
p2676
g13
F0.9703
tp2677
a(g42
g9
F0.999
tp2678
asI366
(lp2679
(S'mm'
p2680
g46
F0.5842
tp2681
a(g42
g9
F0.9932
tp2682
asI1085
(lp2683
(S'okay'
p2684
g46
F0.9732
tp2685
a(g8
g9
F0.9976
tp2686
asI369
(lp2687
(S'you'
p2688
g3
F0.9945
tp2689
a(S'were'
p2690
g13
F0.9982
tp2691
a(S'fooling'
p2692
g13
F0.9682
tp2693
a(g42
g9
F0.998
tp2694
asI882
(lp2695
(S'want'
p2696
g13
F0.9975
tp2697
a(S'some'
p2698
g19
F0.9518
tp2699
a(S'more'
p2700
g16
F0.9782
tp2701
a(S'rice'
p2702
g6
F0.9962
tp2703
a(g8
g9
F0.9981
tp2704
asI372
(lp2705
(S'what'
p2706
g3
F0.9171
tp2707
a(g8
g9
F0.9924
tp2708
asI830
(lp2709
(S'oh'
p2710
g46
F0.9976
tp2711
a(S"I'm"
p2712
g279
F0.996
tp2713
a(S'full'
p2714
g16
F0.9869
tp2715
a(g42
g9
F0.9984
tp2716
asI886
(lp2717
(S'xxx'
p2718
g28
F0.5822
tp2719
a(g42
g9
F0.9648
tp2720
asI887
(lp2721
(S'huh'
p2722
g46
F0.9936
tp2723
a(g8
g9
F0.9967
tp2724
asI376
(lp2725
(S'you'
p2726
g3
F0.9859
tp2727
a(g299
g9
F0.9944
tp2728
a(g46
g9
F0.9842
tp2729
a(g302
g9
F0.988
tp2730
a(S'were'
p2731
g13
F0.9951
tp2732
a(S'fooling'
p2733
g13
F0.9726
tp2734
a(g42
g9
F0.9978
tp2735
asI379
(lp2736
(g50
g3
F0.9985
tp2737
a(S'know'
p2738
g13
F0.9986
tp2739
a(g46
g9
F0.9976
tp2740
asI382
(lp2741
(S'oh'
p2742
g46
F0.9984
tp2743
a(g42
g9
F0.9938
tp2744
asI385
(lp2745
(g50
g3
F0.9983
tp2746
a(S'said'
p2747
g13
F0.9997
tp2748
a(S'that'
p2749
g3
F0.9074
tp2750
a(g42
g9
F0.9988
tp2751
asI881
(lp2752
(g187
g187
F0.9893
tp2753
a(g645
g9
F0.8613
tp2754
a(S'whines'
p2755
g13
F0.6745
tp2756
a(g42
g9
F0.9978
tp2757
asI814
(lp2758
(S'no'
p2759
g46
F0.9847
tp2760
a(g46
g9
F0.999
tp2761
asI388
(lp2762
(S'oh'
p2763
g46
F0.9984
tp2764
a(g42
g9
F0.9938
tp2765
asI902
(lp2766
(S'me'
p2767
g3
F0.9905
tp2768
a(g42
g9
F0.998
tp2769
asI391
(lp2770
(g187
g187
F0.9893
tp2771
a(g645
g9
F0.8669
tp2772
a(S'laughs'
p2773
g13
F0.8696
tp2774
a(g42
g9
F0.9983
tp2775
asI392
(lp2776
(S"you're"
p2777
g279
F0.9904
tp2778
a(S'silly'
p2779
g16
F0.9985
tp2780
a(g42
g9
F0.9985
tp2781
asI748
(lp2782
(S'no'
p2783
g46
F0.8567
tp2784
a(g50
g3
F0.9972
tp2785
a(S'got'
p2786
g13
F0.9999
tp2787
a(g32
g19
F0.9989
tp2788
a(S'little'
p2789
g16
F0.9968
tp2790
a(S'bit'
p2791
g6
F0.686
tp2792
a(S'hotter'
p2793
g16
F0.7819
tp2794
a(g299
g9
F0.9893
tp2795
a(g46
g9
F0.9901
tp2796
a(g302
g9
F0.947
tp2797
a(S'(.)'
p2798
g28
F0.365
tp2799
a(S"it's"
p2800
g279
F0.9931
tp2801
a(S'hard'
p2802
g16
F0.8685
tp2803
a(S'to'
p2804
g61
F0.9976
tp2805
a(S'[/]'
p2806
g13
F0.4598
tp2807
a(S'to'
p2808
g61
F0.9796
tp2809
a(S'hurt'
p2810
g13
F0.9997
tp2811
a(S'you'
p2812
g3
F0.9988
tp2813
a(S'under'
p2814
g61
F0.9899
tp2815
a(S'your'
p2816
g19
F0.9968
tp2817
a(S'mouth'
p2818
g6
F0.9996
tp2819
a(S'right'
p2820
g153
F0.8399
tp2821
a(S'here'
p2822
g153
F0.987
tp2823
a(g42
g9
F0.998
tp2824
asI919
(lp2825
(S'oh'
p2826
g46
F0.9981
tp2827
a(S'okay'
p2828
g46
F0.9641
tp2829
a(g42
g9
F0.998
tp2830
asI396
(lp2831
(S"you're"
p2832
g279
F0.9904
tp2833
a(S'getting'
p2834
g13
F0.999
tp2835
a(S'to'
p2836
g61
F0.9846
tp2837
a(S'be'
p2838
g13
F0.9998
tp2839
a(g32
g19
F0.9463
tp2840
a(S'pretty'
p2841
g153
F0.9245
tp2842
a(S'good'
p2843
g16
F0.9995
tp2844
a(S'swimmer'
p2845
g6
F0.998
tp2846
a(S'Chi'
p2847
g559
F0.6719
tp2848
a(g42
g9
F0.9883
tp2849
asI911
(lp2850
(S'please'
p2851
g13
F0.8591
tp2852
a(S'what'
p2853
g3
F0.9911
tp2854
a(g8
g9
F0.9924
tp2855
asI401
(lp2856
(g605
g9
F0.9736
tp2857
a(S'be)cause'
p2858
g61
F0.9967
tp2859
a(g50
g3
F0.9994
tp2860
a(S'put'
p2861
g13
F0.9997
tp2862
a(S'my'
p2863
g19
F0.999
tp2864
a(S'feet'
p2865
g6
F0.9976
tp2866
a(S'up'
p2867
g61
F0.694
tp2868
a(S'in'
p2869
g61
F0.9952
tp2870
a(S'the'
p2871
g19
F0.9993
tp2872
a(S'air'
p2873
g6
F0.9871
tp2874
a(g8
g9
F0.9971
tp2875
asI915
(lp2876
(S'can'
p2877
g13
F0.9938
tp2878
a(g50
g3
F0.9994
tp2879
a(S'have'
p2880
g13
F0.9999
tp2881
a(S'some'
p2882
g19
F0.976
tp2883
a(S'more'
p2884
g16
F0.9704
tp2885
a(S'rice'
p2886
g6
F0.9938
tp2887
a(g8
g9
F0.9976
tp2888
asI407
(lp2889
(S'is'
p2890
g13
F0.9981
tp2891
a(S'that'
p2892
g3
F0.9448
tp2893
a(g605
g9
F0.9913
tp2894
a(S'be)cause'
p2895
g61
F0.9977
tp2896
a(S'you'
p2897
g3
F0.9997
tp2898
a(S'can'
p2899
g13
F1.0
tp2900
a(S'your'
p2901
g19
F0.9938
tp2902
a(S'face'
p2903
g6
F0.999
tp2904
a(S'under'
p2905
g61
F0.9998
tp2906
a(S'the'
p2907
g19
F0.9994
tp2908
a(S'water'
p2909
g6
F0.9961
tp2910
a(g8
g9
F0.9963
tp2911
asI922
(lp2912
(S'well'
p2913
g46
F0.741
tp2914
a(S'you'
p2915
g3
F0.9975
tp2916
a(S'Ohave'
p2917
g559
F0.4513
tp2918
a(S'gotta'
p2919
g13
F0.9856
tp2920
a(S'talk'
p2921
g13
F0.984
tp2922
a(g50
g3
F0.9992
tp2923
a(S"don't"
p2924
g13
F1.0
tp2925
a(S'understand'
p2926
g13
F0.9989
tp2927
a(S'+/'
p2928
g559
F0.219
tp2929
a(g42
g9
F0.9934
tp2930
asI1007
(lp2931
(S'find'
p2932
g13
F0.9802
tp2933
a(S'one'
p2934
g794
F0.8703
tp2935
a(g42
g9
F0.9975
tp2936
asI1224
(lp2937
(g187
g187
F0.9893
tp2938
a(g645
g9
F0.8669
tp2939
a(S'laughs'
p2940
g13
F0.8696
tp2941
a(g42
g9
F0.9983
tp2942
asI413
(lp2943
(S'you'
p2944
g3
F0.9969
tp2945
a(S'can'
p2946
g13
F0.9999
tp2947
a(S'do'
p2948
g13
F0.9999
tp2949
a(S'the'
p2950
g19
F0.9991
tp2951
a(S'doggie'
p2952
g6
F0.9717
tp2953
a(S'paddle'
p2954
g6
F0.9487
tp2955
a(g224
g225
F0.6933
tp2956
a(S'with'
p2957
g61
F0.9992
tp2958
a(S'your'
p2959
g19
F0.8415
tp2960
a(g187
g187
F0.987
tp2961
a(S'l'
p2962
g6
F0.576
tp2963
a(g991
g309
F0.4334
tp2964
a(S'[//]'
p2965
g309
F0.2602
tp2966
a(S'with'
p2967
g61
F0.9986
tp2968
a(S'your'
p2969
g19
F0.9604
tp2970
a(S'&-um'
p2971
g309
F0.8243
tp2972
a(S'(.)'
p2973
g309
F0.4211
tp2974
a(S'life'
p2975
g6
F0.9323
tp2976
a(S'jacket'
p2977
g6
F0.957
tp2978
a(S'on'
p2979
g61
F0.9749
tp2980
a(g42
g9
F0.9946
tp2981
asI927
(lp2982
(g50
g3
F0.9983
tp2983
a(S'was'
p2984
g13
F0.9997
tp2985
a(g46
g9
F0.9976
tp2986
asI418
(lp2987
(S'because'
p2988
g61
F0.9961
tp2989
a(g50
g3
F0.9997
tp2990
a(S'know'
p2991
g13
F0.9995
tp2992
a(S'how'
p2993
g153
F0.9937
tp2994
a(S'to'
p2995
g61
F0.996
tp2996
a(S'put'
p2997
g13
F0.996
tp2998
a(S'on'
p2999
g61
F0.8958
tp3000
a(S'my'
p3001
g19
F0.9983
tp3002
a(S'seat'
p3003
g6
F0.996
tp3004
a(S'up'
p3005
g61
F0.6067
tp3006
a(S'in'
p3007
g61
F0.9952
tp3008
a(S'the'
p3009
g19
F0.9926
tp3010
a(S'xxx'
p3011
g6
F0.5874
tp3012
a(S'like'
p3013
g61
F0.8445
tp3014
a(S'xxx'
p3015
g6
F0.3119
tp3016
a(S'does'
p3017
g13
F0.9842
tp3018
a(g8
g9
F0.9973
tp3019
asI933
(lp3020
(S'oh'
p3021
g46
F0.9984
tp3022
a(g42
g9
F0.9938
tp3023
asI424
(lp3024
(S'mhm'
p3025
g46
F0.9562
tp3026
a(S'yep'
p3027
g46
F0.9977
tp3028
a(g42
g9
F0.9977
tp3029
asI1071
(lp3030
(S'and'
p3031
g187
F0.9981
tp3032
a(S'purple'
p3033
g16
F0.9449
tp3034
a(S'too'
p3035
g153
F0.9656
tp3036
a(g42
g9
F0.9973
tp3037
asI939
(lp3038
(g50
g3
F0.9978
tp3039
a(S'wanted'
p3040
g13
F0.9997
tp3041
a(S'it'
p3042
g3
F0.9823
tp3043
a(S'xxx'
p3044
g28
F0.4179
tp3045
a(g42
g9
F0.9688
tp3046
asI428
(lp3047
(S'how'
p3048
g153
F0.9856
tp3049
a(S'old'
p3050
g16
F0.9955
tp3051
a(S'me'
p3052
g3
F0.9784
tp3053
a(g8
g9
F0.9984
tp3054
asI1010
(lp3055
(S'okay'
p3056
g46
F0.9732
tp3057
a(g8
g9
F0.9976
tp3058
asI942
(lp3059
(S'still'
p3060
g153
F0.9914
tp3061
a(S'got'
p3062
g13
F0.9989
tp3063
a(S'the'
p3064
g19
F0.9995
tp3065
a(S'chicken'
p3066
g6
F0.8947
tp3067
a(S'there'
p3068
g153
F0.7524
tp3069
a(S'Chi'
p3070
g559
F0.936
tp3071
a(g42
g9
F0.9884
tp3072
asI432
(lp3073
(S'four'
p3074
g794
F0.8064
tp3075
a(g42
g9
F0.9969
tp3076
asI840
(lp3077
(S'you'
p3078
g3
F0.997
tp3079
a(S'eat'
p3080
g13
F0.9996
tp3081
a(S'all'
p3082
g19
F0.8542
tp3083
a(S'your'
p3084
g19
F0.9869
tp3085
a(S'dinner'
p3086
g6
F0.996
tp3087
a(S'all'
p3088
g19
F0.4334
tp3089
a(S'your'
p3090
g19
F0.986
tp3091
a(S'chicken'
p3092
g6
F0.9779
tp3093
a(S'right'
p3094
g153
F0.8914
tp3095
a(S'now'
p3096
g153
F0.993
tp3097
a(S'(.)'
p3098
g9
F0.2546
tp3099
a(S'and'
p3100
g187
F0.9987
tp3101
a(g224
g225
F0.8491
tp3102
a(S"I'll>"
p3103
g279
F0.9822
tp3104
a(S'[/]'
p3105
g9
F0.2459
tp3106
a(S"I'll"
p3107
g279
F0.9826
tp3108
a(S'give'
p3109
g13
F0.9999
tp3110
a(S'you'
p3111
g3
F0.9963
tp3112
a(g32
g19
F0.9726
tp3113
a(S'[//]'
p3114
g9
F0.2618
tp3115
a(S'&-um'
p3116
g46
F0.478
tp3117
a(S'popsicle'
p3118
g6
F0.7248
tp3119
a(g42
g9
F0.998
tp3120
asI435
(lp3121
(S'no'
p3122
g46
F0.8567
tp3123
a(g50
g3
F0.9973
tp3124
a(S'had'
p3125
g13
F1.0
tp3126
a(g32
g19
F0.9984
tp3127
a(S'birthday'
p3128
g6
F0.9979
tp3129
a(S'party'
p3130
g6
F0.9935
tp3131
a(S'so'
p3132
g61
F0.9574
tp3133
a(S"I'm"
p3134
g279
F0.9959
tp3135
a(S'different'
p3136
g16
F0.9943
tp3137
a(g42
g9
F0.9986
tp3138
asI948
(lp3139
(S'xxx'
p3140
g28
F0.5822
tp3141
a(g42
g9
F0.9648
tp3142
asI949
(lp3143
(S"you're"
p3144
g279
F0.9892
tp3145
a(S'bad'
p3146
g16
F0.9943
tp3147
a(g42
g9
F0.9977
tp3148
asI1097
(lp3149
(S'alright'
p3150
g46
F0.9793
tp3151
a(g42
g9
F0.9973
tp3152
asI440
(lp3153
(S'no'
p3154
g46
F0.9704
tp3155
a(g42
g9
F0.9989
tp3156
asI443
(lp3157
(g224
g225
F0.9001
tp3158
a(S'you'
p3159
g3
F0.995
tp3160
a(S'were'
p3161
g13
F0.9969
tp3162
a(g991
g28
F0.5278
tp3163
a(g299
g28
F0.5345
tp3164
a(g991
g28
F0.9532
tp3165
a(g302
g9
F0.7021
tp3166
a(S'+/'
p3167
g559
F0.1842
tp3168
a(g42
g9
F0.9959
tp3169
asI956
(lp3170
(S'it'
p3171
g3
F0.9961
tp3172
a(S'hurts'
p3173
g13
F0.9996
tp3174
a(S'my'
p3175
g19
F0.998
tp3176
a(S'feelings'
p3177
g6
F0.9984
tp3178
a(g42
g9
F0.9985
tp3179
asI446
(lp3180
(S'yeah'
p3181
g46
F0.9951
tp3182
a(g299
g9
F0.9843
tp3183
a(g224
g225
F0.9843
tp3184
a(g302
g9
F0.9845
tp3185
a(S'+/'
p3186
g559
F0.1813
tp3187
a(g42
g9
F0.9914
tp3188
asI959
(lp3189
(g187
g187
F0.9893
tp3190
a(g645
g9
F0.8669
tp3191
a(S'laughs'
p3192
g13
F0.8696
tp3193
a(g42
g9
F0.9983
tp3194
asI960
(lp3195
(g50
g3
F0.9962
tp3196
a(S'just'
p3197
g153
F0.9987
tp3198
a(S'was'
p3199
g13
F0.9992
tp3200
a(S'fooling'
p3201
g13
F0.9592
tp3202
a(g42
g9
F0.998
tp3203
asI449
(lp3204
(S'you'
p3205
g3
F0.9945
tp3206
a(S'were'
p3207
g13
F0.995
tp3208
a(S'three'
p3209
g794
F0.8497
tp3210
a(S'before'
p3211
g61
F0.997
tp3212
a(S'the'
p3213
g19
F0.9995
tp3214
a(S'birthday'
p3215
g6
F0.995
tp3216
a(S'and'
p3217
g187
F0.9977
tp3218
a(S'then'
p3219
g153
F0.9839
tp3220
a(S'you'
p3221
g3
F0.9995
tp3222
a(S'turned'
p3223
g13
F0.994
tp3224
a(S'four'
p3225
g794
F0.593
tp3226
a(g42
g9
F0.9957
tp3227
asI765
(lp3228
(S'uhhuh'
p3229
g46
F0.9881
tp3230
a(g42
g9
F0.997
tp3231
asI758
(lp3232
(g50
g3
F0.9983
tp3233
a(S'hurt'
p3234
g13
F0.9997
tp3235
a(S'my'
p3236
g19
F0.9984
tp3237
a(S'nose'
p3238
g6
F0.9992
tp3239
a(S'too'
p3240
g153
F0.9716
tp3241
a(g42
g9
F0.9964
tp3242
asI966
(lp3243
(S'are'
p3244
g13
F0.9964
tp3245
a(S'you'
p3246
g3
F0.9995
tp3247
a(S'tired'
p3248
g16
F0.7657
tp3249
a(g8
g9
F0.9969
tp3250
asI455
(lp3251
(S'you'
p3252
g3
F0.9983
tp3253
a(S'know'
p3254
g13
F0.9995
tp3255
a(S'that'
p3256
g3
F0.9262
tp3257
a(g42
g9
F0.9988
tp3258
asI458
(lp3259
(g224
g225
F0.9526
tp3260
a(g50
g3
F0.9967
tp3261
a(g991
g225
F0.2694
tp3262
a(S'[//]'
p3263
g9
F0.3808
tp3264
a(S"I'm"
p3265
g279
F0.986
tp3266
a(S'this'
p3267
g19
F0.5639
tp3268
a(S'much'
p3269
g16
F0.5047
tp3270
a(S'now'
p3271
g153
F0.9684
tp3272
a(g605
g9
F0.9929
tp3273
a(S'be)cause'
p3274
g61
F0.9964
tp3275
a(g50
g3
F0.9985
tp3276
a(S'+/'
p3277
g13
F0.4758
tp3278
a(g42
g9
F0.9965
tp3279
asI930
(lp3280
(S'you'
p3281
g3
F0.997
tp3282
a(S"didn't"
p3283
g13
F1.0
tp3284
a(S'hear'
p3285
g13
F0.9994
tp3286
a(S'me'
p3287
g3
F0.9979
tp3288
a(S'though'
p3289
g153
F0.7904
tp3290
a(g42
g9
F0.9974
tp3291
asI462
(lp3292
(S"you're"
p3293
g279
F0.9786
tp3294
a(S'four'
p3295
g794
F0.7083
tp3296
a(g42
g9
F0.9972
tp3297
asI970
(lp3298
(S'can'
p3299
g13
F0.9938
tp3300
a(g50
g3
F0.9994
tp3301
a(S'have'
p3302
g13
F0.9993
tp3303
a(S'green'
p3304
g16
F0.9676
tp3305
a(S'(.)'
p3306
g559
F0.2196
tp3307
a(S'popsicle'
p3308
g559
F0.8645
tp3309
a(g8
g9
F0.9967
tp3310
asI465
(lp3311
(S'no'
p3312
g46
F0.8567
tp3313
a(g50
g3
F0.9945
tp3314
a(S'just'
p3315
g153
F0.9993
tp3316
a(S'turned'
p3317
g13
F0.9813
tp3318
a(g299
g9
F0.9892
tp3319
a(g46
g9
F0.9901
tp3320
a(g302
g9
F0.9806
tp3321
a(S'this'
p3322
g19
F0.9741
tp3323
a(S'month'
p3324
g6
F0.9989
tp3325
a(g42
g9
F0.9985
tp3326
asI468
(lp3327
(S'no'
p3328
g46
F0.7755
tp3329
a(S'your'
p3330
g19
F0.9496
tp3331
a(S'next'
p3332
g16
F0.8588
tp3333
a(S'birthday'
p3334
g6
F0.9991
tp3335
a(g299
g9
F0.9856
tp3336
a(g46
g9
F0.9901
tp3337
a(g302
g9
F0.9907
tp3338
a(S"you'll"
p3339
g279
F0.9818
tp3340
a(S'be'
p3341
g13
F0.9985
tp3342
a(S'five'
p3343
g794
F0.3579
tp3344
a(g42
g9
F0.9975
tp3345
asI981
(lp3346
(g50
g3
F0.9983
tp3347
a(S'said'
p3348
g13
F0.9979
tp3349
a(g299
g9
F0.9725
tp3350
a(g46
g9
F0.9922
tp3351
a(g302
g9
F0.9805
tp3352
a(S'see'
p3353
g13
F0.9962
tp3354
a(S'the'
p3355
g19
F0.9993
tp3356
a(S'green'
p3357
g16
F0.9774
tp3358
a(S'popsicle'
p3359
g6
F0.9874
tp3360
a(g42
g9
F0.9987
tp3361
asI761
(lp3362
(S'you'
p3363
g3
F0.999
tp3364
a(S'did'
p3365
g13
F0.9977
tp3366
a(g187
g187
F0.9851
tp3367
a(g645
g9
F0.9113
tp3368
a(S'laughing'
p3369
g13
F0.9054
tp3370
a(g8
g9
F0.9986
tp3371
asI984
(lp3372
(S"you're"
p3373
g279
F0.9895
tp3374
a(S'funny'
p3375
g16
F0.9997
tp3376
a(g42
g9
F0.9984
tp3377
asI473
(lp3378
(S'listen'
p3379
g13
F0.9675
tp3380
a(g299
g9
F0.9892
tp3381
a(g46
g9
F0.9842
tp3382
a(g302
g9
F0.9795
tp3383
a(S'to'
p3384
g61
F0.9828
tp3385
a(S'me'
p3386
g3
F0.9971
tp3387
a(g46
g9
F0.9986
tp3388
asI847
(lp3389
(g50
g3
F0.9976
tp3390
a(S"can't"
p3391
g13
F1.0
tp3392
a(S'do'
p3393
g13
F0.9999
tp3394
a(S'this'
p3395
g3
F0.9251
tp3396
a(g42
g9
F0.9987
tp3397
asI476
(lp3398
(S'listen'
p3399
g13
F0.9966
tp3400
a(S'to'
p3401
g61
F0.9468
tp3402
a(g299
g9
F0.9459
tp3403
a(g46
g9
F0.9922
tp3404
a(g302
g9
F0.9853
tp3405
a(S'me'
p3406
g3
F0.9919
tp3407
a(g42
g9
F0.9983
tp3408
asI817
(lp3409
(S'oh'
p3410
g46
F0.9984
tp3411
a(g42
g9
F0.9938
tp3412
asI991
(lp3413
(S"you're"
p3414
g279
F0.9895
tp3415
a(S'funny'
p3416
g16
F0.9997
tp3417
a(g42
g9
F0.9984
tp3418
asI480
(lp3419
(g50
g3
F0.9976
tp3420
a(S'wanna'
p3421
g13
F0.9994
tp3422
a(S'be'
p3423
g13
F0.9986
tp3424
a(S'five'
p3425
g794
F0.3494
tp3426
a(g605
g9
F0.9882
tp3427
a(S'be)cause'
p3428
g61
F0.9964
tp3429
a(g50
g3
F0.9992
tp3430
a(S'just'
p3431
g153
F0.9992
tp3432
a(S'had'
p3433
g13
F0.9997
tp3434
a(g32
g19
F0.9982
tp3435
a(S'birthday'
p3436
g6
F0.9988
tp3437
a(g42
g9
F0.9974
tp3438
asI1104
(lp3439
(S'mhm'
p3440
g46
F0.9761
tp3441
a(g42
g9
F0.9962
tp3442
asI995
(lp3443
(g50
g3
F0.9983
tp3444
a(S'want'
p3445
g13
F1.0
tp3446
a(S'some'
p3447
g19
F0.9806
tp3448
a(S'green'
p3449
g16
F0.969
tp3450
a(g42
g9
F0.9984
tp3451
asI485
(lp3452
(S'no'
p3453
g46
F0.6739
tp3454
a(g187
g187
F0.9865
tp3455
a(g645
g9
F0.8844
tp3456
a(S'laughing'
p3457
g13
F0.8096
tp3458
a(g42
g9
F0.999
tp3459
asI998
(lp3460
(S"there's"
p3461
S'Y'
p3462
F0.4602
tp3463
a(S'no'
p3464
g19
F0.924
tp3465
a(S'green'
p3466
g16
F0.7069
tp3467
a(S'popsicle'
p3468
g6
F0.984
tp3469
a(g42
g9
F0.9988
tp3470
asI1001
(lp3471
(S'how'
p3472
g153
F0.9703
tp3473
a(S'do'
p3474
g13
F0.9987
tp3475
a(S'you'
p3476
g3
F0.9998
tp3477
a(S'know'
p3478
g13
F0.9914
tp3479
a(g8
g9
F0.998
tp3480
asI490
(lp3481
(S'what'
p3482
g3
F0.9931
tp3483
a(S'do'
p3484
g13
F0.9993
tp3485
a(S'you'
p3486
g3
F0.9997
tp3487
a(S'mean'
p3488
g13
F0.782
tp3489
a(S'one'
p3490
g794
F0.9201
tp3491
a(g299
g9
F0.9811
tp3492
a(g46
g9
F0.9901
tp3493
a(g302
g9
F0.9771
tp3494
a(g50
g3
F0.9943
tp3495
a(S'just'
p3496
g153
F0.9992
tp3497
a(S'xxx'
p3498
g28
F0.7752
tp3499
a(g299
g9
F0.7575
tp3500
a(g46
g9
F0.9901
tp3501
a(g302
g9
F0.9465
tp3502
a(S'five'
p3503
g794
F0.6299
tp3504
a(g42
g9
F0.9981
tp3505
asI679
(lp3506
(S'when'
p3507
g153
F0.9601
tp3508
a(S'they'
p3509
g3
F0.9842
tp3510
a(g299
g9
F0.961
tp3511
a(g46
g9
F0.9922
tp3512
a(g302
g9
F0.9842
tp3513
a(S'were'
p3514
g13
F0.9935
tp3515
a(S'on'
p3516
g61
F0.9915
tp3517
a(S'the'
p3518
g19
F0.9989
tp3519
a(S'swing'
p3520
g6
F0.9572
tp3521
a(S'they'
p3522
g3
F0.9876
tp3523
a(S'pushed'
p3524
g13
F0.9999
tp3525
a(S'me'
p3526
g3
F0.948
tp3527
a(S'one'
p3528
g794
F0.9617
tp3529
a(S'time'
p3530
g6
F0.9986
tp3531
a(g42
g9
F0.998
tp3532
asI850
(lp3533
(S'well'
p3534
g46
F0.6831
tp3535
a(S"don't"
p3536
g13
F0.9984
tp3537
a(S'worry'
p3538
g13
F0.9998
tp3539
a(S'about'
p3540
g61
F0.9913
tp3541
a(S'it'
p3542
g3
F0.9971
tp3543
a(S'Chi'
p3544
g559
F0.8694
tp3545
a(S"I'll"
p3546
g279
F0.8964
tp3547
a(S'fix'
p3548
g13
F0.9997
tp3549
a(S'it'
p3550
g3
F0.9896
tp3551
a(S'when'
p3552
g153
F0.9885
tp3553
a(S'you'
p3554
g3
F0.9986
tp3555
a(S'get'
p3556
g13
F1.0
tp3557
a(S'up'
p3558
g447
F0.9704
tp3559
a(g42
g9
F0.9988
tp3560
asI495
(lp3561
(S'oh'
p3562
g46
F0.9981
tp3563
a(S'okay'
p3564
g46
F0.9641
tp3565
a(g42
g9
F0.998
tp3566
asI936
(lp3567
(S"that's"
p3568
g279
F0.9857
tp3569
a(S'it'
p3570
g3
F0.9948
tp3571
a(g42
g9
F0.9987
tp3572
asI498
(lp3573
(g224
g225
F0.8848
tp3574
a(S'(be)cause'
p3575
g61
F0.996
tp3576
a(g50
g3
F0.9996
tp3577
a(S'know'
p3578
g13
F0.9996
tp3579
a(S'to'
p3580
g61
F0.9827
tp3581
a(g991
g309
F0.3683
tp3582
a(S'[/]'
p3583
g309
F0.3114
tp3584
a(g605
g9
F0.9691
tp3585
a(S'be)cause'
p3586
g61
F0.9964
tp3587
a(g50
g3
F0.9996
tp3588
a(S'know'
p3589
g13
F0.9995
tp3590
a(S'how'
p3591
g153
F0.9928
tp3592
a(S'to'
p3593
g61
F0.996
tp3594
a(S'pull'
p3595
g13
F0.9992
tp3596
a(S'my'
p3597
g19
F0.999
tp3598
a(S'seat'
p3599
g6
F0.996
tp3600
a(S'up'
p3601
g61
F0.6067
tp3602
a(S'in'
p3603
g61
F0.9952
tp3604
a(S'the'
p3605
g19
F0.9991
tp3606
a(S'car'
p3607
g6
F0.9981
tp3608
a(g42
g9
F0.997
tp3609
asI1257
(lp3610
(S'alright'
p3611
g46
F0.9792
tp3612
a(g8
g9
F0.9969
tp3613
asI1014
(lp3614
(S"I'll"
p3615
g279
F0.9868
tp3616
a(S'try'
p3617
g13
F0.9884
tp3618
a(g42
g9
F0.9979
tp3619
asI503
(lp3620
(S'okay'
p3621
g46
F0.9741
tp3622
a(g42
g9
F0.9977
tp3623
asI1017
(lp3624
(g224
g225
F0.8848
tp3625
a(S'(be)cause'
p3626
g61
F0.996
tp3627
a(g50
g3
F0.9991
tp3628
a(g991
g13
F0.2842
tp3629
a(S'[//]'
p3630
g9
F0.4272
tp3631
a(S'because'
p3632
g61
F0.9843
tp3633
a(S'please'
p3634
g13
F0.9177
tp3635
a(S'xxx'
p3636
g28
F0.3567
tp3637
a(g42
g9
F0.9769
tp3638
asI507
(lp3639
(S"you're"
p3640
g279
F0.9928
tp3641
a(S'just'
p3642
g153
F0.9994
tp3643
a(S'pretending'
p3644
g13
F0.997
tp3645
a(g42
g9
F0.9986
tp3646
asI1020
(lp3647
(g50
g3
F0.9976
tp3648
a(S"don't"
p3649
g13
F1.0
tp3650
a(S'know'
p3651
g13
F0.9986
tp3652
a(g42
g9
F0.9981
tp3653
asI510
(lp3654
(S'(..)'
p3655
g28
F0.3437
tp3656
a(S'the'
p3657
g19
F0.9981
tp3658
a(S'pea'
p3659
g6
F0.9845
tp3660
a(S'soup'
p3661
g6
F0.996
tp3662
a(S'was'
p3663
g13
F0.9903
tp3664
a(S'finished'
p3665
g13
F0.9506
tp3666
a(g42
g9
F0.9973
tp3667
asI597
(lp3668
(S'is'
p3669
g13
F0.9993
tp3670
a(S'me'
p3671
g3
F0.9996
tp3672
a(S'gonna'
p3673
g13
F0.9944
tp3674
a(S'get'
p3675
g13
F0.9995
tp3676
a(S'big'
p3677
g16
F0.9826
tp3678
a(S'and'
p3679
g187
F0.9979
tp3680
a(S'strong'
p3681
g16
F0.9726
tp3682
a(g605
g9
F0.9937
tp3683
a(S'be)cause'
p3684
g61
F0.9964
tp3685
a(g50
g3
F0.9994
tp3686
a(S'eat'
p3687
g13
F0.9983
tp3688
a(S'special'
p3689
g16
F0.9877
tp3690
a(S'vitamins'
p3691
g6
F0.9985
tp3692
a(g8
g9
F0.9991
tp3693
as.