(dp0
I0
(lp1
(S'get'
p2
S'V'
p3
F0.9991
tp4
a(S'up'
p5
S'T'
p6
F0.9347
tp7
a(S'to'
p8
S'P'
p9
F0.9989
tp10
a(S'the'
p11
S'D'
p12
F0.9991
tp13
a(S'table'
p14
S'N'
p15
F0.989
tp16
a(S'and'
p17
S'&'
p18
F0.9959
tp19
a(S'eat'
p20
g3
F0.9648
tp21
a(S'breakfast'
p22
g15
F0.9552
tp23
asI1
(lp24
(S'what'
p25
S'O'
p26
F0.9784
tp27
a(S's'
p28
g3
F0.4836
tp29
a(S'that'
p30
g12
F0.7566
tp31
a(S'recorder'
p32
g15
F0.998
tp33
a(S'for'
p34
g9
F0.9981
tp35
asI2
(lp36
(S'it'
p37
g26
F0.9858
tp38
a(g28
g3
F0.6905
tp39
a(S'recording'
p40
g3
F0.9714
tp41
asI3
(lp42
(S'right'
p43
S'R'
p44
F0.7278
tp45
a(S'now'
p46
g44
F0.9839
tp47
asI4
(lp48
(S'mhm'
p49
S'!'
p50
F0.9747
tp51
asI5
(lp52
(S'okay'
p53
g50
F0.909
tp54
a(S'singing'
p55
g3
F0.9925
tp56
asI6
(lp57
(S'so'
p58
g9
F0.7418
tp59
a(S'what'
p60
g26
F0.9955
tp61
a(S'are'
p62
g3
F0.9982
tp63
a(S'you'
p64
g26
F0.9994
tp65
a(S'gonna'
p66
g3
F0.9998
tp67
a(S'do'
p68
g3
F0.9998
tp69
a(S'in'
p70
g9
F0.9535
tp71
a(S'school'
p72
g15
F0.9975
tp73
a(S'today'
p74
g15
F0.9958
tp75
asI7
(lp76
(S'i'
p77
g26
F0.9519
tp78
a(S'xxx'
p79
g3
F0.7318
tp80
a(S'we'
p81
g26
F0.9977
tp82
a(S'goin'
p83
g3
F0.9992
tp84
a(S'g'
p85
g3
F0.4784
tp86
a(S'to'
p87
g9
F0.9939
tp88
a(S'a'
p89
g12
F0.9955
tp90
a(S'park'
p91
g15
F0.9507
tp92
asI8
(lp93
(S'right'
p94
g50
F0.861
tp95
asI9
(lp96
(S'mhm'
p97
g50
F0.9747
tp98
asI10
(lp99
(S'and'
p100
g18
F0.9989
tp101
a(S'you'
p102
g26
F0.9996
tp103
a(S'know'
p104
g3
F0.9988
tp105
a(S'what'
p106
g26
F0.9912
tp107
a(S'else'
p108
g44
F0.9154
tp109
asI11
(lp110
(S'we'
p111
g26
F0.9849
tp112
a(S're'
p113
g3
F0.6677
tp114
a(S'goin'
p115
g3
F0.986
tp116
a(g85
g9
F0.2688
tp117
a(S'shoppin'
p118
g15
F0.2667
tp119
a(g85
g15
F0.4684
tp120
asI12
(lp121
(S'shoppin'
p122
g15
F0.3637
tp123
a(g85
g15
F0.4852
tp124
asI13
(lp125
(S'yup'
p126
g50
F0.9978
tp127
asI14
(lp128
(S'sure'
p129
S'A'
p130
F0.8345
tp131
asI15
(lp132
(S'xxx'
p133
S'E'
p134
F0.5437
tp135
a(S'my'
p136
g12
F0.9944
tp137
a(S'friends'
p138
g15
F0.9947
tp139
asI16
(lp140
(S'mm'
p141
g50
F0.627
tp142
asI17
(lp143
(S'goin'
p144
g3
F0.9752
tp145
a(g85
g9
F0.2544
tp146
a(S'shoppin'
p147
g15
F0.3297
tp148
a(g85
g15
F0.6407
tp149
a(S'with'
p150
g9
F0.9961
tp151
a(S'xxx'
p152
g134
F0.7316
tp153
asI18
(lp154
(S'you'
p155
g26
F0.9969
tp156
a(S'can'
p157
g3
F0.9998
tp158
a(S'give'
p159
g3
F0.9999
tp160
a(S'me'
p161
g26
F0.997
tp162
a(S'it'
p163
g26
F0.933
tp164
asI19
(lp165
(S'just'
p166
g44
F0.9997
tp167
a(S'about'
p168
g9
F0.8953
tp169
a(S'fifteen'
p170
S'$'
p171
F0.8152
tp172
a(S'minutes'
p173
g15
F0.9936
tp174
asI20
(lp175
(S'two'
p176
g171
F0.9651
tp177
a(S'mommy'
p178
g15
F0.8779
tp179
asI21
(lp180
(S'what'
p181
g26
F0.949
tp182
asI22
(lp183
(S'are'
p184
g3
F0.9964
tp185
a(S'you'
p186
g26
F0.9995
tp187
a(S'going'
p188
g3
F0.9999
tp189
a(S'down'
p190
g6
F0.5254
tp191
a(S'to'
p192
g9
F0.9986
tp193
a(S'the'
p194
g12
F0.9987
tp195
a(S'garage'
p196
g15
F0.9905
tp197
asI23
(lp198
(S'xxx'
p199
g134
F0.8437
tp200
asI24
(lp201
(S'really'
p202
g44
F0.9938
tp203
asI25
(lp204
(S'gasp'
p205
g3
F0.4874
tp206
asI26
(lp207
(S'you'
p208
g26
F0.9923
tp209
a(S'proud'
p210
g130
F0.991
tp211
a(S'of'
p212
g9
F0.9975
tp213
a(S'me'
p214
g26
F0.9981
tp215
asI27
(lp216
(g77
g26
F0.953
tp217
a(S'm'
p218
g3
F0.9874
tp219
a(S'proud'
p220
g130
F0.9731
tp221
a(S'o'
p222
g9
F0.9009
tp223
a(S'f'
p224
g3
F0.4474
tp225
a(S'you'
p226
g26
F0.9973
tp227
asI28
(lp228
(S'stephen'
p229
S'^'
p230
F0.9868
tp231
a(S'you'
p232
g26
F0.9938
tp233
a(S'proud'
p234
g130
F0.9697
tp235
a(S'of'
p236
g9
F0.9987
tp237
a(S'me'
p238
g26
F0.999
tp239
a(S'because'
p240
g9
F0.9948
tp241
a(S'you'
p242
g26
F0.9998
tp243
a(S'going'
p244
g3
F0.9997
tp245
a(S'to'
p246
g9
F0.9782
tp247
a(S'school'
p248
g15
F0.9005
tp249
a(S'today'
p250
g15
F0.9972
tp251
asI29
(lp252
(S'you'
p253
g26
F0.9979
tp254
a(S'going'
p255
g3
F0.9992
tp256
a(S'to'
p257
g9
F0.9623
tp258
a(S'school'
p259
g15
F0.9627
tp260
asI30
(lp261
(S'and'
p262
g18
F0.9989
tp263
a(S'you'
p264
g26
F0.9994
tp265
a(S'can'
p266
g3
F0.9996
tp267
a(S'go'
p268
g3
F0.9993
tp269
a(S'to'
p270
g9
F0.9871
tp271
a(S'school'
p272
g15
F0.9378
tp273
a(S'tomorrow'
p274
g15
F0.9308
tp275
a(S'and'
p276
g18
F0.9951
tp277
a(S'you'
p278
g26
F0.9993
tp279
a(S'get'
p280
g3
F0.9996
tp281
a(S'bigger'
p282
g130
F0.9892
tp283
a(S'too'
p284
g44
F0.8747
tp285
asI31
(lp286
(S'go'
p287
g3
F0.9861
tp288
a(S'to'
p289
g9
F0.9978
tp290
a(S'my'
p291
g12
F0.9926
tp292
a(S'school'
p293
g15
F0.9987
tp294
a(S'right'
p295
g44
F0.4129
tp296
asI32
(lp297
(S'mhm'
p298
g50
F0.9747
tp299
asI33
(lp300
(S'and'
p301
g18
F0.9987
tp302
a(S'not'
p303
g44
F0.9838
tp304
a(S'my'
p305
g12
F0.993
tp306
a(S'old'
p307
g130
F0.9993
tp308
a(S'school'
p309
g15
F0.9961
tp310
asI34
(lp311
(S'mhm'
p312
g50
F0.9747
tp313
asI35
(lp314
(S'me'
p315
g26
F0.9975
tp316
a(S'not'
p317
g44
F0.9985
tp318
a(S'go'
p319
g3
F0.996
tp320
a(S'to'
p321
g9
F0.9972
tp322
a(S'my'
p323
g12
F0.9967
tp324
a(S'old'
p325
g130
F0.9992
tp326
a(S'school'
p327
g15
F0.9959
tp328
a(S'xxx'
p329
g134
F0.7553
tp330
asI36
(lp331
(S'you'
p332
g26
F0.9983
tp333
a(S'know'
p334
g3
F0.9999
tp335
a(S'your'
p336
g12
F0.9103
tp337
a(S'bus'
p338
g15
F0.9813
tp339
a(S'driver'
p340
g15
F0.9978
tp341
a(g28
S'G'
p342
F0.7148
tp343
a(S'name'
p344
g15
F0.9953
tp345
a(S'is'
p346
g3
F0.9948
tp347
a(S'miss'
p348
g3
F0.8257
tp349
a(S'paula'
p350
g230
F0.986
tp351
asI37
(lp352
(S'mhm'
p353
g50
F0.9747
tp354
asI38
(lp355
(g77
g26
F0.9912
tp356
a(S'learned'
p357
g3
F0.9999
tp358
a(S'my'
p359
g12
F0.9981
tp360
a(S'friend'
p361
g15
F0.9908
tp362
a(g28
g342
F0.7242
tp363
a(S'name'
p364
g15
F0.9852
tp365
asI39
(lp366
(g77
g26
F0.9908
tp367
a(S'know'
p368
g3
F0.9998
tp369
a(S'we'
p370
g26
F0.9986
tp371
a(S'gonna'
p372
g3
F0.9998
tp373
a(S'wait'
p374
g3
F0.9984
tp375
asI40
(lp376
(S'xxx'
p377
g134
F0.8437
tp378
asI41
(lp379
(S'what'
p380
g26
F0.949
tp381
asI42
(lp382
(S'mom'
p383
g15
F0.8909
tp384
a(g77
g26
F0.8068
tp385
a(g218
g3
F0.9644
tp386
a(S'gonna'
p387
g3
F0.992
tp388
a(S'call'
p389
g3
F0.9996
tp390
a(S'him'
p391
g26
F0.9876
tp392
asI43
(lp393
(S'you'
p394
g26
F0.9983
tp395
a(S'know'
p396
g3
F0.9999
tp397
a(S'me'
p398
g26
F0.9994
tp399
a(S'have'
p400
g3
F0.9832
tp401
a(S'boys'
p402
g15
F0.9992
tp403
a(S'in'
p404
g9
F0.9984
tp405
a(S'my'
p406
g12
F0.9964
tp407
a(S'class'
p408
g15
F0.9985
tp409
asI44
(lp410
(S'yeah'
p411
g50
F0.9988
tp412
asI45
(lp413
(S'me'
p414
g26
F0.9988
tp415
a(S'have'
p416
g3
F0.9688
tp417
a(S'boy'
p418
g15
F0.9975
tp419
a(S'named'
p420
g3
F0.9895
tp421
a(S'waverly'
p422
g230
F0.7166
tp423
asI46
(lp424
(S'yeah'
p425
g50
F0.9988
tp426
asI47
(lp427
(S'and'
p428
g18
F0.9989
tp429
a(S'he'
p430
g26
F0.9962
tp431
a(S'sits'
p432
g3
F0.9978
tp433
a(S'next'
p434
g44
F0.4863
tp435
a(S'to'
p436
g9
F0.9988
tp437
a(S'me'
p438
g26
F0.9988
tp439
a(S'and'
p440
g18
F0.9932
tp441
a(S'you'
p442
g26
F0.9997
tp443
a(S'know'
p444
g3
F0.9985
tp445
a(S'what'
p446
g26
F0.9879
tp447
a(S'else'
p448
g44
F0.8813
tp449
asI48
(lp450
(S'what'
p451
g26
F0.949
tp452
asI49
(lp453
(S'he'
p454
g26
F0.996
tp455
a(S'does'
p456
g3
F0.9998
tp457
a(S'to'
p458
g9
F0.9865
tp459
a(S'me'
p460
g26
F0.9984
tp461
asI50
(lp462
(S'he'
p463
g26
F0.9961
tp464
a(S'likes'
p465
g3
F0.9998
tp466
a(S'to'
p467
g9
F0.9922
tp468
a(S'play'
p469
g3
F0.9982
tp470
a(S'with'
p471
g9
F0.9987
tp472
a(S'me'
p473
g26
F0.9959
tp474
a(S'every'
p475
g12
F0.9552
tp476
a(S'time'
p477
g15
F0.9984
tp478
a(S'with'
p479
g9
F0.9997
tp480
a(S'my'
p481
g12
F0.9992
tp482
a(S'toys'
p483
g15
F0.9984
tp484
asI51
(lp485
(S'yeah'
p486
g50
F0.9988
tp487
asI52
(lp488
(S'yup'
p489
g50
F0.9978
tp490
asI53
(lp491
(S'he'
p492
g26
F0.8873
tp493
a(S'friendly'
p494
g130
F0.99
tp495
asI54
(lp496
(S'and'
p497
g18
F0.9991
tp498
a(S'your'
p499
g12
F0.9388
tp500
a(S'teachers'
p501
g15
F0.9847
tp502
a(S'names'
p503
g15
F0.9826
tp504
a(S'are'
p505
g3
F0.9924
tp506
a(S'miss'
p507
g3
F0.892
tp508
a(S'doris'
p509
g230
F0.9916
tp510
a(S'and'
p511
g18
F0.9983
tp512
a(S'miss'
p513
g3
F0.9508
tp514
a(S'janine'
p515
g230
F0.9893
tp516
asI55
(lp517
(S'miss'
p518
g3
F0.832
tp519
a(S'janine'
p520
g230
F0.9787
tp521
asI56
(lp522
(S'mhm'
p523
g50
F0.9747
tp524
asI57
(lp525
(S'that'
p526
g26
F0.473
tp527
a(g28
g342
F0.5192
tp528
a(S'um'
p529
g50
F0.8963
tp530
a(S'that'
p531
g26
F0.5294
tp532
a(g28
g3
F0.4673
tp533
a(S'um'
p534
g50
F0.7695
tp535
a(S'xxx'
p536
g134
F0.827
tp537
asI58
(lp538
(S'can'
p539
g3
F0.999
tp540
a(S'you'
p541
g26
F0.9987
tp542
a(S'try'
p543
g3
F0.9986
tp544
a(S'to'
p545
g9
F0.9866
tp546
a(S'say'
p547
g3
F0.9998
tp548
a(S'her'
p549
g12
F0.9528
tp550
a(S'name'
p551
g15
F0.9996
tp552
asI59
(lp553
(S'janine'
p554
g230
F0.975
tp555
asI60
(lp556
(S'mhm'
p557
g50
F0.9747
tp558
asI61
(lp559
(S'me'
p560
g26
F0.9968
tp561
a(S'like'
p562
g9
F0.8155
tp563
a(S'what'
p564
g26
F0.9957
tp565
a(S'me'
p566
g26
F0.9974
tp567
a(S'janine'
p568
g230
F0.9787
tp569
a(g28
g230
F0.4499
tp570
a(S'name'
p571
g15
F0.9449
tp572
asI62
(lp573
(S'what'
p574
g26
F0.9777
tp575
a(S'about'
p576
g9
F0.9599
tp577
a(S'miss'
p578
g3
F0.7184
tp579
a(S'doris'
p580
g230
F0.9766
tp581
asI63
(lp582
(S'you'
p583
g26
F0.9923
tp584
a(S'like'
p585
g3
F0.8526
tp586
a(S'that'
p587
g12
F0.7084
tp588
a(S'name'
p589
g15
F0.9993
tp590
a(S'too'
p591
g44
F0.9403
tp592
asI64
(lp593
(S'who'
p594
g26
F0.9886
tp595
a(g28
g3
F0.8251
tp596
a(S'that'
p597
g26
F0.8603
tp598
asI65
(lp599
(S'that'
p600
g26
F0.473
tp601
a(g28
g3
F0.7045
tp602
a(S'your'
p603
g12
F0.9805
tp604
a(S'other'
p605
g130
F0.9673
tp606
a(S'teacher'
p607
g15
F0.9897
tp608
asI66
(lp609
(S'oh'
p610
g50
F0.9988
tp611
asI67
(lp612
(S'do'
p613
g3
F0.9985
tp614
a(S'you'
p615
g26
F0.9994
tp616
a(S'wanna'
p617
g3
F0.9979
tp618
a(S'wear'
p619
g3
F0.9994
tp620
a(S'your'
p621
g12
F0.9944
tp622
a(S'new'
p623
g130
F0.9953
tp624
a(S'jeans'
p625
g15
F0.8677
tp626
a(S'to'
p627
g9
F0.9982
tp628
a(S'school'
p629
g15
F0.9554
tp630
a(S'today'
p631
g15
F0.9935
tp632
asI68
(lp633
(S'yes'
p634
g50
F0.9958
tp635
asI69
(lp636
(S'and'
p637
g18
F0.9989
tp638
a(S'my'
p639
g12
F0.994
tp640
a(S'new'
p641
g130
F0.9983
tp642
a(S'shoes'
p643
g15
F0.9907
tp644
a(S'and'
p645
g18
F0.9983
tp646
asI70
(lp647
(S'xxx'
p648
g134
F0.7233
tp649
a(S'didn'
p650
g3
F0.8041
tp651
a(S't'
p652
g3
F0.7992
tp653
a(S'buy'
p654
g3
F0.9966
tp655
a(S'me'
p656
g26
F0.9622
tp657
a(S'new'
p658
g130
F0.9971
tp659
a(S'shoes'
p660
g15
F0.992
tp661
asI71
(lp662
(S'well'
p663
g50
F0.8994
tp664
a(S'we'
p665
g26
F0.9987
tp666
a(S'll'
p667
g3
F0.6674
tp668
a(S'buy'
p669
g3
F0.998
tp670
a(S'you'
p671
g26
F0.9739
tp672
a(S'new'
p673
g130
F0.9982
tp674
a(S'shoes'
p675
g15
F0.992
tp676
asI72
(lp677
(S'mom'
p678
g15
F0.7188
tp679
asI73
(lp680
(S'what'
p681
g26
F0.949
tp682
asI74
(lp683
(S'um'
p684
g50
F0.8787
tp685
a(S'you'
p686
g26
F0.9977
tp687
a(S'sit'
p688
g3
F0.9988
tp689
a(S'right'
p690
g44
F0.8941
tp691
a(S'here'
p692
g44
F0.977
tp693
asI75
(lp694
(S'mom'
p695
g15
F0.8909
tp696
a(g77
g26
F0.9138
tp697
a(S'talk'
p698
g3
F0.9997
tp699
a(S'about'
p700
g9
F0.9969
tp701
a(S'my'
p702
g12
F0.9974
tp703
a(S'friends'
p704
g15
F0.9909
tp705
asI76
(lp706
(S'mhm'
p707
g50
F0.9747
tp708
asI77
(lp709
(S'mom'
p710
g15
F0.5539
tp711
a(S'you'
p712
g26
F0.9971
tp713
a(S'know'
p714
g3
F0.9999
tp715
a(S'me'
p716
g26
F0.9994
tp717
a(S'have'
p718
g3
F0.9992
tp719
a(S'all'
p720
g12
F0.8473
tp721
a(S'me'
p722
g26
F0.9977
tp723
a(S'have'
p724
g3
F0.9992
tp725
a(S'all'
p726
g12
F0.8242
tp727
a(S'um'
p728
g12
F0.4889
tp729
a(S'toys'
p730
g15
F0.9946
tp731
a(S'here'
p732
g44
F0.9887
tp733
a(S'right'
p734
g44
F0.6547
tp735
asI78
(lp736
(S'mhm'
p737
g50
F0.9747
tp738
asI79
(lp739
(S'oh'
p740
g50
F0.9979
tp741
a(S'oops'
p742
g50
F0.9974
tp743
asI80
(lp744
(S'excuse'
p745
g3
F0.9631
tp746
a(S'me'
p747
g26
F0.9752
tp748
a(S'mom'
p749
g15
F0.7656
tp750
asI81
(lp751
(S'yes'
p752
g50
F0.9958
tp753
asI82
(lp754
(S'you'
p755
g26
F0.9916
tp756
a(S'burped'
p757
g3
F0.904
tp758
asI83
(lp759
(S'yuck'
p760
g50
F0.996
tp761
a(S'yuck'
p762
g50
F0.9971
tp763
a(S'yuck'
p764
g50
F0.9968
tp765
asI84
(lp766
(S'yuck'
p767
g50
F0.996
tp768
a(S'yuck'
p769
g50
F0.9971
tp770
a(S'yuck'
p771
g50
F0.9968
tp772
asI85
(lp773
(S'that'
p774
g26
F0.473
tp775
a(g28
g342
F0.4353
tp776
a(S'not'
p777
g44
F0.992
tp778
a(S'poached'
p779
g130
F0.8182
tp780
asI86
(lp781
(S'yeah'
p782
g50
F0.9945
tp783
a(S'it'
p784
g26
F0.9989
tp785
a(S'is'
p786
g3
F0.9992
tp787
asI87
(lp788
(S'it'
p789
g26
F0.9858
tp790
a(g28
g3
F0.5764
tp791
a(S'stuck'
p792
g3
F0.8555
tp793
asI88
(lp794
(S'okay'
p795
g50
F0.9581
tp796
a(S'is'
p797
g3
F0.9986
tp798
a(S'it'
p799
g26
F0.9986
tp800
asI89
(lp801
(S'oh'
p802
g50
F0.9988
tp803
asI90
(lp804
(S'mm'
p805
g50
F0.627
tp806
asI91
(lp807
(S'mommy'
p808
g50
F0.3225
tp809
a(S'what'
p810
g26
F0.9958
tp811
a(S'is'
p812
g3
F0.9993
tp813
a(S'that'
p814
g26
F0.9272
tp815
asI92
(lp816
(S'mom'
p817
g15
F0.5389
tp818
a(S'what'
p819
g26
F0.9923
tp820
a(S'is'
p821
g3
F0.9993
tp822
a(S'that'
p823
g26
F0.9272
tp824
asI93
(lp825
(S'huh'
p826
g50
F0.993
tp827
asI94
(lp828
(S'it'
p829
g26
F0.9888
tp830
a(g28
g3
F0.7285
tp831
a(g89
g12
F0.9959
tp832
a(S'tape'
p833
g15
F0.9984
tp834
a(S'recorder'
p835
g15
F0.9921
tp836
asI95
(lp837
(S'xxx'
p838
g134
F0.6435
tp839
a(S'get'
p840
g3
F0.9986
tp841
a(S'out'
p842
g6
F0.9634
tp843
asI96
(lp844
(S'xxx'
p845
g134
F0.8437
tp846
asI97
(lp847
(S'what'
p848
g26
F0.9798
tp849
a(S'else'
p850
g44
F0.7517
tp851
a(S'you'
p852
g26
F0.9992
tp853
a(S'gonna'
p854
g3
F0.9998
tp855
a(S'do'
p856
g3
F0.9998
tp857
a(S'in'
p858
g9
F0.9425
tp859
a(S'school'
p860
g15
F0.9972
tp861
a(S'today'
p862
g15
F0.996
tp863
asI98
(lp864
(S'xxx'
p865
g134
F0.8437
tp866
asI99
(lp867
(S'um'
p868
g50
F0.8635
tp869
a(S'bring'
p870
g3
F0.9994
tp871
a(S'my'
p872
g12
F0.9988
tp873
a(S'toys'
p874
g15
F0.9987
tp875
asI100
(lp876
(S'no'
p877
g50
F0.7985
tp878
a(S'you'
p879
g26
F0.9964
tp880
a(S'can'
p881
g3
F0.9994
tp882
a(g652
g3
F0.8084
tp883
a(S'bring'
p884
g3
F0.9982
tp885
a(S'toys'
p886
g15
F0.9858
tp887
a(S'to'
p888
g9
F0.9984
tp889
a(S'school'
p890
g15
F0.9307
tp891
asI101
(lp892
(S'only'
p893
g44
F0.8581
tp894
a(S'want'
p895
g3
F0.9999
tp896
a(S'my'
p897
g12
F0.9788
tp898
a(g77
g26
F0.9385
tp899
a(S'wanna'
p900
g3
F0.9987
tp901
a(S'bring'
p902
g3
F1.0
tp903
a(S'my'
p904
g12
F0.9984
tp905
a(S'dog'
p906
g15
F0.9978
tp907
a(S'dog'
p908
g15
F0.9921
tp909
asI102
(lp910
(S'huh'
p911
g50
F0.993
tp912
asI103
(lp913
(g77
g26
F0.9869
tp914
a(S'wanna'
p915
g3
F0.999
tp916
a(S'bring'
p917
g3
F1.0
tp918
a(S'my'
p919
g12
F0.9968
tp920
a(S'doggie'
p921
g15
F0.9868
tp922
asI104
(lp923
(S'you'
p924
g26
F0.9969
tp925
a(S'can'
p926
g3
F0.9994
tp927
a(g652
g3
F0.8136
tp928
a(S'bring'
p929
g3
F0.998
tp930
a(S'dolls'
p931
g15
F0.9604
tp932
a(S'hon'
p933
g15
F0.9903
tp934
a(S'ey'
p935
g50
F0.8361
tp936
asI105
(lp937
(S'they'
p938
g26
F0.9926
tp939
a(S'have'
p940
g3
F0.9977
tp941
a(S'dollies'
p942
g15
F0.9952
tp943
a(S'there'
p944
g44
F0.869
tp945
asI106
(lp946
(S'no'
p947
g50
F0.8412
tp948
a(S'they'
p949
g26
F0.9726
tp950
a(S'don'
p951
g3
F0.839
tp952
a(g652
g342
F0.5134
tp953
asI107
(lp954
(S'yes'
p955
g50
F0.9872
tp956
a(S'they'
p957
g26
F0.9969
tp958
a(S'do'
p959
g3
F0.9999
tp960
a(S'you'
p961
g26
F0.9994
tp962
a(S'gotta'
p963
g3
F0.9999
tp964
a(S'wait'
p965
g3
F0.9922
tp966
a(S'and'
p967
g18
F0.9945
tp968
a(S'see'
p969
g3
F0.9722
tp970
asI108
(lp971
(S'they'
p972
g26
F0.9643
tp973
a(S've'
p974
g3
F0.8505
tp975
a(S'got'
p976
g3
F0.9974
tp977
a(g89
g12
F0.9989
tp978
a(S'whole'
p979
g130
F0.9803
tp980
a(S'new'
p981
g130
F0.9991
tp982
a(S'class'
p983
g15
F0.9827
tp984
a(S'room'
p985
g15
F0.9862
tp986
a(S'jenny'
p987
g230
F0.77
tp988
asI109
(lp989
(S'our'
p990
g12
F0.9931
tp991
a(S'own'
p992
g130
F0.9654
tp993
a(S'class'
p994
g15
F0.9939
tp995
a(S'room'
p996
g15
F0.9952
tp997
asI110
(lp998
(S'mhm'
p999
g50
F0.9747
tp1000
asI111
(lp1001
(S'for'
p1002
g9
F0.9989
tp1003
a(S'us'
p1004
g26
F0.9889
tp1005
asI112
(lp1006
(S'mhm'
p1007
g50
F0.9747
tp1008
asI113
(lp1009
(S'yeah'
p1010
g50
F0.9952
tp1011
a(S'shouts'
p1012
g3
F0.9297
tp1013
asI114
(lp1014
(g77
g26
F0.953
tp1015
a(g218
g3
F0.9629
tp1016
a(S'gonna'
p1017
g3
F0.9911
tp1018
a(S'get'
p1019
g3
F0.9999
tp1020
a(S'it'
p1021
g26
F0.9953
tp1022
a(S'there'
p1023
g44
F0.8523
tp1024
asI115
(lp1025
(S'jenny'
p1026
g230
F0.9577
tp1027
a(S'you'
p1028
g26
F0.997
tp1029
a(S'sit'
p1030
g3
F0.9995
tp1031
a(S'down'
p1032
g6
F0.71
tp1033
a(S'and'
p1034
g18
F0.9966
tp1035
a(S'eat'
p1036
g3
F0.9728
tp1037
asI116
(lp1038
(S'xxx'
p1039
g134
F0.8437
tp1040
asI117
(lp1041
(S'soon'
p1042
g44
F0.7813
tp1043
asI118
(lp1044
(S'sighs'
p1045
g3
F0.7567
tp1046
asI119
(lp1047
(S'um'
p1048
g50
F0.9584
tp1049
a(g77
g26
F0.976
tp1050
a(g77
g26
F0.9419
tp1051
a(S'xxx'
p1052
g134
F0.7447
tp1053
asI120
(lp1054
(S'hm'
p1055
g50
F0.995
tp1056
asI121
(lp1057
(g77
g26
F0.9873
tp1058
a(S'can'
p1059
g3
F0.9999
tp1060
a(S'finish'
p1061
g3
F0.9998
tp1062
a(S'it'
p1063
g26
F0.9915
tp1064
a(S'later'
p1065
g44
F0.9031
tp1066
asI122
(lp1067
(g77
g26
F0.9897
tp1068
a(S'want'
p1069
g3
F1.0
tp1070
a(S'you'
p1071
g26
F0.9989
tp1072
a(S'to'
p1073
g9
F0.9894
tp1074
a(S'eat'
p1075
g3
F0.9977
tp1076
a(S'somethin'
p1077
g15
F0.9876
tp1078
a(g85
g3
F0.3975
tp1079
a(S'before'
p1080
g9
F0.9682
tp1081
a(S'you'
p1082
g26
F0.9995
tp1083
a(S'go'
p1084
g3
F0.9988
tp1085
a(S'to'
p1086
g9
F0.9883
tp1087
a(S'school'
p1088
g15
F0.9341
tp1089
asI123
(lp1090
(S'okay'
p1091
g50
F0.9857
tp1092
asI124
(lp1093
(S'do'
p1094
g3
F0.9983
tp1095
a(S'you'
p1096
g26
F0.9997
tp1097
a(S'want'
p1098
g3
F0.9989
tp1099
asI125
(lp1100
(S'mhm'
p1101
g50
F0.9747
tp1102
asI126
(lp1103
(S'are'
p1104
g3
F0.9963
tp1105
a(S'you'
p1106
g26
F0.9984
tp1107
a(S'nervous'
p1108
g130
F0.9487
tp1109
asI127
(lp1110
(S'mhm'
p1111
g50
F0.9747
tp1112
asI128
(lp1113
(S'yeah'
p1114
g50
F0.9988
tp1115
asI129
(lp1116
(S'me'
p1117
g26
F0.999
tp1118
a(S'know'
p1119
g3
F0.9884
tp1120
a(S'how'
p1121
g44
F0.987
tp1122
a(S'to'
p1123
g9
F0.9952
tp1124
a(S'cross'
p1125
g3
F0.9577
tp1126
asI130
(lp1127
(S'me'
p1128
g26
F0.9967
tp1129
a(S'not'
p1130
g44
F0.9998
tp1131
a(S'nervous'
p1132
g130
F0.9476
tp1133
asI131
(lp1134
(S'you'
p1135
g26
F0.9754
tp1136
a(S're'
p1137
g3
F0.7323
tp1138
a(S'not'
p1139
g44
F0.9995
tp1140
a(S'nervous'
p1141
g130
F0.9592
tp1142
asI132
(lp1143
(S'no'
p1144
g50
F0.9253
tp1145
asI133
(lp1146
(S'you'
p1147
g26
F0.9983
tp1148
a(S'know'
p1149
g3
F0.9987
tp1150
a(S'when'
p1151
g44
F0.9925
tp1152
a(S'mommy'
p1153
g15
F0.518
tp1154
a(S'used'
p1155
g3
F0.9721
tp1156
a(S'to'
p1157
g9
F0.9764
tp1158
a(S'go'
p1159
g3
F0.9993
tp1160
a(S'to'
p1161
g9
F0.9871
tp1162
a(S'school'
p1163
g15
F0.8651
tp1164
a(S'mommy'
p1165
g15
F0.9068
tp1166
a(S'was'
p1167
g3
F0.9965
tp1168
a(S'nervous'
p1169
g130
F0.9798
tp1170
asI134
(lp1171
(S'you'
p1172
g26
F0.9911
tp1173
a(S'didn'
p1174
g3
F0.9857
tp1175
a(g652
g3
F0.7852
tp1176
a(S'cry'
p1177
g3
F0.8111
tp1178
asI135
(lp1179
(S'no'
p1180
g50
F0.9253
tp1181
asI136
(lp1182
(g77
g26
F0.9896
tp1183
a(S'remember'
p1184
g3
F0.999
tp1185
a(g77
g26
F0.9946
tp1186
a(S'used'
p1187
g3
F0.9922
tp1188
a(S'to'
p1189
g9
F0.996
tp1190
a(S'get'
p1191
g3
F0.9995
tp1192
a(S'butterflies'
p1193
g15
F0.9848
tp1194
a(S'in'
p1195
g9
F0.9981
tp1196
a(S'my'
p1197
g12
F0.9987
tp1198
a(S'stomach'
p1199
g15
F0.9967
tp1200
asI137
(lp1201
(S'butterflies'
p1202
g15
F0.9696
tp1203
a(S'laughs'
p1204
g3
F0.9822
tp1205
asI138
(lp1206
(S'you'
p1207
g26
F0.9923
tp1208
a(S'like'
p1209
g3
F0.8526
tp1210
a(S'that'
p1211
g26
F0.5042
tp1212
a(S'you'
p1213
g26
F0.9995
tp1214
a(S'think'
p1215
g3
F0.9998
tp1216
a(S'that'
p1217
g26
F0.5528
tp1218
a(g28
g3
F0.3922
tp1219
a(S'funny'
p1220
g130
F0.9992
tp1221
a(S'huh'
p1222
g50
F0.9337
tp1223
asI139
(lp1224
(S'you'
p1225
g26
F0.997
tp1226
a(S'want'
p1227
g3
F0.9998
tp1228
a(S'some'
p1229
g12
F0.8559
tp1230
asI140
(lp1231
(S'xxx'
p1232
g134
F0.8437
tp1233
asI141
(lp1234
(S'oh'
p1235
g50
F0.9964
tp1236
a(S'gimme'
p1237
S'L'
p1238
F0.8327
tp1239
a(S'give'
p1240
g3
F0.9988
tp1241
a(S'me'
p1242
g26
F0.9984
tp1243
a(S'that'
p1244
g9
F0.431
tp1245
a(S'jenny'
p1246
g230
F0.9852
tp1247
asI142
(lp1248
(S'whining'
p1249
g3
F0.9836
tp1250
asI143
(lp1251
(S'what'
p1252
g26
F0.949
tp1253
asI144
(lp1254
(S'babbling'
p1255
g3
F0.9317
tp1256
asI145
(lp1257
(S'yyy'
p1258
g50
F0.3753
tp1259
asI146
(lp1260
(S'now'
p1261
g44
F0.9927
tp1262
a(S'do'
p1263
g3
F0.9991
tp1264
a(S'that'
p1265
g26
F0.9143
tp1266
a(S'for'
p1267
g9
F0.9938
tp1268
a(S'xxx'
p1269
g134
F0.6627
tp1270
asI147
(lp1271
(S'can'
p1272
g3
F0.999
tp1273
a(S'you'
p1274
g26
F0.9981
tp1275
a(S'wait'
p1276
g3
F0.9996
tp1277
a(S'for'
p1278
g9
F0.9981
tp1279
a(g89
g12
F0.9969
tp1280
a(S'minute'
p1281
g15
F0.9545
tp1282
asI148
(lp1283
(S'xxx'
p1284
g134
F0.78
tp1285
a(S'yuck'
p1286
g50
F0.9896
tp1287
asI149
(lp1288
(S'they'
p1289
g26
F0.9104
tp1290
a(S're'
p1291
g3
F0.778
tp1292
a(S'on'
p1293
g9
F0.9219
tp1294
a(S'my'
p1295
g12
F0.9984
tp1296
a(S'foot'
p1297
g15
F0.9987
tp1298
asI150
(lp1299
(S'mommy'
p1300
g15
F0.4898
tp1301
a(S'xxx'
p1302
g134
F0.2992
tp1303
a(S'for'
p1304
g9
F0.9937
tp1305
a(S'baby'
p1306
g15
F0.9873
tp1307
asI151
(lp1308
(S'right'
p1309
g50
F0.861
tp1310
asI152
(lp1311
(S'xxx'
p1312
g134
F0.6536
tp1313
a(S'want'
p1314
g3
F0.9937
tp1315
a(S'to'
p1316
g9
F0.9383
tp1317
asI153
(lp1318
(S'you'
p1319
g26
F0.9968
tp1320
a(S'gonna'
p1321
g3
F0.9996
tp1322
a(S'wear'
p1323
g3
F0.9993
tp1324
a(g89
g12
F0.9322
tp1325
a(g89
g12
F0.9506
tp1326
a(S'necklace'
p1327
g15
F0.988
tp1328
a(S'with'
p1329
g9
F0.9996
tp1330
a(g89
g12
F0.9989
tp1331
a(S'thing'
p1332
g15
F0.9988
tp1333
a(S'today'
p1334
g15
F0.9664
tp1335
asI154
(lp1336
(S'mhm'
p1337
g50
F0.9747
tp1338
asI155
(lp1339
(S'oh'
p1340
g50
F0.9988
tp1341
asI156
(lp1342
(S'that'
p1343
g26
F0.6201
tp1344
a(S'looks'
p1345
g3
F0.9962
tp1346
a(S'beautiful'
p1347
g130
F0.9939
tp1348
asI157
(lp1349
(S'mhm'
p1350
g50
F0.9747
tp1351
asI158
(lp1352
(S'gray'
p1353
g130
F0.5997
tp1354
asI159
(lp1355
(S'says'
p1356
g3
F0.9988
tp1357
a(S'your'
p1358
g12
F0.9896
tp1359
a(S'name'
p1360
g15
F0.9997
tp1361
asI160
(lp1362
(S'mhm'
p1363
g50
F0.9747
tp1364
asI161
(lp1365
(S'class'
p1366
g15
F0.9759
tp1367
asI162
(lp1368
(S'it'
p1369
g26
F0.9954
tp1370
a(S'does'
p1371
g3
F0.9991
tp1372
asI163
(lp1373
(S'your'
p1374
g12
F0.9541
tp1375
a(S'bus'
p1376
g15
F0.9856
tp1377
a(S'driver'
p1378
g15
F0.9989
tp1379
asI164
(lp1380
(S'yep'
p1381
g50
F0.9977
tp1382
asI165
(lp1383
(S'school'
p1384
g15
F0.9747
tp1385
a(S'time'
p1386
g15
F0.9958
tp1387
asI166
(lp1388
(S'yes'
p1389
g50
F0.9958
tp1390
asI167
(lp1391
(S'and'
p1392
g18
F0.999
tp1393
a(S'your'
p1394
g12
F0.9369
tp1395
a(S'teachers'
p1396
g15
F0.9975
tp1397
asI168
(lp1398
(S'oh'
p1399
g50
F0.9951
tp1400
a(S'little'
p1401
g130
F0.9963
tp1402
a(S'yelp'
p1403
g15
F0.9007
tp1404
asI169
(lp1405
(S'oh'
p1406
g50
F0.9908
tp1407
a(S'little'
p1408
g130
F0.9937
tp1409
a(S'yelp'
p1410
g15
F0.8329
tp1411
a(S'imitating'
p1412
g3
F0.9407
tp1413
a(S'chi'
p1414
g230
F0.3227
tp1415
asI170
(lp1416
(S'uh'
p1417
g50
F0.9493
tp1418
a(S'let'
p1419
g3
F0.9971
tp1420
a(S'me'
p1421
g26
F0.9996
tp1422
a(S'see'
p1423
g3
F0.9449
tp1424
asI171
(lp1425
(S'jenny'
p1426
g230
F0.9896
tp1427
a(S'lastname'
p1428
g15
F0.5831
tp1429
asI172
(lp1430
(g77
g26
F0.9861
tp1431
a(S'wear'
p1432
g3
F0.9998
tp1433
a(S'it'
p1434
g26
F0.9895
tp1435
asI173
(lp1436
(S'when'
p1437
g44
F0.9604
tp1438
a(S'we'
p1439
g26
F0.9964
tp1440
a(S'get'
p1441
g3
F1.0
tp1442
a(S'you'
p1443
g26
F0.9997
tp1444
a(S'dressed'
p1445
g3
F0.9999
tp1446
a(S'you'
p1447
g26
F0.9983
tp1448
a(S'll'
p1449
g3
F0.6355
tp1450
a(S'wear'
p1451
g3
F0.9982
tp1452
a(S'it'
p1453
g26
F0.9876
tp1454
a(S'yup'
p1455
g50
F0.9636
tp1456
asI174
(lp1457
(S'oh'
p1458
g50
F0.9978
tp1459
a(S'that'
p1460
g26
F0.7614
tp1461
a(S'looks'
p1462
g3
F0.9967
tp1463
a(S'beautiful'
p1464
g130
F0.9946
tp1465
asI175
(lp1466
(S'xxx'
p1467
g134
F0.6042
tp1468
a(S'that'
p1469
g9
F0.9254
tp1470
a(S'my'
p1471
g12
F0.9978
tp1472
a(S'name'
p1473
g15
F0.9984
tp1474
a(S'right'
p1475
g44
F0.5694
tp1476
a(S'up'
p1477
g6
F0.4481
tp1478
a(S'here'
p1479
g44
F0.9667
tp1480
asI176
(lp1481
(S'that'
p1482
g26
F0.473
tp1483
a(g28
g3
F0.6809
tp1484
a(S'your'
p1485
g12
F0.9908
tp1486
a(S'name'
p1487
g15
F0.9997
tp1488
asI177
(lp1489
(S'j'
p1490
g342
F0.4621
tp1491
a(S'l'
p1492
g342
F0.951
tp1493
a(S'e'
p1494
g342
F0.8732
tp1495
a(g1492
g342
F0.7688
tp1496
a(S'n'
p1497
g18
F0.8243
tp1498
a(g1492
g15
F0.5614
tp1499
a(g1497
g18
F0.8521
tp1500
a(g1492
g15
F0.3508
tp1501
a(S'y'
p1502
g44
F0.5565
tp1503
a(g1492
g342
F0.6124
tp1504
asI178
(lp1505
(S'lastname'
p1506
g15
F0.7399
tp1507
asI179
(lp1508
(S'lastname'
p1509
g15
F0.7399
tp1510
asI180
(lp1511
(S'stephen'
p1512
g230
F0.9983
tp1513
a(S'look'
p1514
g3
F0.9566
tp1515
a(S'what'
p1516
g26
F0.9875
tp1517
a(S'we'
p1518
g26
F0.9984
tp1519
a(S'can'
p1520
g3
F0.9997
tp1521
a(S'wear'
p1522
g3
F0.9978
tp1523
a(S'to'
p1524
g9
F0.9906
tp1525
a(S'school'
p1526
g15
F0.9501
tp1527
a(S'today'
p1528
g15
F0.9958
tp1529
asI181
(lp1530
(g89
g12
F0.9884
tp1531
a(S'sign'
p1532
g15
F0.9928
tp1533
asI182
(lp1534
(S'giggles'
p1535
g3
F0.5513
tp1536
asI183
(lp1537
(S'it'
p1538
g26
F0.9888
tp1539
a(g28
g3
F0.7058
tp1540
a(g89
g12
F0.9922
tp1541
a(S'sign'
p1542
g15
F0.9952
tp1543
asI184
(lp1544
(S'nope'
p1545
g50
F0.9691
tp1546
a(S'you'
p1547
g26
F0.9978
tp1548
a(S'can'
p1549
g3
F0.9994
tp1550
a(g652
g3
F0.627
tp1551
a(S'have'
p1552
g3
F0.9996
tp1553
a(S'it'
p1554
g26
F0.9895
tp1555
asI185
(lp1556
(S'when'
p1557
g44
F0.9804
tp1558
a(S'you'
p1559
g26
F0.9985
tp1560
a(S'go'
p1561
g3
F0.9989
tp1562
a(S'to'
p1563
g9
F0.9872
tp1564
a(S'school'
p1565
g3
F0.665
tp1566
a(S'you'
p1567
g26
F0.9991
tp1568
a(S'can'
p1569
g3
F0.9995
tp1570
a(S'have'
p1571
g3
F0.9999
tp1572
a(S'it'
p1573
g26
F0.9897
tp1574
asI186
(lp1575
(S'yep'
p1576
g50
F0.9868
tp1577
a(S'and'
p1578
g18
F0.9986
tp1579
a(S'his'
p1580
g12
F0.8976
tp1581
a(S'will'
p1582
g3
F0.7414
tp1583
a(S'say'
p1584
g3
F0.9982
tp1585
a(S'stephen'
p1586
g230
F0.9977
tp1587
a(S'lastname'
p1588
g15
F0.48
tp1589
asI187
(lp1590
(S'yours'
p1591
g26
F0.9506
tp1592
a(S'will'
p1593
g3
F0.9959
tp1594
a(S'say'
p1595
g3
F0.9976
tp1596
a(S'stephen'
p1597
g230
F0.9873
tp1598
a(S'last'
p1599
g130
F0.9728
tp1600
a(S'name'
p1601
g15
F0.9996
tp1602
asI188
(lp1603
(S'what'
p1604
g26
F0.949
tp1605
asI189
(lp1606
(S'he'
p1607
g26
F0.9908
tp1608
a(S'ain'
p1609
g3
F0.9538
tp1610
a(g652
g3
F0.482
tp1611
a(S'five'
p1612
g171
F0.375
tp1613
asI190
(lp1614
(S'oh'
p1615
g50
F0.993
tp1616
a(S'poor'
p1617
g130
F0.919
tp1618
a(S'stephen'
p1619
g230
F0.9709
tp1620
asI191
(lp1621
(S'chuckles'
p1622
g3
F0.8006
tp1623
asI192
(lp1624
(S'mommy'
p1625
g15
F0.5271
tp1626
asI193
(lp1627
(S'what'
p1628
g26
F0.949
tp1629
asI194
(lp1630
(S'xxx'
p1631
g134
F0.6517
tp1632
a(S'first'
p1633
g130
F0.8237
tp1634
a(S'bite'
p1635
g15
F0.9377
tp1636
asI195
(lp1637
(S'mhm'
p1638
g50
F0.9747
tp1639
asI196
(lp1640
(S'was'
p1641
g3
F0.9944
tp1642
a(S'anybody'
p1643
g15
F0.8548
tp1644
a(S'outside'
p1645
g9
F0.4323
tp1646
asI197
(lp1647
(S'we'
p1648
g26
F0.9948
tp1649
a(S'll'
p1650
g3
F0.7321
tp1651
a(S'see'
p1652
g3
F0.9913
tp1653
a(S'what'
p1654
g12
F0.7888
tp1655
a(S'time'
p1656
g15
F0.9986
tp1657
a(S'okay'
p1658
g50
F0.8608
tp1659
asI198
(lp1660
(S'mhm'
p1661
g50
F0.9747
tp1662
asI199
(lp1663
(S'alright'
p1664
g50
F0.972
tp1665
a(S'alright'
p1666
g50
F0.9885
tp1667
asI200
(lp1668
(S'super'
p1669
g130
F0.4392
tp1670
a(S'woman'
p1671
g15
F0.9711
tp1672
asI201
(lp1673
(S'what'
p1674
g26
F0.9835
tp1675
a(S'are'
p1676
g3
F0.9978
tp1677
a(S'you'
p1678
g26
F0.9994
tp1679
a(S'shaking'
p1680
g3
F0.9994
tp1681
a(S'laughs'
p1682
g3
F0.9104
tp1683
asI202
(lp1684
(S'mm'
p1685
g50
F0.3243
tp1686
a(S'shakin'
p1687
g3
F0.7658
tp1688
a(g85
g342
F0.354
tp1689
asI203
(lp1690
(g77
g26
F0.953
tp1691
a(g218
g3
F0.9717
tp1692
a(S'just'
p1693
g44
F0.9991
tp1694
a(S'stretchin'
p1695
g3
F0.9503
tp1696
a(g85
g342
F0.354
tp1697
asI204
(lp1698
(S'yep'
p1699
g50
F0.9925
tp1700
a(S'yep'
p1701
g50
F0.9969
tp1702
a(S'yep'
p1703
g50
F0.9706
tp1704
a(S'people'
p1705
g15
F0.996
tp1706
a(S'do'
p1707
g3
F0.9992
tp1708
a(S'right'
p1709
g44
F0.4353
tp1710
asI205
(lp1711
(S'mhm'
p1712
g50
F0.9747
tp1713
asI206
(lp1714
(S'they'
p1715
g26
F0.9817
tp1716
a(S'make'
p1717
g3
F0.9976
tp1718
a(S'good'
p1719
g130
F0.9898
tp1720
a(S'xxx'
p1721
g134
F0.6499
tp1722
asI207
(lp1723
(S'mom'
p1724
g15
F0.8909
tp1725
a(g77
g26
F0.8431
tp1726
a(g218
g3
F0.9197
tp1727
a(S'xxx'
p1728
g134
F0.7501
tp1729
asI208
(lp1730
(S'it'
p1731
g26
F0.9888
tp1732
a(g28
g342
F0.5569
tp1733
a(S'okay'
p1734
g130
F0.7699
tp1735
a(S'honey'
p1736
g15
F0.9645
tp1737
asI209
(lp1738
(g77
g26
F0.9836
tp1739
a(S'feel'
p1740
g3
F0.9988
tp1741
a(S'xxx'
p1742
g134
F0.4641
tp1743
a(g77
g26
F0.9716
tp1744
a(S'feel'
p1745
g3
F0.9998
tp1746
a(S'the'
p1747
g12
F0.9995
tp1748
a(S'whole'
p1749
g130
F0.9902
tp1750
a(S'thing'
p1751
g15
F0.9965
tp1752
a(S'xxx'
p1753
g134
F0.8962
tp1754
asI210
(lp1755
(S'fusses'
p1756
g3
F0.9061
tp1757
asI211
(lp1758
(S'would'
p1759
g3
F0.9987
tp1760
a(S'you'
p1761
g26
F0.9948
tp1762
a(S'like'
p1763
g3
F0.8194
tp1764
a(S'some'
p1765
g12
F0.9786
tp1766
a(S'milk'
p1767
g15
F0.9949
tp1768
asI212
(lp1769
(S'milk'
p1770
g15
F0.9781
tp1771
asI213
(lp1772
(S'milk'
p1773
g15
F0.9781
tp1774
asI214
(lp1775
(S'yep'
p1776
g50
F0.9932
tp1777
a(S'xxx'
p1778
g134
F0.5037
tp1779
a(S'there'
p1780
g44
F0.4964
tp1781
asI215
(lp1782
(S'how'
p1783
g44
F0.9764
tp1784
a(g28
g342
F0.7821
tp1785
a(S'he'
p1786
g26
F0.9961
tp1787
a(S'done'
p1788
g3
F0.9923
tp1789
asI216
(lp1790
(S'xxx'
p1791
g134
F0.8437
tp1792
asI217
(lp1793
(S'oh'
p1794
g50
F0.9858
tp1795
a(S'wait'
p1796
g3
F0.989
tp1797
a(g89
g12
F0.994
tp1798
a(S'minute'
p1799
g15
F0.9228
tp1800
a(S'xxx'
p1801
g134
F0.4333
tp1802
a(S'take'
p1803
g3
F0.9978
tp1804
a(S'my'
p1805
g12
F0.9763
tp1806
a(S'xxx'
p1807
g130
F0.3695
tp1808
a(S'one'
p1809
g171
F0.7595
tp1810
asI218
(lp1811
(S'yyy'
p1812
g50
F0.3753
tp1813
asI219
(lp1814
(S'yyy'
p1815
g50
F0.3753
tp1816
asI220
(lp1817
(S'giggles'
p1818
g3
F0.5513
tp1819
asI221
(lp1820
(S'0'
p1821
g171
F0.9762
tp1822
a(S'giggles'
p1823
g15
F0.776
tp1824
a(S'imitating'
p1825
g3
F0.9927
tp1826
a(S'bro'
p1827
g15
F0.9892
tp1828
asI222
(lp1829
(S'think'
p1830
g3
F0.9951
tp1831
a(S'that'
p1832
g26
F0.5719
tp1833
a(g28
g3
F0.4076
tp1834
a(S'funny'
p1835
g130
F0.999
tp1836
a(S'huh'
p1837
g50
F0.9476
tp1838
asI223
(lp1839
(S'daddy'
p1840
g15
F0.9816
tp1841
a(g77
g26
F0.8093
tp1842
a(g218
g3
F0.9644
tp1843
a(S'gonna'
p1844
g3
F0.9885
tp1845
a(S'show'
p1846
g3
F0.8912
tp1847
a(S'daddy'
p1848
g15
F0.996
tp1849
a(S'okay'
p1850
g50
F0.8416
tp1851
asI224
(lp1852
(S'yeah'
p1853
g50
F0.9988
tp1854
asI225
(lp1855
(g77
g26
F0.953
tp1856
a(g218
g3
F0.9629
tp1857
a(S'gonna'
p1858
g3
F0.9898
tp1859
a(S'show'
p1860
g3
F0.8374
tp1861
a(S'daddy'
p1862
g15
F0.9882
tp1863
a(S'my'
p1864
g12
F0.9841
tp1865
a(S'sign'
p1866
g15
F0.9923
tp1867
asI226
(lp1868
(S'okay'
p1869
g50
F0.9857
tp1870
asI227
(lp1871
(S'tell'
p1872
g3
F0.8859
tp1873
a(S'daddy'
p1874
g15
F0.936
tp1875
a(S'it'
p1876
g26
F0.9526
tp1877
a(g28
g3
F0.5639
tp1878
a(S'time'
p1879
g15
F0.979
tp1880
a(S'to'
p1881
g9
F0.999
tp1882
a(S'get'
p1883
g3
F1.0
tp1884
a(S'up'
p1885
g6
F0.9427
tp1886
a(S'for'
p1887
g9
F0.9975
tp1888
a(S'work'
p1889
g15
F0.8749
tp1890
asI228
(lp1891
(S'anybody'
p1892
g15
F0.9384
tp1893
a(S'call'
p1894
g3
F0.9917
tp1895
a(S'me'
p1896
g26
F0.9986
tp1897
a(S'for'
p1898
g9
F0.9936
tp1899
a(S'work'
p1900
g15
F0.8944
tp1901
asI229
(lp1902
(S'no'
p1903
g50
F0.787
tp1904
a(S'not'
p1905
g44
F0.9546
tp1906
a(S'my'
p1907
g12
F0.9791
tp1908
a(S'sign'
p1909
g15
F0.9951
tp1910
asI230
(lp1911
(S'not'
p1912
g44
F0.9739
tp1913
a(S'your'
p1914
g12
F0.9219
tp1915
a(S'sign'
p1916
g15
F0.9957
tp1917
a(S'huh'
p1918
g50
F0.8848
tp1919
asI231
(lp1920
(S'mm'
p1921
g50
F0.627
tp1922
asI232
(lp1923
(S'me'
p1924
g26
F0.997
tp1925
a(S'love'
p1926
g3
F0.9894
tp1927
a(S'it'
p1928
g26
F0.9943
tp1929
asI233
(lp1930
(S'you'
p1931
g26
F0.9963
tp1932
a(S'laughs'
p1933
g3
F0.9986
tp1934
a(S'love'
p1935
g3
F0.8988
tp1936
a(S'your'
p1937
g12
F0.9417
tp1938
a(S'sign'
p1939
g15
F0.9899
tp1940
asI234
(lp1941
(S'yep'
p1942
g50
F0.9977
tp1943
asI235
(lp1944
(g77
g26
F0.9839
tp1945
a(S'keep'
p1946
g3
F0.9998
tp1947
a(S'it'
p1948
g26
F0.988
tp1949
asI236
(lp1950
(S'sure'
p1951
g130
F0.8345
tp1952
asI237
(lp1953
(S'lick'
p1954
g3
F0.9604
tp1955
a(S'your'
p1956
g12
F0.9961
tp1957
a(S'mouth'
p1958
g15
F0.9998
tp1959
asI238
(lp1960
(S'do'
p1961
g3
F0.9985
tp1962
a(S'you'
p1963
g26
F0.9997
tp1964
a(S'know'
p1965
g3
F0.9983
tp1966
a(S'who'
p1967
g26
F0.9982
tp1968
a(S'got'
p1969
g3
F0.9999
tp1970
a(S'me'
p1971
g26
F0.9988
tp1972
a(S'that'
p1973
g26
F0.4222
tp1974
asI239
(lp1975
(S'that'
p1976
g12
F0.8321
tp1977
a(S'circus'
p1978
g15
F0.9772
tp1979
a(S'xxx'
p1980
g134
F0.8069
tp1981
asI240
(lp1982
(S'xxx'
p1983
g134
F0.5944
tp1984
a(S'circus'
p1985
g15
F0.9418
tp1986
asI241
(lp1987
(S'yep'
p1988
g50
F0.9977
tp1989
asI242
(lp1990
(S'mom'
p1991
g15
F0.5539
tp1992
a(S'you'
p1993
g26
F0.9923
tp1994
a(S'were'
p1995
g3
F0.9997
tp1996
a(S'you'
p1997
g26
F0.9993
tp1998
a(S'were'
p1999
g3
F0.999
tp2000
a(S'with'
p2001
g9
F0.9995
tp2002
a(S'the'
p2003
g12
F0.9998
tp2004
a(S'clown'
p2005
g15
F0.9917
tp2006
a(S'xxx'
p2007
g134
F0.483
tp2008
a(S'laughs'
p2009
g3
F0.9738
tp2010
asI243
(lp2011
(S'laughs'
p2012
g3
F0.9207
tp2013
a(S'yeah'
p2014
g50
F0.9686
tp2015
a(S'the'
p2016
g12
F0.9989
tp2017
a(S'clown'
p2018
g15
F0.9948
tp2019
a(S'sat'
p2020
g3
F0.8926
tp2021
a(S'with'
p2022
g9
F0.9986
tp2023
a(S'us'
p2024
g26
F0.9538
tp2025
a(S'huh'
p2026
g50
F0.9067
tp2027
asI244
(lp2028
(S'yep'
p2029
g50
F0.99
tp2030
a(S'laughs'
p2031
g3
F0.924
tp2032
asI245
(lp2033
(S'that'
p2034
g26
F0.473
tp2035
a(g28
g3
F0.3907
tp2036
a(S'funny'
p2037
g130
F0.9967
tp2038
a(S'laughs'
p2039
g15
F0.7795
tp2040
asI246
(lp2041
(S'yeah'
p2042
g50
F0.9983
tp2043
a(S'that'
p2044
g26
F0.729
tp2045
a(g28
g3
F0.4076
tp2046
a(S'funny'
p2047
g130
F0.9986
tp2048
asI247
(lp2049
(S'you'
p2050
g26
F0.9754
tp2051
a(S're'
p2052
g3
F0.5754
tp2053
a(S'member'
p2054
g15
F0.9656
tp2055
a(S'how'
p2056
g44
F0.9714
tp2057
a(S'he'
p2058
g26
F0.9995
tp2059
a(S'did'
p2060
g3
F0.9998
tp2061
a(S'that'
p2062
g26
F0.7045
tp2063
asI248
(lp2064
(S'he'
p2065
g26
F0.9945
tp2066
a(S'climbed'
p2067
g3
F0.9997
tp2068
a(S'over'
p2069
g9
F0.9079
tp2070
a(S'the'
p2071
g12
F0.9992
tp2072
a(S'railing'
p2073
g15
F0.9975
tp2074
a(S'huh'
p2075
g50
F0.9252
tp2076
asI249
(lp2077
(S'yeah'
p2078
g50
F0.9945
tp2079
a(S'laughs'
p2080
g3
F0.9273
tp2081
asI250
(lp2082
(S'and'
p2083
g18
F0.9991
tp2084
a(S'we'
p2085
g26
F0.9978
tp2086
a(S'got'
p2087
g3
F0.9987
tp2088
a(S'xxx'
p2089
g134
F0.4484
tp2090
a(S'we'
p2091
g26
F0.9962
tp2092
a(S'got'
p2093
g3
F0.9992
tp2094
a(S'popcorn'
p2095
g15
F0.7339
tp2096
a(S'and'
p2097
g18
F0.9983
tp2098
a(S'everything'
p2099
g15
F0.9781
tp2100
asI251
(lp2101
(S'right'
p2102
g50
F0.861
tp2103
asI252
(lp2104
(S'and'
p2105
g18
F0.9991
tp2106
a(S'we'
p2107
g26
F0.9978
tp2108
a(S'got'
p2109
g3
F0.9996
tp2110
a(S'um'
p2111
g50
F0.6829
tp2112
a(S'you'
p2113
g26
F0.9992
tp2114
a(S'know'
p2115
g3
F0.9994
tp2116
a(S'um'
p2117
g50
F0.8987
tp2118
a(S'that'
p2119
g9
F0.5636
tp2120
a(S'um'
p2121
g12
F0.3928
tp2122
a(S'thing'
p2123
g15
F0.9927
tp2124
asI253
(lp2125
(S'the'
p2126
g12
F0.9985
tp2127
a(S'flashlight'
p2128
g15
F0.9982
tp2129
a(S'we'
p2130
g26
F0.9891
tp2131
a(S'got'
p2132
g3
F0.9988
tp2133
a(S'didn'
p2134
g3
F0.851
tp2135
a(g652
g3
F0.789
tp2136
a(S'we'
p2137
g26
F0.997
tp2138
a(S'or'
p2139
g18
F0.9802
tp2140
a(S'something'
p2141
g15
F0.9954
tp2142
asI254
(lp2143
(S'yeah'
p2144
g50
F0.9963
tp2145
a(S'we'
p2146
g26
F0.9986
tp2147
a(S'got'
p2148
g3
F0.9998
tp2149
a(g89
g12
F0.9982
tp2150
a(S'flashlight'
p2151
g15
F0.9985
tp2152
asI255
(lp2153
(S'mhm'
p2154
g50
F0.9747
tp2155
asI256
(lp2156
(S'then'
p2157
g44
F0.9476
tp2158
a(S'we'
p2159
g26
F0.9983
tp2160
a(S'got'
p2161
g3
F0.9993
tp2162
a(S'where'
p2163
g44
F0.9502
tp2164
a(S'where'
p2165
g44
F0.9789
tp2166
a(g28
g342
F0.5612
tp2167
a(S'our'
p2168
g12
F0.9925
tp2169
a(S'flashlight'
p2170
g15
F0.9973
tp2171
asI257
(lp2172
(g77
g26
F0.989
tp2173
a(S'think'
p2174
g3
F0.9999
tp2175
a(S'they'
p2176
g26
F0.974
tp2177
a(S're'
p2178
g3
F0.894
tp2179
a(S'all'
p2180
g12
F0.7355
tp2181
a(S'gone'
p2182
g130
F0.6931
tp2183
asI258
(lp2184
(S'oh'
p2185
g50
F0.9988
tp2186
asI259
(lp2187
(S'we'
p2188
g26
F0.9955
tp2189
a(S'go'
p2190
g3
F0.9982
tp2191
a(S'there'
p2192
g44
F0.9917
tp2193
a(S'again'
p2194
g44
F0.9877
tp2195
asI260
(lp2196
(S'sure'
p2197
g130
F0.8345
tp2198
asI261
(lp2199
(S'thanks'
p2200
g15
F0.7675
tp2201
asI262
(lp2202
(S'you'
p2203
g26
F0.9983
tp2204
a(S'know'
p2205
g3
F0.9987
tp2206
a(S'where'
p2207
g44
F0.9455
tp2208
a(S'it'
p2209
g26
F0.9988
tp2210
a(S'is'
p2211
g3
F0.9994
tp2212
asI263
(lp2213
(S'mhm'
p2214
g50
F0.9747
tp2215
asI264
(lp2216
(S'same'
p2217
g130
F0.9903
tp2218
a(S'place'
p2219
g15
F0.9757
tp2220
a(S'it'
p2221
g26
F0.9853
tp2222
a(S'was'
p2223
g3
F0.9971
tp2224
a(S'last'
p2225
g130
F0.9905
tp2226
a(S'time'
p2227
g15
F0.9993
tp2228
asI265
(lp2229
(S'what'
p2230
g26
F0.9784
tp2231
a(g28
g3
F0.4505
tp2232
a(S'that'
p2233
g12
F0.8489
tp2234
a(S'thing'
p2235
g15
F0.9984
tp2236
asI266
(lp2237
(S'its'
p2238
g1238
F0.9883
tp2239
a(S'your'
p2240
g12
F0.9076
tp2241
a(S'school'
p2242
g15
F0.9989
tp2243
a(S'time'
p2244
g15
F0.9976
tp2245
asI267
(lp2246
(S'eight'
p2247
g171
F0.8448
tp2248
a(S'thirty'
p2249
g130
F0.3222
tp2250
a(S'to'
p2251
g9
F0.9961
tp2252
a(S'one'
p2253
g171
F0.9722
tp2254
a(S'thirty'
p2255
g130
F0.4328
tp2256
a(S'tuesday'
p2257
g15
F0.6439
tp2258
a(S'through'
p2259
g9
F0.994
tp2260
a(S'friday'
p2261
g230
F0.9492
tp2262
asI268
(lp2263
(S'and'
p2264
g18
F0.9975
tp2265
a(S'after'
p2266
g9
F0.8956
tp2267
a(S'that'
p2268
g26
F0.9113
tp2269
a(S'me'
p2270
g26
F0.9991
tp2271
a(S'still'
p2272
g44
F0.9991
tp2273
a(S'goin'
p2274
g3
F0.9957
tp2275
a(g85
g3
F0.4267
tp2276
a(S'to'
p2277
g9
F0.9917
tp2278
a(S'school'
p2279
g15
F0.9381
tp2280
asI269
(lp2281
(S'xxx'
p2282
g134
F0.4676
tp2283
a(S'me'
p2284
g26
F0.9978
tp2285
a(S'still'
p2286
g44
F0.9991
tp2287
a(S'goin'
p2288
g3
F0.9952
tp2289
a(g85
g3
F0.583
tp2290
a(S'to'
p2291
g9
F0.9924
tp2292
a(S'school'
p2293
g15
F0.936
tp2294
asI270
(lp2295
(S'mhm'
p2296
g50
F0.9747
tp2297
asI271
(lp2298
(S'not'
p2299
g44
F0.9903
tp2300
a(S'tomorrow'
p2301
g15
F0.4439
tp2302
a(S'you'
p2303
g26
F0.9914
tp2304
a(S'don'
p2305
g3
F0.8611
tp2306
a(g652
g15
F0.2172
tp2307
a(S'have'
p2308
g3
F0.9924
tp2309
a(S'school'
p2310
g15
F0.9954
tp2311
a(S'tuesday'
p2312
g15
F0.5276
tp2313
asI272
(lp2314
(S'tuesday'
p2315
g230
F0.9084
tp2316
asI273
(lp2317
(S'mhm'
p2318
g50
F0.9747
tp2319
asI274
(lp2320
(S'me'
p2321
g26
F0.996
tp2322
a(S'xxx'
p2323
g3
F0.6617
tp2324
a(S'me'
p2325
g26
F0.9994
tp2326
a(S'have'
p2327
g3
F0.9989
tp2328
a(g89
g12
F0.9989
tp2329
a(S'day'
p2330
g15
F0.9987
tp2331
a(S'off'
p2332
g9
F0.7932
tp2333
asI275
(lp2334
(S'mhm'
p2335
g50
F0.9747
tp2336
asI276
(lp2337
(S'oh'
p2338
g50
F0.9903
tp2339
a(S'my'
p2340
g12
F0.9866
tp2341
a(S'teacher'
p2342
g15
F0.996
tp2343
a(S'thanks'
p2344
g15
F0.9812
tp2345
a(S'teacher'
p2346
g15
F0.9595
tp2347
asI277
(lp2348
(S'me'
p2349
g26
F0.995
tp2350
a(S'proud'
p2351
g130
F0.9789
tp2352
a(g222
g9
F0.8823
tp2353
a(g224
g342
F0.4153
tp2354
a(S'you'
p2355
g26
F0.9726
tp2356
a(S'teacher'
p2357
g15
F0.9107
tp2358
asI278
(lp2359
(S'you'
p2360
g26
F0.998
tp2361
a(S'have'
p2362
g3
F0.9967
tp2363
a(S'saturday'
p2364
g230
F0.8818
tp2365
a(S'sunday'
p2366
g230
F0.9485
tp2367
a(S'and'
p2368
g18
F0.9989
tp2369
a(S'monday'
p2370
g230
F0.6975
tp2371
a(S'off'
p2372
g9
F0.5117
tp2373
asI279
(lp2374
(S'oh'
p2375
g50
F0.9947
tp2376
a(S'good'
p2377
g130
F0.9861
tp2378
asI280
(lp2379
(S'you'
p2380
g26
F0.9923
tp2381
a(S'like'
p2382
g3
F0.8444
tp2383
a(S'that'
p2384
g26
F0.9026
tp2385
a(S'huh'
p2386
g50
F0.8481
tp2387
asI281
(lp2388
(S'thank'
p2389
g3
F0.9631
tp2390
a(S'you'
p2391
g26
F0.9987
tp2392
asI282
(lp2393
(S'you'
p2394
g26
F0.963
tp2395
a(S're'
p2396
g3
F0.5951
tp2397
a(S'welcome'
p2398
g3
F0.4795
tp2399
asI283
(lp2400
(S'mom'
p2401
g15
F0.8847
tp2402
a(S'put'
p2403
g3
F0.9973
tp2404
a(S'my'
p2405
g12
F0.9914
tp2406
a(S'sign'
p2407
g15
F0.993
tp2408
a(S'on'
p2409
g9
F0.9411
tp2410
asI284
(lp2411
(S'oh'
p2412
g50
F0.9988
tp2413
asI285
(lp2414
(S'oops'
p2415
g50
F0.9905
tp2416
asI286
(lp2417
(S'caught'
p2418
g3
F0.9966
tp2419
a(S'it'
p2420
g26
F0.9871
tp2421
asI287
(lp2422
(S'xxx'
p2423
g134
F0.8437
tp2424
asI288
(lp2425
(S'dad'
p2426
g15
F0.9547
tp2427
a(S'come'
p2428
g3
F0.9934
tp2429
a(S'here'
p2430
g44
F0.9712
tp2431
asI289
(lp2432
(S'daddy'
p2433
g15
F0.9848
tp2434
a(S'come'
p2435
g3
F0.9934
tp2436
a(S'here'
p2437
g44
F0.9712
tp2438
asI290
(lp2439
(S'daddy'
p2440
g15
F0.9848
tp2441
a(S'come'
p2442
g3
F0.9934
tp2443
a(S'here'
p2444
g44
F0.9712
tp2445
asI291
(lp2446
(S'let'
p2447
g3
F0.9968
tp2448
a(S'me'
p2449
g26
F0.9995
tp2450
a(S'go'
p2451
g3
F0.9688
tp2452
asI292
(lp2453
(g77
g26
F0.9793
tp2454
a(S'll'
p2455
g3
F0.7443
tp2456
a(S'miss'
p2457
g3
F0.9974
tp2458
a(S'you'
p2459
g26
F0.9974
tp2460
asI293
(lp2461
(S'me'
p2462
g26
F0.9985
tp2463
a(S'goin'
p2464
g3
F0.9939
tp2465
a(g85
g3
F0.4982
tp2466
a(S'to'
p2467
g9
F0.992
tp2468
a(S'school'
p2469
g15
F0.9144
tp2470
a(S'today'
p2471
g15
F0.9964
tp2472
as.