(dp0
I513
(lp1
(S'you'
p2
S'O'
p3
F0.997
tp4
a(S"didn't"
p5
S'V'
p6
F0.9999
tp7
a(S'cry'
p8
g6
F0.9795
tp9
a(S'['
p10
S','
p11
F0.9813
tp12
a(S'>'
p13
S'E'
p14
F0.5563
tp15
a(S']'
p16
g11
F0.6899
tp17
a(S'.'
p18
g11
F0.9959
tp19
asI516
(lp20
(S'no'
p21
S'!'
p22
F0.8389
tp23
a(g10
g11
F0.9936
tp24
a(S'<'
p25
S'~'
p26
F0.972
tp27
a(g16
g11
F0.9847
tp28
a(g18
g11
F0.9962
tp29
asI1057
(lp30
(S'me'
p31
g3
F0.9985
tp32
a(S'goin(g'
p33
g6
F0.9191
tp34
a(S')'
p35
g11
F0.9923
tp36
a(S'to'
p37
S'P'
p38
F0.9869
tp39
a(S'school'
p40
S'N'
p41
F0.9465
tp42
a(S'today'
p43
g41
F0.996
tp44
a(S'+'
p45
S'&'
p46
F0.427
tp47
a(S'...'
p48
g11
F0.569
tp49
asI519
(lp50
(S'I'
p51
g3
F0.9983
tp52
a(S'remember'
p53
g6
F0.9998
tp54
a(g51
g3
F0.9992
tp55
a(S'used'
p56
g6
F0.9896
tp57
a(S'to'
p58
g38
F0.996
tp59
a(S'get'
p60
g6
F0.9993
tp61
a(S'(.)'
p62
S'A'
p63
F0.2213
tp64
a(S'butterflies'
p65
g41
F0.9982
tp66
a(S'in'
p67
g38
F0.9978
tp68
a(S'my'
p69
S'D'
p70
F0.9988
tp71
a(S'stomach'
p72
g41
F0.9991
tp73
a(g18
g11
F0.9974
tp74
asI960
(lp75
(S'(.)'
p76
g14
F0.2846
tp77
a(S"what's"
p78
S'L'
p79
F0.9952
tp80
a(S'that'
p81
g70
F0.8833
tp82
a(S'thing'
p83
g41
F0.9989
tp84
a(S'?'
p85
g11
F0.9962
tp86
asI599
(lp87
(S'class'
p88
g41
F0.9897
tp89
a(g18
g11
F0.9983
tp90
asI524
(lp91
(S'butterflies'
p92
g41
F0.9666
tp93
a(g46
g46
F0.9921
tp94
a(S'='
p95
g11
F0.8743
tp96
a(S'laughs'
p97
g6
F0.838
tp98
a(g22
g11
F0.9983
tp99
asI1037
(lp100
(S'caught'
p101
g6
F0.9966
tp102
a(S'it'
p103
g3
F0.9845
tp104
a(g22
g11
F0.999
tp105
asI527
(lp106
(S'you'
p107
g3
F0.9923
tp108
a(S'like'
p109
g6
F0.8526
tp110
a(S'that'
p111
g3
F0.5042
tp112
a(S'you'
p113
g3
F0.9995
tp114
a(S'think'
p115
g6
F0.9996
tp116
a(S"that's"
p117
g79
F0.9953
tp118
a(S'funny'
p119
g63
F0.9998
tp120
a(S'huh'
p121
g22
F0.8866
tp122
a(g85
g11
F0.9982
tp123
asI1040
(lp124
(S'xxx'
p125
g14
F0.5822
tp126
a(g18
g11
F0.9648
tp127
asI17
(lp128
(S'get'
p129
g6
F0.9991
tp130
a(S'up'
p131
S'T'
p132
F0.9347
tp133
a(S'to'
p134
g38
F0.9989
tp135
a(S'the'
p136
g70
F0.9991
tp137
a(S'table'
p138
g41
F0.989
tp139
a(S'and'
p140
g46
F0.9962
tp141
a(S'eat'
p142
g6
F0.9648
tp143
a(S'breakfast'
p144
g41
F0.9772
tp145
a(g18
g11
F0.9989
tp146
asI1044
(lp147
(S'Daddy'
p148
g41
F0.8818
tp149
a(S'come'
p150
g6
F0.9914
tp151
a(S'here'
p152
S'R'
p153
F0.9703
tp154
a(g22
g11
F0.9989
tp155
asI533
(lp156
(S'(.)'
p157
S'G'
p158
F0.3028
tp159
a(S'you'
p160
g3
F0.9982
tp161
a(S'want'
p162
g6
F0.9999
tp163
a(S'some'
p164
g70
F0.6217
tp165
a(g85
g11
F0.9971
tp166
asI24
(lp167
(S"what's"
p168
g79
F0.9931
tp169
a(S'that'
p170
g3
F0.7491
tp171
a(S'[='
p172
g14
F0.8471
tp173
a(S'recorder'
p174
g41
F0.9919
tp175
a(g16
g11
F0.9933
tp176
a(S'for'
p177
g38
F0.9872
tp178
a(g85
g11
F0.9957
tp179
asI537
(lp180
(S'xxx'
p181
g14
F0.5822
tp182
a(g18
g11
F0.9648
tp183
asI538
(lp184
(S'oh'
p185
g22
F0.9939
tp186
a(S'(.)'
p187
g22
F0.2871
tp188
a(S'gimme'
p189
g79
F0.6556
tp190
a(S'[:'
p191
g14
F0.9314
tp192
a(S'give'
p193
g6
F0.9992
tp194
a(S'me'
p195
g3
F0.9978
tp196
a(g16
g11
F0.9955
tp197
a(S'that'
p198
g38
F0.3886
tp199
a(S'(.)'
p200
g158
F0.3149
tp201
a(S'Jenny'
p202
S'^'
p203
F0.995
tp204
a(g45
g158
F0.4611
tp205
a(S'...'
p206
g26
F0.8317
tp207
asI943
(lp208
(S'sure'
p209
g63
F0.872
tp210
a(g18
g11
F0.9978
tp211
asI28
(lp212
(S"it's"
p213
g79
F0.9939
tp214
a(S'recording'
p215
g6
F0.8994
tp216
a(g10
g11
F0.9874
tp217
a(g85
g11
F0.9842
tp218
a(g16
g11
F0.9156
tp219
a(g18
g11
F0.995
tp220
asI541
(lp221
(g46
g46
F0.9893
tp222
a(g95
g11
F0.8762
tp223
a(S'whining'
p224
g6
F0.9956
tp225
a(g18
g11
F0.999
tp226
asI542
(lp227
(S'what'
p228
g3
F0.9171
tp229
a(g85
g11
F0.9924
tp230
asI31
(lp231
(S'right'
p232
g153
F0.7278
tp233
a(S'now'
p234
g153
F0.9892
tp235
a(g85
g11
F0.9986
tp236
asI734
(lp237
(S'(..)'
p238
g11
F0.3855
tp239
a(S'super'
p240
g63
F0.8148
tp241
a(S'woman'
p242
g41
F0.9931
tp243
a(g85
g11
F0.9977
tp244
asI545
(lp245
(g46
g46
F0.9893
tp246
a(g95
g11
F0.8772
tp247
a(S'babbling'
p248
g6
F0.9492
tp249
a(g18
g11
F0.9988
tp250
asI546
(lp251
(S'yyy'
p252
g153
F0.4629
tp253
a(g18
g11
F0.9941
tp254
asI35
(lp255
(S'mhm'
p256
g22
F0.9761
tp257
a(g18
g11
F0.9962
tp258
asI1041
(lp259
(S'Dad'
p260
g41
F0.8274
tp261
a(S'come'
p262
g6
F0.9914
tp263
a(S'here'
p264
g153
F0.9703
tp265
a(g22
g11
F0.9989
tp266
asI550
(lp267
(S'can'
p268
g6
F0.999
tp269
a(S'you'
p270
g3
F0.9981
tp271
a(S'wait'
p272
g6
F0.9996
tp273
a(S'for'
p274
g38
F0.998
tp275
a(S'a'
p276
g70
F0.9969
tp277
a(S'minute'
p278
g41
F0.9475
tp279
a(g85
g11
F0.9979
tp280
asI39
(lp281
(S'okay'
p282
g22
F0.8336
tp283
a(g46
g46
F0.988
tp284
a(g95
g11
F0.8844
tp285
a(S'singing'
p286
g6
F0.9911
tp287
a(g18
g11
F0.999
tp288
asI990
(lp289
(S'Tuesday'
p290
g203
F0.9267
tp291
a(g85
g11
F0.9966
tp292
asI554
(lp293
(S'xxx'
p294
g14
F0.78
tp295
a(S'yuck'
p296
g22
F0.9874
tp297
a(g18
g11
F0.9969
tp298
asI43
(lp299
(S'so'
p300
g38
F0.7418
tp301
a(S'what'
p302
g3
F0.9955
tp303
a(S'are'
p304
g6
F0.9982
tp305
a(S'you'
p306
g3
F0.9994
tp307
a(S'gonna'
p308
g6
F0.9998
tp309
a(S'do'
p310
g6
F0.9998
tp311
a(S'in'
p312
g38
F0.9376
tp313
a(S'school'
p314
g41
F0.9975
tp315
a(S'today'
p316
g41
F0.9962
tp317
a(g85
g11
F0.9975
tp318
asI557
(lp319
(S"they're"
p320
g79
F0.9692
tp321
a(S'on'
p322
g38
F0.9908
tp323
a(S'my'
p324
g70
F0.9979
tp325
a(S'foot'
p326
g41
F0.9994
tp327
a(g18
g11
F0.9985
tp328
asI560
(lp329
(S'Mommy'
p330
g41
F0.479
tp331
a(S'xxx'
p332
g6
F0.2668
tp333
a(S'for'
p334
g38
F0.9898
tp335
a(S'baby'
p336
g41
F0.9926
tp337
a(g18
g11
F0.9985
tp338
asI49
(lp339
(S'(..)'
p340
g14
F0.4292
tp341
a(g51
g3
F0.97
tp342
a(S'xxx'
p343
g6
F0.5753
tp344
a(S'(.)'
p345
g14
F0.2627
tp346
a(S'we'
p347
g3
F0.9951
tp348
a(S'goin(g'
p349
g6
F0.9905
tp350
a(g35
g11
F0.9938
tp351
a(S'to'
p352
g38
F0.9937
tp353
a(g276
g70
F0.9938
tp354
a(S'park'
p355
g41
F0.9356
tp356
a(g18
g11
F0.9987
tp357
asI563
(lp358
(S'right'
p359
g22
F0.7294
tp360
a(g18
g11
F0.9987
tp361
asI52
(lp362
(S'right'
p363
g22
F0.7325
tp364
a(g85
g11
F0.9985
tp365
asI606
(lp366
(S'your'
p367
g70
F0.9572
tp368
a(S'bus'
p369
g41
F0.9856
tp370
a(S'driver'
p371
g41
F0.9996
tp372
a(g18
g11
F0.9988
tp373
asI566
(lp374
(S'xxx'
p375
g14
F0.6565
tp376
a(S'want'
p377
g6
F0.9937
tp378
a(S'to'
p379
g38
F0.9257
tp380
a(g85
g11
F0.9948
tp381
asI56
(lp382
(S'mhm'
p383
g22
F0.9761
tp384
a(g18
g11
F0.9962
tp385
asI59
(lp386
(S'and'
p387
g46
F0.9986
tp388
a(S'(.)'
p389
g6
F0.331
tp390
a(S'you'
p391
g3
F0.9996
tp392
a(S'know'
p393
g6
F0.9985
tp394
a(S'what'
p395
g3
F0.9912
tp396
a(S'else'
p397
g153
F0.9298
tp398
a(g85
g11
F0.9977
tp399
asI769
(lp400
(S'would'
p401
g6
F0.9987
tp402
a(S'you'
p403
g3
F0.9948
tp404
a(S'like'
p405
g6
F0.7756
tp406
a(S'some'
p407
g70
F0.9786
tp408
a(S'milk'
p409
g41
F0.9952
tp410
a(g85
g11
F0.9971
tp411
asI1034
(lp412
(S'oops'
p413
g22
F0.9559
tp414
a(g10
g11
F0.98
tp415
a(g25
g26
F0.972
tp416
a(g16
g11
F0.9847
tp417
a(g18
g11
F0.9962
tp418
asI63
(lp419
(S"we're"
p420
g79
F0.9715
tp421
a(S'goin(g'
p422
g6
F0.7009
tp423
a(g35
g11
F0.9902
tp424
a(S'shoppin(g'
p425
g41
F0.9483
tp426
a(g35
g11
F0.9915
tp427
a(g18
g11
F0.9948
tp428
asI577
(lp429
(S'mhm'
p430
g22
F0.9761
tp431
a(g18
g11
F0.9962
tp432
asI66
(lp433
(S'shoppin(g'
p434
g41
F0.9565
tp435
a(g35
g11
F0.9792
tp436
a(g85
g11
F0.9961
tp437
asI580
(lp438
(S'oh'
p439
g22
F0.9984
tp440
a(g18
g11
F0.9938
tp441
asI70
(lp442
(S'yup'
p443
g22
F0.9973
tp444
a(g18
g11
F0.9971
tp445
asI583
(lp446
(S'that'
p447
g3
F0.6206
tp448
a(S'looks'
p449
g6
F0.9962
tp450
a(S'beautiful'
p451
g63
F0.9939
tp452
a(g18
g11
F0.9986
tp453
asI73
(lp454
(S'sure'
p455
g63
F0.865
tp456
a(g85
g11
F0.9967
tp457
asI586
(lp458
(S'mhm'
p459
g22
F0.9046
tp460
a(g10
g11
F0.979
tp461
a(g13
g14
F0.3811
tp462
a(g16
g11
F0.7604
tp463
a(g18
g11
F0.9962
tp464
asI77
(lp465
(S'xxx'
p466
g14
F0.7525
tp467
a(S'(.)'
p468
g14
F0.7929
tp469
a(S'my'
p470
g70
F0.9953
tp471
a(S'friends'
p472
g41
F0.9967
tp473
a(g18
g11
F0.9985
tp474
asI80
(lp475
(S'mm'
p476
g22
F0.5842
tp477
a(g18
g11
F0.9932
tp478
asI83
(lp479
(S'goin(g'
p480
g6
F0.8553
tp481
a(g35
g11
F0.9924
tp482
a(S'shoppin(g'
p483
g41
F0.9385
tp484
a(g35
g11
F0.9947
tp485
a(S'with'
p486
g38
F0.9847
tp487
a(S'(..)'
p488
g14
F0.5652
tp489
a(S'xxx'
p490
g14
F0.949
tp491
a(g18
g11
F0.9729
tp492
asI596
(lp493
(S'mhm'
p494
g22
F0.9761
tp495
a(g18
g11
F0.9962
tp496
asI87
(lp497
(S'(.)'
p498
g158
F0.3028
tp499
a(S'you'
p500
g3
F0.9975
tp501
a(S'can'
p502
g6
F0.9998
tp503
a(S'give'
p504
g6
F0.9999
tp505
a(S'me'
p506
g3
F0.9969
tp507
a(S'it'
p508
g3
F0.9299
tp509
a(g18
g11
F0.9989
tp510
asI90
(lp511
(S'just'
p512
g153
F0.9997
tp513
a(S'about'
p514
g38
F0.9209
tp515
a(S'fifteen'
p516
S'$'
p517
F0.8152
tp518
a(S'minutes'
p519
g41
F0.9971
tp520
a(g18
g11
F0.9986
tp521
asI94
(lp522
(S'two'
p523
g517
F0.9603
tp524
a(S'(.)'
p525
g14
F0.2107
tp526
a(S'Mommy'
p527
g41
F0.7983
tp528
a(g18
g11
F0.9987
tp529
asI1001
(lp530
(S'mhm'
p531
g22
F0.9761
tp532
a(g18
g11
F0.9962
tp533
asI97
(lp534
(S'what'
p535
g3
F0.9171
tp536
a(g85
g11
F0.9924
tp537
asI612
(lp538
(S'school'
p539
g41
F0.9747
tp540
a(S'time'
p541
g41
F0.9985
tp542
a(g18
g11
F0.998
tp543
asI101
(lp544
(S'are'
p545
g6
F0.9964
tp546
a(S'you'
p547
g3
F0.9995
tp548
a(S'going'
p549
g6
F0.9999
tp550
a(S'down'
p551
g132
F0.5254
tp552
a(S'to'
p553
g38
F0.9992
tp554
a(S'the'
p555
g70
F0.9987
tp556
a(S'garage'
p557
g41
F0.9907
tp558
a(g85
g11
F0.9987
tp559
asI615
(lp560
(S'yes'
p561
g22
F0.9961
tp562
a(g18
g11
F0.9972
tp563
asI956
(lp564
(S'same'
p565
g63
F0.9903
tp566
a(S'place'
p567
g41
F0.9757
tp568
a(S'it'
p569
g3
F0.9853
tp570
a(S'was'
p571
g6
F0.9982
tp572
a(S'last'
p573
g63
F0.9905
tp574
a(S'time'
p575
g41
F0.9997
tp576
a(g18
g11
F0.9979
tp577
asI106
(lp578
(S'xxx'
p579
g14
F0.5822
tp580
a(g18
g11
F0.9648
tp581
asI108
(lp582
(S'really'
p583
g153
F0.9969
tp584
a(g85
g11
F0.9957
tp585
asI621
(lp586
(S'oh'
p587
g22
F0.9961
tp588
a(S'[='
p589
g14
F0.9034
tp590
a(g22
g11
F0.9916
tp591
a(S'little'
p592
g63
F0.9825
tp593
a(S'yelp'
p594
g41
F0.8774
tp595
a(g16
g11
F0.9837
tp596
a(g22
g11
F0.9967
tp597
asI112
(lp598
(g46
g46
F0.9893
tp599
a(g95
g11
F0.8588
tp600
a(S'gasp'
p601
g41
F0.5519
tp602
a(g22
g11
F0.9985
tp603
asI114
(lp604
(S'(..)'
p605
g11
F0.4515
tp606
a(S'you'
p607
g3
F0.9934
tp608
a(S'proud'
p609
g63
F0.9697
tp610
a(S'of'
p611
g38
F0.9988
tp612
a(S'me'
p613
g3
F0.9975
tp614
a(g85
g11
F0.998
tp615
asI627
(lp616
(S'&-uh'
p617
g22
F0.7888
tp618
a(S'let'
p619
g6
F0.9978
tp620
a(S'me'
p621
g3
F0.9996
tp622
a(S'see'
p623
g6
F0.9291
tp624
a(g18
g11
F0.9978
tp625
asI118
(lp626
(S"I'm"
p627
g79
F0.9968
tp628
a(S'proud'
p629
g63
F0.998
tp630
a(S'o(f'
p631
g38
F0.4249
tp632
a(g35
g11
F0.9925
tp633
a(S'you'
p634
g3
F0.9731
tp635
a(g18
g11
F0.9994
tp636
asI121
(lp637
(S'Stephen'
p638
g203
F0.9908
tp639
a(S'you'
p640
g3
F0.9934
tp641
a(S'proud'
p642
g63
F0.9697
tp643
a(S'of'
p644
g38
F0.9987
tp645
a(S'me'
p646
g3
F0.999
tp647
a(S'because'
p648
g38
F0.9948
tp649
a(S'you'
p650
g3
F0.9998
tp651
a(S'going'
p652
g6
F0.9997
tp653
a(S'to'
p654
g38
F0.9797
tp655
a(S'school'
p656
g41
F0.9005
tp657
a(S'today'
p658
g41
F0.9988
tp659
a(g22
g11
F0.9956
tp660
asI703
(lp661
(g46
g46
F0.9893
tp662
a(g95
g11
F0.8588
tp663
a(S'chuckles'
p664
g6
F0.6671
tp665
a(g18
g11
F0.9971
tp666
asI618
(lp667
(S'and'
p668
g46
F0.9991
tp669
a(S'your'
p670
g70
F0.9369
tp671
a(S'teachers'
p672
g41
F0.9988
tp673
a(g18
g11
F0.9986
tp674
asI129
(lp675
(S'you'
p676
g3
F0.9979
tp677
a(S'going'
p678
g6
F0.9995
tp679
a(S'to'
p680
g38
F0.9623
tp681
a(S'school'
p682
g41
F0.9807
tp683
a(g22
g11
F0.999
tp684
asI642
(lp685
(S'oh'
p686
g22
F0.9978
tp687
a(S'that'
p688
g3
F0.7045
tp689
a(S'looks'
p690
g6
F0.9967
tp691
a(S'beautiful'
p692
g63
F0.9948
tp693
a(g18
g11
F0.9987
tp694
asI134
(lp695
(S'and'
p696
g46
F0.9989
tp697
a(S'you'
p698
g3
F0.9994
tp699
a(S'can'
p700
g6
F0.9996
tp701
a(S'go'
p702
g6
F0.9993
tp703
a(S'to'
p704
g38
F0.9871
tp705
a(S'school'
p706
g41
F0.9378
tp707
a(S'tomorrow'
p708
g41
F0.9308
tp709
a(S'and'
p710
g46
F0.9951
tp711
a(S'you'
p712
g3
F0.9993
tp713
a(S'get'
p714
g6
F0.9995
tp715
a(S'bigger'
p716
g63
F0.9892
tp717
a(S'too'
p718
g153
F0.9474
tp719
a(g18
g11
F0.9965
tp720
asI647
(lp721
(S'xxx'
p722
g14
F0.6042
tp723
a(S'that'
p724
g38
F0.9254
tp725
a(S'my'
p726
g70
F0.9978
tp727
a(S'name'
p728
g41
F0.9984
tp729
a(S'right'
p730
g153
F0.5217
tp731
a(S'up'
p732
g132
F0.4481
tp733
a(S'here'
p734
g153
F0.9854
tp735
a(g85
g11
F0.9985
tp736
asI139
(lp737
(S'go'
p738
g6
F0.9861
tp739
a(S'to'
p740
g38
F0.9978
tp741
a(S'my'
p742
g70
F0.833
tp743
a(g10
g11
F0.966
tp744
a(g22
g11
F0.9901
tp745
a(g16
g11
F0.9733
tp746
a(S'school'
p747
g41
F0.9535
tp748
a(S'right'
p749
g153
F0.5088
tp750
a(g85
g11
F0.9989
tp751
asI143
(lp752
(S'mhm'
p753
g22
F0.9761
tp754
a(g18
g11
F0.9962
tp755
asI1048
(lp756
(S'Daddy'
p757
g41
F0.8818
tp758
a(S'come'
p759
g6
F0.9914
tp760
a(S'here'
p761
g153
F0.9703
tp762
a(g22
g11
F0.9989
tp763
asI146
(lp764
(S'and'
p765
g46
F0.9987
tp766
a(S'not'
p767
g153
F0.9932
tp768
a(S'(.)'
p769
g158
F0.502
tp770
a(S'my'
p771
g70
F0.9946
tp772
a(S'old'
p773
g63
F0.999
tp774
a(S'school'
p775
g41
F0.9976
tp776
a(g85
g11
F0.9979
tp777
asI707
(lp778
(S'what'
p779
g3
F0.9171
tp780
a(g85
g11
F0.9924
tp781
asI661
(lp782
(S'Lastname'
p783
g41
F0.8661
tp784
a(g22
g11
F0.9988
tp785
asI150
(lp786
(S'mhm'
p787
g22
F0.9761
tp788
a(g18
g11
F0.9962
tp789
asI768
(lp790
(S'<&='
p791
g203
F0.2572
tp792
a(S'fusses'
p793
g6
F0.9424
tp794
a(g13
g14
F0.4007
tp795
a(g10
g14
F0.4963
tp796
a(g25
g26
F0.7259
tp797
a(g16
g11
F0.9803
tp798
a(g18
g11
F0.9959
tp799
asI664
(lp800
(S'(..)'
p801
g14
F0.4073
tp802
a(S'Stephen'
p803
g203
F0.9991
tp804
a(S'look'
p805
g6
F0.958
tp806
a(S'what'
p807
g3
F0.9834
tp808
a(S'we'
p809
g3
F0.9986
tp810
a(S'can'
p811
g6
F0.9997
tp812
a(S'wear'
p813
g6
F0.9978
tp814
a(S'to'
p815
g38
F0.9904
tp816
a(S'school'
p817
g41
F0.9554
tp818
a(S'today'
p819
g41
F0.9972
tp820
a(g22
g11
F0.9974
tp821
asI153
(lp822
(S'me'
p823
g3
F0.9975
tp824
a(S'not'
p825
g153
F0.9985
tp826
a(S'go'
p827
g6
F0.996
tp828
a(S'to'
p829
g38
F0.9972
tp830
a(S'my'
p831
g70
F0.9967
tp832
a(S'old'
p833
g63
F0.9992
tp834
a(S'school'
p835
g41
F0.9959
tp836
a(S'xxx'
p837
g41
F0.3873
tp838
a(g18
g11
F0.9986
tp839
asI704
(lp840
(S'Mommy'
p841
g41
F0.7911
tp842
a(g18
g11
F0.9983
tp843
asI157
(lp844
(S'you'
p845
g3
F0.9983
tp846
a(S'know'
p847
g6
F0.9999
tp848
a(S'your'
p849
g70
F0.9103
tp850
a(S'bus'
p851
g41
F0.9784
tp852
a(S"driver's"
p853
S'S'
p854
F0.636
tp855
a(S'name'
p856
g41
F0.9988
tp857
a(S'is'
p858
g6
F0.9968
tp859
a(S'Miss'
p860
g203
F0.7389
tp861
a(S'Paula'
p862
g203
F0.9999
tp863
a(g85
g11
F0.9955
tp864
asI1028
(lp865
(S'(.)'
p866
g203
F0.3464
tp867
a(S'Mom'
p868
g203
F0.8118
tp869
a(S'(.)'
p870
g203
F0.7401
tp871
a(S'put'
p872
g6
F0.992
tp873
a(S'my'
p874
g70
F0.9935
tp875
a(S'sign'
p876
g41
F0.9877
tp877
a(S'on'
p878
g38
F0.969
tp879
a(g18
g11
F0.9971
tp880
asI672
(lp881
(g46
g46
F0.9893
tp882
a(g95
g11
F0.8588
tp883
a(S'giggles'
p884
g41
F0.5863
tp885
a(g18
g11
F0.9982
tp886
asI624
(lp887
(S'oh'
p888
g22
F0.9961
tp889
a(S'[='
p890
g14
F0.9034
tp891
a(g22
g11
F0.9916
tp892
a(S'little'
p893
g63
F0.9825
tp894
a(S'yelp'
p895
g41
F0.7617
tp896
a(S'imitating'
p897
g6
F0.9692
tp898
a(S'Chi'
p899
g203
F0.9239
tp900
a(g16
g11
F0.9744
tp901
a(g18
g11
F0.9969
tp902
asI163
(lp903
(S'mhm'
p904
g22
F0.9761
tp905
a(g18
g11
F0.9962
tp906
asI602
(lp907
(S'it'
p908
g3
F0.9954
tp909
a(S'does'
p910
g6
F0.9984
tp911
a(g85
g11
F0.9974
tp912
asI166
(lp913
(g51
g3
F0.9985
tp914
a(S'learned'
p915
g6
F0.9999
tp916
a(S'my'
p917
g70
F0.9981
tp918
a(S"friend's"
p919
g854
F0.6251
tp920
a(S'name'
p921
g41
F0.9956
tp922
a(g18
g11
F0.9979
tp923
asI679
(lp924
(S'when'
p925
g153
F0.9804
tp926
a(S'you'
p927
g3
F0.9985
tp928
a(S'go'
p929
g6
F0.9989
tp930
a(S'to'
p931
g38
F0.9872
tp932
a(S'school'
p933
g6
F0.665
tp934
a(S'you'
p935
g3
F0.9991
tp936
a(S'can'
p937
g6
F0.9997
tp938
a(S'have'
p939
g6
F0.9999
tp940
a(S'it'
p941
g3
F0.9877
tp942
a(g18
g11
F0.9988
tp943
asI169
(lp944
(g51
g3
F0.9984
tp945
a(S'know'
p946
g6
F0.9998
tp947
a(S'we'
p948
g3
F0.9981
tp949
a(S'gonna'
p950
g6
F0.9999
tp951
a(S'wait'
p952
g6
F0.9991
tp953
a(S'+/'
p954
g203
F0.3332
tp955
a(g18
g11
F0.9933
tp956
asI711
(lp957
(S'xxx'
p958
g14
F0.6444
tp959
a(S'first'
p960
g63
F0.8237
tp961
a(S'bite'
p962
g41
F0.9726
tp963
a(g85
g11
F0.9969
tp964
asI172
(lp965
(S'xxx'
p966
g14
F0.7103
tp967
a(g85
g11
F0.9715
tp968
asI685
(lp969
(S'yep'
p970
g22
F0.9891
tp971
a(S'(.)'
p972
g203
F0.3922
tp973
a(S'and'
p974
g46
F0.9983
tp975
a(S'his'
p976
g70
F0.9116
tp977
a(S'will'
p978
g6
F0.7364
tp979
a(S'say'
p980
g6
F0.9977
tp981
a(S'Stephen'
p982
g203
F0.9996
tp983
a(g10
g11
F0.9781
tp984
a(g22
g11
F0.9901
tp985
a(g16
g11
F0.9629
tp986
a(S'Lastname'
p987
g41
F0.7947
tp988
a(g18
g11
F0.9979
tp989
asI174
(lp990
(S'what'
p991
g3
F0.9171
tp992
a(g85
g11
F0.9924
tp993
asI689
(lp994
(S'yours'
p995
g3
F0.9506
tp996
a(S'will'
p997
g6
F0.9959
tp998
a(S'say'
p999
g6
F0.9978
tp1000
a(S'Stephen'
p1001
g203
F0.9996
tp1002
a(g10
g11
F0.9781
tp1003
a(g22
g11
F0.9901
tp1004
a(g16
g11
F0.9717
tp1005
a(S'Last(name'
p1006
g41
F0.5611
tp1007
a(g35
g11
F0.9895
tp1008
a(g45
g158
F0.444
tp1009
a(S'...'
p1010
g26
F0.6984
tp1011
asI178
(lp1012
(S'Mom'
p1013
g41
F0.7126
tp1014
a(S"I'm"
p1015
g79
F0.9936
tp1016
a(S'gonna'
p1017
g6
F0.9962
tp1018
a(S'call'
p1019
g6
F0.9986
tp1020
a(S'him'
p1021
g3
F0.9915
tp1022
a(g18
g11
F0.998
tp1023
asI692
(lp1024
(S'what'
p1025
g3
F0.9171
tp1026
a(g85
g11
F0.9924
tp1027
asI181
(lp1028
(S'you'
p1029
g3
F0.9983
tp1030
a(S'know'
p1031
g6
F0.9999
tp1032
a(S'me'
p1033
g3
F0.9994
tp1034
a(S'have'
p1035
g6
F0.9832
tp1036
a(S'boys'
p1037
g41
F0.9992
tp1038
a(S'in'
p1039
g38
F0.9981
tp1040
a(S'my'
p1041
g70
F0.9964
tp1042
a(S'class'
p1043
g41
F0.9986
tp1044
a(g85
g11
F0.9982
tp1045
asI697
(lp1046
(S'he'
p1047
g3
F0.9887
tp1048
a(S"ain't"
p1049
g6
F0.9925
tp1050
a(S'five'
p1051
g517
F0.3494
tp1052
a(g22
g11
F0.9975
tp1053
asI187
(lp1054
(S'yeah'
p1055
g22
F0.9988
tp1056
a(g85
g11
F0.9966
tp1057
asI700
(lp1058
(S'oh'
p1059
g22
F0.9939
tp1060
a(S'(.)'
p1061
g203
F0.2671
tp1062
a(S'poor'
p1063
g63
F0.6729
tp1064
a(S'Stephen'
p1065
g203
F0.9942
tp1066
a(g18
g11
F0.9953
tp1067
asI949
(lp1068
(S'you'
p1069
g3
F0.9983
tp1070
a(S'know'
p1071
g6
F0.9987
tp1072
a(S'where'
p1073
g153
F0.9662
tp1074
a(S'it'
p1075
g3
F0.9988
tp1076
a(S'is'
p1077
g6
F0.9994
tp1078
a(g85
g11
F0.9968
tp1079
asI637
(lp1080
(S'when'
p1081
g153
F0.9604
tp1082
a(S'we'
p1083
g3
F0.9964
tp1084
a(S'get'
p1085
g6
F1.0
tp1086
a(S'you'
p1087
g3
F0.9997
tp1088
a(S'dressed'
p1089
g6
F0.9994
tp1090
a(S"you'll"
p1091
g79
F0.9466
tp1092
a(S'wear'
p1093
g6
F0.9997
tp1094
a(S'it'
p1095
g3
F0.9911
tp1096
a(S'yup'
p1097
g22
F0.9698
tp1098
a(g18
g11
F0.9978
tp1099
asI192
(lp1100
(S'me'
p1101
g3
F0.9988
tp1102
a(S'have'
p1103
g6
F0.9688
tp1104
a(S'boy'
p1105
g41
F0.9962
tp1106
a(S'named'
p1107
g6
F0.9895
tp1108
a(S'Waverly'
p1109
g203
F0.9582
tp1110
a(g18
g11
F0.9963
tp1111
asI195
(lp1112
(S'yeah'
p1113
g22
F0.9988
tp1114
a(g85
g11
F0.9966
tp1115
asI1007
(lp1116
(S'me'
p1117
g3
F0.995
tp1118
a(S'proud'
p1119
g63
F0.9915
tp1120
a(S'o(f'
p1121
g38
F0.4249
tp1122
a(g35
g11
F0.9935
tp1123
a(S'you'
p1124
g3
F0.9562
tp1125
a(S'teacher'
p1126
g41
F0.9497
tp1127
a(g18
g11
F0.9983
tp1128
asI630
(lp1129
(S'Jenny'
p1130
g203
F0.9957
tp1131
a(S'Lastname'
p1132
g203
F0.6853
tp1133
a(g18
g11
F0.9964
tp1134
asI199
(lp1135
(S'and'
p1136
g46
F0.9986
tp1137
a(S'(.)'
p1138
g14
F0.3162
tp1139
a(S'he'
p1140
g3
F0.9942
tp1141
a(S'sits'
p1142
g6
F0.9972
tp1143
a(S'next'
p1144
g153
F0.5076
tp1145
a(S'to'
p1146
g38
F0.9988
tp1147
a(S'me'
p1148
g3
F0.9988
tp1149
a(S'and'
p1150
g46
F0.9932
tp1151
a(S'you'
p1152
g3
F0.9997
tp1153
a(S'know'
p1154
g6
F0.9987
tp1155
a(S'what'
p1156
g3
F0.9923
tp1157
a(S'else'
p1158
g153
F0.8978
tp1159
a(g85
g11
F0.9974
tp1160
asI715
(lp1161
(S'mhm'
p1162
g22
F0.9761
tp1163
a(g18
g11
F0.9962
tp1164
asI205
(lp1165
(S'what'
p1166
g3
F0.9171
tp1167
a(g85
g11
F0.9924
tp1168
asI718
(lp1169
(S'was'
p1170
g6
F0.9947
tp1171
a(S'anybody'
p1172
g41
F0.8548
tp1173
a(S'outside'
p1174
g153
F0.4493
tp1175
a(g85
g11
F0.9984
tp1176
asI765
(lp1177
(g25
g26
F0.9526
tp1178
a(g51
g3
F0.9976
tp1179
a(S'feel'
p1180
g6
F0.9989
tp1181
a(S'xxx'
p1182
g14
F0.7624
tp1183
a(g10
g11
F0.8608
tp1184
a(S'>]>'
p1185
g158
F0.2374
tp1186
a(S'[/]'
p1187
g158
F0.3842
tp1188
a(g51
g3
F0.996
tp1189
a(S'feel'
p1190
g6
F0.9998
tp1191
a(S'the'
p1192
g70
F0.9995
tp1193
a(S'whole'
p1194
g63
F0.9837
tp1195
a(S'thing'
p1196
g41
F0.9975
tp1197
a(S'xxx'
p1198
g14
F0.6585
tp1199
a(g18
g11
F0.9835
tp1200
asI209
(lp1201
(S'he'
p1202
g3
F0.996
tp1203
a(S'does'
p1204
g6
F0.9999
tp1205
a(S'to'
p1206
g38
F0.9865
tp1207
a(S'me'
p1208
g3
F0.9973
tp1209
a(g85
g11
F0.9984
tp1210
asI722
(lp1211
(S"we'll"
p1212
g79
F0.9665
tp1213
a(S'see'
p1214
g6
F0.9971
tp1215
a(S'what'
p1216
g70
F0.7783
tp1217
a(S'time'
p1218
g41
F0.9984
tp1219
a(S'(.)'
p1220
g14
F0.4282
tp1221
a(S'okay'
p1222
g22
F0.7529
tp1223
a(g85
g11
F0.9982
tp1224
asI547
(lp1225
(S'now'
p1226
g153
F0.9927
tp1227
a(S'do'
p1228
g6
F0.9991
tp1229
a(S'that'
p1230
g3
F0.8757
tp1231
a(S'for'
p1232
g38
F0.9938
tp1233
a(S'xxx'
p1234
g14
F0.2806
tp1235
a(g18
g11
F0.9527
tp1236
asI213
(lp1237
(S'he'
p1238
g3
F0.9961
tp1239
a(S'likes'
p1240
g6
F0.9998
tp1241
a(S'to'
p1242
g38
F0.9922
tp1243
a(S'play'
p1244
g6
F0.9982
tp1245
a(S'with'
p1246
g38
F0.9987
tp1247
a(S'me'
p1248
g3
F0.9959
tp1249
a(S'every'
p1250
g70
F0.9552
tp1251
a(S'time'
p1252
g41
F0.9984
tp1253
a(S'with'
p1254
g38
F0.9998
tp1255
a(S'my'
p1256
g70
F0.9992
tp1257
a(S'toys'
p1258
g41
F0.9993
tp1259
a(g18
g11
F0.9979
tp1260
asI726
(lp1261
(S'mhm'
p1262
g22
F0.9761
tp1263
a(g18
g11
F0.9962
tp1264
asI633
(lp1265
(g51
g3
F0.9974
tp1266
a(S'wear'
p1267
g6
F0.9998
tp1268
a(S'it'
p1269
g3
F0.9733
tp1270
a(g85
g11
F0.999
tp1271
asI729
(lp1272
(S'alright'
p1273
g22
F0.9463
tp1274
a(S'\xe2\x86\x91'
p1275
g158
F0.2819
tp1276
a(S'alright'
p1277
g22
F0.8796
tp1278
a(g85
g11
F0.998
tp1279
asI218
(lp1280
(S'yeah'
p1281
g22
F0.9988
tp1282
a(g85
g11
F0.9966
tp1283
asI907
(lp1284
(S'right'
p1285
g22
F0.7325
tp1286
a(g85
g11
F0.9985
tp1287
asI222
(lp1288
(S'yup'
p1289
g22
F0.9973
tp1290
a(g18
g11
F0.9971
tp1291
asI225
(lp1292
(S'he'
p1293
g3
F0.8873
tp1294
a(S'friendly'
p1295
g63
F0.9919
tp1296
a(g18
g11
F0.9985
tp1297
asI738
(lp1298
(S'what'
p1299
g3
F0.9835
tp1300
a(S'are'
p1301
g6
F0.9978
tp1302
a(S'you'
p1303
g3
F0.9993
tp1304
a(S'shaking'
p1305
g6
F0.9988
tp1306
a(g46
g46
F0.9881
tp1307
a(g95
g11
F0.8672
tp1308
a(S'laughs'
p1309
g6
F0.8873
tp1310
a(g18
g11
F0.9982
tp1311
asI229
(lp1312
(S'and'
p1313
g46
F0.9991
tp1314
a(S'your'
p1315
g70
F0.9388
tp1316
a(S'teachers'
p1317
g41
F0.9976
tp1318
a(S"'"
p1319
g11
F0.9804
tp1320
a(S'names'
p1321
g41
F0.9968
tp1322
a(S'are'
p1323
g6
F0.9935
tp1324
a(S'Miss'
p1325
g203
F0.4633
tp1326
a(S'Doris'
p1327
g203
F0.9999
tp1328
a(S'and'
p1329
g46
F0.9982
tp1330
a(S'Miss'
p1331
g203
F0.6602
tp1332
a(S'(.)'
p1333
g203
F0.675
tp1334
a(S'Janine'
p1335
g203
F0.9998
tp1336
a(g18
g11
F0.9938
tp1337
asI745
(lp1338
(S"I'm"
p1339
g79
F0.9971
tp1340
a(S'just'
p1341
g153
F0.999
tp1342
a(S'stretchin(g'
p1343
g6
F0.9817
tp1344
a(g35
g11
F0.9952
tp1345
a(g18
g11
F0.9961
tp1346
asI235
(lp1347
(S'Miss'
p1348
g203
F0.342
tp1349
a(S'Janine'
p1350
g203
F0.9999
tp1351
a(g85
g11
F0.9958
tp1352
asI748
(lp1353
(S'yep'
p1354
g22
F0.9923
tp1355
a(S'[/]'
p1356
g11
F0.4808
tp1357
a(S'yep'
p1358
g22
F0.9736
tp1359
a(S'[/]'
p1360
g11
F0.5537
tp1361
a(S'yep'
p1362
g22
F0.8724
tp1363
a(S'people'
p1364
g41
F0.9942
tp1365
a(S'do'
p1366
g6
F0.9984
tp1367
a(S'right'
p1368
g153
F0.5256
tp1369
a(g85
g11
F0.9989
tp1370
asI239
(lp1371
(S'mhm'
p1372
g22
F0.9761
tp1373
a(g18
g11
F0.9962
tp1374
asI752
(lp1375
(S'mhm'
p1376
g22
F0.9761
tp1377
a(g18
g11
F0.9962
tp1378
asI242
(lp1379
(g25
g26
F0.9115
tp1380
a(S"that's"
p1381
g79
F0.9879
tp1382
a(S'&-um'
p1383
g158
F0.5997
tp1384
a(g13
g158
F0.5782
tp1385
a(S'[/]'
p1386
g158
F0.303
tp1387
a(S"that's"
p1388
g79
F0.9844
tp1389
a(S'&-um'
p1390
g158
F0.513
tp1391
a(S'xxx'
p1392
g158
F0.4203
tp1393
a(g18
g11
F0.995
tp1394
asI755
(lp1395
(S'they'
p1396
g3
F0.9817
tp1397
a(S'make'
p1398
g6
F0.9981
tp1399
a(S'good'
p1400
g63
F0.9898
tp1401
a(S'xxx'
p1402
g41
F0.6793
tp1403
a(g18
g11
F0.9984
tp1404
asI245
(lp1405
(g25
g26
F0.9147
tp1406
a(S'can'
p1407
g6
F0.9995
tp1408
a(S'you'
p1409
g3
F0.9987
tp1410
a(S'try'
p1411
g6
F0.9987
tp1412
a(S'to'
p1413
g38
F0.9867
tp1414
a(S'say'
p1415
g6
F0.9997
tp1416
a(S'her'
p1417
g70
F0.9624
tp1418
a(S'name'
p1419
g41
F0.9997
tp1420
a(g13
g14
F0.6217
tp1421
a(g10
g14
F0.5345
tp1422
a(g13
g14
F0.9597
tp1423
a(g16
g11
F0.4989
tp1424
a(g85
g11
F0.9952
tp1425
asI758
(lp1426
(S'(..)'
p1427
g14
F0.3925
tp1428
a(S'Mom'
p1429
g41
F0.751
tp1430
a(S"I'm"
p1431
g79
F0.9839
tp1432
a(S'xxx'
p1433
g14
F0.4417
tp1434
a(g18
g11
F0.9688
tp1435
asI1031
(lp1436
(S'oh'
p1437
g22
F0.9941
tp1438
a(g10
g11
F0.9741
tp1439
a(g13
g14
F0.3811
tp1440
a(g16
g11
F0.7604
tp1441
a(g18
g11
F0.9962
tp1442
asI249
(lp1443
(S'Janine'
p1444
g203
F0.9952
tp1445
a(g10
g11
F0.9832
tp1446
a(g25
g26
F0.972
tp1447
a(g16
g11
F0.974
tp1448
a(g85
g11
F0.9963
tp1449
asI997
(lp1450
(S'me'
p1451
g3
F0.9952
tp1452
a(S'[//]'
p1453
g11
F0.3947
tp1454
a(S'(.)'
p1455
g158
F0.3403
tp1456
a(S'xxx'
p1457
g158
F0.4222
tp1458
a(S'me'
p1459
g3
F0.9988
tp1460
a(S'have'
p1461
g6
F0.999
tp1462
a(g276
g70
F0.9988
tp1463
a(S'day'
p1464
g41
F0.9986
tp1465
a(S'off'
p1466
g38
F0.5168
tp1467
a(g85
g11
F0.9974
tp1468
asI253
(lp1469
(S'mhm'
p1470
g22
F0.9761
tp1471
a(g18
g11
F0.9962
tp1472
asI256
(lp1473
(S'me'
p1474
g3
F0.9968
tp1475
a(S'like'
p1476
g38
F0.8155
tp1477
a(S'what'
p1478
g3
F0.9957
tp1479
a(S'me'
p1480
g3
F0.9975
tp1481
a(S'(.)'
p1482
g158
F0.4406
tp1483
a(S"Janine's"
p1484
S'Z'
p1485
F0.9283
tp1486
a(S'name'
p1487
g41
F0.9965
tp1488
a(g18
g11
F0.9985
tp1489
asI571
(lp1490
(S'(..)'
p1491
g11
F0.4515
tp1492
a(S'you'
p1493
g3
F0.9974
tp1494
a(S'gonna'
p1495
g6
F0.9996
tp1496
a(S'wear'
p1497
g6
F0.9993
tp1498
a(g276
g70
F0.9681
tp1499
a(S'[/]'
p1500
g158
F0.2492
tp1501
a(S'(.)'
p1502
g158
F0.6395
tp1503
a(g276
g70
F0.983
tp1504
a(S'necklace'
p1505
g41
F0.988
tp1506
a(S'with'
p1507
g38
F0.9996
tp1508
a(g276
g70
F0.9991
tp1509
a(S'thing'
p1510
g41
F0.9986
tp1511
a(S'today'
p1512
g41
F0.9821
tp1513
a(g85
g11
F0.9988
tp1514
asI260
(lp1515
(S'what'
p1516
g3
F0.9777
tp1517
a(S'about'
p1518
g38
F0.9756
tp1519
a(S'Miss'
p1520
g203
F0.7547
tp1521
a(S'Doris'
p1522
g203
F0.9998
tp1523
a(g18
g11
F0.9953
tp1524
asI773
(lp1525
(S'(.)'
p1526
g203
F0.3476
tp1527
a(S'milk'
p1528
g41
F0.94
tp1529
a(g85
g11
F0.9969
tp1530
asI263
(lp1531
(S'you'
p1532
g3
F0.9923
tp1533
a(S'like'
p1534
g6
F0.8526
tp1535
a(S'that'
p1536
g70
F0.7509
tp1537
a(S'name'
p1538
g41
F0.9993
tp1539
a(S'too'
p1540
g153
F0.9768
tp1541
a(g85
g11
F0.9964
tp1542
asI777
(lp1543
(S'milk'
p1544
g41
F0.9854
tp1545
a(g85
g11
F0.9968
tp1546
asI267
(lp1547
(S"who's"
p1548
g79
F0.9675
tp1549
a(S'that'
p1550
g3
F0.7145
tp1551
a(g85
g11
F0.9981
tp1552
asI781
(lp1553
(S'yep'
p1554
g22
F0.9874
tp1555
a(S'xxx'
p1556
g14
F0.5037
tp1557
a(S'there'
p1558
g153
F0.7378
tp1559
a(g18
g11
F0.9982
tp1560
asI271
(lp1561
(S"that's"
p1562
g79
F0.9768
tp1563
a(S'your'
p1564
g70
F0.9836
tp1565
a(S'other'
p1566
g63
F0.9545
tp1567
a(S'teacher'
p1568
g41
F0.9964
tp1569
a(g18
g11
F0.9985
tp1570
asI784
(lp1571
(S"how's"
p1572
g79
F0.8257
tp1573
a(S'he'
p1574
g3
F0.9969
tp1575
a(S'done'
p1576
g6
F0.9938
tp1577
a(g18
g11
F0.999
tp1578
asI274
(lp1579
(S'oh'
p1580
g22
F0.9994
tp1581
a(g22
g11
F0.9921
tp1582
asI787
(lp1583
(S'xxx'
p1584
g14
F0.5822
tp1585
a(g18
g11
F0.9648
tp1586
asI788
(lp1587
(S'oh'
p1588
g22
F0.9858
tp1589
a(S'wait'
p1590
g6
F0.989
tp1591
a(g276
g70
F0.994
tp1592
a(S'minute'
p1593
g41
F0.9228
tp1594
a(S'xxx'
p1595
g14
F0.4333
tp1596
a(S'take'
p1597
g6
F0.9978
tp1598
a(S'my'
p1599
g70
F0.9444
tp1600
a(g10
g11
F0.9559
tp1601
a(g22
g11
F0.9901
tp1602
a(g16
g11
F0.9137
tp1603
a(S'xxx'
p1604
g14
F0.7112
tp1605
a(S'one'
p1606
g517
F0.9298
tp1607
a(g18
g11
F0.997
tp1608
asI277
(lp1609
(S'do'
p1610
g6
F0.9985
tp1611
a(S'you'
p1612
g3
F0.9994
tp1613
a(S'wanna'
p1614
g6
F0.9979
tp1615
a(S'wear'
p1616
g6
F0.9994
tp1617
a(S'your'
p1618
g70
F0.9944
tp1619
a(S'new'
p1620
g63
F0.9953
tp1621
a(S'jeans'
p1622
g41
F0.8677
tp1623
a(S'to'
p1624
g38
F0.9983
tp1625
a(S'school'
p1626
g41
F0.9554
tp1627
a(S'today'
p1628
g41
F0.9944
tp1629
a(g85
g11
F0.9979
tp1630
asI791
(lp1631
(S'yyy'
p1632
g153
F0.4629
tp1633
a(g18
g11
F0.9941
tp1634
asI792
(lp1635
(S'yyy'
p1636
g153
F0.4629
tp1637
a(g18
g11
F0.9941
tp1638
asI793
(lp1639
(g46
g46
F0.9893
tp1640
a(g95
g11
F0.8588
tp1641
a(S'giggles'
p1642
g41
F0.5863
tp1643
a(g18
g11
F0.9982
tp1644
asI794
(lp1645
(S'0'
p1646
g517
F0.9816
tp1647
a(S'[='
p1648
g14
F0.9666
tp1649
a(g22
g11
F0.986
tp1650
a(S'giggles'
p1651
g6
F0.9446
tp1652
a(S'imitating'
p1653
g6
F0.9885
tp1654
a(S'Bro'
p1655
g41
F0.9744
tp1656
a(g16
g11
F0.9946
tp1657
a(g18
g11
F0.9962
tp1658
asI283
(lp1659
(S'yes'
p1660
g22
F0.9984
tp1661
a(g22
g11
F0.997
tp1662
asI286
(lp1663
(S'and'
p1664
g46
F0.9989
tp1665
a(S'my'
p1666
g70
F0.994
tp1667
a(S'new'
p1668
g63
F0.9983
tp1669
a(S'shoes'
p1670
g41
F0.9947
tp1671
a(g10
g11
F0.9884
tp1672
a(g22
g11
F0.9901
tp1673
a(g16
g11
F0.9866
tp1674
a(S'and'
p1675
g46
F0.9988
tp1676
a(g45
g46
F0.5352
tp1677
a(S'...'
p1678
g11
F0.5782
tp1679
asI289
(lp1680
(S'xxx'
p1681
g14
F0.6597
tp1682
a(S"didn't"
p1683
g6
F0.9993
tp1684
a(S'buy'
p1685
g6
F0.9999
tp1686
a(S'me'
p1687
g3
F0.9539
tp1688
a(S'new'
p1689
g63
F0.996
tp1690
a(S'shoes'
p1691
g41
F0.9938
tp1692
a(g18
g11
F0.9986
tp1693
asI899
(lp1694
(S'yeah'
p1695
g22
F0.9932
tp1696
a(g46
g46
F0.99
tp1697
a(g95
g11
F0.8743
tp1698
a(S'laughs'
p1699
g6
F0.8183
tp1700
a(g18
g11
F0.9983
tp1701
asI803
(lp1702
(S'yeah'
p1703
g22
F0.9988
tp1704
a(g85
g11
F0.9966
tp1705
asI292
(lp1706
(S'well'
p1707
g22
F0.8726
tp1708
a(S'(.)'
p1709
g11
F0.2663
tp1710
a(S"we'll"
p1711
g79
F0.9436
tp1712
a(S'buy'
p1713
g6
F0.9996
tp1714
a(S'you'
p1715
g3
F0.973
tp1716
a(S'new'
p1717
g63
F0.9982
tp1718
a(S'shoes'
p1719
g41
F0.9944
tp1720
a(g18
g11
F0.9988
tp1721
asI902
(lp1722
(S'and'
p1723
g46
F0.9991
tp1724
a(S'we'
p1725
g3
F0.9978
tp1726
a(S'got'
p1727
g6
F0.9987
tp1728
a(S'xxx'
p1729
g14
F0.4484
tp1730
a(S'we'
p1731
g3
F0.9962
tp1732
a(S'got'
p1733
g6
F0.9992
tp1734
a(S'popcorn'
p1735
g41
F0.7697
tp1736
a(S'and'
p1737
g46
F0.9977
tp1738
a(S'(.)'
p1739
g203
F0.1932
tp1740
a(S'everything'
p1741
g41
F0.9734
tp1742
a(g22
g11
F0.9988
tp1743
asI994
(lp1744
(S'mhm'
p1745
g22
F0.9761
tp1746
a(g18
g11
F0.9962
tp1747
asI295
(lp1748
(S'(.)'
p1749
g203
F0.2949
tp1750
a(S'Mom'
p1751
g203
F0.5171
tp1752
a(g18
g11
F0.9953
tp1753
asI298
(lp1754
(S'what'
p1755
g3
F0.9171
tp1756
a(g85
g11
F0.9924
tp1757
asI811
(lp1758
(S'okay'
p1759
g22
F0.9732
tp1760
a(g85
g11
F0.9976
tp1761
asI302
(lp1762
(S'&-um'
p1763
g22
F0.7959
tp1764
a(S'(.)'
p1765
g11
F0.2174
tp1766
a(S'you'
p1767
g3
F0.9976
tp1768
a(S'sit'
p1769
g6
F0.9986
tp1770
a(S'right'
p1771
g153
F0.9257
tp1772
a(S'here'
p1773
g153
F0.9862
tp1774
a(g18
g11
F0.9985
tp1775
asI815
(lp1776
(S'tell'
p1777
g6
F0.9045
tp1778
a(S'Daddy'
p1779
g41
F0.7997
tp1780
a(S"it's"
p1781
g79
F0.9577
tp1782
a(S'time'
p1783
g41
F0.9816
tp1784
a(S'to'
p1785
g38
F0.999
tp1786
a(S'get'
p1787
g6
F1.0
tp1788
a(S'up'
p1789
g132
F0.9599
tp1790
a(S'for'
p1791
g38
F0.998
tp1792
a(S'work'
p1793
g41
F0.9752
tp1794
a(g18
g11
F0.9985
tp1795
asI305
(lp1796
(S'(.)'
p1797
g203
F0.3464
tp1798
a(S'Mom'
p1799
g41
F0.5557
tp1800
a(g51
g3
F0.9909
tp1801
a(S'talk'
p1802
g6
F0.9997
tp1803
a(S'about'
p1804
g38
F0.9967
tp1805
a(S'my'
p1806
g70
F0.9969
tp1807
a(S'friends'
p1808
g41
F0.9916
tp1809
a(g85
g11
F0.9982
tp1810
asI309
(lp1811
(S'mhm'
p1812
g22
F0.9761
tp1813
a(g18
g11
F0.9962
tp1814
asI312
(lp1815
(S'Mom'
p1816
g41
F0.5411
tp1817
a(S'you'
p1818
g3
F0.9971
tp1819
a(S'know'
p1820
g6
F0.9978
tp1821
a(g25
g26
F0.6611
tp1822
a(S'me'
p1823
g3
F0.999
tp1824
a(S'have'
p1825
g6
F0.9992
tp1826
a(S'all'
p1827
g70
F0.9405
tp1828
a(g13
g158
F0.421
tp1829
a(S'[/]'
p1830
g158
F0.2558
tp1831
a(S'me'
p1832
g3
F0.9989
tp1833
a(S'have'
p1834
g6
F0.9992
tp1835
a(S'all'
p1836
g70
F0.9492
tp1837
a(S'&-um'
p1838
g70
F0.34
tp1839
a(S'toys'
p1840
g41
F0.994
tp1841
a(S'here'
p1842
g153
F0.9911
tp1843
a(S'right'
p1844
g153
F0.7211
tp1845
a(g85
g11
F0.9982
tp1846
asI825
(lp1847
(S'no'
p1848
g22
F0.8389
tp1849
a(g10
g11
F0.9909
tp1850
a(g22
g11
F0.9842
tp1851
a(g16
g11
F0.9868
tp1852
a(S'not'
p1853
g153
F0.9662
tp1854
a(S'my'
p1855
g70
F0.7985
tp1856
a(g10
g11
F0.9559
tp1857
a(g22
g11
F0.9901
tp1858
a(g16
g11
F0.9817
tp1859
a(S'sign'
p1860
g6
F0.4937
tp1861
a(g22
g11
F0.9978
tp1862
asI828
(lp1863
(S'not'
p1864
g153
F0.9739
tp1865
a(S'your'
p1866
g70
F0.6295
tp1867
a(g10
g11
F0.9248
tp1868
a(g22
g11
F0.9922
tp1869
a(g16
g11
F0.9757
tp1870
a(S'sign'
p1871
g41
F0.5055
tp1872
a(S'huh'
p1873
g22
F0.901
tp1874
a(g85
g11
F0.9979
tp1875
asI318
(lp1876
(S'mhm'
p1877
g22
F0.9761
tp1878
a(g18
g11
F0.9962
tp1879
asI821
(lp1880
(S'anybody'
p1881
g41
F0.9384
tp1882
a(S'call'
p1883
g6
F0.9917
tp1884
a(S'me'
p1885
g3
F0.9984
tp1886
a(S'for'
p1887
g38
F0.9936
tp1888
a(S'work'
p1889
g41
F0.9519
tp1890
a(g85
g11
F0.9965
tp1891
asI832
(lp1892
(S'mm'
p1893
g22
F0.5842
tp1894
a(g18
g11
F0.9932
tp1895
asI321
(lp1896
(S'oh'
p1897
g22
F0.9939
tp1898
a(S'(.)'
p1899
g22
F0.3346
tp1900
a(S'oops'
p1901
g22
F0.9838
tp1902
a(g18
g11
F0.9973
tp1903
asI651
(lp1904
(S"that's"
p1905
g79
F0.9768
tp1906
a(S'your'
p1907
g70
F0.9886
tp1908
a(S'name'
p1909
g41
F0.9999
tp1910
a(g18
g11
F0.9984
tp1911
asI324
(lp1912
(S'excuse'
p1913
g41
F0.5736
tp1914
a(g25
g26
F0.4757
tp1915
a(S'me'
p1916
g3
F0.9664
tp1917
a(S'Mom'
p1918
g41
F0.6464
tp1919
a(g13
g14
F0.601
tp1920
a(g10
g14
F0.5345
tp1921
a(g13
g14
F0.9732
tp1922
a(g16
g11
F0.8062
tp1923
a(g18
g11
F0.9969
tp1924
asI838
(lp1925
(S'you'
p1926
g3
F0.9938
tp1927
a(g46
g46
F0.9769
tp1928
a(g95
g11
F0.8378
tp1929
a(S'laughs'
p1930
g6
F0.9705
tp1931
a(S'love'
p1932
g6
F0.9306
tp1933
a(S'your'
p1934
g70
F0.9249
tp1935
a(S'sign'
p1936
g41
F0.9964
tp1937
a(g85
g11
F0.9973
tp1938
asI327
(lp1939
(S'yes'
p1940
g22
F0.9832
tp1941
a(g10
g11
F0.9851
tp1942
a(g25
g26
F0.972
tp1943
a(g16
g11
F0.9847
tp1944
a(g18
g11
F0.9962
tp1945
asI795
(lp1946
(S'think'
p1947
g6
F0.9915
tp1948
a(S"that's"
p1949
g79
F0.9966
tp1950
a(S'funny'
p1951
g63
F0.9997
tp1952
a(S'huh'
p1953
g22
F0.8506
tp1954
a(g85
g11
F0.998
tp1955
asI330
(lp1956
(S'you'
p1957
g3
F0.9916
tp1958
a(S'burped'
p1959
g6
F0.8072
tp1960
a(g85
g11
F0.997
tp1961
asI845
(lp1962
(g51
g3
F0.9967
tp1963
a(S'keep'
p1964
g6
F0.9998
tp1965
a(S'it'
p1966
g3
F0.9707
tp1967
a(g85
g11
F0.999
tp1968
asI334
(lp1969
(S'yuck'
p1970
g22
F0.9922
tp1971
a(S'[/]'
p1972
g11
F0.4147
tp1973
a(S'yuck'
p1974
g22
F0.9679
tp1975
a(S'[/]'
p1976
g11
F0.4673
tp1977
a(S'yuck'
p1978
g22
F0.9849
tp1979
a(g18
g11
F0.9963
tp1980
asI967
(lp1981
(S'eight'
p1982
g517
F0.8448
tp1983
a(S'thirty'
p1984
g63
F0.3222
tp1985
a(S'to'
p1986
g38
F0.9961
tp1987
a(S'one'
p1988
g517
F0.9722
tp1989
a(S'thirty'
p1990
g63
F0.4137
tp1991
a(S'Tuesday'
p1992
g203
F0.6911
tp1993
a(S'through'
p1994
g38
F0.9888
tp1995
a(S'Friday'
p1996
g203
F0.9848
tp1997
a(g18
g11
F0.9982
tp1998
asI1051
(lp1999
(S'(.)'
p2000
g203
F0.3367
tp2001
a(S'let'
p2002
g6
F0.9983
tp2003
a(S'me'
p2004
g3
F0.9995
tp2005
a(S'go'
p2006
g6
F0.9346
tp2007
a(g18
g11
F0.9979
tp2008
asI337
(lp2009
(S'yuck'
p2010
g22
F0.9922
tp2011
a(S'[/]'
p2012
g11
F0.4147
tp2013
a(S'yuck'
p2014
g22
F0.9679
tp2015
a(S'[/]'
p2016
g11
F0.4673
tp2017
a(S'yuck'
p2018
g22
F0.9849
tp2019
a(g18
g11
F0.9963
tp2020
asI850
(lp2021
(S'sure'
p2022
g63
F0.872
tp2023
a(g18
g11
F0.9978
tp2024
asI340
(lp2025
(S"that's"
p2026
g79
F0.9974
tp2027
a(S'not'
p2028
g153
F0.9938
tp2029
a(S'poached'
p2030
g63
F0.7697
tp2031
a(g18
g11
F0.9984
tp2032
asI853
(lp2033
(S'(..)'
p2034
g14
F0.3743
tp2035
a(S'lick'
p2036
g6
F0.9854
tp2037
a(S'your'
p2038
g70
F0.9962
tp2039
a(S'mouth'
p2040
g41
F0.9999
tp2041
a(g18
g11
F0.9985
tp2042
asI1025
(lp2043
(S"you're"
p2044
g79
F0.9777
tp2045
a(S'welcome'
p2046
g63
F0.8002
tp2047
a(g18
g11
F0.9976
tp2048
asI343
(lp2049
(S'yeah'
p2050
g22
F0.9903
tp2051
a(S'it'
p2052
g3
F0.9989
tp2053
a(S'is'
p2054
g6
F0.9995
tp2055
a(g18
g11
F0.9979
tp2056
asI857
(lp2057
(S'do'
p2058
g6
F0.9985
tp2059
a(S'you'
p2060
g3
F0.9997
tp2061
a(S'know'
p2062
g6
F0.9983
tp2063
a(S'who'
p2064
g3
F0.9982
tp2065
a(S'got'
p2066
g6
F0.9999
tp2067
a(S'me'
p2068
g3
F0.9988
tp2069
a(S'that'
p2070
g38
F0.4432
tp2071
a(g85
g11
F0.9979
tp2072
asI346
(lp2073
(S"it's"
p2074
g79
F0.9952
tp2075
a(S'stuck'
p2076
g63
F0.4952
tp2077
a(g18
g11
F0.9981
tp2078
asI655
(lp2079
(S'J'
p2080
g158
F0.4424
tp2081
a(S'@l'
p2082
S'@'
p2083
F0.9941
tp2084
a(g14
g158
F0.3947
tp2085
a(S'@l'
p2086
g2083
F0.9949
tp2087
a(g41
g46
F0.8206
tp2088
a(S'@l'
p2089
g2083
F0.9951
tp2090
a(g41
g46
F0.8206
tp2091
a(S'@l'
p2092
g2083
F0.997
tp2093
a(S'Y'
p2094
g153
F0.545
tp2095
a(S'@l'
p2096
g2083
F0.9952
tp2097
a(g18
g11
F0.9961
tp2098
asI915
(lp2099
(S'the'
p2100
g70
F0.9985
tp2101
a(S'flashlight'
p2102
g41
F0.9982
tp2103
a(S'we'
p2104
g3
F0.9891
tp2105
a(S'got'
p2106
g6
F0.9987
tp2107
a(S"didn't"
p2108
g6
F0.9996
tp2109
a(S'we'
p2110
g3
F0.9835
tp2111
a(S'\xe2\x86\x91'
p2112
g158
F0.5707
tp2113
a(S'or'
p2114
g46
F0.993
tp2115
a(S'something'
p2116
g41
F0.9983
tp2117
a(g85
g11
F0.998
tp2118
asI349
(lp2119
(S'okay'
p2120
g22
F0.9221
tp2121
a(S'is'
p2122
g6
F0.9988
tp2123
a(S'it'
p2124
g3
F0.9986
tp2125
a(g45
g11
F0.3109
tp2126
a(S'...'
p2127
g11
F0.6095
tp2128
asI862
(lp2129
(S'that'
p2130
g70
F0.8322
tp2131
a(S'circus'
p2132
g41
F0.9652
tp2133
a(S'xxx'
p2134
g14
F0.8444
tp2135
a(g10
g11
F0.6965
tp2136
a(g13
g14
F0.5563
tp2137
a(g16
g11
F0.6899
tp2138
a(g18
g11
F0.9959
tp2139
asI741
(lp2140
(S'mm'
p2141
g22
F0.2192
tp2142
a(S'shakin(g'
p2143
g6
F0.8844
tp2144
a(g35
g11
F0.9813
tp2145
a(g85
g11
F0.9966
tp2146
asI352
(lp2147
(S'oh'
p2148
g22
F0.9984
tp2149
a(g18
g11
F0.9938
tp2150
asI865
(lp2151
(S'xxx'
p2152
g14
F0.8981
tp2153
a(g10
g11
F0.6622
tp2154
a(g25
g26
F0.9843
tp2155
a(g16
g11
F0.9856
tp2156
a(S'circus'
p2157
g41
F0.9349
tp2158
a(g85
g11
F0.9977
tp2159
asI355
(lp2160
(S'mm'
p2161
g22
F0.5842
tp2162
a(g18
g11
F0.9932
tp2163
asI869
(lp2164
(S'yep'
p2165
g22
F0.9972
tp2166
a(g18
g11
F0.9971
tp2167
asI358
(lp2168
(S'(..)'
p2169
g14
F0.4275
tp2170
a(S'Mommy'
p2171
g203
F0.4464
tp2172
a(S'what'
p2173
g3
F0.9873
tp2174
a(S'is'
p2175
g6
F0.9988
tp2176
a(S'that'
p2177
g3
F0.9243
tp2178
a(g85
g11
F0.9982
tp2179
asI872
(lp2180
(S'Mom'
p2181
g41
F0.8271
tp2182
a(g25
g158
F0.2352
tp2183
a(S'you'
p2184
g3
F0.9956
tp2185
a(S'were'
p2186
g6
F0.9959
tp2187
a(g13
g158
F0.2863
tp2188
a(S'[/]'
p2189
g158
F0.325
tp2190
a(S'you'
p2191
g3
F0.9977
tp2192
a(S'were'
p2193
g6
F0.999
tp2194
a(S'with'
p2195
g38
F0.9995
tp2196
a(S'the'
p2197
g70
F0.9998
tp2198
a(S'clown'
p2199
g41
F0.9926
tp2200
a(S'xxx'
p2201
g14
F0.5614
tp2202
a(g46
g46
F0.99
tp2203
a(g95
g11
F0.9328
tp2204
a(S'laughs'
p2205
g6
F0.9067
tp2206
a(g22
g11
F0.9986
tp2207
asI362
(lp2208
(S'Mom'
p2209
g41
F0.5663
tp2210
a(S'what'
p2211
g3
F0.9907
tp2212
a(S'is'
p2213
g6
F0.9993
tp2214
a(S'that'
p2215
g3
F0.9103
tp2216
a(g85
g11
F0.9987
tp2217
asI875
(lp2218
(g46
g46
F0.9893
tp2219
a(g95
g11
F0.8849
tp2220
a(S'laughs'
p2221
g6
F0.9504
tp2222
a(S'yeah'
p2223
g22
F0.9525
tp2224
a(S'the'
p2225
g70
F0.9989
tp2226
a(S'clown'
p2227
g41
F0.9955
tp2228
a(S'sat'
p2229
g6
F0.8926
tp2230
a(S'with'
p2231
g38
F0.9985
tp2232
a(S'us'
p2233
g3
F0.971
tp2234
a(S'huh'
p2235
g22
F0.897
tp2236
a(g85
g11
F0.998
tp2237
asI658
(lp2238
(S'Lastname'
p2239
g41
F0.8732
tp2240
a(g18
g11
F0.9985
tp2241
asI366
(lp2242
(S'huh'
p2243
g22
F0.9936
tp2244
a(g85
g11
F0.9967
tp2245
asI880
(lp2246
(S'yep'
p2247
g22
F0.9864
tp2248
a(g46
g46
F0.9903
tp2249
a(g95
g11
F0.8743
tp2250
a(S'laughs'
p2251
g6
F0.8183
tp2252
a(g18
g11
F0.9983
tp2253
asI370
(lp2254
(S"it's"
p2255
g79
F0.9955
tp2256
a(g276
g70
F0.9961
tp2257
a(S'tape'
p2258
g41
F0.9988
tp2259
a(S'recorder'
p2260
g41
F0.9989
tp2261
a(g18
g11
F0.9981
tp2262
asI883
(lp2263
(S"that's"
p2264
g79
F0.9886
tp2265
a(S'funny'
p2266
g63
F0.9997
tp2267
a(g46
g46
F0.9914
tp2268
a(g95
g11
F0.8981
tp2269
a(S'laughs'
p2270
g6
F0.942
tp2271
a(g18
g11
F0.9977
tp2272
asI373
(lp2273
(S'xxx'
p2274
g14
F0.6622
tp2275
a(S'get'
p2276
g6
F0.9986
tp2277
a(S'out'
p2278
g132
F0.9425
tp2279
a(g18
g11
F0.9982
tp2280
asI807
(lp2281
(S"I'm"
p2282
g79
F0.9951
tp2283
a(S'gonna'
p2284
g6
F0.983
tp2285
a(S'show'
p2286
g6
F0.8586
tp2287
a(S'Daddy'
p2288
g41
F0.9559
tp2289
a(S'my'
p2290
g70
F0.9931
tp2291
a(S'sign'
p2292
g41
F0.9964
tp2293
a(g18
g11
F0.9981
tp2294
asI609
(lp2295
(S'yep'
p2296
g22
F0.9972
tp2297
a(g18
g11
F0.9971
tp2298
asI377
(lp2299
(S'(..)'
p2300
g14
F0.6089
tp2301
a(S'xxx'
p2302
g14
F0.9478
tp2303
a(g22
g11
F0.9841
tp2304
asI890
(lp2305
(S'you'
p2306
g3
F0.9859
tp2307
a(S'('
p2308
g11
F0.9936
tp2309
a(S're)member'
p2310
g6
F0.9703
tp2311
a(S'(.)'
p2312
g14
F0.3371
tp2313
a(S'how'
p2314
g153
F0.9846
tp2315
a(g10
g11
F0.9769
tp2316
a(g22
g11
F0.9901
tp2317
a(g16
g11
F0.975
tp2318
a(S'he'
p2319
g3
F0.9976
tp2320
a(S'did'
p2321
g6
F0.9999
tp2322
a(S'that'
p2323
g3
F0.7124
tp2324
a(g85
g11
F0.9976
tp2325
asI380
(lp2326
(g25
g26
F0.9385
tp2327
a(S'what'
p2328
g3
F0.9834
tp2329
a(S'else'
p2330
g153
F0.871
tp2331
a(g13
g14
F0.5509
tp2332
a(g10
g14
F0.5345
tp2333
a(g13
g14
F0.9532
tp2334
a(g16
g11
F0.9073
tp2335
a(S'you'
p2336
g3
F0.997
tp2337
a(S'gonna'
p2338
g6
F0.9998
tp2339
a(S'do'
p2340
g6
F0.9998
tp2341
a(S'in'
p2342
g38
F0.9376
tp2343
a(S'school'
p2344
g41
F0.9981
tp2345
a(S'today'
p2346
g41
F0.9967
tp2347
a(g85
g11
F0.9988
tp2348
asI895
(lp2349
(S'he'
p2350
g3
F0.9945
tp2351
a(S'climbed'
p2352
g6
F0.9997
tp2353
a(S'over'
p2354
g38
F0.9079
tp2355
a(S'the'
p2356
g70
F0.9992
tp2357
a(S'railing'
p2358
g41
F0.9975
tp2359
a(S'huh'
p2360
g22
F0.9175
tp2361
a(g85
g11
F0.9978
tp2362
asI386
(lp2363
(S'xxx'
p2364
g14
F0.8981
tp2365
a(g10
g11
F0.6622
tp2366
a(g25
g26
F0.972
tp2367
a(g16
g11
F0.9847
tp2368
a(g18
g11
F0.9962
tp2369
asI387
(lp2370
(S'&-um'
p2371
g22
F0.817
tp2372
a(S'(..)'
p2373
g11
F0.5278
tp2374
a(S'bring'
p2375
g6
F0.9998
tp2376
a(S'my'
p2377
g70
F0.999
tp2378
a(S'toys'
p2379
g41
F0.999
tp2380
a(g18
g11
F0.9983
tp2381
asI390
(lp2382
(S'no'
p2383
g22
F0.7985
tp2384
a(S'you'
p2385
g3
F0.9954
tp2386
a(S"can't"
p2387
g6
F0.9999
tp2388
a(S'bring'
p2389
g6
F0.9999
tp2390
a(S'toys'
p2391
g41
F0.9853
tp2392
a(S'to'
p2393
g38
F0.9984
tp2394
a(S'school'
p2395
g41
F0.9781
tp2396
a(g18
g11
F0.9986
tp2397
asI1004
(lp2398
(S'oh'
p2399
g22
F0.9903
tp2400
a(S'my'
p2401
g70
F0.9866
tp2402
a(S'teacher'
p2403
g41
F0.9929
tp2404
a(S'thanks'
p2405
g41
F0.9812
tp2406
a(S'teacher'
p2407
g41
F0.9739
tp2408
a(g18
g11
F0.9979
tp2409
asI395
(lp2410
(g25
g26
F0.9074
tp2411
a(S'only'
p2412
g153
F0.6384
tp2413
a(g10
g11
F0.9751
tp2414
a(g85
g11
F0.9878
tp2415
a(g16
g11
F0.9017
tp2416
a(S'want'
p2417
g6
F0.9996
tp2418
a(S'my'
p2419
g70
F0.9017
tp2420
a(g13
g158
F0.4161
tp2421
a(S'[//]'
p2422
g158
F0.3115
tp2423
a(g51
g3
F0.9969
tp2424
a(S'wanna'
p2425
g6
F0.9991
tp2426
a(S'bring'
p2427
g6
F1.0
tp2428
a(S'my'
p2429
g70
F0.9983
tp2430
a(S'dog'
p2431
g41
F0.9983
tp2432
a(S'dog'
p2433
g41
F0.9973
tp2434
a(g18
g11
F0.9989
tp2435
asI398
(lp2436
(S'huh'
p2437
g22
F0.9936
tp2438
a(g85
g11
F0.9967
tp2439
asI911
(lp2440
(g25
g26
F0.8896
tp2441
a(S'and'
p2442
g46
F0.999
tp2443
a(S'we'
p2444
g3
F0.9977
tp2445
a(S'got'
p2446
g6
F0.9984
tp2447
a(g13
g14
F0.3025
tp2448
a(S'[//]'
p2449
g14
F0.6998
tp2450
a(S'(..)'
p2451
g14
F0.9471
tp2452
a(S'&-um'
p2453
g22
F0.6252
tp2454
a(S'(.)'
p2455
g11
F0.2286
tp2456
a(S'you'
p2457
g3
F0.9989
tp2458
a(S'know'
p2459
g6
F0.9971
tp2460
a(S'&-um'
p2461
g22
F0.8845
tp2462
a(S'that'
p2463
g3
F0.6447
tp2464
a(S'&-um'
p2465
g70
F0.2471
tp2466
a(S'thing'
p2467
g41
F0.9978
tp2468
a(g85
g11
F0.9971
tp2469
asI402
(lp2470
(g51
g3
F0.9976
tp2471
a(S'wanna'
p2472
g6
F0.9993
tp2473
a(S'bring'
p2474
g6
F1.0
tp2475
a(S'my'
p2476
g70
F0.9968
tp2477
a(S'doggie'
p2478
g41
F0.991
tp2479
a(g18
g11
F0.9984
tp2480
asI835
(lp2481
(S'me'
p2482
g3
F0.9976
tp2483
a(S'love'
p2484
g6
F0.9894
tp2485
a(S'it'
p2486
g3
F0.9932
tp2487
a(g18
g11
F0.999
tp2488
asI405
(lp2489
(S'you'
p2490
g3
F0.9953
tp2491
a(S"can't"
p2492
g6
F0.9999
tp2493
a(S'bring'
p2494
g6
F0.9998
tp2495
a(S'(.)'
p2496
g70
F0.2169
tp2497
a(S'dolls'
p2498
g41
F0.9801
tp2499
a(S'hon(ey'
p2500
g41
F0.9721
tp2501
a(g35
g11
F0.9886
tp2502
a(g18
g11
F0.9961
tp2503
asI408
(lp2504
(S'they'
p2505
g3
F0.9926
tp2506
a(S'have'
p2507
g6
F0.9987
tp2508
a(S'dollies'
p2509
g41
F0.9952
tp2510
a(S'there'
p2511
g153
F0.9454
tp2512
a(g18
g11
F0.9982
tp2513
asI921
(lp2514
(S'yeah'
p2515
g22
F0.9963
tp2516
a(S'we'
p2517
g3
F0.9986
tp2518
a(S'got'
p2519
g6
F0.9998
tp2520
a(g276
g70
F0.9982
tp2521
a(S'flashlight'
p2522
g41
F0.9987
tp2523
a(g85
g11
F0.9978
tp2524
asI411
(lp2525
(S'no'
p2526
g22
F0.8412
tp2527
a(S'they'
p2528
g3
F0.9845
tp2529
a(S"don't"
p2530
g6
F0.9999
tp2531
a(g18
g11
F0.9976
tp2532
asI925
(lp2533
(S'mhm'
p2534
g22
F0.9761
tp2535
a(g18
g11
F0.9962
tp2536
asI415
(lp2537
(S'yes'
p2538
g22
F0.9872
tp2539
a(S'they'
p2540
g3
F0.9969
tp2541
a(S'do'
p2542
g6
F0.9999
tp2543
a(S'you'
p2544
g3
F0.9994
tp2545
a(S'gotta'
p2546
g6
F0.9999
tp2547
a(S'wait'
p2548
g6
F0.9929
tp2549
a(S'and'
p2550
g46
F0.9945
tp2551
a(S'see'
p2552
g6
F0.9401
tp2553
a(g18
g11
F0.9983
tp2554
asI929
(lp2555
(g25
g26
F0.9127
tp2556
a(S'then'
p2557
g153
F0.9353
tp2558
a(S'we'
p2559
g3
F0.9982
tp2560
a(S'got'
p2561
g6
F0.9984
tp2562
a(g13
g14
F0.3025
tp2563
a(S'[//]'
p2564
g14
F0.788
tp2565
a(S'where'
p2566
g153
F0.988
tp2567
a(S'[//]'
p2568
g11
F0.4307
tp2569
a(S"where's"
p2570
g79
F0.9261
tp2571
a(S'our'
p2572
g70
F0.9032
tp2573
a(g10
g11
F0.9497
tp2574
a(g22
g11
F0.9901
tp2575
a(g16
g11
F0.9602
tp2576
a(S'flashlight'
p2577
g41
F0.9879
tp2578
a(g85
g11
F0.9982
tp2579
asI798
(lp2580
(S'Daddy'
p2581
g41
F0.7949
tp2582
a(S"I'm"
p2583
g79
F0.9919
tp2584
a(S'gonna'
p2585
g6
F0.9883
tp2586
a(S'show'
p2587
g6
F0.8693
tp2588
a(S'Daddy'
p2589
g41
F0.9574
tp2590
a(S'okay'
p2591
g22
F0.7274
tp2592
a(g85
g11
F0.9982
tp2593
asI420
(lp2594
(S"they've"
p2595
g79
F0.7361
tp2596
a(S'got'
p2597
g6
F0.9992
tp2598
a(g276
g70
F0.9989
tp2599
a(S'whole'
p2600
g63
F0.9836
tp2601
a(S'new'
p2602
g63
F0.9988
tp2603
a(S'class+room'
p2604
g41
F0.976
tp2605
a(S'Jenny'
p2606
g203
F0.9918
tp2607
a(g18
g11
F0.995
tp2608
asI933
(lp2609
(g51
g3
F0.9982
tp2610
a(S'think'
p2611
g6
F0.9999
tp2612
a(S"they're"
p2613
g79
F0.9654
tp2614
a(S'all'
p2615
g70
F0.7354
tp2616
a(S'gone'
p2617
g63
F0.6545
tp2618
a(g18
g11
F0.9988
tp2619
asI936
(lp2620
(S'oh'
p2621
g22
F0.9984
tp2622
a(g18
g11
F0.9938
tp2623
asI425
(lp2624
(S'our'
p2625
g70
F0.9931
tp2626
a(S'own'
p2627
g63
F0.9464
tp2628
a(S'class+room'
p2629
g41
F0.9973
tp2630
a(g85
g11
F0.9986
tp2631
asI1054
(lp2632
(S"I'll"
p2633
g79
F0.9841
tp2634
a(S'miss'
p2635
g6
F0.9995
tp2636
a(S'you'
p2637
g3
F0.9979
tp2638
a(g18
g11
F0.9996
tp2639
asI939
(lp2640
(S'we'
p2641
g3
F0.9955
tp2642
a(S'go'
p2643
g6
F0.9989
tp2644
a(S'there'
p2645
g153
F0.9917
tp2646
a(S'again'
p2647
g153
F0.9932
tp2648
a(g85
g11
F0.9979
tp2649
asI1010
(lp2650
(S'you'
p2651
g3
F0.998
tp2652
a(S'have'
p2653
g6
F0.9969
tp2654
a(S'Saturday'
p2655
g203
F0.985
tp2656
a(S'Sunday'
p2657
g203
F0.9883
tp2658
a(S'and'
p2659
g46
F0.9984
tp2660
a(S'Monday'
p2661
g203
F0.9242
tp2662
a(S'off'
p2663
g132
F0.3573
tp2664
a(g18
g11
F0.9979
tp2665
asI430
(lp2666
(S'mhm'
p2667
g22
F0.9761
tp2668
a(g18
g11
F0.9962
tp2669
asI669
(lp2670
(g276
g70
F0.9884
tp2671
a(S'sign'
p2672
g41
F0.9963
tp2673
a(g22
g11
F0.9984
tp2674
asI433
(lp2675
(S'for'
p2676
g38
F0.9989
tp2677
a(S'us'
p2678
g3
F0.9661
tp2679
a(g85
g11
F0.997
tp2680
asI946
(lp2681
(S'thanks'
p2682
g41
F0.9172
tp2683
a(g18
g11
F0.9972
tp2684
asI437
(lp2685
(S'mhm'
p2686
g22
F0.9761
tp2687
a(g18
g11
F0.9962
tp2688
asI440
(lp2689
(S'yeah'
p2690
g22
F0.9932
tp2691
a(g46
g46
F0.99
tp2692
a(g95
g11
F0.8695
tp2693
a(S'shouts'
p2694
g6
F0.8366
tp2695
a(g22
g11
F0.9981
tp2696
asI953
(lp2697
(S'mhm'
p2698
g22
F0.9761
tp2699
a(g18
g11
F0.9962
tp2700
asI444
(lp2701
(S'(.)'
p2702
g14
F0.2616
tp2703
a(S"I'm"
p2704
g79
F0.9965
tp2705
a(S'gonna'
p2706
g6
F0.9929
tp2707
a(S'get'
p2708
g6
F1.0
tp2709
a(S'it'
p2710
g3
F0.9953
tp2711
a(S'there'
p2712
g153
F0.9451
tp2713
a(g18
g11
F0.998
tp2714
asI842
(lp2715
(S'yep'
p2716
g22
F0.9972
tp2717
a(g18
g11
F0.9971
tp2718
asI448
(lp2719
(S'Jenny'
p2720
g203
F0.9821
tp2721
a(S'you'
p2722
g3
F0.9968
tp2723
a(S'sit'
p2724
g6
F0.9995
tp2725
a(S'down'
p2726
g132
F0.7363
tp2727
a(S'and'
p2728
g46
F0.9966
tp2729
a(S'eat'
p2730
g6
F0.9506
tp2731
a(g18
g11
F0.9981
tp2732
asI451
(lp2733
(S'xxx'
p2734
g14
F0.5822
tp2735
a(g18
g11
F0.9648
tp2736
asI964
(lp2737
(S'its'
p2738
g79
F0.9883
tp2739
a(S'your'
p2740
g70
F0.9189
tp2741
a(S'school'
p2742
g41
F0.9989
tp2743
a(S'time'
p2744
g41
F0.9991
tp2745
a(g18
g11
F0.9981
tp2746
asI453
(lp2747
(S'soon'
p2748
g153
F0.8453
tp2749
a(g10
g11
F0.9848
tp2750
a(g85
g11
F0.979
tp2751
a(g16
g11
F0.9016
tp2752
a(g18
g11
F0.9962
tp2753
asI673
(lp2754
(S"it's"
p2755
g79
F0.9955
tp2756
a(g276
g70
F0.9935
tp2757
a(S'sign'
p2758
g41
F0.998
tp2759
a(g22
g11
F0.9985
tp2760
asI456
(lp2761
(g46
g46
F0.9893
tp2762
a(g95
g11
F0.8588
tp2763
a(S'sighs'
p2764
g6
F0.602
tp2765
a(g18
g11
F0.9971
tp2766
asI457
(lp2767
(S'&-um'
p2768
g22
F0.7959
tp2769
a(S'(.)'
p2770
g14
F0.3513
tp2771
a(g51
g3
F0.9753
tp2772
a(g51
g3
F0.9909
tp2773
a(S'xxx'
p2774
g6
F0.5881
tp2775
a(g45
g46
F0.4295
tp2776
a(S'...'
p2777
g11
F0.6147
tp2778
asI886
(lp2779
(S'yeah'
p2780
g22
F0.9956
tp2781
a(S"that's"
p2782
g79
F0.9952
tp2783
a(S'funny'
p2784
g63
F0.9995
tp2785
a(g18
g11
F0.9986
tp2786
asI972
(lp2787
(S'and'
p2788
g46
F0.9986
tp2789
a(S'(.)'
p2790
g203
F0.2485
tp2791
a(S'after'
p2792
g38
F0.9576
tp2793
a(S'that'
p2794
g3
F0.9308
tp2795
a(S'(.)'
p2796
g6
F0.4626
tp2797
a(S'me'
p2798
g3
F0.9993
tp2799
a(S'still'
p2800
g153
F0.999
tp2801
a(S'goin(g'
p2802
g6
F0.9022
tp2803
a(g35
g11
F0.9938
tp2804
a(S'to'
p2805
g38
F0.99
tp2806
a(S'school'
p2807
g41
F0.9788
tp2808
a(g85
g11
F0.9965
tp2809
asI461
(lp2810
(S'hm'
p2811
g22
F0.9811
tp2812
a(S':'
p2813
g11
F0.891
tp2814
a(g85
g11
F0.9885
tp2815
asI589
(lp2816
(S'gray'
p2817
g63
F0.6554
tp2818
a(g10
g11
F0.9879
tp2819
a(g25
g26
F0.9843
tp2820
a(g16
g11
F0.9458
tp2821
a(g10
g11
F0.9721
tp2822
a(g85
g11
F0.982
tp2823
a(g16
g11
F0.9134
tp2824
a(g18
g11
F0.9962
tp2825
asI465
(lp2826
(g51
g3
F0.9977
tp2827
a(S'can'
p2828
g6
F0.9999
tp2829
a(S'finish'
p2830
g6
F0.9998
tp2831
a(S'it'
p2832
g3
F0.9915
tp2833
a(S'later'
p2834
g153
F0.9448
tp2835
a(g85
g11
F0.9973
tp2836
asI978
(lp2837
(S'xxx'
p2838
g14
F0.4676
tp2839
a(S'me'
p2840
g3
F0.9978
tp2841
a(S'still'
p2842
g153
F0.9991
tp2843
a(S'goin(g'
p2844
g6
F0.8857
tp2845
a(g35
g11
F0.9938
tp2846
a(S'to'
p2847
g38
F0.9881
tp2848
a(S'school'
p2849
g41
F0.9706
tp2850
a(g85
g11
F0.998
tp2851
asI469
(lp2852
(g51
g3
F0.9983
tp2853
a(S'want'
p2854
g6
F1.0
tp2855
a(S'you'
p2856
g3
F0.9989
tp2857
a(S'to'
p2858
g38
F0.9894
tp2859
a(S'eat'
p2860
g6
F0.9977
tp2861
a(S'somethin(g'
p2862
g41
F0.993
tp2863
a(g35
g11
F0.9923
tp2864
a(S'before'
p2865
g38
F0.9715
tp2866
a(S'you'
p2867
g3
F0.9995
tp2868
a(S'go'
p2869
g6
F0.9986
tp2870
a(S'to'
p2871
g38
F0.9883
tp2872
a(S'school'
p2873
g41
F0.9782
tp2874
a(g18
g11
F0.9983
tp2875
asI982
(lp2876
(S'mhm'
p2877
g22
F0.9761
tp2878
a(g18
g11
F0.9962
tp2879
asI761
(lp2880
(S"it's"
p2881
g79
F0.9939
tp2882
a(S'okay'
p2883
g63
F0.9755
tp2884
a(S'honey'
p2885
g41
F0.9849
tp2886
a(g18
g11
F0.9984
tp2887
asI676
(lp2888
(S'nope'
p2889
g22
F0.981
tp2890
a(g10
g11
F0.9801
tp2891
a(g22
g11
F0.9842
tp2892
a(g16
g11
F0.9865
tp2893
a(S'you'
p2894
g3
F0.9959
tp2895
a(S"can't"
p2896
g6
F0.9999
tp2897
a(S'have'
p2898
g6
F1.0
tp2899
a(S'it'
p2900
g3
F0.9915
tp2901
a(g18
g11
F0.9991
tp2902
asI474
(lp2903
(S'okay'
p2904
g22
F0.9741
tp2905
a(g18
g11
F0.9977
tp2906
asI985
(lp2907
(S'not'
p2908
g153
F0.9903
tp2909
a(S'tomorrow'
p2910
g41
F0.4439
tp2911
a(S'you'
p2912
g3
F0.9967
tp2913
a(S"don't"
p2914
g6
F1.0
tp2915
a(S'have'
p2916
g6
F0.9994
tp2917
a(S'school'
p2918
g41
F0.9951
tp2919
a(S'Tuesday'
p2920
g203
F0.7628
tp2921
a(g18
g11
F0.9975
tp2922
asI478
(lp2923
(S'do'
p2924
g6
F0.9985
tp2925
a(S'you'
p2926
g3
F0.9997
tp2927
a(S'want'
p2928
g6
F0.9979
tp2929
a(g85
g11
F0.9975
tp2930
asI592
(lp2931
(S'says'
p2932
g6
F0.999
tp2933
a(S'your'
p2934
g70
F0.9896
tp2935
a(S'name'
p2936
g41
F0.9998
tp2937
a(g85
g11
F0.9979
tp2938
asI482
(lp2939
(S'mhm'
p2940
g22
F0.9761
tp2941
a(g18
g11
F0.9962
tp2942
asI485
(lp2943
(S'(..)'
p2944
g11
F0.3701
tp2945
a(S'are'
p2946
g6
F0.9989
tp2947
a(S'you'
p2948
g3
F0.9987
tp2949
a(S'nervous'
p2950
g63
F0.9836
tp2951
a(g85
g11
F0.9978
tp2952
asI489
(lp2953
(S'mhm'
p2954
g22
F0.9761
tp2955
a(g18
g11
F0.9962
tp2956
asI492
(lp2957
(S'yeah'
p2958
g22
F0.9986
tp2959
a(g18
g11
F0.997
tp2960
asI495
(lp2961
(S'me'
p2962
g3
F0.999
tp2963
a(S'know'
p2964
g6
F0.9884
tp2965
a(S'how'
p2966
g153
F0.9927
tp2967
a(S'to'
p2968
g38
F0.9952
tp2969
a(S'cross'
p2970
g6
F0.8723
tp2971
a(g18
g11
F0.9978
tp2972
asI498
(lp2973
(S'(..)'
p2974
g11
F0.4716
tp2975
a(S'me'
p2976
g3
F0.9973
tp2977
a(S'not'
p2978
g153
F0.9998
tp2979
a(S'nervous'
p2980
g63
F0.968
tp2981
a(g18
g11
F0.9983
tp2982
asI501
(lp2983
(S"you're"
p2984
g79
F0.9953
tp2985
a(S'not'
p2986
g153
F0.9997
tp2987
a(S'nervous'
p2988
g63
F0.9649
tp2989
a(g85
g11
F0.9971
tp2990
asI1014
(lp2991
(S'oh'
p2992
g22
F0.9947
tp2993
a(S'good'
p2994
g63
F0.9782
tp2995
a(g22
g11
F0.998
tp2996
asI505
(lp2997
(S'no'
p2998
g22
F0.9704
tp2999
a(g18
g11
F0.9989
tp3000
asI1018
(lp3001
(S'you'
p3002
g3
F0.9923
tp3003
a(S'like'
p3004
g6
F0.8526
tp3005
a(S'that'
p3006
g3
F0.9026
tp3007
a(S'huh'
p3008
g22
F0.8444
tp3009
a(g85
g11
F0.998
tp3010
asI508
(lp3011
(S'you'
p3012
g3
F0.9983
tp3013
a(S'know'
p3014
g6
F0.9987
tp3015
a(S'when'
p3016
g153
F0.9898
tp3017
a(S'Mommy'
p3018
g203
F0.5391
tp3019
a(S'used'
p3020
g6
F0.8961
tp3021
a(S'to'
p3022
g38
F0.9764
tp3023
a(S'go'
p3024
g6
F0.9993
tp3025
a(S'to'
p3026
g38
F0.9871
tp3027
a(S'school'
p3028
g41
F0.8552
tp3029
a(S'Mommy'
p3030
g41
F0.8368
tp3031
a(S'was'
p3032
g6
F0.9967
tp3033
a(S'nervous'
p3034
g63
F0.9862
tp3035
a(g18
g11
F0.9977
tp3036
asI1022
(lp3037
(S'(..)'
p3038
g11
F0.434
tp3039
a(S'thank'
p3040
g6
F0.9857
tp3041
a(S'you'
p3042
g3
F0.999
tp3043
a(g18
g11
F0.9996
tp3044
as.