(dp0
I0
(lp1
(S'what'
p2
S'O'
p3
F0.9739
tp4
a(S's'
p5
S'V'
p6
F0.4505
tp7
a(S'that'
p8
g3
F0.8603
tp9
asI1
(lp10
(S'a'
p11
S'D'
p12
F0.9939
tp13
a(S'tape'
p14
S'N'
p15
F0.9976
tp16
a(S'recorder'
p17
g15
F0.9966
tp18
asI2
(lp19
(S'how'
p20
S'R'
p21
F0.9802
tp22
a(S'come'
p23
g6
F0.9985
tp24
a(S'the'
p25
g12
F0.9986
tp26
a(S'light'
p27
g15
F0.971
tp28
a(g5
S'G'
p29
F0.7689
tp30
a(S'not'
p31
g21
F0.9836
tp32
a(S'oh'
p33
S'!'
p34
F0.8776
tp35
a(S'there'
p36
g21
F0.5688
tp37
a(S'it'
p38
g3
F0.9949
tp39
a(S'goes'
p40
g6
F0.9968
tp41
asI3
(lp42
(S'come'
p43
g6
F0.9897
tp44
a(S'on'
p45
S'P'
p46
F0.9231
tp47
a(S'chi'
p48
S'^'
p49
F0.7429
tp50
a(S'eat'
p51
g6
F0.9842
tp52
a(S'up'
p53
S'T'
p54
F0.978
tp55
asI4
(lp56
(S'16'
p57
S'$'
p58
F0.9912
tp59
a(S'xxx'
p60
S'E'
p61
F0.3941
tp62
a(S'cries'
p63
g6
F0.9454
tp64
a(S'out'
p65
g54
F0.9337
tp66
asI5
(lp67
(S'come'
p68
g6
F0.9849
tp69
a(S'on'
p70
g54
F0.5632
tp71
asI6
(lp72
(S'xxx'
p73
g61
F0.5301
tp74
a(S'going'
p75
g6
F0.9911
tp76
a(S'on'
p77
g54
F0.8334
tp78
asI7
(lp79
(S'it'
p80
g3
F0.9888
tp81
a(g5
g6
F0.7285
tp82
a(g11
g12
F0.9959
tp83
a(S'tape'
p84
g15
F0.9984
tp85
a(S'recorder'
p86
g15
F0.9921
tp87
asI8
(lp88
(S'mhm'
p89
g34
F0.9747
tp90
asI9
(lp91
(S'look'
p92
g6
F0.8183
tp93
asI10
(lp94
(S'it'
p95
g3
F0.9888
tp96
a(g5
g6
F0.6714
tp97
a(S'goin'
p98
g6
F0.9849
tp99
a(S'g'
p100
g6
F0.2992
tp101
a(S'on'
p102
g46
F0.59
tp103
asI11
(lp104
(S'yep'
p105
g34
F0.9977
tp106
asI12
(lp107
(S'good'
p108
S'A'
p109
F0.9644
tp110
asI13
(lp111
(S'0'
p112
g58
F0.9762
tp113
a(S'squeals'
p114
g15
F0.9527
tp115
a(S'and'
p116
S'&'
p117
F0.9972
tp118
a(S'giggles'
p119
g6
F0.6884
tp120
asI14
(lp121
(S'xxx'
p122
g61
F0.8437
tp123
asI15
(lp124
(S'have'
p125
g6
F0.9947
tp126
a(S'to'
p127
g46
F0.9744
tp128
asI16
(lp129
(S'eat'
p130
g6
F0.9929
tp131
a(S'up'
p132
g54
F0.9699
tp133
asI17
(lp134
(S'xxx'
p135
g61
F0.8437
tp136
asI18
(lp137
(S'giggles'
p138
g6
F0.5513
tp139
asI19
(lp140
(S'you'
p141
g3
F0.9923
tp142
a(S'like'
p143
g6
F0.8792
tp144
a(S'it'
p145
g3
F0.9982
tp146
a(S'so'
p147
g21
F0.7588
tp148
a(S'anyway'
p149
g21
F0.9979
tp150
asI20
(lp151
(S'shouts'
p152
g6
F0.9144
tp153
asI21
(lp154
(S'chi'
p155
g49
F0.4611
tp156
a(S'xxx'
p157
g61
F0.6493
tp158
asI22
(lp159
(S'can'
p160
g6
F0.999
tp161
a(S'you'
p162
g3
F0.9987
tp163
a(S'put'
p164
g6
F0.981
tp165
a(S'more'
p166
g109
F0.9002
tp167
a(S'ketchup'
p168
g15
F0.9965
tp169
a(S'in'
p170
g46
F0.9961
tp171
a(S'there'
p172
g21
F0.5807
tp173
asI23
(lp174
(S'mhm'
p175
g34
F0.9747
tp176
asI24
(lp177
(S'i'
p178
g3
F0.9897
tp179
a(S'want'
p180
g6
F1.0
tp181
a(S'some'
p182
g12
F0.9914
tp183
a(S'ketchup'
p184
g15
F0.9835
tp185
a(S'myself'
p186
g3
F0.9622
tp187
asI25
(lp188
(S'put'
p189
g6
F0.9767
tp190
a(S'some'
p191
g12
F0.7873
tp192
a(S'in'
p193
g46
F0.9808
tp194
a(S'my'
p195
g12
F0.9525
tp196
a(S'xxx'
p197
g15
F0.4839
tp198
asI26
(lp199
(S'okay'
p200
g34
F0.9804
tp201
a(S'that'
p202
g3
F0.5697
tp203
a(g5
g6
F0.4867
tp204
a(S'good'
p205
g109
F0.9933
tp206
asI27
(lp207
(S'mom'
p208
g15
F0.7188
tp209
asI28
(lp210
(S'6'
p211
g58
F0.9873
tp212
a(g112
g58
F0.9903
tp213
a(S'bleah'
p214
g34
F0.589
tp215
a(S'noise'
p216
g15
F0.8919
tp217
asI29
(lp218
(S'you'
p219
g3
F0.9926
tp220
a(S'don'
p221
g6
F0.8675
tp222
a(S't'
p223
g15
F0.2384
tp224
a(S'have'
p225
g6
F0.9977
tp226
a(S'to'
p227
g46
F0.995
tp228
a(S'bang'
p229
g6
F0.9986
tp230
a(S'it'
p231
g3
F0.9429
tp232
a(S'you'
p233
g3
F0.9955
tp234
a(S'don'
p235
g6
F0.8626
tp236
a(g223
g29
F0.3539
tp237
a(S'hafta'
p238
g6
F0.7209
tp239
a(S'bang'
p240
g6
F0.9983
tp241
a(S'it'
p242
g3
F0.9837
tp243
asI30
(lp244
(S'just'
p245
g21
F0.9998
tp246
a(S'once'
p247
g21
F0.923
tp248
a(S'you'
p249
g3
F0.9994
tp250
a(S'have'
p251
g6
F0.9994
tp252
a(S'to'
p253
g46
F0.9752
tp254
a(S'do'
p255
g6
F0.9999
tp256
a(S'that'
p257
g3
F0.804
tp258
asI31
(lp259
(S'13'
p260
g58
F0.9857
tp261
a(S'may'
p262
g6
F0.4407
tp263
a(g178
g3
F0.9895
tp264
a(S'have'
p265
g6
F0.9999
tp266
a(g11
g12
F0.9969
tp267
a(S'drink'
p268
g15
F0.9917
tp269
asI32
(lp270
(S'after'
p271
g46
F0.977
tp272
a(S'you'
p273
g3
F0.9999
tp274
a(S'eat'
p275
g6
F0.9966
tp276
asI33
(lp277
(S'half'
p278
g15
F0.4831
tp279
a(S'of'
p280
g46
F0.9983
tp281
a(S'it'
p282
g3
F0.9974
tp283
asI34
(lp284
(S'after'
p285
g46
F0.8217
tp286
a(g178
g3
F0.9989
tp287
a(S'eat'
p288
g6
F0.9983
tp289
a(S'half'
p290
g15
F0.715
tp291
a(S'of'
p292
g46
F0.9975
tp293
a(S'it'
p294
g3
F0.9973
tp295
asI35
(lp296
(S'and'
p297
g117
F0.9989
tp298
a(S'you'
p299
g3
F0.9962
tp300
a(S're'
p301
g6
F0.7591
tp302
a(S'not'
p303
g21
F0.9988
tp304
a(S'and'
p305
g117
F0.9966
tp306
a(S'you'
p307
g3
F0.9966
tp308
a(S're'
p309
g6
F0.7653
tp310
a(S'not'
p311
g21
F0.996
tp312
a(S'having'
p313
g6
F0.9998
tp314
a(S'your'
p315
g12
F0.9897
tp316
a(S'milk'
p317
g15
F0.9993
tp318
asI36
(lp319
(S'oh'
p320
g34
F0.9959
tp321
a(S'yes'
p322
g34
F0.9987
tp323
a(g178
g3
F0.993
tp324
a(S'will'
p325
g6
F0.9991
tp326
asI37
(lp327
(S'right'
p328
g21
F0.496
tp329
a(S'after'
p330
g46
F0.9777
tp331
a(S'if'
p332
g46
F0.8753
tp333
a(g178
g3
F0.9952
tp334
a(S'get'
p335
g6
F0.9999
tp336
a(S'done'
p337
g6
F0.9604
tp338
a(S'eatin'
p339
g6
F0.5488
tp340
a(g100
g29
F0.343
tp341
asI38
(lp342
(S'when'
p343
g21
F0.9804
tp344
a(S'you'
p345
g3
F0.9952
tp346
a(S'all'
p347
g12
F0.9139
tp348
a(S'done'
p349
g109
F0.541
tp350
a(S'and'
p351
g117
F0.9983
tp352
a(S'then'
p353
g21
F0.9919
tp354
a(S'then'
p355
g21
F0.9807
tp356
a(S'you'
p357
g3
F0.9995
tp358
a(S'can'
p359
g6
F0.9997
tp360
a(S'have'
p361
g6
F1.0
tp362
a(S'your'
p363
g12
F0.9912
tp364
a(S'milk'
p365
g15
F0.9993
tp366
asI39
(lp367
(S'okay'
p368
g34
F0.9857
tp369
asI40
(lp370
(S'brother'
p371
g15
F0.918
tp372
asI41
(lp373
(S'mom'
p374
g15
F0.6807
tp375
a(S'it'
p376
g3
F0.9455
tp377
a(g5
g6
F0.5285
tp378
a(S'only'
p379
g21
F0.7346
tp380
a(S'xxx'
p381
g6
F0.8169
tp382
a(S'it'
p383
g3
F0.9939
tp384
a(g5
g6
F0.496
tp385
a(S'only'
p386
g109
F0.5525
tp387
a(S'five'
p388
g58
F0.3214
tp389
asI42
(lp390
(S'alright'
p391
g34
F0.9324
tp392
a(S'bro'
p393
g15
F0.7825
tp394
asI43
(lp395
(g178
g3
F0.9912
tp396
a(S'know'
p397
g6
F0.9989
tp398
asI44
(lp399
(S'she'
p400
g3
F0.9941
tp401
a(S'll'
p402
g6
F0.4557
tp403
a(S'cook'
p404
g6
F0.9969
tp405
a(S'it'
p406
g3
F0.9948
tp407
a(S'at'
p408
g46
F0.9944
tp409
a(S'six'
p410
g49
F0.409
tp411
asI45
(lp412
(S'what'
p413
g3
F0.949
tp414
asI46
(lp415
(S'be'
p416
g6
F0.9367
tp417
a(S'fore'
p418
g46
F0.8818
tp419
a(S'we'
p420
g3
F0.9973
tp421
a(S'go'
p422
g6
F0.9983
tp423
a(S'to'
p424
g46
F0.9716
tp425
a(S'bed'
p426
g15
F0.7343
tp427
asI47
(lp428
(S'8'
p429
g58
F0.9838
tp430
a(S'chi'
p431
g15
F0.4331
tp432
a(S'asked'
p433
g6
F0.999
tp434
a(S'if'
p435
g46
F0.9989
tp436
a(S'the'
p437
g12
F0.9967
tp438
a(S'ice'
p439
g15
F0.9068
tp440
a(S'cream'
p441
g15
F0.9072
tp442
a(S'truck'
p443
g15
F0.9909
tp444
a(S'comes'
p445
g6
F0.998
tp446
a(g11
g12
F0.9984
tp447
a(S'round'
p448
g15
F0.9584
tp449
a(S'can'
p450
g6
F0.9992
tp451
a(S'you'
p452
g3
F0.9989
tp453
a(S'get'
p454
g6
F0.9994
tp455
a(S'ice'
p456
g15
F0.5758
tp457
a(S'cream'
p458
g15
F0.9647
tp459
asI48
(lp460
(S'huh'
p461
g34
F0.993
tp462
asI49
(lp463
(S'oh'
p464
g34
F0.9988
tp465
asI50
(lp466
(S'so'
p467
g46
F0.8338
tp468
a(S'you'
p469
g3
F0.9992
tp470
a(S'll'
p471
g6
F0.6972
tp472
a(S'be'
p473
g6
F0.9994
tp474
a(S'all'
p475
g12
F0.5946
tp476
a(S'done'
p477
g6
F0.8365
tp478
a(S'in'
p479
g46
F0.9466
tp480
a(S'time'
p481
g15
F0.9949
tp482
asI51
(lp483
(g178
g3
F0.9793
tp484
a(S'll'
p485
g6
F0.8175
tp486
a(S'be'
p487
g6
F0.9978
tp488
a(S'done'
p489
g6
F0.9515
tp490
a(S'in'
p491
g46
F0.9251
tp492
a(S'ten'
p493
g58
F0.8396
tp494
a(S'minutes'
p495
g15
F0.9902
tp496
asI52
(lp497
(S'and'
p498
g117
F0.9986
tp499
a(S'when'
p500
g21
F0.9469
tp501
a(S'that'
p502
g3
F0.6302
tp503
a(S'goes'
p504
g6
F0.9964
tp505
a(S'through'
p506
g46
F0.8159
tp507
a(S'xxx'
p508
g61
F0.7394
tp509
asI53
(lp510
(S'and'
p511
g117
F0.9983
tp512
a(S'if'
p513
g46
F0.9929
tp514
a(S'we'
p515
g3
F0.9968
tp516
a(S're'
p517
g6
F0.5378
tp518
a(S'still'
p519
g21
F0.9955
tp520
a(S'eatin'
p521
g6
F0.8791
tp522
a(g100
g15
F0.2413
tp523
a(S'when'
p524
g21
F0.9043
tp525
a(S'the'
p526
g12
F0.9985
tp527
a(S'ice'
p528
g15
F0.9068
tp529
a(S'cream'
p530
g15
F0.9072
tp531
a(S'truck'
p532
g15
F0.9909
tp533
a(S'came'
p534
g6
F0.9149
tp535
a(g178
g3
F0.9886
tp536
a(S'll'
p537
g6
F0.642
tp538
a(S'just'
p539
g21
F0.9997
tp540
a(S'run'
p541
g6
F0.9993
tp542
a(S'down'
p543
g21
F0.6064
tp544
a(S'there'
p545
g21
F0.9013
tp546
asI54
(lp547
(S'me'
p548
g3
F0.9951
tp549
a(S'too'
p550
g21
F0.9856
tp551
asI55
(lp552
(S'and'
p553
g117
F0.9981
tp554
a(S'get'
p555
g6
F0.9997
tp556
a(S'my'
p557
g12
F0.9955
tp558
a(S'ice'
p559
g15
F0.8424
tp560
a(S'cream'
p561
g15
F0.9491
tp562
a(S'and'
p563
g117
F0.9965
tp564
a(S'come'
p565
g6
F0.9954
tp566
a(S'back'
p567
g21
F0.84
tp568
a(S'up'
p569
g54
F0.6685
tp570
asI56
(lp571
(S'well'
p572
g34
F0.8573
tp573
a(g178
g3
F0.9954
tp574
a(S'll'
p575
g6
F0.6751
tp576
a(S'get'
p577
g6
F0.9996
tp578
a(S'you'
p579
g3
F0.9863
tp580
a(S'one'
p581
g58
F0.809
tp582
asI57
(lp583
(S'and'
p584
g117
F0.9992
tp585
a(S'me'
p586
g3
F0.999
tp587
a(S'go'
p588
g6
F0.9962
tp589
a(S'down'
p590
g21
F0.6471
tp591
asI58
(lp592
(g178
g3
F0.9793
tp593
a(S'll'
p594
g6
F0.7217
tp595
a(S'get'
p596
g6
F0.9998
tp597
a(S'you'
p598
g3
F0.9839
tp599
a(S'one'
p600
g58
F0.7253
tp601
asI59
(lp602
(S'no'
p603
g34
F0.9253
tp604
asI60
(lp605
(S'okay'
p606
g34
F0.9573
tp607
a(S'chi'
p608
g49
F0.3635
tp609
a(S'you'
p610
g3
F0.9978
tp611
a(S'wanna'
p612
g6
F0.9977
tp613
a(S'want'
p614
g6
F0.9998
tp615
a(g11
g12
F0.9981
tp616
a(S'snow'
p617
g15
F0.9507
tp618
a(S'cone'
p619
g15
F0.9966
tp620
a(S'or'
p621
g117
F0.9951
tp622
a(g11
g12
F0.9943
tp623
a(S'plain'
p624
g109
F0.8445
tp625
a(S'ice'
p626
g15
F0.9561
tp627
a(S'cream'
p628
g15
F0.9632
tp629
asI61
(lp630
(S'huh'
p631
g34
F0.993
tp632
asI62
(lp633
(S'snow'
p634
g15
F0.7264
tp635
a(S'cone'
p636
g15
F0.9939
tp637
asI63
(lp638
(S'yeah'
p639
g34
F0.9988
tp640
asI64
(lp641
(S'o'
p642
g34
F0.3546
tp643
a(S'kay'
p644
g34
F0.4576
tp645
a(g178
g3
F0.9867
tp646
a(S'll'
p647
g6
F0.6518
tp648
a(S'get'
p649
g6
F0.9998
tp650
a(S'you'
p651
g3
F0.9979
tp652
a(g11
g12
F0.9975
tp653
a(S'snow'
p654
g15
F0.9388
tp655
a(S'cone'
p656
g15
F0.9941
tp657
asI65
(lp658
(S'no'
p659
g12
F0.4696
tp660
a(S'get'
p661
g6
F0.9711
tp662
a(S'her'
p663
g3
F0.7305
tp664
a(g11
g12
F0.9953
tp665
a(S'regular'
p666
g109
F0.9842
tp667
a(S'ice'
p668
g15
F0.9093
tp669
a(S'cream'
p670
g15
F0.9483
tp671
asI66
(lp672
(g178
g3
F0.9793
tp673
a(S'll'
p674
g6
F0.7217
tp675
a(S'get'
p676
g6
F0.9998
tp677
a(S'you'
p678
g3
F0.9975
tp679
a(g11
g12
F0.9968
tp680
a(S'regular'
p681
g109
F0.9848
tp682
a(S'ice'
p683
g15
F0.8585
tp684
a(S'cream'
p685
g15
F0.9531
tp686
asI67
(lp687
(S'xxx'
p688
g61
F0.4267
tp689
a(S'you'
p690
g3
F0.9592
tp691
a(S'one'
p692
g58
F0.8764
tp693
a(S'chi'
p694
g29
F0.296
tp695
asI68
(lp696
(S'two'
p697
g58
F0.9238
tp698
asI69
(lp699
(S'true'
p700
g109
F0.9009
tp701
asI70
(lp702
(S'9'
p703
g58
F0.9928
tp704
a(g178
g3
F0.9668
tp705
a(S'need'
p706
g6
F0.9978
tp707
a(S'more'
p708
g109
F0.8724
tp709
a(S'ketchup'
p710
g15
F0.9951
tp711
asI71
(lp712
(S'wanna'
p713
g6
F0.9688
tp714
a(S'give'
p715
g6
F0.9999
tp716
a(S'him'
p717
g3
F0.9597
tp718
a(S'some'
p719
g12
F0.8891
tp720
asI72
(lp721
(S'thank'
p722
g6
F0.9631
tp723
a(S'you'
p724
g3
F0.9987
tp725
asI73
(lp726
(S'17'
p727
g58
F0.9887
tp728
a(S'can'
p729
g6
F0.9488
tp730
a(g223
g6
F0.7538
tp731
a(S'believe'
p732
g6
F0.9985
tp733
a(S'you'
p734
g3
F0.995
tp735
a(S're'
p736
g6
F0.8008
tp737
a(S'home'
p738
g21
F0.6521
tp739
a(S'early'
p740
g109
F0.8777
tp741
asI74
(lp742
(S'can'
p743
g6
F0.9755
tp744
a(g178
g3
F0.9904
tp745
a(S'have'
p746
g6
F0.9997
tp747
a(S'more'
p748
g109
F0.6654
tp749
asI75
(lp750
(S'uhhuh'
p751
g34
F0.9892
tp752
asI76
(lp753
(g178
g3
F0.9902
tp754
a(S'want'
p755
g6
F0.9998
tp756
a(S'more'
p757
g109
F0.6244
tp758
asI77
(lp759
(S'more'
p760
g109
F0.6801
tp761
a(S'what'
p762
g3
F0.9774
tp763
asI78
(lp764
(S'you'
p765
g3
F0.9968
tp766
a(S'gotta'
p767
g6
F0.9996
tp768
a(S'eat'
p769
g6
F0.9992
tp770
a(S'your'
p771
g12
F0.9936
tp772
a(S'hamburger'
p773
g15
F0.9981
tp774
asI79
(lp775
(S'there'
p776
S'X'
p777
F0.4664
tp778
a(g5
g29
F0.5367
tp779
a(S'no'
p780
g12
F0.4398
tp781
a(S'more'
p782
g109
F0.8533
tp783
a(S'onion'
p784
g15
F0.8346
tp785
a(S'rings'
p786
g15
F0.9896
tp787
a(S'chi'
p788
g29
F0.4594
tp789
asI80
(lp790
(g178
g3
F0.9897
tp791
a(S'want'
p792
g6
F0.9998
tp793
a(S'more'
p794
g21
F0.5006
tp795
a(S'whines'
p796
g6
F0.7737
tp797
asI81
(lp798
(S'they'
p799
g3
F0.9104
tp800
a(S're'
p801
g6
F0.9396
tp802
a(S'all'
p803
g12
F0.7581
tp804
a(S'gone'
p805
g109
F0.7619
tp806
asI82
(lp807
(S'chicken'
p808
g15
F0.7024
tp809
asI83
(lp810
(S'that'
p811
g3
F0.9115
tp812
a(S'is'
p813
g6
F0.9999
tp814
a(S'it'
p815
g3
F0.9978
tp816
a(S'right'
p817
g21
F0.7732
tp818
a(S'there'
p819
g21
F0.8093
tp820
asI84
(lp821
(S'that'
p822
g3
F0.4727
tp823
a(g5
g29
F0.3685
tp824
a(S'hamburger'
p825
g15
F0.9862
tp826
asI85
(lp827
(g178
g3
F0.9897
tp828
a(S'want'
p829
g6
F1.0
tp830
a(S'some'
p831
g12
F0.9914
tp832
a(S'chicken'
p833
g15
F0.9748
tp834
a(S'too'
p835
g21
F0.9426
tp836
asI86
(lp837
(S'there'
p838
g777
F0.8572
tp839
a(S'is'
p840
g6
F0.9978
tp841
a(S'no'
p842
g12
F0.9718
tp843
a(S'chicken'
p844
g15
F0.9984
tp845
asI87
(lp846
(S'if'
p847
g46
F0.9977
tp848
a(S'you'
p849
g3
F0.9997
tp850
a(S'eat'
p851
g6
F0.9998
tp852
a(S'up'
p853
g54
F0.8946
tp854
a(S'your'
p855
g12
F0.9896
tp856
a(S'hamburger'
p857
g15
F0.9979
tp858
a(S'you'
p859
g3
F0.9955
tp860
a(S'can'
p861
g6
F0.9997
tp862
a(S'have'
p863
g6
F0.9984
tp864
a(S'daddy'
p865
g15
F0.9934
tp866
a(g5
g29
F0.7682
tp867
a(S'onion'
p868
g109
F0.5611
tp869
a(S'rings'
p870
g15
F0.9967
tp871
a(S'okay'
p872
g34
F0.9424
tp873
asI88
(lp874
(S'what'
p875
g3
F0.9725
tp876
a(S'about'
p877
g46
F0.9836
tp878
a(S'me'
p879
g3
F0.9995
tp880
asI89
(lp881
(S'you'
p882
g3
F0.997
tp883
a(S'eat'
p884
g6
F0.9998
tp885
a(S'your'
p886
g12
F0.9932
tp887
a(S'hamburger'
p888
g15
F0.9971
tp889
a(S'and'
p890
g117
F0.9974
tp891
a(S'your'
p892
g12
F0.8857
tp893
a(S'corn'
p894
g15
F0.9991
tp895
asI90
(lp896
(S'no'
p897
g12
F0.7835
tp898
a(S'hamburger'
p899
g15
F0.9998
tp900
a(S'that'
p901
g46
F0.9019
tp902
a(g5
g6
F0.5539
tp903
a(S'it'
p904
g3
F0.9908
tp905
asI91
(lp906
(S'try'
p907
g6
F0.9953
tp908
a(S'your'
p909
g12
F0.8877
tp910
a(S'xxx'
p911
g15
F0.5423
tp912
a(S'fat'
p913
g109
F0.9118
tp914
asI92
(lp915
(S'no'
p916
g34
F0.9253
tp917
asI93
(lp918
(g178
g3
F0.9896
tp919
a(S'had'
p920
g6
F0.9995
tp921
a(S'onion'
p922
g109
F0.4965
tp923
a(S'rings'
p924
g15
F0.9992
tp925
a(S'today'
p926
g15
F0.9856
tp927
asI94
(lp928
(S'they'
p929
g3
F0.9861
tp930
a(S'were'
p931
g6
F0.9949
tp932
a(S'lousy'
p933
g109
F0.9981
tp934
asI95
(lp935
(g178
g3
F0.9914
tp936
a(S'was'
p937
g6
F0.9996
tp938
a(S'gonna'
p939
g6
F0.9879
tp940
a(S'say'
p941
g6
F0.993
tp942
a(g178
g3
F0.9927
tp943
a(S'll'
p944
g6
F0.7951
tp945
a(S'bet'
p946
g6
F0.9987
tp947
a(S'you'
p948
g3
F0.9965
tp949
a(S'they'
p950
g3
F0.8907
tp951
a(S'were'
p952
g6
F0.995
tp953
a(S'better'
p954
g109
F0.945
tp955
a(S'than'
p956
g46
F0.9974
tp957
a(S'these'
p958
g3
F0.6239
tp959
asI96
(lp960
(S'laughs'
p961
g6
F0.9102
tp962
asI97
(lp963
(S'these'
p964
g12
F0.5392
tp965
a(S'are'
p966
g6
F0.9068
tp967
a(S'frozen'
p968
g109
F0.9278
tp969
asI98
(lp970
(S'burger'
p971
g15
F0.7102
tp972
a(S'king'
p973
g15
F0.9802
tp974
asI99
(lp975
(S'oh'
p976
g34
F0.9987
tp977
a(S'yeah'
p978
g34
F0.9997
tp979
asI100
(lp980
(S'yeah'
p981
g34
F0.9968
tp982
a(g178
g3
F0.9957
tp983
a(S'had'
p984
g6
F0.9998
tp985
a(S'hamburger'
p986
g15
F0.9901
tp987
a(S'today'
p988
g15
F0.995
tp989
a(S'too'
p990
g21
F0.9242
tp991
asI101
(lp992
(S'sorry'
p993
g34
F0.541
tp994
asI102
(lp995
(S'these'
p996
g12
F0.5444
tp997
a(S'are'
p998
g6
F0.9251
tp999
a(S'real'
p1000
g109
F0.9893
tp1001
a(S'hamburger'
p1002
g15
F0.998
tp1003
asI103
(lp1004
(S'yum'
p1005
g34
F0.9526
tp1006
a(S'burger'
p1007
g15
F0.9071
tp1008
asI104
(lp1009
(S'always'
p1010
g21
F0.9917
tp1011
a(S'always'
p1012
g21
F0.9922
tp1013
asI105
(lp1014
(S'hello'
p1015
g34
F0.9965
tp1016
asI106
(lp1017
(S'yup'
p1018
g34
F0.9978
tp1019
asI107
(lp1020
(S'yeah'
p1021
g34
F0.9968
tp1022
a(g178
g3
F0.9954
tp1023
a(S'called'
p1024
g6
F1.0
tp1025
a(S'you'
p1026
g3
F0.9992
tp1027
a(S'twice'
p1028
g21
F0.9892
tp1029
asI108
(lp1030
(S'father'
p1031
g15
F0.9199
tp1032
a(S'can'
p1033
g6
F0.9993
tp1034
a(S'you'
p1035
g3
F0.9987
tp1036
a(S'put'
p1037
g6
F0.9994
tp1038
a(S'your'
p1039
g12
F0.9972
tp1040
a(S'foot'
p1041
g15
F0.9995
tp1042
a(S'on'
p1043
g46
F0.9979
tp1044
a(S'mine'
p1045
g3
F0.9743
tp1046
asI109
(lp1047
(S'stop'
p1048
g6
F0.9933
tp1049
a(S'it'
p1050
g3
F0.993
tp1051
a(S'and'
p1052
g117
F0.9942
tp1053
a(S'eat'
p1054
g6
F0.9258
tp1055
a(S'please'
p1056
g6
F0.9579
tp1057
asI110
(lp1058
(S'laughs'
p1059
g6
F0.9972
tp1060
a(S'it'
p1061
g3
F0.9967
tp1062
a(S'was'
p1063
g6
F0.9999
tp1064
a(S'me'
p1065
g3
F0.9978
tp1066
asI111
(lp1067
(S'keep'
p1068
g6
F0.8926
tp1069
a(S'eating'
p1070
g6
F0.976
tp1071
a(S'bro'
p1072
g15
F0.9914
tp1073
asI112
(lp1074
(S'xxx'
p1075
g61
F0.8437
tp1076
asI113
(lp1077
(S'just'
p1078
g21
F0.9987
tp1079
a(S'think'
p1080
g6
F0.9996
tp1081
a(S'the'
p1082
g12
F0.9961
tp1083
a(S'ice'
p1084
g15
F0.8876
tp1085
a(S'cream'
p1086
g15
F0.9072
tp1087
a(S'truck'
p1088
g15
F0.9909
tp1089
a(S'comes'
p1090
g6
F0.9857
tp1091
a(S'and'
p1092
g117
F0.9966
tp1093
a(S'you'
p1094
g3
F0.9801
tp1095
a(S'guys'
p1096
g15
F0.9274
tp1097
a(S'aren'
p1098
g6
F0.3593
tp1099
a(g223
g6
F0.3139
tp1100
a(S'done'
p1101
g6
F0.9772
tp1102
a(S'eatin'
p1103
g6
F0.6158
tp1104
a(g100
g6
F0.5878
tp1105
a(S'you'
p1106
g3
F0.9987
tp1107
a(S'don'
p1108
g6
F0.8626
tp1109
a(g223
g15
F0.3014
tp1110
a(S'get'
p1111
g6
F0.9957
tp1112
a(S'ice'
p1113
g109
F0.5516
tp1114
a(S'cream'
p1115
g15
F0.972
tp1116
asI114
(lp1117
(S'www'
p1118
g49
F0.3889
tp1119
asI115
(lp1120
(S'who'
p1121
g3
F0.9957
tp1122
a(S'was'
p1123
g6
F0.9998
tp1124
a(S'that'
p1125
g3
F0.7793
tp1126
asI116
(lp1127
(S'it'
p1128
g3
F0.9956
tp1129
a(S'was'
p1130
g6
F0.9989
tp1131
a(S'christie'
p1132
g49
F0.9985
tp1133
a(g5
g29
F0.4809
tp1134
a(S'mother'
p1135
g15
F0.9394
tp1136
asI117
(lp1137
(S'sit'
p1138
g6
F0.9868
tp1139
a(S'down'
p1140
g54
F0.7639
tp1141
a(S'and'
p1142
g117
F0.9958
tp1143
a(S'eat'
p1144
g6
F0.9555
tp1145
a(S'chi'
p1146
g49
F0.5714
tp1147
a(S'come'
p1148
g6
F0.9924
tp1149
a(S'on'
p1150
g46
F0.5684
tp1151
asI118
(lp1152
(S'christie'
p1153
g49
F0.9979
tp1154
a(S'who'
p1155
g3
F0.9856
tp1156
asI119
(lp1157
(S'christie'
p1158
g49
F0.9992
tp1159
a(S'magnuson'
p1160
g49
F0.9779
tp1161
asI120
(lp1162
(S'no'
p1163
g34
F0.7094
tp1164
a(S'christie'
p1165
g49
F0.9754
tp1166
a(S'magason'
p1167
g49
F0.6782
tp1168
a(S'shouts'
p1169
g6
F0.9265
tp1170
asI121
(lp1171
(S'ten'
p1172
g58
F0.9305
tp1173
a(S'bucks'
p1174
g15
F0.934
tp1175
asI122
(lp1176
(S'chi'
p1177
g49
F0.6366
tp1178
a(S'be'
p1179
g6
F0.9857
tp1180
a(S'careful'
p1181
g109
F0.6422
tp1182
a(S'you'
p1183
g3
F0.9789
tp1184
a(S're'
p1185
g6
F0.8085
tp1186
a(S'gettin'
p1187
g6
F0.8593
tp1188
a(g100
g15
F0.2063
tp1189
a(S'ketchup'
p1190
g15
F0.9846
tp1191
a(S'on'
p1192
g46
F0.999
tp1193
a(S'your'
p1194
g12
F0.9941
tp1195
a(S'dress'
p1196
g15
F0.9983
tp1197
asI123
(lp1198
(S'and'
p1199
g117
F0.9984
tp1200
a(S'twenty'
p1201
g58
F0.5815
tp1202
a(S'two'
p1203
g58
F0.9809
tp1204
a(S'cents'
p1205
g15
F0.9929
tp1206
asI124
(lp1207
(S'what'
p1208
g3
F0.9923
tp1209
a(S'was'
p1210
g6
F0.9996
tp1211
a(S'it'
p1212
g3
F0.9532
tp1213
a(S'ten'
p1214
g58
F0.8333
tp1215
a(S'bucks'
p1216
g15
F0.9278
tp1217
a(S'and'
p1218
g117
F0.9977
tp1219
a(S'twenty'
p1220
g58
F0.6724
tp1221
a(S'two'
p1222
g58
F0.9816
tp1223
a(S'cents'
p1224
g15
F0.9828
tp1225
a(S'mot'
p1226
g29
F0.5941
tp1227
asI125
(lp1228
(S'mm'
p1229
g34
F0.627
tp1230
asI126
(lp1231
(S'crazy'
p1232
g109
F0.9821
tp1233
asI127
(lp1234
(S'she'
p1235
g3
F0.997
tp1236
a(S'owes'
p1237
g6
F1.0
tp1238
a(S'me'
p1239
g3
F0.988
tp1240
a(S'ten'
p1241
g58
F0.8853
tp1242
a(S'dollars'
p1243
g15
F0.9932
tp1244
a(S'and'
p1245
g117
F0.9977
tp1246
a(S'twenty'
p1247
g58
F0.6469
tp1248
a(S'two'
p1249
g58
F0.9816
tp1250
a(S'cents'
p1251
g15
F0.992
tp1252
asI128
(lp1253
(S'oh'
p1254
g34
F0.9988
tp1255
asI129
(lp1256
(S'who'
p1257
g3
F0.9764
tp1258
asI130
(lp1259
(S'sigh'
p1260
g6
F0.6897
tp1261
asI131
(lp1262
(S'what'
p1263
g3
F0.9216
tp1264
a(S'she'
p1265
g3
F0.9981
tp1266
a(S'buy'
p1267
g6
F0.9799
tp1268
asI132
(lp1269
(S'move'
p1270
g6
F0.951
tp1271
a(S'your'
p1272
g12
F0.9895
tp1273
a(S'plate'
p1274
g15
F0.9984
tp1275
a(S'chi'
p1276
g29
F0.5267
tp1277
asI133
(lp1278
(S'what'
p1279
g3
F0.9216
tp1280
a(S'she'
p1281
g3
F0.9982
tp1282
a(S'buying'
p1283
g6
F0.9993
tp1284
asI134
(lp1285
(S'toys'
p1286
g15
F0.9734
tp1287
asI135
(lp1288
(S'what'
p1289
g3
F0.5924
tp1290
a(S'toys'
p1291
g15
F0.9916
tp1292
asI136
(lp1293
(S'actually'
p1294
g21
F0.9926
tp1295
a(S'she'
p1296
g3
F0.9926
tp1297
a(g5
g6
F0.4745
tp1298
a(S'not'
p1299
g21
F0.9954
tp1300
a(S'buying'
p1301
g6
F0.9988
tp1302
a(S'toys'
p1303
g15
F0.9839
tp1304
a(S'she'
p1305
g3
F0.9818
tp1306
a(g5
g6
F0.5943
tp1307
a(S'buying'
p1308
g6
F0.9963
tp1309
a(S'kitchen'
p1310
g15
F0.864
tp1311
a(S'things'
p1312
g15
F0.9963
tp1313
asI137
(lp1314
(S'what'
p1315
g3
F0.8373
tp1316
a(S'kind'
p1317
g15
F0.9635
tp1318
a(S'of'
p1319
g46
F0.9959
tp1320
a(S'kitchen'
p1321
g15
F0.7316
tp1322
a(S'things'
p1323
g15
F0.9932
tp1324
asI138
(lp1325
(S'don'
p1326
g49
F0.5427
tp1327
a(g223
g49
F0.6311
tp1328
a(S'worry'
p1329
g6
F0.9929
tp1330
a(S'about'
p1331
g46
F0.9918
tp1332
a(S'it'
p1333
g3
F0.999
tp1334
asI139
(lp1335
(S'babbling'
p1336
g6
F0.9317
tp1337
asI140
(lp1338
(g178
g3
F0.9586
tp1339
a(S'm'
p1340
g6
F0.9838
tp1341
a(S'curious'
p1342
g109
F0.9468
tp1343
asI141
(lp1344
(S'freddy'
p1345
g49
F0.9919
tp1346
asI142
(lp1347
(S'freddy'
p1348
g49
F0.9919
tp1349
asI143
(lp1350
(S'freddy'
p1351
g49
F0.9919
tp1352
asI144
(lp1353
(S'freddy'
p1354
g49
F0.9919
tp1355
asI145
(lp1356
(S'chi'
p1357
g49
F0.6884
tp1358
a(S'leave'
p1359
g6
F0.9563
tp1360
a(S'freddy'
p1361
g49
F0.9876
tp1362
a(S'alone'
p1363
g21
F0.4767
tp1364
asI146
(lp1365
(S'brother'
p1366
g15
F0.918
tp1367
asI147
(lp1368
(S'he'
p1369
g3
F0.9961
tp1370
a(S'needs'
p1371
g6
F0.9989
tp1372
a(S'food'
p1373
g15
F0.9819
tp1374
a(S'in'
p1375
g46
F0.9986
tp1376
a(S'his'
p1377
g12
F0.9988
tp1378
a(S'dish'
p1379
g15
F0.9987
tp1380
a(g178
g3
F0.9348
tp1381
a(S'went'
p1382
g6
F0.9996
tp1383
a(S'through'
p1384
g46
F0.8737
tp1385
a(S'there'
p1386
g21
F0.5223
tp1387
a(S'today'
p1388
g15
F0.9556
tp1389
asI148
(lp1390
(S'he'
p1391
g3
F0.996
tp1392
a(S'was'
p1393
g6
F0.9993
tp1394
a(S'gonna'
p1395
g6
F0.9786
tp1396
a(S'bite'
p1397
g6
F0.9994
tp1398
a(S'me'
p1399
g3
F0.9981
tp1400
a(S'so'
p1401
g21
F0.8476
tp1402
a(g178
g3
F0.9925
tp1403
a(S'said'
p1404
g6
F0.9994
tp1405
a(S'forget'
p1406
g6
F0.9979
tp1407
a(S'it'
p1408
g3
F0.99
tp1409
a(S'laughs'
p1410
g6
F0.9947
tp1411
asI149
(lp1412
(g178
g3
F0.9793
tp1413
a(S'll'
p1414
g6
F0.7967
tp1415
a(S'let'
p1416
g6
F0.9836
tp1417
a(S'bro'
p1418
g15
F0.9833
tp1419
a(S'do'
p1420
g6
F0.999
tp1421
a(S'it'
p1422
g3
F0.9931
tp1423
asI150
(lp1424
(S'freddy'
p1425
g49
F0.9919
tp1426
asI151
(lp1427
(S'me'
p1428
g3
F0.9918
tp1429
asI152
(lp1430
(S'no'
p1431
g34
F0.9253
tp1432
asI153
(lp1433
(S'me'
p1434
g3
F0.9918
tp1435
asI154
(lp1436
(S'chi'
p1437
g34
F0.4684
tp1438
asI155
(lp1439
(S'come'
p1440
g6
F0.9897
tp1441
a(S'on'
p1442
g46
F0.9163
tp1443
a(S'eat'
p1444
g6
F0.9198
tp1445
a(S'up'
p1446
g54
F0.9683
tp1447
asI156
(lp1448
(S'when'
p1449
g21
F0.9614
tp1450
a(S'xxx'
p1451
g61
F0.3173
tp1452
a(S'my'
p1453
g12
F0.9908
tp1454
a(S'corn'
p1455
g15
F0.9993
tp1456
asI157
(lp1457
(g178
g3
F0.9586
tp1458
a(g1340
g6
F0.9551
tp1459
a(S'gonna'
p1460
g6
F0.989
tp1461
asI158
(lp1462
(S'laughs'
p1463
g6
F0.9102
tp1464
asI159
(lp1465
(S'chi'
p1466
g29
F0.3949
tp1467
a(S'you'
p1468
g3
F0.9986
tp1469
a(S'want'
p1470
g6
F0.9995
tp1471
a(S'ice'
p1472
g15
F0.6394
tp1473
a(S'cream'
p1474
g15
F0.9632
tp1475
a(S'for'
p1476
g46
F0.9995
tp1477
a(S'dessert'
p1478
g15
F0.9299
tp1479
asI160
(lp1480
(g178
g3
F0.953
tp1481
a(g1340
g6
F0.9859
tp1482
a(S'running'
p1483
g6
F0.9986
tp1484
a(S'around'
p1485
g46
F0.4067
tp1486
asI161
(lp1487
(S'you'
p1488
g3
F0.998
tp1489
a(S'want'
p1490
g6
F0.999
tp1491
a(S'ice'
p1492
g15
F0.791
tp1493
a(S'cream'
p1494
g15
F0.97
tp1495
asI162
(lp1496
(S'don'
p1497
g49
F0.5427
tp1498
a(g223
g49
F0.4854
tp1499
a(S'use'
p1500
g6
F0.9562
tp1501
a(S'your'
p1502
g12
F0.9952
tp1503
a(S'fingers'
p1504
g15
F0.9943
tp1505
asI163
(lp1506
(S'come'
p1507
g6
F0.9897
tp1508
a(S'on'
p1509
g46
F0.9519
tp1510
a(S'get'
p1511
g6
F0.9872
tp1512
a(S'up'
p1513
g54
F0.9361
tp1514
a(S'and'
p1515
g117
F0.9972
tp1516
a(S'eat'
p1517
g6
F0.9728
tp1518
asI164
(lp1519
(S'fat'
p1520
g109
F0.8868
tp1521
asI165
(lp1522
(g112
g58
F0.9858
tp1523
a(S'baby'
p1524
g15
F0.9968
tp1525
a(S'prattle'
p1526
g15
F0.8831
tp1527
asI166
(lp1528
(S'mother'
p1529
g15
F0.9356
tp1530
asI167
(lp1531
(S'can'
p1532
g6
F0.999
tp1533
a(S'you'
p1534
g3
F0.9988
tp1535
a(S'get'
p1536
g6
F1.0
tp1537
a(S'me'
p1538
g3
F0.994
tp1539
a(S'some'
p1540
g12
F0.5609
tp1541
a(S'more'
p1542
g109
F0.9313
tp1543
a(S'um'
p1544
g34
F0.4683
tp1545
a(S'more'
p1546
g109
F0.9482
tp1547
a(S'water'
p1548
g15
F0.9973
tp1549
a(S'be'
p1550
g6
F0.9819
tp1551
a(S'cause'
p1552
g46
F0.966
tp1553
a(S'his'
p1554
g12
F0.9166
tp1555
a(S'his'
p1556
g12
F0.862
tp1557
a(S'knocked'
p1558
g6
F0.9327
tp1559
a(S'over'
p1560
g46
F0.5104
tp1561
asI168
(lp1562
(S'father'
p1563
g15
F0.945
tp1564
a(S'will'
p1565
g6
F0.994
tp1566
a(S'take'
p1567
g6
F0.9983
tp1568
a(S'care'
p1569
g15
F0.9484
tp1570
a(S'of'
p1571
g46
F0.9973
tp1572
a(S'it'
p1573
g3
F0.9973
tp1574
asI169
(lp1575
(S'freddy'
p1576
g49
F0.9988
tp1577
a(S'don'
p1578
g49
F0.8194
tp1579
a(g223
g49
F0.5502
tp1580
a(S'bite'
p1581
g6
F0.9057
tp1582
a(S'fat'
p1583
g109
F0.9637
tp1584
a(S'or'
p1585
g117
F0.9867
tp1586
a(S'you'
p1587
g3
F0.9958
tp1588
a(S're'
p1589
g6
F0.7466
tp1590
a(S'getting'
p1591
g6
F0.9995
tp1592
a(S'out'
p1593
g46
F0.8107
tp1594
a(S'of'
p1595
g46
F0.9984
tp1596
a(S'the'
p1597
g12
F0.999
tp1598
a(S'cage'
p1599
g15
F0.9948
tp1600
a(S'xxx'
p1601
g6
F0.2893
tp1602
a(S'you'
p1603
g3
F0.9989
tp1604
a(S'go'
p1605
g6
F0.9988
tp1606
a(S'to'
p1607
g46
F0.9715
tp1608
a(S'sleep'
p1609
g6
F0.917
tp1610
asI170
(lp1611
(S'chi'
p1612
g49
F0.5882
tp1613
a(S'come'
p1614
g6
F0.9926
tp1615
a(S'on'
p1616
g54
F0.7116
tp1617
asI171
(lp1618
(g178
g3
F0.953
tp1619
a(g1340
g6
F0.9629
tp1620
a(S'gonna'
p1621
g6
F0.9911
tp1622
a(S'get'
p1623
g6
F0.9999
tp1624
a(S'an'
p1625
g12
F0.9935
tp1626
a(S'ice'
p1627
g15
F0.9465
tp1628
a(S'cream'
p1629
g15
F0.9636
tp1630
a(S'too'
p1631
g21
F0.9368
tp1632
asI172
(lp1633
(S'me'
p1634
g3
F0.9951
tp1635
a(S'too'
p1636
g21
F0.9856
tp1637
asI173
(lp1638
(S'brother'
p1639
g15
F0.9255
tp1640
a(S'eat'
p1641
g6
F0.996
tp1642
a(S'over'
p1643
g46
F0.8762
tp1644
a(S'your'
p1645
g12
F0.9919
tp1646
a(S'dish'
p1647
g15
F0.9987
tp1648
a(S'please'
p1649
g6
F0.9688
tp1650
asI174
(lp1651
(S'what'
p1652
g3
F0.5995
tp1653
a(S'time'
p1654
g15
F0.993
tp1655
a(g5
g29
F0.733
tp1656
a(S'he'
p1657
g3
F0.9945
tp1658
a(S'usually'
p1659
g21
F0.9995
tp1660
a(S'come'
p1661
g6
F0.9994
tp1662
a(S'around'
p1663
g21
F0.4526
tp1664
asI175
(lp1665
(S'six'
p1666
g58
F0.4753
tp1667
asI176
(lp1668
(S'supper'
p1669
g15
F0.9367
tp1670
asI177
(lp1671
(S'chuckle'
p1672
g6
F0.6613
tp1673
asI178
(lp1674
(S'brother'
p1675
g15
F0.918
tp1676
asI179
(lp1677
(S'go'
p1678
g6
F0.9863
tp1679
a(g11
g12
F0.9962
tp1680
a(S'head'
p1681
g15
F0.997
tp1682
a(S'play'
p1683
g6
F0.9453
tp1684
a(S'go'
p1685
g6
F0.9896
tp1686
a(g11
g12
F0.9949
tp1687
a(S'head'
p1688
g15
F0.9921
tp1689
asI180
(lp1690
(S'eight'
p1691
g58
F0.8945
tp1692
a(g642
g46
F0.8357
tp1693
a(S'clock'
p1694
g15
F0.9785
tp1695
a(S'tonight'
p1696
g21
F0.7476
tp1697
a(S'you'
p1698
g3
F0.9988
tp1699
a(S'wanna'
p1700
g6
F0.996
tp1701
a(S'go'
p1702
g6
F0.9987
tp1703
a(S'to'
p1704
g46
F0.9838
tp1705
a(S'bed'
p1706
g15
F0.7188
tp1707
a(S'even'
p1708
g21
F0.9988
tp1709
a(S'earlier'
p1710
g109
F0.5661
tp1711
asI181
(lp1712
(S'scream'
p1713
g6
F0.9657
tp1714
asI182
(lp1715
(S'you'
p1716
g3
F0.9754
tp1717
a(S're'
p1718
g6
F0.6572
tp1719
a(S'already'
p1720
g21
F0.9975
tp1721
a(S'going'
p1722
g6
F0.9986
tp1723
a(S'to'
p1724
g46
F0.975
tp1725
a(S'bed'
p1726
g15
F0.8051
tp1727
a(S'at'
p1728
g46
F0.9995
tp1729
a(S'eight'
p1730
g58
F0.6872
tp1731
asI183
(lp1732
(S'go'
p1733
g6
F0.9625
tp1734
a(S'ahead'
p1735
g21
F0.9465
tp1736
a(S'chi'
p1737
g29
F0.3196
tp1738
a(S'you'
p1739
g3
F0.9805
tp1740
a(S're'
p1741
g6
F0.7653
tp1742
a(S'not'
p1743
g21
F0.996
tp1744
a(S'getting'
p1745
g6
F0.9991
tp1746
a(S'away'
p1747
g21
F0.9831
tp1748
a(S'from'
p1749
g46
F0.9993
tp1750
a(S'it'
p1751
g3
F0.9933
tp1752
a(g178
g3
F0.9596
tp1753
a(S'll'
p1754
g6
F0.7524
tp1755
a(S'take'
p1756
g6
F0.9994
tp1757
a(S'your'
p1758
g12
F0.9959
tp1759
a(S'dish'
p1760
g15
F0.9992
tp1761
a(S'away'
p1762
g21
F0.9567
tp1763
asI184
(lp1764
(g178
g3
F0.9635
tp1765
a(S'don'
p1766
g6
F0.9231
tp1767
a(g223
g15
F0.2363
tp1768
a(S'wanna'
p1769
g6
F0.9853
tp1770
a(S'go'
p1771
g6
F0.9987
tp1772
a(S'to'
p1773
g46
F0.9838
tp1774
a(S'bed'
p1775
g15
F0.6093
tp1776
a(S'un'
p1777
g29
F0.4513
tp1778
a(S'til'
p1779
g46
F0.7893
tp1780
a(S'later'
p1781
g21
F0.8954
tp1782
asI185
(lp1783
(S'you'
p1784
g3
F0.963
tp1785
a(S're'
p1786
g6
F0.7323
tp1787
a(S'not'
p1788
g21
F0.9893
tp1789
asI186
(lp1790
(S'and'
p1791
g117
F0.9983
tp1792
a(S'if'
p1793
g46
F0.9919
tp1794
a(S'you'
p1795
g3
F0.9996
tp1796
a(S'keep'
p1797
g6
F0.9995
tp1798
a(S'it'
p1799
g3
F0.9938
tp1800
a(S'up'
p1801
g54
F0.88
tp1802
a(S'you'
p1803
g3
F0.9911
tp1804
a(S're'
p1805
g6
F0.5665
tp1806
a(S'gonna'
p1807
g6
F0.9896
tp1808
a(S'go'
p1809
g6
F0.9992
tp1810
a(S'to'
p1811
g46
F0.9838
tp1812
a(S'bed'
p1813
g15
F0.7044
tp1814
a(S'even'
p1815
g21
F0.9989
tp1816
a(S'earlier'
p1817
g21
F0.5009
tp1818
asI187
(lp1819
(S'wanna'
p1820
g6
F0.9648
tp1821
a(S'throw'
p1822
g6
F0.9986
tp1823
a(S'it'
p1824
g3
F0.9841
tp1825
a(S'away'
p1826
g21
F0.939
tp1827
asI188
(lp1828
(S'whoa'
p1829
g34
F0.9977
tp1830
asI189
(lp1831
(S'xxx'
p1832
g61
F0.6302
tp1833
a(S'onion'
p1834
g109
F0.595
tp1835
a(S'rings'
p1836
g15
F0.9994
tp1837
a(S'or'
p1838
g117
F0.982
tp1839
a(S'xxx'
p1840
g61
F0.7411
tp1841
asI190
(lp1842
(S'what'
p1843
g3
F0.949
tp1844
asI191
(lp1845
(S'you'
p1846
g3
F0.998
tp1847
a(S'want'
p1848
g6
F0.9999
tp1849
a(S'those'
p1850
g12
F0.9335
tp1851
a(S'onion'
p1852
g15
F0.651
tp1853
a(S'rings'
p1854
g15
F0.9927
tp1855
a(S'or'
p1856
g117
F0.9846
tp1857
a(S'xxx'
p1858
g61
F0.7488
tp1859
asI192
(lp1860
(g178
g3
F0.9902
tp1861
a(S'want'
p1862
g6
F0.9999
tp1863
a(S'some'
p1864
g12
F0.8559
tp1865
asI193
(lp1866
(S'oh'
p1867
g34
F0.9878
tp1868
a(S'you'
p1869
g3
F0.9943
tp1870
a(S'eat'
p1871
g6
F0.9995
tp1872
a(S'that'
p1873
g3
F0.6839
tp1874
asI194
(lp1875
(S'eat'
p1876
g6
F0.9835
tp1877
a(S'over'
p1878
g46
F0.9054
tp1879
a(S'your'
p1880
g12
F0.9902
tp1881
a(S'plate'
p1882
g15
F0.999
tp1883
asI195
(lp1884
(S'seven'
p1885
g58
F0.8761
tp1886
a(S'thirty'
p1887
g109
F0.2302
tp1888
a(S'now'
p1889
g21
F0.9716
tp1890
asI196
(lp1891
(S'cut'
p1892
g6
F0.8842
tp1893
a(S'it'
p1894
g3
F0.9928
tp1895
a(S'out'
p1896
g54
F0.8475
tp1897
a(S'chi'
p1898
g49
F0.4282
tp1899
asI197
(lp1900
(S'want'
p1901
g6
F0.9975
tp1902
a(S'some'
p1903
g12
F0.9934
tp1904
a(S'water'
p1905
g15
F0.996
tp1906
a(S'or'
p1907
g117
F0.9879
tp1908
a(S'milk'
p1909
g15
F0.9942
tp1910
asI198
(lp1911
(S'mother'
p1912
g15
F0.9356
tp1913
asI199
(lp1914
(S'yes'
p1915
g34
F0.9958
tp1916
asI200
(lp1917
(S'can'
p1918
g6
F0.9755
tp1919
a(g178
g3
F0.987
tp1920
a(S'have'
p1921
g6
F0.9999
tp1922
a(S'some'
p1923
g12
F0.9957
tp1924
a(S'water'
p1925
g15
F0.9885
tp1926
asI201
(lp1927
(S'yummy'
p1928
g109
F0.4298
tp1929
asI202
(lp1930
(S'yummy'
p1931
g109
F0.6878
tp1932
a(S'yummy'
p1933
g109
F0.8498
tp1934
a(S'yummy'
p1935
g109
F0.7085
tp1936
a(S'yummy'
p1937
g109
F0.7668
tp1938
a(S'yummy'
p1939
g109
F0.6718
tp1940
a(S'sings'
p1941
g15
F0.7911
tp1942
asI203
(lp1943
(S'gotta'
p1944
g6
F0.9876
tp1945
a(S'eat'
p1946
g6
F0.9805
tp1947
a(S'chi'
p1948
g49
F0.4035
tp1949
asI204
(lp1950
(S'xxx'
p1951
g61
F0.8437
tp1952
asI205
(lp1953
(S'watch'
p1954
g6
F0.9883
tp1955
a(S'out'
p1956
g54
F0.6956
tp1957
a(S'chi'
p1958
g49
F0.4155
tp1959
asI206
(lp1960
(S'aw'
p1961
g34
F0.9882
tp1962
a(S'she'
p1963
g3
F0.9962
tp1964
a(g5
g29
F0.533
tp1965
a(S'already'
p1966
g21
F0.9886
tp1967
a(S'got'
p1968
g6
F0.9947
tp1969
a(S'ketchup'
p1970
g15
F0.9282
tp1971
a(S'all'
p1972
g12
F0.4423
tp1973
a(S'over'
p1974
g46
F0.9366
tp1975
a(S'it'
p1976
g3
F0.9988
tp1977
asI207
(lp1978
(S'sit'
p1979
g6
F0.9868
tp1980
a(S'down'
p1981
g54
F0.795
tp1982
a(S'you'
p1983
g3
F0.9928
tp1984
a(S're'
p1985
g6
F0.7538
tp1986
a(S'getting'
p1987
g6
F0.9967
tp1988
a(S'ketchup'
p1989
g15
F0.9696
tp1990
a(S'on'
p1991
g46
F0.9992
tp1992
a(S'your'
p1993
g12
F0.993
tp1994
a(S'dress'
p1995
g15
F0.9983
tp1996
asI208
(lp1997
(S'sit'
p1998
g6
F0.9825
tp1999
a(S'down'
p2000
g54
F0.9271
tp2001
asI209
(lp2002
(S'sit'
p2003
g6
F0.8568
tp2004
asI210
(lp2005
(S'what'
p2006
g3
F0.9493
tp2007
a(S'd'
p2008
g15
F0.4943
tp2009
a(g178
g3
F0.9627
tp2010
a(S'do'
p2011
g6
F0.9999
tp2012
a(S'wit'
p2013
g46
F0.7999
tp2014
a(S'h'
p2015
g29
F0.5486
tp2016
a(S'my'
p2017
g12
F0.9929
tp2018
a(S'cigarettes'
p2019
g15
F0.9981
tp2020
asI211
(lp2021
(S'we'
p2022
g3
F0.9973
tp2023
a(S'have'
p2024
g6
F0.9999
tp2025
a(g11
g12
F0.9976
tp2026
a(S'lot'
p2027
g15
F0.9809
tp2028
a(S'of'
p2029
g46
F0.998
tp2030
a(S'drink'
p2031
g15
F0.6177
tp2032
a(S'to'
p2033
g46
F0.9991
tp2034
a(S'drink'
p2035
g6
F0.9563
tp2036
a(S'chi'
p2037
g29
F0.2862
tp2038
asI212
(lp2039
(S'way'
p2040
g15
F0.5696
tp2041
a(S'lot'
p2042
g15
F0.8727
tp2043
a(S'of'
p2044
g46
F0.9917
tp2045
a(S'little'
p2046
g109
F0.9926
tp2047
a(S'cups'
p2048
g15
F0.9954
tp2049
asI213
(lp2050
(S'panting'
p2051
g6
F0.9889
tp2052
asI214
(lp2053
(S'xxx'
p2054
g61
F0.8437
tp2055
asI215
(lp2056
(S'xxx'
p2057
g61
F0.8437
tp2058
asI216
(lp2059
(S'get'
p2060
g6
F0.9978
tp2061
a(S'all'
p2062
g12
F0.7434
tp2063
a(S'his'
p2064
g12
F0.9989
tp2065
a(S'food'
p2066
g15
F0.9917
tp2067
a(S'and'
p2068
g117
F0.9969
tp2069
a(S'put'
p2070
g6
F0.8994
tp2071
a(S'xxx'
p2072
g61
F0.7582
tp2073
asI217
(lp2074
(S'brother'
p2075
g15
F0.9017
tp2076
a(S'that'
p2077
g46
F0.9433
tp2078
a(g5
g29
F0.4403
tp2079
a(S'enough'
p2080
g21
F0.8287
tp2081
a(S'now'
p2082
g21
F0.9986
tp2083
a(S'eat'
p2084
g6
F0.9614
tp2085
asI218
(lp2086
(S'jennifer'
p2087
g49
F0.9971
tp2088
a(S'was'
p2089
g6
F0.9983
tp2090
a(S'over'
p2091
g46
F0.3166
tp2092
a(S'today'
p2093
g15
F0.9915
tp2094
asI219
(lp2095
(S'oh'
p2096
g34
F0.9988
tp2097
asI220
(lp2098
(S'freddy'
p2099
g49
F0.9919
tp2100
asI221
(lp2101
(S'that'
p2102
g3
F0.473
tp2103
a(g5
g29
F0.4823
tp2104
a(S'probably'
p2105
g21
F0.9956
tp2106
a(S'why'
p2107
g21
F0.9815
tp2108
a(S'she'
p2109
g3
F0.9988
tp2110
a(S'brought'
p2111
g6
F0.9998
tp2112
a(S'us'
p2113
g3
F0.9565
tp2114
a(S'jennifer'
p2115
g49
F0.9772
tp2116
a(S'xxx'
p2117
g61
F0.6943
tp2118
asI222
(lp2119
(S'sit'
p2120
g6
F0.9825
tp2121
a(S'down'
p2122
g54
F0.8561
tp2123
a(S'chi'
p2124
g29
F0.4371
tp2125
asI223
(lp2126
(S'chi'
p2127
g49
F0.5407
tp2128
a(S'ain'
p2129
g6
F0.6125
tp2130
a(g223
g6
F0.5302
tp2131
a(S'getting'
p2132
g6
F0.9964
tp2133
a(S'ice'
p2134
g15
F0.6677
tp2135
a(S'cream'
p2136
g15
F0.9609
tp2137
asI224
(lp2138
(S'you'
p2139
g3
F0.998
tp2140
a(S'have'
p2141
g6
F0.9994
tp2142
a(S'to'
p2143
g46
F0.9826
tp2144
a(S'go'
p2145
g6
F0.9993
tp2146
a(S'to'
p2147
g46
F0.9984
tp2148
a(S'the'
p2149
g12
F0.9985
tp2150
a(S'bath'
p2151
g15
F0.9938
tp2152
a(S'room'
p2153
g15
F0.9899
tp2154
asI225
(lp2155
(g178
g3
F0.9156
tp2156
a(S've'
p2157
g6
F0.8726
tp2158
a(S'got'
p2159
g6
F0.9796
tp2160
a(S'stomach'
p2161
g15
F0.9941
tp2162
a(S'ache'
p2163
g6
F0.9663
tp2164
asI226
(lp2165
(S'you'
p2166
g3
F0.998
tp2167
a(S'have'
p2168
g6
F0.9994
tp2169
a(S'to'
p2170
g46
F0.9826
tp2171
a(S'go'
p2172
g6
F0.9993
tp2173
a(S'to'
p2174
g46
F0.9984
tp2175
a(S'the'
p2176
g12
F0.9985
tp2177
a(S'bath'
p2178
g15
F0.9938
tp2179
a(S'room'
p2180
g15
F0.9899
tp2181
asI227
(lp2182
(g178
g3
F0.9156
tp2183
a(S've'
p2184
g6
F0.8726
tp2185
a(S'got'
p2186
g6
F0.9974
tp2187
a(g11
g12
F0.9983
tp2188
a(S'tummy'
p2189
g15
F0.99
tp2190
a(S'ache'
p2191
g6
F0.9409
tp2192
asI228
(lp2193
(S'do'
p2194
g6
F0.9985
tp2195
a(S'you'
p2196
g3
F0.9996
tp2197
a(S'have'
p2198
g6
F0.9996
tp2199
a(S'to'
p2200
g46
F0.9894
tp2201
a(S'go'
p2202
g6
F0.9993
tp2203
a(S'to'
p2204
g46
F0.9984
tp2205
a(S'the'
p2206
g12
F0.9989
tp2207
a(S'bath'
p2208
g15
F0.9941
tp2209
a(S'room'
p2210
g15
F0.9927
tp2211
a(S'though'
p2212
g46
F0.9578
tp2213
asI229
(lp2214
(S'yeah'
p2215
g34
F0.9988
tp2216
asI230
(lp2217
(S'go'
p2218
g6
F0.8465
tp2219
asI231
(lp2220
(S'hurry'
p2221
g6
F0.9362
tp2222
a(S'up'
p2223
g54
F0.9889
tp2224
asI232
(lp2225
(S'come'
p2226
g6
F0.9921
tp2227
a(S'with'
p2228
g46
F0.9981
tp2229
a(S'me'
p2230
g3
F0.9987
tp2231
a(S'come'
p2232
g6
F0.9892
tp2233
asI233
(lp2234
(S'no'
p2235
g34
F0.7985
tp2236
a(S'you'
p2237
g3
F0.9928
tp2238
a(S'don'
p2239
g6
F0.8576
tp2240
a(g223
g29
F0.2347
tp2241
a(S'need'
p2242
g6
F0.9859
tp2243
a(S'nobody'
p2244
g15
F0.9744
tp2245
a(S'to'
p2246
g46
F0.9964
tp2247
a(S'go'
p2248
g6
F0.9988
tp2249
a(S'witcha'
p2250
g21
F0.3399
tp2251
a(S'with'
p2252
g46
F0.9996
tp2253
a(S'you'
p2254
g3
F0.9965
tp2255
a(g178
g3
F0.8476
tp2256
a(S'll'
p2257
g6
F0.8765
tp2258
a(S'wait'
p2259
g6
F0.9974
tp2260
a(S'right'
p2261
g21
F0.894
tp2262
a(S'here'
p2263
g21
F0.9757
tp2264
asI234
(lp2265
(S'go'
p2266
g6
F0.9589
tp2267
a(S'ahead'
p2268
g21
F0.8755
tp2269
asI235
(lp2270
(S'father'
p2271
g15
F0.9199
tp2272
a(S'can'
p2273
g6
F0.9966
tp2274
a(S'see'
p2275
g6
F0.9998
tp2276
a(S'you'
p2277
g3
F0.9886
tp2278
asI236
(lp2279
(g178
g3
F0.9897
tp2280
a(S'want'
p2281
g6
F1.0
tp2282
a(S'you'
p2283
g3
F0.9989
tp2284
a(S'to'
p2285
g46
F0.9696
tp2286
a(S'go'
p2287
g6
F0.9995
tp2288
a(S'with'
p2289
g46
F0.9991
tp2290
a(S'me'
p2291
g3
F0.998
tp2292
asI237
(lp2293
(S'go'
p2294
g6
F0.9625
tp2295
a(S'ahead'
p2296
g21
F0.9589
tp2297
a(g178
g3
F0.9829
tp2298
a(S'can'
p2299
g6
F0.9997
tp2300
a(S'see'
p2301
g6
F0.9998
tp2302
a(S'you'
p2303
g3
F0.9904
tp2304
asI238
(lp2305
(S'he'
p2306
g3
F0.9947
tp2307
a(S'can'
p2308
g6
F0.9997
tp2309
a(S'see'
p2310
g6
F0.9998
tp2311
a(S'you'
p2312
g3
F0.9886
tp2313
asI239
(lp2314
(S'go'
p2315
g6
F0.9589
tp2316
a(S'ahead'
p2317
g21
F0.8755
tp2318
asI240
(lp2319
(S'he'
p2320
g3
F0.9905
tp2321
a(g5
g6
F0.7029
tp2322
a(S'not'
p2323
g21
F0.9958
tp2324
a(S'coming'
p2325
g6
F0.9989
tp2326
a(S'he'
p2327
g3
F0.997
tp2328
a(S'can'
p2329
g6
F0.9997
tp2330
a(S'see'
p2331
g6
F0.9997
tp2332
a(S'you'
p2333
g3
F0.995
tp2334
a(S'go'
p2335
g6
F0.9947
tp2336
asI241
(lp2337
(S'xxx'
p2338
g61
F0.8437
tp2339
asI242
(lp2340
(S'hurry'
p2341
g6
F0.9362
tp2342
a(S'up'
p2343
g54
F0.9889
tp2344
asI243
(lp2345
(g178
g3
F0.9802
tp2346
a(S'll'
p2347
g6
F0.6404
tp2348
a(S'go'
p2349
g6
F0.9877
tp2350
asI244
(lp2351
(S'go'
p2352
g6
F0.9589
tp2353
a(S'ahead'
p2354
g21
F0.8755
tp2355
asI245
(lp2356
(g178
g3
F0.9802
tp2357
a(S'll'
p2358
g6
F0.6404
tp2359
a(S'go'
p2360
g6
F0.9877
tp2361
asI246
(lp2362
(S'go'
p2363
g6
F0.9589
tp2364
a(S'ahead'
p2365
g21
F0.8755
tp2366
asI247
(lp2367
(S'alright'
p2368
g34
F0.8985
tp2369
a(S'you'
p2370
g3
F0.9928
tp2371
a(S'pee'
p2372
g6
F0.9855
tp2373
a(S'in'
p2374
g46
F0.9624
tp2375
a(S'your'
p2376
g12
F0.9959
tp2377
a(S'pants'
p2378
g15
F0.9961
tp2379
a(S'you'
p2380
g3
F0.97
tp2381
a(S're'
p2382
g6
F0.5665
tp2383
a(S'gonna'
p2384
g6
F0.9875
tp2385
a(S'get'
p2386
g6
F0.9999
tp2387
a(g11
g12
F0.9967
tp2388
a(S'spankin'
p2389
g15
F0.9054
tp2390
a(g100
g15
F0.605
tp2391
a(S'and'
p2392
g117
F0.9979
tp2393
a(S'go'
p2394
g6
F0.9934
tp2395
a(S'to'
p2396
g46
F0.9802
tp2397
a(S'bed'
p2398
g15
F0.6242
tp2399
asI248
(lp2400
(S'no'
p2401
g34
F0.7985
tp2402
a(S'you'
p2403
g3
F0.995
tp2404
a(S'come'
p2405
g6
F0.9996
tp2406
a(S'with'
p2407
g46
F0.9986
tp2408
a(S'me'
p2409
g3
F0.9985
tp2410
asI249
(lp2411
(S'no'
p2412
g12
F0.4496
tp2413
a(S'go'
p2414
g6
F0.7172
tp2415
a(S'ahead'
p2416
g21
F0.9811
tp2417
a(g178
g3
F0.9799
tp2418
a(S'can'
p2419
g6
F0.9998
tp2420
a(S'see'
p2421
g6
F0.9998
tp2422
a(S'you'
p2423
g3
F0.9937
tp2424
a(S'from'
p2425
g46
F0.989
tp2426
a(S'here'
p2427
g21
F0.9457
tp2428
a(S'go'
p2429
g6
F0.8885
tp2430
a(S'sit'
p2431
g6
F0.9517
tp2432
a(S'on'
p2433
g46
F0.9385
tp2434
a(S'the'
p2435
g12
F0.9994
tp2436
a(S'toilet'
p2437
g15
F0.9953
tp2438
a(S'watch'
p2439
g6
F0.9371
tp2440
asI250
(lp2441
(S'go'
p2442
g6
F0.9817
tp2443
a(g11
g12
F0.9958
tp2444
a(S'head'
p2445
g15
F0.9972
tp2446
asI251
(lp2447
(S'go'
p2448
g6
F0.9589
tp2449
a(S'ahead'
p2450
g21
F0.8755
tp2451
asI252
(lp2452
(S'go'
p2453
g6
F0.9625
tp2454
a(S'ahead'
p2455
g21
F0.9622
tp2456
a(S'go'
p2457
g6
F0.975
tp2458
a(S'watch'
p2459
g6
F0.7886
tp2460
asI253
(lp2461
(S'go'
p2462
g6
F0.9911
tp2463
a(S'over'
p2464
g46
F0.7816
tp2465
a(S'there'
p2466
g21
F0.6662
tp2467
a(S'sit'
p2468
g6
F0.9922
tp2469
a(S'down'
p2470
g54
F0.7153
tp2471
a(S'and'
p2472
g117
F0.997
tp2473
a(S'look'
p2474
g6
F0.99
tp2475
a(S'over'
p2476
g46
F0.7346
tp2477
a(S'here'
p2478
g21
F0.9871
tp2479
a(S'and'
p2480
g117
F0.9966
tp2481
a(S'see'
p2482
g6
F0.9944
tp2483
a(S'if'
p2484
g46
F0.999
tp2485
a(S'you'
p2486
g3
F0.9996
tp2487
a(S'see'
p2488
g6
F0.9962
tp2489
a(S'fat'
p2490
g109
F0.9849
tp2491
asI254
(lp2492
(S'go'
p2493
g6
F0.9589
tp2494
a(S'ahead'
p2495
g21
F0.8755
tp2496
asI255
(lp2497
(g178
g3
F0.953
tp2498
a(g1340
g6
F0.9551
tp2499
a(S'gonna'
p2500
g6
F0.9871
tp2501
a(S'xxx'
p2502
g61
F0.6716
tp2503
asI256
(lp2504
(S'alright'
p2505
g34
F0.9364
tp2506
a(S'then'
p2507
g21
F0.9534
tp2508
a(S'forget'
p2509
g6
F0.9994
tp2510
a(S'it'
p2511
g3
F0.9639
tp2512
a(S'we'
p2513
g3
F0.9823
tp2514
a(S'll'
p2515
g6
F0.5493
tp2516
a(S'just'
p2517
g21
F0.9997
tp2518
a(S'put'
p2519
g6
F0.9984
tp2520
a(S'your'
p2521
g12
F0.9943
tp2522
a(S'supper'
p2523
g15
F0.9979
tp2524
a(S'away'
p2525
g21
F0.9823
tp2526
a(S'and'
p2527
g117
F0.9974
tp2528
a(S'you'
p2529
g3
F0.9995
tp2530
a(S'can'
p2531
g6
F0.9992
tp2532
a(S'don'
p2533
g6
F0.8309
tp2534
a(g223
g15
F0.2172
tp2535
a(S'have'
p2536
g6
F0.9978
tp2537
a(S'to'
p2538
g46
F0.9948
tp2539
a(S'have'
p2540
g6
F0.9992
tp2541
a(S'ice'
p2542
g15
F0.8474
tp2543
a(S'cream'
p2544
g15
F0.9624
tp2545
asI257
(lp2546
(g178
g3
F0.953
tp2547
a(g1340
g6
F0.9834
tp2548
a(S'going'
p2549
g6
F0.9981
tp2550
a(S'to'
p2551
g46
F0.9515
tp2552
a(S'go'
p2553
g6
F0.9993
tp2554
a(S'to'
p2555
g46
F0.9984
tp2556
a(S'the'
p2557
g12
F0.999
tp2558
a(S'bath'
p2559
g15
F0.9941
tp2560
a(S'room'
p2561
g15
F0.9916
tp2562
asI258
(lp2563
(S'xxx'
p2564
g61
F0.8437
tp2565
asI259
(lp2566
(S'xxx'
p2567
g61
F0.7701
tp2568
a(S'he'
p2569
g3
F0.9957
tp2570
a(S'said'
p2571
g6
F0.9994
tp2572
a(S'not'
p2573
g21
F0.9967
tp2574
a(S'to'
p2575
g46
F0.9899
tp2576
a(S'have'
p2577
g6
F0.9999
tp2578
a(g11
g12
F0.9962
tp2579
a(S'ice'
p2580
g15
F0.8422
tp2581
a(S'cream'
p2582
g15
F0.8365
tp2583
a(S'cone'
p2584
g15
F0.9862
tp2585
a(S'he'
p2586
g3
F0.9858
tp2587
a(S'dropped'
p2588
g6
F1.0
tp2589
a(g11
g12
F0.9787
tp2590
a(S'xxx'
p2591
g15
F0.6797
tp2592
a(S'had'
p2593
g6
F0.9975
tp2594
a(S'little'
p2595
g109
F0.9815
tp2596
a(S'xxx'
p2597
g61
F0.5216
tp2598
a(S'he'
p2599
g3
F0.9937
tp2600
a(S'tried'
p2601
g6
F0.9989
tp2602
a(S'to'
p2603
g46
F0.9894
tp2604
a(S'have'
p2605
g6
F0.9994
tp2606
a(S'big'
p2607
g109
F0.7782
tp2608
a(S'xxx'
p2609
g61
F0.6349
tp2610
asI260
(lp2611
(S'chi'
p2612
g34
F0.4684
tp2613
asI261
(lp2614
(S'and'
p2615
g117
F0.999
tp2616
a(g178
g3
F0.9862
tp2617
a(g1340
g6
F0.9644
tp2618
a(S'gonna'
p2619
g6
F0.9954
tp2620
a(S'be'
p2621
g6
F0.9998
tp2622
a(g11
g12
F0.9925
tp2623
a(S'big'
p2624
g109
F0.988
tp2625
a(S'girl'
p2626
g15
F0.9972
tp2627
a(S'and'
p2628
g117
F0.9973
tp2629
a(S'have'
p2630
g6
F0.9993
tp2631
a(g11
g12
F0.9525
tp2632
a(g11
g12
F0.9115
tp2633
a(S'glass'
p2634
g15
F0.9889
tp2635
a(g11
g12
F0.9748
tp2636
a(S'cup'
p2637
g15
F0.988
tp2638
a(S'glass'
p2639
g15
F0.9822
tp2640
asI262
(lp2641
(S'cup'
p2642
g15
F0.9814
tp2643
a(S'of'
p2644
g46
F0.9957
tp2645
a(S'water'
p2646
g15
F0.9878
tp2647
asI263
(lp2648
(S'get'
p2649
g6
F0.9987
tp2650
a(S'your'
p2651
g12
F0.9968
tp2652
a(S'hands'
p2653
g15
F0.9986
tp2654
a(S'out'
p2655
g46
F0.9844
tp2656
a(S'of'
p2657
g46
F0.9846
tp2658
a(S'there'
p2659
g777
F0.4144
tp2660
asI264
(lp2661
(S'put'
p2662
g6
F0.9896
tp2663
a(S'your'
p2664
g12
F0.9968
tp2665
a(S'hands'
p2666
g15
F0.9986
tp2667
a(S'out'
p2668
g46
F0.9844
tp2669
a(S'of'
p2670
g46
F0.9846
tp2671
a(S'there'
p2672
g777
F0.4144
tp2673
asI265
(lp2674
(S'xxx'
p2675
g61
F0.8437
tp2676
asI266
(lp2677
(S'chi'
p2678
g34
F0.4684
tp2679
asI267
(lp2680
(S'no'
p2681
g34
F0.9253
tp2682
asI268
(lp2683
(S'you'
p2684
g3
F0.9754
tp2685
a(S're'
p2686
g6
F0.7716
tp2687
a(S'supposed'
p2688
g109
F0.7967
tp2689
a(S'to'
p2690
g46
F0.9989
tp2691
a(S'eat'
p2692
g6
F0.9996
tp2693
a(S'your'
p2694
g12
F0.9937
tp2695
a(S'hamburger'
p2696
g15
F0.9958
tp2697
a(S'aren'
p2698
g29
F0.4488
tp2699
a(g223
g29
F0.6499
tp2700
a(S'you'
p2701
g3
F0.9831
tp2702
asI269
(lp2703
(S'oh'
p2704
g34
F0.995
tp2705
a(S'he'
p2706
g3
F0.9597
tp2707
a(S'he'
p2708
g3
F0.9894
tp2709
a(S'xxx'
p2710
g61
F0.6065
tp2711
asI270
(lp2712
(S'oh'
p2713
g34
F0.9987
tp2714
a(S'yeah'
p2715
g34
F0.9997
tp2716
asI271
(lp2717
(S'whistle'
p2718
g6
F0.6248
tp2719
asI272
(lp2720
(g178
g3
F0.9888
tp2721
a(S'tried'
p2722
g6
F0.9987
tp2723
a(S'to'
p2724
g46
F0.9507
tp2725
a(S'go'
p2726
g6
F0.994
tp2727
a(S'xxx'
p2728
g61
F0.6693
tp2729
asI273
(lp2730
(S'dress'
p2731
g15
F0.8657
tp2732
a(S'don'
p2733
g15
F0.3065
tp2734
a(g223
g15
F0.3685
tp2735
a(S'even'
p2736
g21
F0.9964
tp2737
a(S'fit'
p2738
g6
F0.9984
tp2739
a(S'her'
p2740
g3
F0.7333
tp2741
asI274
(lp2742
(g178
g3
F0.9908
tp2743
a(S'know'
p2744
g6
F0.9992
tp2745
a(S'too'
p2746
g21
F0.988
tp2747
a(S'small'
p2748
g109
F0.9918
tp2749
asI275
(lp2750
(S'xxx'
p2751
g61
F0.8437
tp2752
asI276
(lp2753
(S'xxx'
p2754
g61
F0.8437
tp2755
asI277
(lp2756
(S'don'
p2757
g49
F0.5427
tp2758
a(g223
g49
F0.4975
tp2759
a(S'come'
p2760
g6
F0.9935
tp2761
a(S'in'
p2762
g46
F0.976
tp2763
a(S'the'
p2764
g12
F0.9991
tp2765
a(S'bath'
p2766
g15
F0.9938
tp2767
a(S'room'
p2768
g15
F0.9899
tp2769
asI278
(lp2770
(S'brother'
p2771
g15
F0.918
tp2772
asI279
(lp2773
(S'he'
p2774
g3
F0.9945
tp2775
a(S'went'
p2776
g6
F0.9995
tp2777
a(S'in'
p2778
g46
F0.967
tp2779
a(S'the'
p2780
g12
F0.999
tp2781
a(S'bath'
p2782
g15
F0.9933
tp2783
a(S'room'
p2784
g15
F0.9905
tp2785
asI280
(lp2786
(S'father'
p2787
g15
F0.9619
tp2788
a(g178
g3
F0.839
tp2789
a(S'don'
p2790
g6
F0.9187
tp2791
a(g223
g29
F0.2405
tp2792
a(S'care'
p2793
g6
F0.9372
tp2794
a(S'if'
p2795
g46
F0.999
tp2796
a(S'she'
p2797
g3
F0.9984
tp2798
a(g5
g6
F0.5659
tp2799
a(S'looking'
p2800
g6
F0.9845
tp2801
a(S'at'
p2802
g46
F0.9957
tp2803
a(S'xxx'
p2804
g61
F0.5574
tp2805
asI281
(lp2806
(S'use'
p2807
g6
F0.8733
tp2808
a(S'this'
p2809
g12
F0.9463
tp2810
a(S'one'
p2811
g58
F0.6915
tp2812
asI282
(lp2813
(S'it'
p2814
g3
F0.9858
tp2815
a(g5
g6
F0.3382
tp2816
a(S'trash'
p2817
g15
F0.9753
tp2818
asI283
(lp2819
(S'was'
p2820
g6
F0.9852
tp2821
a(S'perfume'
p2822
g15
F0.9614
tp2823
asI284
(lp2824
(S'16'
p2825
g58
F0.9888
tp2826
a(S'hurry'
p2827
g6
F0.6799
tp2828
a(S'up'
p2829
g54
F0.9937
tp2830
asI285
(lp2831
(S'xxx'
p2832
g61
F0.5791
tp2833
a(S'now'
p2834
g21
F0.9884
tp2835
a(g178
g3
F0.994
tp2836
a(S'know'
p2837
g6
F0.9999
tp2838
a(S'my'
p2839
g12
F0.813
tp2840
a(g11
g12
F0.6563
tp2841
a(S'b'
p2842
g15
F0.8678
tp2843
a(S'cs'
p2844
g15
F0.7906
tp2845
a(S'sings'
p2846
g15
F0.6619
tp2847
asI286
(lp2848
(S'chi'
p2849
g34
F0.4684
tp2850
asI287
(lp2851
(S'next'
p2852
g109
F0.9335
tp2853
a(S'time'
p2854
g15
F0.9983
tp2855
a(S'won'
p2856
g6
F0.8838
tp2857
a(g223
g46
F0.4527
tp2858
a(S'you'
p2859
g3
F0.9991
tp2860
a(S'sing'
p2861
g6
F0.9999
tp2862
a(S'with'
p2863
g46
F0.999
tp2864
a(S'me'
p2865
g3
F0.9993
tp2866
a(S'sings'
p2867
g6
F0.9352
tp2868
asI288
(lp2869
(S'okay'
p2870
g34
F0.9559
tp2871
a(S'why'
p2872
g21
F0.9455
tp2873
a(S'don'
p2874
g15
F0.278
tp2875
a(g223
g6
F0.5356
tp2876
a(S'you'
p2877
g3
F0.9992
tp2878
a(S'eat'
p2879
g6
F0.9935
tp2880
a(S'chi'
p2881
g49
F0.4885
tp2882
asI289
(lp2883
(S'stop'
p2884
g6
F0.7591
tp2885
asI290
(lp2886
(S'come'
p2887
g6
F0.9849
tp2888
a(S'on'
p2889
g54
F0.5632
tp2890
asI291
(lp2891
(S'xxx'
p2892
g61
F0.8437
tp2893
asI292
(lp2894
(S'ab'
p2895
g29
F0.53
tp2896
a(S'k'
p2897
g29
F0.6549
tp2898
a(S'cdefg'
p2899
g29
F0.6452
tp2900
a(g2897
g29
F0.4999
tp2901
a(S'singing'
p2902
g6
F0.9985
tp2903
asI293
(lp2904
(S'thank'
p2905
g6
F0.9661
tp2906
a(S'you'
p2907
g3
F0.9993
tp2908
a(S'thank'
p2909
g6
F0.9982
tp2910
a(S'you'
p2911
g3
F0.9987
tp2912
asI294
(lp2913
(S'seven'
p2914
g58
F0.8761
tp2915
a(S'thirty'
p2916
g109
F0.5043
tp2917
asI295
(lp2918
(S'abcdefg'
p2919
g29
F0.4514
tp2920
a(g2897
g29
F0.8113
tp2921
a(g2015
g29
F0.8827
tp2922
a(S'l'
p2923
g29
F0.7087
tp2924
a(S'singing'
p2925
g6
F0.9984
tp2926
asI296
(lp2927
(S'abcd'
p2928
g49
F0.5067
tp2929
a(g2897
g49
F0.6433
tp2930
a(S'singing'
p2931
g6
F0.9975
tp2932
asI297
(lp2933
(S'abcdefg'
p2934
g29
F0.4514
tp2935
a(g2897
g29
F0.6551
tp2936
a(S'hijklmnopqrxtuvwxyz'
p2937
g29
F0.4899
tp2938
a(g2897
g29
F0.4999
tp2939
a(S'singing'
p2940
g6
F0.9985
tp2941
asI298
(lp2942
(g11
g12
F0.9703
tp2943
a(g2015
g15
F0.7438
tp2944
asI299
(lp2945
(S'no'
p2946
g34
F0.6995
tp2947
a(S'abcdef'
p2948
g15
F0.6276
tp2949
a(g2897
g15
F0.3553
tp2950
a(S'ghijk'
p2951
g29
F0.3532
tp2952
a(g2897
g29
F0.7654
tp2953
a(S'ab'
p2954
g29
F0.885
tp2955
a(g2897
g29
F0.8489
tp2956
a(S'c'
p2957
g29
F0.8492
tp2958
a(g2923
g29
F0.6967
tp2959
a(S'singing'
p2960
g6
F0.9975
tp2961
a(S'xxx'
p2962
g61
F0.7349
tp2963
asI300
(lp2964
(S'abcdefg'
p2965
g29
F0.3591
tp2966
a(g2897
g29
F0.4692
tp2967
a(S'singing'
p2968
g6
F0.9976
tp2969
asI301
(lp2970
(S'one'
p2971
g58
F0.958
tp2972
a(S'two'
p2973
g58
F0.9058
tp2974
a(S'three'
p2975
g58
F0.8993
tp2976
a(S'four'
p2977
g58
F0.6208
tp2978
a(S'five'
p2979
g58
F0.4995
tp2980
a(S'six'
p2981
g58
F0.5182
tp2982
a(S'seven'
p2983
g58
F0.8382
tp2984
a(S'eight'
p2985
g58
F0.7956
tp2986
a(S'nine'
p2987
g109
F0.4662
tp2988
a(S'ten'
p2989
g58
F0.65
tp2990
a(S'scoobydoo'
p2991
g15
F0.6239
tp2992
a(S'ninety'
p2993
g58
F0.4367
tp2994
a(S'nine'
p2995
g15
F0.3208
tp2996
a(g11
g12
F0.9587
tp2997
a(S'hundred'
p2998
g58
F0.6316
tp2999
asI302
(lp3000
(S'abcdefghijklm'
p3001
g29
F0.3015
tp3002
a(g2897
g29
F0.5831
tp3003
a(S'r'
p3004
g29
F0.618
tp3005
a(g2923
g29
F0.4911
tp3006
a(S'singing'
p3007
g6
F0.9969
tp3008
a(S'ah'
p3009
g34
F0.5141
tp3010
a(S'small'
p3011
g109
F0.9518
tp3012
a(S'scream'
p3013
g6
F0.8308
tp3014
a(S'tuvwxy'
p3015
g49
F0.6174
tp3016
a(g2897
g49
F0.8405
tp3017
a(S'and'
p3018
g117
F0.9973
tp3019
a(S'z'
p3020
g49
F0.6307
tp3021
a(g2923
g15
F0.3527
tp3022
a(S'sings'
p3023
g6
F0.858
tp3024
asI303
(lp3025
(S'now'
p3026
g21
F0.9901
tp3027
a(g178
g3
F0.9945
tp3028
a(S'know'
p3029
g6
F0.9999
tp3030
a(S'my'
p3031
g12
F0.9865
tp3032
a(S'abcs'
p3033
g15
F0.9547
tp3034
a(S'singing'
p3035
g6
F0.9971
tp3036
asI304
(lp3037
(S'one'
p3038
g58
F0.958
tp3039
a(S'two'
p3040
g58
F0.9058
tp3041
a(S'three'
p3042
g58
F0.8997
tp3043
a(S'fifty'
p3044
g58
F0.4967
tp3045
a(S'three'
p3046
g58
F0.9052
tp3047
a(S'ninety'
p3048
g58
F0.5257
tp3049
a(S'nine'
p3050
g46
F0.3011
tp3051
a(g11
g12
F0.9858
tp3052
a(S'hundred'
p3053
g58
F0.5506
tp3054
asI305
(lp3055
(S'she'
p3056
g3
F0.9963
tp3057
a(S'goes'
p3058
g6
F0.998
tp3059
a(S'so'
p3060
g21
F0.9779
tp3061
a(S'fast'
p3062
g109
F0.6472
tp3063
a(S'and'
p3064
g117
F0.9979
tp3065
a(S'then'
p3066
g21
F0.9788
tp3067
a(S'she'
p3068
g3
F0.9977
tp3069
a(S'slows'
p3070
g6
F0.9989
tp3071
a(S'down'
p3072
g54
F0.5434
tp3073
a(S'laughs'
p3074
g6
F0.9236
tp3075
asI306
(lp3076
(S'yeah'
p3077
g34
F0.9988
tp3078
asI307
(lp3079
(S'you'
p3080
g3
F0.9922
tp3081
a(S'shoulda'
p3082
g6
F0.9139
tp3083
a(S'heard'
p3084
g6
F0.9959
tp3085
a(S'xxx'
p3086
g61
F0.3502
tp3087
a(S'the'
p3088
g12
F0.9982
tp3089
a(S'story'
p3090
g15
F0.9981
tp3091
a(S'the'
p3092
g12
F0.9984
tp3093
a(S'other'
p3094
g109
F0.9944
tp3095
a(S'day'
p3096
g15
F0.9964
tp3097
asI308
(lp3098
(S'abcd'
p3099
g49
F0.5067
tp3100
a(g2897
g49
F0.5254
tp3101
asI309
(lp3102
(S'it'
p3103
g3
F0.9956
tp3104
a(S'was'
p3105
g6
F0.9996
tp3106
a(S'about'
p3107
g46
F0.6019
tp3108
a(S'five'
p3109
g58
F0.5673
tp3110
a(S'little'
p3111
g109
F0.997
tp3112
a(S'monkeys'
p3113
g15
F0.9786
tp3114
asI310
(lp3115
(S'hijk'
p3116
g34
F0.5528
tp3117
a(g2897
g34
F0.3919
tp3118
asI311
(lp3119
(S'should'
p3120
g6
F0.9905
tp3121
a(S'ask'
p3122
g6
F0.9998
tp3123
a(S'her'
p3124
g3
F0.8426
tp3125
a(S'to'
p3126
g46
F0.9952
tp3127
a(S'sing'
p3128
g6
F1.0
tp3129
a(S'it'
p3130
g3
F0.9932
tp3131
a(S'for'
p3132
g46
F0.9993
tp3133
a(S'you'
p3134
g3
F0.9993
tp3135
asI312
(lp3136
(S'llmnop'
p3137
g29
F0.2836
tp3138
a(g2897
g29
F0.6746
tp3139
asI313
(lp3140
(S'hm'
p3141
g34
F0.995
tp3142
asI314
(lp3143
(S'should'
p3144
g6
F0.9905
tp3145
a(S'ask'
p3146
g6
F0.9998
tp3147
a(S'her'
p3148
g3
F0.8426
tp3149
a(S'to'
p3150
g46
F0.9952
tp3151
a(S'sing'
p3152
g6
F1.0
tp3153
a(S'it'
p3154
g3
F0.9932
tp3155
a(S'for'
p3156
g46
F0.9993
tp3157
a(S'you'
p3158
g3
F0.9993
tp3159
asI315
(lp3160
(S'she'
p3161
g3
F0.9956
tp3162
a(S'done'
p3163
g6
F0.9927
tp3164
a(S'eating'
p3165
g6
F0.9848
tp3166
asI316
(lp3167
(S'come'
p3168
g6
F0.9849
tp3169
a(S'on'
p3170
g46
F0.8996
tp3171
a(S'chi'
p3172
g49
F0.6308
tp3173
asI317
(lp3174
(S'take'
p3175
g6
F0.9896
tp3176
a(S'that'
p3177
g3
F0.7598
tp3178
a(S'out'
p3179
g46
F0.7474
tp3180
a(S'of'
p3181
g46
F0.9975
tp3182
a(S'your'
p3183
g12
F0.9972
tp3184
a(S'mouth'
p3185
g15
F0.9998
tp3186
a(S'come'
p3187
g6
F0.989
tp3188
a(S'on'
p3189
g46
F0.5417
tp3190
asI318
(lp3191
(S'this'
p3192
g3
F0.9526
tp3193
a(S'is'
p3194
g6
F0.9975
tp3195
a(S'from'
p3196
g46
F0.9714
tp3197
a(S'xxx'
p3198
g61
F0.6497
tp3199
asI319
(lp3200
(S'come'
p3201
g6
F0.9897
tp3202
a(S'on'
p3203
g46
F0.936
tp3204
a(S'eat'
p3205
g6
F0.9312
tp3206
a(S'your'
p3207
g12
F0.9936
tp3208
a(S'hamburger'
p3209
g15
F0.9986
tp3210
a(S'up'
p3211
g54
F0.5797
tp3212
asI320
(lp3213
(S'or'
p3214
g117
F0.9925
tp3215
a(S'your'
p3216
g12
F0.9279
tp3217
a(S'corn'
p3218
g15
F0.9995
tp3219
asI321
(lp3220
(S'eat'
p3221
g6
F0.9285
tp3222
a(S'one'
p3223
g58
F0.8625
tp3224
a(S'or'
p3225
g117
F0.9717
tp3226
a(S'the'
p3227
g12
F0.9991
tp3228
a(S'other'
p3229
g109
F0.9474
tp3230
asI322
(lp3231
(S'come'
p3232
g6
F0.9849
tp3233
a(S'on'
p3234
g54
F0.5632
tp3235
asI323
(lp3236
(S'that'
p3237
g12
F0.6719
tp3238
a(S'ice'
p3239
g15
F0.8626
tp3240
a(S'cream'
p3241
g15
F0.9297
tp3242
a(S'truck'
p3243
g15
F0.9959
tp3244
a(S'xxx'
p3245
g61
F0.61
tp3246
a(S'not'
p3247
g21
F0.9963
tp3248
a(S'going'
p3249
g6
F0.9992
tp3250
a(S'to'
p3251
g46
F0.9724
tp3252
a(S'be'
p3253
g6
F0.9996
tp3254
a(S'able'
p3255
g109
F0.9684
tp3256
a(S'to'
p3257
g46
F0.9979
tp3258
a(S'have'
p3259
g6
F0.9992
tp3260
a(S'ice'
p3261
g15
F0.9083
tp3262
a(S'cream'
p3263
g15
F0.9639
tp3264
asI324
(lp3265
(S'who'
p3266
g3
F0.9963
tp3267
a(S'took'
p3268
g6
F0.9999
tp3269
a(S'my'
p3270
g12
F0.9848
tp3271
a(S'drink'
p3272
g15
F0.9918
tp3273
asI325
(lp3274
(S'you'
p3275
g3
F0.998
tp3276
a(S'drank'
p3277
g6
F0.9999
tp3278
a(S'all'
p3279
g12
F0.708
tp3280
a(S'your'
p3281
g12
F0.9786
tp3282
a(S'drink'
p3283
g15
F0.9754
tp3284
a(S'now'
p3285
g21
F0.9899
tp3286
a(S'just'
p3287
g21
F0.9998
tp3288
a(S'eat'
p3289
g6
F0.9987
tp3290
a(S'your'
p3291
g12
F0.9928
tp3292
a(S'hamburger'
p3293
g15
F0.9975
tp3294
asI326
(lp3295
(S'uhuh'
p3296
g34
F0.9919
tp3297
asI327
(lp3298
(S'come'
p3299
g6
F0.9897
tp3300
a(S'on'
p3301
g46
F0.9533
tp3302
a(S'you'
p3303
g3
F0.9961
tp3304
a(S're'
p3305
g6
F0.7486
tp3306
a(S'doin'
p3307
g6
F0.9777
tp3308
a(g100
g6
F0.2482
tp3309
a(S'good'
p3310
g109
F0.9979
tp3311
a(S'bro'
p3312
g15
F0.9943
tp3313
asI328
(lp3314
(S'finish'
p3315
g6
F0.9886
tp3316
a(S'up'
p3317
g54
F0.9807
tp3318
asI329
(lp3319
(g178
g3
F0.9873
tp3320
a(S'can'
p3321
g6
F0.9996
tp3322
a(g223
g6
F0.809
tp3323
a(S'eat'
p3324
g6
F0.9923
tp3325
a(S'all'
p3326
g12
F0.6674
tp3327
a(S'that'
p3328
g12
F0.8151
tp3329
a(S'hamburger'
p3330
g15
F0.9948
tp3331
asI330
(lp3332
(S'well'
p3333
g34
F0.8349
tp3334
a(S'if'
p3335
g46
F0.9971
tp3336
a(S'you'
p3337
g3
F0.9997
tp3338
a(S'can'
p3339
g6
F0.9993
tp3340
a(g223
g6
F0.7948
tp3341
a(S'eat'
p3342
g6
F0.9926
tp3343
a(S'all'
p3344
g12
F0.6894
tp3345
a(S'that'
p3346
g12
F0.855
tp3347
a(S'hamburger'
p3348
g15
F0.9963
tp3349
a(S'then'
p3350
g21
F0.9792
tp3351
a(g178
g3
F0.9939
tp3352
a(S'guess'
p3353
g6
F1.0
tp3354
a(S'you'
p3355
g3
F0.9994
tp3356
a(S'can'
p3357
g6
F0.9993
tp3358
a(g223
g6
F0.7615
tp3359
a(S'have'
p3360
g6
F0.9906
tp3361
a(S'ice'
p3362
g15
F0.8683
tp3363
a(S'cream'
p3364
g15
F0.9541
tp3365
asI331
(lp3366
(S'where'
p3367
g21
F0.9322
tp3368
a(S'what'
p3369
g3
F0.9912
tp3370
a(g5
g29
F0.594
tp3371
a(S'the'
p3372
g12
F0.9975
tp3373
a(S'bad'
p3374
g109
F0.9913
tp3375
a(S'stuff'
p3376
g15
F0.9918
tp3377
a(S'about'
p3378
g46
F0.9992
tp3379
a(S'the'
p3380
g12
F0.9875
tp3381
a(S'ah'
p3382
g34
F0.4608
tp3383
a(S'xxx'
p3384
g61
F0.7871
tp3385
asI332
(lp3386
(S'what'
p3387
g3
F0.9654
tp3388
a(S'what'
p3389
g3
F0.9976
tp3390
a(S'do'
p3391
g6
F0.9993
tp3392
a(S'you'
p3393
g3
F0.9997
tp3394
a(S'mean'
p3395
g6
F0.9699
tp3396
asI333
(lp3397
(S'time'
p3398
g15
F0.9785
tp3399
a(S'was'
p3400
g6
F0.9997
tp3401
a(S'up'
p3402
g54
F0.9395
tp3403
asI334
(lp3404
(S'well'
p3405
g34
F0.741
tp3406
a(S'you'
p3407
g3
F0.9955
tp3408
a(S're'
p3409
g6
F0.6208
tp3410
a(S'already'
p3411
g21
F0.9976
tp3412
a(S'going'
p3413
g6
F0.9988
tp3414
a(S'to'
p3415
g46
F0.975
tp3416
a(S'bed'
p3417
g15
F0.7945
tp3418
a(S'at'
p3419
g46
F0.9994
tp3420
a(S'seven'
p3421
g58
F0.6875
tp3422
a(S'thirty'
p3423
g58
F0.3493
tp3424
a(S'so'
p3425
g46
F0.7577
tp3426
a(S'if'
p3427
g46
F0.9953
tp3428
a(S'you'
p3429
g3
F0.9983
tp3430
a(S're'
p3431
g6
F0.7653
tp3432
a(S'not'
p3433
g21
F0.9971
tp3434
a(S'done'
p3435
g6
F0.9893
tp3436
a(S'eatin'
p3437
g6
F0.6158
tp3438
a(g100
g15
F0.3812
tp3439
a(S'by'
p3440
g46
F0.9997
tp3441
a(S'the'
p3442
g12
F0.9996
tp3443
a(S'time'
p3444
g15
F0.9972
tp3445
a(S'the'
p3446
g12
F0.9976
tp3447
a(S'timer'
p3448
g15
F0.9967
tp3449
a(S'goes'
p3450
g6
F0.9969
tp3451
a(S'off'
p3452
g54
F0.9523
tp3453
asI335
(lp3454
(S'no'
p3455
g12
F0.6883
tp3456
a(S'eight'
p3457
g15
F0.63
tp3458
a(g642
g46
F0.8257
tp3459
a(S'clock'
p3460
g15
F0.97
tp3461
asI336
(lp3462
(g178
g3
F0.9894
tp3463
a(S'guess'
p3464
g6
F1.0
tp3465
a(S'you'
p3466
g3
F0.9987
tp3467
a(S'don'
p3468
g6
F0.8611
tp3469
a(g223
g15
F0.3014
tp3470
a(S'get'
p3471
g6
F0.9988
tp3472
a(S'no'
p3473
g12
F0.9747
tp3474
a(S'ice'
p3475
g15
F0.9918
tp3476
a(S'cream'
p3477
g15
F0.9757
tp3478
a(S'for'
p3479
g46
F0.9996
tp3480
a(S'dessert'
p3481
g15
F0.9532
tp3482
asI337
(lp3483
(S'and'
p3484
g117
F0.9989
tp3485
a(S'you'
p3486
g3
F0.999
tp3487
a(S'only'
p3488
g21
F0.8994
tp3489
a(S'have'
p3490
g6
F0.9984
tp3491
a(S'about'
p3492
g46
F0.9855
tp3493
a(S'eight'
p3494
g58
F0.9197
tp3495
a(S'minutes'
p3496
g15
F0.9898
tp3497
a(S'left'
p3498
g109
F0.4909
tp3499
asI338
(lp3500
(S'mom'
p3501
g15
F0.7665
tp3502
a(S'don'
p3503
g6
F0.4773
tp3504
a(g223
g15
F0.2417
tp3505
a(S'make'
p3506
g6
F0.9982
tp3507
a(S'me'
p3508
g3
F0.9906
tp3509
a(S'eat'
p3510
g6
F0.9947
tp3511
a(S'all'
p3512
g12
F0.8314
tp3513
a(S'this'
p3514
g12
F0.9698
tp3515
a(S'hamburger'
p3516
g15
F0.9972
tp3517
asI339
(lp3518
(S'no'
p3519
g12
F0.4435
tp3520
a(S'yelling'
p3521
g6
F0.8247
tp3522
asI340
(lp3523
(g11
g12
F0.9634
tp3524
a(g2923
g15
F0.7763
tp3525
a(g2842
g6
F0.5011
tp3526
a(g2923
g29
F0.5619
tp3527
a(g2957
g29
F0.8721
tp3528
a(g2923
g29
F0.9363
tp3529
a(g2008
g29
F0.8807
tp3530
a(g2923
g29
F0.9435
tp3531
a(S'e'
p3532
g29
F0.8868
tp3533
a(g2923
g29
F0.9586
tp3534
a(S'f'
p3535
g29
F0.8891
tp3536
a(g2923
g29
F0.9371
tp3537
a(g100
g29
F0.8737
tp3538
a(g2923
g29
F0.6546
tp3539
a(S'loud'
p3540
g109
F0.9181
tp3541
a(S'singing'
p3542
g6
F0.9362
tp3543
asI341
(lp3544
(S'chi'
p3545
g34
F0.4684
tp3546
asI342
(lp3547
(g11
g12
F0.9634
tp3548
a(g2923
g15
F0.7763
tp3549
a(g2842
g6
F0.5011
tp3550
a(g2923
g29
F0.5619
tp3551
a(g2957
g29
F0.8721
tp3552
a(g2923
g29
F0.9363
tp3553
a(g2008
g29
F0.8807
tp3554
a(g2923
g29
F0.9435
tp3555
a(g3532
g29
F0.8868
tp3556
a(g2923
g29
F0.9586
tp3557
a(g3535
g29
F0.8891
tp3558
a(g2923
g29
F0.9371
tp3559
a(g100
g29
F0.8815
tp3560
a(g2923
g29
F0.647
tp3561
a(S'hollers'
p3562
g6
F0.6866
tp3563
asI343
(lp3564
(S'stop'
p3565
g6
F0.7591
tp3566
asI344
(lp3567
(S'stop'
p3568
g6
F0.7591
tp3569
asI345
(lp3570
(S'stop'
p3571
g6
F0.7591
tp3572
asI346
(lp3573
(S'you'
p3574
g3
F0.998
tp3575
a(S'have'
p3576
g6
F0.9941
tp3577
a(S'time'
p3578
g15
F0.9967
tp3579
a(S'to'
p3580
g46
F0.9914
tp3581
a(S'do'
p3582
g6
F0.9999
tp3583
a(S'that'
p3584
g3
F0.856
tp3585
asI347
(lp3586
(S'eat'
p3587
g6
F0.8267
tp3588
asI348
(lp3589
(g178
g3
F0.9853
tp3590
a(S'sing'
p3591
g6
F0.9999
tp3592
a(S'at'
p3593
g46
F0.9981
tp3594
a(S'the'
p3595
g12
F0.9988
tp3596
a(S'end'
p3597
g15
F0.9561
tp3598
a(S'mot'
p3599
g29
F0.4653
tp3600
asI349
(lp3601
(g11
g12
F0.9634
tp3602
a(g2923
g15
F0.7763
tp3603
a(g2842
g6
F0.5011
tp3604
a(g2923
g29
F0.5619
tp3605
a(g2957
g29
F0.8721
tp3606
a(g2923
g29
F0.9363
tp3607
a(g2008
g29
F0.8331
tp3608
a(g2923
g29
F0.5812
tp3609
a(S'sings'
p3610
g6
F0.8099
tp3611
asI350
(lp3612
(S'come'
p3613
g6
F0.9897
tp3614
a(S'on'
p3615
g46
F0.8996
tp3616
a(S'chi'
p3617
g49
F0.5377
tp3618
a(S'here'
p3619
g21
F0.9284
tp3620
asI351
(lp3621
(S'eat'
p3622
g6
F0.9784
tp3623
a(S'this'
p3624
g3
F0.552
tp3625
a(S'come'
p3626
g6
F0.9874
tp3627
a(S'on'
p3628
g46
F0.4899
tp3629
asI352
(lp3630
(S'xxx'
p3631
g61
F0.8437
tp3632
asI353
(lp3633
(S'yeah'
p3634
g34
F0.9904
tp3635
a(S'come'
p3636
g6
F0.9903
tp3637
a(S'on'
p3638
g46
F0.9139
tp3639
a(S'you'
p3640
g3
F0.973
tp3641
a(S'haven'
p3642
g6
F0.5515
tp3643
a(g223
g29
F0.2849
tp3644
a(S'eaten'
p3645
g6
F0.9926
tp3646
a(S'none'
p3647
g15
F0.9857
tp3648
a(S'of'
p3649
g46
F0.9982
tp3650
a(S'that'
p3651
g3
F0.8723
tp3652
a(S'yet'
p3653
g21
F0.9691
tp3654
a(S'come'
p3655
g6
F0.9969
tp3656
a(S'on'
p3657
g54
F0.5572
tp3658
asI354
(lp3659
(S'eat'
p3660
g6
F0.979
tp3661
a(S'the'
p3662
g12
F0.9996
tp3663
a(S'hamburger'
p3664
g15
F0.9914
tp3665
a(S'with'
p3666
g46
F0.9999
tp3667
a(S'the'
p3668
g12
F0.9995
tp3669
a(S'ketchup'
p3670
g15
F0.989
tp3671
asI355
(lp3672
(S'come'
p3673
g6
F0.9849
tp3674
a(S'on'
p3675
g54
F0.5632
tp3676
asI356
(lp3677
(g11
g12
F0.9634
tp3678
a(g2923
g15
F0.7763
tp3679
a(g2842
g6
F0.5011
tp3680
a(g2923
g29
F0.5619
tp3681
a(g2957
g29
F0.8721
tp3682
a(g2923
g29
F0.9363
tp3683
a(g2008
g29
F0.8807
tp3684
a(g2923
g29
F0.9435
tp3685
a(g3532
g29
F0.8868
tp3686
a(g2923
g29
F0.9586
tp3687
a(g3535
g29
F0.8891
tp3688
a(g2923
g29
F0.9371
tp3689
a(g100
g29
F0.8737
tp3690
a(g2923
g29
F0.893
tp3691
a(g2015
g29
F0.8989
tp3692
a(g2923
g29
F0.6887
tp3693
a(g178
g3
F0.7997
tp3694
a(g2923
g6
F0.8338
tp3695
a(S'sings'
p3696
g6
F0.9351
tp3697
a(S'first'
p3698
g21
F0.6078
tp3699
a(S'then'
p3700
g21
F0.9651
tp3701
a(g100
g29
F0.5463
tp3702
a(g2923
g29
F0.8132
tp3703
asI357
(lp3704
(g11
g12
F0.9634
tp3705
a(g2923
g15
F0.7763
tp3706
a(g2842
g6
F0.5011
tp3707
a(g2923
g29
F0.5619
tp3708
a(g2957
g29
F0.8721
tp3709
a(g2923
g29
F0.9363
tp3710
a(g2008
g29
F0.8807
tp3711
a(g2923
g29
F0.9435
tp3712
a(g3532
g29
F0.8868
tp3713
a(g2923
g29
F0.9586
tp3714
a(g3535
g29
F0.8891
tp3715
a(g2923
g29
F0.9371
tp3716
a(g100
g29
F0.8737
tp3717
a(g2923
g29
F0.6243
tp3718
a(S'sings'
p3719
g6
F0.8868
tp3720
a(S'then'
p3721
g21
F0.9598
tp3722
a(g11
g12
F0.9487
tp3723
a(g2923
g15
F0.7631
tp3724
asI358
(lp3725
(g11
g12
F0.9634
tp3726
a(g2923
g15
F0.7763
tp3727
a(g2842
g6
F0.5011
tp3728
a(g2923
g29
F0.5619
tp3729
a(g2957
g29
F0.8721
tp3730
a(g2923
g29
F0.9363
tp3731
a(g2008
g29
F0.8807
tp3732
a(g2923
g29
F0.6543
tp3733
a(S'then'
p3734
g21
F0.9537
tp3735
a(g100
g29
F0.5703
tp3736
a(g2923
g29
F0.7115
tp3737
a(S'then'
p3738
g21
F0.946
tp3739
a(g11
g12
F0.9611
tp3740
a(g2923
g15
F0.8804
tp3741
a(S'then'
p3742
g21
F0.9603
tp3743
a(g5
g29
F0.8629
tp3744
a(g2923
g29
F0.7188
tp3745
asI359
(lp3746
(g112
g58
F0.9879
tp3747
a(S'inarticulate'
p3748
g109
F0.985
tp3749
a(S'singing'
p3750
g6
F0.972
tp3751
a(S'to'
p3752
g46
F0.9924
tp3753
a(S'tune'
p3754
g6
F0.8412
tp3755
a(S'of'
p3756
g46
F0.9609
tp3757
a(S'abc'
p3758
g49
F0.8177
tp3759
a(g2923
g29
F0.4481
tp3760
asI360
(lp3761
(S'mom'
p3762
g15
F0.8909
tp3763
a(g178
g3
F0.89
tp3764
a(S'hope'
p3765
g6
F0.9939
tp3766
a(g178
g3
F0.9901
tp3767
a(S'didn'
p3768
g6
F0.9913
tp3769
a(g223
g6
F0.7775
tp3770
a(S'tell'
p3771
g6
F0.9953
tp3772
a(S'you'
p3773
g3
F0.9973
tp3774
a(S'this'
p3775
g12
F0.804
tp3776
a(S'but'
p3777
g117
F0.9914
tp3778
a(S'you'
p3779
g3
F0.9997
tp3780
a(S'know'
p3781
g6
F0.9987
tp3782
a(S'what'
p3783
g3
F0.9919
tp3784
asI361
(lp3785
(g178
g3
F0.9519
tp3786
a(S'xxx'
p3787
g6
F0.5068
tp3788
a(S'four'
p3789
g58
F0.6664
tp3790
a(S'feet'
p3791
g15
F0.9896
tp3792
asI362
(lp3793
(S'what'
p3794
g3
F0.949
tp3795
asI363
(lp3796
(g178
g3
F0.9519
tp3797
a(S'xxx'
p3798
g6
F0.5068
tp3799
a(S'four'
p3800
g58
F0.6664
tp3801
a(S'feet'
p3802
g15
F0.9896
tp3803
asI364
(lp3804
(g178
g3
F0.9908
tp3805
a(S'know'
p3806
g6
F0.9999
tp3807
a(S'you'
p3808
g3
F0.9994
tp3809
a(S'can'
p3810
g6
F0.9991
tp3811
asI365
(lp3812
(S'yeah'
p3813
g34
F0.9962
tp3814
a(S'but'
p3815
g117
F0.9878
tp3816
a(S'at'
p3817
g46
F0.9987
tp3818
a(S'the'
p3819
g12
F0.9994
tp3820
a(S'bumper'
p3821
g15
F0.9772
tp3822
a(S'cars'
p3823
g15
F0.9994
tp3824
a(g178
g3
F0.9084
tp3825
a(S'couldn'
p3826
g6
F0.9916
tp3827
a(g223
g6
F0.7356
tp3828
a(S'go'
p3829
g6
F0.9905
tp3830
a(S'in'
p3831
g46
F0.9604
tp3832
a(S'four'
p3833
g58
F0.6694
tp3834
a(S'feet'
p3835
g15
F0.9864
tp3836
asI366
(lp3837
(g11
g12
F0.9634
tp3838
a(g2923
g15
F0.7763
tp3839
a(g2842
g6
F0.5011
tp3840
a(g2923
g29
F0.5619
tp3841
a(g2957
g29
F0.8721
tp3842
a(g2923
g29
F0.9363
tp3843
a(g2008
g29
F0.8807
tp3844
a(g2923
g29
F0.9435
tp3845
a(g3532
g29
F0.8868
tp3846
a(g2923
g29
F0.9586
tp3847
a(g3535
g29
F0.8891
tp3848
a(g2923
g29
F0.9342
tp3849
a(g100
g29
F0.8815
tp3850
a(g2923
g29
F0.7651
tp3851
asI367
(lp3852
(g2015
g29
F0.562
tp3853
a(g2923
g29
F0.6933
tp3854
a(g178
g3
F0.809
tp3855
a(g2923
g29
F0.4479
tp3856
a(S'j'
p3857
g29
F0.8763
tp3858
a(g2923
g29
F0.9053
tp3859
a(g2897
g29
F0.8293
tp3860
a(g2923
g29
F0.8758
tp3861
a(g2923
g29
F0.889
tp3862
a(g2923
g29
F0.9272
tp3863
a(g1340
g29
F0.8164
tp3864
a(g2923
g29
F0.5286
tp3865
a(S'n'
p3866
g117
F0.8243
tp3867
a(g2923
g29
F0.4644
tp3868
a(g642
g29
F0.5843
tp3869
a(g2923
g29
F0.9065
tp3870
a(S'p'
p3871
g29
F0.8988
tp3872
a(g2923
g29
F0.8954
tp3873
asI368
(lp3874
(S'xxx'
p3875
g61
F0.8391
tp3876
a(S'why'
p3877
g21
F0.9464
tp3878
a(S'couldn'
p3879
g6
F0.8122
tp3880
a(g223
g6
F0.5891
tp3881
a(g178
g3
F0.9925
tp3882
a(S'go'
p3883
g6
F0.9996
tp3884
a(S'with'
p3885
g46
F0.9994
tp3886
a(S'you'
p3887
g3
F0.999
tp3888
asI369
(lp3889
(g178
g3
F0.9635
tp3890
a(S'don'
p3891
g6
F0.9156
tp3892
a(g223
g15
F0.3074
tp3893
a(S'know'
p3894
g6
F0.965
tp3895
asI370
(lp3896
(S'it'
p3897
g3
F0.9962
tp3898
a(S'said'
p3899
g6
F0.9907
tp3900
a(S'four'
p3901
g58
F0.5994
tp3902
a(S'feet'
p3903
g15
F0.9651
tp3904
a(S'five'
p3905
g58
F0.5316
tp3906
a(S'feet'
p3907
g15
F0.9837
tp3908
a(S'six'
p3909
g58
F0.5188
tp3910
a(S'feet'
p3911
g15
F0.992
tp3912
asI371
(lp3913
(S'before'
p3914
g46
F0.7267
tp3915
a(g178
g3
F0.9976
tp3916
a(S'was'
p3917
g6
F0.9997
tp3918
a(S'standing'
p3919
g6
F0.9955
tp3920
a(S'at'
p3921
g46
F0.9945
tp3922
a(S'four'
p3923
g58
F0.595
tp3924
a(S'feet'
p3925
g15
F0.9834
tp3926
asI372
(lp3927
(S'xxx'
p3928
g61
F0.8437
tp3929
asI373
(lp3930
(S'two'
p3931
g58
F0.9403
tp3932
a(S'was'
p3933
g6
F0.9706
tp3934
a(S'standing'
p3935
g6
F0.9954
tp3936
a(S'at'
p3937
g46
F0.9967
tp3938
a(S'three'
p3939
g58
F0.6052
tp3940
a(S'feet'
p3941
g15
F0.9917
tp3942
asI374
(lp3943
(S'two'
p3944
g58
F0.9403
tp3945
a(S'was'
p3946
g6
F0.9706
tp3947
a(S'standing'
p3948
g6
F0.9954
tp3949
a(S'at'
p3950
g46
F0.9966
tp3951
a(S'two'
p3952
g58
F0.9045
tp3953
a(S'feet'
p3954
g15
F0.9936
tp3955
a(S'and'
p3956
g117
F0.9957
tp3957
a(S'one'
p3958
g58
F0.8846
tp3959
a(S'was'
p3960
g6
F0.9671
tp3961
a(S'standing'
p3962
g6
F0.9954
tp3963
a(S'at'
p3964
g46
F0.9969
tp3965
a(S'one'
p3966
g58
F0.9159
tp3967
a(S'feet'
p3968
g15
F0.993
tp3969
asI375
(lp3970
(S'and'
p3971
g117
F0.9984
tp3972
a(S'zero'
p3973
g15
F0.292
tp3974
a(S'was'
p3975
g6
F0.991
tp3976
a(S'standing'
p3977
g6
F0.9955
tp3978
a(S'at'
p3979
g46
F0.9965
tp3980
a(S'zero'
p3981
g58
F0.3863
tp3982
a(S'feet'
p3983
g15
F0.9946
tp3984
a(S'xxx'
p3985
g61
F0.7952
tp3986
asI376
(lp3987
(S'one'
p3988
g58
F0.942
tp3989
a(S'xxx'
p3990
g61
F0.6841
tp3991
a(S'one'
p3992
g58
F0.9213
tp3993
a(S'teensie'
p3994
g15
F0.638
tp3995
a(S'beensie'
p3996
g15
F0.5144
tp3997
a(S'wp'
p3998
g15
F0.4965
tp3999
a(S'water'
p4000
g15
F0.9876
tp4001
a(S'right'
p4002
g21
F0.4409
tp4003
a(S'xxx'
p4004
g61
F0.755
tp4005
asI377
(lp4006
(g11
g12
F0.9843
tp4007
a(S'drop'
p4008
g15
F0.9982
tp4009
a(S'of'
p4010
g46
F0.988
tp4011
a(S'water'
p4012
g15
F0.986
tp4013
asI378
(lp4014
(S'one'
p4015
g58
F0.968
tp4016
a(S'little'
p4017
g109
F0.9883
tp4018
a(S'drop'
p4019
g15
F0.9974
tp4020
a(S'of'
p4021
g46
F0.9939
tp4022
a(S'water'
p4023
g15
F0.9748
tp4024
asI379
(lp4025
(S'but'
p4026
g117
F0.9841
tp4027
a(S'the'
p4028
g12
F0.9989
tp4029
a(S'other'
p4030
g109
F0.9949
tp4031
a(S'one'
p4032
g58
F0.9065
tp4033
a(S'has'
p4034
g6
F0.9923
tp4035
a(g11
g12
F0.9947
tp4036
a(S'thousand'
p4037
g58
F0.8564
tp4038
a(S'drops'
p4039
g15
F0.8869
tp4040
a(S'of'
p4041
g46
F0.9953
tp4042
a(S'water'
p4043
g15
F0.9521
tp4044
a(S'twenty'
p4045
g58
F0.641
tp4046
a(S'drops'
p4047
g15
F0.8888
tp4048
a(S'of'
p4049
g46
F0.9953
tp4050
a(S'water'
p4051
g15
F0.9542
tp4052
a(S'four'
p4053
g58
F0.6515
tp4054
a(S'hundred'
p4055
g58
F0.6017
tp4056
a(S'drops'
p4057
g15
F0.8328
tp4058
a(S'of'
p4059
g46
F0.9947
tp4060
a(S'water'
p4061
g15
F0.9854
tp4062
asI380
(lp4063
(S'come'
p4064
g6
F0.9897
tp4065
a(S'on'
p4066
g46
F0.7838
tp4067
a(S'bro'
p4068
g15
F0.9512
tp4069
a(S'time'
p4070
g15
F0.9979
tp4071
a(S'is'
p4072
g6
F0.9985
tp4073
a(S'going'
p4074
g6
F0.986
tp4075
a(S'to'
p4076
g46
F0.9641
tp4077
a(S'go'
p4078
g6
F0.9995
tp4079
a(S'off'
p4080
g21
F0.482
tp4081
asI381
(lp4082
(S'mom'
p4083
g15
F0.8909
tp4084
a(g178
g3
F0.8369
tp4085
a(S'don'
p4086
g6
F0.9187
tp4087
a(g223
g15
F0.2247
tp4088
a(S'want'
p4089
g6
F0.9957
tp4090
a(S'to'
p4091
g46
F0.9961
tp4092
a(S'eat'
p4093
g6
F0.9993
tp4094
a(S'all'
p4095
g12
F0.8858
tp4096
a(S'of'
p4097
g46
F0.9947
tp4098
a(S'this'
p4099
g12
F0.5082
tp4100
asI382
(lp4101
(S'well'
p4102
g34
F0.8669
tp4103
a(S'don'
p4104
g49
F0.4497
tp4105
a(g223
g29
F0.4192
tp4106
asI383
(lp4107
(S'mom'
p4108
g15
F0.7188
tp4109
asI384
(lp4110
(S'don'
p4111
g49
F0.5427
tp4112
a(g223
g6
F0.4091
tp4113
a(S'you'
p4114
g3
F0.9994
tp4115
a(S'can'
p4116
g6
F0.9997
tp4117
a(S'eat'
p4118
g6
F0.9993
tp4119
a(S'that'
p4120
g46
F0.8218
tp4121
a(S'you'
p4122
g3
F0.9991
tp4123
a(S'don'
p4124
g6
F0.8626
tp4125
a(g223
g29
F0.2554
tp4126
a(S'need'
p4127
g6
F0.9729
tp4128
a(S'ice'
p4129
g15
F0.7717
tp4130
a(S'cream'
p4131
g15
F0.9649
tp4132
asI385
(lp4133
(g178
g3
F0.9793
tp4134
a(S'll'
p4135
g6
F0.7103
tp4136
a(S'just'
p4137
g21
F0.9995
tp4138
a(S'eat'
p4139
g6
F0.9961
tp4140
a(S'these'
p4141
g12
F0.7236
tp4142
asI386
(lp4143
(S'okay'
p4144
g34
F0.9569
tp4145
a(S'mot'
p4146
g15
F0.264
tp4147
a(S'not'
p4148
g21
F0.9686
tp4149
a(S'these'
p4150
g12
F0.545
tp4151
asI387
(lp4152
(S'alright'
p4153
g34
F0.9864
tp4154
asI388
(lp4155
(S'can'
p4156
g6
F0.9755
tp4157
a(g178
g3
F0.9819
tp4158
a(S'still'
p4159
g21
F0.9946
tp4160
a(S'get'
p4161
g6
F0.9998
tp4162
a(S'my'
p4163
g12
F0.9954
tp4164
a(S'ice'
p4165
g15
F0.8707
tp4166
a(S'cream'
p4167
g15
F0.9502
tp4168
a(S'then'
p4169
g21
F0.9811
tp4170
asI389
(lp4171
(g178
g3
F0.9728
tp4172
a(S'dunno'
p4173
g6
F0.7665
tp4174
a(S'don'
p4175
g49
F0.2743
tp4176
a(g223
g49
F0.604
tp4177
a(S'know'
p4178
g6
F0.9676
tp4179
asI390
(lp4180
(S'belch'
p4181
g15
F0.4452
tp4182
asI391
(lp4183
(S'giggles'
p4184
g6
F0.5513
tp4185
asI392
(lp4186
(S'giggles'
p4187
g6
F0.5513
tp4188
asI393
(lp4189
(S'no'
p4190
g12
F0.8365
tp4191
a(S'way'
p4192
g15
F0.9976
tp4193
asI394
(lp4194
(S'no'
p4195
g12
F0.4762
tp4196
a(S'let'
p4197
g6
F0.9225
tp4198
a(S'me'
p4199
g3
F0.9995
tp4200
a(S'put'
p4201
g6
F0.9835
tp4202
a(S'this'
p4203
g3
F0.8234
tp4204
a(S'on'
p4205
g46
F0.87
tp4206
a(S'top'
p4207
g109
F0.6974
tp4208
a(S'xxx'
p4209
g61
F0.6747
tp4210
asI395
(lp4211
(S'no'
p4212
g12
F0.648
tp4213
a(S'bro'
p4214
g15
F0.9993
tp4215
asI396
(lp4216
(S'xxx'
p4217
g61
F0.8437
tp4218
asI397
(lp4219
(S'brother'
p4220
g15
F0.9572
tp4221
a(S'stop'
p4222
g6
F0.8998
tp4223
asI398
(lp4224
(g11
g12
F0.9634
tp4225
a(g2923
g15
F0.7763
tp4226
a(g2842
g6
F0.5011
tp4227
a(g2923
g29
F0.5619
tp4228
a(g2957
g29
F0.8721
tp4229
a(g2923
g29
F0.9363
tp4230
a(g2008
g29
F0.8807
tp4231
a(g2923
g29
F0.9435
tp4232
a(g3532
g29
F0.8868
tp4233
a(g2923
g29
F0.9586
tp4234
a(g3535
g29
F0.8891
tp4235
a(g2923
g29
F0.9342
tp4236
a(g100
g29
F0.8815
tp4237
a(g2923
g29
F0.7651
tp4238
asI399
(lp4239
(S'xxx'
p4240
g61
F0.8437
tp4241
asI400
(lp4242
(S'okay'
p4243
g34
F0.8974
tp4244
a(S'let'
p4245
g6
F0.8616
tp4246
a(g5
g29
F0.4135
tp4247
a(S'go'
p4248
g6
F0.9778
tp4249
a(S'everyone'
p4250
g15
F0.9165
tp4251
a(g5
g29
F0.5929
tp4252
a(S'done'
p4253
g6
F0.8628
tp4254
asI401
(lp4255
(S'that'
p4256
g3
F0.4727
tp4257
a(g5
g6
F0.8579
tp4258
a(S'it'
p4259
g3
F0.9919
tp4260
asI402
(lp4261
(S'that'
p4262
g3
F0.473
tp4263
a(g5
g6
F0.8719
tp4264
a(S'it'
p4265
g3
F0.9849
tp4266
a(S'chi'
p4267
g6
F0.5844
tp4268
a(S'you'
p4269
g3
F0.9958
tp4270
a(S're'
p4271
g6
F0.7653
tp4272
a(S'not'
p4273
g21
F0.996
tp4274
a(S'getting'
p4275
g6
F0.9999
tp4276
a(S'your'
p4277
g12
F0.9845
tp4278
a(S'ice'
p4279
g15
F0.9375
tp4280
a(S'cream'
p4281
g15
F0.9654
tp4282
asI403
(lp4283
(S'we'
p4284
g3
F0.9849
tp4285
a(S're'
p4286
g6
F0.9345
tp4287
a(S'all'
p4288
g12
F0.5854
tp4289
a(S'getting'
p4290
g6
F0.9712
tp4291
a(S'ice'
p4292
g15
F0.6876
tp4293
a(S'cream'
p4294
g15
F0.9491
tp4295
a(S'and'
p4296
g117
F0.9966
tp4297
a(S'you'
p4298
g3
F0.9973
tp4299
a(S're'
p4300
g6
F0.7326
tp4301
a(S'not'
p4302
g21
F0.9949
tp4303
asI404
(lp4304
(S'if'
p4305
g46
F0.9977
tp4306
a(S'you'
p4307
g3
F0.9995
tp4308
a(S'don'
p4309
g6
F0.8576
tp4310
a(g223
g46
F0.2568
tp4311
a(S'eat'
p4312
g6
F0.9252
tp4313
a(S'chi'
p4314
g49
F0.5153
tp4315
asI405
(lp4316
(g178
g3
F0.953
tp4317
a(g1340
g6
F0.9723
tp4318
a(S'only'
p4319
g21
F0.8783
tp4320
a(S'gonna'
p4321
g6
F0.9982
tp4322
a(S'eat'
p4323
g6
F0.9994
tp4324
a(S'these'
p4325
g3
F0.5368
tp4326
a(S'like'
p4327
g46
F0.7373
tp4328
a(S'that'
p4329
g3
F0.9403
tp4330
asI406
(lp4331
(S'no'
p4332
g12
F0.5034
tp4333
a(S'eat'
p4334
g6
F0.9555
tp4335
a(S'your'
p4336
g12
F0.9922
tp4337
a(S'hamburger'
p4338
g15
F0.9988
tp4339
asI407
(lp4340
(S'you'
p4341
g3
F0.9956
tp4342
a(S'eat'
p4343
g6
F0.9993
tp4344
a(S'this'
p4345
g3
F0.6094
tp4346
asI408
(lp4347
(S'this'
p4348
g3
F0.5028
tp4349
asI409
(lp4350
(S'and'
p4351
g117
F0.999
tp4352
a(S'your'
p4353
g12
F0.899
tp4354
a(S'corn'
p4355
g15
F0.9995
tp4356
asI410
(lp4357
(S'and'
p4358
g117
F0.9986
tp4359
a(S'not'
p4360
g21
F0.9871
tp4361
a(S'that'
p4362
g3
F0.8001
tp4363
asI411
(lp4364
(S'do'
p4365
g6
F0.9983
tp4366
a(S'you'
p4367
g3
F0.9784
tp4368
a(S'mind'
p4369
g15
F0.4885
tp4370
asI412
(lp4371
(S'chi'
p4372
g49
F0.6114
tp4373
a(S'get'
p4374
g6
F0.9991
tp4375
a(S'out'
p4376
g46
F0.5115
tp4377
a(S'of'
p4378
g46
F0.9903
tp4379
a(S'there'
p4380
g21
F0.4345
tp4381
asI413
(lp4382
(S'those'
p4383
g3
F0.6322
tp4384
a(S'are'
p4385
g6
F0.9981
tp4386
a(S'all'
p4387
g12
F0.8217
tp4388
a(S'clean'
p4389
g109
F0.9957
tp4390
a(S'clothes'
p4391
g15
F0.9922
tp4392
asI414
(lp4393
(S'xxx'
p4394
g61
F0.6891
tp4395
a(S'mot'
p4396
g15
F0.2694
tp4397
a(S'that'
p4398
g46
F0.753
tp4399
a(g5
g6
F0.3824
tp4400
a(S'mine'
p4401
g3
F0.9669
tp4402
a(S'that'
p4403
g46
F0.6864
tp4404
a(g5
g29
F0.3997
tp4405
a(S'mine'
p4406
g3
F0.8965
tp4407
a(S'and'
p4408
g117
F0.9956
tp4409
a(S'that'
p4410
g3
F0.6359
tp4411
a(g5
g6
F0.4989
tp4412
a(S'mine'
p4413
g3
F0.9527
tp4414
asI415
(lp4415
(S'and'
p4416
g117
F0.9979
tp4417
a(S'that'
p4418
g12
F0.6823
tp4419
a(S'one'
p4420
g58
F0.6289
tp4421
asI416
(lp4422
(S'come'
p4423
g6
F0.9849
tp4424
a(S'on'
p4425
g54
F0.5632
tp4426
as.