(dp0
I0
(lp1
(S'xxx'
p2
S'E'
p3
F0.8304
tp4
a(S'how'
p5
S'R'
p6
F0.9964
tp7
a(S'nice'
p8
S'A'
p9
F0.9969
tp10
a(S'it'
p11
S'O'
p12
F0.9747
tp13
a(S'looks'
p14
S'V'
p15
F0.9979
tp16
asI1
(lp17
(S'cli'
p18
S'G'
p19
F0.3828
tp20
a(S'do'
p21
g15
F0.999
tp22
a(S'you'
p23
g12
F0.9991
tp24
a(S'like'
p25
g15
F0.5508
tp26
a(S'camping'
p27
g15
F0.494
tp28
asI2
(lp29
(S'not'
p30
g6
F0.9933
tp31
a(S'really'
p32
g6
F0.9983
tp33
a(S'to'
p34
S'P'
p35
F0.9562
tp36
a(S'be'
p37
g15
F0.9987
tp38
a(S'honest'
p39
g9
F0.9821
tp40
asI3
(lp41
(S'to'
p42
g35
F0.9906
tp43
a(S'be'
p44
g15
F0.9987
tp45
a(S'perfectly'
p46
g6
F0.9999
tp47
a(S'honest'
p48
g9
F0.9951
tp49
a(S'with'
p50
g35
F0.9997
tp51
a(S'you'
p52
g12
F0.9959
tp53
a(S'no'
p54
S'D'
p55
F0.654
tp56
asI4
(lp57
(S'i'
p58
g12
F0.9908
tp59
a(S'miss'
p60
g15
F0.9988
tp61
a(S'home'
p62
S'N'
p63
F0.9103
tp64
a(S'sometimes'
p65
g6
F0.955
tp66
asI5
(lp67
(S'do'
p68
g15
F0.9983
tp69
a(S'you'
p70
g12
F0.9974
tp71
asI6
(lp72
(S'already'
p73
g6
F0.9799
tp74
a(S'she'
p75
g12
F0.9927
tp76
a(S's'
p77
g15
F0.5792
tp78
a(S'missing'
p79
g15
F0.9801
tp80
a(S'home'
p81
g63
F0.9322
tp82
asI7
(lp83
(S'look'
p84
g15
F0.9799
tp85
a(S'out'
p86
S'T'
p87
F0.7492
tp88
asI8
(lp89
(S'aw'
p90
S'!'
p91
F0.9786
tp92
a(S'laughs'
p93
g15
F0.8893
tp94
a(g58
g12
F0.9956
tp95
a(S'think'
p96
g15
F1.0
tp97
a(S'you'
p98
g12
F0.9966
tp99
a(S're'
p100
g15
F0.7788
tp101
a(S'tired'
p102
g9
F0.9734
tp103
a(S'sis'
p104
g63
F0.9842
tp105
asI9
(lp106
(S'krystal'
p107
S'^'
p108
F0.9889
tp109
a(S'woke'
p110
g15
F0.997
tp111
a(S'you'
p112
g12
F0.9992
tp113
a(S'up'
p114
g87
F0.4471
tp115
a(S'this'
p116
g55
F0.9768
tp117
a(S'mornin'
p118
g63
F0.907
tp119
a(S'g'
p120
g19
F0.2861
tp121
asI10
(lp122
(S'oh'
p123
g91
F0.9971
tp124
a(S'really'
p125
g6
F0.9779
tp126
asI11
(lp127
(S'xxx'
p128
g3
F0.6622
tp129
a(S'get'
p130
g15
F0.9994
tp131
a(S'up'
p132
g87
F0.9721
tp133
a(S'nice'
p134
g9
F0.9925
tp135
a(S'and'
p136
S'&'
p137
F0.9964
tp138
a(S'early'
p139
g6
F0.5223
tp140
a(S'you'
p141
g12
F0.9968
tp142
a(S'get'
p143
g15
F1.0
tp144
a(S'up'
p145
g87
F0.9163
tp146
a(S'early'
p147
g6
F0.5769
tp148
a(S'anyway'
p149
g6
F0.9863
tp150
asI12
(lp151
(S'she'
p152
g12
F0.9971
tp153
a(S'said'
p154
g15
F0.9968
tp155
a(S'krystal'
p156
g108
F0.9822
tp157
a(S'woke'
p158
g15
F0.9965
tp159
a(S'her'
p160
g12
F0.8822
tp161
a(S'up'
p162
g87
F0.7878
tp163
a(S'though'
p164
g35
F0.806
tp165
asI13
(lp166
(S'you'
p167
g12
F0.995
tp168
a(S'probably'
p169
g6
F0.9986
tp170
a(S'kept'
p171
g15
F0.9997
tp172
a(S'her'
p173
g55
F0.4937
tp174
a(S'awake'
p175
g9
F0.9146
tp176
a(S'last'
p177
g9
F0.9868
tp178
a(S'night'
p179
g63
F0.9924
tp180
asI14
(lp181
(S'it'
p182
g12
F0.9943
tp183
a(S'must'
p184
g15
F0.9976
tp185
a(S'have'
p186
g15
F0.9993
tp187
a(S'been'
p188
g15
F0.9141
tp189
a(S'real'
p190
g6
F0.6486
tp191
a(S'early'
p192
g9
F0.9891
tp193
asI15
(lp194
(S'did'
p195
g15
F0.9986
tp196
a(S'you'
p197
g12
F0.9984
tp198
a(S'go'
p199
g15
F0.9989
tp200
a(S'to'
p201
g35
F0.9841
tp202
a(S'bed'
p203
g15
F0.6143
tp204
a(S'late'
p205
g9
F0.8759
tp206
asI16
(lp207
(S'yeah'
p208
g91
F0.9962
tp209
a(S'but'
p210
g137
F0.9923
tp211
a(S'paula'
p212
g108
F0.9938
tp213
a(S'said'
p214
g15
F0.993
tp215
a(S'to'
p216
g35
F0.9955
tp217
a(S'sleep'
p218
g15
F0.9417
tp219
a(S'as'
p220
g6
F0.7617
tp221
a(S'late'
p222
g9
F0.8806
tp223
a(S'you'
p224
g12
F0.9972
tp225
a(S'want'
p226
g15
F0.9994
tp227
asI17
(lp228
(S'laughs'
p229
g15
F0.9102
tp230
asI18
(lp231
(S'hm'
p232
g91
F0.995
tp233
asI19
(lp234
(S'xxx'
p235
g3
F0.7121
tp236
a(S'probably'
p237
g6
F0.997
tp238
a(S'gets'
p239
g15
F0.9999
tp240
a(S'up'
p241
g87
F0.8808
tp242
a(S'real'
p243
g6
F0.7564
tp244
a(S'early'
p245
g9
F0.9891
tp246
asI20
(lp247
(S'uh'
p248
g91
F0.9455
tp249
a(S'it'
p250
g12
F0.9851
tp251
a(S'what'
p252
g12
F0.9744
tp253
a(g77
g19
F0.4428
tp254
a(S'right'
p255
g6
F0.5152
tp256
a(S'there'
p257
g6
F0.8909
tp258
a(g58
g12
F0.9843
tp259
a(S'keep'
p260
g15
F0.9979
tp261
a(S'on'
p262
g35
F0.8342
tp263
a(S'feeling'
p264
g15
F0.9366
tp265
a(S'something'
p266
g63
F0.9398
tp267
a(S'right'
p268
g6
F0.8682
tp269
a(S'there'
p270
g6
F0.8005
tp271
asI21
(lp272
(S'xxx'
p273
g3
F0.8437
tp274
asI22
(lp275
(S'don'
p276
g108
F0.5427
tp277
a(S't'
p278
g108
F0.5045
tp279
a(S'feel'
p280
g15
F0.9854
tp281
a(S'anything'
p282
g63
F0.9901
tp283
asI23
(lp284
(S'leave'
p285
g15
F0.9944
tp286
a(S'your'
p287
g55
F0.9965
tp288
a(S'hands'
p289
g63
F0.999
tp290
a(S'off'
p291
g35
F0.9768
tp292
a(S'your'
p293
g55
F0.9983
tp294
a(S'face'
p295
g63
F0.9982
tp296
asI24
(lp297
(S'why'
p298
g6
F0.8527
tp299
asI25
(lp300
(S'you'
p301
g12
F0.9968
tp302
a(S'wanna'
p303
g15
F0.9977
tp304
a(S'get'
p305
g15
F0.9999
tp306
a(S'you'
p307
g12
F0.9996
tp308
a(S'wanna'
p309
g15
F0.9968
tp310
a(S'get'
p311
g15
F0.9987
tp312
a(S'poison'
p313
g63
F0.7988
tp314
a(S'ivy'
p315
g63
F0.8957
tp316
a(S'in'
p317
g35
F0.9992
tp318
a(S'the'
p319
g55
F0.9996
tp320
a(S'stomach'
p321
g63
F0.9978
tp322
asI26
(lp323
(g58
g12
F0.9756
tp324
a(S'didn'
p325
g15
F0.9919
tp326
a(g278
g15
F0.6893
tp327
a(S'get'
p328
g15
F0.9986
tp329
a(S'any'
p330
g55
F0.9132
tp331
a(S'of'
p332
g35
F0.997
tp333
a(S'this'
p334
g55
F0.8125
tp335
a(S'yummy'
p336
g9
F0.8592
tp337
a(S'squash'
p338
g63
F0.9721
tp339
a(S'yet'
p340
g6
F0.9291
tp341
asI27
(lp342
(S'let'
p343
g15
F0.9967
tp344
a(S'it'
p345
g12
F0.9973
tp346
a(S'get'
p347
g15
F0.9991
tp348
a(S'cool'
p349
g9
F0.9684
tp350
asI28
(lp351
(S'may'
p352
g15
F0.6073
tp353
a(g58
g12
F0.9866
tp354
a(S'please'
p355
g15
F0.9989
tp356
a(S'have'
p357
g15
F0.9983
tp358
a(S'some'
p359
g55
F0.9372
tp360
a(S'xxx'
p361
g3
F0.7066
tp362
asI29
(lp363
(S'more'
p364
g9
F0.4885
tp365
asI30
(lp366
(S'more'
p367
g9
F0.4885
tp368
asI31
(lp369
(S'me'
p370
g12
F0.9951
tp371
a(S'too'
p372
g6
F0.9856
tp373
asI32
(lp374
(g58
g12
F0.9889
tp375
a(S'need'
p376
g15
F0.998
tp377
a(S'rice'
p378
g63
F0.9769
tp379
asI33
(lp380
(S'please'
p381
g15
F0.8246
tp382
asI34
(lp383
(S'you'
p384
g12
F0.997
tp385
a(S'have'
p386
g15
F0.9992
tp387
a(S'some'
p388
g55
F0.9061
tp389
asI35
(lp390
(S'can'
p391
g15
F0.9755
tp392
a(g58
g12
F0.987
tp393
a(S'have'
p394
g15
F0.9999
tp395
a(S'some'
p396
g55
F0.8782
tp397
a(S'too'
p398
g6
F0.9548
tp399
asI36
(lp400
(S'push'
p401
g15
F0.963
tp402
a(S'your'
p403
g55
F0.9945
tp404
a(S'plate'
p405
g63
F0.9994
tp406
a(S'over'
p407
g35
F0.9376
tp408
a(S'here'
p409
g6
F0.9577
tp410
asI37
(lp411
(S'chi'
p412
g108
F0.6516
tp413
a(S'push'
p414
g15
F0.9761
tp415
a(S'your'
p416
g55
F0.9946
tp417
a(S'plate'
p418
g63
F0.9989
tp419
a(S'over'
p420
g35
F0.9797
tp421
a(S'a'
p422
g55
F0.9981
tp423
a(S'little'
p424
g9
F0.9891
tp425
asI38
(lp426
(S'okay'
p427
g91
F0.9618
tp428
a(S'xxx'
p429
g3
F0.8072
tp430
asI39
(lp431
(S'saw'
p432
g15
F0.9949
tp433
a(S'my'
p434
g55
F0.9979
tp435
a(S'buddy'
p436
g63
F0.997
tp437
a(S'david'
p438
g108
F0.9718
tp439
a(S'xxx'
p440
g3
F0.7403
tp441
asI40
(lp442
(S'oh'
p443
g91
F0.9971
tp444
a(S'really'
p445
g6
F0.9779
tp446
asI41
(lp447
(S'yup'
p448
g91
F0.9978
tp449
asI42
(lp450
(S'you'
p451
g12
F0.998
tp452
a(S'have'
p453
g15
F0.9985
tp454
a(S'more'
p455
g9
F0.8401
tp456
a(S'rice'
p457
g63
F0.9983
tp458
a(S'too'
p459
g6
F0.9465
tp460
a(S'sis'
p461
g63
F0.589
tp462
asI43
(lp463
(S'xxx'
p464
g3
F0.8437
tp465
asI44
(lp466
(S'mommy'
p467
g63
F0.5271
tp468
asI45
(lp469
(S'what'
p470
g12
F0.949
tp471
asI46
(lp472
(S'hm'
p473
g91
F0.995
tp474
asI47
(lp475
(S'xxx'
p476
g3
F0.8437
tp477
asI48
(lp478
(S'he'
p479
g12
F0.9905
tp480
a(g77
g15
F0.7894
tp481
a(S'going'
p482
g15
F0.9992
tp483
a(S'down'
p484
g87
F0.6127
tp485
a(S'in'
p486
g35
F0.9837
tp487
a(g422
g55
F0.996
tp488
a(S'couple'
p489
g63
F0.9629
tp490
a(S'o'
p491
g35
F0.9089
tp492
a(S'f'
p493
g19
F0.3244
tp494
a(S'weeks'
p495
g63
F0.6598
tp496
asI49
(lp497
(S'that'
p498
g12
F0.4727
tp499
a(g77
g15
F0.4356
tp500
a(S'enough'
p501
g6
F0.4051
tp502
asI50
(lp503
(S'xxx'
p504
g3
F0.7523
tp505
a(S'maybe'
p506
g6
F0.9223
tp507
a(S'we'
p508
g12
F0.9974
tp509
a(S'll'
p510
g15
F0.4642
tp511
a(S'come'
p512
g15
F0.9995
tp513
a(S'down'
p514
g87
F0.6916
tp515
asI51
(lp516
(S'that'
p517
g12
F0.4727
tp518
a(g77
g15
F0.4356
tp519
a(S'enough'
p520
g6
F0.4051
tp521
asI52
(lp522
(S'that'
p523
g12
F0.473
tp524
a(g77
g15
F0.4356
tp525
a(S'enough'
p526
g9
F0.6944
tp527
a(S'mom'
p528
g63
F0.9781
tp529
asI53
(lp530
(S'no'
p531
g91
F0.9253
tp532
asI54
(lp533
(S'0'
p534
S'$'
p535
F0.9682
tp536
a(S'grunts'
p537
g15
F0.487
tp538
a(S'in'
p539
g35
F0.8558
tp540
a(S'frustration'
p541
g63
F0.999
tp542
asI55
(lp543
(S'get'
p544
g15
F0.9955
tp545
a(S'that'
p546
g12
F0.8935
tp547
a(S'for'
p548
g35
F0.9974
tp549
a(S'chi'
p550
g108
F0.609
tp551
asI56
(lp552
(S'she'
p553
g12
F0.9917
tp554
a(g77
g15
F0.5763
tp555
a(S'gettin'
p556
g15
F0.9085
tp557
a(g120
g15
F0.7285
tp558
a(S'it'
p559
g12
F0.9927
tp560
a(S'for'
p561
g35
F0.9986
tp562
a(S'chi'
p563
g108
F0.6728
tp564
asI57
(lp565
(g58
g12
F0.988
tp566
a(S'am'
p567
g15
F0.9952
tp568
asI58
(lp569
(S'alright'
p570
g91
F0.9864
tp571
asI59
(lp572
(S'no'
p573
g91
F0.6532
tp574
a(g58
g12
F0.8329
tp575
a(g58
g12
F0.9692
tp576
a(S'can'
p577
g15
F0.9997
tp578
a(S'get'
p579
g15
F1.0
tp580
a(S'it'
p581
g12
F0.9869
tp582
a(S'myself'
p583
g12
F0.9521
tp584
a(S'whines'
p585
g15
F0.8942
tp586
a(S'and'
p587
g137
F0.9965
tp588
a(S'cries'
p589
g15
F0.9256
tp590
asI60
(lp591
(S'alright'
p592
g91
F0.8763
tp593
a(S'let'
p594
g15
F0.9955
tp595
a(S'her'
p596
g12
F0.8532
tp597
a(S'get'
p598
g15
F0.9988
tp599
a(g422
g55
F0.9979
tp600
a(S'scoop'
p601
g63
F0.9971
tp602
a(S'by'
p603
g35
F0.9994
tp604
a(S'herself'
p605
g12
F0.9805
tp606
asI61
(lp607
(S'well'
p608
g91
F0.9044
tp609
a(S'excuse'
p610
g15
F0.9703
tp611
a(S'me'
p612
g12
F0.9987
tp613
asI62
(lp614
(S'is'
p615
g15
F0.9965
tp616
a(S'she'
p617
g12
F0.9989
tp618
a(S'trying'
p619
g15
F0.9998
tp620
a(S'to'
p621
g35
F0.9919
tp622
a(S'be'
p623
g15
F0.9998
tp624
a(g422
g55
F0.9925
tp625
a(S'big'
p626
g9
F0.9927
tp627
a(S'girl'
p628
g63
F0.9968
tp629
a(S'now'
p630
g6
F0.9935
tp631
asI63
(lp632
(S'yeah'
p633
g91
F0.9988
tp634
asI64
(lp635
(S'she'
p636
g12
F0.9972
tp637
a(S'likes'
p638
g15
F0.9995
tp639
a(S'to'
p640
g35
F0.9552
tp641
a(S'do'
p642
g15
F0.9996
tp643
a(S'things'
p644
g63
F0.9823
tp645
a(S'on'
p646
g35
F0.9988
tp647
a(S'her'
p648
g55
F0.9768
tp649
a(S'own'
p650
g63
F0.778
tp651
asI65
(lp652
(S'xxx'
p653
g3
F0.8437
tp654
asI66
(lp655
(S'no'
p656
g91
F0.7817
tp657
a(S'some'
p658
g55
F0.8198
tp659
a(S'more'
p660
g9
F0.9335
tp661
asI67
(lp662
(S'see'
p663
g15
F0.8335
tp664
asI68
(lp665
(S'you'
p666
g12
F0.9911
tp667
a(S'couldn'
p668
g15
F0.989
tp669
a(g278
g15
F0.6509
tp670
a(S'get'
p671
g15
F0.9991
tp672
a(S'it'
p673
g12
F0.9926
tp674
asI69
(lp675
(S'xxx'
p676
g3
F0.5355
tp677
a(S'goin'
p678
g15
F0.98
tp679
a(g120
g15
F0.3305
tp680
a(S'now'
p681
g6
F0.9935
tp682
asI70
(lp683
(S'comin'
p684
g15
F0.9744
tp685
a(g120
g15
F0.5232
tp686
a(S'to'
p687
g35
F0.9859
tp688
a(g422
g55
F0.9972
tp689
a(S'head'
p690
g63
F0.9948
tp691
asI71
(lp692
(g534
g535
F0.9517
tp693
a(S'laughs'
p694
g15
F0.7753
tp695
a(S'quietly'
p696
g6
F0.9556
tp697
asI72
(lp698
(S'xxx'
p699
g3
F0.8437
tp700
asI73
(lp701
(S'giggles'
p702
g15
F0.5513
tp703
asI74
(lp704
(S'xxx'
p705
g3
F0.6849
tp706
a(S'spend'
p707
g15
F0.9958
tp708
a(S'about'
p709
g35
F0.9279
tp710
a(S'two'
p711
g535
F0.9691
tp712
a(S'hundred'
p713
g535
F0.6779
tp714
a(S'bucks'
p715
g63
F0.927
tp716
asI75
(lp717
(S'giggles'
p718
g15
F0.5513
tp719
asI76
(lp720
(S'because'
p721
g35
F0.9926
tp722
a(S'camping'
p723
g63
F0.8421
tp724
a(S'is'
p725
g15
F0.9975
tp726
a(S'cheaper'
p727
g9
F0.9196
tp728
a(S'you'
p729
g12
F0.9981
tp730
a(S'know'
p731
g15
F0.9975
tp732
asI77
(lp733
(S'well'
p734
g91
F0.7877
tp735
a(S'for'
p736
g35
F0.9956
tp737
a(S'two'
p738
g535
F0.9536
tp739
a(S'hundred'
p740
g535
F0.7043
tp741
a(S'bucks'
p742
g63
F0.5265
tp743
a(S'you'
p744
g12
F0.9946
tp745
a(S'stay'
p746
g15
F0.9952
tp747
a(S'in'
p748
g35
F0.8942
tp749
a(g422
g55
F0.9969
tp750
a(S'hotel'
p751
g63
F0.9812
tp752
a(S'room'
p753
g63
F0.9839
tp754
a(S'for'
p755
g35
F0.9995
tp756
a(S'four'
p757
g535
F0.8328
tp758
a(S'nights'
p759
g63
F0.8931
tp760
a(S'you'
p761
g12
F0.9976
tp762
a(S'know'
p763
g15
F0.9987
tp764
a(S'what'
p765
g12
F0.9845
tp766
a(g58
g12
F0.9931
tp767
a(S'mean'
p768
g15
F0.9882
tp769
asI78
(lp770
(S'they'
p771
g12
F0.8723
tp772
a(S'ship'
p773
g15
F0.9843
tp774
a(S'these'
p775
g55
F0.9866
tp776
a(S'things'
p777
g63
F0.9979
tp778
a(S'here'
p779
g6
F0.9784
tp780
a(S'from'
p781
g35
F0.9936
tp782
a(S'xxx'
p783
g3
F0.6595
tp784
asI79
(lp785
(S'there'
p786
S'X'
p787
F0.4664
tp788
a(g77
g19
F0.6539
tp789
a(g422
g55
F0.9941
tp790
a(S'definite'
p791
g9
F0.9642
tp792
a(S'argument'
p793
g63
F0.9967
tp794
a(S'there'
p795
g6
F0.7577
tp796
asI80
(lp797
(S'the'
p798
g55
F0.9991
tp799
a(S'shit'
p800
g63
F0.9966
tp801
a(S'you'
p802
g12
F0.9949
tp803
a(S'spend'
p804
g15
F0.9997
tp805
a(S'every'
p806
g55
F0.9886
tp807
a(S'year'
p808
g63
F0.9966
tp809
a(S'to'
p810
g35
F0.9974
tp811
a(S'be'
p812
g15
F0.9996
tp813
a(S'able'
p814
g9
F0.9582
tp815
a(S'to'
p816
g35
F0.9986
tp817
a(S'camp'
p818
g63
F0.6627
tp819
asI81
(lp820
(S'watch'
p821
g15
F0.9939
tp822
a(S'your'
p823
g55
F0.9964
tp824
a(S'mouth'
p825
g63
F0.9998
tp826
a(S'please'
p827
g15
F0.9467
tp828
asI82
(lp829
(S'uhoh'
p830
g91
F0.9546
tp831
a(S'keep'
p832
g15
F0.994
tp833
a(S'your'
p834
g55
F0.9956
tp835
a(S'mouth'
p836
g63
F0.9997
tp837
a(S'closed'
p838
g15
F0.7651
tp839
a(S'when'
p840
g6
F0.9873
tp841
a(S'you'
p842
g12
F0.9924
tp843
a(S're'
p844
g15
F0.7825
tp845
a(S'eatin'
p846
g15
F0.6891
tp847
a(g120
g19
F0.4392
tp848
asI83
(lp849
(S'yep'
p850
g91
F0.9977
tp851
asI84
(lp852
(S'right'
p853
g6
F0.602
tp854
a(S'right'
p855
g9
F0.4647
tp856
a(S'that'
p857
g35
F0.6339
tp858
a(S'too'
p859
g6
F0.9601
tp860
asI85
(lp861
(S'sneezes'
p862
g15
F0.6777
tp863
asI86
(lp864
(S'bless'
p865
g15
F0.9146
tp866
a(S'you'
p867
g12
F0.9976
tp868
asI87
(lp869
(S'can'
p870
g15
F0.9755
tp871
a(g58
g12
F0.987
tp872
a(S'have'
p873
g15
F0.9997
tp874
a(S'more'
p875
g9
F0.9162
tp876
a(S'food'
p877
g63
F0.996
tp878
asI88
(lp879
(S'no'
p880
g91
F0.4113
tp881
a(S'more'
p882
g9
F0.9732
tp883
a(S'napkins'
p884
g63
F0.9977
tp885
asI89
(lp886
(S'you'
p887
g12
F0.9754
tp888
a(S're'
p889
g15
F0.9443
tp890
a(S'the'
p891
g55
F0.9655
tp892
a(S'only'
p893
g9
F0.9647
tp894
a(S'one'
p895
g535
F0.9697
tp896
a(S'with'
p897
g35
F0.9995
tp898
a(g422
g55
F0.998
tp899
a(S'nap'
p900
g63
F0.9909
tp901
a(S'oh'
p902
g91
F0.9711
tp903
a(S'xxx'
p904
g3
F0.7523
tp905
a(S'xxx'
p906
g3
F0.9838
tp907
asI90
(lp908
(S'yeah'
p909
g91
F0.9968
tp910
a(g58
g12
F0.9954
tp911
a(S'took'
p912
g15
F1.0
tp913
a(S'out'
p914
g87
F0.8102
tp915
a(S'napkins'
p916
g63
F0.983
tp917
a(S'for'
p918
g35
F0.9994
tp919
a(S'everybody'
p920
g63
F0.9216
tp921
asI91
(lp922
(S'xxx'
p923
g3
F0.8437
tp924
asI92
(lp925
(S'so'
p926
g35
F0.7418
tp927
a(S'what'
p928
g12
F0.994
tp929
a(g77
g19
F0.594
tp930
a(S'the'
p931
g55
F0.999
tp932
a(S'first'
p933
g9
F0.9934
tp934
a(S'thing'
p935
g63
F0.9877
tp936
a(S'you'
p937
g12
F0.9629
tp938
a(S're'
p939
g15
F0.5665
tp940
a(S'gonna'
p941
g15
F0.9954
tp942
a(S'do'
p943
g15
F0.9996
tp944
a(S'when'
p945
g6
F0.9859
tp946
a(S'you'
p947
g12
F0.9986
tp948
a(S'get'
p949
g15
F1.0
tp950
a(S'up'
p951
g87
F0.9449
tp952
a(S'to'
p953
g35
F0.9919
tp954
a(S'hermit'
p955
g15
F0.4931
tp956
a(S'island'
p957
g63
F0.5011
tp958
asI93
(lp959
(S'unpack'
p960
g15
F0.9321
tp961
a(S'set'
p962
g15
F0.9359
tp963
a(S'their'
p964
g55
F0.9942
tp965
a(S'tent'
p966
g63
F0.9974
tp967
a(S'up'
p968
g35
F0.7481
tp969
a(S'spend'
p970
g15
F0.996
tp971
a(S'the'
p972
g55
F0.9997
tp973
a(S'day'
p974
g63
F0.9971
tp975
asI94
(lp976
(g58
g12
F0.953
tp977
a(S'm'
p978
g15
F0.9864
tp979
a(S'asking'
p980
g15
F0.9991
tp981
a(S'the'
p982
g55
F0.9996
tp983
a(S'children'
p984
g63
F0.9506
tp985
asI95
(lp986
(S'xxx'
p987
g3
F0.8437
tp988
asI96
(lp989
(S'oh'
p990
g91
F0.9979
tp991
a(S'oh'
p992
g91
F0.9997
tp993
asI97
(lp994
(S'just'
p995
g6
F0.9989
tp996
a(S'because'
p997
g35
F0.9981
tp998
a(S'you'
p999
g12
F0.9999
tp1000
a(S'hate'
p1001
g15
F0.9959
tp1002
a(S'camping'
p1003
g15
F0.7032
tp1004
asI98
(lp1005
(S'they'
p1006
g12
F0.9104
tp1007
a(S're'
p1008
g15
F0.5867
tp1009
a(S'gonna'
p1010
g15
F0.991
tp1011
a(S'have'
p1012
g15
F0.9999
tp1013
a(g422
g55
F0.9975
tp1014
a(S'good'
p1015
g9
F0.9992
tp1016
a(S'time'
p1017
g63
F0.9987
tp1018
asI99
(lp1019
(S'right'
p1020
g91
F0.7526
tp1021
a(S'chi'
p1022
g91
F0.4976
tp1023
asI100
(lp1024
(S'no'
p1025
g91
F0.6532
tp1026
a(g58
g12
F0.9659
tp1027
a(S'know'
p1028
g15
F0.9998
tp1029
a(S'they'
p1030
g12
F0.9578
tp1031
a(S're'
p1032
g15
F0.5576
tp1033
a(S'gonna'
p1034
g15
F0.9909
tp1035
a(S'have'
p1036
g15
F0.9999
tp1037
a(S'an'
p1038
g55
F0.9971
tp1039
a(S'excellent'
p1040
g9
F0.9934
tp1041
a(S'time'
p1042
g63
F0.9976
tp1043
asI101
(lp1044
(S'sis'
p1045
g63
F0.6982
tp1046
a(S'what'
p1047
g12
F0.9477
tp1048
a(g77
g19
F0.594
tp1049
a(S'the'
p1050
g55
F0.999
tp1051
a(S'first'
p1052
g9
F0.9934
tp1053
a(S'thing'
p1054
g63
F0.9877
tp1055
a(S'you'
p1056
g12
F0.9935
tp1057
a(S'wanna'
p1058
g15
F0.9987
tp1059
a(S'do'
p1060
g15
F0.9988
tp1061
asI102
(lp1062
(S'look'
p1063
g15
F0.9135
tp1064
a(S'at'
p1065
g35
F0.9991
tp1066
a(S'my'
p1067
g55
F0.998
tp1068
a(S'tent'
p1069
g63
F0.9994
tp1070
asI103
(lp1071
(S'mm'
p1072
g91
F0.627
tp1073
asI104
(lp1074
(S'see'
p1075
g15
F0.9897
tp1076
a(S'my'
p1077
g55
F0.9983
tp1078
a(S'tent'
p1079
g63
F0.9995
tp1080
asI105
(lp1081
(S'me'
p1082
g12
F0.9951
tp1083
a(S'too'
p1084
g6
F0.9856
tp1085
asI106
(lp1086
(S'yeah'
p1087
g91
F0.9988
tp1088
asI107
(lp1089
(S'crawl'
p1090
g15
F0.8884
tp1091
a(S'in'
p1092
g35
F0.9591
tp1093
a(S'it'
p1094
g12
F0.997
tp1095
a(S'and'
p1096
g137
F0.9941
tp1097
a(S'set'
p1098
g15
F0.9799
tp1099
a(S'up'
p1100
g87
F0.9185
tp1101
a(S'your'
p1102
g55
F0.8504
tp1103
a(S'sleeping'
p1104
g15
F0.795
tp1105
a(S'bag'
p1106
g63
F0.9795
tp1107
a(S'and'
p1108
g137
F0.9982
tp1109
asI108
(lp1110
(S'mama'
p1111
g63
F0.7716
tp1112
asI109
(lp1113
(S'what'
p1114
g12
F0.949
tp1115
asI110
(lp1116
(S'now'
p1117
g6
F0.9853
tp1118
a(S'it'
p1119
g12
F0.9979
tp1120
a(S'hurts'
p1121
g15
F0.9985
tp1122
a(S'right'
p1123
g6
F0.8816
tp1124
a(S'here'
p1125
g6
F0.977
tp1126
asI111
(lp1127
(S'in'
p1128
g35
F0.9915
tp1129
a(S'the'
p1130
g55
F0.9992
tp1131
a(S'middle'
p1132
g63
F0.9645
tp1133
a(S'of'
p1134
g35
F0.9991
tp1135
a(S'my'
p1136
g55
F0.9952
tp1137
a(S'two'
p1138
g535
F0.8851
tp1139
a(S'teeth'
p1140
g63
F0.9964
tp1141
asI112
(lp1142
(S'you'
p1143
g12
F0.9968
tp1144
a(S'might'
p1145
g15
F0.9989
tp1146
a(S'have'
p1147
g15
F0.9998
tp1148
a(S'somethin'
p1149
g63
F0.9935
tp1150
a(g120
g35
F0.3385
tp1151
a(S'stuck'
p1152
g15
F0.9595
tp1153
a(S'in'
p1154
g35
F0.9559
tp1155
a(S'there'
p1156
g6
F0.5814
tp1157
asI113
(lp1158
(S'we'
p1159
g12
F0.9969
tp1160
a(S'can'
p1161
g15
F0.9997
tp1162
a(S'floss'
p1163
g15
F0.9888
tp1164
a(S'it'
p1165
g12
F0.9852
tp1166
a(S'out'
p1167
g87
F0.8812
tp1168
a(S'after'
p1169
g35
F0.9603
tp1170
a(S'dinner'
p1171
g63
F0.9694
tp1172
asI114
(lp1173
(S'so'
p1174
g6
F0.4912
tp1175
a(S'did'
p1176
g15
F0.997
tp1177
a(S'you'
p1178
g12
F0.9988
tp1179
a(S'get'
p1180
g15
F0.9999
tp1181
a(S'my'
p1182
g55
F0.895
tp1183
a(S'xxx'
p1184
g63
F0.5095
tp1185
asI115
(lp1186
(S'xxx'
p1187
g3
F0.8437
tp1188
asI116
(lp1189
(g58
g12
F0.9888
tp1190
a(S'dropped'
p1191
g15
F1.0
tp1192
a(S'it'
p1193
g12
F0.9835
tp1194
a(S'off'
p1195
g87
F0.7358
tp1196
a(S'like'
p1197
g35
F0.9462
tp1198
a(S'you'
p1199
g12
F0.9998
tp1200
a(S'asked'
p1201
g15
F0.9996
tp1202
a(S'me'
p1203
g12
F0.9989
tp1204
a(S'to'
p1205
g35
F0.8872
tp1206
asI117
(lp1207
(g58
g12
F0.9893
tp1208
a(S'thought'
p1209
g15
F0.9998
tp1210
a(S'you'
p1211
g12
F0.9995
tp1212
a(S'told'
p1213
g15
F0.9999
tp1214
a(S'me'
p1215
g12
F0.9959
tp1216
a(S'you'
p1217
g12
F0.9845
tp1218
a(S'd'
p1219
g15
F0.4246
tp1220
a(S'get'
p1221
g15
F0.9996
tp1222
a(S'it'
p1223
g12
F0.9941
tp1224
asI118
(lp1225
(S'no'
p1226
g91
F0.6532
tp1227
a(g58
g12
F0.9603
tp1228
a(S'need'
p1229
g15
F0.9998
tp1230
a(S'the'
p1231
g55
F0.9995
tp1232
a(S'car'
p1233
g63
F0.9977
tp1234
a(S'to'
p1235
g35
F0.9995
tp1236
a(S'get'
p1237
g15
F1.0
tp1238
a(S'it'
p1239
g12
F0.9958
tp1240
asI119
(lp1241
(S'xxx'
p1242
g3
F0.8437
tp1243
asI120
(lp1244
(g58
g12
F0.9882
tp1245
a(S'need'
p1246
g15
F0.9979
tp1247
a(S'more'
p1248
g9
F0.8855
tp1249
a(S'rice'
p1250
g63
F0.994
tp1251
a(S'xxx'
p1252
g3
F0.779
tp1253
asI121
(lp1254
(S'like'
p1255
g35
F0.7814
tp1256
a(S'that'
p1257
g55
F0.5722
tp1258
a(S'rice'
p1259
g63
F0.9869
tp1260
a(S'huh'
p1261
g91
F0.8786
tp1262
asI122
(lp1263
(g58
g12
F0.9887
tp1264
a(S'cooked'
p1265
g15
F1.0
tp1266
a(S'that'
p1267
g12
F0.7384
tp1268
a(S'especially'
p1269
g6
F0.998
tp1270
a(S'for'
p1271
g35
F0.9987
tp1272
a(S'her'
p1273
g12
F0.756
tp1274
asI123
(lp1275
(S'she'
p1276
g12
F0.9969
tp1277
a(S'saw'
p1278
g15
F0.9994
tp1279
a(S'that'
p1280
g12
F0.4962
tp1281
a(g58
g12
F0.9958
tp1282
a(S'was'
p1283
g15
F0.9998
tp1284
a(S'cooking'
p1285
g15
F0.9372
tp1286
a(S'brown'
p1287
g9
F0.5563
tp1288
a(S'rice'
p1289
g63
F0.9936
tp1290
a(S'and'
p1291
g137
F0.9973
tp1292
a(S'then'
p1293
g6
F0.9877
tp1294
asI124
(lp1295
(S'well'
p1296
g91
F0.8573
tp1297
a(g58
g12
F0.997
tp1298
a(S'promised'
p1299
g15
F0.9996
tp1300
a(S'her'
p1301
g55
F0.9662
tp1302
a(S'last'
p1303
g9
F0.9801
tp1304
a(S'time'
p1305
g63
F0.9992
tp1306
a(S'that'
p1307
g35
F0.8438
tp1308
a(g58
g12
F0.9955
tp1309
a(S'would'
p1310
g15
F0.9998
tp1311
a(S'cook'
p1312
g15
F0.9976
tp1313
a(S'white'
p1314
g9
F0.9278
tp1315
a(S'rice'
p1316
g63
F0.9886
tp1317
a(S'the'
p1318
g55
F0.9979
tp1319
a(S'next'
p1320
g9
F0.9779
tp1321
a(S'time'
p1322
g63
F0.9986
tp1323
asI125
(lp1324
(S'chi'
p1325
g108
F0.4479
tp1326
a(S'what'
p1327
g12
F0.9737
tp1328
a(g77
g19
F0.594
tp1329
a(S'the'
p1330
g55
F0.999
tp1331
a(S'first'
p1332
g9
F0.9906
tp1333
a(S'thing'
p1334
g63
F0.9884
tp1335
a(S'you'
p1336
g12
F0.9744
tp1337
asI126
(lp1338
(S'um'
p1339
g91
F0.9193
tp1340
a(S'look'
p1341
g15
F0.9261
tp1342
a(S'at'
p1343
g35
F0.9989
tp1344
a(S'my'
p1345
g55
F0.9985
tp1346
a(S'tent'
p1347
g63
F0.9988
tp1348
a(S'and'
p1349
g137
F0.997
tp1350
a(S'crawl'
p1351
g15
F0.9634
tp1352
a(S'in'
p1353
g35
F0.9584
tp1354
a(S'it'
p1355
g12
F0.9971
tp1356
a(S'and'
p1357
g137
F0.9946
tp1358
a(S'set'
p1359
g15
F0.9849
tp1360
a(S'my'
p1361
g55
F0.8905
tp1362
a(S'sleeping'
p1363
g15
F0.8012
tp1364
a(S'bag'
p1365
g63
F0.9366
tp1366
a(S'up'
p1367
g87
F0.6986
tp1368
asI127
(lp1369
(S'do'
p1370
g15
F0.9985
tp1371
a(S'you'
p1372
g12
F0.9997
tp1373
a(S'want'
p1374
g15
F0.9999
tp1375
a(S'some'
p1376
g55
F0.889
tp1377
asI128
(lp1378
(S'no'
p1379
g91
F0.9253
tp1380
asI129
(lp1381
(S'you'
p1382
g12
F0.9887
tp1383
a(S'don'
p1384
g15
F0.85
tp1385
a(g278
g19
F0.4526
tp1386
asI130
(lp1387
(S'same'
p1388
g9
F0.976
tp1389
a(S'as'
p1390
g35
F0.9434
tp1391
a(S'mom'
p1392
g63
F0.972
tp1393
asI131
(lp1394
(S'do'
p1395
g15
F0.9985
tp1396
a(S'you'
p1397
g12
F0.9996
tp1398
a(S'think'
p1399
g15
F0.9999
tp1400
a(S'it'
p1401
g12
F0.993
tp1402
a(g77
g19
F0.6131
tp1403
a(S'xxx'
p1404
g3
F0.678
tp1405
asI132
(lp1406
(g58
g12
F0.9897
tp1407
a(S'want'
p1408
g15
F0.9996
tp1409
a(g58
g12
F0.9961
tp1410
a(S'want'
p1411
g15
F1.0
tp1412
a(S'the'
p1413
g55
F0.9997
tp1414
a(S'same'
p1415
g9
F0.9808
tp1416
a(S'as'
p1417
g35
F0.9121
tp1418
a(g58
g12
F0.9896
tp1419
a(g978
g15
F0.982
tp1420
a(S'doing'
p1421
g15
F0.9995
tp1422
a(S'the'
p1423
g55
F0.9997
tp1424
a(S'same'
p1425
g9
F0.9807
tp1426
a(S'as'
p1427
g35
F0.9056
tp1428
a(S'sis'
p1429
g63
F0.9632
tp1430
asI133
(lp1431
(S'oh'
p1432
g91
F0.9988
tp1433
asI134
(lp1434
(S'oh'
p1435
g91
F0.9963
tp1436
a(S'xxx'
p1437
g3
F0.6977
tp1438
asI135
(lp1439
(S'want'
p1440
g15
F0.9964
tp1441
a(S'this'
p1442
g12
F0.6346
tp1443
asI136
(lp1444
(S'hm'
p1445
g91
F0.995
tp1446
asI137
(lp1447
(S'excuse'
p1448
g15
F0.9631
tp1449
a(S'me'
p1450
g12
F0.9987
tp1451
asI138
(lp1452
(S'can'
p1453
g15
F0.9755
tp1454
a(g58
g12
F0.987
tp1455
a(S'have'
p1456
g15
F1.0
tp1457
a(g422
g55
F0.999
tp1458
a(S'little'
p1459
g9
F0.9592
tp1460
a(S'of'
p1461
g35
F0.9956
tp1462
a(S'that'
p1463
g12
F0.7328
tp1464
a(S'please'
p1465
g15
F0.9924
tp1466
asI139
(lp1467
(S'xxx'
p1468
g3
F0.8437
tp1469
asI140
(lp1470
(S'you'
p1471
g12
F0.9983
tp1472
a(S'know'
p1473
g15
F0.9986
tp1474
a(S'what'
p1475
g12
F0.9865
tp1476
a(S'the'
p1477
g55
F0.9992
tp1478
a(S'first'
p1479
g9
F0.9934
tp1480
a(S'thing'
p1481
g63
F0.9994
tp1482
a(g58
g12
F0.9135
tp1483
a(S'would'
p1484
g15
F0.9999
tp1485
a(S'do'
p1486
g15
F0.9998
tp1487
asI141
(lp1488
(S'what'
p1489
g12
F0.949
tp1490
asI142
(lp1491
(g58
g12
F0.9866
tp1492
a(S'would'
p1493
g15
F0.9998
tp1494
a(S'want'
p1495
g15
F0.9999
tp1496
a(S'to'
p1497
g35
F0.9945
tp1498
a(S'walk'
p1499
g15
F0.9976
tp1500
a(S'down'
p1501
g6
F0.6942
tp1502
a(S'to'
p1503
g35
F0.9993
tp1504
a(S'the'
p1505
g55
F0.998
tp1506
a(S'ocean'
p1507
g63
F0.6903
tp1508
a(S'and'
p1509
g137
F0.9967
tp1510
a(S'look'
p1511
g15
F0.9798
tp1512
a(S'around'
p1513
g35
F0.6103
tp1514
asI143
(lp1515
(S'you'
p1516
g12
F0.9754
tp1517
a(S're'
p1518
g15
F0.7708
tp1519
a(S'going'
p1520
g15
F0.9981
tp1521
a(S'to'
p1522
g35
F0.9818
tp1523
a(S'come'
p1524
g15
F0.9998
tp1525
a(S'down'
p1526
g87
F0.5891
tp1527
a(S'my'
p1528
g55
F0.9967
tp1529
a(S'camp'
p1530
g63
F0.9603
tp1531
a(S'site'
p1532
g63
F0.9975
tp1533
a(S'and'
p1534
g137
F0.9967
tp1535
a(S'you'
p1536
g12
F0.9995
tp1537
a(S'can'
p1538
g15
F0.9995
tp1539
a(S'could'
p1540
g15
F0.9996
tp1541
a(S'come'
p1542
g15
F0.9993
tp1543
a(S'down'
p1544
g87
F0.6424
tp1545
a(S'with'
p1546
g35
F0.9934
tp1547
a(S'xxx'
p1548
g3
F0.6205
tp1549
asI144
(lp1550
(S'what'
p1551
g12
F0.788
tp1552
a(S'camp'
p1553
g63
F0.9489
tp1554
a(S'site'
p1555
g63
F0.9984
tp1556
a(S'are'
p1557
g15
F0.9865
tp1558
a(S'you'
p1559
g12
F0.9995
tp1560
a(S'gonna'
p1561
g15
F0.9996
tp1562
a(S'be'
p1563
g15
F0.9993
tp1564
a(S'on'
p1565
g35
F0.83
tp1566
asI145
(lp1567
(g58
g12
F0.9635
tp1568
a(S'don'
p1569
g15
F0.9156
tp1570
a(g278
g63
F0.3074
tp1571
a(S'know'
p1572
g15
F0.965
tp1573
asI146
(lp1574
(S'um'
p1575
g91
F0.979
tp1576
asI147
(lp1577
(S'do'
p1578
g15
F0.9983
tp1579
a(S'you'
p1580
g12
F0.9997
tp1581
a(S'know'
p1582
g15
F0.9977
tp1583
asI148
(lp1584
(g58
g12
F0.9908
tp1585
a(S'know'
p1586
g15
F1.0
tp1587
a(S'it'
p1588
g12
F0.9924
tp1589
a(g77
g15
F0.5383
tp1590
a(S'one'
p1591
g535
F0.9249
tp1592
a(S'number'
p1593
g63
F0.9879
tp1594
a(S'c'
p1595
g63
F0.3237
tp1596
a(S'circle'
p1597
g63
F0.975
tp1598
asI149
(lp1599
(S'be'
p1600
g15
F0.9727
tp1601
a(S'cause'
p1602
g35
F0.8266
tp1603
a(S'paula'
p1604
g108
F0.9927
tp1605
a(S'told'
p1606
g15
F0.9995
tp1607
a(S'me'
p1608
g12
F0.9989
tp1609
a(S'and'
p1610
g137
F0.9949
tp1611
a(S'she'
p1612
g12
F0.9985
tp1613
a(S'knows'
p1614
g15
F0.9991
tp1615
a(S'be'
p1616
g15
F0.9763
tp1617
a(S'cause'
p1618
g35
F0.7665
tp1619
asI150
(lp1620
(S'oh'
p1621
g91
F0.9975
tp1622
a(S'yeah'
p1623
g91
F0.9996
tp1624
a(S'that'
p1625
g12
F0.7057
tp1626
a(g77
g15
F0.5426
tp1627
a(S'the'
p1628
g55
F0.9995
tp1629
a(S'name'
p1630
g63
F0.9997
tp1631
a(S'of'
p1632
g35
F0.9996
tp1633
a(S'the'
p1634
g55
F0.9989
tp1635
a(S'road'
p1636
g63
F0.9601
tp1637
a(S'circle'
p1638
g63
F0.9762
tp1639
asI151
(lp1640
(S'be'
p1641
g15
F0.9727
tp1642
a(S'cause'
p1643
g35
F0.9298
tp1644
a(S'um'
p1645
g91
F0.3881
tp1646
a(S'her'
p1647
g55
F0.8954
tp1648
a(S'dad'
p1649
g63
F0.9973
tp1650
a(S'got'
p1651
g15
F0.9988
tp1652
a(S'it'
p1653
g12
F0.9877
tp1654
asI152
(lp1655
(S'from'
p1656
g35
F0.9983
tp1657
a(S'my'
p1658
g55
F0.9971
tp1659
a(S'dad'
p1660
g63
F0.9976
tp1661
asI153
(lp1662
(S'yeah'
p1663
g91
F0.9988
tp1664
asI154
(lp1665
(g534
g535
F0.9644
tp1666
a(S'clears'
p1667
g15
F0.8351
tp1668
a(S'throat'
p1669
g63
F0.9556
tp1670
asI155
(lp1671
(g58
g12
F0.9635
tp1672
a(S'don'
p1673
g15
F0.9231
tp1674
a(g278
g63
F0.2503
tp1675
a(S'want'
p1676
g15
F0.9977
tp1677
a(S'the'
p1678
g55
F0.9995
tp1679
a(S'rest'
p1680
g63
F0.9897
tp1681
asI156
(lp1682
(g58
g12
F0.953
tp1683
a(g978
g15
F0.9683
tp1684
a(S'still'
p1685
g6
F0.9903
tp1686
a(S'having'
p1687
g15
F0.9964
tp1688
a(S'dessert'
p1689
g63
F0.9734
tp1690
asI157
(lp1691
(S'well'
p1692
g91
F0.5973
tp1693
a(S'eat'
p1694
g15
F0.9909
tp1695
a(S'your'
p1696
g55
F0.9932
tp1697
a(S'meat'
p1698
g63
F0.9901
tp1699
a(S'honey'
p1700
g63
F0.9461
tp1701
a(S'you'
p1702
g12
F0.9435
tp1703
a(S'haven'
p1704
g15
F0.5515
tp1705
a(g278
g35
F0.2529
tp1706
a(S'dipped'
p1707
g15
F0.9992
tp1708
a(S'it'
p1709
g12
F0.9826
tp1710
a(S'in'
p1711
g35
F0.9631
tp1712
a(S'your'
p1713
g55
F0.991
tp1714
a(S'steak'
p1715
g63
F0.9981
tp1716
a(S'sauce'
p1717
g63
F0.9981
tp1718
asI158
(lp1719
(S'uhhuh'
p1720
g91
F0.9892
tp1721
asI159
(lp1722
(S'oh'
p1723
g91
F0.9934
tp1724
a(S'you'
p1725
g12
F0.9978
tp1726
a(S'did'
p1727
g15
F0.9987
tp1728
asI160
(lp1729
(S'well'
p1730
g91
F0.741
tp1731
a(S'you'
p1732
g12
F0.999
tp1733
a(S'still'
p1734
g6
F0.9933
tp1735
a(S'got'
p1736
g15
F0.9965
tp1737
a(S'to'
p1738
g35
F0.9508
tp1739
a(S'eat'
p1740
g15
F0.9913
tp1741
asI161
(lp1742
(S'see'
p1743
g15
F0.8335
tp1744
asI162
(lp1745
(S'xxx'
p1746
g3
F0.6914
tp1747
a(S'we'
p1748
g12
F0.9962
tp1749
a(S'have'
p1750
g15
F0.9997
tp1751
a(S'for'
p1752
g35
F0.9985
tp1753
a(S'dessert'
p1754
g63
F0.9234
tp1755
a(S'xxx'
p1756
g3
F0.7913
tp1757
asI163
(lp1758
(S'one'
p1759
g535
F0.9578
tp1760
a(S'piece'
p1761
g63
F0.9891
tp1762
asI164
(lp1763
(S'mhm'
p1764
g91
F0.9747
tp1765
asI165
(lp1766
(S'what'
p1767
g12
F0.949
tp1768
asI166
(lp1769
(S'apple'
p1770
g108
F0.7763
tp1771
a(S'pie'
p1772
g63
F0.937
tp1773
asI167
(lp1774
(S'oh'
p1775
g91
F0.9988
tp1776
asI168
(lp1777
(S'with'
p1778
g35
F0.9942
tp1779
a(S'that'
p1780
g55
F0.7165
tp1781
a(S'crummy'
p1782
g9
F0.996
tp1783
a(S'stuff'
p1784
g63
F0.998
tp1785
asI169
(lp1786
(S'yeah'
p1787
g91
F0.9988
tp1788
asI170
(lp1789
(S'chuckles'
p1790
g15
F0.9245
tp1791
a(S'crummy'
p1792
g9
F0.9992
tp1793
a(S'stuff'
p1794
g63
F0.9984
tp1795
asI171
(lp1796
(S'can'
p1797
g15
F0.9946
tp1798
a(S'we'
p1799
g12
F0.9879
tp1800
a(S'eat'
p1801
g15
F0.9995
tp1802
a(S'the'
p1803
g55
F0.9997
tp1804
a(S'other'
p1805
g9
F0.9963
tp1806
a(S'one'
p1807
g535
F0.9622
tp1808
a(S'there'
p1809
g6
F0.6897
tp1810
asI172
(lp1811
(S'the'
p1812
g55
F0.9969
tp1813
a(S'cherry'
p1814
g9
F0.9914
tp1815
a(S'one'
p1816
g535
F0.6826
tp1817
asI173
(lp1818
(S'no'
p1819
g91
F0.6532
tp1820
a(g58
g12
F0.9608
tp1821
a(S'told'
p1822
g15
F1.0
tp1823
a(S'you'
p1824
g12
F0.9975
tp1825
a(S'what'
p1826
g12
F0.912
tp1827
a(S'happened'
p1828
g15
F0.9944
tp1829
asI174
(lp1830
(S'what'
p1831
g12
F0.949
tp1832
asI175
(lp1833
(S'oh'
p1834
g91
F0.9978
tp1835
a(S'that'
p1836
g12
F0.8874
tp1837
a(S'was'
p1838
g15
F0.9997
tp1839
a(S'the'
p1840
g55
F0.9995
tp1841
a(S'one'
p1842
g535
F0.9318
tp1843
a(S'it'
p1844
g12
F0.9775
tp1845
a(S'happened'
p1846
g15
F0.9995
tp1847
a(S'to'
p1848
g35
F0.9464
tp1849
asI176
(lp1850
(S'what'
p1851
g12
F0.949
tp1852
asI177
(lp1853
(S'what'
p1854
g12
F0.988
tp1855
a(S'happened'
p1856
g15
F0.9972
tp1857
a(S'to'
p1858
g35
F0.986
tp1859
a(S'it'
p1860
g12
F0.9961
tp1861
asI178
(lp1862
(g58
g12
F0.9891
tp1863
a(S'wasted'
p1864
g15
F0.999
tp1865
a(S'it'
p1866
g12
F0.9746
tp1867
asI179
(lp1868
(S'you'
p1869
g12
F0.9971
tp1870
a(S'wasted'
p1871
g15
F0.9957
tp1872
a(S'it'
p1873
g12
F0.9746
tp1874
asI180
(lp1875
(g58
g12
F0.9914
tp1876
a(S'was'
p1877
g15
F0.9999
tp1878
a(S'the'
p1879
g55
F0.9923
tp1880
a(S'only'
p1881
g9
F0.9647
tp1882
a(S'one'
p1883
g535
F0.9537
tp1884
a(S'that'
p1885
g35
F0.6956
tp1886
a(S'got'
p1887
g15
F0.9969
tp1888
a(S'to'
p1889
g35
F0.9542
tp1890
a(S'try'
p1891
g15
F0.9998
tp1892
a(S'it'
p1893
g12
F0.9907
tp1894
a(S'out'
p1895
g87
F0.9423
tp1896
asI181
(lp1897
(g58
g12
F0.9948
tp1898
a(S'did'
p1899
g15
F0.9993
tp1900
asI182
(lp1901
(g58
g12
F0.9793
tp1902
a(S'll'
p1903
g15
F0.7836
tp1904
a(S'eat'
p1905
g15
F0.9906
tp1906
a(S'one'
p1907
g535
F0.7414
tp1908
a(S'bite'
p1909
g63
F0.4865
tp1910
a(S'two'
p1911
g535
F0.8835
tp1912
a(S'bites'
p1913
g63
F0.5766
tp1914
a(S'three'
p1915
g535
F0.5782
tp1916
a(S'bite'
p1917
g63
F0.7333
tp1918
asI183
(lp1919
(g58
g12
F0.9861
tp1920
a(S'will'
p1921
g15
F0.9996
tp1922
a(S'eat'
p1923
g15
F0.9974
tp1924
a(S'three'
p1925
g535
F0.7836
tp1926
a(S'bites'
p1927
g63
F0.6578
tp1928
asI184
(lp1929
(S'right'
p1930
g6
F0.4841
tp1931
a(S'be'
p1932
g15
F0.9584
tp1933
a(S'cause'
p1934
g35
F0.7834
tp1935
a(S'there'
p1936
g6
F0.567
tp1937
a(g77
g19
F0.4833
tp1938
a(S'three'
p1939
g535
F0.8326
tp1940
a(S'left'
p1941
g15
F0.5144
tp1942
a(S'right'
p1943
g6
F0.5488
tp1944
asI185
(lp1945
(S'xxx'
p1946
g3
F0.8437
tp1947
asI186
(lp1948
(S'xxx'
p1949
g3
F0.8437
tp1950
asI187
(lp1951
(S'is'
p1952
g15
F0.9983
tp1953
a(S'this'
p1954
g12
F0.8206
tp1955
a(S'the'
p1956
g55
F0.9973
tp1957
a(S'one'
p1958
g535
F0.9646
tp1959
a(S'that'
p1960
g35
F0.9744
tp1961
a(S'you'
p1962
g12
F0.9997
tp1963
a(S'bought'
p1964
g15
F0.9967
tp1965
asI188
(lp1966
(S'xxx'
p1967
g3
F0.8437
tp1968
asI189
(lp1969
(S'more'
p1970
g9
F0.8137
tp1971
a(S'milk'
p1972
g63
F0.9987
tp1973
asI190
(lp1974
(S'why'
p1975
g6
F0.8527
tp1976
asI191
(lp1977
(S'was'
p1978
g15
F0.9989
tp1979
a(S'it'
p1980
g12
F0.9984
tp1981
a(S'cooked'
p1982
g15
F0.9999
tp1983
a(g422
g55
F0.998
tp1984
a(S'little'
p1985
g9
F0.9233
tp1986
a(S'more'
p1987
g9
F0.6974
tp1988
asI192
(lp1989
(g58
g12
F0.9583
tp1990
a(g58
g12
F0.9325
tp1991
a(S'think'
p1992
g15
F1.0
tp1993
a(S'it'
p1994
g12
F0.992
tp1995
a(g77
g15
F0.6865
tp1996
a(S'thinner'
p1997
g9
F0.9366
tp1998
a(S'then'
p1999
g6
F0.9711
tp2000
asI193
(lp2001
(S'more'
p2002
g9
F0.8137
tp2003
a(S'steak'
p2004
g63
F0.9983
tp2005
asI194
(lp2006
(S'they'
p2007
g12
F0.9104
tp2008
a(S're'
p2009
g15
F0.9528
tp2010
a(S'all'
p2011
g55
F0.5755
tp2012
a(S'cooked'
p2013
g15
F0.8254
tp2014
a(S'xxx'
p2015
g3
F0.8034
tp2016
asI195
(lp2017
(S'more'
p2018
g9
F0.8137
tp2019
a(S'milk'
p2020
g63
F0.9987
tp2021
asI196
(lp2022
(S'oh'
p2023
g91
F0.9988
tp2024
asI197
(lp2025
(S'more'
p2026
g9
F0.8137
tp2027
a(S'milk'
p2028
g63
F0.9989
tp2029
a(S'please'
p2030
g15
F0.9552
tp2031
asI198
(lp2032
(S'good'
p2033
g9
F0.9947
tp2034
a(S'manners'
p2035
g63
F0.9938
tp2036
a(S'chi'
p2037
g19
F0.553
tp2038
asI199
(lp2039
(S'please'
p2040
g15
F0.9425
tp2041
a(S'may'
p2042
g15
F0.9047
tp2043
a(g58
g12
F0.9856
tp2044
a(S'please'
p2045
g15
F0.9978
tp2046
a(S'may'
p2047
g15
F0.8981
tp2048
a(g58
g12
F0.9798
tp2049
a(S'be'
p2050
g15
F0.9997
tp2051
a(S'excused'
p2052
g15
F0.8408
tp2053
asI200
(lp2054
(S'all'
p2055
g55
F0.5789
tp2056
a(S'finished'
p2057
g15
F0.7979
tp2058
asI201
(lp2059
(g58
g12
F0.988
tp2060
a(S'am'
p2061
g15
F0.9952
tp2062
asI202
(lp2063
(S'you'
p2064
g12
F0.9969
tp2065
a(S'can'
p2066
g15
F0.9998
tp2067
a(S'call'
p2068
g15
F0.9994
tp2069
a(S'me'
p2070
g12
F0.9982
tp2071
a(S'when'
p2072
g6
F0.9965
tp2073
a(S'dessert'
p2074
g63
F0.8757
tp2075
a(g77
g19
F0.7371
tp2076
a(S'ready'
p2077
g9
F0.9838
tp2078
a(S'okay'
p2079
g91
F0.8683
tp2080
asI203
(lp2081
(S'okay'
p2082
g91
F0.9857
tp2083
asI204
(lp2084
(S'when'
p2085
g6
F0.9576
tp2086
a(S'everything'
p2087
g63
F0.9177
tp2088
a(S'when'
p2089
g6
F0.9872
tp2090
a(S'um'
p2091
g91
F0.43
tp2092
a(S'everybody'
p2093
g63
F0.9068
tp2094
a(g77
g19
F0.645
tp2095
a(S'things'
p2096
g63
F0.9932
tp2097
a(S'is'
p2098
g15
F0.9993
tp2099
a(S'gone'
p2100
g15
F0.6677
tp2101
a(S'um'
p2102
g91
F0.7338
tp2103
a(S'then'
p2104
g6
F0.9289
tp2105
a(S'dessert'
p2106
g63
F0.8939
tp2107
a(S'will'
p2108
g15
F0.9848
tp2109
a(S'be'
p2110
g15
F0.9979
tp2111
a(g1595
g35
F0.2944
tp2112
a(S'um'
p2113
g91
F0.4063
tp2114
a(S'served'
p2115
g15
F0.9643
tp2116
a(S'right'
p2117
g6
F0.5861
tp2118
asI205
(lp2119
(S'mhm'
p2120
g91
F0.9747
tp2121
asI206
(lp2122
(S'mom'
p2123
g63
F0.7613
tp2124
a(S'xxx'
p2125
g3
F0.3428
tp2126
a(S'after'
p2127
g35
F0.9375
tp2128
a(S'dinner'
p2129
g63
F0.9527
tp2130
a(S'um'
p2131
g91
F0.4607
tp2132
a(S'you'
p2133
g12
F0.9985
tp2134
a(S'can'
p2135
g15
F0.9997
tp2136
a(S'read'
p2137
g15
F0.9997
tp2138
a(S'this'
p2139
g12
F0.927
tp2140
a(S'to'
p2141
g35
F0.9919
tp2142
a(S'me'
p2143
g12
F0.9957
tp2144
a(S'to'
p2145
g35
F0.987
tp2146
a(S'me'
p2147
g12
F0.9988
tp2148
a(S'and'
p2149
g137
F0.9877
tp2150
a(S'chi'
p2151
g108
F0.3852
tp2152
a(S'okay'
p2153
g91
F0.7951
tp2154
a(S'so'
p2155
g6
F0.6616
tp2156
a(S'when'
p2157
g6
F0.9969
tp2158
a(S'you'
p2159
g12
F0.9924
tp2160
a(S're'
p2161
g15
F0.7974
tp2162
a(S'done'
p2163
g15
F0.928
tp2164
a(S'can'
p2165
g15
F0.9981
tp2166
a(S'you'
p2167
g12
F0.9979
tp2168
a(S'xxx'
p2169
g3
F0.5352
tp2170
asI207
(lp2171
(S'okay'
p2172
g91
F0.9804
tp2173
a(S'that'
p2174
g55
F0.4911
tp2175
a(S'new'
p2176
g9
F0.9951
tp2177
a(S'book'
p2178
g63
F0.9787
tp2179
a(S'we'
p2180
g12
F0.9886
tp2181
a(S'bought'
p2182
g15
F0.9979
tp2183
asI208
(lp2184
(S'sis'
p2185
g63
F0.937
tp2186
a(g58
g12
F0.9654
tp2187
a(S'know'
p2188
g15
F0.9999
tp2189
a(S'the'
p2190
g55
F0.9993
tp2191
a(S'name'
p2192
g63
F0.9996
tp2193
a(S'of'
p2194
g35
F0.9991
tp2195
a(S'it'
p2196
g12
F0.9964
tp2197
asI209
(lp2198
(S'what'
p2199
g12
F0.949
tp2200
asI210
(lp2201
(S'peekaboo'
p2202
g108
F0.6389
tp2203
asI211
(lp2204
(S'nuhhuh'
p2205
g91
F0.533
tp2206
asI212
(lp2207
(S'uhhuh'
p2208
g91
F0.9892
tp2209
asI213
(lp2210
(S'right'
p2211
g9
F0.3485
tp2212
a(S'mummy'
p2213
g63
F0.9729
tp2214
asI214
(lp2215
(S'xxx'
p2216
g3
F0.8437
tp2217
asI215
(lp2218
(S'no'
p2219
g91
F0.694
tp2220
a(S'chi'
p2221
g63
F0.4271
tp2222
a(S'it'
p2223
g12
F0.9873
tp2224
a(g77
g19
F0.7114
tp2225
a(S'uh'
p2226
g91
F0.9649
tp2227
asI216
(lp2228
(S'yoohoo'
p2229
g9
F0.4368
tp2230
a(S'little'
p2231
g9
F0.9974
tp2232
a(S'rabbit'
p2233
g63
F0.9973
tp2234
asI217
(lp2235
(S'it'
p2236
g12
F0.9888
tp2237
a(g77
g15
F0.7285
tp2238
a(g422
g55
F0.9925
tp2239
a(S'peekaboo'
p2240
g108
F0.6292
tp2241
a(S'book'
p2242
g63
F0.9373
tp2243
asI218
(lp2244
(S'but'
p2245
g137
F0.9841
tp2246
a(S'the'
p2247
g55
F0.9993
tp2248
a(S'name'
p2249
g63
F0.9997
tp2250
a(S'of'
p2251
g35
F0.9991
tp2252
a(S'it'
p2253
g12
F0.9952
tp2254
a(S'the'
p2255
g55
F0.9995
tp2256
a(S'name'
p2257
g63
F0.9997
tp2258
a(S'of'
p2259
g35
F0.999
tp2260
a(S'it'
p2261
g12
F0.9993
tp2262
a(S'is'
p2263
g15
F0.9994
tp2264
a(S'yoohoo'
p2265
g9
F0.8901
tp2266
a(S'little'
p2267
g9
F0.9941
tp2268
a(S'rabbit'
p2269
g63
F0.9954
tp2270
asI219
(lp2271
(S'yoohoo'
p2272
g9
F0.6548
tp2273
a(S'rabbit'
p2274
g63
F0.9965
tp2275
asI220
(lp2276
(S'yoohoo'
p2277
g91
F0.4817
tp2278
a(S'tootaloo'
p2279
g63
F0.373
tp2280
a(S'wp'
p2281
g63
F0.7357
tp2282
asI221
(lp2283
(S'xxx'
p2284
g3
F0.8437
tp2285
asI222
(lp2286
(S'grunts'
p2287
g15
F0.6753
tp2288
asI223
(lp2289
(g534
g535
F0.9517
tp2290
a(S'laughs'
p2291
g15
F0.7753
tp2292
a(S'quietly'
p2293
g6
F0.9556
tp2294
asI224
(lp2295
(S'xxx'
p2296
g3
F0.8437
tp2297
asI225
(lp2298
(S'this'
p2299
g12
F0.9526
tp2300
a(S'is'
p2301
g15
F0.9991
tp2302
a(S'this'
p2303
g12
F0.9786
tp2304
a(S'is'
p2305
g15
F0.999
tp2306
a(g422
g55
F0.9982
tp2307
a(S'meat'
p2308
g63
F0.9851
tp2309
a(S'loaf'
p2310
g63
F0.9904
tp2311
asI226
(lp2312
(S'still'
p2313
g6
F0.991
tp2314
a(S'isn'
p2315
g19
F0.5407
tp2316
a(g278
g19
F0.7732
tp2317
a(S'cooked'
p2318
g15
F0.9913
tp2319
a(S'enough'
p2320
g6
F0.7044
tp2321
asI227
(lp2322
(g58
g12
F0.9708
tp2323
a(S'like'
p2324
g15
F0.8118
tp2325
a(S'my'
p2326
g55
F0.99
tp2327
a(S'summer'
p2328
g63
F0.9966
tp2329
a(S'squash'
p2330
g63
F0.9283
tp2331
a(S'mushy'
p2332
g9
F0.8642
tp2333
asI228
(lp2334
(S'not'
p2335
g6
F0.9887
tp2336
a(S'me'
p2337
g12
F0.9955
tp2338
a(g58
g12
F0.9772
tp2339
a(S'think'
p2340
g15
F0.9999
tp2341
a(S'that'
p2342
g12
F0.6338
tp2343
a(g77
g19
F0.4051
tp2344
a(S'perfect'
p2345
g9
F0.9985
tp2346
asI229
(lp2347
(S'mm'
p2348
g91
F0.627
tp2349
asI230
(lp2350
(g58
g12
F0.9708
tp2351
a(S'like'
p2352
g15
F0.7342
tp2353
a(S'these'
p2354
g55
F0.969
tp2355
a(S'pieces'
p2356
g63
F0.9967
tp2357
a(S'here'
p2358
g6
F0.9734
tp2359
asI231
(lp2360
(S'yeah'
p2361
g91
F0.995
tp2362
a(S'me'
p2363
g12
F0.9982
tp2364
a(S'too'
p2365
g6
F0.9879
tp2366
asI232
(lp2367
(S'seedless'
p2368
g9
F0.9429
tp2369
a(S'ones'
p2370
g63
F0.984
tp2371
asI233
(lp2372
(S'of'
p2373
g35
F0.9572
tp2374
a(S'course'
p2375
g63
F0.9766
tp2376
asI234
(lp2377
(S'here'
p2378
g6
F0.9382
tp2379
a(g77
g19
F0.7745
tp2380
a(g422
g55
F0.9808
tp2381
a(S'seedless'
p2382
g9
F0.9901
tp2383
a(S'one'
p2384
g535
F0.9121
tp2385
a(S'over'
p2386
g35
F0.9284
tp2387
a(S'here'
p2388
g6
F0.9582
tp2389
asI235
(lp2390
(S'it'
p2391
g12
F0.9888
tp2392
a(g77
g15
F0.7285
tp2393
a(g422
g55
F0.9954
tp2394
a(S'lot'
p2395
g63
F0.9809
tp2396
a(S'of'
p2397
g35
F0.9959
tp2398
a(S'seeds'
p2399
g63
F0.9718
tp2400
a(g491
g35
F0.8884
tp2401
a(g493
g19
F0.2784
tp2402
a(S'seeds'
p2403
g63
F0.9568
tp2404
a(S'in'
p2405
g35
F0.9977
tp2406
a(S'it'
p2407
g12
F0.9957
tp2408
asI236
(lp2409
(S'xxx'
p2410
g3
F0.8437
tp2411
asI237
(lp2412
(S'no'
p2413
g91
F0.6532
tp2414
a(g58
g12
F0.9141
tp2415
a(S'like'
p2416
g15
F0.7277
tp2417
a(S'the'
p2418
g55
F0.9994
tp2419
a(S'ones'
p2420
g63
F0.9894
tp2421
a(S'without'
p2422
g35
F0.9976
tp2423
a(S'seeds'
p2424
g63
F0.9811
tp2425
a(S'chi'
p2426
g19
F0.6381
tp2427
asI238
(lp2428
(S'seedless'
p2429
g9
F0.6811
tp2430
asI239
(lp2431
(S'see'
p2432
g15
F0.8335
tp2433
asI240
(lp2434
(S'xxx'
p2435
g3
F0.8437
tp2436
asI241
(lp2437
(S'mm'
p2438
g91
F0.627
tp2439
asI242
(lp2440
(S'cliff'
p2441
g108
F0.7331
tp2442
a(S'here'
p2443
g6
F0.9616
tp2444
a(g77
g19
F0.7825
tp2445
a(g422
g55
F0.9945
tp2446
a(S'big'
p2447
g9
F0.9963
tp2448
a(S'one'
p2449
g535
F0.9571
tp2450
a(S'over'
p2451
g35
F0.9294
tp2452
a(S'here'
p2453
g6
F0.9485
tp2454
asI243
(lp2455
(S'xxx'
p2456
g3
F0.8437
tp2457
asI244
(lp2458
(S'you'
p2459
g12
F0.997
tp2460
a(S'want'
p2461
g15
F0.9999
tp2462
a(S'it'
p2463
g12
F0.9905
tp2464
asI245
(lp2465
(S'want'
p2466
g15
F0.9993
tp2467
a(S'me'
p2468
g12
F0.9985
tp2469
a(S'to'
p2470
g35
F0.9856
tp2471
a(S'get'
p2472
g15
F1.0
tp2473
a(S'it'
p2474
g12
F0.9947
tp2475
a(S'for'
p2476
g35
F0.9992
tp2477
a(S'you'
p2478
g12
F0.9988
tp2479
asI246
(lp2480
(S'no'
p2481
g91
F0.876
tp2482
a(S'for'
p2483
g35
F0.9992
tp2484
a(S'you'
p2485
g12
F0.9992
tp2486
asI247
(lp2487
(S'you'
p2488
g12
F0.9968
tp2489
a(S'wanna'
p2490
g15
F0.9979
tp2491
a(S'try'
p2492
g15
F0.9993
tp2493
a(g422
g55
F0.9966
tp2494
a(S'piece'
p2495
g63
F0.9989
tp2496
a(S'of'
p2497
g35
F0.9962
tp2498
a(S'squash'
p2499
g63
F0.7512
tp2500
a(S'chi'
p2501
g19
F0.5323
tp2502
asI248
(lp2503
(S'yeah'
p2504
g91
F0.9988
tp2505
asI249
(lp2506
(S'wicked'
p2507
g9
F0.973
tp2508
a(S'good'
p2509
g9
F0.987
tp2510
asI250
(lp2511
(g422
g55
F0.9953
tp2512
a(S'little'
p2513
g9
F0.9987
tp2514
a(S'piece'
p2515
g63
F0.9973
tp2516
asI251
(lp2517
(S'this'
p2518
g12
F0.9526
tp2519
a(S'is'
p2520
g15
F0.999
tp2521
a(g422
g55
F0.9963
tp2522
a(S'good'
p2523
g9
F0.9972
tp2524
a(S'batch'
p2525
g63
F0.9917
tp2526
a(S'xxx'
p2527
g3
F0.865
tp2528
asI252
(lp2529
(S'okay'
p2530
g91
F0.9857
tp2531
asI253
(lp2532
(S'it'
p2533
g12
F0.9888
tp2534
a(g77
g15
F0.5736
tp2535
a(S'got'
p2536
g15
F0.9948
tp2537
a(S'that'
p2538
g55
F0.8552
tp2539
a(S'rich'
p2540
g9
F0.948
tp2541
a(S'taste'
p2542
g63
F0.9307
tp2543
a(S'xxx'
p2544
g3
F0.8172
tp2545
asI254
(lp2546
(S'mm'
p2547
g15
F0.2233
tp2548
a(S'it'
p2549
g12
F0.9973
tp2550
a(S'was'
p2551
g15
F0.9969
tp2552
a(S'very'
p2553
g6
F0.9987
tp2554
a(S'good'
p2555
g9
F0.9996
tp2556
a(S'very'
p2557
g6
F0.8711
tp2558
a(S'it'
p2559
g12
F0.997
tp2560
a(S'looked'
p2561
g15
F0.9977
tp2562
a(S'good'
p2563
g9
F0.9926
tp2564
a(S'and'
p2565
g137
F0.999
tp2566
a(S'it'
p2567
g12
F0.9986
tp2568
a(S'was'
p2569
g15
F0.9986
tp2570
a(S'fresh'
p2571
g9
F0.9871
tp2572
asI255
(lp2573
(S'very'
p2574
g6
F0.9895
tp2575
a(S'fresh'
p2576
g9
F0.9998
tp2577
asI256
(lp2578
(S'almost'
p2579
g6
F0.9875
tp2580
a(S'said'
p2581
g15
F0.9958
tp2582
a(S'cut'
p2583
g15
F0.5402
tp2584
a(S'this'
p2585
g55
F0.9716
tp2586
a(S'one'
p2587
g535
F0.8643
tp2588
a(S'back'
p2589
g6
F0.4561
tp2590
asI257
(lp2591
(S'you'
p2592
g12
F0.998
tp2593
a(S'want'
p2594
g15
F1.0
tp2595
a(S'me'
p2596
g12
F0.9983
tp2597
a(S'to'
p2598
g35
F0.9781
tp2599
a(S'cut'
p2600
g15
F0.993
tp2601
a(S'it'
p2602
g12
F0.9879
tp2603
a(S'in'
p2604
g35
F0.9548
tp2605
a(S'half'
p2606
g63
F0.5804
tp2607
asI258
(lp2608
(S'yucky'
p2609
g9
F0.5968
tp2610
asI259
(lp2611
(S'let'
p2612
g15
F0.9975
tp2613
a(S'me'
p2614
g12
F0.9995
tp2615
a(S'cut'
p2616
g15
F0.9746
tp2617
a(S'it'
p2618
g12
F0.9866
tp2619
a(S'in'
p2620
g35
F0.8954
tp2621
a(S'half'
p2622
g63
F0.6208
tp2623
asI260
(lp2624
(S'it'
p2625
g12
F0.9858
tp2626
a(g77
g15
F0.5522
tp2627
a(S'yucky'
p2628
g9
F0.9001
tp2629
asI261
(lp2630
(S'it'
p2631
g12
F0.9888
tp2632
a(g77
g15
F0.4614
tp2633
a(S'still'
p2634
g6
F0.9968
tp2635
a(S'very'
p2636
g6
F0.9964
tp2637
a(S'hot'
p2638
g9
F0.9968
tp2639
a(S'too'
p2640
g6
F0.9455
tp2641
asI262
(lp2642
(S'there'
p2643
g6
F0.4143
tp2644
asI263
(lp2645
(S'now'
p2646
g6
F0.9941
tp2647
a(S'try'
p2648
g15
F0.9973
tp2649
a(g422
g55
F0.9838
tp2650
a(S'bite'
p2651
g63
F0.9819
tp2652
asI264
(lp2653
(S'take'
p2654
g15
F0.9944
tp2655
a(g422
g55
F0.9989
tp2656
a(S'real'
p2657
g9
F0.8037
tp2658
a(S'bite'
p2659
g63
F0.9252
tp2660
a(S'don'
p2661
g63
F0.6603
tp2662
a(g278
g63
F0.3759
tp2663
a(S'just'
p2664
g6
F0.9995
tp2665
a(S'stick'
p2666
g15
F0.9992
tp2667
a(S'it'
p2668
g12
F0.986
tp2669
a(S'on'
p2670
g35
F0.9728
tp2671
a(S'your'
p2672
g55
F0.9967
tp2673
a(S'lips'
p2674
g63
F0.9976
tp2675
asI265
(lp2676
(S'yucky'
p2677
g9
F0.5968
tp2678
asI266
(lp2679
(S'are'
p2680
g15
F0.9964
tp2681
a(S'you'
p2682
g12
F0.9989
tp2683
a(S'kiddin'
p2684
g15
F0.9882
tp2685
a(g120
g15
F0.5552
tp2686
a(S'me'
p2687
g12
F0.9986
tp2688
asI267
(lp2689
(g58
g12
F0.9827
tp2690
a(S'love'
p2691
g15
F0.9931
tp2692
a(S'squash'
p2693
g63
F0.8754
tp2694
asI268
(lp2695
(S'mm'
p2696
g91
F0.627
tp2697
asI269
(lp2698
(S'is'
p2699
g15
F0.9993
tp2700
a(S'it'
p2701
g12
F0.9903
tp2702
a(S'good'
p2703
g9
F0.9699
tp2704
a(S'now'
p2705
g6
F0.9858
tp2706
asI270
(lp2707
(S'no'
p2708
g91
F0.7608
tp2709
a(S'it'
p2710
g12
F0.9844
tp2711
a(g77
g15
F0.5618
tp2712
a(S'yucky'
p2713
g9
F0.9266
tp2714
asI271
(lp2715
(S'laughs'
p2716
g15
F0.9102
tp2717
asI272
(lp2718
(S'such'
p2719
g787
F0.5183
tp2720
a(g422
g55
F0.996
tp2721
a(S'good'
p2722
g9
F0.9982
tp2723
a(S'girl'
p2724
g63
F0.9993
tp2725
a(S'though'
p2726
g35
F0.9351
tp2727
asI273
(lp2728
(S'look'
p2729
g15
F0.9135
tp2730
a(S'at'
p2731
g35
F0.9987
tp2732
a(S'her'
p2733
g12
F0.8323
tp2734
a(S'trying'
p2735
g15
F0.9997
tp2736
a(S'it'
p2737
g12
F0.9825
tp2738
asI274
(lp2739
(g58
g12
F0.9912
tp2740
a(S'know'
p2741
g15
F0.9989
tp2742
asI275
(lp2743
(S'because'
p2744
g35
F0.9985
tp2745
a(S'she'
p2746
g12
F0.9993
tp2747
a(S'loves'
p2748
g15
F0.9984
tp2749
a(S'food'
p2750
g63
F0.9679
tp2751
a(S'that'
p2752
g35
F0.906
tp2753
a(g77
g19
F0.5815
tp2754
a(S'why'
p2755
g6
F0.9296
tp2756
asI276
(lp2757
(S'yeah'
p2758
g91
F0.9988
tp2759
asI277
(lp2760
(S'she'
p2761
g12
F0.9975
tp2762
a(S'noticed'
p2763
g15
F0.9998
tp2764
a(S'you'
p2765
g12
F0.9991
tp2766
a(S'get'
p2767
g15
F0.9995
tp2768
a(S'older'
p2769
g9
F0.9795
tp2770
a(S'you'
p2771
g12
F0.998
tp2772
a(S'know'
p2773
g15
F0.9998
tp2774
a(S'you'
p2775
g12
F0.9991
tp2776
a(S'get'
p2777
g15
F0.9999
tp2778
a(S'the'
p2779
g55
F0.9988
tp2780
a(S'change'
p2781
g63
F0.9938
tp2782
a(S'in'
p2783
g35
F0.9903
tp2784
a(S'taste'
p2785
g63
F0.7011
tp2786
a(S'different'
p2787
g9
F0.9885
tp2788
a(S'foods'
p2789
g63
F0.9969
tp2790
a(S'that'
p2791
g35
F0.8944
tp2792
a(S'sometimes'
p2793
g6
F0.9392
tp2794
a(S'you'
p2795
g12
F0.9996
tp2796
a(S'thought'
p2797
g15
F0.9982
tp2798
a(S'wasn'
p2799
g15
F0.4548
tp2800
a(g278
g19
F0.2795
tp2801
a(S'good'
p2802
g9
F0.9889
tp2803
asI278
(lp2804
(S'it'
p2805
g12
F0.9883
tp2806
a(S'changes'
p2807
g15
F0.9615
tp2808
a(S'and'
p2809
g137
F0.9988
tp2810
a(S'it'
p2811
g12
F0.9966
tp2812
a(g77
g15
F0.5919
tp2813
a(S'really'
p2814
g6
F0.9997
tp2815
a(S'good'
p2816
g9
F0.9986
tp2817
asI279
(lp2818
(S'when'
p2819
g6
F0.9811
tp2820
a(g58
g12
F0.9941
tp2821
a(S'was'
p2822
g15
F0.9999
tp2823
a(g422
g55
F0.9971
tp2824
a(S'l'
p2825
g63
F0.6947
tp2826
a(S'little'
p2827
g9
F0.9803
tp2828
a(S'kid'
p2829
g63
F0.9904
tp2830
a(g58
g12
F0.9062
tp2831
a(S'didn'
p2832
g15
F0.9913
tp2833
a(g278
g15
F0.8905
tp2834
a(S'like'
p2835
g35
F0.86
tp2836
a(S'potatoes'
p2837
g63
F0.994
tp2838
a(S'now'
p2839
g6
F0.9922
tp2840
a(g58
g12
F0.991
tp2841
a(S'love'
p2842
g15
F0.9933
tp2843
a(S'potatoes'
p2844
g63
F0.9724
tp2845
asI280
(lp2846
(S'you'
p2847
g12
F0.9911
tp2848
a(S'didn'
p2849
g15
F0.9886
tp2850
a(g278
g15
F0.8834
tp2851
a(S'like'
p2852
g35
F0.8897
tp2853
a(S'potatoes'
p2854
g63
F0.9917
tp2855
asI281
(lp2856
(g58
g12
F0.9896
tp2857
a(S'hated'
p2858
g15
F0.9983
tp2859
a(S'potatoes'
p2860
g63
F0.9807
tp2861
asI282
(lp2862
(S'wow'
p2863
g91
F0.9963
tp2864
asI283
(lp2865
(S'mashed'
p2866
g9
F0.6807
tp2867
a(S'potatoes'
p2868
g63
F0.9991
tp2869
a(S'baked'
p2870
g15
F0.8909
tp2871
a(S'potatoes'
p2872
g63
F0.9935
tp2873
a(S'baked'
p2874
g15
F0.9231
tp2875
a(S'especially'
p2876
g6
F0.9983
tp2877
a(S'really'
p2878
g6
F0.9978
tp2879
a(S'hated'
p2880
g15
F0.9982
tp2881
a(S'those'
p2882
g12
F0.6546
tp2883
asI284
(lp2884
(S'oh'
p2885
g91
F0.9961
tp2886
a(S'wow'
p2887
g91
F0.9988
tp2888
a(g58
g12
F0.988
tp2889
a(S'didn'
p2890
g15
F0.9911
tp2891
a(g278
g15
F0.8905
tp2892
a(S'like'
p2893
g35
F0.86
tp2894
a(S'carrots'
p2895
g63
F0.9766
tp2896
a(S'and'
p2897
g137
F0.9967
tp2898
a(S'now'
p2899
g6
F0.9976
tp2900
a(g58
g12
F0.9815
tp2901
a(S'love'
p2902
g15
F0.99
tp2903
a(S'carrots'
p2904
g63
F0.948
tp2905
asI285
(lp2906
(S'sis'
p2907
g63
F0.7922
tp2908
a(S'when'
p2909
g6
F0.9855
tp2910
a(S'sis'
p2911
g63
F0.8669
tp2912
a(S'was'
p2913
g15
F0.9977
tp2914
a(g422
g55
F0.9995
tp2915
a(S'baby'
p2916
g63
F0.996
tp2917
a(S'um'
p2918
g91
F0.6572
tp2919
a(S'she'
p2920
g12
F0.9964
tp2921
a(S'picked'
p2922
g15
F0.9999
tp2923
a(S'up'
p2924
g87
F0.9068
tp2925
a(S'one'
p2926
g535
F0.9348
tp2927
a(S'carrot'
p2928
g63
F0.997
tp2929
a(S'then'
p2930
g6
F0.6504
tp2931
a(S'the'
p2932
g55
F0.9983
tp2933
a(S'other'
p2934
g9
F0.9732
tp2935
a(S'carrot'
p2936
g63
F0.9975
tp2937
a(S'be'
p2938
g15
F0.971
tp2939
a(S'cause'
p2940
g35
F0.9672
tp2941
a(S'she'
p2942
g12
F0.9988
tp2943
a(S'liked'
p2944
g15
F0.9986
tp2945
a(S'carrots'
p2946
g63
F0.965
tp2947
a(S'when'
p2948
g6
F0.9366
tp2949
a(S'she'
p2950
g12
F0.9977
tp2951
a(S'was'
p2952
g15
F0.9997
tp2953
a(g422
g55
F0.9996
tp2954
a(S'baby'
p2955
g63
F0.9978
tp2956
asI286
(lp2957
(S'mm'
p2958
g91
F0.627
tp2959
asI287
(lp2960
(S'didn'
p2961
g15
F0.598
tp2962
a(g278
g15
F0.7912
tp2963
a(S'she'
p2964
g12
F0.9616
tp2965
a(S'mom'
p2966
g63
F0.8931
tp2967
asI288
(lp2968
(S'yeah'
p2969
g91
F0.9988
tp2970
asI289
(lp2971
(S'the'
p2972
g55
F0.9967
tp2973
a(S'most'
p2974
g6
F0.7809
tp2975
a(S'important'
p2976
g9
F0.9991
tp2977
a(S'thing'
p2978
g63
F0.9988
tp2979
a(S'though'
p2980
g35
F0.8582
tp2981
a(S'about'
p2982
g35
F0.9948
tp2983
a(S'your'
p2984
g55
F0.7824
tp2985
a(S'eating'
p2986
g15
F0.547
tp2987
asI290
(lp2988
(S'can'
p2989
g15
F0.9755
tp2990
a(g58
g12
F0.979
tp2991
a(S'be'
p2992
g15
F0.9998
tp2993
a(S'excused'
p2994
g15
F0.8138
tp2995
asI291
(lp2996
(S'is'
p2997
g15
F0.9984
tp2998
a(S'to'
p2999
g35
F0.9773
tp3000
a(S'keep'
p3001
g15
F0.9997
tp3002
a(S'your'
p3003
g55
F0.9959
tp3004
a(S'mouth'
p3005
g63
F0.9997
tp3006
a(S'closed'
p3007
g15
F0.5991
tp3008
asI292
(lp3009
(S'mom'
p3010
g63
F0.7188
tp3011
asI293
(lp3012
(S'mm'
p3013
g91
F0.627
tp3014
asI294
(lp3015
(S'can'
p3016
g15
F0.9755
tp3017
a(g58
g12
F0.979
tp3018
a(S'be'
p3019
g15
F0.9998
tp3020
a(S'excused'
p3021
g15
F0.8138
tp3022
asI295
(lp3023
(S'how'
p3024
g6
F0.9627
tp3025
a(S'was'
p3026
g15
F0.9974
tp3027
a(S'the'
p3028
g55
F0.9997
tp3029
a(S'meat'
p3030
g63
F0.973
tp3031
a(S'loaf'
p3032
g63
F0.9859
tp3033
asI296
(lp3034
(S'it'
p3035
g12
F0.9888
tp3036
a(g77
g15
F0.585
tp3037
a(S'not'
p3038
g6
F0.9817
tp3039
a(S'meat'
p3040
g63
F0.9575
tp3041
a(S'loaf'
p3042
g63
F0.9859
tp3043
asI297
(lp3044
(S'we'
p3045
g12
F0.9942
tp3046
a(S'didn'
p3047
g15
F0.9879
tp3048
a(g278
g15
F0.7501
tp3049
a(S'have'
p3050
g15
F0.9859
tp3051
a(S'meat'
p3052
g63
F0.9687
tp3053
a(S'loaf'
p3054
g63
F0.9933
tp3055
a(S'again'
p3056
g6
F0.9743
tp3057
asI298
(lp3058
(S'no'
p3059
g91
F0.9253
tp3060
asI299
(lp3061
(S'what'
p3062
g12
F0.9965
tp3063
a(S'did'
p3064
g15
F0.9952
tp3065
a(S'we'
p3066
g12
F0.9992
tp3067
a(S'have'
p3068
g15
F0.9981
tp3069
asI300
(lp3070
(S'steak'
p3071
g63
F0.9798
tp3072
asI301
(lp3073
(S'dessert'
p3074
g63
F0.9387
tp3075
a(S'for'
p3076
g35
F0.9999
tp3077
a(S'me'
p3078
g12
F0.999
tp3079
asI302
(lp3080
(S'yeah'
p3081
g91
F0.9988
tp3082
asI303
(lp3083
(S'when'
p3084
g6
F0.9187
tp3085
a(S'are'
p3086
g15
F0.9867
tp3087
a(S'when'
p3088
g6
F0.9456
tp3089
a(S'are'
p3090
g15
F0.994
tp3091
a(S'you'
p3092
g12
F0.9995
tp3093
a(S'gonna'
p3094
g15
F0.9998
tp3095
a(S'do'
p3096
g15
F0.9998
tp3097
a(S'that'
p3098
g12
F0.881
tp3099
asI304
(lp3100
(g58
g12
F0.9817
tp3101
a(S'just'
p3102
g6
F0.9988
tp3103
a(S'did'
p3104
g15
F0.9971
tp3105
asI305
(lp3106
(S'no'
p3107
g91
F0.8323
tp3108
a(S'when'
p3109
g6
F0.9375
tp3110
a(S'are'
p3111
g15
F0.9959
tp3112
a(S'you'
p3113
g12
F0.9994
tp3114
a(S'gonna'
p3115
g15
F0.9998
tp3116
a(S'call'
p3117
g15
F0.9993
tp3118
a(S'me'
p3119
g12
F0.998
tp3120
asI306
(lp3121
(S'yes'
p3122
g91
F0.9958
tp3123
asI307
(lp3124
(g58
g12
F0.9756
tp3125
a(S'didn'
p3126
g15
F0.9919
tp3127
a(g278
g15
F0.7723
tp3128
a(S'hear'
p3129
g15
F0.9847
tp3130
a(S'it'
p3131
g12
F0.9784
tp3132
asI308
(lp3133
(S'yeah'
p3134
g91
F0.9945
tp3135
a(S'laughs'
p3136
g15
F0.9273
tp3137
asI309
(lp3138
(S'the'
p3139
g55
F0.999
tp3140
a(S'whole'
p3141
g9
F0.9869
tp3142
a(S'conversation'
p3143
g63
F0.9997
tp3144
asI310
(lp3145
(S'yes'
p3146
g91
F0.9958
tp3147
asI311
(lp3148
(S'you'
p3149
g12
F0.9813
tp3150
a(S've'
p3151
g15
F0.7656
tp3152
a(S'been'
p3153
g15
F0.9927
tp3154
a(S'taping'
p3155
g15
F0.9994
tp3156
a(S'us'
p3157
g12
F0.9646
tp3158
asI312
(lp3159
(g58
g12
F0.9769
tp3160
a(S'didn'
p3161
g15
F0.99
tp3162
a(g278
g15
F0.5549
tp3163
asI313
(lp3164
(S'oh'
p3165
g91
F0.9903
tp3166
a(S'my'
p3167
g55
F0.9084
tp3168
a(S'god'
p3169
g63
F0.4925
tp3170
a(S'did'
p3171
g15
F0.9768
tp3172
a(g58
g12
F0.9967
tp3173
a(S'say'
p3174
g15
F0.9996
tp3175
a(S'anything'
p3176
g63
F0.9801
tp3177
a(S'incriminating'
p3178
g15
F0.9403
tp3179
asI314
(lp3180
(S'yeah'
p3181
g91
F0.9922
tp3182
a(S'you'
p3183
g12
F0.9968
tp3184
a(S'were'
p3185
g15
F0.9987
tp3186
a(S'swearing'
p3187
g15
F0.9761
tp3188
asI315
(lp3189
(g58
g12
F0.9896
tp3190
a(S'swore'
p3191
g15
F0.9991
tp3192
asI316
(lp3193
(g58
g12
F0.9888
tp3194
a(S'tried'
p3195
g15
F0.9987
tp3196
a(S'to'
p3197
g35
F0.9934
tp3198
a(S'get'
p3199
g15
F1.0
tp3200
a(S'you'
p3201
g12
F0.9996
tp3202
a(S'not'
p3203
g6
F0.9974
tp3204
a(S'to'
p3205
g35
F0.9726
tp3206
a(S'do'
p3207
g15
F0.9999
tp3208
a(S'that'
p3209
g12
F0.8477
tp3210
asI317
(lp3211
(S'chi'
p3212
g108
F0.4944
tp3213
a(S'never'
p3214
g6
F0.8623
tp3215
a(S'hears'
p3216
g15
F0.9999
tp3217
a(S'me'
p3218
g12
F0.9988
tp3219
a(S'though'
p3220
g6
F0.6173
tp3221
asI318
(lp3222
(S'laughs'
p3223
g15
F0.9102
tp3224
asI319
(lp3225
(g58
g12
F0.9845
tp3226
a(S'usually'
p3227
g6
F0.9983
tp3228
a(S'never'
p3229
g6
F0.9978
tp3230
a(S'talk'
p3231
g15
F0.9945
tp3232
a(S'like'
p3233
g35
F0.8917
tp3234
a(S'that'
p3235
g12
F0.9267
tp3236
asI320
(lp3237
(S'laughing'
p3238
g15
F0.9384
tp3239
asI321
(lp3240
(S'can'
p3241
g15
F0.9755
tp3242
a(g58
g12
F0.9883
tp3243
a(S'can'
p3244
g15
F0.9997
tp3245
a(g58
g12
F0.9822
tp3246
a(S'see'
p3247
g15
F0.9987
tp3248
asI322
(lp3249
(S'can'
p3250
g15
F0.9755
tp3251
a(g58
g12
F0.9777
tp3252
a(S'see'
p3253
g15
F0.9997
tp3254
a(S'if'
p3255
g35
F0.9991
tp3256
a(S'he'
p3257
g12
F0.9994
tp3258
a(S'did'
p3259
g15
F0.9998
tp3260
a(S'that'
p3261
g12
F0.7045
tp3262
asI323
(lp3263
(S'we'
p3264
g12
F0.9973
tp3265
a(S'need'
p3266
g15
F0.9995
tp3267
a(g422
g55
F0.9901
tp3268
a(S'video'
p3269
g63
F0.9963
tp3270
a(S'camera'
p3271
g63
F0.9631
tp3272
a(S'not'
p3273
g6
F0.9842
tp3274
a(g422
g55
F0.9941
tp3275
a(S'tape'
p3276
g63
F0.9976
tp3277
a(S'recorder'
p3278
g63
F0.9955
tp3279
asI324
(lp3280
(g58
g12
F0.9912
tp3281
a(S'know'
p3282
g15
F0.9999
tp3283
a(S'it'
p3284
g12
F0.9899
tp3285
asI325
(lp3286
(S'those'
p3287
g55
F0.9025
tp3288
a(S'facial'
p3289
g9
F0.9968
tp3290
a(S'expressions'
p3291
g63
F0.9993
tp3292
a(S'are'
p3293
g15
F0.9791
tp3294
a(S'priceless'
p3295
g9
F0.9949
tp3296
asI326
(lp3297
(S'do'
p3298
g15
F0.9987
tp3299
a(S'it'
p3300
g12
F0.9962
tp3301
a(S'again'
p3302
g6
F0.9577
tp3303
asI327
(lp3304
(S'didn'
p3305
g15
F0.598
tp3306
a(g278
g15
F0.7644
tp3307
a(S'catch'
p3308
g15
F0.9891
tp3309
a(S'those'
p3310
g12
F0.5583
tp3311
as.