(dp0
I0
(lp1
(S'okay'
p2
S'!'
p3
F0.9573
tp4
a(S'chi'
p5
S'^'
p6
F0.8241
tp7
a(S'say'
p8
S'V'
p9
F0.9948
tp10
a(S'your'
p11
S'D'
p12
F0.9526
tp13
a(S'grace'
p14
g6
F0.6856
tp15
a(S'okay'
p16
g3
F0.9538
tp17
asI1
(lp18
(S'for'
p19
S'P'
p20
F0.991
tp21
asI2
(lp22
(S'for'
p23
g20
F0.991
tp24
asI3
(lp25
(S'health'
p26
S'N'
p27
F0.8865
tp28
asI4
(lp29
(S'health'
p30
g27
F0.8865
tp31
asI5
(lp32
(S'and'
p33
S'&'
p34
F0.9981
tp35
asI6
(lp36
(S'and'
p37
g34
F0.9981
tp38
asI7
(lp39
(S'strength'
p40
g27
F0.9759
tp41
asI8
(lp42
(S'strength'
p43
g27
F0.9759
tp44
asI9
(lp45
(S'and'
p46
g34
F0.9981
tp47
asI10
(lp48
(S'and'
p49
g34
F0.9981
tp50
asI11
(lp51
(S'daily'
p52
S'A'
p53
F0.5203
tp54
asI12
(lp55
(S'daily'
p56
g53
F0.5203
tp57
asI13
(lp58
(S'food'
p59
g27
F0.9401
tp60
asI14
(lp61
(S'food'
p62
g27
F0.9401
tp63
asI15
(lp64
(S'we'
p65
S'O'
p66
F0.9885
tp67
asI16
(lp68
(S'we'
p69
g66
F0.9926
tp70
a(S'zzz'
p71
g9
F0.443
tp72
asI17
(lp73
(S'praise'
p74
g9
F0.5773
tp75
asI18
(lp76
(S'praise'
p77
g9
F0.5773
tp78
asI19
(lp79
(S'thy'
p80
g12
F0.8234
tp81
asI20
(lp82
(S'thy'
p83
g12
F0.8234
tp84
asI21
(lp85
(S'name'
p86
g27
F0.9785
tp87
asI22
(lp88
(S'name'
p89
g27
F0.9785
tp90
asI23
(lp91
(S'oh'
p92
g3
F0.9937
tp93
a(S'lord'
p94
g3
F0.6809
tp95
asI24
(lp96
(S'oh'
p97
g3
F0.9937
tp98
a(S'lord'
p99
g3
F0.6809
tp100
asI25
(lp101
(S'amen'
p102
g3
F0.9835
tp103
asI26
(lp104
(S'amen'
p105
g3
F0.9835
tp106
asI27
(lp107
(S'straighten'
p108
g9
F0.9951
tp109
a(S'up'
p110
S'T'
p111
F0.9807
tp112
asI28
(lp113
(S'xxx'
p114
S'E'
p115
F0.8437
tp116
asI29
(lp117
(S'for'
p118
g20
F0.9967
tp119
a(S'health'
p120
g27
F0.9214
tp121
a(S'and'
p122
g34
F0.998
tp123
a(S'strength'
p124
g27
F0.9953
tp125
asI30
(lp126
(S'for'
p127
g20
F0.9967
tp128
a(S'health'
p129
g27
F0.9214
tp130
a(S'and'
p131
g34
F0.998
tp132
a(S'strength'
p133
g27
F0.9953
tp134
asI31
(lp135
(S'and'
p136
g34
F0.998
tp137
a(S'daily'
p138
g53
F0.9538
tp139
a(S'food'
p140
g27
F0.9987
tp141
asI32
(lp142
(S'and'
p143
g34
F0.998
tp144
a(S'daily'
p145
g53
F0.9538
tp146
a(S'food'
p147
g27
F0.9987
tp148
asI33
(lp149
(S'we'
p150
g66
F0.9912
tp151
a(S'praise'
p152
g9
F0.9975
tp153
a(S'thy'
p154
g12
F0.9947
tp155
a(S'name'
p156
g27
F0.9991
tp157
asI34
(lp158
(S'we'
p159
g66
F0.9912
tp160
a(S'praise'
p161
g9
F0.9975
tp162
a(S'thy'
p163
g12
F0.9947
tp164
a(S'name'
p165
g27
F0.9991
tp166
asI35
(lp167
(S'oh'
p168
g3
F0.9937
tp169
a(S'lord'
p170
g3
F0.6809
tp171
asI36
(lp172
(S'oh'
p173
g3
F0.9937
tp174
a(S'lord'
p175
g3
F0.6809
tp176
asI37
(lp177
(S'amen'
p178
g3
F0.9835
tp179
asI38
(lp180
(S'amen'
p181
g3
F0.9835
tp182
asI39
(lp183
(S'i'
p184
g66
F0.953
tp185
a(S'm'
p186
g9
F0.9784
tp187
a(S'not'
p188
S'R'
p189
F0.995
tp190
a(S'gonna'
p191
g9
F0.9973
tp192
a(S'sing'
p193
g9
F0.9995
tp194
a(S'anymore'
p195
g189
F0.9851
tp196
a(S'of'
p197
g20
F0.9971
tp198
a(S'that'
p199
g66
F0.8449
tp200
asI40
(lp201
(S'come'
p202
g9
F0.9897
tp203
a(S'on'
p204
g20
F0.8568
tp205
a(S'say'
p206
g9
F0.9477
tp207
a(S'it'
p208
g66
F0.9874
tp209
asI41
(lp210
(S'but'
p211
g34
F0.9948
tp212
a(g184
g66
F0.9899
tp213
a(S'don'
p214
g9
F0.9187
tp215
a(S't'
p216
S'G'
p217
F0.2587
tp218
a(S'feel'
p219
g9
F0.9852
tp220
a(S'good'
p221
g53
F0.9951
tp222
asI42
(lp223
(S'okay'
p224
g3
F0.9363
tp225
a(S'eat'
p226
g9
F0.9055
tp227
a(S'now'
p228
g189
F0.9873
tp229
asI43
(lp230
(S'okay'
p231
g3
F0.9469
tp232
a(S'you'
p233
g66
F0.9984
tp234
a(S'can'
p235
g9
F0.9998
tp236
a(S'eat'
p237
g9
F0.9956
tp238
a(S'now'
p239
g189
F0.9943
tp240
asI44
(lp241
(S'zzz'
p242
g3
F0.361
tp243
asI45
(lp244
(S'know'
p245
g9
F0.971
tp246
a(S'why'
p247
g189
F0.9543
tp248
a(g184
g66
F0.9948
tp249
a(S'can'
p250
g9
F0.9996
tp251
a(g216
g9
F0.746
tp252
a(S'say'
p253
g9
F0.9644
tp254
a(S'anymore'
p255
g189
F0.9935
tp256
a(S'because'
p257
g20
F0.9914
tp258
a(g184
g66
F0.9925
tp259
a(S'don'
p260
g9
F0.9198
tp261
a(g216
g217
F0.2176
tp262
a(S'feel'
p263
g9
F0.9817
tp264
a(S'good'
p265
g53
F0.9889
tp266
a(S'my'
p267
g12
F0.9975
tp268
a(S'belly'
p269
g27
F0.9958
tp270
a(S's'
p271
g217
F0.591
tp272
a(S'hurting'
p273
g9
F0.9866
tp274
asI46
(lp275
(S'do'
p276
g9
F0.9985
tp277
a(S'you'
p278
g66
F0.9989
tp279
a(S'like'
p280
g9
F0.9062
tp281
a(S'that'
p282
g12
F0.5487
tp283
a(S'sandwich'
p284
g27
F0.9946
tp285
asI47
(lp286
(S'uhhuh'
p287
g3
F0.9892
tp288
asI48
(lp289
(S'it'
p290
g66
F0.9858
tp291
a(g271
g9
F0.5457
tp292
a(S'nice'
p293
g53
F0.9891
tp294
asI49
(lp295
(S'uhhuh'
p296
g3
F0.9892
tp297
asI50
(lp298
(S'real'
p299
g189
F0.5678
tp300
a(S'nice'
p301
g53
F0.9996
tp302
asI51
(lp303
(S'you'
p304
g66
F0.9754
tp305
a(S're'
p306
g9
F0.9443
tp307
a(S'the'
p308
g12
F0.9986
tp309
a(S'sandwich'
p310
g27
F0.9907
tp311
a(S'girl'
p312
g27
F0.9913
tp313
asI52
(lp314
(S'what'
p315
g66
F0.9931
tp316
a(S'do'
p317
g9
F0.9993
tp318
a(S'you'
p319
g66
F0.9997
tp320
a(S'have'
p321
g9
F0.9993
tp322
a(S'for'
p323
g20
F0.9979
tp324
a(S'lunch'
p325
g27
F0.8987
tp326
a(S'today'
p327
g27
F0.9972
tp328
asI53
(lp329
(S'at'
p330
g20
F0.9938
tp331
a(S'where'
p332
g189
F0.7502
tp333
asI54
(lp334
(S'at'
p335
g20
F0.9959
tp336
a(S'school'
p337
g27
F0.991
tp338
asI55
(lp339
(g184
g66
F0.9756
tp340
a(S'wasn'
p341
g9
F0.9684
tp342
a(g216
g217
F0.2696
tp343
a(S'there'
p344
g189
F0.6136
tp345
asI56
(lp346
(S'hm'
p347
g3
F0.995
tp348
asI57
(lp349
(g184
g66
F0.9756
tp350
a(S'wasn'
p351
g9
F0.9748
tp352
a(g216
g27
F0.5414
tp353
a(S'at'
p354
g20
F0.9994
tp355
a(S'school'
p356
g27
F0.9856
tp357
asI58
(lp358
(S'we'
p359
g66
F0.9977
tp360
a(S'was'
p361
g9
F0.9997
tp362
a(S'eating'
p363
g9
F0.9937
tp364
a(S'in'
p365
g20
F0.993
tp366
a(S'the'
p367
g12
F0.9992
tp368
a(S'plane'
p369
g27
F0.9703
tp370
asI59
(lp371
(S'in'
p372
g20
F0.9914
tp373
a(S'the'
p374
g12
F0.9919
tp375
a(S'what'
p376
g66
F0.9834
tp377
asI60
(lp378
(S'in'
p379
g20
F0.9914
tp380
a(S'the'
p381
g12
F0.9991
tp382
a(S'plane'
p383
g27
F0.9845
tp384
asI61
(lp385
(S'what'
p386
g66
F0.8373
tp387
a(S'kind'
p388
g27
F0.9595
tp389
a(S'of'
p390
g20
F0.996
tp391
a(S'plane'
p392
g27
F0.9258
tp393
asI62
(lp394
(S'a'
p395
g12
F0.9957
tp396
a(S'real'
p397
g53
F0.9903
tp398
a(S'plane'
p399
g27
F0.9871
tp400
a(S'like'
p401
g20
F0.9865
tp402
a(S'we'
p403
g66
F0.9998
tp404
a(S'did'
p405
g9
F0.9989
tp406
a(S'xxx'
p407
g115
F0.4296
tp408
a(g395
g12
F0.981
tp409
a(S'long'
p410
g53
F0.9983
tp411
a(S'time'
p412
g27
F0.999
tp413
a(S'ago'
p414
g189
F0.9464
tp415
a(S'when'
p416
g189
F0.9888
tp417
a(S'we'
p418
g66
F0.9984
tp419
a(S'was'
p420
g9
F0.9996
tp421
a(S'going'
p422
g9
F0.994
tp423
a(S'to'
p424
g20
F0.9677
tp425
a(S'disney'
p426
g6
F0.4441
tp427
a(S'world'
p428
g27
F0.7857
tp429
asI63
(lp430
(S'when'
p431
g189
F0.8799
tp432
a(S'did'
p433
g9
F0.9947
tp434
a(S'we'
p435
g66
F0.9979
tp436
a(S'go'
p437
g9
F0.999
tp438
a(S'to'
p439
g20
F0.9688
tp440
a(S'disney'
p441
g6
F0.4473
tp442
a(S'world'
p443
g27
F0.7621
tp444
asI64
(lp445
(S'long'
p446
g53
F0.9926
tp447
a(S'time'
p448
g27
F0.999
tp449
a(S'ago'
p450
g189
F0.9467
tp451
a(S'in'
p452
g20
F0.9953
tp453
a(S'december'
p454
g6
F0.9548
tp455
asI65
(lp456
(g184
g66
F0.9635
tp457
a(S'don'
p458
g9
F0.9231
tp459
a(g216
g27
F0.3521
tp460
a(S'remember'
p461
g9
F0.9985
tp462
a(S'it'
p463
g66
F0.9891
tp464
asI66
(lp465
(S'it'
p466
g66
F0.9956
tp467
a(S'was'
p468
g9
F0.9995
tp469
a(S'in'
p470
g20
F0.8947
tp471
a(S'december'
p472
g6
F0.9313
tp473
asI67
(lp474
(S'yeah'
p475
g3
F0.9988
tp476
asI68
(lp477
(S'yeah'
p478
g3
F0.9988
tp479
asI69
(lp480
(S'zzz'
p481
g3
F0.361
tp482
asI70
(lp483
(S'what'
p484
g66
F0.9784
tp485
a(g271
g217
F0.5951
tp486
a(S'the'
p487
g12
F0.9988
tp488
a(S'matter'
p489
g27
F0.9914
tp490
a(S'with'
p491
g20
F0.9998
tp492
a(S'you'
p493
g66
F0.9988
tp494
asI71
(lp495
(S'my'
p496
g12
F0.9878
tp497
a(S'st'
p498
g27
F0.8106
tp499
a(S'omach'
p500
g9
F0.2655
tp501
a(S'my'
p502
g12
F0.9983
tp503
a(S'belly'
p504
g27
F0.9953
tp505
a(g271
g217
F0.577
tp506
a(S'hurting'
p507
g9
F0.9995
tp508
a(S'me'
p509
g66
F0.9987
tp510
a(S'and'
p511
g34
F0.9944
tp512
a(S'my'
p513
g12
F0.997
tp514
a(S'belly'
p515
g27
F0.9989
tp516
a(S'is'
p517
g9
F0.9971
tp518
a(S'telling'
p519
g9
F0.999
tp520
a(S'me'
p521
g66
F0.9983
tp522
a(S'to'
p523
g20
F0.927
tp524
a(S'to'
p525
g20
F0.5936
tp526
a(S'to'
p527
g20
F0.9575
tp528
a(S'don'
p529
g9
F0.6228
tp530
a(g216
g20
F0.2528
tp531
a(S'eat'
p532
g9
F0.9901
tp533
a(S'no'
p534
g12
F0.5918
tp535
a(S'more'
p536
g53
F0.7469
tp537
a(S'food'
p538
g27
F0.9976
tp539
asI72
(lp540
(S'okay'
p541
g3
F0.9857
tp542
as.