(dp0
I128
(lp1
(S'oh'
p2
S'!'
p3
F0.9878
tp4
a(S'lord'
p5
S'^'
p6
F0.4096
tp7
a(S'+'
p8
S'&'
p9
F0.4207
tp10
a(S'...'
p11
S','
p12
F0.675
tp13
asI216
(lp14
(S'in'
p15
S'P'
p16
F0.9915
tp17
a(S'the'
p18
S'D'
p19
F0.9919
tp20
a(S'what'
p21
S'O'
p22
F0.9538
tp23
a(S'?'
p24
g12
F0.994
tp25
asI131
(lp26
(S'oh'
p27
g3
F0.9937
tp28
a(S'lord'
p29
g3
F0.4203
tp30
a(S'.'
p31
g12
F0.9989
tp32
asI223
(lp33
(S'what'
p34
g22
F0.8373
tp35
a(S'kind'
p36
S'N'
p37
F0.9635
tp38
a(S'of'
p39
g16
F0.996
tp40
a(S'plane'
p41
g37
F0.924
tp42
a(g24
g12
F0.9989
tp43
asI134
(lp44
(S'amen'
p45
g3
F0.9762
tp46
a(g31
g12
F0.9969
tp47
asI264
(lp48
(S'<'
p49
S'~'
p50
F0.8828
tp51
a(S'my'
p52
g19
F0.9971
tp53
a(S'st(omach)'
p54
g37
F0.9984
tp55
a(S'>'
p56
S'E'
p57
F0.3378
tp58
a(S'[//]'
p59
g57
F0.4171
tp60
a(S'my'
p61
g19
F0.9973
tp62
a(S"belly's"
p63
g37
F0.7797
tp64
a(S'hurting'
p65
S'V'
p66
F0.9993
tp67
a(S'me'
p68
g22
F0.9987
tp69
a(S'and'
p70
g9
F0.9944
tp71
a(S'my'
p72
g19
F0.997
tp73
a(S'belly'
p74
g37
F0.9989
tp75
a(S'is'
p76
g66
F0.9971
tp77
a(S'telling'
p78
g66
F0.999
tp79
a(S'me'
p80
g22
F0.9983
tp81
a(S'to'
p82
g16
F0.9592
tp83
a(S'[/]'
p84
g66
F0.4598
tp85
a(S'to'
p86
g16
F0.9739
tp87
a(S'[/]'
p88
g66
F0.4598
tp89
a(S'to'
p90
g16
F0.9732
tp91
a(S"don't"
p92
g66
F1.0
tp93
a(S'eat'
p94
g66
F0.9997
tp95
a(S'no'
p96
g19
F0.6281
tp97
a(S'more'
p98
S'A'
p99
F0.8228
tp100
a(S'food'
p101
g37
F0.9987
tp102
a(g31
g12
F0.9977
tp103
asI137
(lp104
(S'amen'
p105
g3
F0.9762
tp106
a(g31
g12
F0.9969
tp107
asI151
(lp108
(g49
g50
F0.9775
tp109
a(S'okay'
p110
g3
F0.8674
tp111
a(S'eat'
p112
g66
F0.9078
tp113
a(S'now'
p114
S'R'
p115
F0.9923
tp116
a(g56
g57
F0.5636
tp117
a(S'['
p118
g57
F0.535
tp119
a(g49
g50
F0.7057
tp120
a(S']'
p121
g12
F0.9653
tp122
a(g3
g12
F0.9975
tp123
asI140
(lp124
(S"I'm"
p125
S'L'
p126
F0.9981
tp127
a(S'not'
p128
g115
F0.9957
tp129
a(S'gonna'
p130
g66
F0.9976
tp131
a(S'sing'
p132
g66
F0.9996
tp133
a(S'anymore'
p134
g115
F0.9847
tp135
a(S'of'
p136
g16
F0.9967
tp137
a(S'that'
p138
g22
F0.9108
tp139
a(g31
g12
F0.9987
tp140
asI15
(lp141
(S'okay'
p142
g3
F0.9385
tp143
a(S'Chi'
p144
g6
F0.9869
tp145
a(S'say'
p146
g66
F0.9946
tp147
a(S'your'
p148
g19
F0.952
tp149
a(S'grace'
p150
g6
F0.6856
tp151
a(S'okay'
p152
g3
F0.9116
tp153
a(g24
g12
F0.9982
tp154
asI145
(lp155
(S'come'
p156
g66
F0.9897
tp157
a(S'on'
p158
g16
F0.8889
tp159
a(S'say'
p160
g66
F0.9477
tp161
a(S'it'
p162
g22
F0.9847
tp163
a(g31
g12
F0.9989
tp164
asI195
(lp165
(S'at'
p166
g16
F0.9938
tp167
a(S'where'
p168
g115
F0.9066
tp169
a(g24
g12
F0.9961
tp170
asI20
(lp171
(S'for'
p172
g16
F0.9913
tp173
a(g8
g9
F0.4329
tp174
a(S'...'
p175
g50
F0.5924
tp176
asI174
(lp177
(S'uhhuh'
p178
g3
F0.9881
tp179
a(g31
g12
F0.997
tp180
asI154
(lp181
(S'okay'
p182
g3
F0.9469
tp183
a(S'you'
p184
g22
F0.9984
tp185
a(S'can'
p186
g66
F0.9997
tp187
a(S'eat'
p188
g66
F0.9956
tp189
a(S'now'
p190
g115
F0.9958
tp191
a(g31
g12
F0.9982
tp192
asI23
(lp193
(S'for'
p194
g16
F0.9794
tp195
a(g31
g12
F0.9954
tp196
asI202
(lp197
(S'I'
p198
g22
F0.9936
tp199
a(S"wasn't"
p200
g66
F0.9989
tp201
a(S'there'
p202
g115
F0.8878
tp203
a(g31
g12
F0.9982
tp204
asI26
(lp205
(S'health'
p206
g37
F0.9193
tp207
a(g8
g9
F0.4583
tp208
a(S'...'
p209
g50
F0.5924
tp210
asI29
(lp211
(S'health'
p212
g37
F0.9592
tp213
a(g31
g12
F0.9978
tp214
asI260
(lp215
(S"what's"
p216
g126
F0.9922
tp217
a(S'the'
p218
g19
F0.9986
tp219
a(S'matter'
p220
g37
F0.9877
tp221
a(S'with'
p222
g16
F0.9999
tp223
a(S'you'
p224
g22
F0.9981
tp225
a(g24
g12
F0.9993
tp226
asI34
(lp227
(S'and'
p228
g9
F0.998
tp229
a(g8
g9
F0.5441
tp230
a(S'...'
p231
g50
F0.5924
tp232
asI37
(lp233
(S'and'
p234
g9
F0.998
tp235
a(g8
g9
F0.5441
tp236
a(S'...'
p237
g50
F0.5924
tp238
asI177
(lp239
(S"it's"
p240
g126
F0.9933
tp241
a(S'nice'
p242
g99
F0.9987
tp243
a(g24
g12
F0.9971
tp244
asI40
(lp245
(S'strength'
p246
g37
F0.9804
tp247
a(g8
S'G'
p248
F0.4207
tp249
a(S'...'
p250
g50
F0.8309
tp251
asI220
(lp252
(S'in'
p253
g16
F0.9915
tp254
a(S'the'
p255
g19
F0.9992
tp256
a(S'plane'
p257
g37
F0.9813
tp258
a(g118
g12
F0.9926
tp259
a(g3
g12
F0.9917
tp260
a(g121
g12
F0.9703
tp261
a(g31
g12
F0.9959
tp262
asI170
(lp263
(S'do'
p264
g66
F0.9985
tp265
a(S'you'
p266
g22
F0.9989
tp267
a(S'like'
p268
g66
F0.8805
tp269
a(S'that'
p270
g19
F0.5487
tp271
a(S'sandwich'
p272
g37
F0.9946
tp273
a(g24
g12
F0.9971
tp274
asI43
(lp275
(S'strength'
p276
g37
F0.9913
tp277
a(g31
g12
F0.9985
tp278
asI46
(lp279
(S'and'
p280
g9
F0.998
tp281
a(g8
g9
F0.5441
tp282
a(S'...'
p283
g50
F0.5924
tp284
asI157
(lp285
(S'zzz'
p286
g3
F0.3756
tp287
a(g31
g12
F0.9972
tp288
asI49
(lp289
(S'and'
p290
g9
F0.998
tp291
a(g8
g9
F0.5441
tp292
a(S'...'
p293
g50
F0.5924
tp294
asI52
(lp295
(S'daily'
p296
g99
F0.5332
tp297
a(g8
g9
F0.5808
tp298
a(S'...'
p299
g50
F0.5924
tp300
asI181
(lp301
(S'uhhuh'
p302
g3
F0.9881
tp303
a(g31
g12
F0.997
tp304
asI55
(lp305
(S'daily'
p306
g99
F0.5332
tp307
a(g8
g9
F0.5808
tp308
a(S'...'
p309
g50
F0.5924
tp310
asI184
(lp311
(S'real'
p312
g115
F0.5678
tp313
a(S'nice'
p314
g99
F0.9996
tp315
a(g31
g12
F0.9985
tp316
asI58
(lp317
(S'food'
p318
g37
F0.94
tp319
a(g8
g248
F0.6633
tp320
a(S'...'
p321
g50
F0.8309
tp322
asI187
(lp323
(S"you're"
p324
g126
F0.9791
tp325
a(S'the'
p326
g19
F0.9983
tp327
a(S'sandwich'
p328
g37
F0.9867
tp329
a(S'girl'
p330
g37
F0.9985
tp331
a(g118
g12
F0.9801
tp332
a(g24
g12
F0.982
tp333
a(g121
g12
F0.9134
tp334
a(g31
g12
F0.9962
tp335
asI61
(lp336
(S'food'
p337
g37
F0.94
tp338
a(g8
g248
F0.6633
tp339
a(S'...'
p340
g50
F0.8309
tp341
asI190
(lp342
(S'what'
p343
g22
F0.9931
tp344
a(S'do'
p345
g66
F0.9993
tp346
a(S'you'
p347
g22
F0.9997
tp348
a(S'have'
p349
g66
F0.9993
tp350
a(S'for'
p351
g16
F0.9985
tp352
a(S'lunch'
p353
g37
F0.8987
tp354
a(S'today'
p355
g37
F0.9976
tp356
a(g24
g12
F0.9978
tp357
asI64
(lp358
(S'we'
p359
g22
F0.9918
tp360
a(g8
g248
F0.4139
tp361
a(S'...'
p362
g50
F0.8309
tp363
asI67
(lp364
(S'we'
p365
g22
F0.9926
tp366
a(S'zzz'
p367
g66
F0.5292
tp368
a(g31
g12
F0.9975
tp369
asI71
(lp370
(S'praise'
p371
g66
F0.6007
tp372
a(g8
g248
F0.4038
tp373
a(S'...'
p374
g50
F0.8309
tp375
asI74
(lp376
(S'praise'
p377
g37
F0.6218
tp378
a(g31
g12
F0.9978
tp379
asI162
(lp380
(S'know'
p381
g66
F0.971
tp382
a(S'why'
p383
g115
F0.953
tp384
a(g198
g22
F0.9992
tp385
a(S"can't"
p386
g66
F0.9999
tp387
a(S'say'
p388
g66
F0.9982
tp389
a(S'anymore'
p390
g115
F0.9935
tp391
a(S'because'
p392
g16
F0.9981
tp393
a(g198
g22
F0.9994
tp394
a(S"don't"
p395
g66
F1.0
tp396
a(S'feel'
p397
g66
F0.9993
tp398
a(S'good'
p399
g99
F0.9889
tp400
a(S'my'
p401
g19
F0.9974
tp402
a(S"belly's"
p403
g37
F0.7791
tp404
a(S'hurting'
p405
g66
F0.9883
tp406
a(g31
g12
F0.9977
tp407
asI78
(lp408
(S'thy'
p409
g19
F0.8744
tp410
a(g8
g248
F0.4415
tp411
a(S'...'
p412
g50
F0.8309
tp413
asI205
(lp414
(S'hm'
p415
g3
F0.9699
tp416
a(S':'
p417
g12
F0.7686
tp418
a(g118
g12
F0.8681
tp419
a(g56
g57
F0.5453
tp420
a(g121
g12
F0.609
tp421
a(g24
g12
F0.995
tp422
asI81
(lp423
(S'thy'
p424
g19
F0.4275
tp425
a(g31
g12
F0.9941
tp426
asI227
(lp427
(S'a'
p428
g19
F0.9957
tp429
a(S'real'
p430
g99
F0.9903
tp431
a(S'plane'
p432
g37
F0.9871
tp433
a(S'like'
p434
g16
F0.9865
tp435
a(S'we'
p436
g22
F0.9998
tp437
a(S'did'
p438
g66
F0.9989
tp439
a(S'xxx'
p440
g57
F0.4296
tp441
a(g428
g19
F0.981
tp442
a(S'long'
p443
g99
F0.9983
tp444
a(S'time'
p445
g37
F0.999
tp446
a(S'ago'
p447
g115
F0.9464
tp448
a(S'when'
p449
g115
F0.9888
tp450
a(S'we'
p451
g22
F0.9984
tp452
a(S'was'
p453
g66
F0.9996
tp454
a(S'going'
p455
g66
F0.994
tp456
a(S'to'
p457
g16
F0.9831
tp458
a(S'Disney'
p459
g6
F0.8723
tp460
a(S'World'
p461
g6
F0.7818
tp462
a(g31
g12
F0.9964
tp463
asI212
(lp464
(S'we'
p465
g22
F0.9977
tp466
a(S'was'
p467
g66
F0.9997
tp468
a(S'eating'
p469
g66
F0.9937
tp470
a(S'in'
p471
g16
F0.9922
tp472
a(S'the'
p473
g19
F0.9992
tp474
a(S'plane'
p475
g37
F0.9906
tp476
a(g31
g12
F0.9989
tp477
asI85
(lp478
(S'name'
p479
g37
F0.982
tp480
a(g8
g9
F0.4641
tp481
a(S'...'
p482
g50
F0.5924
tp483
asI234
(lp484
(S'when'
p485
g115
F0.8799
tp486
a(S'did'
p487
g66
F0.9947
tp488
a(S'we'
p489
g22
F0.9979
tp490
a(S'go'
p491
g66
F0.999
tp492
a(S'to'
p493
g16
F0.99
tp494
a(S'Disney'
p495
g6
F0.8685
tp496
a(S'World'
p497
g6
F0.8619
tp498
a(g24
g12
F0.9974
tp499
asI88
(lp500
(S'name'
p501
g37
F0.9924
tp502
a(g31
g12
F0.9981
tp503
asI271
(lp504
(S'okay'
p505
g3
F0.9741
tp506
a(g31
g12
F0.9977
tp507
asI92
(lp508
(S'oh'
p509
g3
F0.9878
tp510
a(S'lord'
p511
g6
F0.4096
tp512
a(g8
g9
F0.4207
tp513
a(S'...'
p514
g12
F0.675
tp515
asI199
(lp516
(S'at'
p517
g16
F0.9959
tp518
a(S'school'
p519
g37
F0.9947
tp520
a(g31
g12
F0.9985
tp521
asI95
(lp522
(S'oh'
p523
g3
F0.9937
tp524
a(S'lord'
p525
g3
F0.4203
tp526
a(g31
g12
F0.9989
tp527
asI99
(lp528
(S'amen'
p529
g3
F0.9762
tp530
a(g31
g12
F0.9969
tp531
asI102
(lp532
(S'amen'
p533
g3
F0.9762
tp534
a(g31
g12
F0.9969
tp535
asI209
(lp536
(g49
g50
F0.9526
tp537
a(g198
g22
F0.9967
tp538
a(g56
g50
F0.4916
tp539
a(g118
g12
F0.9521
tp540
a(g49
g50
F0.9635
tp541
a(g121
g12
F0.9866
tp542
a(S"wasn't"
p543
g66
F0.9611
tp544
a(S'at'
p545
g16
F0.9962
tp546
a(S'school'
p547
g37
F0.996
tp548
a(g31
g12
F0.9985
tp549
asI106
(lp550
(S'straighten'
p551
g66
F0.8493
tp552
a(g118
g12
F0.9905
tp553
a(g24
g12
F0.976
tp554
a(g121
g12
F0.9343
tp555
a(S'up'
p556
S'T'
p557
F0.7559
tp558
a(g31
g12
F0.9974
tp559
asI109
(lp560
(S'xxx'
p561
g57
F0.8981
tp562
a(g118
g12
F0.661
tp563
a(g56
g57
F0.3811
tp564
a(g121
g12
F0.7604
tp565
a(g31
g12
F0.9962
tp566
asI110
(lp567
(S'for'
p568
g16
F0.9841
tp569
a(g118
g12
F0.9817
tp570
a(g49
g50
F0.9843
tp571
a(g121
g12
F0.9893
tp572
a(S'health'
p573
g37
F0.9591
tp574
a(S'and'
p575
g9
F0.9982
tp576
a(S'strength'
p577
g37
F0.9901
tp578
a(g8
g248
F0.4174
tp579
a(S'...'
p580
g50
F0.6681
tp581
asI239
(lp582
(S'long'
p583
g99
F0.9926
tp584
a(S'time'
p585
g37
F0.999
tp586
a(S'ago'
p587
g115
F0.9566
tp588
a(S'in'
p589
g16
F0.997
tp590
a(S'December'
p591
g6
F0.9885
tp592
a(g31
g12
F0.9941
tp593
asI113
(lp594
(S'for'
p595
g16
F0.9967
tp596
a(S'health'
p597
g37
F0.9251
tp598
a(S'and'
p599
g9
F0.998
tp600
a(S'strength'
p601
g37
F0.9979
tp602
a(g31
g12
F0.9989
tp603
asI242
(lp604
(g198
g22
F0.9976
tp605
a(S"don't"
p606
g66
F1.0
tp607
a(S'remember'
p608
g66
F1.0
tp609
a(S'it'
p610
g22
F0.9874
tp611
a(g31
g12
F0.9989
tp612
asI116
(lp613
(S'and'
p614
g9
F0.998
tp615
a(S'daily'
p616
g99
F0.929
tp617
a(S'food'
p618
g37
F0.9981
tp619
a(g8
g248
F0.7052
tp620
a(S'...'
p621
g50
F0.6673
tp622
asI245
(lp623
(S'it'
p624
g22
F0.9956
tp625
a(S'was'
p626
g66
F0.9996
tp627
a(S'in'
p628
g16
F0.9306
tp629
a(S'December'
p630
g6
F0.9805
tp631
a(g31
g12
F0.9958
tp632
asI119
(lp633
(S'and'
p634
g9
F0.998
tp635
a(S'daily'
p636
g99
F0.9538
tp637
a(S'food'
p638
g37
F0.9993
tp639
a(g31
g12
F0.9983
tp640
asI248
(lp641
(S'yeah'
p642
g3
F0.9988
tp643
a(g24
g12
F0.9966
tp644
asI148
(lp645
(S'but'
p646
g9
F0.9965
tp647
a(g198
g22
F0.9982
tp648
a(g49
g50
F0.958
tp649
a(S"don't"
p650
g66
F0.9995
tp651
a(S'feel'
p652
g66
F0.9993
tp653
a(S'good'
p654
g99
F0.9965
tp655
a(g56
g57
F0.4598
tp656
a(g118
g57
F0.5345
tp657
a(g56
g57
F0.9577
tp658
a(g121
g12
F0.795
tp659
a(g31
g12
F0.9964
tp660
asI122
(lp661
(S'we'
p662
g22
F0.9912
tp663
a(S'praise'
p664
g66
F0.9982
tp665
a(S'thy'
p666
g19
F0.9955
tp667
a(S'name'
p668
g37
F0.9985
tp669
a(g8
g9
F0.4643
tp670
a(S'...'
p671
g12
F0.5547
tp672
asI252
(lp673
(S'yeah'
p674
g3
F0.9986
tp675
a(g31
g12
F0.997
tp676
asI125
(lp677
(S'we'
p678
g22
F0.9912
tp679
a(S'praise'
p680
g66
F0.9982
tp681
a(S'thy'
p682
g19
F0.9955
tp683
a(S'name'
p684
g37
F0.9985
tp685
a(g8
g9
F0.4643
tp686
a(S'...'
p687
g12
F0.5547
tp688
asI255
(lp689
(S'zzz'
p690
g3
F0.3756
tp691
a(g31
g12
F0.9972
tp692
as.