(dp0
I0
(lp1
(S'we'
p2
S'O'
p3
F0.9972
tp4
a(S'have'
p5
S'V'
p6
F0.9966
tp7
a(S'breakfast'
p8
S'N'
p9
F0.9907
tp10
asI1
(lp11
(S'i'
p12
g3
F0.9887
tp13
a(S'meant'
p14
g6
F0.9993
tp15
a(S'we'
p16
g3
F0.9984
tp17
a(S'have'
p18
g6
F0.9976
tp19
a(S'xxx'
p20
S'E'
p21
F0.7607
tp22
asI2
(lp23
(S'what'
p24
g3
F0.9931
tp25
a(S'do'
p26
g6
F0.9991
tp27
a(S'you'
p28
g3
F0.9997
tp29
a(S'want'
p30
g6
F0.9982
tp31
asI3
(lp32
(g12
g3
F0.9902
tp33
a(S'want'
p34
g6
F1.0
tp35
a(S'this'
p36
g3
F0.6642
tp37
asI4
(lp38
(S'no'
p39
S'!'
p40
F0.9253
tp41
asI5
(lp42
(S'rice'
p43
g9
F0.8854
tp44
a(S'crispies'
p45
g9
F0.9703
tp46
a(S'cheerios'
p47
g9
F0.9914
tp48
asI6
(lp49
(S'can'
p50
g6
F0.9946
tp51
a(S'we'
p52
g3
F0.9948
tp53
a(S'have'
p54
g6
F0.9998
tp55
a(S'that'
p56
g3
F0.5811
tp57
asI7
(lp58
(S'rice'
p59
g9
F0.7961
tp60
a(S'crispies'
p61
g9
F0.9903
tp62
a(S'or'
p63
S'&'
p64
F0.9862
tp65
a(S'cheerios'
p66
g9
F0.9607
tp67
asI8
(lp68
(S'give'
p69
g6
F0.9982
tp70
a(S'me'
p71
g3
F0.9939
tp72
a(S'these'
p73
S'D'
p74
F0.507
tp75
asI9
(lp76
(S'chi'
p77
g40
F0.4684
tp78
asI10
(lp79
(S'what'
p80
g3
F0.9931
tp81
a(S'do'
p82
g6
F0.9991
tp83
a(S'you'
p84
g3
F0.9997
tp85
a(S'want'
p86
g6
F0.9982
tp87
asI11
(lp88
(S'give'
p89
g6
F0.9982
tp90
a(S'me'
p91
g3
F0.9976
tp92
a(S'it'
p93
g3
F0.939
tp94
asI12
(lp95
(g12
g3
F0.9635
tp96
a(S'don'
p97
g6
F0.9231
tp98
a(S't'
p99
S'G'
p100
F0.2787
tp101
a(S'wan'
p102
S'A'
p103
F0.64
tp104
a(g99
g100
F0.3694
tp105
a(g99
g100
F0.8068
tp106
a(S'a'
p107
g74
F0.9159
tp108
a(S'talk'
p109
g9
F0.8716
tp110
a(S'about'
p111
S'P'
p112
F0.9957
tp113
a(S'that'
p114
g3
F0.8872
tp115
asI13
(lp116
(g12
g3
F0.9835
tp117
a(S'already'
p118
S'R'
p119
F0.9935
tp120
a(S'told'
p121
g6
F0.9998
tp122
a(S'you'
p123
g3
F0.9974
tp124
a(S'why'
p125
g119
F0.9902
tp126
asI14
(lp127
(S'now'
p128
g119
F0.9628
tp129
a(S'what'
p130
g3
F0.996
tp131
a(S'do'
p132
g6
F0.9993
tp133
a(S'you'
p134
g3
F0.9996
tp135
a(S'want'
p136
g6
F0.9994
tp137
asI15
(lp138
(S'what'
p139
g3
F0.9931
tp140
a(S'do'
p141
g6
F0.9991
tp142
a(S'you'
p143
g3
F0.9997
tp144
a(S'want'
p145
g6
F0.9982
tp146
asI16
(lp147
(S'can'
p148
g6
F0.9755
tp149
a(g12
g3
F0.987
tp150
a(S'have'
p151
g6
F0.9995
tp152
a(S'fruit'
p153
g9
F0.9856
tp154
a(S'loops'
p155
g9
F0.9901
tp156
asI17
(lp157
(S'no'
p158
g40
F0.9253
tp159
asI18
(lp160
(S'what'
p161
g3
F0.9931
tp162
a(S'do'
p163
g6
F0.9991
tp164
a(S'you'
p165
g3
F0.9997
tp166
a(S'want'
p167
g6
F0.9982
tp168
asI19
(lp169
(S'zzz'
p170
g40
F0.361
tp171
asI20
(lp172
(S'xxx'
p173
g21
F0.8437
tp174
asI21
(lp175
(g12
g3
F0.9902
tp176
a(S'want'
p177
g6
F0.9996
tp178
a(S'xxx'
p179
g21
F0.7097
tp180
asI22
(lp181
(S'you'
p182
g3
F0.9911
tp183
a(S'didn'
p184
g6
F0.9886
tp185
a(g99
g6
F0.7941
tp186
a(S'eat'
p187
g6
F0.9619
tp188
a(S'too'
p189
g119
F0.9979
tp190
a(S'good'
p191
g103
F0.9964
tp192
a(S'either'
p193
g64
F0.395
tp194
asI23
(lp195
(S'xxx'
p196
g21
F0.6917
tp197
a(S'cheerios'
p198
g9
F0.7649
tp199
a(S'rice'
p200
g9
F0.9985
tp201
a(S'crispies'
p202
g9
F0.982
tp203
asI24
(lp204
(S'mommy'
p205
g9
F0.5271
tp206
asI25
(lp207
(g12
g3
F0.8942
tp208
a(S'you'
p209
g3
F0.9986
tp210
a(S'said'
p211
g6
F0.9968
tp212
a(S'xxx'
p213
g21
F0.4878
tp214
a(S'could'
p215
g6
F0.9889
tp216
asI26
(lp217
(S'kerri'
p218
S'^'
p219
F0.9699
tp220
asI27
(lp221
(S'kerri'
p222
g219
F0.9699
tp223
asI28
(lp224
(S'cheerios'
p225
g9
F0.6938
tp226
a(S'rice'
p227
g9
F0.9975
tp228
a(S'crispies'
p229
g9
F0.9848
tp230
asI29
(lp231
(S'pick'
p232
g6
F0.9936
tp233
a(S'it'
p234
g3
F0.993
tp235
a(S'now'
p236
g119
F0.9853
tp237
asI30
(lp238
(g12
g3
F0.9897
tp239
a(S'want'
p240
g6
F0.9997
tp241
a(S'rice'
p242
g9
F0.9475
tp243
a(S'crispies'
p244
g9
F0.982
tp245
asI31
(lp246
(S'what'
p247
g3
F0.949
tp248
asI32
(lp249
(S'rice'
p250
g9
F0.8854
tp251
a(S'crispies'
p252
g9
F0.9805
tp253
asI33
(lp254
(S'what'
p255
g3
F0.9931
tp256
a(S'do'
p257
g6
F0.9993
tp258
a(S'you'
p259
g3
F0.9997
tp260
a(S'want'
p261
g6
F0.9983
tp262
a(S'chi'
p263
g219
F0.437
tp264
asI34
(lp265
(g12
g3
F0.9897
tp266
a(S'want'
p267
g6
F0.9996
tp268
a(S's'
p269
g100
F0.4095
tp270
a(S'some'
p271
g74
F0.987
tp272
a(S'honey'
p273
g9
F0.7211
tp274
a(S'nut'
p275
g9
F0.9715
tp276
a(S'cheerios'
p277
g9
F0.9438
tp278
asI35
(lp279
(S'honey'
p280
g9
F0.7266
tp281
a(S'nut'
p282
g9
F0.975
tp283
a(S'cheerios'
p284
g9
F0.9649
tp285
asI36
(lp286
(S'what'
p287
g3
F0.949
tp288
asI37
(lp289
(S'give'
p290
g6
F0.9914
tp291
a(S'that'
p292
g74
F0.8256
tp293
a(S'cereal'
p294
g9
F0.9769
tp295
a(S'bowl'
p296
g9
F0.9979
tp297
a(S'to'
p298
g112
F0.9985
tp299
a(S'chi'
p300
g219
F0.5923
tp301
asI38
(lp302
(S'now'
p303
g119
F0.9901
tp304
a(g12
g3
F0.9878
tp305
a(S'll'
p306
g6
F0.6751
tp307
a(S'get'
p308
g6
F0.9996
tp309
a(S'my'
p310
g74
F0.9948
tp311
a(S'blocks'
p312
g9
F0.9833
tp313
asI39
(lp314
(g12
g3
F0.9778
tp315
a(S'wan'
p316
g6
F0.7193
tp317
a(g99
g100
F0.4673
tp318
a(g99
g100
F0.7827
tp319
a(g107
g74
F0.8226
tp320
a(S'look'
p321
g9
F0.9215
tp322
a(S'at'
p323
g112
F0.9999
tp324
a(S'my'
p325
g74
F0.9978
tp326
a(S'book'
p327
g9
F0.9967
tp328
asI40
(lp329
(g12
g3
F0.9778
tp330
a(S'wan'
p331
g6
F0.7193
tp332
a(g99
g100
F0.4673
tp333
a(g99
g100
F0.7827
tp334
a(g107
g74
F0.8226
tp335
a(S'look'
p336
g9
F0.9215
tp337
a(S'at'
p338
g112
F0.9999
tp339
a(S'my'
p340
g74
F0.9978
tp341
a(S'book'
p342
g9
F0.9967
tp343
asI41
(lp344
(S'yes'
p345
g40
F0.9899
tp346
a(g12
g3
F0.9964
tp347
a(S'heard'
p348
g6
F1.0
tp349
a(S'you'
p350
g3
F0.9975
tp351
asI42
(lp352
(S'if'
p353
g112
F0.9873
tp354
a(S'if'
p355
g112
F0.9952
tp356
a(S'you'
p357
g3
F0.9995
tp358
a(S'don'
p359
g6
F0.8611
tp360
a(g99
g112
F0.2528
tp361
a(S'eat'
p362
g6
F0.978
tp363
a(S'good'
p364
g103
F0.9955
tp365
a(S'today'
p366
g9
F0.9967
tp367
a(S'chi'
p368
g112
F0.3331
tp369
a(S'you'
p370
g3
F0.9982
tp371
a(S'don'
p372
g6
F0.8626
tp373
a(g99
g9
F0.3014
tp374
a(S'get'
p375
g6
F0.9988
tp376
a(S'no'
p377
g74
F0.9828
tp378
a(S'fruit'
p379
g9
F0.9994
tp380
a(S'loops'
p381
g9
F0.9956
tp382
a(S'tomorrow'
p383
g9
F0.9603
tp384
asI43
(lp385
(S'ma'
p386
g40
F0.3265
tp387
asI44
(lp388
(S'she'
p389
g3
F0.9971
tp390
a(S'said'
p391
g6
F0.9946
tp392
a(g12
g3
F0.9964
tp393
a(S'said'
p394
g6
F0.9988
tp395
a(g12
g3
F0.9967
tp396
a(S'want'
p397
g6
F1.0
tp398
a(S'all'
p399
g74
F0.4788
tp400
a(S'the'
p401
g74
F0.9991
tp402
a(S'things'
p403
g9
F0.9988
tp404
a(S'today'
p405
g9
F0.9642
tp406
asI45
(lp407
(S'tomorrow'
p408
g9
F0.8592
tp409
a(S'um'
p410
g40
F0.5724
tp411
a(S'you'
p412
g3
F0.9892
tp413
a(S're'
p414
g6
F0.5762
tp415
a(S'gonna'
p416
g6
F0.9932
tp417
a(S'have'
p418
g6
F0.9986
tp419
a(S'juice'
p420
g9
F0.9798
tp421
asI46
(lp422
(S'no'
p423
g40
F0.9253
tp424
asI47
(lp425
(S'yes'
p426
g40
F0.9958
tp427
asI48
(lp428
(S'knock'
p429
g6
F0.9687
tp430
a(S'it'
p431
g3
F0.9929
tp432
a(S'off'
p433
S'T'
p434
F0.9467
tp435
asI49
(lp436
(S'because'
p437
g112
F0.9827
tp438
a(g12
g3
F0.9982
tp439
a(S'want'
p440
g6
F0.9997
tp441
asI50
(lp442
(S'my'
p443
g74
F0.7906
tp444
a(S'my'
p445
g74
F0.5476
tp446
a(S'my'
p447
g74
F0.6138
tp448
asI51
(lp449
(S'no'
p450
g40
F0.8487
tp451
a(S'because'
p452
g112
F0.9867
tp453
a(g12
g3
F0.9902
tp454
a(g12
g3
F0.9437
tp455
a(S'm'
p456
g6
F0.9819
tp457
a(S'having'
p458
g6
F0.9953
tp459
a(S'orange'
p460
g103
F0.9739
tp461
a(S'juice'
p462
g9
F0.9941
tp463
asI52
(lp464
(g12
g3
F0.9586
tp465
a(g456
g6
F0.9738
tp466
a(S'not'
p467
g119
F0.9857
tp468
asI53
(lp469
(S'xxx'
p470
g21
F0.8437
tp471
asI54
(lp472
(g12
g3
F0.988
tp473
a(S'am'
p474
g6
F0.9952
tp475
asI55
(lp476
(g12
g3
F0.9586
tp477
a(g456
g6
F0.9738
tp478
a(S'not'
p479
g119
F0.9857
tp480
asI56
(lp481
(g12
g3
F0.988
tp482
a(S'am'
p483
g6
F0.9952
tp484
asI57
(lp485
(g12
g3
F0.9586
tp486
a(g456
g6
F0.9738
tp487
a(S'not'
p488
g119
F0.9857
tp489
asI58
(lp490
(g12
g3
F0.988
tp491
a(S'am'
p492
g6
F0.9952
tp493
asI59
(lp494
(g12
g3
F0.988
tp495
a(S'am'
p496
g6
F0.9952
tp497
asI60
(lp498
(S'kerri'
p499
g219
F0.9699
tp500
asI61
(lp501
(S'stop'
p502
g6
F0.9416
tp503
a(S'fighting'
p504
g6
F0.9992
tp505
a(S'with'
p506
g112
F0.9975
tp507
a(S'her'
p508
g3
F0.5776
tp509
asI62
(lp510
(S'zzz'
p511
g40
F0.361
tp512
asI63
(lp513
(S'alright'
p514
g40
F0.8465
tp515
a(S'start'
p516
g6
F0.9644
tp517
a(S'eating'
p518
g6
F0.99
tp519
a(S'guys'
p520
g9
F0.9983
tp521
asI64
(lp522
(g12
g3
F0.9834
tp523
a(S'keep'
p524
g6
F0.998
tp525
a(S'push'
p526
g9
F0.58
tp527
a(S'xxx'
p528
g9
F0.3237
tp529
a(S'away'
p530
g119
F0.9482
tp531
asI65
(lp532
(S'ma'
p533
g74
F0.5636
tp534
a(g12
g3
F0.9855
tp535
a(S'pushed'
p536
g6
F0.9999
tp537
a(S'the'
p538
g74
F0.9997
tp539
a(S'thing'
p540
g9
F0.9988
tp541
a(S'on'
p542
g112
F0.9996
tp543
a(S'the'
p544
g74
F0.9995
tp545
a(S'phone'
p546
g9
F0.9985
tp547
asI66
(lp548
(S'you'
p549
g3
F0.9911
tp550
a(S'didn'
p551
g6
F0.9886
tp552
a(g99
g6
F0.8348
tp553
a(S'do'
p554
g6
F0.9966
tp555
a(S'that'
p556
g74
F0.7635
tp557
a(S'one'
p558
S'$'
p559
F0.7659
tp560
asI67
(lp561
(S'ma'
p562
g74
F0.5636
tp563
a(g12
g3
F0.989
tp564
a(S'was'
p565
g6
F0.9998
tp566
a(S'at'
p567
g112
F0.9929
tp568
a(S'um'
p569
g40
F0.4221
tp570
a(S'xxx'
p571
g21
F0.5063
tp572
a(S'show'
p573
g9
F0.8178
tp574
asI68
(lp575
(g12
g3
F0.9914
tp576
a(S'was'
p577
g6
F0.9997
tp578
a(S'also'
p579
g119
F0.9982
tp580
a(S'over'
p581
g112
F0.5746
tp582
a(S'here'
p583
g119
F0.9577
tp584
asI69
(lp585
(g12
g3
F0.9914
tp586
a(S'was'
p587
g6
F0.9998
tp588
a(S'being'
p589
g6
F0.9807
tp590
a(S'captain'
p591
g9
F0.9711
tp592
asI70
(lp593
(S'mama'
p594
g9
F0.7831
tp595
a(S'mama'
p596
g9
F0.9788
tp597
a(g12
g3
F0.9264
tp598
a(S'love'
p599
g6
F0.9991
tp600
a(S'my'
p601
g74
F0.9937
tp602
a(S'mother'
p603
g9
F0.9955
tp604
asI71
(lp605
(g12
g3
F0.9818
tp606
a(S'love'
p607
g6
F0.9994
tp608
a(S'my'
p609
g74
F0.9923
tp610
a(S'mother'
p611
g9
F0.9965
tp612
asI72
(lp613
(g12
g3
F0.9818
tp614
a(S'love'
p615
g6
F0.9994
tp616
a(S'my'
p617
g74
F0.9923
tp618
a(S'mother'
p619
g9
F0.9965
tp620
asI73
(lp621
(g12
g3
F0.9818
tp622
a(S'love'
p623
g6
F0.9994
tp624
a(S'my'
p625
g74
F0.9923
tp626
a(S'mother'
p627
g9
F0.9965
tp628
asI74
(lp629
(S'xxx'
p630
g21
F0.8437
tp631
asI75
(lp632
(g12
g3
F0.9818
tp633
a(S'love'
p634
g6
F0.9806
tp635
a(g12
g3
F0.9966
tp636
a(S'love'
p637
g6
F0.9991
tp638
a(S'my'
p639
g74
F0.9605
tp640
a(S'march'
p641
g9
F0.6684
tp642
asI76
(lp643
(g12
g3
F0.9818
tp644
a(S'love'
p645
g6
F0.9994
tp646
a(S'my'
p647
g74
F0.9923
tp648
a(S'mother'
p649
g9
F0.9965
tp650
asI77
(lp651
(S'brush'
p652
g6
F0.8001
tp653
a(S'my'
p654
g74
F0.9981
tp655
a(S'teeth'
p656
g9
F0.9993
tp657
asI78
(lp658
(S'xxx'
p659
g21
F0.8437
tp660
asI79
(lp661
(S'are'
p662
g6
F0.9963
tp663
a(S'you'
p664
g3
F0.9996
tp665
a(S'done'
p666
g6
F0.9927
tp667
asI80
(lp668
(S'no'
p669
g40
F0.9253
tp670
asI81
(lp671
(S'that'
p672
g3
F0.8283
tp673
a(S'was'
p674
g6
F0.998
tp675
a(S'yyy'
p676
g119
F0.7775
tp677
asI82
(lp678
(S'zzz'
p679
g40
F0.361
tp680
asI83
(lp681
(S'xxx'
p682
g21
F0.8437
tp683
asI84
(lp684
(S'zzz'
p685
g40
F0.361
tp686
asI85
(lp687
(S'xxx'
p688
g21
F0.8437
tp689
asI86
(lp690
(S'xxx'
p691
g21
F0.8437
tp692
asI87
(lp693
(S'zzz'
p694
g40
F0.361
tp695
asI88
(lp696
(S'zzz'
p697
g40
F0.361
tp698
asI89
(lp699
(S'ma'
p700
g74
F0.5636
tp701
a(g12
g3
F0.9516
tp702
a(g456
g6
F0.9872
tp703
a(S'done'
p704
g6
F0.8955
tp705
asI90
(lp706
(S'you'
p707
g3
F0.9754
tp708
a(S're'
p709
g6
F0.94
tp710
a(S'all'
p711
g74
F0.757
tp712
a(S'done'
p713
g6
F0.4507
tp714
asI91
(lp715
(S'yeah'
p716
g40
F0.9988
tp717
asI92
(lp718
(S'ma'
p719
g40
F0.3265
tp720
as.