(dp0
I16
(lp1
(S'we'
p2
S'O'
p3
F0.9973
tp4
a(S'have'
p5
S'V'
p6
F0.9966
tp7
a(S'breakfast'
p8
S'N'
p9
F0.9957
tp10
a(S'!'
p11
S','
p12
F0.9989
tp13
asI20
(lp14
(S'I'
p15
g3
F0.9978
tp16
a(S'meant'
p17
g6
F0.9993
tp18
a(S'we'
p19
g3
F0.9979
tp20
a(S'have'
p21
g6
F0.9976
tp22
a(S'xxx'
p23
g9
F0.4489
tp24
a(S'.'
p25
g12
F0.9978
tp26
asI23
(lp27
(S'what'
p28
g3
F0.9931
tp29
a(S'do'
p30
g6
F0.9993
tp31
a(S'you'
p32
g3
F0.9997
tp33
a(S'want'
p34
g6
F0.9966
tp35
a(S'?'
p36
g12
F0.9978
tp37
asI27
(lp38
(g15
g3
F0.9983
tp39
a(S'want'
p40
g6
F1.0
tp41
a(S'this'
p42
g3
F0.9198
tp43
a(g25
g12
F0.9987
tp44
asI30
(lp45
(S'no'
p46
g11
F0.9847
tp47
a(g11
g12
F0.999
tp48
asI33
(lp49
(S'Rice_Crispies'
p50
S'^'
p51
F0.4833
tp52
a(S'(.)'
p53
g51
F0.6334
tp54
a(S'Cheerios'
p55
g51
F0.8747
tp56
a(S'+'
p57
S'G'
p58
F0.5396
tp59
a(S'...'
p60
S'~'
p61
F0.6673
tp62
asI36
(lp63
(S'can'
p64
g6
F0.9946
tp65
a(S'we'
p66
g3
F0.9927
tp67
a(S'have'
p68
g6
F0.9998
tp69
a(S'that'
p70
g3
F0.5507
tp71
a(g36
g12
F0.9987
tp72
asI41
(lp73
(S'Rice_Crispies'
p74
g9
F0.6903
tp75
a(S'or'
p76
S'&'
p77
F0.9845
tp78
a(S'Cheerios'
p79
g9
F0.9144
tp80
a(g36
g12
F0.9959
tp81
asI45
(lp82
(S'give'
p83
g6
F0.9985
tp84
a(S'me'
p85
g3
F0.9931
tp86
a(S'these'
p87
S'D'
p88
F0.4295
tp89
a(S'['
p90
g12
F0.9884
tp91
a(g36
g12
F0.9841
tp92
a(S']'
p93
g12
F0.88
tp94
a(S'+/'
p95
g51
F0.1968
tp96
a(g25
g12
F0.9939
tp97
asI50
(lp98
(S'Chi'
p99
g51
F0.6936
tp100
a(g11
g12
F0.9785
tp101
asI53
(lp102
(S'what'
p103
g3
F0.9931
tp104
a(S'do'
p105
g6
F0.9993
tp106
a(S'you'
p107
g3
F0.9997
tp108
a(S'want'
p109
g6
F0.9966
tp110
a(g36
g12
F0.9978
tp111
asI58
(lp112
(S'give'
p113
g6
F0.9985
tp114
a(S'me'
p115
g3
F0.9976
tp116
a(S'it'
p117
g3
F0.9256
tp118
a(g11
g12
F0.9992
tp119
asI62
(lp120
(g15
g3
F0.9976
tp121
a(S"don't"
p122
g6
F1.0
tp123
a(S'wan(t'
p124
g6
F0.9994
tp125
a(S')'
p126
g12
F0.9512
tp127
a(S'('
p128
g12
F0.9507
tp129
a(S't)a'
p130
S'P'
p131
F0.6999
tp132
a(S'talk'
p133
g6
F0.968
tp134
a(S'about'
p135
g131
F0.9885
tp136
a(S'that'
p137
g3
F0.9674
tp138
a(g25
g12
F0.9987
tp139
asI67
(lp140
(g15
g3
F0.9967
tp141
a(S'already'
p142
S'R'
p143
F0.9904
tp144
a(S'told'
p145
g6
F0.9998
tp146
a(S'you'
p147
g3
F0.9974
tp148
a(S'why'
p149
g143
F0.9943
tp150
a(g25
g12
F0.9953
tp151
asI70
(lp152
(S'now'
p153
g143
F0.9628
tp154
a(S'what'
p155
g3
F0.996
tp156
a(S'do'
p157
g6
F0.9993
tp158
a(S'you'
p159
g3
F0.9996
tp160
a(S'want'
p161
g6
F0.9996
tp162
a(S'(.)'
p163
g51
F0.378
tp164
a(g36
g12
F0.9948
tp165
asI74
(lp166
(S'what'
p167
g3
F0.9931
tp168
a(S'do'
p169
g6
F0.9993
tp170
a(S'you'
p171
g3
F0.9997
tp172
a(S'want'
p173
g6
F0.9966
tp174
a(g36
g12
F0.9978
tp175
asI78
(lp176
(S'can'
p177
g6
F0.9938
tp178
a(g15
g3
F0.9994
tp179
a(S'have'
p180
g6
F0.9995
tp181
a(S'Fruit_Loops'
p182
g51
F0.5439
tp183
a(g36
g12
F0.9977
tp184
asI82
(lp185
(S'no'
p186
g11
F0.9704
tp187
a(g25
g12
F0.9989
tp188
asI85
(lp189
(S'what'
p190
g3
F0.9931
tp191
a(S'do'
p192
g6
F0.9993
tp193
a(S'you'
p194
g3
F0.9997
tp195
a(S'want'
p196
g6
F0.9966
tp197
a(g36
g12
F0.9978
tp198
asI89
(lp199
(S'zzz'
p200
g11
F0.3756
tp201
a(g25
g12
F0.9972
tp202
asI93
(lp203
(S'xxx'
p204
S'E'
p205
F0.8981
tp206
a(g90
g12
F0.661
tp207
a(S'>'
p208
g205
F0.3811
tp209
a(g93
g12
F0.7604
tp210
a(g25
g12
F0.9962
tp211
asI94
(lp212
(S'<'
p213
g61
F0.9526
tp214
a(g15
g3
F0.9988
tp215
a(S'want'
p216
g6
F0.9997
tp217
a(S'xxx'
p218
g205
F0.7792
tp219
a(g208
g205
F0.9474
tp220
a(g90
g205
F0.535
tp221
a(g213
g61
F0.8293
tp222
a(g93
g12
F0.9837
tp223
a(S'+/'
p224
g9
F0.1634
tp225
a(g25
g12
F0.9979
tp226
asI97
(lp227
(S'you'
p228
g3
F0.997
tp229
a(S"didn't"
p230
g6
F1.0
tp231
a(S'eat'
p232
g6
F0.9982
tp233
a(S'too'
p234
g143
F0.9971
tp235
a(S'good'
p236
S'A'
p237
F0.9946
tp238
a(S'either'
p239
g143
F0.3476
tp240
a(g25
g12
F0.9986
tp241
asI101
(lp242
(S'xxx'
p243
g205
F0.7366
tp244
a(S'[/]'
p245
g205
F0.2766
tp246
a(S'Cheerios'
p247
g9
F0.6311
tp248
a(S'Rice_Crispies'
p249
g9
F0.9689
tp250
a(g90
g12
F0.9852
tp251
a(g208
g205
F0.6043
tp252
a(g93
g12
F0.7541
tp253
a(g25
g12
F0.9962
tp254
asI104
(lp255
(S'mommy'
p256
g9
F0.7016
tp257
a(g90
g12
F0.9875
tp258
a(g213
g61
F0.972
tp259
a(g93
g12
F0.9661
tp260
a(g11
g12
F0.997
tp261
asI107
(lp262
(g213
g61
F0.9526
tp263
a(g15
g3
F0.9967
tp264
a(g208
g61
F0.2694
tp265
a(S'[//]'
p266
g12
F0.3213
tp267
a(S'you'
p268
g3
F0.999
tp269
a(S'said'
p270
g6
F0.9964
tp271
a(S'xxx'
p272
g205
F0.773
tp273
a(g90
g12
F0.6588
tp274
a(g208
g205
F0.4438
tp275
a(g93
g12
F0.845
tp276
a(S'could'
p277
g6
F0.99
tp278
a(g25
g12
F0.9938
tp279
asI110
(lp280
(g213
g61
F0.9511
tp281
a(S'Kerri'
p282
g51
F0.9952
tp283
a(g208
g51
F0.3094
tp284
a(g90
g12
F0.9714
tp285
a(g213
g61
F0.948
tp286
a(g93
g12
F0.9562
tp287
a(g11
g12
F0.9967
tp288
asI113
(lp289
(S'Kerri'
p290
g51
F0.9948
tp291
a(g25
g12
F0.995
tp292
asI116
(lp293
(S'Cheerios'
p294
g9
F0.7505
tp295
a(S'Rice_Crispies'
p296
g9
F0.9811
tp297
a(g25
g12
F0.9985
tp298
asI119
(lp299
(S'pick'
p300
g6
F0.9949
tp301
a(S'it'
p302
g3
F0.993
tp303
a(S'now'
p304
g143
F0.9927
tp305
a(g25
g12
F0.9987
tp306
asI122
(lp307
(g15
g3
F0.9983
tp308
a(S'want'
p309
g6
F0.9997
tp310
a(S'Rice_Crispies'
p311
g9
F0.5602
tp312
a(g25
g12
F0.9987
tp313
asI126
(lp314
(S'what'
p315
g3
F0.9171
tp316
a(g36
g12
F0.9924
tp317
asI129
(lp318
(S'Rice_Crispies'
p319
g9
F0.8226
tp320
a(g25
g12
F0.9984
tp321
asI133
(lp322
(S'what'
p323
g3
F0.9931
tp324
a(S'do'
p325
g6
F0.9993
tp326
a(S'you'
p327
g3
F0.9997
tp328
a(S'want'
p329
g6
F0.9984
tp330
a(S'Chi'
p331
g51
F0.9688
tp332
a(g36
g12
F0.9893
tp333
asI137
(lp334
(g15
g3
F0.9983
tp335
a(S'want'
p336
g6
F0.9997
tp337
a(g213
g61
F0.7468
tp338
a(S'&s'
p339
g61
F0.1799
tp340
a(g208
g58
F0.2848
tp341
a(S'[/]'
p342
g58
F0.284
tp343
a(S'some'
p344
g88
F0.9861
tp345
a(S'Honey_Nut_Cheerios'
p346
g9
F0.8545
tp347
a(g25
g12
F0.9989
tp348
asI140
(lp349
(S'Honey_Nut_Cheerios'
p350
g9
F0.9097
tp351
a(g25
g12
F0.9984
tp352
asI144
(lp353
(S'what'
p354
g3
F0.9511
tp355
a(S'(.)'
p356
g205
F0.3151
tp357
a(g36
g12
F0.9749
tp358
asI149
(lp359
(S'give'
p360
g6
F0.9914
tp361
a(S'that'
p362
g3
F0.7909
tp363
a(S'[='
p364
g205
F0.8593
tp365
a(S'cereal'
p366
g9
F0.9387
tp367
a(S'bowl'
p368
g9
F0.9992
tp369
a(g93
g12
F0.9948
tp370
a(S'to'
p371
g131
F0.9966
tp372
a(S'Chi'
p373
g51
F0.9784
tp374
a(g25
g12
F0.993
tp375
asI153
(lp376
(S'now'
p377
g143
F0.9937
tp378
a(S"I'll"
p379
S'L'
p380
F0.9833
tp381
a(S'get'
p382
g6
F1.0
tp383
a(S'my'
p384
g88
F0.9951
tp385
a(S'blocks'
p386
g9
F0.9904
tp387
a(g25
g12
F0.998
tp388
asI156
(lp389
(g15
g3
F0.9983
tp390
a(S'wan(t'
p391
g6
F0.9996
tp392
a(g126
g12
F0.9323
tp393
a(g128
g12
F0.9591
tp394
a(S't)a'
p395
g131
F0.6091
tp396
a(S'look'
p397
g6
F0.8858
tp398
a(S'at'
p399
g131
F0.9993
tp400
a(S'my'
p401
g88
F0.9978
tp402
a(S'book'
p403
g9
F0.9979
tp404
a(g25
g12
F0.9982
tp405
asI161
(lp406
(g15
g3
F0.9983
tp407
a(S'wan(t'
p408
g6
F0.9996
tp409
a(g126
g12
F0.9323
tp410
a(g128
g12
F0.9591
tp411
a(S't)a'
p412
g131
F0.3167
tp413
a(g213
g61
F0.8693
tp414
a(S'look'
p415
g6
F0.9419
tp416
a(S'at'
p417
g131
F0.9993
tp418
a(S'my'
p419
g88
F0.9984
tp420
a(S'book'
p421
g9
F0.9957
tp422
a(g208
g205
F0.6729
tp423
a(g90
g205
F0.5345
tp424
a(g208
g205
F0.9532
tp425
a(g93
g12
F0.7132
tp426
a(g57
g77
F0.4592
tp427
a(S'...'
p428
g12
F0.6068
tp429
asI164
(lp430
(g213
g61
F0.9732
tp431
a(S'yes'
p432
g11
F0.9937
tp433
a(g15
g3
F0.9991
tp434
a(S'heard'
p435
g6
F0.9995
tp436
a(g208
g205
F0.5367
tp437
a(g90
g205
F0.535
tp438
a(g213
g61
F0.8293
tp439
a(g93
g12
F0.9888
tp440
a(S'you'
p441
g3
F0.988
tp442
a(g90
g12
F0.9952
tp443
a(g208
g205
F0.4829
tp444
a(g93
g12
F0.6916
tp445
a(g25
g12
F0.9952
tp446
asI167
(lp447
(g213
g61
F0.8621
tp448
a(S'if'
p449
g131
F0.9855
tp450
a(g208
g61
F0.3078
tp451
a(g90
g12
F0.9521
tp452
a(g213
g61
F0.9635
tp453
a(g93
g12
F0.9815
tp454
a(S'[/]'
p455
g12
F0.3657
tp456
a(S'if'
p457
g131
F0.997
tp458
a(S'you'
p459
g3
F0.9997
tp460
a(S"don't"
p461
g6
F1.0
tp462
a(S'eat'
p463
g6
F0.9989
tp464
a(S'good'
p465
g237
F0.9955
tp466
a(S'today'
p467
g9
F0.997
tp468
a(S'Chi'
p469
g51
F0.8325
tp470
a(S'you'
p471
g3
F0.9976
tp472
a(S"don't"
p473
g6
F1.0
tp474
a(S'get'
p475
g6
F1.0
tp476
a(S'no'
p477
g88
F0.9791
tp478
a(S'Fruit_Loops'
p479
g9
F0.9812
tp480
a(S'tomorrow'
p481
g9
F0.9959
tp482
a(g25
g12
F0.993
tp483
asI174
(lp484
(S'Ma'
p485
g11
F0.457
tp486
a(g11
g12
F0.9949
tp487
asI177
(lp488
(g213
g61
F0.9227
tp489
a(S'she'
p490
g3
F0.998
tp491
a(S'said'
p492
g6
F0.9963
tp493
a(g208
g12
F0.2661
tp494
a(S'[//]'
p495
g12
F0.1988
tp496
a(g213
g61
F0.9375
tp497
a(g15
g3
F0.9986
tp498
a(S'said'
p499
g6
F0.9987
tp500
a(g208
g205
F0.2448
tp501
a(S'[//]'
p502
g205
F0.5822
tp503
a(g15
g3
F0.9968
tp504
a(S'want'
p505
g6
F1.0
tp506
a(S'all'
p507
g88
F0.4788
tp508
a(S'the'
p509
g88
F0.9994
tp510
a(S'things'
p511
g9
F0.9985
tp512
a(S'today'
p513
g9
F0.9913
tp514
a(g25
g12
F0.9969
tp515
asI181
(lp516
(S'tomorrow'
p517
g9
F0.8718
tp518
a(S'&-um'
p519
g11
F0.6671
tp520
a(S"you're"
p521
g380
F0.9908
tp522
a(S'gonna'
p523
g6
F0.9949
tp524
a(S'have'
p525
g6
F0.9992
tp526
a(S'juice'
p527
g9
F0.9866
tp528
a(g25
g12
F0.9985
tp529
asI185
(lp530
(S'no'
p531
g11
F0.9704
tp532
a(g25
g12
F0.9989
tp533
asI189
(lp534
(S'yes'
p535
g11
F0.9961
tp536
a(g25
g12
F0.9972
tp537
asI193
(lp538
(S'knock'
p539
g6
F0.9751
tp540
a(S'it'
p541
g3
F0.9929
tp542
a(S'off'
p543
S'T'
p544
F0.9168
tp545
a(g25
g12
F0.998
tp546
asI196
(lp547
(S'because'
p548
g131
F0.9961
tp549
a(g15
g3
F0.9996
tp550
a(S'want'
p551
g6
F0.9997
tp552
a(g57
g77
F0.3994
tp553
a(S'...'
p554
g12
F0.6223
tp555
asI201
(lp556
(S'my'
p557
g88
F0.8286
tp558
a(S'my'
p559
g88
F0.5885
tp560
a(S'my'
p561
g88
F0.6536
tp562
a(g57
g58
F0.5769
tp563
a(S'...'
p564
g61
F0.6673
tp565
asI205
(lp566
(S'no'
p567
g11
F0.8487
tp568
a(S'because'
p569
g131
F0.9898
tp570
a(g213
g61
F0.9681
tp571
a(g15
g3
F0.9958
tp572
a(g208
g6
F0.2795
tp573
a(S'[/]'
p574
g12
F0.4606
tp575
a(S"I'm"
p576
g380
F0.9951
tp577
a(S'having'
p578
g6
F0.9938
tp579
a(S'orange'
p580
g237
F0.9561
tp581
a(S'juice'
p582
g9
F0.9949
tp583
a(g25
g12
F0.9987
tp584
asI210
(lp585
(S"I'm"
p586
g380
F0.9981
tp587
a(S'not'
p588
g143
F0.9925
tp589
a(g90
g12
F0.9619
tp590
a(g36
g12
F0.9842
tp591
a(g93
g12
F0.9156
tp592
a(g25
g12
F0.995
tp593
asI213
(lp594
(S'xxx'
p595
g205
F0.5822
tp596
a(g25
g12
F0.9648
tp597
asI214
(lp598
(g15
g3
F0.9976
tp599
a(S'am'
p600
g6
F0.9938
tp601
a(g25
g12
F0.9978
tp602
asI217
(lp603
(S"I'm"
p604
g380
F0.998
tp605
a(S'not'
p606
g143
F0.9919
tp607
a(g25
g12
F0.9956
tp608
asI220
(lp609
(g15
g3
F0.9976
tp610
a(S'am'
p611
g6
F0.9938
tp612
a(g25
g12
F0.9978
tp613
asI223
(lp614
(S"I'm"
p615
g380
F0.998
tp616
a(S'not'
p617
g143
F0.9919
tp618
a(g25
g12
F0.9956
tp619
asI226
(lp620
(g15
g3
F0.9976
tp621
a(S'am'
p622
g6
F0.9938
tp623
a(g25
g12
F0.9978
tp624
asI229
(lp625
(g213
g61
F0.9526
tp626
a(g15
g3
F0.9982
tp627
a(S'am'
p628
g6
F0.9965
tp629
a(g208
g205
F0.5021
tp630
a(g90
g205
F0.5345
tp631
a(g208
g205
F0.9749
tp632
a(g93
g12
F0.7541
tp633
a(g25
g12
F0.9962
tp634
asI233
(lp635
(g213
g61
F0.9511
tp636
a(S'Kerri'
p637
g51
F0.9952
tp638
a(g208
g51
F0.3094
tp639
a(g90
g12
F0.9714
tp640
a(g213
g61
F0.948
tp641
a(g93
g12
F0.9562
tp642
a(g11
g12
F0.9967
tp643
asI236
(lp644
(S'stop'
p645
g6
F0.6513
tp646
a(g90
g12
F0.9861
tp647
a(g11
g12
F0.9842
tp648
a(g93
g12
F0.9882
tp649
a(S'fighting'
p650
g6
F0.9998
tp651
a(S'with'
p652
g131
F0.9989
tp653
a(S'her'
p654
g88
F0.6285
tp655
a(S'(.)'
p656
g9
F0.4511
tp657
a(g25
g12
F0.9982
tp658
asI239
(lp659
(S'zzz'
p660
g11
F0.3756
tp661
a(g25
g12
F0.9972
tp662
asI244
(lp663
(S'alright'
p664
g11
F0.8465
tp665
a(S'start'
p666
g6
F0.9723
tp667
a(S'eating'
p668
g6
F0.99
tp669
a(S'guys'
p670
g9
F0.9995
tp671
a(g25
g12
F0.9986
tp672
asI247
(lp673
(g15
g3
F0.9967
tp674
a(S'keep'
p675
g6
F0.9985
tp676
a(S'push'
p677
g9
F0.4859
tp678
a(S'xxx'
p679
g9
F0.2569
tp680
a(S'away'
p681
g143
F0.9616
tp682
a(S'(.)'
p683
g205
F0.3855
tp684
a(g11
g12
F0.9799
tp685
asI251
(lp686
(S'Ma'
p687
g51
F0.2545
tp688
a(g12
g12
F0.9945
tp689
a(g15
g3
F0.9978
tp690
a(S'pushed'
p691
g6
F0.9997
tp692
a(S'the'
p693
g88
F0.9998
tp694
a(S'thing'
p695
g9
F0.9988
tp696
a(S'on'
p697
g131
F0.9995
tp698
a(S'the'
p699
g88
F0.9995
tp700
a(S'phone'
p701
g9
F0.998
tp702
a(S'(.)'
p703
g205
F0.3126
tp704
a(g25
g12
F0.9707
tp705
asI256
(lp706
(S'you'
p707
g3
F0.997
tp708
a(S"didn't"
p709
g6
F1.0
tp710
a(S'do'
p711
g6
F0.9999
tp712
a(S'that'
p713
g88
F0.7427
tp714
a(S'one'
p715
S'$'
p716
F0.839
tp717
a(g25
g12
F0.9968
tp718
asI259
(lp719
(S'(.)'
p720
g51
F0.3719
tp721
a(S'Ma'
p722
g51
F0.9031
tp723
a(g12
g12
F0.99
tp724
a(g15
g3
F0.9977
tp725
a(S'was'
p726
g6
F0.9999
tp727
a(S'at'
p728
g131
F0.9706
tp729
a(S'&-um'
p730
g58
F0.6156
tp731
a(S'xxx'
p732
g58
F0.452
tp733
a(S'show'
p734
g9
F0.9113
tp735
a(g25
g12
F0.999
tp736
asI262
(lp737
(g15
g3
F0.9983
tp738
a(S'was'
p739
g6
F0.9998
tp740
a(S'also'
p741
g143
F0.999
tp742
a(S'over'
p743
g131
F0.5746
tp744
a(S'here'
p745
g143
F0.9754
tp746
a(g25
g12
F0.9982
tp747
asI265
(lp748
(g15
g3
F0.9983
tp749
a(S'was'
p750
g6
F0.9999
tp751
a(S'being'
p752
g6
F0.9819
tp753
a(S'captain'
p754
g9
F0.9469
tp755
a(g57
g77
F0.4603
tp756
a(S'...'
p757
g12
F0.5547
tp758
asI270
(lp759
(S'mama'
p760
g9
F0.7831
tp761
a(S'mama'
p762
g9
F0.9567
tp763
a(g15
g3
F0.9892
tp764
a(S'love'
p765
g6
F0.9994
tp766
a(S'my'
p767
g88
F0.9941
tp768
a(S'mother'
p769
g9
F0.9977
tp770
a(g90
g12
F0.9849
tp771
a(g11
g12
F0.991
tp772
a(g93
g12
F0.9802
tp773
a(g25
g12
F0.9959
tp774
asI274
(lp775
(g15
g3
F0.9967
tp776
a(S'love'
p777
g6
F0.9994
tp778
a(S'my'
p779
g88
F0.994
tp780
a(S'mother'
p781
g9
F0.99
tp782
a(S'(.)'
p783
g205
F0.4478
tp784
a(g11
g12
F0.9733
tp785
asI278
(lp786
(g15
g3
F0.9967
tp787
a(S'love'
p788
g6
F0.9994
tp789
a(S'my'
p790
g88
F0.994
tp791
a(S'mother'
p792
g9
F0.9972
tp793
a(g90
g12
F0.9849
tp794
a(g11
g12
F0.988
tp795
a(g93
g12
F0.9773
tp796
a(g25
g12
F0.9962
tp797
asI282
(lp798
(g15
g3
F0.9967
tp799
a(S'love'
p800
g6
F0.9994
tp801
a(S'my'
p802
g88
F0.994
tp803
a(S'mother'
p804
g9
F0.9948
tp805
a(g57
g77
F0.4097
tp806
a(S'...'
p807
g12
F0.5547
tp808
asI286
(lp809
(S'xxx'
p810
g205
F0.5822
tp811
a(g25
g12
F0.9648
tp812
asI287
(lp813
(g213
g61
F0.9526
tp814
a(g15
g3
F0.9975
tp815
a(S'love'
p816
g6
F0.9807
tp817
a(g208
g205
F0.5015
tp818
a(S'[/]'
p819
g205
F0.5822
tp820
a(g15
g3
F0.9935
tp821
a(S'love'
p822
g6
F0.9993
tp823
a(S'my'
p824
g88
F0.9472
tp825
a(S'march'
p826
g9
F0.844
tp827
a(g25
g12
F0.9974
tp828
asI291
(lp829
(g15
g3
F0.9967
tp830
a(S'love'
p831
g6
F0.9994
tp832
a(S'my'
p833
g88
F0.9923
tp834
a(S'mother'
p835
g9
F0.998
tp836
a(g25
g12
F0.9985
tp837
asI295
(lp838
(S'brush'
p839
g6
F0.861
tp840
a(S'my'
p841
g88
F0.9984
tp842
a(S'teeth'
p843
g9
F0.9981
tp844
a(S'(.)'
p845
g205
F0.3317
tp846
a(g25
g12
F0.9675
tp847
asI299
(lp848
(S'xxx'
p849
g205
F0.5822
tp850
a(g25
g12
F0.9648
tp851
asI302
(lp852
(S'are'
p853
g6
F0.9964
tp854
a(S'you'
p855
g3
F0.9996
tp856
a(S'done'
p857
g6
F0.9836
tp858
a(g36
g12
F0.9988
tp859
asI305
(lp860
(S'no'
p861
g11
F0.8168
tp862
a(S'(.)'
p863
g9
F0.5347
tp864
a(g25
g12
F0.9976
tp865
asI308
(lp866
(S'that'
p867
g3
F0.8288
tp868
a(S'was'
p869
g6
F0.998
tp870
a(S'yyy'
p871
g143
F0.8663
tp872
a(g11
g12
F0.9965
tp873
asI311
(lp874
(S'zzz'
p875
g11
F0.3756
tp876
a(g25
g12
F0.9972
tp877
asI315
(lp878
(S'xxx'
p879
g205
F0.5822
tp880
a(g25
g12
F0.9648
tp881
asI317
(lp882
(S'zzz'
p883
g11
F0.3756
tp884
a(g25
g12
F0.9972
tp885
asI321
(lp886
(S'xxx'
p887
g205
F0.7647
tp888
a(S'(.)'
p889
g205
F0.8124
tp890
a(g25
g12
F0.9705
tp891
asI322
(lp892
(S'xxx'
p893
g205
F0.5822
tp894
a(g25
g12
F0.9648
tp895
asI324
(lp896
(S'zzz'
p897
g11
F0.3756
tp898
a(g25
g12
F0.9972
tp899
asI329
(lp900
(S'zzz'
p901
g11
F0.3756
tp902
a(g25
g12
F0.9972
tp903
asI334
(lp904
(S'Ma'
p905
g51
F0.2545
tp906
a(g12
g12
F0.9948
tp907
a(S"I'm"
p908
g380
F0.9969
tp909
a(S'done'
p910
g6
F0.7133
tp911
a(g25
g12
F0.999
tp912
asI337
(lp913
(S"you're"
p914
g380
F0.9782
tp915
a(S'all'
p916
g88
F0.7894
tp917
a(S'done'
p918
g237
F0.4068
tp919
a(g36
g12
F0.9978
tp920
asI341
(lp921
(S'yeah'
p922
g11
F0.9986
tp923
a(g25
g12
F0.997
tp924
asI344
(lp925
(S'Ma'
p926
g11
F0.457
tp927
a(g11
g12
F0.9949
tp928
as.