(dp0
I1024
(lp1
(S'no'
p2
S'!'
p3
F0.9704
tp4
a(S'.'
p5
S','
p6
F0.9989
tp7
asI514
(lp8
(S'two'
p9
S'$'
p10
F0.9609
tp11
a(S'or'
p12
S'&'
p13
F0.9884
tp14
a(S'three'
p15
g10
F0.846
tp16
a(S'bites'
p17
S'N'
p18
F0.9496
tp19
a(g5
g6
F0.9991
tp20
asI1027
(lp21
(S'when'
p22
S'R'
p23
F0.9804
tp24
a(S'you'
p25
S'O'
p26
F0.9985
tp27
a(S'come'
p28
S'V'
p29
F0.9997
tp30
a(S'back'
p31
g23
F0.8044
tp32
a(S"I'm"
p33
S'L'
p34
F0.9934
tp35
a(S'gonna'
p36
g29
F0.9968
tp37
a(S'do'
p38
g29
F0.9999
tp39
a(S'your'
p40
S'D'
p41
F0.9912
tp42
a(S'fingernails'
p43
g18
F0.9971
tp44
a(S'and'
p45
g13
F0.9968
tp46
a(S'toenails'
p47
g18
F0.9607
tp48
a(g5
g6
F0.9979
tp49
asI517
(lp50
(S'you'
p51
g26
F0.9968
tp52
a(S"don't"
p53
g29
F1.0
tp54
a(S'shove'
p55
g29
F0.9998
tp56
a(S'that'
p57
g41
F0.8842
tp58
a(S'whole'
p59
S'A'
p60
F0.9851
tp61
a(S'thing'
p62
g18
F0.998
tp63
a(S'in'
p64
S'P'
p65
F0.9987
tp66
a(S'your'
p67
g41
F0.9952
tp68
a(S'mouth'
p69
g18
F0.9999
tp70
a(g5
g6
F0.9983
tp71
asI1033
(lp72
(S'I'
p73
g26
F0.9976
tp74
a(S"can't"
p75
g29
F0.9999
tp76
a(S'hear'
p77
g29
F0.99
tp78
a(g5
g6
F0.998
tp79
asI940
(lp80
(S'if'
p81
g65
F0.997
tp82
a(S'it'
p83
g26
F0.9987
tp84
a(S'turns'
p85
g29
F0.9991
tp86
a(S'back'
p87
g23
F0.7163
tp88
a(S'<'
p89
S'~'
p90
F0.4586
tp91
a(S'to'
p92
g65
F0.9887
tp93
a(S'ice'
p94
g18
F0.6867
tp95
a(S'>'
p96
S'E'
p97
F0.5662
tp98
a(S'['
p99
g97
F0.5345
tp100
a(g96
g97
F0.9532
tp101
a(S']'
p102
g6
F0.9089
tp103
a(S'again'
p104
g23
F0.9654
tp105
a(S'+/'
p106
S'^'
p107
F0.3412
tp108
a(g5
g6
F0.9964
tp109
asI522
(lp110
(S'does'
p111
g29
F0.9995
tp112
a(S'it'
p113
g26
F0.9928
tp114
a(S'taste'
p115
g29
F0.9836
tp116
a(S'good'
p117
g60
F0.9909
tp118
a(S'from'
p119
g65
F0.9997
tp120
a(S'the'
p121
g41
F0.9979
tp122
a(S'garden'
p123
g18
F0.9396
tp124
a(S'?'
p125
g6
F0.9983
tp126
asI1036
(lp127
(S'zzz'
p128
g3
F0.3756
tp129
a(g5
g6
F0.9972
tp130
asI526
(lp131
(S'mhm'
p132
g3
F0.9761
tp133
a(g5
g6
F0.9962
tp134
asI16
(lp135
(S"how's"
p136
g34
F0.851
tp137
a(S'your'
p138
g41
F0.9302
tp139
a(S'supper'
p140
g18
F0.9942
tp141
a(S'Chi'
p142
g107
F0.516
tp143
a(g125
g6
F0.9927
tp144
asI529
(lp145
(S'yu(p'
p146
g3
F0.9864
tp147
a(S')'
p148
g6
F0.9838
tp149
a(g5
g6
F0.9958
tp150
asI532
(lp151
(S'uhhuh'
p152
g3
F0.9881
tp153
a(g5
g6
F0.997
tp154
asI21
(lp155
(S'good'
p156
g60
F0.967
tp157
a(g5
g6
F0.998
tp158
asI535
(lp159
(S'you'
p160
g26
F0.9969
tp161
a(S'can'
p162
g29
F0.9998
tp163
a(S'shake'
p164
g29
F0.9998
tp165
a(S'your'
p166
g41
F0.9966
tp167
a(S'head'
p168
g18
F0.9979
tp169
a(S'when'
p170
g23
F0.8819
tp171
a(S'your'
p172
g41
F0.9868
tp173
a(S'mouth'
p174
g18
F0.9998
tp175
a(S'is'
p176
g29
F0.9961
tp177
a(S'full'
p178
g60
F0.9848
tp179
a(g5
g6
F0.9985
tp180
asI24
(lp181
(S'is'
p182
g29
F0.9993
tp183
a(S'it'
p184
g26
F0.9903
tp185
a(S'good'
p186
g60
F0.9948
tp187
a(g125
g6
F0.9959
tp188
asI1050
(lp189
(S'okay'
p190
g3
F0.9732
tp191
a(g125
g6
F0.9976
tp192
asI28
(lp193
(S"how's"
p194
g34
F0.851
tp195
a(S'your'
p196
g41
F0.9302
tp197
a(S'supper'
p198
g18
F0.9941
tp199
a(S'Matthew'
p200
g107
F0.9461
tp201
a(g125
g6
F0.9963
tp202
asI31
(lp203
(g73
g26
F0.9937
tp204
a(g89
g90
F0.7664
tp205
a(S'put'
p206
g29
F0.9098
tp207
a(S'more'
p208
g60
F0.7523
tp209
a(g96
g97
F0.5446
tp210
a(g99
g97
F0.5345
tp211
a(g96
g97
F0.9532
tp212
a(g102
g97
F0.5163
tp213
a(S'xxx'
p214
g97
F0.9393
tp215
a(S'on'
p216
g65
F0.9847
tp217
a(S'mine'
p218
g26
F0.8687
tp219
a(g5
g6
F0.9954
tp220
asI544
(lp221
(S'finish'
p222
g29
F0.9886
tp223
a(S'up'
p224
S'T'
p225
F0.9622
tp226
a(g5
g6
F0.9978
tp227
asI34
(lp228
(S'good'
p229
g60
F0.9701
tp230
a(g99
g6
F0.9878
tp231
a(g89
g90
F0.972
tp232
a(g102
g6
F0.9847
tp233
a(g5
g6
F0.9962
tp234
asI547
(lp235
(S"you're"
p236
g34
F0.9791
tp237
a(S'the'
p238
g41
F0.9955
tp239
a(S'one'
p240
g10
F0.9214
tp241
a(S'who'
p242
g26
F0.9895
tp243
a(S'wanted'
p244
g29
F0.9972
tp245
a(S'more'
p246
g60
F0.6848
tp247
a(S'than'
p248
g65
F0.9896
tp249
a(g89
g90
F0.9123
tp250
a(S'Chi'
p251
g107
F0.8561
tp252
a(g96
g107
F0.2884
tp253
a(g99
g6
F0.9644
tp254
a(g96
g97
F0.4438
tp255
a(g102
g6
F0.7712
tp256
a(S'remember'
p257
g29
F0.9728
tp258
a(g5
g6
F0.9977
tp259
asI37
(lp260
(S'okay'
p261
g3
F0.9741
tp262
a(g5
g6
F0.9977
tp263
asI40
(lp264
(S'xxx'
p265
g97
F0.6608
tp266
a(S'better'
p267
g60
F0.9261
tp268
a(g5
g6
F0.9983
tp269
asI554
(lp270
(g89
g90
F0.9359
tp271
a(S'this'
p272
g26
F0.9681
tp273
a(S'is'
p274
g29
F0.9944
tp275
a(g96
g97
F0.5664
tp276
a(g99
g97
F0.535
tp277
a(g89
g90
F0.8293
tp278
a(g102
g6
F0.9897
tp279
a(S'black'
p280
g60
F0.9196
tp281
a(g3
g6
F0.9986
tp282
asI44
(lp283
(S'what'
p284
g26
F0.9835
tp285
a(S'are'
p286
g29
F0.9978
tp287
a(S'you'
p288
g26
F0.9995
tp289
a(S'gonna'
p290
g29
F0.9998
tp291
a(S'do'
p292
g29
F0.9997
tp293
a(S'after'
p294
g65
F0.8892
tp295
a(S'supper'
p296
g18
F0.8698
tp297
a(S'boys'
p298
g18
F0.9996
tp299
a(g125
g6
F0.9985
tp300
asI557
(lp301
(S'what'
p302
g26
F0.6658
tp303
a(S'hon(ey'
p304
g18
F0.9795
tp305
a(g148
g6
F0.9803
tp306
a(g125
g6
F0.9966
tp307
asI560
(lp308
(S"it's"
p309
g34
F0.9909
tp310
a(S'black'
p311
g60
F0.9834
tp312
a(g5
g6
F0.9979
tp313
asI50
(lp314
(S'play'
p315
g29
F0.9823
tp316
a(S'outside'
p317
g60
F0.3781
tp318
a(S'before'
p319
g65
F0.9751
tp320
a(S'it'
p321
g26
F0.9985
tp322
a(S'even'
p323
g23
F0.9947
tp324
a(S'gets'
p325
g29
F0.9994
tp326
a(S'dark'
p327
g60
F0.7528
tp328
a(g5
g6
F0.9986
tp329
asI563
(lp330
(S"that's"
p331
g34
F0.9582
tp332
a(S'part'
p333
g18
F0.9881
tp334
a(S'of'
p335
g65
F0.9992
tp336
a(S'the'
p337
g41
F0.9991
tp338
a(S'fish'
p339
g18
F0.9983
tp340
a(g5
g6
F0.9982
tp341
asI854
(lp342
(S'oh'
p343
g3
F0.9878
tp344
a(S'you'
p345
g26
F0.9888
tp346
a(S'already'
p347
g23
F0.9967
tp348
a(S'ate'
p349
g29
F0.9905
tp350
a(S'half'
p351
g18
F0.475
tp352
a(S'of'
p353
g65
F0.9985
tp354
a(S'it'
p355
g26
F0.994
tp356
a(S'(.)'
p357
g97
F0.2307
tp358
a(g125
g6
F0.9799
tp359
asI53
(lp360
(S'what'
p361
g26
F0.9171
tp362
a(g125
g6
F0.9924
tp363
asI567
(lp364
(S'you'
p365
g26
F0.998
tp366
a(S'want'
p367
g29
F0.9999
tp368
a(S'that'
p369
g41
F0.7127
tp370
a(S'one'
p371
g10
F0.8983
tp372
a(S'Chi'
p373
g107
F0.9077
tp374
a(S'(.)'
p375
g107
F0.8405
tp376
a(g125
g6
F0.9948
tp377
asI56
(lp378
(S'play'
p379
g29
F0.9823
tp380
a(S'outside'
p381
g60
F0.3781
tp382
a(S'before'
p383
g65
F0.9751
tp384
a(S'it'
p385
g26
F0.9985
tp386
a(S'even'
p387
g23
F0.9947
tp388
a(S'gets'
p389
g29
F0.9995
tp390
a(S'dark'
p391
g60
F0.9221
tp392
a(S'(.)'
p393
g18
F0.2878
tp394
a(g5
g6
F0.9982
tp395
asI571
(lp396
(S'would'
p397
g29
F0.9987
tp398
a(S'you'
p399
g26
F0.9948
tp400
a(S'like'
p401
g29
F0.8805
tp402
a(S'that'
p403
g41
F0.5965
tp404
a(S'one'
p405
g10
F0.8772
tp406
a(S'Chi'
p407
g107
F0.9239
tp408
a(g125
g6
F0.9915
tp409
asI60
(lp410
(S"when's"
p411
g34
F0.8872
tp412
a(S'it'
p413
g26
F0.9958
tp414
a(S'[='
p415
g97
F0.8315
tp416
a(S'tape'
p417
g18
F0.9836
tp418
a(S'recorder'
p419
g18
F0.9983
tp420
a(g102
g6
F0.994
tp421
a(S'gonna'
p422
g29
F0.9962
tp423
a(S'go'
p424
g29
F0.9983
tp425
a(S'on'
p426
g65
F0.7521
tp427
a(g125
g6
F0.997
tp428
asI778
(lp429
(S'drink'
p430
g29
F0.9561
tp431
a(S'up'
p432
g225
F0.8503
tp433
a(S'your'
p434
g41
F0.8499
tp435
a(g99
g6
F0.9637
tp436
a(g96
g97
F0.4438
tp437
a(g102
g6
F0.7843
tp438
a(S'milk'
p439
g18
F0.9774
tp440
a(S'Chi'
p441
g107
F0.6006
tp442
a(g5
g6
F0.993
tp443
asI63
(lp444
(S"it's"
p445
g34
F0.9981
tp446
a(S'on'
p447
g65
F0.877
tp448
a(g3
g6
F0.9948
tp449
asI576
(lp450
(S'no'
p451
g3
F0.9596
tp452
a(g125
g6
F0.9962
tp453
asI66
(lp454
(S'then'
p455
g23
F0.9855
tp456
a(S'when'
p457
g23
F0.7475
tp458
a(S'is'
p459
g29
F0.9995
tp460
a(S'it'
p461
g26
F0.9988
tp462
a(S'gonna'
p463
g29
F0.999
tp464
a(S'talk'
p465
g29
F0.9786
tp466
a(g125
g6
F0.9978
tp467
asI580
(lp468
(S'ouch'
p469
g3
F0.9984
tp470
a(g3
g6
F0.996
tp471
asI69
(lp472
(S"it's"
p473
g34
F0.9939
tp474
a(S'recording'
p475
g29
F0.9755
tp476
a(S'what'
p477
g26
F0.972
tp478
a(S"you're"
p479
g34
F0.9854
tp480
a(S'saying'
p481
g29
F0.9914
tp482
a(g5
g6
F0.9978
tp483
asI583
(lp484
(S'come'
p485
g29
F0.9888
tp486
a(S'here'
p487
g23
F0.9592
tp488
a(S'kitty'
p489
g18
F0.9281
tp490
a(g5
g6
F0.9984
tp491
asI73
(lp492
(S'oh'
p493
g3
F0.9969
tp494
a(S'(.)'
p495
g3
F0.4645
tp496
a(g5
g6
F0.9973
tp497
asI586
(lp498
(S'kitty'
p499
g18
F0.9024
tp500
a(S'just'
p501
g23
F0.9946
tp502
a(S'bit'
p503
g29
F0.8651
tp504
a(S'me'
p505
g26
F0.9958
tp506
a(g5
g6
F0.9984
tp507
asI77
(lp508
(g73
g26
F0.9976
tp509
a(S"don't"
p510
g29
F1.0
tp511
a(S'know'
p512
g29
F0.9996
tp513
a(S'why'
p514
g23
F0.9694
tp515
a(g5
g6
F0.9966
tp516
asI788
(lp517
(g89
g90
F0.9365
tp518
a(S'some'
p519
g41
F0.9807
tp520
a(S'fish'
p521
g18
F0.9929
tp522
a(S'have'
p523
g29
F0.9851
tp524
a(S'black'
p525
g60
F0.8655
tp526
a(S'yup'
p527
g3
F0.8362
tp528
a(g96
g97
F0.5684
tp529
a(g99
g97
F0.5345
tp530
a(g96
g97
F0.9577
tp531
a(g102
g6
F0.795
tp532
a(g5
g6
F0.9964
tp533
asI80
(lp534
(S'just'
p535
g23
F0.9992
tp536
a(S'eat'
p537
g29
F0.987
tp538
a(S'(.)'
p539
g107
F0.2177
tp540
a(S'normally'
p541
g23
F0.9789
tp542
a(S'(.)'
p543
g97
F0.2431
tp544
a(g5
g6
F0.9509
tp545
asI595
(lp546
(S"he's"
p547
g34
F0.9729
tp548
a(S'playful'
p549
g60
F0.9916
tp550
a(g99
g6
F0.9861
tp551
a(g3
g6
F0.9922
tp552
a(g102
g6
F0.9826
tp553
a(S'today'
p554
g18
F0.9893
tp555
a(S'huh'
p556
g3
F0.8683
tp557
a(S'(.)'
p558
g107
F0.3584
tp559
a(g125
g6
F0.9964
tp560
asI84
(lp561
(S'zzz'
p562
S'G'
p563
F0.5434
tp564
a(S'(.)'
p565
g563
F0.453
tp566
a(g5
g6
F0.9899
tp567
asI598
(lp568
(S'ouch'
p569
g3
F0.9984
tp570
a(g3
g6
F0.996
tp571
asI88
(lp572
(S'Mom'
p573
g18
F0.7966
tp574
a(S'can'
p575
g29
F0.9983
tp576
a(g73
g26
F0.9988
tp577
a(S'go'
p578
g29
F0.9987
tp579
a(S'get'
p580
g29
F0.9961
tp581
a(S'some'
p582
g41
F0.9442
tp583
a(S'more'
p584
g60
F0.9859
tp585
a(S'ketchup'
p586
g18
F0.9972
tp587
a(g125
g6
F0.9979
tp588
asI601
(lp589
(S"don't"
p590
g29
F0.9982
tp591
a(S'fight'
p592
g29
F0.9306
tp593
a(g5
g6
F0.9969
tp594
asI604
(lp595
(S"don't"
p596
g29
F0.999
tp597
a(S'talk'
p598
g29
F0.9992
tp599
a(S'with'
p600
g65
F0.9979
tp601
a(S'food'
p602
g18
F0.9718
tp603
a(g99
g6
F0.979
tp604
a(g3
g6
F0.9901
tp605
a(g102
g6
F0.9798
tp606
a(S'in'
p607
g65
F0.9852
tp608
a(S'your'
p609
g41
F0.9958
tp610
a(S'mouth'
p611
g18
F0.9998
tp612
a(g5
g6
F0.9985
tp613
asI93
(lp614
(S"can't"
p615
g29
F0.9958
tp616
a(S'hear'
p617
g29
F0.9993
tp618
a(S'you'
p619
g26
F0.9978
tp620
a(g5
g6
F0.9996
tp621
asI96
(lp622
(g89
g90
F0.9128
tp623
a(S"don't>"
p624
g29
F0.9977
tp625
a(S'[//]'
p626
g29
F0.2061
tp627
a(g89
g90
F0.8241
tp628
a(S"you're>"
p629
g34
F0.853
tp630
a(g99
g6
F0.9726
tp631
a(g96
g97
F0.4438
tp632
a(g102
g6
F0.8832
tp633
a(S'talking'
p634
g29
F0.9781
tp635
a(S'with'
p636
g65
F0.9979
tp637
a(S'food'
p638
g18
F0.9715
tp639
a(S'in'
p640
g65
F0.9979
tp641
a(S'your'
p642
g41
F0.9965
tp643
a(S'mouth'
p644
g18
F0.9999
tp645
a(g5
g6
F0.9984
tp646
asI609
(lp647
(g73
g26
F0.9962
tp648
a(S'just'
p649
g23
F0.9987
tp650
a(S'have'
p651
g29
F0.9863
tp652
a(S'one'
p653
g10
F0.9565
tp654
a(S'more'
p655
g60
F0.6101
tp656
a(S'to'
p657
g65
F0.9974
tp658
a(S'go'
p659
g29
F0.9984
tp660
a(S'then'
p661
g23
F0.9941
tp662
a(S"I'm"
p663
g34
F0.9949
tp664
a(S'all'
p665
g41
F0.6369
tp666
a(S'done'
p667
g60
F0.4576
tp668
a(g5
g6
F0.9984
tp669
asI614
(lp670
(S'excellent'
p671
g60
F0.9614
tp672
a(g99
g6
F0.9892
tp673
a(g3
g6
F0.9842
tp674
a(g102
g6
F0.9616
tp675
a(S'Chi'
p676
g107
F0.9156
tp677
a(S'come'
p678
g29
F0.9934
tp679
a(S'on'
p680
g65
F0.8936
tp681
a(S'drink'
p682
g29
F0.5267
tp683
a(S'up'
p684
g225
F0.8525
tp685
a(S'your'
p686
g41
F0.9885
tp687
a(S'milk'
p688
g18
F0.9996
tp689
a(g5
g6
F0.9977
tp690
asI102
(lp691
(g89
g90
F0.9774
tp692
a(S'hey'
p693
g3
F0.996
tp694
a(S'[/]'
p695
g6
F0.2437
tp696
a(g96
g97
F0.4903
tp697
a(g99
g6
F0.7297
tp698
a(S'<][>'
p699
g97
F0.4283
tp700
a(g102
g6
F0.8588
tp701
a(g5
g6
F0.9962
tp702
asI104
(lp703
(S'clear'
p704
g60
F0.65
tp705
a(S'your'
p706
g41
F0.9893
tp707
a(S'mouth'
p708
g18
F0.9999
tp709
a(S'out'
p710
g65
F0.6784
tp711
a(S'and'
p712
g13
F0.9978
tp713
a(S'then'
p714
g23
F0.9928
tp715
a(S"I'll"
p716
g34
F0.9894
tp717
a(S'hear'
p718
g29
F0.9985
tp719
a(S'you'
p720
g26
F0.9965
tp721
a(S'(.)'
p722
g6
F0.3078
tp723
a(g5
g6
F0.9963
tp724
asI619
(lp725
(S'are'
p726
g29
F0.9964
tp727
a(S'you'
p728
g26
F0.9992
tp729
a(S'still'
p730
g23
F0.9987
tp731
a(S'hungry'
p732
g60
F0.9941
tp733
a(S'honey'
p734
g18
F0.9605
tp735
a(g125
g6
F0.9975
tp736
asI111
(lp737
(S'can'
p738
g29
F0.9938
tp739
a(g73
g26
F0.9989
tp740
a(S'go'
p741
g29
F0.999
tp742
a(S'get'
p743
g29
F0.9958
tp744
a(S'some'
p745
g41
F0.9442
tp746
a(S'more'
p747
g60
F0.9348
tp748
a(S'&-um'
p749
g563
F0.4943
tp750
a(S'(.)'
p751
g563
F0.4112
tp752
a(S'ketchup'
p753
g18
F0.9778
tp754
a(g125
g6
F0.9977
tp755
asI114
(lp756
(S'yes'
p757
g3
F0.9961
tp758
a(g5
g6
F0.9972
tp759
asI627
(lp760
(S'me'
p761
g26
F0.9951
tp762
a(S'too'
p763
g23
F0.9928
tp764
a(g5
g6
F0.9972
tp765
asI117
(lp766
(S'why'
p767
g23
F0.9408
tp768
a(g125
g6
F0.9946
tp769
asI630
(lp770
(S'good'
p771
g60
F0.967
tp772
a(g5
g6
F0.998
tp773
asI120
(lp774
(S'('
p775
g6
F0.9736
tp776
a(S'be)cause'
p777
g65
F0.9967
tp778
a(g73
g26
F0.9995
tp779
a(S'need'
p780
g29
F0.9997
tp781
a(S'some'
p782
g41
F0.9118
tp783
a(S'more'
p784
g60
F0.9266
tp785
a(g5
g6
F0.9985
tp786
asI633
(lp787
(S'xxx'
p788
g97
F0.6465
tp789
a(S'a'
p790
g41
F0.9928
tp791
a(S'little'
p792
g60
F0.9957
tp793
a(S'bit'
p794
g18
F0.8333
tp795
a(S'hungry'
p796
g60
F0.8078
tp797
a(g5
g6
F0.9977
tp798
asI123
(lp799
(S'what'
p800
g26
F0.9758
tp801
a(S'for'
p802
g65
F0.9867
tp803
a(g125
g6
F0.9946
tp804
asI636
(lp805
(S'xxx'
p806
g97
F0.6465
tp807
a(g790
g41
F0.9928
tp808
a(S'little'
p809
g60
F0.9957
tp810
a(S'bit'
p811
g18
F0.8333
tp812
a(S'hungry'
p813
g60
F0.8261
tp814
a(g125
g6
F0.9968
tp815
asI126
(lp816
(S'for'
p817
g65
F0.9993
tp818
a(S'my'
p819
g41
F0.9502
tp820
a(S'(.)'
p821
g107
F0.2492
tp822
a(S'fish'
p823
g18
F0.9405
tp824
a(g5
g6
F0.9987
tp825
asI640
(lp826
(g790
g41
F0.9956
tp827
a(S'little'
p828
g60
F0.9983
tp829
a(S'bit'
p830
g18
F0.8922
tp831
a(S'hungry'
p832
g60
F0.8412
tp833
a(g5
g6
F0.9983
tp834
asI130
(lp835
(S'xxx'
p836
g97
F0.7647
tp837
a(S'(.)'
p838
g97
F0.8124
tp839
a(g5
g6
F0.9705
tp840
asI643
(lp841
(S"you'll"
p842
g34
F0.9814
tp843
a(S'have'
p844
g29
F0.9967
tp845
a(g99
g6
F0.9804
tp846
a(g96
g97
F0.4857
tp847
a(g102
g6
F0.8384
tp848
a(g790
g41
F0.9859
tp849
a(S'nice'
p850
g60
F0.9964
tp851
a(S'snack'
p852
g18
F0.9955
tp853
a(S"how's"
p854
g34
F0.814
tp855
a(S'that'
p856
g26
F0.4832
tp857
a(g125
g6
F0.9986
tp858
asI132
(lp859
(S'xxx'
p860
g97
F0.5822
tp861
a(g5
g6
F0.9648
tp862
asI133
(lp863
(S"didn't"
p864
g29
F0.9985
tp865
a(S'watch'
p866
g29
F0.9993
tp867
a(S'that'
p868
g26
F0.7356
tp869
a(S'xxx'
p870
g97
F0.3566
tp871
a(g5
g6
F0.9688
tp872
asI705
(lp873
(S'Matthew'
p874
g107
F0.9938
tp875
a(g125
g6
F0.9951
tp876
asI136
(lp877
(S'zzz'
p878
g563
F0.5434
tp879
a(S'(.)'
p880
g563
F0.453
tp881
a(g5
g6
F0.9899
tp882
asI649
(lp883
(S'yeah'
p884
g3
F0.9951
tp885
a(g99
g6
F0.9925
tp886
a(S'<][>'
p887
g97
F0.2489
tp888
a(g102
g6
F0.862
tp889
a(g5
g6
F0.9962
tp890
asI1047
(lp891
(S'well'
p892
g3
F0.741
tp893
a(S'you'
p894
g26
F0.9994
tp895
a(S'could'
p896
g29
F0.9997
tp897
a(S'be'
p898
g29
F0.9956
tp899
a(S'first'
p900
g23
F0.5573
tp901
a(g3
g6
F0.9979
tp902
asI140
(lp903
(g73
g26
F0.9982
tp904
a(S'think'
p905
g29
F0.9997
tp906
a(S"he's"
p907
g34
F0.996
tp908
a(S'gonna'
p909
g29
F0.9819
tp910
a(S'dip'
p911
g29
F0.9988
tp912
a(S'it'
p913
g26
F0.984
tp914
a(g5
g6
F0.9989
tp915
asI962
(lp916
(S'whoa'
p917
g3
F0.9906
tp918
a(g99
g6
F0.9796
tp919
a(g89
g90
F0.972
tp920
a(g102
g6
F0.9847
tp921
a(g5
g6
F0.9962
tp922
asI877
(lp923
(S'you'
p924
g26
F0.9766
tp925
a(S'all'
p926
g41
F0.9341
tp927
a(S'done'
p928
g29
F0.8808
tp929
a(S'with'
p930
g65
F0.9991
tp931
a(S'your'
p932
g41
F0.9947
tp933
a(S'milk'
p934
g18
F0.9991
tp935
a(g125
g6
F0.9976
tp936
asI656
(lp937
(g89
g90
F0.9267
tp938
a(S'are'
p939
g29
F0.9974
tp940
a(S'you'
p941
g26
F0.9996
tp942
a(S'going'
p943
g29
F0.998
tp944
a(g96
g97
F0.5134
tp945
a(g99
g97
F0.535
tp946
a(g89
g90
F0.8293
tp947
a(g102
g6
F0.9849
tp948
a(S'to'
p949
g65
F0.9942
tp950
a(S'bring'
p951
g29
F1.0
tp952
a(S'the'
p953
g41
F0.9993
tp954
a(S'ice'
p955
g18
F0.9068
tp956
a(S'cream'
p957
g18
F0.9475
tp958
a(S'home'
p959
g18
F0.9868
tp960
a(g125
g6
F0.9984
tp961
asI145
(lp962
(S'fish'
p963
g18
F0.9715
tp964
a(S'sticks'
p965
g18
F0.8377
tp966
a(g5
g6
F0.999
tp967
asI148
(lp968
(S'what'
p969
g26
F0.9171
tp970
a(g125
g6
F0.9924
tp971
asI662
(lp972
(S'no'
p973
g3
F0.8449
tp974
a(S"I'm"
p975
g34
F0.9977
tp976
a(S'not'
p977
g23
F0.9982
tp978
a(S'going'
p979
g29
F0.9976
tp980
a(S'[///]'
p981
g6
F0.6397
tp982
a(S'oh'
p983
g3
F0.9881
tp984
a(g73
g26
F0.9986
tp985
a(S'forgot'
p986
g29
F0.9999
tp987
a(S'to'
p988
g65
F0.9937
tp989
a(S'bring'
p990
g29
F1.0
tp991
a(S'it'
p992
g26
F0.9832
tp993
a(S'home'
p994
g18
F0.7996
tp995
a(g5
g6
F0.9986
tp996
asI151
(lp997
(S'give'
p998
g29
F0.8965
tp999
a(g99
g6
F0.9891
tp1000
a(g125
g6
F0.976
tp1001
a(g102
g6
F0.9225
tp1002
a(S'fish'
p1003
g18
F0.9776
tp1004
a(S'sticks'
p1005
g29
F0.5753
tp1006
a(S'to'
p1007
g65
F0.9964
tp1008
a(S'Chi'
p1009
g107
F0.9784
tp1010
a(g5
g6
F0.993
tp1011
asI154
(lp1012
(S'thanks'
p1013
g18
F0.8652
tp1014
a(S'Mom'
p1015
g18
F0.9151
tp1016
a(g5
g6
F0.9984
tp1017
asI623
(lp1018
(S'why'
p1019
g23
F0.9446
tp1020
a(S"don't"
p1021
g29
F0.9999
tp1022
a(S'you'
p1023
g26
F0.9975
tp1024
a(S'xxx'
p1025
g29
F0.6023
tp1026
a(S'good'
p1027
g60
F0.9893
tp1028
a(g125
g6
F0.9957
tp1029
asI157
(lp1030
(S'good'
p1031
g60
F0.9939
tp1032
a(S'boy'
p1033
g18
F0.9984
tp1034
a(g5
g6
F0.9982
tp1035
asI670
(lp1036
(S'the'
p1037
g41
F0.9969
tp1038
a(S'ice'
p1039
g18
F0.8748
tp1040
a(S'cream'
p1041
g18
F0.9832
tp1042
a(S'from'
p1043
g65
F0.9991
tp1044
a(S"Grandma's"
p1045
g107
F0.3958
tp1046
a(g5
g6
F0.9947
tp1047
asI160
(lp1048
(S'thank'
p1049
g29
F0.9661
tp1050
a(S'you'
p1051
g26
F0.9984
tp1052
a(S'(.)'
p1053
g6
F0.32
tp1054
a(g5
g6
F0.9962
tp1055
asI673
(lp1056
(S'sorry'
p1057
g60
F0.5791
tp1058
a(g5
g6
F0.9974
tp1059
asI163
(lp1060
(S'zzz'
p1061
g3
F0.3756
tp1062
a(g5
g6
F0.9972
tp1063
asI676
(lp1064
(g73
g26
F0.9982
tp1065
a(S'told'
p1066
g29
F1.0
tp1067
a(S'you'
p1068
g26
F0.9989
tp1069
a(S'to'
p1070
g65
F0.9873
tp1071
a(S'remind'
p1072
g29
F1.0
tp1073
a(S'her'
p1074
g26
F0.9241
tp1075
a(g5
g6
F0.9983
tp1076
asI167
(lp1077
(S'Mama'
p1078
g18
F0.7995
tp1079
a(g125
g6
F0.9974
tp1080
asI680
(lp1081
(S'maybe'
p1082
g23
F0.9792
tp1083
a(S"we'll"
p1084
g34
F0.9597
tp1085
a(S'go'
p1086
g29
F0.9989
tp1087
a(S'for'
p1088
g65
F0.9982
tp1089
a(S'an'
p1090
g41
F0.9921
tp1091
a(S'ice'
p1092
g18
F0.9491
tp1093
a(S'cream'
p1094
g18
F0.9616
tp1095
a(S'tomorrow'
p1096
g18
F0.9876
tp1097
a(g5
g6
F0.9969
tp1098
asI540
(lp1099
(S'yuck'
p1100
g3
F0.9962
tp1101
a(g5
g6
F0.9962
tp1102
asI171
(lp1103
(S'what'
p1104
g26
F0.7738
tp1105
a(S'babe'
p1106
g18
F0.9861
tp1107
a(g125
g6
F0.998
tp1108
asI685
(lp1109
(S'goo'
p1110
g29
F0.5045
tp1111
a(S'(.)'
p1112
g97
F0.4727
tp1113
a(S'yyy'
p1114
g23
F0.5009
tp1115
a(g5
g6
F0.9953
tp1116
asI175
(lp1117
(S'&-um'
p1118
g3
F0.7959
tp1119
a(S'(.)'
p1120
g107
F0.2466
tp1121
a(S'after'
p1122
g65
F0.9422
tp1123
a(S'what'
p1124
g26
F0.9989
tp1125
a(g99
g6
F0.9754
tp1126
a(g125
g6
F0.9841
tp1127
a(g102
g6
F0.9156
tp1128
a(g73
g26
F0.9976
tp1129
a(S'been'
p1130
g29
F0.9992
tp1131
a(S'eating'
p1132
g29
F0.9999
tp1133
a(S'you'
p1134
g26
F0.9995
tp1135
a(S'could'
p1136
g29
F0.9995
tp1137
a(S'come'
p1138
g29
F0.9946
tp1139
a(S'and'
p1140
g13
F0.9931
tp1141
a(S'xxx'
p1142
g97
F0.5716
tp1143
a(S'(.)'
p1144
g97
F0.9106
tp1145
a(S'&-um'
p1146
g3
F0.7168
tp1147
a(S'+/'
p1148
g107
F0.252
tp1149
a(g5
g6
F0.9935
tp1150
asI688
(lp1151
(S'good'
p1152
g60
F0.9939
tp1153
a(S'boy'
p1154
g18
F0.9984
tp1155
a(g5
g6
F0.9982
tp1156
asI691
(lp1157
(g89
g90
F0.9768
tp1158
a(S'oh'
p1159
g3
F0.9899
tp1160
a(S'my'
p1161
g41
F0.6853
tp1162
a(g96
g563
F0.3775
tp1163
a(S'[/]'
p1164
g563
F0.3216
tp1165
a(S'oh'
p1166
g3
F0.9153
tp1167
a(S'my'
p1168
g41
F0.933
tp1169
a(S'god'
p1170
g18
F0.612
tp1171
a(g5
g6
F0.998
tp1172
asI180
(lp1173
(g89
g90
F0.9048
tp1174
a(S"we'll"
p1175
g34
F0.9479
tp1176
a(S'see'
p1177
g29
F0.9975
tp1178
a(S'[/]'
p1179
g6
F0.3521
tp1180
a(g96
g97
F0.4513
tp1181
a(g99
g97
F0.5345
tp1182
a(g96
g97
F0.9732
tp1183
a(g102
g6
F0.8062
tp1184
a(g5
g6
F0.9969
tp1185
asI694
(lp1186
(S"I've"
p1187
g34
F0.9786
tp1188
a(S'had'
p1189
g29
F0.9952
tp1190
a(g89
g90
F0.8486
tp1191
a(S'that'
p1192
g41
F0.5701
tp1193
a(S'one'
p1194
g10
F0.819
tp1195
a(g99
g6
F0.9839
tp1196
a(g125
g6
F0.9841
tp1197
a(g102
g6
F0.7796
tp1198
a(g96
g97
F0.5377
tp1199
a(g99
g97
F0.5345
tp1200
a(g96
g97
F0.9597
tp1201
a(g102
g6
F0.6916
tp1202
a(g5
g6
F0.9952
tp1203
asI183
(lp1204
(g89
g90
F0.9117
tp1205
a(S"I'm"
p1206
g34
F0.9981
tp1207
a(S'not'
p1208
g23
F0.9965
tp1209
a(S'xxx'
p1210
g97
F0.7267
tp1211
a(g96
g97
F0.9474
tp1212
a(g99
g97
F0.535
tp1213
a(g89
g90
F0.8293
tp1214
a(g102
g6
F0.9871
tp1215
a(S'there'
p1216
g23
F0.81
tp1217
a(g5
g6
F0.998
tp1218
asI697
(lp1219
(S'eat'
p1220
g29
F0.7645
tp1221
a(g99
g6
F0.9895
tp1222
a(g89
g90
F0.9843
tp1223
a(g102
g6
F0.99
tp1224
a(S'that'
p1225
g41
F0.7825
tp1226
a(S'last'
p1227
g60
F0.9967
tp1228
a(S'one'
p1229
g10
F0.9148
tp1230
a(S'Mat'
p1231
g18
F0.771
tp1232
a(g5
g6
F0.999
tp1233
asI186
(lp1234
(S"we'll"
p1235
g34
F0.9665
tp1236
a(S'see'
p1237
g29
F0.9979
tp1238
a(S'how'
p1239
g23
F0.9926
tp1240
a(S'good'
p1241
g60
F0.9921
tp1242
a(S'you'
p1243
g26
F0.9962
tp1244
a(S'behave'
p1245
g29
F0.9985
tp1246
a(g5
g6
F0.9981
tp1247
asI700
(lp1248
(S'pick'
p1249
g29
F0.9864
tp1250
a(S'the'
p1251
g41
F0.9993
tp1252
a(S'black'
p1253
g60
F0.6038
tp1254
a(S'out'
p1255
g65
F0.7206
tp1256
a(S'if'
p1257
g65
F0.9983
tp1258
a(S'it'
p1259
g26
F0.9991
tp1260
a(S'bothers'
p1261
g29
F0.9997
tp1262
a(S'you'
p1263
g26
F0.9981
tp1264
a(g5
g6
F0.9996
tp1265
asI190
(lp1266
(S'no'
p1267
g3
F0.9704
tp1268
a(g5
g6
F0.9989
tp1269
asI193
(lp1270
(g89
g90
F0.8709
tp1271
a(S'that'
p1272
g41
F0.7826
tp1273
a(S'way'
p1274
g18
F0.9487
tp1275
a(S'[/]'
p1276
g6
F0.4335
tp1277
a(g96
g97
F0.4513
tp1278
a(g99
g97
F0.5345
tp1279
a(g96
g97
F0.9732
tp1280
a(g102
g6
F0.6496
tp1281
a(g125
g6
F0.9965
tp1282
asI708
(lp1283
(S'memem'
p1284
g563
F0.2248
tp1285
a(S'@b'
p1286
S'@'
p1287
F0.9949
tp1288
a(g5
g6
F0.9949
tp1289
asI197
(lp1290
(g89
g90
F0.9117
tp1291
a(S"I'm"
p1292
g34
F0.9953
tp1293
a(S'playing'
p1294
g29
F0.9959
tp1295
a(g96
g97
F0.5247
tp1296
a(g99
g97
F0.535
tp1297
a(g89
g90
F0.8293
tp1298
a(g102
g6
F0.9876
tp1299
a(S'cards'
p1300
g18
F0.9385
tp1301
a(g5
g6
F0.9985
tp1302
asI711
(lp1303
(S'water'
p1304
g18
F0.9667
tp1305
a(g89
g90
F0.4176
tp1306
a(S'water'
p1307
g18
F0.9463
tp1308
a(S'water'
p1309
g18
F0.994
tp1310
a(g96
g97
F0.5181
tp1311
a(g99
g97
F0.5345
tp1312
a(g96
g97
F0.9732
tp1313
a(g102
g6
F0.8062
tp1314
a(g5
g6
F0.9969
tp1315
asI200
(lp1316
(S'yes'
p1317
g3
F0.9961
tp1318
a(g5
g6
F0.9972
tp1319
asI714
(lp1320
(g89
g90
F0.9351
tp1321
a(S'eat'
p1322
g29
F0.9916
tp1323
a(S'the'
p1324
g41
F0.9997
tp1325
a(S'last'
p1326
g60
F0.9981
tp1327
a(S'one'
p1328
g10
F0.8196
tp1329
a(g96
g97
F0.6304
tp1330
a(g99
g97
F0.535
tp1331
a(g89
g90
F0.7916
tp1332
a(g102
g6
F0.9861
tp1333
a(g5
g6
F0.9959
tp1334
asI203
(lp1335
(S"that's"
p1336
g34
F0.9949
tp1337
a(S'what'
p1338
g26
F0.9854
tp1339
a(g73
g26
F0.9995
tp1340
a(S'meant'
p1341
g29
F0.9937
tp1342
a(g5
g6
F0.9973
tp1343
asI206
(lp1344
(S'not'
p1345
g23
F0.99
tp1346
a(S'playing'
p1347
g29
F0.9983
tp1348
a(S'cards'
p1349
g18
F0.9846
tp1350
a(g5
g6
F0.9982
tp1351
asI209
(lp1352
(g73
g26
F0.9983
tp1353
a(S'wan(t'
p1354
g29
F0.9996
tp1355
a(g148
g6
F0.9323
tp1356
a(g775
g6
F0.9591
tp1357
a(S't)a'
p1358
g65
F0.7742
tp1359
a(S'play'
p1360
g29
F0.9037
tp1361
a(S'cards'
p1362
g18
F0.9716
tp1363
a(g99
g6
F0.984
tp1364
a(g3
g6
F0.993
tp1365
a(g102
g6
F0.9712
tp1366
a(g5
g6
F0.9964
tp1367
asI723
(lp1368
(S'before'
p1369
g65
F0.6468
tp1370
a(g99
g6
F0.9795
tp1371
a(g96
g97
F0.3811
tp1372
a(g102
g6
F0.7604
tp1373
a(g5
g6
F0.9962
tp1374
asI212
(lp1375
(g73
g26
F0.9983
tp1376
a(S'want'
p1377
g29
F0.9996
tp1378
a(S'one'
p1379
g10
F0.9632
tp1380
a(S'of'
p1381
g65
F0.9974
tp1382
a(S'that'
p1383
g26
F0.9357
tp1384
a(g5
g6
F0.9984
tp1385
asI718
(lp1386
(S'pick'
p1387
g29
F0.9864
tp1388
a(S'the'
p1389
g41
F0.9993
tp1390
a(S'piece'
p1391
g18
F0.9983
tp1392
a(S'of'
p1393
g65
F0.9959
tp1394
a(S'black'
p1395
g60
F0.7689
tp1396
a(S'out'
p1397
g65
F0.7296
tp1398
a(S'if'
p1399
g65
F0.9983
tp1400
a(S'it'
p1401
g26
F0.9991
tp1402
a(S'bothers'
p1403
g29
F0.9998
tp1404
a(S'you'
p1405
g26
F0.9965
tp1406
a(g5
g6
F0.9996
tp1407
asI726
(lp1408
(g89
g90
F0.9328
tp1409
a(S"it's"
p1410
g34
F0.9956
tp1411
a(g790
g41
F0.9974
tp1412
a(S'huge'
p1413
g60
F0.9691
tp1414
a(g96
g97
F0.4882
tp1415
a(g99
g97
F0.535
tp1416
a(g89
g90
F0.8293
tp1417
a(g102
g6
F0.9729
tp1418
a(S'one'
p1419
g10
F0.8913
tp1420
a(g5
g6
F0.9975
tp1421
asI215
(lp1422
(S'playing'
p1423
g29
F0.9957
tp1424
a(S'cards'
p1425
g18
F0.9586
tp1426
a(S'is'
p1427
g29
F0.9962
tp1428
a(S'better'
p1429
g60
F0.7931
tp1430
a(g5
g6
F0.9985
tp1431
asI729
(lp1432
(S'le(t'
p1433
g29
F0.4475
tp1434
a(g148
g6
F0.9946
tp1435
a(S'me'
p1436
g26
F0.9971
tp1437
a(S'see'
p1438
g29
F0.9962
tp1439
a(S'it'
p1440
g26
F0.9059
tp1441
a(g5
g6
F0.9986
tp1442
asI218
(lp1443
(S'no'
p1444
g3
F0.8302
tp1445
a(g775
g6
F0.9884
tp1446
a(S'12'
p1447
g10
F0.9978
tp1448
a(g5
g6
F0.989
tp1449
a(g148
g6
F0.9313
tp1450
a(g5
g6
F0.9948
tp1451
asI975
(lp1452
(g89
g90
F0.9508
tp1453
a(S'zzz'
p1454
g563
F0.2604
tp1455
a(S'excuse'
p1456
g29
F0.9838
tp1457
a(S'me'
p1458
g26
F0.9989
tp1459
a(g96
g97
F0.5031
tp1460
a(g99
g97
F0.535
tp1461
a(g89
g90
F0.7057
tp1462
a(g102
g6
F0.9842
tp1463
a(g5
g6
F0.9969
tp1464
asI732
(lp1465
(S'my'
p1466
g41
F0.9977
tp1467
a(S'finger'
p1468
g18
F0.9984
tp1469
a(S'will'
p1470
g29
F0.9908
tp1471
a(S'+/'
p1472
g107
F0.1764
tp1473
a(g5
g6
F0.9942
tp1474
asI221
(lp1475
(S'zzz'
p1476
g3
F0.3756
tp1477
a(g5
g6
F0.9972
tp1478
asI735
(lp1479
(S'you'
p1480
g26
F0.9969
tp1481
a(S'can'
p1482
g29
F0.9997
tp1483
a(S'pick'
p1484
g29
F0.9994
tp1485
a(S'that'
p1486
g26
F0.7465
tp1487
a(S'out'
p1488
g225
F0.5387
tp1489
a(S'with'
p1490
g65
F0.9996
tp1491
a(S'your'
p1492
g41
F0.9968
tp1493
a(S'fork'
p1494
g18
F0.9986
tp1495
a(g5
g6
F0.9988
tp1496
asI225
(lp1497
(S'let'
p1498
g29
F0.9975
tp1499
a(S'me'
p1500
g26
F0.9994
tp1501
a(S'be'
p1502
g29
F0.9968
tp1503
a(S'in'
p1504
g65
F0.9364
tp1505
a(S'xxx'
p1506
g18
F0.5641
tp1507
a(g5
g6
F0.9978
tp1508
asI740
(lp1509
(S'put'
p1510
g29
F0.9914
tp1511
a(S'it'
p1512
g26
F0.9894
tp1513
a(S'over'
p1514
g65
F0.8415
tp1515
a(S'your'
p1516
g41
F0.992
tp1517
a(S'plate'
p1518
g18
F0.9992
tp1519
a(g5
g6
F0.9977
tp1520
asI229
(lp1521
(g73
g26
F0.9943
tp1522
a(S"wouldn't"
p1523
g29
F0.999
tp1524
a(S'care'
p1525
g29
F0.9972
tp1526
a(S'if'
p1527
g65
F0.9931
tp1528
a(S'nobody'
p1529
g18
F0.9066
tp1530
a(S'xxx'
p1531
g97
F0.5953
tp1532
a(g5
g6
F0.9646
tp1533
asI743
(lp1534
(S'is'
p1535
g29
F0.9981
tp1536
a(S'that'
p1537
g26
F0.7297
tp1538
a(g790
g41
F0.9941
tp1539
a(S'blueberry'
p1540
g18
F0.7989
tp1541
a(g125
g6
F0.9983
tp1542
asI232
(lp1543
(g73
g26
F0.9943
tp1544
a(S"wouldn't"
p1545
g29
F0.9987
tp1546
a(S'try'
p1547
g29
F0.9999
tp1548
a(S'it'
p1549
g26
F0.9847
tp1550
a(g5
g6
F0.9989
tp1551
asI746
(lp1552
(S'no'
p1553
g3
F0.9704
tp1554
a(g5
g6
F0.9989
tp1555
asI236
(lp1556
(S'now'
p1557
g23
F0.9935
tp1558
a(S'take'
p1559
g29
F0.9995
tp1560
a(S'it'
p1561
g26
F0.931
tp1562
a(S'off'
p1563
g225
F0.8393
tp1564
a(g5
g6
F0.998
tp1565
asI749
(lp1566
(S'blueberries'
p1567
g18
F0.964
tp1568
a(S"don't"
p1569
g29
F0.999
tp1570
a(S'go'
p1571
g29
F0.9997
tp1572
a(S'in'
p1573
g65
F0.9659
tp1574
a(S'fish'
p1575
g18
F0.987
tp1576
a(S'sticks'
p1577
g18
F0.828
tp1578
a(g5
g6
F0.999
tp1579
asI792
(lp1580
(g89
g90
F0.9147
tp1581
a(S'can'
p1582
g29
F0.9995
tp1583
a(S'you'
p1584
g26
F0.9988
tp1585
a(S'get'
p1586
g29
F1.0
tp1587
a(S'it'
p1588
g26
F0.9965
tp1589
a(S'out'
p1590
g225
F0.8585
tp1591
a(S'for'
p1592
g65
F0.9996
tp1593
a(S'me'
p1594
g26
F0.9992
tp1595
a(g96
g97
F0.5031
tp1596
a(g99
g97
F0.535
tp1597
a(g89
g90
F0.7713
tp1598
a(g102
g6
F0.9569
tp1599
a(g125
g6
F0.9952
tp1600
asI752
(lp1601
(S'well'
p1602
g3
F0.7553
tp1603
a(S'it'
p1604
g26
F0.9981
tp1605
a(S'looks'
p1606
g29
F0.9991
tp1607
a(S'like'
p1608
g65
F0.9448
tp1609
a(S'it'
p1610
g26
F0.9988
tp1611
a(S'grew'
p1612
g29
F0.9996
tp1613
a(S'up'
p1614
g225
F0.9377
tp1615
a(S'there'
p1616
g23
F0.9039
tp1617
a(g5
g6
F0.9985
tp1618
asI241
(lp1619
(S'with'
p1620
g65
F0.9917
tp1621
a(S'what'
p1622
g26
F0.9859
tp1623
a(S'(.)'
p1624
g97
F0.2708
tp1625
a(g125
g6
F0.9716
tp1626
asI979
(lp1627
(S'zzz'
p1628
g3
F0.3756
tp1629
a(g5
g6
F0.9972
tp1630
asI244
(lp1631
(S"won't"
p1632
g29
F0.8196
tp1633
a(S'Mom'
p1634
g18
F0.7432
tp1635
a(S'get'
p1636
g29
F0.9988
tp1637
a(S'mad'
p1638
g60
F0.9892
tp1639
a(g125
g6
F0.9979
tp1640
asI757
(lp1641
(S"it's"
p1642
g34
F0.9973
tp1643
a(S'probably'
p1644
g23
F0.9989
tp1645
a(S'just'
p1646
g23
F0.988
tp1647
a(S'part'
p1648
g18
F0.8276
tp1649
a(S'of'
p1650
g65
F0.9995
tp1651
a(S'the'
p1652
g41
F0.9987
tp1653
a(S'fish'
p1654
g18
F0.9985
tp1655
a(g5
g6
F0.9987
tp1656
asI247
(lp1657
(S"don't"
p1658
g29
F0.999
tp1659
a(S'talk'
p1660
g29
F0.9992
tp1661
a(S'with'
p1662
g65
F0.9994
tp1663
a(S'your'
p1664
g41
F0.9956
tp1665
a(S'food'
p1666
g18
F0.9988
tp1667
a(S'in'
p1668
g65
F0.9979
tp1669
a(S'your'
p1670
g41
F0.9963
tp1671
a(S'mouth'
p1672
g18
F0.9992
tp1673
a(S'(.)'
p1674
g97
F0.2997
tp1675
a(g5
g6
F0.9694
tp1676
asI762
(lp1677
(S'zzz'
p1678
g3
F0.3756
tp1679
a(g5
g6
F0.9972
tp1680
asI252
(lp1681
(S'wink'
p1682
g18
F0.7403
tp1683
a(g5
g6
F0.9977
tp1684
asI1019
(lp1685
(S'oh'
p1686
g3
F0.989
tp1687
a(S'go'
p1688
g29
F0.7617
tp1689
a(g775
g6
F0.9842
tp1690
a(S'to'
p1691
g65
F0.9466
tp1692
a(g148
g6
F0.9633
tp1693
a(S'the'
p1694
g41
F0.9983
tp1695
a(S'bath+room'
p1696
g18
F0.9851
tp1697
a(S'hon(ey'
p1698
g18
F0.9807
tp1699
a(g148
g6
F0.9929
tp1700
a(S"that's"
p1701
g34
F0.9884
tp1702
a(S'more'
p1703
g23
F0.6145
tp1704
a(S'important'
p1705
g60
F0.9965
tp1706
a(g5
g6
F0.9983
tp1707
asI766
(lp1708
(S'you'
p1709
g26
F0.9983
tp1710
a(S'know'
p1711
g29
F0.9979
tp1712
a(S'fish'
p1713
g18
F0.9804
tp1714
a(S'have'
p1715
g29
F0.9891
tp1716
a(S'different'
p1717
g60
F0.9808
tp1718
a(S'colors'
p1719
g18
F0.9992
tp1720
a(g5
g6
F0.9984
tp1721
asI255
(lp1722
(S'zzz'
p1723
g3
F0.3756
tp1724
a(g5
g6
F0.9972
tp1725
asI769
(lp1726
(S'le(t'
p1727
g29
F0.4475
tp1728
a(g148
g6
F0.9946
tp1729
a(S'me'
p1730
g26
F0.9971
tp1731
a(S'see'
p1732
g29
F0.9962
tp1733
a(S'it'
p1734
g26
F0.912
tp1735
a(g3
g6
F0.9989
tp1736
asI259
(lp1737
(g73
g26
F0.9981
tp1738
a(S'need'
p1739
g29
F0.9984
tp1740
a(S'more'
p1741
g60
F0.8855
tp1742
a(S'ketchup'
p1743
g18
F0.9988
tp1744
a(g5
g6
F0.9987
tp1745
asI772
(lp1746
(S'pick'
p1747
g29
F0.9949
tp1748
a(S'it'
p1749
g26
F0.9936
tp1750
a(S'out'
p1751
g225
F0.9589
tp1752
a(g5
g6
F0.9982
tp1753
asI262
(lp1754
(g73
g26
F0.9973
tp1755
a(S'get'
p1756
g29
F0.9995
tp1757
a(S'xxx'
p1758
g18
F0.4504
tp1759
a(g5
g6
F0.9983
tp1760
asI775
(lp1761
(S"it's"
p1762
g34
F0.9901
tp1763
a(S'fine'
p1764
g60
F0.9924
tp1765
a(g5
g6
F0.9984
tp1766
asI266
(lp1767
(S'zzz'
p1768
g3
F0.3756
tp1769
a(g5
g6
F0.9972
tp1770
asI781
(lp1771
(S'&-uh'
p1772
g3
F0.8471
tp1773
a(g99
g6
F0.9796
tp1774
a(g89
g90
F0.9843
tp1775
a(g102
g6
F0.9866
tp1776
a(S'Mama'
p1777
g18
F0.6189
tp1778
a(g125
g6
F0.9977
tp1779
asI270
(lp1780
(g790
g41
F0.9956
tp1781
a(S'little'
p1782
g60
F0.9983
tp1783
a(S'bit'
p1784
g18
F0.7443
tp1785
a(S'more'
p1786
g60
F0.7118
tp1787
a(S'ketchup'
p1788
g18
F0.9959
tp1789
a(S'and'
p1790
g13
F0.9968
tp1791
a(S"that's"
p1792
g34
F0.9956
tp1793
a(S'it'
p1794
g26
F0.9962
tp1795
a(g5
g6
F0.9991
tp1796
asI959
(lp1797
(g89
g90
F0.924
tp1798
a(S'plates'
p1799
g18
F0.8894
tp1800
a(S'forks'
p1801
g18
F0.9792
tp1802
a(S'and'
p1803
g13
F0.9977
tp1804
a(S'napkins'
p1805
g18
F0.9835
tp1806
a(g96
g97
F0.5759
tp1807
a(g99
g97
F0.5345
tp1808
a(g96
g97
F0.9555
tp1809
a(g102
g6
F0.8291
tp1810
a(g5
g6
F0.9959
tp1811
asI785
(lp1812
(S'&-um'
p1813
g3
F0.823
tp1814
a(S'some'
p1815
g41
F0.9647
tp1816
a(S'fish'
p1817
g18
F0.9929
tp1818
a(S'have'
p1819
g29
F0.9704
tp1820
a(S'black'
p1821
g60
F0.7309
tp1822
a(g5
g6
F0.9977
tp1823
asI276
(lp1824
(S'green'
p1825
g60
F0.9862
tp1826
a(S'plates'
p1827
g18
F0.9984
tp1828
a(g125
g6
F0.9983
tp1829
asI280
(lp1830
(S"it's"
p1831
g34
F0.9974
tp1832
a(S'just'
p1833
g23
F0.9976
tp1834
a(S'your'
p1835
g41
F0.9463
tp1836
a(S'placemat'
p1837
g18
F0.8581
tp1838
a(S'showing'
p1839
g29
F0.9929
tp1840
a(S'through'
p1841
g65
F0.7884
tp1842
a(g5
g6
F0.9957
tp1843
asI795
(lp1844
(S'can'
p1845
g29
F0.999
tp1846
a(S'you'
p1847
g26
F0.9988
tp1848
a(S'get'
p1849
g29
F1.0
tp1850
a(S'it'
p1851
g26
F0.9954
tp1852
a(S'out'
p1853
g225
F0.8585
tp1854
a(S'for'
p1855
g65
F0.9996
tp1856
a(S'me'
p1857
g26
F0.9973
tp1858
a(g125
g6
F0.9984
tp1859
asI285
(lp1860
(S'hm'
p1861
g3
F0.9811
tp1862
a(S':'
p1863
g6
F0.891
tp1864
a(g125
g6
F0.9885
tp1865
asI798
(lp1866
(S'just'
p1867
g23
F0.9992
tp1868
a(S'cut'
p1869
g29
F0.9917
tp1870
a(S'it'
p1871
g26
F0.9915
tp1872
a(S'off'
p1873
g225
F0.8805
tp1874
a(g3
g6
F0.9979
tp1875
asI288
(lp1876
(S"that's"
p1877
g34
F0.9859
tp1878
a(S'enough'
p1879
g60
F0.7926
tp1880
a(g5
g6
F0.9987
tp1881
asI801
(lp1882
(S'put'
p1883
g29
F0.9914
tp1884
a(S'it'
p1885
g26
F0.9741
tp1886
a(S'on'
p1887
g65
F0.9569
tp1888
a(S'the'
p1889
g41
F0.9993
tp1890
a(S'plate'
p1891
g18
F0.9931
tp1892
a(S'and'
p1893
g13
F0.9983
tp1894
a(S'just'
p1895
g23
F0.9996
tp1896
a(S'cut'
p1897
g29
F0.9586
tp1898
a(S'that'
p1899
g41
F0.8593
tp1900
a(S'section'
p1901
g18
F0.9992
tp1902
a(g89
g90
F0.6825
tp1903
a(S'right'
p1904
g23
F0.5192
tp1905
a(S'off'
p1906
g65
F0.6148
tp1907
a(g96
g97
F0.4053
tp1908
a(g99
g97
F0.5345
tp1909
a(g96
g97
F0.9527
tp1910
a(g102
g6
F0.7578
tp1911
a(g5
g6
F0.9971
tp1912
asI291
(lp1913
(S'no'
p1914
g41
F0.4023
tp1915
a(S'more'
p1916
g60
F0.8697
tp1917
a(S'ketchup'
p1918
g18
F0.999
tp1919
a(g5
g6
F0.9986
tp1920
asI294
(lp1921
(S'green'
p1922
g60
F0.9862
tp1923
a(S'plates'
p1924
g18
F0.9989
tp1925
a(g3
g6
F0.999
tp1926
asI807
(lp1927
(S'&-um'
p1928
g3
F0.875
tp1929
a(g99
g6
F0.9796
tp1930
a(g89
g90
F0.9843
tp1931
a(g102
g6
F0.9855
tp1932
a(S'water'
p1933
g18
F0.9473
tp1934
a(S'drip'
p1935
g18
F0.9662
tp1936
a(g5
g6
F0.998
tp1937
asI297
(lp1938
(S"what's"
p1939
g34
F0.9956
tp1940
a(S'in'
p1941
g65
F0.9833
tp1942
a(S'your'
p1943
g41
F0.9955
tp1944
a(S'mouth'
p1945
g18
F0.9998
tp1946
a(g125
g6
F0.9985
tp1947
asI810
(lp1948
(S'yeah'
p1949
g3
F0.9986
tp1950
a(g5
g6
F0.997
tp1951
asI300
(lp1952
(S'are'
p1953
g29
F0.9964
tp1954
a(S'you'
p1955
g26
F0.9995
tp1956
a(S'talking'
p1957
g29
F0.9981
tp1958
a(S'with'
p1959
g65
F0.9993
tp1960
a(S'it'
p1961
g26
F0.9979
tp1962
a(S'in'
p1963
g65
F0.9631
tp1964
a(S'your'
p1965
g41
F0.9963
tp1966
a(S'mouth'
p1967
g18
F0.9997
tp1968
a(g125
g6
F0.9985
tp1969
asI813
(lp1970
(S"that's"
p1971
g34
F0.9932
tp1972
a(S'because'
p1973
g65
F0.9842
tp1974
a(S"it's"
p1975
g34
F0.9951
tp1976
a(S'so'
p1977
g23
F0.9279
tp1978
a(S'hot'
p1979
g60
F0.9832
tp1980
a(S'huh'
p1981
g3
F0.8721
tp1982
a(g125
g6
F0.9978
tp1983
asI305
(lp1984
(S'zzz'
p1985
g3
F0.3756
tp1986
a(g5
g6
F0.9972
tp1987
asI820
(lp1988
(S'before'
p1989
g65
F0.968
tp1990
a(S'you'
p1991
g26
F0.9995
tp1992
a(S'go'
p1993
g29
F0.9997
tp1994
a(S'out'
p1995
g225
F0.4571
tp1996
a(g73
g26
F0.9993
tp1997
a(S'wan(t'
p1998
g29
F0.9995
tp1999
a(g148
g6
F0.9419
tp2000
a(g775
g6
F0.9507
tp2001
a(S't)a'
p2002
g65
F0.6647
tp2003
a(S'cut'
p2004
g29
F0.797
tp2005
a(S'your'
p2006
g41
F0.9958
tp2007
a(S'fingernails'
p2008
g18
F0.9971
tp2009
a(S'and'
p2010
g13
F0.9936
tp2011
a(S'your'
p2012
g41
F0.9214
tp2013
a(S'toenails'
p2014
g18
F0.9952
tp2015
a(g5
g6
F0.9991
tp2016
asI309
(lp2017
(S'chew'
p2018
g29
F0.9379
tp2019
a(S"what's"
p2020
g34
F0.973
tp2021
a(g89
g90
F0.9215
tp2022
a(S'in'
p2023
g65
F0.9905
tp2024
a(S'your'
p2025
g41
F0.909
tp2026
a(g96
g563
F0.4
tp2027
a(g99
g6
F0.899
tp2028
a(g96
g97
F0.4438
tp2029
a(g102
g6
F0.761
tp2030
a(S'mouth'
p2031
g18
F0.9727
tp2032
a(S'first'
p2033
g60
F0.8624
tp2034
a(g5
g6
F0.9977
tp2035
asI313
(lp2036
(g89
g90
F0.9112
tp2037
a(S'Mama'
p2038
g18
F0.6887
tp2039
a(g96
g563
F0.4522
tp2040
a(g99
g6
F0.9261
tp2041
a(g89
g90
F0.948
tp2042
a(g102
g6
F0.9666
tp2043
a(g125
g6
F0.9959
tp2044
asI826
(lp2045
(g775
g6
F0.9604
tp2046
a(S'o)kay'
p2047
g3
F0.6531
tp2048
a(g125
g6
F0.9979
tp2049
asI317
(lp2050
(S'what'
p2051
g26
F0.6658
tp2052
a(S'hon(ey'
p2053
g18
F0.9795
tp2054
a(g148
g6
F0.9803
tp2055
a(g125
g6
F0.9966
tp2056
asI830
(lp2057
(S'xxx'
p2058
g97
F0.7556
tp2059
a(g73
g26
F0.9937
tp2060
a(S'go'
p2061
g29
F0.9994
tp2062
a(S'on'
p2063
g65
F0.9216
tp2064
a(S'in'
p2065
g65
F0.9738
tp2066
a(S'bobebe'
p2067
g107
F0.5686
tp2068
a(S'@b'
p2069
g1287
F0.99
tp2070
a(S'like'
p2071
g65
F0.8768
tp2072
a(g790
g41
F0.9948
tp2073
a(S'dog'
p2074
g18
F0.9995
tp2075
a(g99
g6
F0.9837
tp2076
a(g96
g97
F0.4915
tp2077
a(g102
g6
F0.7758
tp2078
a(g5
g6
F0.9977
tp2079
asI992
(lp2080
(S'wipe'
p2081
g29
F0.9873
tp2082
a(S'it'
p2083
g26
F0.984
tp2084
a(S'[='
p2085
g97
F0.8449
tp2086
a(S'ketchup'
p2087
g18
F0.956
tp2088
a(S'bottle'
p2089
g18
F0.9942
tp2090
a(g102
g6
F0.9938
tp2091
a(S'off'
p2092
g23
F0.7134
tp2093
a(S'nice'
p2094
g60
F0.9962
tp2095
a(g5
g6
F0.9989
tp2096
asI323
(lp2097
(S"you're"
p2098
g34
F0.9903
tp2099
a(S'doing'
p2100
g29
F0.995
tp2101
a(S'very'
p2102
g23
F0.9968
tp2103
a(S'good'
p2104
g60
F0.9992
tp2105
a(S'you'
p2106
g26
F0.9938
tp2107
a(S'like'
p2108
g29
F0.6792
tp2109
a(S'those'
p2110
g26
F0.703
tp2111
a(S'huh'
p2112
g3
F0.8566
tp2113
a(g125
g6
F0.9982
tp2114
asI652
(lp2115
(S'okay'
p2116
g3
F0.9276
tp2117
a(g99
g6
F0.9879
tp2118
a(g96
g97
F0.3811
tp2119
a(g102
g6
F0.5836
tp2120
a(g125
g6
F0.9963
tp2121
asI330
(lp2122
(S"I'll"
p2123
g34
F0.9851
tp2124
a(S'have_to'
p2125
g29
F0.9993
tp2126
a(S'buy'
p2127
g29
F0.9996
tp2128
a(S'them'
p2129
g26
F0.9705
tp2130
a(S'again'
p2131
g23
F0.9953
tp2132
a(g5
g6
F0.9967
tp2133
asI845
(lp2134
(g89
g90
F0.9526
tp2135
a(g73
g26
F0.9967
tp2136
a(g96
g90
F0.2694
tp2137
a(S'[/]'
p2138
g97
F0.1537
tp2139
a(g99
g6
F0.6274
tp2140
a(g96
g97
F0.6043
tp2141
a(g102
g6
F0.7541
tp2142
a(g5
g6
F0.9962
tp2143
asI334
(lp2144
(S'what'
p2145
g26
F0.9171
tp2146
a(g125
g6
F0.9924
tp2147
asI338
(lp2148
(S'what'
p2149
g26
F0.9171
tp2150
a(g125
g6
F0.9924
tp2151
asI995
(lp2152
(S'nice'
p2153
g60
F0.9926
tp2154
a(S'and'
p2155
g13
F0.9982
tp2156
a(S'clean'
p2157
g60
F0.785
tp2158
a(g5
g6
F0.9984
tp2159
asI667
(lp2160
(S'what'
p2161
g26
F0.9171
tp2162
a(g125
g6
F0.9924
tp2163
asI342
(lp2164
(S'what'
p2165
g26
F0.788
tp2166
a(S'arch'
p2167
g18
F0.9746
tp2168
a(g99
g6
F0.9734
tp2169
a(g125
g6
F0.9842
tp2170
a(g102
g6
F0.9156
tp2171
a(g5
g6
F0.995
tp2172
asI345
(lp2173
(S'for'
p2174
g65
F0.9992
tp2175
a(S'you'
p2176
g26
F0.999
tp2177
a(g99
g6
F0.9931
tp2178
a(g3
g6
F0.9922
tp2179
a(g102
g6
F0.9747
tp2180
a(S'yeah'
p2181
g3
F0.9947
tp2182
a(g5
g6
F0.9975
tp2183
asI858
(lp2184
(S'oh'
p2185
g3
F0.9981
tp2186
a(S'okay'
p2187
g3
F0.9641
tp2188
a(g5
g6
F0.998
tp2189
asI348
(lp2190
(g73
g26
F0.9937
tp2191
a(g89
g90
F0.7083
tp2192
a(S'do'
p2193
g29
F0.9944
tp2194
a(S'too'
p2195
g23
F0.9737
tp2196
a(g96
g97
F0.4858
tp2197
a(g99
g97
F0.5345
tp2198
a(g96
g97
F0.9732
tp2199
a(g102
g6
F0.8062
tp2200
a(g5
g6
F0.9969
tp2201
asI861
(lp2202
(S'go'
p2203
g29
F0.9625
tp2204
a(S'ahead'
p2205
g23
F0.9526
tp2206
a(S'and'
p2207
g13
F0.997
tp2208
a(S'throw'
p2209
g29
F0.9937
tp2210
a(S'your'
p2211
g41
F0.9958
tp2212
a(S'plate'
p2213
g18
F0.9992
tp2214
a(S'away'
p2215
g23
F0.9655
tp2216
a(g5
g6
F0.998
tp2217
asI351
(lp2218
(g89
g90
F0.9262
tp2219
a(S"they're>"
p2220
g34
F0.4765
tp2221
a(g99
g6
F0.9656
tp2222
a(g89
g90
F0.9566
tp2223
a(g102
g6
F0.9889
tp2224
a(S'joined'
p2225
g29
F0.95
tp2226
a(g99
g6
F0.9905
tp2227
a(g125
g6
F0.9858
tp2228
a(g102
g6
F0.921
tp2229
a(g5
g6
F0.9959
tp2230
asI864
(lp2231
(g89
g90
F0.9755
tp2232
a(S'alright'
p2233
g3
F0.9576
tp2234
a(g96
g97
F0.444
tp2235
a(g99
g97
F0.4959
tp2236
a(g96
g97
F0.9698
tp2237
a(g102
g6
F0.6899
tp2238
a(g5
g6
F0.9959
tp2239
asI355
(lp2240
(g73
g26
F0.9976
tp2241
a(S"don't"
p2242
g29
F1.0
tp2243
a(S'like'
p2244
g29
F0.9223
tp2245
a(g775
g6
F0.9886
tp2246
a(S'th)em'
p2247
g26
F0.6879
tp2248
a(g5
g6
F0.9971
tp2249
asI868
(lp2250
(g89
g90
F0.8896
tp2251
a(S'and'
p2252
g13
F0.9988
tp2253
a(S'your'
p2254
g41
F0.942
tp2255
a(S'fork'
p2256
g18
F0.9982
tp2257
a(g96
g97
F0.6312
tp2258
a(g99
g97
F0.535
tp2259
a(g89
g90
F0.8293
tp2260
a(g102
g6
F0.9866
tp2261
a(S'in'
p2262
g65
F0.9929
tp2263
a(S'the'
p2264
g41
F0.9949
tp2265
a(S'(.)'
p2266
g107
F0.6291
tp2267
a(S'sink'
p2268
g18
F0.479
tp2269
a(g5
g6
F0.9985
tp2270
asI998
(lp2271
(S'zzz'
p2272
g3
F0.3756
tp2273
a(g5
g6
F0.9972
tp2274
asI358
(lp2275
(S'oh'
p2276
g3
F0.9984
tp2277
a(g5
g6
F0.9938
tp2278
asI871
(lp2279
(S'down'
p2280
g65
F0.7488
tp2281
a(S'the'
p2282
g41
F0.9924
tp2283
a(S'xxx'
p2284
g18
F0.439
tp2285
a(S'xxx'
p2286
g97
F0.6335
tp2287
a(S'xxx'
p2288
g97
F0.9678
tp2289
a(S'(.)'
p2290
g97
F0.9069
tp2291
a(S'he'
p2292
g26
F0.995
tp2293
a(S"can't"
p2294
g29
F0.9999
tp2295
a(S'age'
p2296
g18
F0.8143
tp2297
a(g99
g6
F0.9918
tp2298
a(g125
g6
F0.9841
tp2299
a(g102
g6
F0.9323
tp2300
a(S'you'
p2301
g26
F0.9979
tp2302
a(S'done'
p2303
g29
F0.9979
tp2304
a(S'with'
p2305
g65
F0.9994
tp2306
a(S'the'
p2307
g41
F0.9942
tp2308
a(S'xxx'
p2309
g18
F0.8091
tp2310
a(g5
g6
F0.9987
tp2311
asI361
(lp2312
(S'why'
p2313
g23
F0.9408
tp2314
a(g125
g6
F0.9946
tp2315
asI365
(lp2316
(g73
g26
F0.9976
tp2317
a(S"don't"
p2318
g29
F1.0
tp2319
a(g89
g90
F0.7277
tp2320
a(S'like'
p2321
g65
F0.6242
tp2322
a(g775
g6
F0.9831
tp2323
a(S'th)em'
p2324
g26
F0.5999
tp2325
a(S'either'
p2326
g41
F0.557
tp2327
a(g96
g97
F0.3781
tp2328
a(g99
g97
F0.5345
tp2329
a(g96
g97
F0.949
tp2330
a(g102
g6
F0.7992
tp2331
a(g5
g6
F0.9936
tp2332
asI368
(lp2333
(g89
g90
F0.9526
tp2334
a(g73
g26
F0.9983
tp2335
a(S"don't"
p2336
g29
F1.0
tp2337
a(S'like'
p2338
g29
F0.8959
tp2339
a(S'fish'
p2340
g18
F0.9931
tp2341
a(g96
g97
F0.5177
tp2342
a(g99
g97
F0.535
tp2343
a(g89
g90
F0.7916
tp2344
a(g102
g6
F0.9861
tp2345
a(g5
g6
F0.9959
tp2346
asI881
(lp2347
(S'Chi'
p2348
g107
F0.8181
tp2349
a(g125
g6
F0.9908
tp2350
asI371
(lp2351
(g73
g26
F0.9976
tp2352
a(S"don't"
p2353
g29
F1.0
tp2354
a(S'like'
p2355
g29
F0.9223
tp2356
a(g775
g6
F0.9907
tp2357
a(S'th)em'
p2358
g26
F0.5999
tp2359
a(S'either'
p2360
g41
F0.4141
tp2361
a(S'but'
p2362
g13
F0.9858
tp2363
a(S"I'm"
p2364
g34
F0.9965
tp2365
a(S'eating'
p2366
g29
F0.9996
tp2367
a(S'them'
p2368
g26
F0.9795
tp2369
a(g5
g6
F0.9985
tp2370
asI885
(lp2371
(S"where's"
p2372
g34
F0.935
tp2373
a(S'your'
p2374
g41
F0.9729
tp2375
a(S'milk'
p2376
g18
F0.9995
tp2377
a(g125
g6
F0.9974
tp2378
asI889
(lp2379
(S"I'm"
p2380
g34
F0.9981
tp2381
a(S'not'
p2382
g23
F0.9945
tp2383
a(S'&-uh'
p2384
g3
F0.598
tp2385
a(S"I'm"
p2386
g34
F0.9987
tp2387
a(S'not'
p2388
g23
F0.9996
tp2389
a(S'good'
p2390
g60
F0.9907
tp2391
a(g99
g6
F0.9889
tp2392
a(g125
g6
F0.9841
tp2393
a(g102
g6
F0.9182
tp2394
a(S'for'
p2395
g65
F0.9977
tp2396
a(S'milk'
p2397
g18
F0.9921
tp2398
a(g5
g6
F0.9977
tp2399
asI378
(lp2400
(S'well'
p2401
g3
F0.741
tp2402
a(S'you'
p2403
g26
F0.9994
tp2404
a(S'have_to'
p2405
g29
F0.9993
tp2406
a(S'let'
p2407
g29
F0.9998
tp2408
a(S'me'
p2409
g26
F0.9998
tp2410
a(S'know'
p2411
g29
F0.9676
tp2412
a(g775
g6
F0.9916
tp2413
a(S'be)cause'
p2414
g65
F0.9889
tp2415
a(S'if'
p2416
g65
F0.9963
tp2417
a(S'you'
p2418
g26
F0.9997
tp2419
a(S"don't"
p2420
g29
F1.0
tp2421
a(S'like'
p2422
g29
F0.9058
tp2423
a(g775
g6
F0.9885
tp2424
a(S'th)em'
p2425
g26
F0.6484
tp2426
a(S"I'm"
p2427
g34
F0.9969
tp2428
a(S'not'
p2429
g23
F0.9976
tp2430
a(S'gonna'
p2431
g29
F0.9975
tp2432
a(S'buy'
p2433
g29
F0.9797
tp2434
a(g775
g6
F0.9922
tp2435
a(S'th)em'
p2436
g26
F0.8201
tp2437
a(S'again'
p2438
g23
F0.9916
tp2439
a(g99
g6
F0.9766
tp2440
a(g96
g97
F0.4287
tp2441
a(g102
g6
F0.6819
tp2442
a(g5
g6
F0.9952
tp2443
asI895
(lp2444
(S'okay'
p2445
g3
F0.9559
tp2446
a(S'why'
p2447
g23
F0.9429
tp2448
a(S"don't"
p2449
g29
F0.9999
tp2450
a(S'you'
p2451
g26
F0.998
tp2452
a(S'put'
p2453
g29
F0.9993
tp2454
a(S'it'
p2455
g26
F0.9831
tp2456
a(S'in'
p2457
g65
F0.977
tp2458
a(S'the'
p2459
g41
F0.9993
tp2460
a(S'refrigerator'
p2461
g18
F0.9959
tp2462
a(S"it'll"
p2463
g34
F0.9941
tp2464
a(S'stay'
p2465
g29
F0.9894
tp2466
a(S'cold'
p2467
g60
F0.9727
tp2468
a(S'for'
p2469
g65
F0.9999
tp2470
a(S'you'
p2471
g26
F0.9993
tp2472
a(g5
g6
F0.9995
tp2473
asI388
(lp2474
(g89
g90
F0.9526
tp2475
a(g73
g26
F0.9983
tp2476
a(S"don't>"
p2477
g29
F0.9998
tp2478
a(g99
g6
F0.984
tp2479
a(g89
g90
F0.9635
tp2480
a(g102
g6
F0.9893
tp2481
a(S'like'
p2482
g29
F0.5577
tp2483
a(S'them'
p2484
g26
F0.9901
tp2485
a(S'but'
p2486
g13
F0.9884
tp2487
a(g73
g26
F0.9994
tp2488
a(S'know'
p2489
g29
F0.999
tp2490
a(S'Chi'
p2491
g107
F0.9711
tp2492
a(S'likes'
p2493
g29
F0.9997
tp2494
a(S'them'
p2495
g26
F0.9895
tp2496
a(g5
g6
F0.9983
tp2497
asI902
(lp2498
(S"you'll"
p2499
g34
F0.9833
tp2500
a(S'finish'
p2501
g29
F0.9998
tp2502
a(S'it'
p2503
g26
F0.9871
tp2504
a(g775
g6
F0.9935
tp2505
a(S'be)fore'
p2506
g65
F0.9913
tp2507
a(S'you'
p2508
g26
F0.9996
tp2509
a(S'go'
p2510
g29
F0.9986
tp2511
a(S'to'
p2512
g65
F0.9827
tp2513
a(S'bed'
p2514
g18
F0.9092
tp2515
a(g5
g6
F0.9985
tp2516
asI393
(lp2517
(S'so'
p2518
g23
F0.6597
tp2519
a(S"I'll"
p2520
g34
F0.9912
tp2521
a(S'buy'
p2522
g29
F0.978
tp2523
a(g775
g6
F0.9936
tp2524
a(S'th)em'
p2525
g26
F0.7167
tp2526
a(S'for'
p2527
g65
F0.9993
tp2528
a(S'Chi'
p2529
g107
F0.9761
tp2530
a(S'(.)'
p2531
g107
F0.8369
tp2532
a(g5
g6
F0.9959
tp2533
asI907
(lp2534
(g775
g6
F0.9604
tp2535
a(S'o)kay'
p2536
g3
F0.6539
tp2537
a(g5
g6
F0.998
tp2538
asI397
(lp2539
(S'Grandma'
p2540
g18
F0.6422
tp2541
a(S'likes'
p2542
g29
F0.9996
tp2543
a(S'them'
p2544
g26
F0.9903
tp2545
a(g5
g6
F0.9985
tp2546
asI911
(lp2547
(S'make'
p2548
g29
F0.9707
tp2549
a(S'sure'
p2550
g60
F0.9259
tp2551
a(S'you'
p2552
g26
F0.9974
tp2553
a(S'put'
p2554
g29
F0.9991
tp2555
a(S'yours'
p2556
g26
F0.9342
tp2557
a(S'on'
p2558
g65
F0.9612
tp2559
a(S'one'
p2560
g10
F0.8471
tp2561
a(S'side'
p2562
g18
F0.9864
tp2563
a(g5
g6
F0.9988
tp2564
asI400
(lp2565
(S'Grandma'
p2566
g18
F0.6422
tp2567
a(S'likes'
p2568
g29
F0.9692
tp2569
a(g775
g6
F0.9868
tp2570
a(S'th)em'
p2571
g26
F0.6202
tp2572
a(S'yeah'
p2573
g3
F0.9931
tp2574
a(g5
g6
F0.997
tp2575
asI403
(lp2576
(S'then'
p2577
g23
F0.9584
tp2578
a(S'why'
p2579
g23
F0.9565
tp2580
a(S"don't"
p2581
g29
F0.9993
tp2582
a(S'go'
p2583
g29
F0.9981
tp2584
a(S"Mama's"
p2585
g18
F0.5781
tp2586
a(S'too'
p2587
g23
F0.9214
tp2588
a(g125
g6
F0.9969
tp2589
asI916
(lp2590
(g89
g90
F0.8878
tp2591
a(S'now'
p2592
g23
F0.9916
tp2593
a(S'remember'
p2594
g29
F0.9984
tp2595
a(S'which'
p2596
g41
F0.7709
tp2597
a(g96
g563
F0.4055
tp2598
a(S'[/]'
p2599
g563
F0.3247
tp2600
a(g99
g6
F0.9142
tp2601
a(g96
g97
F0.4567
tp2602
a(g102
g6
F0.8291
tp2603
a(g5
g6
F0.9959
tp2604
asI918
(lp2605
(g89
g90
F0.97
tp2606
a(S'xxx'
p2607
g97
F0.5529
tp2608
a(S'Mommy'
p2609
g18
F0.6051
tp2610
a(g96
g563
F0.4131
tp2611
a(g99
g6
F0.9049
tp2612
a(g89
g90
F0.9635
tp2613
a(g102
g6
F0.9856
tp2614
a(S"there's"
p2615
g34
F0.4429
tp2616
a(S'no'
p2617
g41
F0.5832
tp2618
a(S'more'
p2619
g60
F0.7593
tp2620
a(S'ice'
p2621
g18
F0.9603
tp2622
a(S'in'
p2623
g65
F0.9953
tp2624
a(S'there'
p2625
g23
F0.799
tp2626
a(g5
g6
F0.9989
tp2627
asI410
(lp2628
(S'yeah'
p2629
g3
F0.9986
tp2630
a(g5
g6
F0.997
tp2631
asI923
(lp2632
(S'remember'
p2633
g29
F0.9526
tp2634
a(g89
g90
F0.5345
tp2635
a(S'which'
p2636
g41
F0.9949
tp2637
a(S'way'
p2638
g18
F0.8744
tp2639
a(S'you'
p2640
g26
F0.9949
tp2641
a(S'put'
p2642
g29
F0.9867
tp2643
a(g96
g6
F0.2525
tp2644
a(S'[//]'
p2645
g6
F0.3532
tp2646
a(S'which'
p2647
g41
F0.9958
tp2648
a(S'side'
p2649
g18
F0.9241
tp2650
a(S'you'
p2651
g26
F0.9924
tp2652
a(S'put'
p2653
g29
F0.9993
tp2654
a(S'it'
p2655
g26
F0.9639
tp2656
a(S'on'
p2657
g65
F0.6799
tp2658
a(g5
g6
F0.9972
tp2659
asI413
(lp2660
(S'you'
p2661
g26
F0.9945
tp2662
a(S'and'
p2663
g13
F0.9904
tp2664
a(S'Grandma'
p2665
g18
F0.5569
tp2666
a(S'can'
p2667
g29
F0.9972
tp2668
a(S'have'
p2669
g29
F0.9983
tp2670
a(g775
g6
F0.9844
tp2671
a(S'th)em'
p2672
g26
F0.6284
tp2673
a(g5
g6
F0.9978
tp2674
asI927
(lp2675
(S'Mom'
p2676
g18
F0.7189
tp2677
a(S"there's"
p2678
g34
F0.4358
tp2679
a(S'no'
p2680
g41
F0.58
tp2681
a(S'more'
p2682
g60
F0.7941
tp2683
a(S'ice'
p2684
g18
F0.9603
tp2685
a(S'in'
p2686
g65
F0.9955
tp2687
a(S'there'
p2688
g23
F0.7918
tp2689
a(g5
g6
F0.9981
tp2690
asI416
(lp2691
(S'yep'
p2692
g3
F0.9972
tp2693
a(g5
g6
F0.9971
tp2694
asI419
(lp2695
(S'and'
p2696
g13
F0.9992
tp2697
a(S'me'
p2698
g26
F0.9977
tp2699
a(g5
g6
F0.9983
tp2700
asI932
(lp2701
(S'sometimes'
p2702
g23
F0.8706
tp2703
a(S'the'
p2704
g41
F0.9972
tp2705
a(S'ice'
p2706
g18
F0.9457
tp2707
a(S'goes'
p2708
g29
F0.978
tp2709
a(S'away'
p2710
g23
F0.9797
tp2711
a(S'and'
p2712
g13
F0.997
tp2713
a(S'turns'
p2714
g29
F0.9964
tp2715
a(S'to'
p2716
g65
F0.9905
tp2717
a(S'water'
p2718
g29
F0.8785
tp2719
a(S'it'
p2720
g26
F0.9871
tp2721
a(S'melts'
p2722
g29
F0.8987
tp2723
a(g5
g6
F0.9986
tp2724
asI422
(lp2725
(S'eat'
p2726
g29
F0.9714
tp2727
a(S'that'
p2728
g26
F0.7592
tp2729
a(g99
g6
F0.985
tp2730
a(g96
g97
F0.5453
tp2731
a(g102
g6
F0.7789
tp2732
a(g5
g6
F0.995
tp2733
asI425
(lp2734
(S'what'
p2735
g26
F0.9738
tp2736
a(g99
g6
F0.9703
tp2737
a(g89
g90
F0.972
tp2738
a(g102
g6
F0.974
tp2739
a(g125
g6
F0.9963
tp2740
asI428
(lp2741
(S'you'
p2742
g26
F0.9968
tp2743
a(S"don't"
p2744
g29
F1.0
tp2745
a(S'have_to'
p2746
g29
F0.9998
tp2747
a(S'eat'
p2748
g29
F0.9852
tp2749
a(g775
g6
F0.9921
tp2750
a(S'th)em'
p2751
g26
F0.6694
tp2752
a(S'if'
p2753
g65
F0.9986
tp2754
a(S'you'
p2755
g26
F0.9997
tp2756
a(S"don't"
p2757
g29
F1.0
tp2758
a(S'like'
p2759
g29
F0.9058
tp2760
a(g775
g6
F0.9897
tp2761
a(S'th)em'
p2762
g26
F0.5989
tp2763
a(g5
g6
F0.9971
tp2764
asI1040
(lp2765
(S"you're"
p2766
g34
F0.9922
tp2767
a(S'still'
p2768
g23
F0.9978
tp2769
a(S'here'
p2770
g23
F0.9911
tp2771
a(S'Chi'
p2772
g107
F0.9392
tp2773
a(g125
g6
F0.9927
tp2774
asI943
(lp2775
(g89
g90
F0.9146
tp2776
a(S'later'
p2777
g23
F0.8296
tp2778
a(S'on'
p2779
g65
F0.9776
tp2780
a(g96
g97
F0.302
tp2781
a(g99
g97
F0.535
tp2782
a(g89
g90
F0.8293
tp2783
a(g102
g6
F0.9815
tp2784
a(S'[/]'
p2785
g6
F0.4126
tp2786
a(S'later'
p2787
g23
F0.8708
tp2788
a(S'on'
p2789
g65
F0.9794
tp2790
a(S"there'll"
p2791
g23
F0.4485
tp2792
a(S'be'
p2793
g29
F0.999
tp2794
a(S'ice'
p2795
g18
F0.6746
tp2796
a(S'in'
p2797
g65
F0.9949
tp2798
a(S'there'
p2799
g23
F0.7567
tp2800
a(g5
g6
F0.9987
tp2801
asI433
(lp2802
(g73
g26
F0.994
tp2803
a(S'like'
p2804
g29
F0.8693
tp2805
a(g775
g6
F0.9852
tp2806
a(S'th)em'
p2807
g26
F0.3903
tp2808
a(g790
g41
F0.9975
tp2809
a(S'little'
p2810
g60
F0.9967
tp2811
a(S'bit'
p2812
g18
F0.9405
tp2813
a(g5
g6
F0.9971
tp2814
asI436
(lp2815
(S'oh'
p2816
g3
F0.9984
tp2817
a(g5
g6
F0.9938
tp2818
asI949
(lp2819
(S'shut'
p2820
g29
F0.9746
tp2821
a(S'the'
p2822
g41
F0.9993
tp2823
a(S'door'
p2824
g18
F0.9977
tp2825
a(S'please'
p2826
g29
F0.9235
tp2827
a(S'Chi'
p2828
g107
F0.9746
tp2829
a(g5
g6
F0.9852
tp2830
asI439
(lp2831
(S'if'
p2832
g65
F0.9977
tp2833
a(S'you'
p2834
g26
F0.9996
tp2835
a(S'drown'
p2836
g29
F0.9951
tp2837
a(g99
g6
F0.9914
tp2838
a(g3
g6
F0.9901
tp2839
a(g102
g6
F0.8924
tp2840
a(g775
g6
F0.9759
tp2841
a(S'th)em'
p2842
g26
F0.6968
tp2843
a(S'in'
p2844
g65
F0.9816
tp2845
a(S'ketchup'
p2846
g18
F0.9752
tp2847
a(g125
g6
F0.9977
tp2848
asI952
(lp2849
(S'zzz'
p2850
g563
F0.409
tp2851
a(g99
g6
F0.9395
tp2852
a(g96
g97
F0.3811
tp2853
a(g102
g6
F0.7604
tp2854
a(g5
g6
F0.9962
tp2855
asI442
(lp2856
(S'no'
p2857
g3
F0.8567
tp2858
a(g73
g26
F0.992
tp2859
a(S'like'
p2860
g29
F0.857
tp2861
a(S"what's"
p2862
g34
F0.9732
tp2863
a(S'drowned'
p2864
g29
F0.9878
tp2865
a(S'in'
p2866
g65
F0.9823
tp2867
a(S'the'
p2868
g41
F0.9992
tp2869
a(S'ketchup'
p2870
g18
F0.9971
tp2871
a(g5
g6
F0.9989
tp2872
asI956
(lp2873
(g89
g90
F0.924
tp2874
a(S'plates'
p2875
g18
F0.8894
tp2876
a(S'forks'
p2877
g18
F0.9792
tp2878
a(S'and'
p2879
g13
F0.997
tp2880
a(g96
g97
F0.5022
tp2881
a(g99
g97
F0.535
tp2882
a(g89
g90
F0.8293
tp2883
a(g102
g6
F0.9908
tp2884
a(S'and'
p2885
g13
F0.9986
tp2886
a(S'napkins'
p2887
g18
F0.9807
tp2888
a(g5
g6
F0.9988
tp2889
asI842
(lp2890
(g73
g26
F0.9977
tp2891
a(S'can'
p2892
g29
F0.9998
tp2893
a(S'get'
p2894
g29
F0.9987
tp2895
a(g775
g6
F0.9845
tp2896
a(S'th)em'
p2897
g26
F0.3045
tp2898
a(S'better'
p2899
g23
F0.5835
tp2900
a(g5
g6
F0.9978
tp2901
asI1044
(lp2902
(S'yeah'
p2903
g3
F0.9986
tp2904
a(g5
g6
F0.997
tp2905
asI447
(lp2906
(S'xxx'
p2907
g97
F0.4267
tp2908
a(S'you'
p2909
g26
F0.9965
tp2910
a(S"can't"
p2911
g29
F0.9999
tp2912
a(S'even'
p2913
g23
F0.988
tp2914
a(S'drowneded'
p2915
g29
F0.7421
tp2916
a(S'@n'
p2917
g1287
F0.9953
tp2918
a(S'it'
p2919
g26
F0.9739
tp2920
a(g5
g6
F0.999
tp2921
asI450
(lp2922
(g775
g6
F0.9506
tp2923
a(S'ex)cuse'
p2924
g29
F0.9758
tp2925
a(S'me'
p2926
g26
F0.998
tp2927
a(g3
g6
F0.9987
tp2928
asI453
(lp2929
(S'guess'
p2930
g29
F0.9706
tp2931
a(S'what'
p2932
g26
F0.9821
tp2933
a(S'Chi'
p2934
g107
F0.8235
tp2935
a(g775
g6
F0.9315
tp2936
a(S'20'
p2937
g10
F0.9968
tp2938
a(g5
g6
F0.9849
tp2939
a(g148
g6
F0.924
tp2940
a(g5
g6
F0.9961
tp2941
asI966
(lp2942
(g73
g26
F0.9976
tp2943
a(S"don't"
p2944
g29
F1.0
tp2945
a(S'have'
p2946
g29
F0.9999
tp2947
a(S'any'
p2948
g41
F0.7329
tp2949
a(g5
g6
F0.9981
tp2950
asI456
(lp2951
(S'hm'
p2952
g3
F0.9811
tp2953
a(g1863
g6
F0.891
tp2954
a(g125
g6
F0.9885
tp2955
asI969
(lp2956
(S'Chi'
p2957
g107
F0.9178
tp2958
a(S'could'
p2959
g29
F0.999
tp2960
a(S'you'
p2961
g26
F0.999
tp2962
a(S'take'
p2963
g29
F0.9999
tp2964
a(S'your'
p2965
g41
F0.9426
tp2966
a(g89
g90
F0.764
tp2967
a(S'napkin'
p2968
g18
F0.9543
tp2969
a(S'and'
p2970
g13
F0.9972
tp2971
a(S'wipe'
p2972
g29
F0.9901
tp2973
a(S'the'
p2974
g41
F0.9995
tp2975
a(S'ketchup'
p2976
g18
F0.994
tp2977
a(g96
g97
F0.5184
tp2978
a(g99
g97
F0.5345
tp2979
a(g96
g97
F0.9532
tp2980
a(g102
g6
F0.784
tp2981
a(S'bottle'
p2982
g18
F0.9291
tp2983
a(g125
g6
F0.9969
tp2984
asI460
(lp2985
(S'was'
p2986
g29
F0.9964
tp2987
a(S'that'
p2988
g26
F0.4601
tp2989
a(S'the'
p2990
g41
F0.9995
tp2991
a(S'kid'
p2992
g18
F0.8911
tp2993
a(S'gets'
p2994
g29
F0.9992
tp2995
a(S'off'
p2996
g225
F0.8038
tp2997
a(g775
g6
F0.9922
tp2998
a(S'be)cause'
p2999
g65
F0.9806
tp3000
a(S'Mom'
p3001
g18
F0.7159
tp3002
a(S'wants'
p3003
g29
F0.9995
tp3004
a(S'the'
p3005
g41
F0.9921
tp3006
a(S'[/]'
p3007
g107
F0.2431
tp3008
a(S'the'
p3009
g41
F0.9962
tp3010
a(S'zero'
p3011
g18
F0.6621
tp3012
a(S'and'
p3013
g13
F0.9925
tp3014
a(S'the'
p3015
g41
F0.9865
tp3016
a(S'[/]'
p3017
g107
F0.5222
tp3018
a(S'(.)'
p3019
g107
F0.2969
tp3020
a(S'the'
p3021
g41
F0.9383
tp3022
a(g99
g6
F0.9573
tp3023
a(g96
g97
F0.4438
tp3024
a(g102
g6
F0.7819
tp3025
a(S'thing'
p3026
g18
F0.9252
tp3027
a(S'goes'
p3028
g29
F0.9983
tp3029
a(S'like'
p3030
g65
F0.8154
tp3031
a(S'that'
p3032
g26
F0.9099
tp3033
a(g125
g6
F0.9961
tp3034
asI589
(lp3035
(S'bit'
p3036
g29
F0.4813
tp3037
a(S'me'
p3038
g26
F0.9971
tp3039
a(S'(.)'
p3040
g563
F0.2875
tp3041
a(g125
g6
F0.9891
tp3042
asI467
(lp3043
(S"I'll"
p3044
g34
F0.9901
tp3045
a(S'be'
p3046
g29
F0.9999
tp3047
a(S'all'
p3048
g41
F0.5909
tp3049
a(S'done'
p3050
g29
F0.563
tp3051
a(S'then'
p3052
g23
F0.9923
tp3053
a(g5
g6
F0.9954
tp3054
asI846
(lp3055
(S'are'
p3056
g29
F0.971
tp3057
a(g99
g6
F0.9693
tp3058
a(g89
g90
F0.9843
tp3059
a(g102
g6
F0.9916
tp3060
a(S'you'
p3061
g26
F0.9789
tp3062
a(S'all'
p3063
g41
F0.8929
tp3064
a(S'done'
p3065
g60
F0.6306
tp3066
a(g125
g6
F0.9981
tp3067
asI470
(lp3068
(S"don't"
p3069
g29
F0.9987
tp3070
a(S'rush'
p3071
g29
F0.7766
tp3072
a(g99
g6
F0.9649
tp3073
a(g96
g97
F0.5453
tp3074
a(g102
g6
F0.7789
tp3075
a(g5
g6
F0.995
tp3076
asI983
(lp3077
(S'you'
p3078
g26
F0.9721
tp3079
a(S'better'
p3080
g60
F0.747
tp3081
a(S'say'
p3082
g29
F0.5483
tp3083
a(S'excuse'
p3084
g29
F0.963
tp3085
a(S'me'
p3086
g26
F0.9984
tp3087
a(g5
g6
F0.998
tp3088
asI473
(lp3089
(g89
g90
F0.9369
tp3090
a(S'drown'
p3091
g29
F0.9261
tp3092
a(g99
g6
F0.9872
tp3093
a(g125
g6
F0.9878
tp3094
a(g102
g6
F0.7796
tp3095
a(g96
g97
F0.5377
tp3096
a(g99
g97
F0.535
tp3097
a(g89
g90
F0.7916
tp3098
a(g102
g6
F0.9861
tp3099
a(g5
g6
F0.9959
tp3100
asI986
(lp3101
(g73
g26
F0.9991
tp3102
a(S'did'
p3103
g29
F0.9991
tp3104
a(g3
g6
F0.9971
tp3105
asI476
(lp3106
(S'how'
p3107
g23
F0.9962
tp3108
a(S'cute'
p3109
g60
F0.9962
tp3110
a(S'cute'
p3111
g60
F0.9644
tp3112
a(S'cute'
p3113
g60
F0.9786
tp3114
a(S'cute'
p3115
g60
F0.9896
tp3116
a(S'(.)'
p3117
g97
F0.376
tp3118
a(g5
g6
F0.9632
tp3119
asI989
(lp3120
(g73
g26
F0.9984
tp3121
a(S'know'
p3122
g29
F0.9999
tp3123
a(S'you'
p3124
g26
F0.9998
tp3125
a(S'did'
p3126
g29
F0.9958
tp3127
a(g5
g6
F0.9976
tp3128
asI480
(lp3129
(S'Chi'
p3130
g107
F0.8818
tp3131
a(S'move'
p3132
g29
F0.9199
tp3133
a(S'over'
p3134
g225
F0.5992
tp3135
a(g775
g6
F0.9823
tp3136
a(S'22'
p3137
g10
F0.9956
tp3138
a(g5
g6
F0.9879
tp3139
a(g148
g6
F0.924
tp3140
a(g5
g6
F0.9961
tp3141
asI592
(lp3142
(S'uhhum'
p3143
g3
F0.9859
tp3144
a(g5
g6
F0.9962
tp3145
asI483
(lp3146
(S'hm'
p3147
g3
F0.9699
tp3148
a(g1863
g6
F0.7481
tp3149
a(g775
g6
F0.6574
tp3150
a(S'10'
p3151
g10
F0.9988
tp3152
a(g5
g6
F0.9834
tp3153
a(g148
g6
F0.8092
tp3154
a(g125
g6
F0.9965
tp3155
asI486
(lp3156
(S'please'
p3157
g29
F0.9699
tp3158
a(S'sit'
p3159
g29
F0.9887
tp3160
a(S'at'
p3161
g65
F0.9951
tp3162
a(S'the'
p3163
g41
F0.9991
tp3164
a(S'table'
p3165
g18
F0.9934
tp3166
a(S'the'
p3167
g41
F0.9932
tp3168
a(S'right'
p3169
g60
F0.9015
tp3170
a(S'way'
p3171
g18
F0.9697
tp3172
a(g775
g6
F0.9513
tp3173
a(S'10'
p3174
g10
F0.9988
tp3175
a(g5
g6
F0.9831
tp3176
a(g148
g6
F0.8934
tp3177
a(g5
g6
F0.9948
tp3178
asI1002
(lp3179
(S'nice'
p3180
g60
F0.9926
tp3181
a(S'and'
p3182
g13
F0.9982
tp3183
a(S'clean'
p3184
g60
F0.785
tp3185
a(g5
g6
F0.9984
tp3186
asI1005
(lp3187
(S'hey'
p3188
g3
F0.9969
tp3189
a(S"you're"
p3190
g34
F0.9773
tp3191
a(g89
g90
F0.903
tp3192
a(S'the'
p3193
g41
F0.9878
tp3194
a(S'xxx'
p3195
g18
F0.73
tp3196
a(S'in'
p3197
g65
F0.998
tp3198
a(S'the'
p3199
g41
F0.9992
tp3200
a(S'world'
p3201
g18
F0.979
tp3202
a(g96
g97
F0.5501
tp3203
a(g99
g97
F0.5345
tp3204
a(g96
g97
F0.9597
tp3205
a(g102
g6
F0.6916
tp3206
a(g5
g6
F0.9952
tp3207
asI492
(lp3208
(S'right'
p3209
g3
F0.7001
tp3210
a(S'(.)'
p3211
g107
F0.3036
tp3212
a(g5
g6
F0.9933
tp3213
asI850
(lp3214
(S'pick'
p3215
g29
F0.975
tp3216
a(S'that'
p3217
g41
F0.6747
tp3218
a(S'black'
p3219
g60
F0.6369
tp3220
a(S'out'
p3221
g65
F0.8812
tp3222
a(S'of'
p3223
g65
F0.9901
tp3224
a(S'there'
p3225
S'X'
p3226
F0.4081
tp3227
a(S'Matthew'
p3228
g107
F0.9973
tp3229
a(S'(.)'
p3230
g107
F0.7487
tp3231
a(g3
g6
F0.9929
tp3232
asI495
(lp3233
(S"it's"
p3234
g34
F0.9669
tp3235
a(S'time'
p3236
g18
F0.9807
tp3237
a(S'to'
p3238
g65
F0.998
tp3239
a(S'eat'
p3240
g29
F0.9779
tp3241
a(g5
g6
F0.9983
tp3242
asI1009
(lp3243
(g89
g90
F0.9365
tp3244
a(S'perfect'
p3245
g60
F0.9945
tp3246
a(S'thank'
p3247
g29
F0.587
tp3248
a(S'you'
p3249
g26
F0.9993
tp3250
a(g96
g97
F0.3773
tp3251
a(g99
g97
F0.535
tp3252
a(g89
g90
F0.7057
tp3253
a(g102
g6
F0.9842
tp3254
a(g5
g6
F0.9969
tp3255
asI498
(lp3256
(g73
g26
F0.9983
tp3257
a(S'wan(t'
p3258
g29
F0.9996
tp3259
a(g148
g6
F0.9323
tp3260
a(g775
g6
F0.9591
tp3261
a(S't)a'
p3262
g563
F0.2493
tp3263
a(S'xxx'
p3264
g97
F0.4015
tp3265
a(g5
g6
F0.9646
tp3266
asI1012
(lp3267
(S'Matthew'
p3268
g107
F0.9972
tp3269
a(S'could'
p3270
g29
F0.9993
tp3271
a(S'you'
p3272
g26
F0.9994
tp3273
a(S'do'
p3274
g29
F0.9998
tp3275
a(S'the'
p3276
g41
F0.9989
tp3277
a(S'salt'
p3278
g18
F0.8324
tp3279
a(S'shaker'
p3280
g18
F0.9753
tp3281
a(g125
g6
F0.9973
tp3282
asI501
(lp3283
(S'Chi'
p3284
g107
F0.8764
tp3285
a(g99
g6
F0.9555
tp3286
a(g3
g6
F0.9842
tp3287
a(g102
g6
F0.9616
tp3288
a(S'Chi'
p3289
g107
F0.9023
tp3290
a(g99
g6
F0.9577
tp3291
a(g3
g6
F0.9901
tp3292
a(g102
g6
F0.9821
tp3293
a(S'you'
p3294
g26
F0.9973
tp3295
a(S"didn't"
p3296
g29
F1.0
tp3297
a(S'put'
p3298
g29
F0.9995
tp3299
a(S'all'
p3300
g41
F0.6898
tp3301
a(S'that'
p3302
g26
F0.5369
tp3303
a(S'in'
p3304
g65
F0.984
tp3305
a(S'your'
p3306
g41
F0.9965
tp3307
a(S'mouth'
p3308
g18
F0.9998
tp3309
a(g125
g6
F0.9977
tp3310
asI937
(lp3311
(S'it'
p3312
g26
F0.9949
tp3313
a(S'turns'
p3314
g29
F0.9994
tp3315
a(S'to'
p3316
g65
F0.9814
tp3317
a(S'water'
p3318
g18
F0.957
tp3319
a(g5
g6
F0.9987
tp3320
asI1016
(lp3321
(S"I'm"
p3322
g34
F0.997
tp3323
a(S'going'
p3324
g29
F0.9225
tp3325
a(g5
g6
F0.9985
tp3326
asI835
(lp3327
(S'well'
p3328
g3
F0.871
tp3329
a(g99
g6
F0.987
tp3330
a(g89
g90
F0.9843
tp3331
a(g102
g6
F0.9458
tp3332
a(g99
g6
F0.9615
tp3333
a(g96
g97
F0.4438
tp3334
a(g102
g6
F0.8085
tp3335
a(S'overlap'
p3336
g29
F0.8538
tp3337
a(g99
g6
F0.989
tp3338
a(g89
g90
F0.9635
tp3339
a(g102
g6
F0.9284
tp3340
a(g99
g6
F0.9615
tp3341
a(g96
g97
F0.4438
tp3342
a(g102
g6
F0.8675
tp3343
a(S'if'
p3344
g65
F0.9967
tp3345
a(g73
g26
F0.9992
tp3346
a(S'sit'
p3347
g29
F0.9994
tp3348
a(S'on'
p3349
g65
F0.9385
tp3350
a(S'the'
p3351
g41
F0.9995
tp3352
a(S'footstool'
p3353
g18
F0.9986
tp3354
a(S'and'
p3355
g13
F0.9968
tp3356
a(S'you'
p3357
g26
F0.9992
tp3358
a(S'sit'
p3359
g29
F0.9984
tp3360
a(S'on'
p3361
g65
F0.9385
tp3362
a(S'the'
p3363
g41
F0.9994
tp3364
a(S'sofa'
p3365
g18
F0.9863
tp3366
a(S"that's"
p3367
g34
F0.9779
tp3368
a(S'better'
p3369
g60
F0.8595
tp3370
a(g5
g6
F0.9974
tp3371
asI507
(lp3372
(S'he'
p3373
g26
F0.9977
tp3374
a(S'did'
p3375
g29
F0.9979
tp3376
a(g5
g6
F0.9974
tp3377
asI510
(lp3378
(S'no'
p3379
g3
F0.9847
tp3380
a(g3
g6
F0.999
tp3381
as.