(dp0
I2049
(lp1
(S"I'm"
p2
S'L'
p3
F0.9953
tp4
a(S'beatin(g'
p5
S'V'
p6
F0.9244
tp7
a(S')'
p8
S','
p9
F0.9939
tp10
a(S'her'
p11
S'D'
p12
F0.4822
tp13
a(S'(.)'
p14
S'N'
p15
F0.401
tp16
a(S'.'
p17
g9
F0.9974
tp18
asI2052
(lp19
(S'<'
p20
S'~'
p21
F0.9262
tp22
a(S"you're"
p23
g3
F0.9932
tp24
a(S'not'
p25
S'R'
p26
F0.9969
tp27
a(S'>'
p28
S'G'
p29
F0.3953
tp30
a(S'[/]'
p31
g29
F0.2746
tp32
a(S"you're"
p33
g3
F0.995
tp34
a(S'not'
p35
g26
F0.9984
tp36
a(S'beatin(g'
p37
g6
F0.9681
tp38
a(g8
g9
F0.9952
tp39
a(S'me'
p40
S'O'
p41
F0.9901
tp42
a(S'(.)'
p43
g29
F0.2281
tp44
a(g17
g9
F0.9862
tp45
asI2055
(lp46
(S'zzz'
p47
S'!'
p48
F0.3756
tp49
a(g17
g9
F0.9972
tp50
asI2059
(lp51
(S"don't"
p52
g6
F0.9973
tp53
a(g17
g9
F0.9965
tp54
asI2063
(lp55
(S"that's"
p56
g3
F0.9974
tp57
a(S'not'
p58
g26
F0.9993
tp59
a(S'nice'
p60
S'A'
p61
F0.9942
tp62
a(S'(.)'
p63
g15
F0.2183
tp64
a(g17
g9
F0.998
tp65
asI16
(lp66
(S'whose'
p67
g3
F0.7557
tp68
a(S'[///]'
p69
g9
F0.4471
tp70
a(S"you're"
p71
g3
F0.9887
tp72
a(S'playin(g'
p73
g6
F0.9399
tp74
a(g8
g9
F0.9937
tp75
a(S'that'
p76
g41
F0.5713
tp77
a(S'?'
p78
g9
F0.9985
tp79
asI2067
(lp80
(S'wow'
p81
g48
F0.9816
tp82
a(S'Nikka'
p83
g48
F0.4528
tp84
a(g48
g9
F0.9986
tp85
asI21
(lp86
(S'yeah'
p87
g48
F0.9986
tp88
a(g17
g9
F0.997
tp89
asI2071
(lp90
(S'zzz'
p91
g48
F0.3756
tp92
a(g17
g9
F0.9972
tp93
asI24
(lp94
(S'just'
p95
g26
F0.9991
tp96
a(S"don't"
p97
g6
F0.9998
tp98
a(S'touch'
p99
g6
F0.9983
tp100
a(S'it'
p101
g41
F0.9888
tp102
a(g20
g21
F0.7924
tp103
a(S'eat'
p104
g6
F0.9962
tp105
a(S'your'
p106
g12
F0.9942
tp107
a(S'lu(nch)'
p108
g15
F0.989
tp109
a(g28
g29
F0.3945
tp110
a(S'[//]'
p111
g29
F0.2306
tp112
a(S'eat'
p113
g6
F0.9947
tp114
a(S'your'
p115
g12
F0.9939
tp116
a(S'supper'
p117
g15
F0.9979
tp118
a(g17
g9
F0.9992
tp119
asI2075
(lp120
(S'wow'
p121
g48
F0.9986
tp122
a(g48
g9
F0.9956
tp123
asI30
(lp124
(S'what'
p125
g41
F0.9962
tp126
a(S'is'
p127
g6
F0.9994
tp128
a(S'that'
p129
g41
F0.9642
tp130
a(S'for'
p131
S'P'
p132
F0.9826
tp133
a(g78
g9
F0.9965
tp134
asI2081
(lp135
(S'almost'
p136
g26
F0.9832
tp137
a(g17
g9
F0.9966
tp138
asI34
(lp139
(S"it's"
p140
g3
F0.9955
tp141
a(S'a'
p142
g12
F0.9961
tp143
a(S'tape'
p144
g15
F0.9988
tp145
a(S'recorder'
p146
g15
F0.9989
tp147
a(g17
g9
F0.9981
tp148
asI2084
(lp149
(S"I'm"
p150
g3
F0.9967
tp151
a(S'done'
p152
g6
F0.7645
tp153
a(g48
g9
F0.9987
tp154
asI37
(lp155
(S'for'
p156
g132
F0.9989
tp157
a(S'me'
p158
g41
F0.9978
tp159
a(g78
g9
F0.9982
tp160
asI2088
(lp161
(S"I'm"
p162
g3
F0.9942
tp163
a(g142
g12
F0.9873
tp164
a(S'rotten'
p165
g61
F0.9767
tp166
a(S'egg'
p167
g15
F0.9985
tp168
a(g17
g9
F0.9985
tp169
asI41
(lp170
(S'for'
p171
g132
F0.9996
tp172
a(S'the'
p173
g12
F0.9983
tp174
a(S'both'
p175
g15
F0.7012
tp176
a(S'of'
p177
g132
F0.9982
tp178
a(S'you'
p179
g41
F0.9988
tp180
a(g17
g9
F0.9994
tp181
asI44
(lp182
(S'I'
p183
g41
F0.9976
tp184
a(S'have_to'
p185
g6
F0.9984
tp186
a(S'record'
p187
g6
F0.5378
tp188
a(S'suppertime'
p189
g15
F0.8043
tp190
a(g17
g9
F0.9989
tp191
asI47
(lp192
(S"that's"
p193
g3
F0.9949
tp194
a(S'what'
p195
g41
F0.9879
tp196
a(S'it'
p197
g41
F0.9989
tp198
a(S'is'
p199
g6
F0.9996
tp200
a(S'for'
p201
g132
F0.9409
tp202
a(g78
g9
F0.9948
tp203
asI2096
(lp204
(g183
g41
F0.9983
tp205
a(S'bet'
p206
g6
F0.9999
tp207
a(S'you'
p208
g41
F0.9978
tp209
a(g17
g9
F0.9996
tp210
asI51
(lp211
(S'yep'
p212
g48
F0.9972
tp213
a(g17
g9
F0.9971
tp214
asI2100
(lp215
(S'we'
p216
g41
F0.9479
tp217
a(S'both'
p218
g41
F0.7176
tp219
a(S'bet'
p220
g6
F0.9914
tp221
a(S'right'
p222
g26
F0.4896
tp223
a(g78
g9
F0.9988
tp224
asI54
(lp225
(S'who'
p226
g41
F0.9963
tp227
a(S'gave'
p228
g6
F0.9999
tp229
a(S'you'
p230
g41
F0.9965
tp231
a(S'that'
p232
g132
F0.4708
tp233
a(g78
g9
F0.9982
tp234
asI2104
(lp235
(S'you'
p236
g41
F0.9766
tp237
a(S'all'
p238
g12
F0.9341
tp239
a(S'done'
p240
g6
F0.6708
tp241
a(S'Nik'
p242
S'^'
p243
F0.9945
tp244
a(g78
g9
F0.9966
tp245
asI57
(lp246
(S'Anne'
p247
g243
F0.9785
tp248
a(S'and'
p249
S'&'
p250
F0.9981
tp251
a(S'Maggie'
p252
g243
F0.9923
tp253
a(g17
g9
F0.9954
tp254
asI2107
(lp255
(S'Nikki'
p256
g243
F0.9997
tp257
a(S'are'
p258
g6
F0.9979
tp259
a(S'you'
p260
g41
F0.9972
tp261
a(S'all'
p262
g12
F0.9137
tp263
a(S'done'
p264
g6
F0.5164
tp265
a(g78
g9
F0.9986
tp266
asI60
(lp267
(S'well'
p268
g48
F0.8763
tp269
a(S'&-um'
p270
g48
F0.9048
tp271
a(S"that's"
p272
g3
F0.9933
tp273
a(S'alright'
p274
g48
F0.3595
tp275
a(g17
g9
F0.998
tp276
asI2110
(lp277
(S'not'
p278
g26
F0.9977
tp279
a(S'yet'
p280
g26
F0.9625
tp281
a(S"I'm"
p282
g3
F0.9959
tp283
a(S'tryin(g'
p284
g6
F0.8064
tp285
a(g8
g9
F0.9927
tp286
a(S'+/'
p287
g243
F0.3958
tp288
a(g17
g9
F0.9933
tp289
asI64
(lp290
(S'no'
p291
g48
F0.787
tp292
a(S'not'
p293
g26
F0.9845
tp294
a(S'stuck'
p295
g6
F0.9846
tp296
a(S'in'
p297
g132
F0.9412
tp298
a(S'there'
p299
g26
F0.8181
tp300
a(g17
g9
F0.9976
tp301
asI2113
(lp302
(S"that's"
p303
g3
F0.9859
tp304
a(S'enough'
p305
g61
F0.7185
tp306
a(g48
g9
F0.999
tp307
asI68
(lp308
(S"what's"
p309
g3
F0.9922
tp310
a(S'the'
p311
g12
F0.9971
tp312
a(S'red'
p313
g61
F0.9906
tp314
a(S'one'
p315
S'$'
p316
F0.9295
tp317
a(S'for'
p318
g132
F0.9951
tp319
a(g78
g9
F0.9948
tp320
asI2117
(lp321
(S"you're"
p322
g3
F0.9904
tp323
a(S'gettin(g'
p324
g6
F0.9708
tp325
a(g8
g9
F0.9932
tp326
a(S'it'
p327
g41
F0.9849
tp328
a(S'in'
p329
g132
F0.9631
tp330
a(S'your'
p331
g12
F0.995
tp332
a(S'hair'
p333
g15
F0.9995
tp334
a(g48
g9
F0.9988
tp335
asI72
(lp336
(S'to'
p337
g132
F0.9945
tp338
a(S'play'
p339
g6
F0.9848
tp340
a(g17
g9
F0.9981
tp341
asI2122
(lp342
(S'good'
p343
g61
F0.9946
tp344
a(S'girl'
p345
g15
F0.9964
tp346
a(S'drink'
p347
g6
F0.9738
tp348
a(S'your'
p349
g12
F0.9847
tp350
a(S'milk'
p351
g15
F0.9994
tp352
a(g17
g9
F0.9982
tp353
asI76
(lp354
(S'how'
p355
g26
F0.9547
tp356
a(S'did'
p357
g6
F0.9647
tp358
a(S'things'
p359
g15
F0.9689
tp360
a(S'go'
p361
g6
F0.9855
tp362
a(S'today'
p363
g15
F0.8538
tp364
a(g78
g9
F0.9972
tp365
asI2126
(lp366
(S'good'
p367
g61
F0.9939
tp368
a(S'boy'
p369
g15
F0.9984
tp370
a(g17
g9
F0.9982
tp371
asI79
(lp372
(S'alright'
p373
g48
F0.9588
tp374
a(S'xxx'
p375
S'E'
p376
F0.4656
tp377
a(g17
g9
F0.9721
tp378
asI82
(lp379
(S'that'
p380
g41
F0.5115
tp381
a(S'[/]'
p382
g9
F0.4755
tp383
a(S"that's"
p384
g3
F0.9935
tp385
a(S'mine'
p386
g41
F0.9345
tp387
a(S'right'
p388
g26
F0.8166
tp389
a(g78
g9
F0.9983
tp390
asI2133
(lp391
(S'now'
p392
g26
F0.9938
tp393
a(S'can'
p394
g6
F0.9985
tp395
a(g183
g41
F0.9989
tp396
a(S'see'
p397
g6
F0.9998
tp398
a(S'it'
p399
g41
F0.8268
tp400
a(g78
g9
F0.9987
tp401
asI86
(lp402
(S'some'
p403
g12
F0.9583
tp404
a(S'both'
p405
g15
F0.4336
tp406
a(S'of'
p407
g132
F0.9927
tp408
a(S'us'
p409
g41
F0.9338
tp410
a(g17
g9
F0.9982
tp411
asI89
(lp412
(S"I'm"
p413
g3
F0.9981
tp414
a(S'not'
p415
g26
F0.9985
tp416
a(S'talkin(g'
p417
g6
F0.8851
tp418
a(g8
g9
F0.9921
tp419
a(g17
g9
F0.9961
tp420
asI92
(lp421
(S'no'
p422
g48
F0.7417
tp423
a(g20
g21
F0.4546
tp424
a(S"you're>"
p425
g3
F0.94
tp426
a(S'[//]'
p427
g9
F0.4011
tp428
a(S"it's"
p429
g3
F0.9951
tp430
a(S'gonna'
p431
g6
F0.9723
tp432
a(S'record'
p433
g6
F0.7868
tp434
a(S'what'
p435
g41
F0.9436
tp436
a(S'you'
p437
g41
F0.9984
tp438
a(S'['
p439
g9
F0.9947
tp440
a(g48
g9
F0.9901
tp441
a(S']'
p442
g9
F0.9747
tp443
a(S'say'
p444
g6
F0.9758
tp445
a(S'at'
p446
g132
F0.994
tp447
a(S'suppertime'
p448
g243
F0.6162
tp449
a(g17
g9
F0.9973
tp450
asI2143
(lp451
(S'drink'
p452
g6
F0.9677
tp453
a(S'your'
p454
g12
F0.983
tp455
a(S'milk'
p456
g15
F0.9997
tp457
a(g17
g9
F0.9986
tp458
asI97
(lp459
(S'me'
p460
g41
F0.9974
tp461
a(S'and'
p462
g250
F0.9931
tp463
a(S'Nikki'
p464
g243
F0.9999
tp465
a(g78
g9
F0.9964
tp466
asI2146
(lp467
(S"you're"
p468
g3
F0.9953
tp469
a(S'not'
p470
g26
F0.9973
tp471
a(S'gonna'
p472
g6
F0.9976
tp473
a(S'eat'
p474
g6
F0.9989
tp475
a(S'this'
p476
g41
F0.7662
tp477
a(g78
g9
F0.9981
tp478
asI101
(lp479
(S'yep'
p480
g48
F0.9972
tp481
a(g17
g9
F0.9971
tp482
asI2150
(lp483
(S'no'
p484
g48
F0.9704
tp485
a(g17
g9
F0.9989
tp486
asI104
(lp487
(S'yay'
p488
g48
F0.9975
tp489
a(g48
g9
F0.995
tp490
asI2153
(lp491
(S'drink'
p492
g6
F0.9677
tp493
a(S'your'
p494
g12
F0.983
tp495
a(S'milk'
p496
g15
F0.9997
tp497
a(g17
g9
F0.9986
tp498
asI107
(lp499
(S'hot'
p500
g61
F0.8656
tp501
a(S'very'
p502
g26
F0.9839
tp503
a(S'hot'
p504
g61
F0.9986
tp505
a(g17
g9
F0.9987
tp506
asI2156
(lp507
(g183
g41
F0.9976
tp508
a(S'will'
p509
g6
F0.9997
tp510
a(S'eat'
p511
g6
F0.9997
tp512
a(S'it'
p513
g41
F0.9927
tp514
a(S'[='
p515
g376
F0.8662
tp516
a(S"Eric's"
p517
S'Z'
p518
F0.7697
tp519
a(S'sandwich'
p520
g15
F0.9877
tp521
a(g442
g9
F0.9929
tp522
a(g17
g9
F0.9969
tp523
asI110
(lp524
(S'blow'
p525
g15
F0.8305
tp526
a(S'on'
p527
g132
F0.9938
tp528
a(S'it'
p529
g41
F0.9973
tp530
a(g17
g9
F0.999
tp531
asI2159
(lp532
(g20
g21
F0.9526
tp533
a(g183
g41
F0.9967
tp534
a(g28
g21
F0.2694
tp535
a(S'[/]'
p536
g9
F0.3525
tp537
a(S"I'll"
p538
g3
F0.9833
tp539
a(S'put'
p540
g6
F0.9986
tp541
a(S'this'
p542
g41
F0.813
tp543
a(S'up'
p544
S'T'
p545
F0.935
tp546
a(S'top'
p547
g15
F0.6715
tp548
a(S'of'
p549
g132
F0.9983
tp550
a(S'there'
p551
g26
F0.6306
tp552
a(g17
g9
F0.9969
tp553
asI114
(lp554
(S"doesn't"
p555
g6
F0.9598
tp556
a(g439
g9
F0.9704
tp557
a(g78
g9
F0.976
tp558
a(g442
g9
F0.9084
tp559
a(S'do'
p560
g6
F0.9998
tp561
a(S'it'
p562
g41
F0.9913
tp563
a(g48
g9
F0.9991
tp564
asI2164
(lp565
(S'xxx'
p566
g376
F0.8981
tp567
a(g439
g9
F0.661
tp568
a(g28
g376
F0.3811
tp569
a(g442
g9
F0.7604
tp570
a(g17
g9
F0.9962
tp571
asI117
(lp572
(S'stick'
p573
g6
F0.9872
tp574
a(S'your'
p575
g12
F0.9896
tp576
a(S'sandwiches'
p577
g15
F0.9985
tp578
a(S'[///]'
p579
g9
F0.4969
tp580
a(S'no'
p581
g48
F0.4859
tp582
a(S'Nikki'
p583
g243
F0.9978
tp584
a(g48
g9
F0.9901
tp585
asI2168
(lp586
(S'oh'
p587
g48
F0.9994
tp588
a(g48
g9
F0.9921
tp589
asI121
(lp590
(S"don't"
p591
g6
F0.9995
tp592
a(S'do'
p593
g6
F1.0
tp594
a(S'that'
p595
g41
F0.6565
tp596
a(S"you'll"
p597
g3
F0.9328
tp598
a(S'make'
p599
g6
F0.9995
tp600
a(g142
g12
F0.9985
tp601
a(S'big'
p602
g61
F0.9637
tp603
a(S'mess'
p604
g15
F0.9961
tp605
a(g17
g9
F0.9985
tp606
asI2171
(lp607
(S"you're"
p608
g3
F0.9894
tp609
a(S'gonna'
p610
g6
F0.996
tp611
a(S'eat'
p612
g6
F0.9998
tp613
a(S'it'
p614
g41
F0.9864
tp615
a(S'Nik'
p616
g243
F0.9846
tp617
a(g78
g9
F0.9951
tp618
asI2174
(lp619
(S'yeah'
p620
g48
F0.9986
tp621
a(g17
g9
F0.997
tp622
asI127
(lp623
(S'see'
p624
g6
F0.7478
tp625
a(g48
g9
F0.997
tp626
asI2177
(lp627
(S'good'
p628
g61
F0.967
tp629
a(g17
g9
F0.998
tp630
asI130
(lp631
(g183
g41
F0.9982
tp632
a(S'told'
p633
g6
F1.0
tp634
a(S'you'
p635
g41
F0.9946
tp636
a(g48
g9
F0.9996
tp637
asI2180
(lp638
(S'huh'
p639
g48
F0.9821
tp640
a(S'(.)'
p641
g243
F0.2713
tp642
a(g17
g9
F0.9933
tp643
asI133
(lp644
(S"I'm"
p645
g3
F0.9951
tp646
a(S'gonna'
p647
g6
F0.9932
tp648
a(S'wipe'
p649
g6
F0.962
tp650
a(g17
g9
F0.9977
tp651
asI2183
(lp652
(g183
g41
F0.9976
tp653
a(S"couldn't"
p654
g6
F1.0
tp655
a(S'eat'
p656
g6
F0.9996
tp657
a(S'my'
p658
g12
F0.9976
tp659
a(S'sandwich'
p660
g15
F0.9988
tp661
a(g17
g9
F0.9982
tp662
asI136
(lp663
(S'butter'
p664
g15
F0.9463
tp665
a(g439
g9
F0.988
tp666
a(g78
g9
F0.976
tp667
a(g442
g9
F0.9418
tp668
a(S'stick'
p669
g6
F0.9553
tp670
a(S'to'
p671
g132
F0.9947
tp672
a(S'sandwiches'
p673
g15
F0.9183
tp674
a(S'and'
p675
g250
F0.9982
tp676
a(g183
g41
F0.998
tp677
a(S'hope'
p678
g6
F0.9998
tp679
a(S'you'
p680
g41
F0.9996
tp681
a(S'do'
p682
g6
F0.9992
tp683
a(g17
g9
F0.9966
tp684
asI2186
(lp685
(S'me'
p686
g41
F0.9905
tp687
a(g17
g9
F0.998
tp688
asI141
(lp689
(S"that's"
p690
g3
F0.995
tp691
a(S'how'
p692
g26
F0.992
tp693
a(g183
g41
F0.9986
tp694
a(S'like'
p695
g6
F0.8933
tp696
a(S'it'
p697
g41
F0.998
tp698
a(g17
g9
F0.9986
tp699
asI144
(lp700
(S"that's"
p701
g3
F0.995
tp702
a(S'how'
p703
g26
F0.992
tp704
a(g183
g41
F0.9986
tp705
a(S'like'
p706
g6
F0.8933
tp707
a(S'it'
p708
g41
F0.998
tp709
a(g17
g9
F0.9986
tp710
asI2193
(lp711
(g183
g41
F0.9983
tp712
a(S'have'
p713
g6
F0.9992
tp714
a(S'xxx'
p715
g15
F0.2995
tp716
a(S'tea'
p717
g15
F0.9933
tp718
a(g17
g9
F0.9987
tp719
asI147
(lp720
(g183
g41
F0.994
tp721
a(S'like'
p722
g6
F0.9402
tp723
a(S'it'
p724
g41
F0.9893
tp725
a(S'hot'
p726
g61
F0.9772
tp727
a(g17
g9
F0.9987
tp728
asI2196
(lp729
(g183
g41
F0.9983
tp730
a(S'been'
p731
g6
F0.9996
tp732
a(S'drinking'
p733
g6
F0.9997
tp734
a(S'your'
p735
g12
F0.9874
tp736
a(S'tea'
p737
g15
F0.9953
tp738
a(g17
g9
F0.9981
tp739
asI150
(lp740
(S'eat'
p741
g6
F0.9835
tp742
a(S'over'
p743
g132
F0.9272
tp744
a(S'your'
p745
g12
F0.9896
tp746
a(S'bowl'
p747
g15
F0.9998
tp748
a(g17
g9
F0.9989
tp749
asI2199
(lp750
(S'hm'
p751
g48
F0.9811
tp752
a(S':'
p753
g9
F0.891
tp754
a(g78
g9
F0.9885
tp755
asI153
(lp756
(S'zzz'
p757
g48
F0.3756
tp758
a(g17
g9
F0.9972
tp759
asI2202
(lp760
(S'what'
p761
g41
F0.9171
tp762
a(g78
g9
F0.9924
tp763
asI157
(lp764
(S'Ma'
p765
g48
F0.2842
tp766
a(g78
g9
F0.9933
tp767
asI2208
(lp768
(S'mm'
p769
g48
F0.5842
tp770
a(g17
g9
F0.9932
tp771
asI161
(lp772
(S"you're"
p773
g3
F0.9903
tp774
a(S'puttin(g'
p775
g6
F0.917
tp776
a(g8
g9
F0.9849
tp777
a(S'wine'
p778
g15
F0.9056
tp779
a(S'in'
p780
g132
F0.9942
tp781
a(S'that'
p782
g41
F0.8358
tp783
a(g78
g9
F0.9985
tp784
asI2211
(lp785
(S'yeah'
p786
g48
F0.9994
tp787
a(g48
g9
F0.9967
tp788
asI166
(lp789
(S'nope'
p790
g48
F0.9942
tp791
a(g17
g9
F0.9975
tp792
asI2215
(lp793
(S'zzz'
p794
g48
F0.3756
tp795
a(g17
g9
F0.9972
tp796
asI169
(lp797
(S'right'
p798
g48
F0.7325
tp799
a(g78
g9
F0.9985
tp800
asI2219
(lp801
(S"you're"
p802
g3
F0.9837
tp803
a(S'drinkin(g'
p804
g6
F0.708
tp805
a(g8
g9
F0.9782
tp806
a(S'your'
p807
g12
F0.9609
tp808
a(S'tea'
p809
g15
F0.9953
tp810
a(g17
g9
F0.9981
tp811
asI173
(lp812
(S"that's"
p813
g3
F0.9907
tp814
a(g142
g12
F0.9957
tp815
a(S'fireman'
p816
g15
F0.9889
tp817
a(g439
g9
F0.991
tp818
a(g78
g9
F0.9879
tp819
a(g442
g9
F0.888
tp820
a(g17
g9
F0.9959
tp821
asI2222
(lp822
(S'zzz'
p823
g48
F0.3756
tp824
a(g17
g9
F0.9972
tp825
asI176
(lp826
(S"I've"
p827
g3
F0.9807
tp828
a(g142
g12
F0.9869
tp829
a(S'diamond'
p830
g15
F0.9606
tp831
a(S'right'
p832
g26
F0.7258
tp833
a(S'there'
p834
g26
F0.9308
tp835
a(g17
g9
F0.9976
tp836
asI2226
(lp837
(S'drinkin(g'
p838
g6
F0.518
tp839
a(g8
g9
F0.9894
tp840
a(S'it'
p841
g41
F0.9631
tp842
a(g78
g9
F0.999
tp843
asI179
(lp844
(S'okay'
p845
g48
F0.9741
tp846
a(g17
g9
F0.9977
tp847
asI2078
(lp848
(S'you'
p849
g41
F0.9766
tp850
a(S'all'
p851
g12
F0.9341
tp852
a(S'done'
p853
g6
F0.6708
tp854
a(S'Nik'
p855
g243
F0.9945
tp856
a(g78
g9
F0.9966
tp857
asI182
(lp858
(S'push'
p859
g6
F0.9118
tp860
a(S'this'
p861
g41
F0.8516
tp862
a(S'on'
p863
g132
F0.9413
tp864
a(S'the'
p865
g12
F0.9993
tp866
a(S'table'
p867
g15
F0.9976
tp868
a(g17
g9
F0.9977
tp869
asI2232
(lp870
(S'eatin(g'
p871
g6
F0.8708
tp872
a(g8
g9
F0.994
tp873
a(S'it'
p874
g41
F0.9631
tp875
a(g78
g9
F0.999
tp876
asI185
(lp877
(S'this'
p878
g12
F0.589
tp879
a(S'[///]'
p880
g9
F0.4499
tp881
a(S'we'
p882
g41
F0.9915
tp883
a(S"willn't"
p884
g6
F0.8994
tp885
a(S'look'
p886
g6
F0.9511
tp887
a(S'at'
p888
g132
F0.9994
tp889
a(S'the'
p890
g12
F0.9997
tp891
a(S'little'
p892
g61
F0.9844
tp893
a(S'+/'
p894
g15
F0.5204
tp895
a(g17
g9
F0.9979
tp896
asI2235
(lp897
(S'&-um'
p898
g48
F0.9203
tp899
a(S'drinkin(g'
p900
g6
F0.5462
tp901
a(g8
g9
F0.9911
tp902
a(S'it'
p903
g41
F0.9743
tp904
a(g17
g9
F0.9989
tp905
asI189
(lp906
(g183
g41
F0.9974
tp907
a(S'make'
p908
g6
F0.9999
tp909
a(g142
g12
F0.9972
tp910
a(S'hot'
p911
g61
F0.9204
tp912
a(g17
g9
F0.9987
tp913
asI2238
(lp914
(S'no'
p915
g48
F0.9704
tp916
a(g17
g9
F0.9989
tp917
asI192
(lp918
(S'what'
p919
g41
F0.9171
tp920
a(g78
g9
F0.9924
tp921
asI2241
(lp922
(S'we'
p923
g41
F0.9884
tp924
a(S'drink'
p925
g6
F0.9735
tp926
a(S'milk'
p927
g15
F0.9989
tp928
a(g48
g9
F0.9989
tp929
asI195
(lp930
(S'you'
p931
g41
F0.9966
tp932
a(S'make'
p933
g6
F0.9998
tp934
a(S'it'
p935
g41
F0.6269
tp936
a(S'hot'
p937
g61
F0.9795
tp938
a(g78
g9
F0.998
tp939
asI2244
(lp940
(S'we'
p941
g41
F0.9884
tp942
a(S'drink'
p943
g6
F0.9753
tp944
a(S'tea'
p945
g15
F0.9918
tp946
a(g17
g9
F0.9985
tp947
asI198
(lp948
(S'mhm'
p949
g48
F0.9761
tp950
a(g17
g9
F0.9962
tp951
asI2247
(lp952
(S'you'
p953
g41
F0.9766
tp954
a(S'all'
p955
g12
F0.9341
tp956
a(S'done'
p957
g6
F0.4555
tp958
a(S'Buddy'
p959
g15
F0.6825
tp960
a(g78
g9
F0.9984
tp961
asI201
(lp962
(S'what'
p963
g41
F0.9771
tp964
a(S'if'
p965
g132
F0.9974
tp966
a(S'it'
p967
g41
F0.9973
tp968
a(S'burns'
p969
g6
F0.9951
tp970
a(S'your'
p971
g12
F0.9945
tp972
a(S'mouth'
p973
g15
F0.9997
tp974
a(g78
g9
F0.9981
tp975
asI2251
(lp976
(S'yeah'
p977
g48
F0.9986
tp978
a(g17
g9
F0.997
tp979
asI204
(lp980
(S'no'
p981
g48
F0.9704
tp982
a(g17
g9
F0.9989
tp983
asI2254
(lp984
(S'put'
p985
g6
F0.9896
tp986
a(S'your'
p987
g12
F0.9941
tp988
a(S'cup'
p989
g15
F0.9971
tp990
a(S'in'
p991
g132
F0.999
tp992
a(S'the'
p993
g12
F0.997
tp994
a(S'sink'
p995
g15
F0.9964
tp996
a(g17
g9
F0.9988
tp997
asI207
(lp998
(S'it'
p999
g41
F0.9881
tp1000
a(S"doesn't"
p1001
g6
F0.9995
tp1002
a(S'burn'
p1003
g6
F0.9996
tp1004
a(S'your'
p1005
g12
F0.9967
tp1006
a(S'mouth'
p1007
g15
F0.9997
tp1008
a(g78
g9
F0.9977
tp1009
asI2257
(lp1010
(S'and'
p1011
g250
F0.9987
tp1012
a(S'then'
p1013
g26
F0.9779
tp1014
a(S'can'
p1015
g6
F0.9974
tp1016
a(g183
g41
F0.9988
tp1017
a(S'see'
p1018
g6
F0.9998
tp1019
a(S'this'
p1020
g12
F0.5338
tp1021
a(g78
g9
F0.9962
tp1022
asI211
(lp1023
(S'nope'
p1024
g48
F0.9942
tp1025
a(g17
g9
F0.9975
tp1026
asI2261
(lp1027
(S"it's"
p1028
g3
F0.9936
tp1029
a(S'all'
p1030
g12
F0.8439
tp1031
a(S'done'
p1032
g6
F0.4481
tp1033
a(g17
g9
F0.999
tp1034
asI214
(lp1035
(S'uhuh'
p1036
g48
F0.9924
tp1037
a(g17
g9
F0.9962
tp1038
asI2264
(lp1039
(S"you're"
p1040
g3
F0.9782
tp1041
a(S'all'
p1042
g12
F0.7894
tp1043
a(S'done'
p1044
g6
F0.4481
tp1045
a(g17
g9
F0.999
tp1046
asI217
(lp1047
(S'it'
p1048
g41
F0.9494
tp1049
a(S'cool'
p1050
g61
F0.9813
tp1051
a(g17
g9
F0.9984
tp1052
asI2267
(lp1053
(S"I'm"
p1054
g3
F0.9951
tp1055
a(S'gonna'
p1056
g6
F0.9944
tp1057
a(S'shut'
p1058
g6
F0.9995
tp1059
a(S'it'
p1060
g41
F0.9904
tp1061
a(S'off'
p1062
g545
F0.8606
tp1063
a(g17
g9
F0.9973
tp1064
asI220
(lp1065
(S'my'
p1066
g12
F0.9246
tp1067
a(S'&-uh'
p1068
g29
F0.3641
tp1069
a(S'&-uh'
p1070
g29
F0.4906
tp1071
a(S'&-uh'
p1072
g48
F0.661
tp1073
a(S'what'
p1074
g41
F0.998
tp1075
a(S'is'
p1076
g6
F0.9978
tp1077
a(S'[///]'
p1078
g9
F0.2907
tp1079
a(g20
g21
F0.958
tp1080
a(S'well'
p1081
g48
F0.7635
tp1082
a(g183
g41
F0.9983
tp1083
a(S'like'
p1084
g6
F0.9348
tp1085
a(S'it'
p1086
g41
F0.9991
tp1087
a(g28
g376
F0.4648
tp1088
a(g439
g376
F0.5345
tp1089
a(g28
g376
F0.9539
tp1090
a(g442
g9
F0.8524
tp1091
a(g17
g9
F0.9948
tp1092
asI2270
(lp1093
(S'no'
p1094
g48
F0.9704
tp1095
a(g17
g9
F0.9989
tp1096
asI223
(lp1097
(g20
g21
F0.9351
tp1098
a(S'eat'
p1099
g6
F0.994
tp1100
a(S'over'
p1101
g132
F0.9145
tp1102
a(S'the'
p1103
g12
F0.9993
tp1104
a(S'bowl'
p1105
g15
F0.9988
tp1106
a(g28
g376
F0.628
tp1107
a(g439
g376
F0.535
tp1108
a(g20
g21
F0.7916
tp1109
a(g442
g9
F0.9675
tp1110
a(g48
g9
F0.9965
tp1111
asI2274
(lp1112
(S'yeah'
p1113
g48
F0.9986
tp1114
a(g17
g9
F0.997
tp1115
asI227
(lp1116
(S"don't"
p1117
g6
F0.9977
tp1118
a(S'xxx'
p1119
g6
F0.8864
tp1120
a(S'there'
p1121
g26
F0.8174
tp1122
a(g17
g9
F0.9982
tp1123
asI2277
(lp1124
(S'suppertime'
p1125
g243
F0.6257
tp1126
a(S'is'
p1127
g6
F0.9978
tp1128
a(S'all'
p1129
g12
F0.8101
tp1130
a(S'done'
p1131
g61
F0.4563
tp1132
a(g17
g9
F0.9991
tp1133
asI231
(lp1134
(S"where's"
p1135
g3
F0.8025
tp1136
a(S'Uncle'
p1137
g243
F0.4895
tp1138
a(g20
g21
F0.6577
tp1139
a(S'Dav(id)'
p1140
g243
F0.9421
tp1141
a(g28
g29
F0.3701
tp1142
a(S'[/]'
p1143
g29
F0.3791
tp1144
a(S'Davids'
p1145
g243
F0.9867
tp1146
a(S'goin(g'
p1147
g6
F0.8571
tp1148
a(g8
g9
F0.9904
tp1149
a(g78
g9
F0.9964
tp1150
asI234
(lp1151
(S'to'
p1152
g132
F0.9981
tp1153
a(S'the'
p1154
g12
F0.9992
tp1155
a(S'tow'
p1156
g15
F0.98
tp1157
a(S'truck'
p1158
g15
F0.9994
tp1159
a(g17
g9
F0.9985
tp1160
asI237
(lp1161
(S'and'
p1162
g250
F0.9987
tp1163
a(S'then'
p1164
g26
F0.9894
tp1165
a(S"he'll"
p1166
g3
F0.9796
tp1167
a(S'come'
p1168
g6
F0.9997
tp1169
a(S'right'
p1170
g26
F0.9621
tp1171
a(S'back'
p1172
g26
F0.8619
tp1173
a(g78
g9
F0.9985
tp1174
asI240
(lp1175
(S'yeah'
p1176
g48
F0.9986
tp1177
a(g17
g9
F0.997
tp1178
asI245
(lp1179
(S'turn'
p1180
g6
F0.9848
tp1181
a(S'around'
p1182
g26
F0.5969
tp1183
a(S'and'
p1184
g250
F0.9955
tp1185
a(S'eat'
p1186
g6
F0.9984
tp1187
a(S'your'
p1188
g12
F0.9941
tp1189
a(S'dinner'
p1190
g15
F0.9981
tp1191
a(g17
g9
F0.9985
tp1192
asI249
(lp1193
(S'come'
p1194
g6
F0.9897
tp1195
a(S'on'
p1196
g132
F0.8516
tp1197
a(S'Buddy'
p1198
g243
F0.5655
tp1199
a(S'eat'
p1200
g6
F0.9803
tp1201
a(S'your'
p1202
g12
F0.9934
tp1203
a(S'soup'
p1204
g15
F0.9981
tp1205
a(g17
g9
F0.9985
tp1206
asI253
(lp1207
(S'do'
p1208
g6
F0.9985
tp1209
a(S'you'
p1210
g41
F0.9736
tp1211
a(S'guys'
p1212
g15
F0.9502
tp1213
a(S'want'
p1214
g6
F0.9997
tp1215
a(g142
g12
F0.9965
tp1216
a(S'drink'
p1217
g15
F0.9977
tp1218
a(S'of'
p1219
g132
F0.9976
tp1220
a(S'milk'
p1221
g15
F0.9857
tp1222
a(g78
g9
F0.9979
tp1223
asI259
(lp1224
(S'yeah'
p1225
g48
F0.9994
tp1226
a(g48
g9
F0.9967
tp1227
asI262
(lp1228
(S'eat'
p1229
g6
F0.9835
tp1230
a(S'over'
p1231
g132
F0.9272
tp1232
a(S'your'
p1233
g12
F0.9923
tp1234
a(S'bowls'
p1235
g15
F0.9994
tp1236
a(g17
g9
F0.9986
tp1237
asI265
(lp1238
(S'&-uh'
p1239
g48
F0.866
tp1240
a(S"I'll"
p1241
g3
F0.9848
tp1242
a(S'have'
p1243
g6
F0.9999
tp1244
a(g142
g12
F0.9976
tp1245
a(S'glass'
p1246
g15
F0.9985
tp1247
a(S'of'
p1248
g132
F0.9971
tp1249
a(S'milk'
p1250
g15
F0.9902
tp1251
a(g17
g9
F0.9987
tp1252
asI268
(lp1253
(S'please'
p1254
g6
F0.7885
tp1255
a(g78
g9
F0.9975
tp1256
asI272
(lp1257
(S'please'
p1258
g6
F0.8917
tp1259
a(S'(.)'
p1260
g243
F0.3637
tp1261
a(g17
g9
F0.9933
tp1262
asI275
(lp1263
(S"David's"
p1264
g518
F0.5468
tp1265
a(S'goin(g'
p1266
g6
F0.7239
tp1267
a(g8
g9
F0.992
tp1268
a(S'bye'
p1269
g48
F0.8082
tp1270
a(S'bye'
p1271
g48
F0.9442
tp1272
a(S'(.)'
p1273
g243
F0.4299
tp1274
a(g17
g9
F0.9934
tp1275
asI278
(lp1276
(S'another'
p1277
g12
F0.9914
tp1278
a(S'beer'
p1279
g15
F0.9991
tp1280
a(g439
g9
F0.9851
tp1281
a(g78
g9
F0.9878
tp1282
a(g442
g9
F0.8381
tp1283
a(S'(.)'
p1284
g376
F0.3182
tp1285
a(g17
g9
F0.9632
tp1286
asI281
(lp1287
(S'xxx'
p1288
g376
F0.6645
tp1289
a(S'milk'
p1290
g15
F0.9943
tp1291
a(g17
g9
F0.9985
tp1292
asI284
(lp1293
(S'mine'
p1294
g41
F0.8022
tp1295
a(g17
g9
F0.9966
tp1296
asI287
(lp1297
(S"don't"
p1298
g6
F0.9985
tp1299
a(S'spill'
p1300
g6
F0.9978
tp1301
a(S'it'
p1302
g41
F0.9827
tp1303
a(g17
g9
F0.999
tp1304
asI290
(lp1305
(S"where'd"
p1306
g26
F0.6042
tp1307
a(S'you'
p1308
g41
F0.9991
tp1309
a(S'get'
p1310
g6
F0.9999
tp1311
a(S'the'
p1312
g12
F0.9992
tp1313
a(S'glass'
p1314
g15
F0.9893
tp1315
a(S'from'
p1316
g132
F0.9966
tp1317
a(g78
g9
F0.9937
tp1318
asI296
(lp1319
(S"don't"
p1320
g6
F0.9985
tp1321
a(S'drink'
p1322
g6
F0.9997
tp1323
a(S'it'
p1324
g41
F0.9498
tp1325
a(S'all'
p1326
g12
F0.6299
tp1327
a(S'either'
p1328
g12
F0.6401
tp1329
a(S'('
p1330
g9
F0.9926
tp1331
a(S'be)cause'
p1332
g132
F0.9868
tp1333
a(S'then'
p1334
g26
F0.977
tp1335
a(S"you'll"
p1336
g3
F0.9847
tp1337
a(S'fill'
p1338
g6
F0.9997
tp1339
a(S'up'
p1340
g545
F0.9677
tp1341
a(S'and'
p1342
g250
F0.9978
tp1343
a(S'you'
p1344
g41
F0.9985
tp1345
a(S"won't"
p1346
g6
F0.9956
tp1347
a(S'eat'
p1348
g6
F0.9995
tp1349
a(S'your'
p1350
g12
F0.9939
tp1351
a(S'supper'
p1352
g15
F0.9968
tp1353
a(g17
g9
F0.9989
tp1354
asI304
(lp1355
(S'you'
p1356
g41
F0.9968
tp1357
a(S'gonna'
p1358
g6
F0.9994
tp1359
a(S'go'
p1360
g6
F0.9993
tp1361
a(S'to'
p1362
g132
F0.9964
tp1363
a(S'Boston'
p1364
g243
F0.9878
tp1365
a(S'this'
p1366
g12
F0.9833
tp1367
a(S'weekend'
p1368
g15
F0.9944
tp1369
a(g78
g9
F0.9983
tp1370
asI309
(lp1371
(S'yeah'
p1372
g48
F0.9986
tp1373
a(g17
g9
F0.997
tp1374
asI312
(lp1375
(S'to'
p1376
g132
F0.9981
tp1377
a(S'the'
p1378
g12
F0.999
tp1379
a(S'concert'
p1380
g15
F0.9992
tp1381
a(S'hall'
p1382
g15
F0.9961
tp1383
a(g78
g9
F0.9988
tp1384
asI315
(lp1385
(S'xxx'
p1386
g376
F0.8981
tp1387
a(g439
g9
F0.661
tp1388
a(g28
g376
F0.3811
tp1389
a(g442
g9
F0.7604
tp1390
a(g17
g9
F0.9962
tp1391
asI318
(lp1392
(g20
g21
F0.9001
tp1393
a(S'you'
p1394
g41
F0.9971
tp1395
a(S"don't"
p1396
g6
F1.0
tp1397
a(S'go'
p1398
g6
F0.9999
tp1399
a(S'up'
p1400
g545
F0.5911
tp1401
a(S'high'
p1402
g61
F0.5211
tp1403
a(g28
g376
F0.38
tp1404
a(g439
g376
F0.535
tp1405
a(g20
g21
F0.7815
tp1406
a(g442
g9
F0.9822
tp1407
a(g17
g9
F0.9964
tp1408
asI321
(lp1409
(S'you'
p1410
g41
F0.998
tp1411
a(S'want'
p1412
g6
F1.0
tp1413
a(S'me'
p1414
g41
F0.9983
tp1415
a(S'to'
p1416
g132
F0.9815
tp1417
a(S'stir'
p1418
g6
F0.9968
tp1419
a(S'it'
p1420
g41
F0.9729
tp1421
a(g78
g9
F0.9989
tp1422
asI325
(lp1423
(S'you'
p1424
g41
F0.998
tp1425
a(S'want'
p1426
g6
F1.0
tp1427
a(S'me'
p1428
g41
F0.9983
tp1429
a(S'to'
p1430
g132
F0.9781
tp1431
a(S'cut'
p1432
g6
F0.993
tp1433
a(S'it'
p1434
g41
F0.9369
tp1435
a(S'you'
p1436
g41
F0.9984
tp1437
a(S'want'
p1438
g6
F1.0
tp1439
a(S'me'
p1440
g41
F0.9984
tp1441
a(S'to'
p1442
g132
F0.9819
tp1443
a(S'stir'
p1444
g6
F0.9906
tp1445
a(S'it'
p1446
g41
F0.9641
tp1447
a(g78
g9
F0.9986
tp1448
asI332
(lp1449
(S"it'll"
p1450
g3
F0.9972
tp1451
a(S'cool'
p1452
g61
F0.8646
tp1453
a(S'down'
p1454
g26
F0.2847
tp1455
a(g17
g9
F0.9984
tp1456
asI335
(lp1457
(S'what'
p1458
g41
F0.9171
tp1459
a(g78
g9
F0.9924
tp1460
asI339
(lp1461
(S"it'll"
p1462
g3
F0.9972
tp1463
a(S'cool'
p1464
g61
F0.8646
tp1465
a(S'down'
p1466
g26
F0.2847
tp1467
a(g17
g9
F0.9984
tp1468
asI342
(lp1469
(S'want'
p1470
g6
F0.9993
tp1471
a(S'me'
p1472
g41
F0.9985
tp1473
a(S'to'
p1474
g132
F0.9723
tp1475
a(S'stir'
p1476
g6
F0.9881
tp1477
a(S'it'
p1478
g41
F0.969
tp1479
a(g78
g9
F0.9987
tp1480
asI346
(lp1481
(S'yep'
p1482
g48
F0.9868
tp1483
a(S'and'
p1484
g250
F0.9991
tp1485
a(S"you're"
p1486
g3
F0.993
tp1487
a(S'gonna'
p1488
g6
F0.9906
tp1489
a(S'spill'
p1490
g6
F0.9889
tp1491
a(S'all'
p1492
g12
F0.8199
tp1493
a(S'xxx'
p1494
g15
F0.5138
tp1495
a(g17
g9
F0.9983
tp1496
asI350
(lp1497
(S'take'
p1498
g6
F0.9979
tp1499
a(S'it'
p1500
g41
F0.7379
tp1501
a(S'easy'
p1502
g61
F0.9622
tp1503
a(g48
g9
F0.9988
tp1504
asI354
(lp1505
(S"Martha's"
p1506
g243
F0.5297
tp1507
a(S'comin(g'
p1508
g6
F0.6672
tp1509
a(g8
g9
F0.997
tp1510
a(S'tonight'
p1511
g15
F0.6789
tp1512
a(g17
g9
F0.9987
tp1513
asI357
(lp1514
(S'mhm'
p1515
g48
F0.9761
tp1516
a(g17
g9
F0.9962
tp1517
asI360
(lp1518
(S"Martha's"
p1519
g243
F0.5297
tp1520
a(S'comin(g'
p1521
g6
F0.6672
tp1522
a(g8
g9
F0.9961
tp1523
a(S'tonight'
p1524
g26
F0.5829
tp1525
a(S'too'
p1526
g26
F0.9933
tp1527
a(g17
g9
F0.9964
tp1528
asI363
(lp1529
(S"she's"
p1530
g3
F0.9808
tp1531
a(S'gonna'
p1532
g6
F0.9927
tp1533
a(S'sit'
p1534
g6
F0.9988
tp1535
a(S'in'
p1536
g132
F0.9121
tp1537
a(S'your'
p1538
g12
F0.9962
tp1539
a(S'seat'
p1540
g15
F0.9991
tp1541
a(g17
g9
F0.9983
tp1542
asI367
(lp1543
(S'zzz'
p1544
g48
F0.3756
tp1545
a(g17
g9
F0.9972
tp1546
asI372
(lp1547
(S'see'
p1548
g6
F0.8807
tp1549
a(S'what'
p1550
g41
F0.8573
tp1551
a(g142
g12
F0.9899
tp1552
a(S'slob'
p1553
g15
F0.9986
tp1554
a(g439
g9
F0.9822
tp1555
a(g48
g9
F0.9901
tp1556
a(g442
g9
F0.9821
tp1557
a(S'you'
p1558
g41
F0.9959
tp1559
a(S'are'
p1560
g6
F0.9981
tp1561
a(g17
g9
F0.9961
tp1562
asI375
(lp1563
(g20
g21
F0.9366
tp1564
a(S'last'
p1565
g61
F0.9925
tp1566
a(S'time'
p1567
g15
F0.9996
tp1568
a(g183
g41
F0.9804
tp1569
a(g28
g6
F0.2795
tp1570
a(S'[//]'
p1571
g9
F0.2642
tp1572
a(g20
g21
F0.9127
tp1573
a(S'last'
p1574
g61
F0.9861
tp1575
a(S'night'
p1576
g15
F0.9964
tp1577
a(g28
g29
F0.3349
tp1578
a(S'[//]'
p1579
g29
F0.2967
tp1580
a(S'last'
p1581
g61
F0.9941
tp1582
a(S'time'
p1583
g15
F0.9995
tp1584
a(g183
g41
F0.9947
tp1585
a(S'was'
p1586
g6
F0.9998
tp1587
a(S'eatin(g'
p1588
g6
F0.8633
tp1589
a(g8
g9
F0.9494
tp1590
a(g439
g9
F0.9763
tp1591
a(g78
g9
F0.982
tp1592
a(g442
g9
F0.8841
tp1593
a(g17
g9
F0.9927
tp1594
asI378
(lp1595
(S'mhm'
p1596
g48
F0.9761
tp1597
a(g17
g9
F0.9962
tp1598
asI381
(lp1599
(S'last'
p1600
g61
F0.9923
tp1601
a(S'time'
p1602
g15
F0.9994
tp1603
a(g183
g41
F0.9951
tp1604
a(S'was'
p1605
g6
F0.9998
tp1606
a(S'eatin(g'
p1607
g6
F0.8973
tp1608
a(g8
g9
F0.9859
tp1609
a(g17
g9
F0.9958
tp1610
asI384
(lp1611
(S'come'
p1612
g6
F0.9897
tp1613
a(S'on'
p1614
g132
F0.936
tp1615
a(S'eat'
p1616
g6
F0.9312
tp1617
a(S'your'
p1618
g12
F0.9938
tp1619
a(S'sandwich'
p1620
g15
F0.9993
tp1621
a(S'too'
p1622
g26
F0.9626
tp1623
a(g17
g9
F0.997
tp1624
asI388
(lp1625
(S'eat'
p1626
g6
F0.9835
tp1627
a(S'over'
p1628
g132
F0.9272
tp1629
a(S'your'
p1630
g12
F0.9907
tp1631
a(S'bowl'
p1632
g15
F0.9993
tp1633
a(S"that's"
p1634
g3
F0.9826
tp1635
a(S'how'
p1636
g26
F0.9893
tp1637
a(S'come'
p1638
g6
F0.9993
tp1639
a(S'you'
p1640
g41
F0.997
tp1641
a(S'spill'
p1642
g6
F0.9956
tp1643
a(S'it'
p1644
g41
F0.9629
tp1645
a(S'all'
p1646
g12
F0.638
tp1647
a(S'over'
p1648
g132
F0.967
tp1649
a(S'you'
p1650
g41
F0.9995
tp1651
a(g17
g9
F0.9997
tp1652
asI395
(lp1653
(g183
g41
F0.9984
tp1654
a(S'miss'
p1655
g6
F0.9999
tp1656
a(S'it'
p1657
g41
F0.9913
tp1658
a(S'xxx'
p1659
g376
F0.6108
tp1660
a(S'(.)'
p1661
g376
F0.8554
tp1662
a(g17
g9
F0.9509
tp1663
asI399
(lp1664
(S'hot'
p1665
g61
F0.8964
tp1666
a(S'in'
p1667
g132
F0.9844
tp1668
a(S'here'
p1669
g26
F0.8765
tp1670
a(g78
g9
F0.9986
tp1671
asI402
(lp1672
(S'that'
p1673
g132
F0.6634
tp1674
a(g142
g12
F0.9946
tp1675
a(S'good'
p1676
g61
F0.9949
tp1677
a(S'sandwich'
p1678
g15
F0.997
tp1679
a(S'Nik'
p1680
g243
F0.9354
tp1681
a(g78
g9
F0.9951
tp1682
asI405
(lp1683
(g183
g41
F0.994
tp1684
a(S'like'
p1685
g6
F0.9402
tp1686
a(S'it'
p1687
g41
F0.9893
tp1688
a(S'hot'
p1689
g61
F0.9772
tp1690
a(g17
g9
F0.9987
tp1691
asI408
(lp1692
(S'you'
p1693
g41
F0.9923
tp1694
a(S'like'
p1695
g6
F0.8792
tp1696
a(S'it'
p1697
g41
F0.9893
tp1698
a(S'hot'
p1699
g61
F0.9795
tp1700
a(g78
g9
F0.998
tp1701
asI412
(lp1702
(S'that'
p1703
g132
F0.6634
tp1704
a(g142
g12
F0.9946
tp1705
a(S'good'
p1706
g61
F0.9952
tp1707
a(S'sandwich'
p1708
g15
F0.9985
tp1709
a(g78
g9
F0.9981
tp1710
asI416
(lp1711
(S'Eric'
p1712
g243
F0.9973
tp1713
a(g48
g9
F0.9903
tp1714
asI420
(lp1715
(S'mhm'
p1716
g48
F0.9761
tp1717
a(g17
g9
F0.9962
tp1718
asI424
(lp1719
(S'please'
p1720
g6
F0.9413
tp1721
a(S"don't"
p1722
g6
F0.9999
tp1723
a(S'ask'
p1724
g6
F0.9994
tp1725
a(S'[//]'
p1726
g9
F0.4109
tp1727
a(S'make'
p1728
g6
F0.9982
tp1729
a(S'me'
p1730
g41
F0.9905
tp1731
a(S'ask'
p1732
g6
F0.9979
tp1733
a(S'you'
p1734
g41
F0.9995
tp1735
a(S'again'
p1736
g26
F0.9935
tp1737
a(g17
g9
F0.9974
tp1738
asI430
(lp1739
(S'what'
p1740
g41
F0.9171
tp1741
a(g78
g9
F0.9924
tp1742
asI435
(lp1743
(S'to'
p1744
g132
F0.9946
tp1745
a(S'eat'
p1746
g6
F0.9926
tp1747
a(g20
g21
F0.9078
tp1748
a(S'your'
p1749
g12
F0.9591
tp1750
a(S'sandwich'
p1751
g15
F0.9977
tp1752
a(S'and'
p1753
g250
F0.996
tp1754
a(S'stop'
p1755
g6
F0.961
tp1756
a(S'playin(g)'
p1757
g6
F0.9111
tp1758
a(g28
g376
F0.4993
tp1759
a(g439
g376
F0.5345
tp1760
a(g28
g376
F0.9597
tp1761
a(g442
g9
F0.6916
tp1762
a(g17
g9
F0.9952
tp1763
asI439
(lp1764
(g20
g21
F0.913
tp1765
a(S"don't"
p1766
g6
F0.9992
tp1767
a(g20
g21
F0.8725
tp1768
a(S'make'
p1769
g6
F0.9925
tp1770
a(g142
g12
F0.9669
tp1771
a(g28
g29
F0.382
tp1772
a(S'[/]'
p1773
g29
F0.2325
tp1774
a(S'make'
p1775
g6
F0.9919
tp1776
a(g142
g12
F0.9669
tp1777
a(g28
g376
F0.282
tp1778
a(g439
g376
F0.535
tp1779
a(g20
g21
F0.8293
tp1780
a(g442
g9
F0.9383
tp1781
a(S'+'
p1782
g250
F0.5117
tp1783
a(S'...'
p1784
g9
F0.5906
tp1785
asI442
(lp1786
(S"I'm"
p1787
g3
F0.9971
tp1788
a(S'just'
p1789
g26
F0.999
tp1790
a(S'stirrin(g'
p1791
g6
F0.8251
tp1792
a(g8
g9
F0.9979
tp1793
a(S'it'
p1794
g41
F0.9713
tp1795
a(g17
g9
F0.9986
tp1796
asI445
(lp1797
(S'xxx'
p1798
g376
F0.5822
tp1799
a(g17
g9
F0.9648
tp1800
asI446
(lp1801
(g183
g41
F0.9983
tp1802
a(S'want'
p1803
g6
F1.0
tp1804
a(S'you'
p1805
g41
F0.9989
tp1806
a(S'to'
p1807
g132
F0.9908
tp1808
a(S'eat'
p1809
g6
F0.9903
tp1810
a(g17
g9
F0.9977
tp1811
asI449
(lp1812
(S"you're"
p1813
g3
F0.9894
tp1814
a(S'gonna'
p1815
g6
F0.9904
tp1816
a(S'spill'
p1817
g6
F0.9921
tp1818
a(S'it'
p1819
g41
F0.9825
tp1820
a(g17
g9
F0.9989
tp1821
asI454
(lp1822
(S'what'
p1823
g41
F0.9866
tp1824
a(S'eatin(g'
p1825
g6
F0.8853
tp1826
a(g8
g9
F0.9814
tp1827
a(g78
g9
F0.9966
tp1828
asI459
(lp1829
(S"where's"
p1830
g3
F0.8746
tp1831
a(S'Alf'
p1832
g243
F0.9802
tp1833
a(g78
g9
F0.9946
tp1834
asI462
(lp1835
(S'sleepin(g'
p1836
g6
F0.9635
tp1837
a(g8
g9
F0.9966
tp1838
a(S'or'
p1839
g250
F0.9935
tp1840
a(S'hidin(g'
p1841
g6
F0.978
tp1842
a(g8
g9
F0.9983
tp1843
a(S'somewhere'
p1844
g26
F0.9712
tp1845
a(g17
g9
F0.9983
tp1846
asI465
(lp1847
(S'kids'
p1848
g15
F0.9043
tp1849
a(S'got'
p1850
g6
F0.9997
tp1851
a(S'him'
p1852
g41
F0.9883
tp1853
a(S'xxx'
p1854
g376
F0.7778
tp1855
a(g439
g9
F0.6588
tp1856
a(g28
g376
F0.6043
tp1857
a(g442
g9
F0.7541
tp1858
a(g17
g9
F0.9962
tp1859
asI468
(lp1860
(g20
g21
F0.9526
tp1861
a(g183
g41
F0.9987
tp1862
a(S'was'
p1863
g6
F0.9999
tp1864
a(S'peeing'
p1865
g6
F0.8254
tp1866
a(g439
g9
F0.9927
tp1867
a(g78
g9
F0.9841
tp1868
a(g442
g9
F0.7796
tp1869
a(g28
g376
F0.5377
tp1870
a(g439
g376
F0.535
tp1871
a(g20
g21
F0.8293
tp1872
a(g442
g9
F0.9866
tp1873
a(S'in'
p1874
g132
F0.9929
tp1875
a(S'the'
p1876
g12
F0.9993
tp1877
a(S'bath+room'
p1878
g15
F0.9929
tp1879
a(S'and'
p1880
g250
F0.9986
tp1881
a(g183
g41
F0.9992
tp1882
a(S'was'
p1883
g6
F0.9999
tp1884
a(S'peeing'
p1885
g6
F0.8402
tp1886
a(g439
g9
F0.9927
tp1887
a(g78
g9
F0.9841
tp1888
a(g442
g9
F0.9242
tp1889
a(S'in'
p1890
g132
F0.9929
tp1891
a(S'the'
p1892
g12
F0.9981
tp1893
a(S'cubby'
p1894
g15
F0.7059
tp1895
a(g17
g9
F0.9973
tp1896
asI474
(lp1897
(g20
g21
F0.9315
tp1898
a(S"he's"
p1899
g3
F0.9944
tp1900
a(S'sleepin(g'
p1901
g6
F0.9514
tp1902
a(g8
g9
F0.9973
tp1903
a(S'in'
p1904
g132
F0.9729
tp1905
a(S'there'
p1906
g26
F0.5285
tp1907
a(g28
g376
F0.5498
tp1908
a(g439
g376
F0.5345
tp1909
a(g28
g376
F0.9577
tp1910
a(g442
g9
F0.795
tp1911
a(g17
g9
F0.9964
tp1912
asI477
(lp1913
(g20
g21
F0.9526
tp1914
a(g183
g41
F0.9989
tp1915
a(S'know'
p1916
g6
F0.9991
tp1917
a(g28
g376
F0.5556
tp1918
a(g439
g376
F0.535
tp1919
a(g20
g21
F0.6902
tp1920
a(g442
g9
F0.9839
tp1921
a(g17
g9
F0.9962
tp1922
asI481
(lp1923
(S'probably'
p1924
g26
F0.9964
tp1925
a(g1330
g9
F0.9822
tp1926
a(S'be)cause'
p1927
g132
F0.9984
tp1928
a(S'the'
p1929
g12
F0.9992
tp1930
a(S'kids'
p1931
g15
F0.985
tp1932
a(S'got'
p1933
g6
F0.9931
tp1934
a(g20
g21
F0.8262
tp1935
a(S'hold'
p1936
g6
F0.9187
tp1937
a(S'of'
p1938
g132
F0.9237
tp1939
a(S'him'
p1940
g41
F0.9902
tp1941
a(g28
g376
F0.4389
tp1942
a(g439
g376
F0.5345
tp1943
a(g28
g376
F0.9532
tp1944
a(g442
g9
F0.8473
tp1945
a(S'this'
p1946
g12
F0.9829
tp1947
a(S'afternoon'
p1948
g15
F0.9989
tp1949
a(g17
g9
F0.9981
tp1950
asI487
(lp1951
(g20
g21
F0.9177
tp1952
a(S'he'
p1953
g41
F0.9985
tp1954
a(S'is'
p1955
g6
F0.9997
tp1956
a(g28
g376
F0.5664
tp1957
a(g439
g376
F0.535
tp1958
a(g20
g21
F0.6902
tp1959
a(g442
g9
F0.9839
tp1960
a(g17
g9
F0.9962
tp1961
asI491
(lp1962
(S'yep'
p1963
g48
F0.9989
tp1964
a(g48
g9
F0.997
tp1965
asI2130
(lp1966
(S'look'
p1967
g6
F0.8995
tp1968
a(S'Mommy'
p1969
g15
F0.6875
tp1970
a(g17
g9
F0.9986
tp1971
asI494
(lp1972
(S'Nikki'
p1973
g243
F0.9998
tp1974
a(S'do'
p1975
g6
F0.9993
tp1976
a(S'you'
p1977
g41
F0.9997
tp1978
a(S'want'
p1979
g6
F0.9992
tp1980
a(S'Mommy'
p1981
g15
F0.5738
tp1982
a(S'to'
p1983
g132
F0.9992
tp1984
a(S'make'
p1985
g6
F0.9997
tp1986
a(S'you'
p1987
g41
F0.9598
tp1988
a(S'another'
p1989
g12
F0.9938
tp1990
a(S'sandwich'
p1991
g15
F0.9971
tp1992
a(g78
g9
F0.9977
tp1993
asI500
(lp1994
(S'yeah'
p1995
g48
F0.9986
tp1996
a(g17
g9
F0.997
tp1997
asI503
(lp1998
(S'blum'
p1999
g29
F0.4173
tp2000
a(S'@b'
p2001
S'@'
p2002
F0.9959
tp2003
a(S'blum'
p2004
g29
F0.4431
tp2005
a(S'@b'
p2006
g2002
F0.9927
tp2007
a(g17
g9
F0.9959
tp2008
asI506
(lp2009
(S"I'm"
p2010
g3
F0.9955
tp2011
a(S'eatin(g'
p2012
g6
F0.9064
tp2013
a(g8
g9
F0.9933
tp2014
a(S'all'
p2015
S'X'
p2016
F0.7736
tp2017
a(S'my'
p2018
g12
F0.9995
tp2019
a(S'sandwich'
p2020
g15
F0.9953
tp2021
a(S'(.)'
p2022
g376
F0.2619
tp2023
a(g17
g9
F0.9714
tp2024
asI509
(lp2025
(S'the'
p2026
g12
F0.9981
tp2027
a(S"light's"
p2028
g15
F0.889
tp2029
a(S'on'
p2030
g132
F0.959
tp2031
a(g78
g9
F0.9969
tp2032
asI512
(lp2033
(g183
g41
F0.9974
tp2034
a(S'see'
p2035
g6
F0.9998
tp2036
a(g142
g12
F0.9985
tp2037
a(S'light'
p2038
g15
F0.9748
tp2039
a(S'on'
p2040
g132
F0.9634
tp2041
a(g17
g9
F0.9962
tp2042
asI515
(lp2043
(S'want'
p2044
g6
F0.9993
tp2045
a(S'me'
p2046
g41
F0.9985
tp2047
a(S'to'
p2048
g132
F0.9698
tp2049
a(S'try'
p2050
g6
F0.9883
tp2051
a(S'xxx'
p2052
g376
F0.5625
tp2053
a(g78
g9
F0.9641
tp2054
asI520
(lp2055
(g183
g41
F0.9976
tp2056
a(S"can't"
p2057
g6
F0.9999
tp2058
a(S'xxx'
p2059
g6
F0.8752
tp2060
a(S'for'
p2061
g132
F0.9968
tp2062
a(S'saturday'
p2063
g243
F0.9525
tp2064
a(g17
g9
F0.9968
tp2065
asI523
(lp2066
(S'xxx'
p2067
g376
F0.5822
tp2068
a(g17
g9
F0.9648
tp2069
asI525
(lp2070
(S'oh'
p2071
g48
F0.9984
tp2072
a(g17
g9
F0.9938
tp2073
asI528
(lp2074
(S"Theresa's"
p2075
g518
F0.6572
tp2076
a(S'leaving'
p2077
g6
F0.9815
tp2078
a(S'saturday'
p2079
g243
F0.6178
tp2080
a(g17
g9
F0.9978
tp2081
asI531
(lp2082
(S"I'd"
p2083
g3
F0.9826
tp2084
a(S'love'
p2085
g6
F0.9796
tp2086
a(S'to'
p2087
g132
F0.964
tp2088
a(S'xxx'
p2089
g376
F0.281
tp2090
a(g17
g9
F0.9688
tp2091
asI534
(lp2092
(S"that's"
p2093
g3
F0.9848
tp2094
a(S'xxx'
p2095
g376
F0.2899
tp2096
a(g17
g9
F0.9721
tp2097
asI2137
(lp2098
(S'no'
p2099
g48
F0.9704
tp2100
a(g17
g9
F0.9989
tp2101
asI537
(lp2102
(S'xxx'
p2103
g376
F0.5702
tp2104
a(S'for'
p2105
g132
F0.9994
tp2106
a(S"Donald's"
p2107
g518
F0.6499
tp2108
a(g439
g9
F0.9777
tp2109
a(g78
g9
F0.9841
tp2110
a(g442
g9
F0.9182
tp2111
a(S'for'
p2112
g132
F0.9968
tp2113
a(S'saturday'
p2114
g243
F0.9361
tp2115
a(S'night'
p2116
g15
F0.9546
tp2117
a(g78
g9
F0.9987
tp2118
asI540
(lp2119
(S'late'
p2120
g61
F0.9664
tp2121
a(S'saturday'
p2122
g243
F0.511
tp2123
a(S'afternoon'
p2124
g15
F0.9961
tp2125
a(g17
g9
F0.9986
tp2126
asI543
(lp2127
(S'Theresa'
p2128
g243
F0.9968
tp2129
a(S'has'
p2130
g6
F0.9977
tp2131
a(S'to'
p2132
g132
F0.9789
tp2133
a(S'be'
p2134
g6
F0.9989
tp2135
a(S'at'
p2136
g132
F0.9994
tp2137
a(S'the'
p2138
g12
F0.9993
tp2139
a(S'airport'
p2140
g15
F0.9955
tp2141
a(S'around'
p2142
g132
F0.9323
tp2143
a(S'five'
p2144
g316
F0.6061
tp2145
a(S'(.)'
p2146
g15
F0.2229
tp2147
a(S'at'
p2148
g132
F0.9988
tp2149
a(S'five'
p2150
g316
F0.5138
tp2151
a(g17
g9
F0.9966
tp2152
asI549
(lp2153
(S'Brian'
p2154
g243
F0.9954
tp2155
a(S'still'
p2156
g26
F0.9763
tp2157
a(S'need'
p2158
g6
F0.9973
tp2159
a(g142
g12
F0.9779
tp2160
a(S'ride'
p2161
g15
F0.9584
tp2162
a(S'or'
p2163
g250
F0.9881
tp2164
a(S'somethin(g'
p2165
g15
F0.9966
tp2166
a(g8
g9
F0.9943
tp2167
a(S'tomorrow'
p2168
g15
F0.9171
tp2169
a(g78
g9
F0.9947
tp2170
asI2140
(lp2171
(S"don't"
p2172
g6
F0.9983
tp2173
a(S'touch'
p2174
g6
F0.998
tp2175
a(S'it'
p2176
g41
F0.9827
tp2177
a(g17
g9
F0.999
tp2178
asI554
(lp2179
(S'xxx'
p2180
g376
F0.5822
tp2181
a(g17
g9
F0.9648
tp2182
asI555
(lp2183
(g1330
g9
F0.9736
tp2184
a(S'be)cause'
p2185
g132
F0.9967
tp2186
a(g183
g41
F0.9994
tp2187
a(S'could'
p2188
g6
F0.9997
tp2189
a(S'get'
p2190
g6
F0.994
tp2191
a(g439
g9
F0.9743
tp2192
a(g28
g376
F0.4438
tp2193
a(g442
g9
F0.8372
tp2194
a(S"I'll"
p2195
g3
F0.9866
tp2196
a(S'be'
p2197
g6
F0.9999
tp2198
a(S'out'
p2199
g132
F0.7938
tp2200
a(S'of'
p2201
g132
F0.9889
tp2202
a(S'work'
p2203
g15
F0.9758
tp2204
a(S'&-uh'
p2205
g48
F0.3504
tp2206
a(S'by'
p2207
g132
F0.9892
tp2208
a(S'ten'
p2209
g316
F0.5986
tp2210
a(S'thirty'
p2211
g61
F0.3297
tp2212
a(S'tomorrow'
p2213
g15
F0.9913
tp2214
a(S'or'
p2215
g250
F0.9845
tp2216
a(S'eleven'
p2217
g316
F0.891
tp2218
a(S"o'clock"
p2219
g15
F0.5407
tp2220
a(S'if'
p2221
g132
F0.9995
tp2222
a(S'you'
p2223
g41
F0.9998
tp2224
a(S'want'
p2225
g6
F1.0
tp2226
a(S'me'
p2227
g41
F0.9984
tp2228
a(S'to'
p2229
g132
F0.9825
tp2230
a(S'babysit'
p2231
g6
F0.8695
tp2232
a(g1330
g9
F0.9889
tp2233
a(S'th)em'
p2234
g41
F0.7147
tp2235
a(S'or'
p2236
g250
F0.9913
tp2237
a(S'somethin(g'
p2238
g15
F0.9963
tp2239
a(g8
g9
F0.9901
tp2240
a(g17
g9
F0.9954
tp2241
asI567
(lp2242
(g20
g21
F0.9409
tp2243
a(S'Brian'
p2244
g243
F0.9975
tp2245
a(g28
g243
F0.3082
tp2246
a(g439
g9
F0.9714
tp2247
a(g20
g21
F0.948
tp2248
a(g442
g9
F0.9562
tp2249
a(g48
g9
F0.9967
tp2250
asI570
(lp2251
(S'xxx'
p2252
g376
F0.9094
tp2253
a(g1330
g9
F0.6974
tp2254
a(S'un)til'
p2255
g132
F0.9876
tp2256
a(S'nine'
p2257
g15
F0.6064
tp2258
a(S'tomorrow'
p2259
g15
F0.9875
tp2260
a(g17
g9
F0.995
tp2261
asI574
(lp2262
(S'oh'
p2263
g48
F0.9939
tp2264
a(g142
g12
F0.9771
tp2265
a(S'better'
p2266
g61
F0.9887
tp2267
a(S'idea'
p2268
g15
F0.9895
tp2269
a(g17
g9
F0.9986
tp2270
asI577
(lp2271
(S"I'll"
p2272
g3
F0.9862
tp2273
a(S'go'
p2274
g6
F0.9978
tp2275
a(S'drive'
p2276
g6
F0.9378
tp2277
a(S'him'
p2278
g41
F0.9785
tp2279
a(S'home'
p2280
g15
F0.8909
tp2281
a(g17
g9
F0.9985
tp2282
asI580
(lp2283
(S'zzz'
p2284
g48
F0.3756
tp2285
a(g17
g9
F0.9972
tp2286
asI584
(lp2287
(S'xxx'
p2288
g376
F0.5822
tp2289
a(g17
g9
F0.9648
tp2290
asI585
(lp2291
(S'well'
p2292
g48
F0.8349
tp2293
a(S'if'
p2294
g132
F0.9971
tp2295
a(S'you'
p2296
g41
F0.9998
tp2297
a(S'need'
p2298
g6
F0.9949
tp2299
a(S'(.)'
p2300
g9
F0.233
tp2301
a(S'you'
p2302
g41
F0.9989
tp2303
a(S'know'
p2304
g6
F0.9978
tp2305
a(S'(.)'
p2306
g9
F0.2285
tp2307
a(S'if'
p2308
g132
F0.996
tp2309
a(S"Brian's"
p2310
g518
F0.8665
tp2311
a(S'not'
p2312
g26
F0.9945
tp2313
a(S'gonna'
p2314
g6
F0.9986
tp2315
a(S'do'
p2316
g6
F0.9999
tp2317
a(S'that'
p2318
g41
F0.9297
tp2319
a(g17
g9
F0.9987
tp2320
asI590
(lp2321
(S"I'll"
p2322
g3
F0.9901
tp2323
a(S'be'
p2324
g6
F0.9997
tp2325
a(S'around'
p2326
g26
F0.6829
tp2327
a(g17
g9
F0.9984
tp2328
asI593
(lp2329
(S'yeah'
p2330
g48
F0.9971
tp2331
a(g183
g41
F0.9975
tp2332
a(S'xxx'
p2333
g6
F0.7179
tp2334
a(g17
g9
F0.9977
tp2335
asI596
(lp2336
(S'xxx'
p2337
g376
F0.7905
tp2338
a(S'huh'
p2339
g48
F0.9789
tp2340
a(g78
g9
F0.9975
tp2341
asI599
(lp2342
(S'yeah'
p2343
g48
F0.9986
tp2344
a(g17
g9
F0.997
tp2345
asI602
(lp2346
(S'xxx'
p2347
g376
F0.8981
tp2348
a(g439
g9
F0.661
tp2349
a(g28
g376
F0.3811
tp2350
a(g442
g9
F0.7604
tp2351
a(g17
g9
F0.9962
tp2352
asI603
(lp2353
(g20
g21
F0.9508
tp2354
a(S'zzz'
p2355
g29
F0.2904
tp2356
a(S'right'
p2357
g61
F0.402
tp2358
a(g28
g376
F0.4841
tp2359
a(g439
g376
F0.535
tp2360
a(g20
g21
F0.6902
tp2361
a(g442
g9
F0.9731
tp2362
a(g78
g9
F0.996
tp2363
asI608
(lp2364
(g20
g21
F0.9117
tp2365
a(S"I'm"
p2366
g3
F0.9949
tp2367
a(S'gonna'
p2368
g6
F0.9943
tp2369
a(S'have'
p2370
g6
F0.9988
tp2371
a(S'xxx'
p2372
g376
F0.6836
tp2373
a(g28
g376
F0.9474
tp2374
a(g439
g376
F0.5345
tp2375
a(g28
g376
F0.9555
tp2376
a(g442
g9
F0.8291
tp2377
a(g17
g9
F0.9959
tp2378
asI612
(lp2379
(S'what'
p2380
g41
F0.9565
tp2381
a(S'@q'
p2382
g2002
F0.9939
tp2383
a(g78
g9
F0.9945
tp2384
asI616
(lp2385
(S'xxx'
p2386
g376
F0.8981
tp2387
a(g439
g9
F0.661
tp2388
a(g28
g376
F0.3811
tp2389
a(g442
g9
F0.7604
tp2390
a(g17
g9
F0.9962
tp2391
asI618
(lp2392
(S'xxx'
p2393
g376
F0.8981
tp2394
a(g439
g9
F0.6622
tp2395
a(g20
g21
F0.972
tp2396
a(g442
g9
F0.9847
tp2397
a(g17
g9
F0.9962
tp2398
asI619
(lp2399
(S'xxx'
p2400
g376
F0.6649
tp2401
a(S'Brian'
p2402
g243
F0.9988
tp2403
a(S'was'
p2404
g6
F0.9965
tp2405
a(S'asleep'
p2406
g26
F0.8555
tp2407
a(g17
g9
F0.9987
tp2408
asI623
(lp2409
(S'xxx'
p2410
g376
F0.7097
tp2411
a(S'was'
p2412
g6
F0.9909
tp2413
a(S'unlocked'
p2414
g6
F0.5789
tp2415
a(g78
g9
F0.9976
tp2416
asI627
(lp2417
(S'what'
p2418
g41
F0.9171
tp2419
a(g78
g9
F0.9924
tp2420
asI632
(lp2421
(S'it'
p2422
g41
F0.9956
tp2423
a(S'was'
p2424
g6
F0.999
tp2425
a(S'locked'
p2426
g6
F0.8796
tp2427
a(S'but'
p2428
g250
F0.9436
tp2429
a(S'the'
p2430
g12
F0.9127
tp2431
a(S'inside'
p2432
g15
F0.5533
tp2433
a(g439
g9
F0.9909
tp2434
a(g28
g376
F0.4438
tp2435
a(g442
g9
F0.8593
tp2436
a(S'all'
p2437
g2016
F0.4549
tp2438
a(S'you'
p2439
g41
F0.997
tp2440
a(S'have_to'
p2441
g6
F0.9995
tp2442
a(S'do'
p2443
g6
F0.9966
tp2444
a(S'is'
p2445
g6
F0.9932
tp2446
a(S'turn'
p2447
g6
F0.9876
tp2448
a(S'the'
p2449
g12
F0.9996
tp2450
a(S'knob'
p2451
g15
F0.9381
tp2452
a(S'and'
p2453
g250
F0.9983
tp2454
a(S'it'
p2455
g41
F0.9984
tp2456
a(S'unlocks'
p2457
g6
F0.9963
tp2458
a(g17
g9
F0.9959
tp2459
asI641
(lp2460
(S'so'
p2461
g132
F0.5069
tp2462
a(g20
g21
F0.5211
tp2463
a(S'she'
p2464
g41
F0.9977
tp2465
a(S'took'
p2466
g6
F0.9969
tp2467
a(g28
g376
F0.2506
tp2468
a(S'[/]'
p2469
g376
F0.5782
tp2470
a(S'she'
p2471
g41
F0.997
tp2472
a(S'took'
p2473
g6
F0.997
tp2474
a(g20
g21
F0.7343
tp2475
a(S'the'
p2476
g12
F0.9982
tp2477
a(S'latch'
p2478
g15
F0.9911
tp2479
a(g28
g29
F0.3701
tp2480
a(S'[/]'
p2481
g29
F0.5013
tp2482
a(S'the'
p2483
g12
F0.998
tp2484
a(S'latch'
p2485
g15
F0.995
tp2486
a(S'so'
p2487
g132
F0.9661
tp2488
a(S'she'
p2489
g41
F0.9984
tp2490
a(S'could'
p2491
g6
F0.9993
tp2492
a(S'put'
p2493
g6
F0.9984
tp2494
a(S'it'
p2495
g41
F0.9895
tp2496
a(S'at'
p2497
g132
F0.9988
tp2498
a(S'the'
p2499
g12
F0.9997
tp2500
a(S'top'
p2501
g15
F0.8567
tp2502
a(S'of'
p2503
g132
F0.9995
tp2504
a(S'the'
p2505
g12
F0.9992
tp2506
a(S'door'
p2507
g15
F0.999
tp2508
a(S'so'
p2509
g132
F0.9816
tp2510
a(S'he'
p2511
g41
F0.998
tp2512
a(S"can't"
p2513
g6
F0.9998
tp2514
a(S'get'
p2515
g6
F0.9999
tp2516
a(S'in'
p2517
g132
F0.5859
tp2518
a(g17
g9
F0.9952
tp2519
asI650
(lp2520
(S'what'
p2521
g41
F0.9738
tp2522
a(g439
g9
F0.9703
tp2523
a(g20
g21
F0.972
tp2524
a(g442
g9
F0.974
tp2525
a(g78
g9
F0.9963
tp2526
asI654
(lp2527
(S'is'
p2528
g6
F0.9939
tp2529
a(S'Jerry'
p2530
g243
F0.9993
tp2531
a(S'and'
p2532
g250
F0.9982
tp2533
a(S'&-uh'
p2534
g29
F0.4165
tp2535
a(S'Timmy'
p2536
g243
F0.9991
tp2537
a(S'gonna'
p2538
g6
F0.9855
tp2539
a(S'go'
p2540
g6
F0.9996
tp2541
a(S'down'
p2542
g26
F0.7929
tp2543
a(S'there'
p2544
g26
F0.6823
tp2545
a(S'this'
p2546
g12
F0.9872
tp2547
a(S'weekend'
p2548
g15
F0.9959
tp2549
a(g78
g9
F0.9972
tp2550
asI660
(lp2551
(S"I'm"
p2552
g3
F0.9981
tp2553
a(S'not'
p2554
g26
F0.9994
tp2555
a(S'sure'
p2556
g61
F0.9108
tp2557
a(g17
g9
F0.9982
tp2558
asI663
(lp2559
(g183
g41
F0.9926
tp2560
a(S'xxx'
p2561
g6
F0.6935
tp2562
a(g17
g9
F0.9974
tp2563
asI667
(lp2564
(g183
g41
F0.9923
tp2565
a(S'xxx'
p2566
g6
F0.7519
tp2567
a(S'sandwich'
p2568
g15
F0.994
tp2569
a(g17
g9
F0.9986
tp2570
asI671
(lp2571
(S'xxx'
p2572
g376
F0.6791
tp2573
a(S'take'
p2574
g6
F0.9986
tp2575
a(S'it'
p2576
g41
F0.9184
tp2577
a(S'over'
p2578
g132
F0.858
tp2579
a(S'tell'
p2580
g6
F0.9954
tp2581
a(S'him'
p2582
g41
F0.9972
tp2583
a(S'to'
p2584
g132
F0.9798
tp2585
a(S'&-um'
p2586
g29
F0.6099
tp2587
a(S'xxx'
p2588
g376
F0.6843
tp2589
a(g439
g9
F0.6588
tp2590
a(g28
g376
F0.4829
tp2591
a(g442
g9
F0.6916
tp2592
a(g17
g9
F0.9952
tp2593
asI675
(lp2594
(g20
g21
F0.9526
tp2595
a(g183
g41
F0.9945
tp2596
a(S'xxx'
p2597
g6
F0.8041
tp2598
a(S'sandwich'
p2599
g15
F0.9862
tp2600
a(g28
g376
F0.5184
tp2601
a(g439
g376
F0.535
tp2602
a(g20
g21
F0.7057
tp2603
a(g442
g9
F0.9842
tp2604
a(g17
g9
F0.9969
tp2605
asI679
(lp2606
(S'what'
p2607
g41
F0.9536
tp2608
a(S'Nik'
p2609
g243
F0.931
tp2610
a(g78
g9
F0.9958
tp2611
asI682
(lp2612
(g183
g41
F0.9976
tp2613
a(S"don't"
p2614
g6
F1.0
tp2615
a(S'want'
p2616
g6
F1.0
tp2617
a(g142
g12
F0.9973
tp2618
a(S'sandwich'
p2619
g15
F0.9982
tp2620
a(g17
g9
F0.9982
tp2621
asI685
(lp2622
(S'you'
p2623
g41
F0.9968
tp2624
a(S"don't"
p2625
g6
F1.0
tp2626
a(S'want'
p2627
g6
F1.0
tp2628
a(S'another'
p2629
g12
F0.9957
tp2630
a(S'sandwich'
p2631
g15
F0.9978
tp2632
a(g78
g9
F0.9971
tp2633
asI688
(lp2634
(S'uhuh'
p2635
g48
F0.9924
tp2636
a(g17
g9
F0.9962
tp2637
asI691
(lp2638
(S'xxx'
p2639
g376
F0.5822
tp2640
a(g17
g9
F0.9648
tp2641
asI693
(lp2642
(S"I'm"
p2643
g3
F0.9949
tp2644
a(S'full'
p2645
g61
F0.9957
tp2646
a(g17
g9
F0.9982
tp2647
asI696
(lp2648
(S'well'
p2649
g48
F0.8747
tp2650
a(g183
g41
F0.9995
tp2651
a(S'want'
p2652
g6
F1.0
tp2653
a(S'you'
p2654
g41
F0.9987
tp2655
a(S'to'
p2656
g132
F0.989
tp2657
a(S'eat'
p2658
g6
F0.9996
tp2659
a(S'your'
p2660
g12
F0.9943
tp2661
a(S'soup'
p2662
g15
F0.9983
tp2663
a(g17
g9
F0.9989
tp2664
asI701
(lp2665
(g183
g41
F0.9976
tp2666
a(S"don't"
p2667
g6
F1.0
tp2668
a(S'wan'
p2669
g6
F0.8024
tp2670
a(g1330
g9
F0.9645
tp2671
a(S't)a'
p2672
g15
F0.313
tp2673
a(g17
g9
F0.9982
tp2674
asI2165
(lp2675
(g20
g21
F0.9117
tp2676
a(S"I'm"
p2677
g3
F0.9969
tp2678
a(S'goin(g'
p2679
g6
F0.8177
tp2680
a(g8
g9
F0.9931
tp2681
a(S'ta'
p2682
g132
F0.9158
tp2683
a(g28
g376
F0.4255
tp2684
a(g439
g376
F0.535
tp2685
a(g20
g21
F0.8293
tp2686
a(g442
g9
F0.9868
tp2687
a(S'eat'
p2688
g6
F0.9988
tp2689
a(S'it'
p2690
g41
F0.9886
tp2691
a(g17
g9
F0.9982
tp2692
asI704
(lp2693
(g20
g21
F0.9526
tp2694
a(g183
g41
F0.9988
tp2695
a(S'want'
p2696
g6
F1.0
tp2697
a(S'you'
p2698
g41
F0.9986
tp2699
a(g28
g9
F0.4612
tp2700
a(S'[//]'
p2701
g9
F0.2281
tp2702
a(S'Uncle'
p2703
g243
F0.5361
tp2704
a(S"David'll"
p2705
g243
F0.9944
tp2706
a(S'eat'
p2707
g6
F0.9962
tp2708
a(S'it'
p2709
g41
F0.9842
tp2710
a(g17
g9
F0.999
tp2711
asI707
(lp2712
(S'you'
p2713
g41
F0.997
tp2714
a(S'eat'
p2715
g6
F0.9998
tp2716
a(S'your'
p2717
g12
F0.9922
tp2718
a(S'soup'
p2719
g15
F0.9988
tp2720
a(g17
g9
F0.9987
tp2721
asI711
(lp2722
(S'need'
p2723
g6
F0.9854
tp2724
a(g142
g12
F0.9973
tp2725
a(S'napkin'
p2726
g15
F0.9995
tp2727
a(g17
g9
F0.9983
tp2728
asI715
(lp2729
(S'hey'
p2730
g48
F0.9992
tp2731
a(g48
g9
F0.9964
tp2732
asI718
(lp2733
(S"what's"
p2734
g3
F0.9967
tp2735
a(S'going'
p2736
g6
F0.9856
tp2737
a(S'on'
p2738
g545
F0.8136
tp2739
a(g78
g9
F0.997
tp2740
asI723
(lp2741
(S'so'
p2742
g132
F0.7418
tp2743
a(S'what'
p2744
g41
F0.9989
tp2745
a(S'did'
p2746
g6
F0.9993
tp2747
a(S'you'
p2748
g41
F0.9993
tp2749
a(S'do'
p2750
g6
F0.9995
tp2751
a(S'today'
p2752
g15
F0.9698
tp2753
a(S'Eric'
p2754
g243
F0.9999
tp2755
a(g78
g9
F0.9959
tp2756
asI729
(lp2757
(S'just'
p2758
g26
F0.9993
tp2759
a(S'stayed'
p2760
g6
F0.909
tp2761
a(S'home'
p2762
g15
F0.9664
tp2763
a(g17
g9
F0.9988
tp2764
asI732
(lp2765
(S'just'
p2766
g26
F0.9993
tp2767
a(S'stayed'
p2768
g6
F0.909
tp2769
a(S'home'
p2770
g15
F0.9461
tp2771
a(g78
g9
F0.9984
tp2772
asI735
(lp2773
(S'play'
p2774
g6
F0.9755
tp2775
a(S'outside'
p2776
g61
F0.4791
tp2777
a(g78
g9
F0.9963
tp2778
asI738
(lp2779
(S'yes'
p2780
g48
F0.9857
tp2781
a(S'but'
p2782
g250
F0.9919
tp2783
a(S'[/]'
p2784
g9
F0.2597
tp2785
a(S'but'
p2786
g250
F0.9928
tp2787
a(S'Billy'
p2788
g243
F0.9976
tp2789
a(S'and'
p2790
g250
F0.9983
tp2791
a(S'Roxanne'
p2792
g243
F0.9992
tp2793
a(S'made'
p2794
g6
F0.978
tp2795
a(S'Nikki'
p2796
g243
F0.9999
tp2797
a(S'cry'
p2798
g6
F0.675
tp2799
a(g439
g9
F0.9838
tp2800
a(g78
g9
F0.9749
tp2801
a(g442
g9
F0.885
tp2802
a(g17
g9
F0.9977
tp2803
asI743
(lp2804
(S'that'
p2805
g41
F0.5399
tp2806
a(S"wasn't"
p2807
g6
F0.9903
tp2808
a(S'nice'
p2809
g61
F0.9921
tp2810
a(S'of'
p2811
g132
F0.9987
tp2812
a(S'him'
p2813
g41
F0.9938
tp2814
a(g17
g9
F0.998
tp2815
asI746
(lp2816
(S'nope'
p2817
g48
F0.981
tp2818
a(g439
g9
F0.9864
tp2819
a(g28
g376
F0.3811
tp2820
a(g442
g9
F0.7604
tp2821
a(g17
g9
F0.9962
tp2822
asI749
(lp2823
(S'nope'
p2824
g48
F0.981
tp2825
a(g439
g9
F0.9867
tp2826
a(g20
g21
F0.972
tp2827
a(g442
g9
F0.9847
tp2828
a(g17
g9
F0.9962
tp2829
asI752
(lp2830
(S'and'
p2831
g250
F0.9987
tp2832
a(S'[/]'
p2833
g243
F0.3132
tp2834
a(S'and'
p2835
g250
F0.9993
tp2836
a(g183
g41
F0.999
tp2837
a(S'was'
p2838
g6
F0.9998
tp2839
a(S'cryin(g'
p2840
g6
F0.9594
tp2841
a(g8
g9
F0.9974
tp2842
a(S'and'
p2843
g250
F0.9992
tp2844
a(S'then'
p2845
g26
F0.9604
tp2846
a(S'my'
p2847
g12
F0.9919
tp2848
a(S'mama'
p2849
g15
F0.9935
tp2850
a(g1782
g29
F0.4482
tp2851
a(S'...'
p2852
g21
F0.7913
tp2853
asI758
(lp2854
(S'ssh'
p2855
g243
F0.6897
tp2856
a(g48
g9
F0.9971
tp2857
asI761
(lp2858
(S'xxx'
p2859
g376
F0.5822
tp2860
a(g17
g9
F0.9648
tp2861
asI762
(lp2862
(S'and'
p2863
g250
F0.9987
tp2864
a(S'then'
p2865
g26
F0.9658
tp2866
a(S'she'
p2867
g41
F0.9992
tp2868
a(S'did'
p2869
g6
F0.9994
tp2870
a(S'this'
p2871
g41
F0.9136
tp2872
a(g17
g9
F0.9982
tp2873
asI765
(lp2874
(S'Billy'
p2875
g243
F0.9978
tp2876
a(S'helped'
p2877
g6
F0.9842
tp2878
a(g439
g9
F0.985
tp2879
a(g78
g9
F0.9842
tp2880
a(g442
g9
F0.9156
tp2881
a(g17
g9
F0.995
tp2882
asI768
(lp2883
(S"who's"
p2884
g3
F0.9383
tp2885
a(S'Billy'
p2886
g243
F0.9863
tp2887
a(g78
g9
F0.9952
tp2888
asI771
(lp2889
(S'&-um'
p2890
g48
F0.8919
tp2891
a(S'&-uh'
p2892
g48
F0.8362
tp2893
a(S'over'
p2894
g132
F0.9645
tp2895
a(S'the'
p2896
g12
F0.9996
tp2897
a(S'way'
p2898
g15
F0.901
tp2899
a(S'hill'
p2900
g15
F0.8697
tp2901
a(g17
g9
F0.9985
tp2902
asI774
(lp2903
(S'over'
p2904
g132
F0.881
tp2905
a(S'that'
p2906
g12
F0.8532
tp2907
a(S'way'
p2908
g15
F0.9567
tp2909
a(S'hill'
p2910
g15
F0.9179
tp2911
a(g17
g9
F0.9987
tp2912
asI777
(lp2913
(S'that'
p2914
g12
F0.8481
tp2915
a(S'way'
p2916
g15
F0.9367
tp2917
a(S'hill'
p2918
g15
F0.9231
tp2919
a(g17
g9
F0.9986
tp2920
asI780
(lp2921
(S'that'
p2922
g12
F0.6949
tp2923
a(S'one'
p2924
g316
F0.7512
tp2925
a(g78
g9
F0.9957
tp2926
asI783
(lp2927
(S'yeah'
p2928
g48
F0.9986
tp2929
a(g17
g9
F0.997
tp2930
asI786
(lp2931
(S'yeah'
p2932
g48
F0.9988
tp2933
a(g78
g9
F0.9966
tp2934
asI789
(lp2935
(S'yeah'
p2936
g48
F0.9986
tp2937
a(g17
g9
F0.997
tp2938
asI792
(lp2939
(S'did'
p2940
g6
F0.991
tp2941
a(S'he'
p2942
g41
F0.9984
tp2943
a(S'say'
p2944
g6
F0.9989
tp2945
a(S'he'
p2946
g41
F0.998
tp2947
a(S'was'
p2948
g6
F0.999
tp2949
a(S'sorry'
p2950
g61
F0.9509
tp2951
a(g78
g9
F0.9968
tp2952
asI795
(lp2953
(S'no'
p2954
g48
F0.9704
tp2955
a(g17
g9
F0.9989
tp2956
asI798
(lp2957
(S'&-um'
p2958
g48
F0.8275
tp2959
a(g20
g21
F0.7217
tp2960
a(S'he'
p2961
g41
F0.9946
tp2962
a(g250
g250
F0.9785
tp2963
a(S'w'
p2964
g132
F0.5136
tp2965
a(g28
g29
F0.3879
tp2966
a(S'[/]'
p2967
g29
F0.4106
tp2968
a(S'he'
p2969
g41
F0.9878
tp2970
a(S'lives'
p2971
g6
F0.9961
tp2972
a(S'over'
p2973
g132
F0.8473
tp2974
a(S'that'
p2975
g12
F0.7261
tp2976
a(S'house'
p2977
g15
F0.9893
tp2978
a(g17
g9
F0.9987
tp2979
asI801
(lp2980
(S'he'
p2981
g41
F0.9855
tp2982
a(S'lives'
p2983
g6
F0.9967
tp2984
a(S'over'
p2985
g132
F0.7571
tp2986
a(S'that'
p2987
g12
F0.7295
tp2988
a(S'house'
p2989
g15
F0.984
tp2990
a(g17
g9
F0.9986
tp2991
asI804
(lp2992
(S'then'
p2993
g26
F0.9375
tp2994
a(S'he'
p2995
g41
F0.9931
tp2996
a(S'lives'
p2997
g6
F0.996
tp2998
a(S'over'
p2999
g132
F0.9218
tp3000
a(S'this'
p3001
g12
F0.883
tp3002
a(S'house'
p3003
g15
F0.9898
tp3004
a(g17
g9
F0.9989
tp3005
asI807
(lp3006
(S'yep'
p3007
g48
F0.9989
tp3008
a(g48
g9
F0.997
tp3009
asI810
(lp3010
(S'where'
p3011
g26
F0.9324
tp3012
a(S'his'
p3013
g12
F0.9978
tp3014
a(S'car'
p3015
g15
F0.9989
tp3016
a(g439
g9
F0.9885
tp3017
a(g78
g9
F0.9841
tp3018
a(g442
g9
F0.9413
tp3019
a(S'is'
p3020
g6
F0.9986
tp3021
a(S'asleep'
p3022
g26
F0.6513
tp3023
a(g17
g9
F0.9989
tp3024
asI813
(lp3025
(S'yep'
p3026
g48
F0.9989
tp3027
a(g48
g9
F0.997
tp3028
asI816
(lp3029
(S'that'
p3030
g12
F0.8366
tp3031
a(S'car'
p3032
g15
F0.9958
tp3033
a(S'right'
p3034
g26
F0.341
tp3035
a(g78
g9
F0.9987
tp3036
asI819
(lp3037
(S'the'
p3038
g12
F0.9977
tp3039
a(S'white'
p3040
g61
F0.9448
tp3041
a(S'car'
p3042
g15
F0.9989
tp3043
a(g78
g9
F0.998
tp3044
asI822
(lp3045
(S'yeah'
p3046
g48
F0.9986
tp3047
a(g17
g9
F0.997
tp3048
asI828
(lp3049
(S"that's"
p3050
g3
F0.986
tp3051
a(S'enough'
p3052
g61
F0.8224
tp3053
a(S'Eric'
p3054
g243
F0.9979
tp3055
a(S'(.)'
p3056
g243
F0.7153
tp3057
a(g48
g9
F0.989
tp3058
asI831
(lp3059
(S'thank'
p3060
g6
F0.9631
tp3061
a(S'you'
p3062
g41
F0.9987
tp3063
a(g17
g9
F0.9995
tp3064
asI834
(lp3065
(S'xxx'
p3066
g376
F0.5822
tp3067
a(g17
g9
F0.9648
tp3068
asI835
(lp3069
(S'drink'
p3070
g6
F0.9677
tp3071
a(S'your'
p3072
g12
F0.983
tp3073
a(S'milk'
p3074
g15
F0.9997
tp3075
a(g17
g9
F0.9986
tp3076
asI838
(lp3077
(S'yeah'
p3078
g48
F0.9986
tp3079
a(g17
g9
F0.997
tp3080
asI841
(lp3081
(S'zzz'
p3082
g48
F0.3756
tp3083
a(g17
g9
F0.9972
tp3084
asI845
(lp3085
(S'there'
p3086
g26
F0.4418
tp3087
a(g20
g21
F0.6371
tp3088
a(S'turn'
p3089
g6
F0.9983
tp3090
a(S'it'
p3091
g41
F0.931
tp3092
a(S'on'
p3093
g132
F0.8658
tp3094
a(g28
g376
F0.279
tp3095
a(g439
g376
F0.5345
tp3096
a(g28
g376
F0.9555
tp3097
a(g442
g9
F0.8291
tp3098
a(g17
g9
F0.9959
tp3099
asI2189
(lp3100
(S'drink'
p3101
g6
F0.9677
tp3102
a(S'your'
p3103
g12
F0.9839
tp3104
a(S'milk'
p3105
g15
F0.9995
tp3106
a(S'please'
p3107
g6
F0.8685
tp3108
a(g17
g9
F0.9982
tp3109
asI848
(lp3110
(g20
g21
F0.9347
tp3111
a(S'turn'
p3112
g6
F0.9959
tp3113
a(S'this'
p3114
g41
F0.8074
tp3115
a(S'on'
p3116
g132
F0.8087
tp3117
a(g28
g376
F0.279
tp3118
a(g439
g376
F0.535
tp3119
a(g20
g21
F0.7057
tp3120
a(g442
g9
F0.9842
tp3121
a(g17
g9
F0.9969
tp3122
asI851
(lp3123
(S"it's"
p3124
g3
F0.9932
tp3125
a(S'good'
p3126
g61
F0.9956
tp3127
a(S'for'
p3128
g132
F0.9995
tp3129
a(S'you'
p3130
g41
F0.999
tp3131
a(g17
g9
F0.9995
tp3132
asI855
(lp3133
(S"I'm"
p3134
g3
F0.9949
tp3135
a(S'full'
p3136
g61
F0.9957
tp3137
a(g17
g9
F0.9982
tp3138
asI858
(lp3139
(S'full'
p3140
g61
F0.8818
tp3141
a(g17
g9
F0.9981
tp3142
asI861
(lp3143
(S"I'm"
p3144
g3
F0.9955
tp3145
a(S'gettin(g'
p3146
g6
F0.9575
tp3147
a(g8
g9
F0.9912
tp3148
a(g142
g12
F0.9824
tp3149
a(S'bellyache'
p3150
g15
F0.9642
tp3151
a(g17
g9
F0.9979
tp3152
asI865
(lp3153
(S"I'm"
p3154
g3
F0.9955
tp3155
a(S'gettin(g'
p3156
g6
F0.9575
tp3157
a(g8
g9
F0.9912
tp3158
a(g142
g12
F0.9824
tp3159
a(S'bellyache'
p3160
g15
F0.9642
tp3161
a(g17
g9
F0.9979
tp3162
asI868
(lp3163
(S'oh'
p3164
g48
F0.994
tp3165
a(S'stop'
p3166
g6
F0.5476
tp3167
a(g48
g9
F0.9969
tp3168
asI871
(lp3169
(g183
g41
F0.9976
tp3170
a(S'am'
p3171
g6
F0.9938
tp3172
a(g17
g9
F0.9978
tp3173
asI874
(lp3174
(S'you'
p3175
g41
F0.995
tp3176
a(S'still'
p3177
g26
F0.986
tp3178
a(S'got'
p3179
g6
F0.999
tp3180
a(S'some'
p3181
g12
F0.9929
tp3182
a(S'sandwich'
p3183
g15
F0.9887
tp3184
a(S'and'
p3185
g250
F0.9977
tp3186
a(S'some'
p3187
g12
F0.9797
tp3188
a(S'soup'
p3189
g15
F0.9892
tp3190
a(S'left'
p3191
g6
F0.8119
tp3192
a(S'Eric'
p3193
g243
F0.9996
tp3194
a(g17
g9
F0.9953
tp3195
asI879
(lp3196
(S"I'm"
p3197
g3
F0.9905
tp3198
a(S'all'
p3199
g12
F0.6907
tp3200
a(S'done'
p3201
g6
F0.9756
tp3202
a(S'my'
p3203
g12
F0.9984
tp3204
a(S'sandwich'
p3205
g15
F0.9988
tp3206
a(g17
g9
F0.9982
tp3207
asI882
(lp3208
(S'yeah'
p3209
g48
F0.9986
tp3210
a(g17
g9
F0.997
tp3211
asI885
(lp3212
(S'yep'
p3213
g48
F0.9989
tp3214
a(g48
g9
F0.997
tp3215
asI888
(lp3216
(S'you'
p3217
g41
F0.9942
tp3218
a(S'just'
p3219
g26
F0.9991
tp3220
a(S'got'
p3221
g6
F0.9988
tp3222
a(S'ta'
p3223
g132
F0.9779
tp3224
a(S'eat'
p3225
g6
F0.9933
tp3226
a(S'your'
p3227
g12
F0.992
tp3228
a(S'soup'
p3229
g15
F0.9983
tp3230
a(g17
g9
F0.9987
tp3231
asI891
(lp3232
(S'yep'
p3233
g48
F0.9972
tp3234
a(g17
g9
F0.9971
tp3235
asI894
(lp3236
(g183
g41
F0.9982
tp3237
a(S'ate'
p3238
g6
F0.9999
tp3239
a(S'it'
p3240
g41
F0.9705
tp3241
a(S'all'
p3242
g12
F0.4546
tp3243
a(g17
g9
F0.9968
tp3244
asI897
(lp3245
(S'right'
p3246
g48
F0.7325
tp3247
a(g78
g9
F0.9985
tp3248
asI901
(lp3249
(S'who'
p3250
g41
F0.9963
tp3251
a(S'gave'
p3252
g6
F0.9999
tp3253
a(S'you'
p3254
g41
F0.9963
tp3255
a(S'that'
p3256
g12
F0.8886
tp3257
a(S'new'
p3258
g61
F0.9969
tp3259
a(S'hair'
p3260
g15
F0.9961
tp3261
a(S'do'
p3262
g6
F0.9758
tp3263
a(S'xxx'
p3264
g376
F0.6368
tp3265
a(g78
g9
F0.9816
tp3266
asI906
(lp3267
(S'Mom'
p3268
g15
F0.8584
tp3269
a(S'put'
p3270
g6
F0.9569
tp3271
a(S'spike'
p3272
g15
F0.435
tp3273
a(S'in'
p3274
g132
F0.9977
tp3275
a(S'it'
p3276
g41
F0.9944
tp3277
a(g17
g9
F0.9986
tp3278
asI909
(lp3279
(S'oh'
p3280
g48
F0.9951
tp3281
a(S'she'
p3282
g41
F0.9931
tp3283
a(S'spiked'
p3284
g6
F0.9388
tp3285
a(S'it'
p3286
g41
F0.9838
tp3287
a(S'today'
p3288
g15
F0.888
tp3289
a(g78
g9
F0.9972
tp3290
asI912
(lp3291
(S'yep'
p3292
g48
F0.9972
tp3293
a(g17
g9
F0.9971
tp3294
asI915
(lp3295
(S'yeah'
p3296
g48
F0.9988
tp3297
a(g78
g9
F0.9966
tp3298
asI918
(lp3299
(S'new'
p3300
g61
F0.9913
tp3301
a(S'hair+cut'
p3302
g15
F0.9982
tp3303
a(g17
g9
F0.998
tp3304
asI921
(lp3305
(S'xxx'
p3306
g376
F0.5822
tp3307
a(g17
g9
F0.9648
tp3308
asI922
(lp3309
(S'me'
p3310
g41
F0.9952
tp3311
a(S'[/]'
p3312
g9
F0.353
tp3313
a(S'my'
p3314
g12
F0.9981
tp3315
a(S"hair's"
p3316
g15
F0.8109
tp3317
a(S'gonna'
p3318
g6
F0.9834
tp3319
a(S'get'
p3320
g6
F0.9996
tp3321
a(S'cut'
p3322
g15
F0.655
tp3323
a(S'+/'
p3324
g15
F0.3403
tp3325
a(g17
g9
F0.9984
tp3326
asI926
(lp3327
(S'no'
p3328
g48
F0.9704
tp3329
a(g17
g9
F0.9989
tp3330
asI929
(lp3331
(S'xxx'
p3332
g376
F0.569
tp3333
a(S'right'
p3334
g61
F0.5186
tp3335
a(g78
g9
F0.9975
tp3336
asI932
(lp3337
(S'Mommy'
p3338
g15
F0.4779
tp3339
a(S'wants'
p3340
g6
F0.9986
tp3341
a(S'to'
p3342
g132
F0.9934
tp3343
a(S'leave'
p3344
g6
F0.9998
tp3345
a(S'your'
p3346
g12
F0.9969
tp3347
a(S'hair'
p3348
g15
F0.9943
tp3349
a(S'long'
p3350
g61
F0.9448
tp3351
a(g17
g9
F0.9986
tp3352
asI937
(lp3353
(S'no'
p3354
g48
F0.8449
tp3355
a(S"I'm"
p3356
g3
F0.9937
tp3357
a(S'gonna'
p3358
g6
F0.9929
tp3359
a(S'get'
p3360
g6
F1.0
tp3361
a(S'my'
p3362
g12
F0.9982
tp3363
a(S'hair'
p3364
g15
F0.9986
tp3365
a(S'cut'
p3366
g15
F0.9609
tp3367
a(g17
g9
F0.9988
tp3368
asI942
(lp3369
(S'oh'
p3370
g48
F0.9987
tp3371
a(S'yeah'
p3372
g48
F0.9997
tp3373
a(g78
g9
F0.9973
tp3374
asI2205
(lp3375
(S"you're"
p3376
g3
F0.9837
tp3377
a(S'drinkin(g'
p3378
g6
F0.708
tp3379
a(g8
g9
F0.9755
tp3380
a(S'my'
p3381
g12
F0.9946
tp3382
a(S'tea'
p3383
g15
F0.9937
tp3384
a(g78
g9
F0.9962
tp3385
asI945
(lp3386
(S'yeah'
p3387
g48
F0.9986
tp3388
a(g17
g9
F0.997
tp3389
asI948
(lp3390
(S'why'
p3391
g26
F0.9408
tp3392
a(g78
g9
F0.9946
tp3393
asI951
(lp3394
(S'cut'
p3395
g6
F0.8842
tp3396
a(S'it'
p3397
g41
F0.9628
tp3398
a(S'all'
p3399
g12
F0.4966
tp3400
a(g17
g9
F0.9967
tp3401
asI956
(lp3402
(S'no'
p3403
g48
F0.9704
tp3404
a(g17
g9
F0.9989
tp3405
asI959
(lp3406
(S'girls'
p3407
g15
F0.9823
tp3408
a(S"don't"
p3409
g6
F0.9997
tp3410
a(S'get'
p3411
g6
F1.0
tp3412
a(S'all'
p3413
g12
F0.7491
tp3414
a(S'their'
p3415
g12
F0.9964
tp3416
a(S'hair'
p3417
g15
F0.9992
tp3418
a(S'cut'
p3419
g15
F0.9537
tp3420
a(g48
g9
F0.9989
tp3421
asI965
(lp3422
(S'yeah'
p3423
g48
F0.9994
tp3424
a(g48
g9
F0.9967
tp3425
asI968
(lp3426
(S'no'
p3427
g48
F0.9704
tp3428
a(g17
g9
F0.9989
tp3429
asI971
(lp3430
(S'they'
p3431
g41
F0.9817
tp3432
a(S'leave'
p3433
g6
F0.9999
tp3434
a(S'it'
p3435
g41
F0.9565
tp3436
a(S'long'
p3437
g61
F0.9478
tp3438
a(g17
g9
F0.9987
tp3439
asI974
(lp3440
(S'down'
p3441
g26
F0.6082
tp3442
a(S'to'
p3443
g132
F0.9994
tp3444
a(S'the'
p3445
g12
F0.9991
tp3446
a(S'ground'
p3447
g15
F0.7357
tp3448
a(S'right'
p3449
g26
F0.5579
tp3450
a(g78
g9
F0.9983
tp3451
asI977
(lp3452
(S'no'
p3453
g48
F0.787
tp3454
a(S'not'
p3455
g26
F0.9608
tp3456
a(S'that'
p3457
g26
F0.4045
tp3458
a(S'far'
p3459
g26
F0.7185
tp3460
a(g17
g9
F0.9984
tp3461
asI980
(lp3462
(S'but'
p3463
g250
F0.9916
tp3464
a(g20
g21
F0.7318
tp3465
a(S'they'
p3466
g41
F0.9848
tp3467
a(S'let'
p3468
g6
F0.9965
tp3469
a(g28
g9
F0.2757
tp3470
a(S'[/]'
p3471
g9
F0.3513
tp3472
a(S'they'
p3473
g41
F0.9787
tp3474
a(S'let'
p3475
g6
F0.9999
tp3476
a(S'it'
p3477
g41
F0.9968
tp3478
a(S'grow'
p3479
g6
F0.992
tp3480
a(S'long'
p3481
g61
F0.9548
tp3482
a(g439
g9
F0.9887
tp3483
a(g28
g376
F0.4371
tp3484
a(g442
g9
F0.8754
tp3485
a(g17
g9
F0.996
tp3486
asI983
(lp3487
(S'yeah'
p3488
g48
F0.9951
tp3489
a(g439
g9
F0.9843
tp3490
a(g20
g21
F0.972
tp3491
a(g442
g9
F0.9661
tp3492
a(g48
g9
F0.997
tp3493
asI987
(lp3494
(S'but'
p3495
g250
F0.9946
tp3496
a(S'they'
p3497
g41
F0.9916
tp3498
a(S'let'
p3499
g6
F0.9999
tp3500
a(S'it'
p3501
g41
F0.9964
tp3502
a(S'down'
p3503
g545
F0.4678
tp3504
a(S'to'
p3505
g132
F0.9992
tp3506
a(S'the'
p3507
g12
F0.9993
tp3508
a(S'ground'
p3509
g15
F0.6971
tp3510
a(g78
g9
F0.9988
tp3511
asI992
(lp3512
(S'one'
p3513
g316
F0.958
tp3514
a(S'two'
p3515
g316
F0.9058
tp3516
a(S'three'
p3517
g316
F0.8993
tp3518
a(S'four'
p3519
g316
F0.6208
tp3520
a(S'five'
p3521
g316
F0.4995
tp3522
a(S'six'
p3523
g316
F0.5182
tp3524
a(S'seven'
p3525
g316
F0.8382
tp3526
a(S'eight'
p3527
g316
F0.8509
tp3528
a(S'(.)'
p3529
g243
F0.3235
tp3530
a(S'bowl'
p3531
g15
F0.9417
tp3532
a(g17
g9
F0.9989
tp3533
asI998
(lp3534
(S'one'
p3535
g316
F0.958
tp3536
a(S'two'
p3537
g316
F0.9058
tp3538
a(S'three'
p3539
g316
F0.8815
tp3540
a(S'four'
p3541
g316
F0.6033
tp3542
a(g17
g9
F0.9976
tp3543
asI1002
(lp3544
(S'one'
p3545
g316
F0.958
tp3546
a(S'two'
p3547
g316
F0.9058
tp3548
a(S'three'
p3549
g316
F0.8993
tp3550
a(S'four'
p3551
g316
F0.6208
tp3552
a(S'five'
p3553
g316
F0.4995
tp3554
a(S'six'
p3555
g316
F0.5182
tp3556
a(S'seven'
p3557
g316
F0.8005
tp3558
a(S'eight'
p3559
g316
F0.7865
tp3560
a(g17
g9
F0.998
tp3561
asI1009
(lp3562
(S"don't"
p3563
g6
F0.9992
tp3564
a(S'eat'
p3565
g6
F0.9999
tp3566
a(S'my'
p3567
g12
F0.9968
tp3568
a(S'sandwich'
p3569
g15
F0.9993
tp3570
a(g48
g9
F0.9991
tp3571
asI1013
(lp3572
(S"that's"
p3573
g3
F0.9858
tp3574
a(S"Nikki's"
p3575
g518
F0.941
tp3576
a(S'sandwich'
p3577
g15
F0.9886
tp3578
a(g78
g9
F0.9974
tp3579
asI1016
(lp3580
(g183
g41
F0.9976
tp3581
a(S"don't"
p3582
g6
F1.0
tp3583
a(S'like'
p3584
g6
F0.9796
tp3585
a(S'it'
p3586
g41
F0.9977
tp3587
a(g17
g9
F0.9989
tp3588
asI1019
(lp3589
(S'Nikki'
p3590
g243
F0.9996
tp3591
a(S"don't"
p3592
g6
F0.9995
tp3593
a(S'want'
p3594
g6
F1.0
tp3595
a(g142
g12
F0.9973
tp3596
a(S'sandwich'
p3597
g15
F0.9982
tp3598
a(g17
g9
F0.9982
tp3599
asI1022
(lp3600
(S'come'
p3601
g6
F0.9897
tp3602
a(S'on'
p3603
g132
F0.8278
tp3604
a(S"let's"
p3605
g3
F0.968
tp3606
a(S'eat'
p3607
g6
F0.9878
tp3608
a(g17
g9
F0.9983
tp3609
asI1026
(lp3610
(S"what's"
p3611
g3
F0.9958
tp3612
a(S'up'
p3613
g545
F0.9048
tp3614
a(S'with'
p3615
g132
F0.995
tp3616
a(S'Brian'
p3617
g243
F0.9998
tp3618
a(g78
g9
F0.9963
tp3619
asI1031
(lp3620
(S'Brian'
p3621
g243
F0.9986
tp3622
a(S"doesn't"
p3623
g6
F0.9932
tp3624
a(S'need'
p3625
g6
F0.9991
tp3626
a(S'anybody'
p3627
g15
F0.9788
tp3628
a(S'tomorrow'
p3629
g15
F0.8642
tp3630
a(S'night'
p3631
g15
F0.9605
tp3632
a(g17
g9
F0.9989
tp3633
asI1035
(lp3634
(S'no'
p3635
g48
F0.9596
tp3636
a(g78
g9
F0.9962
tp3637
asI1038
(lp3638
(S'no'
p3639
g48
F0.9704
tp3640
a(g17
g9
F0.9989
tp3641
asI1041
(lp3642
(S'he'
p3643
g41
F0.996
tp3644
a(S'got'
p3645
g6
F0.9995
tp3646
a(S'someone'
p3647
g15
F0.9879
tp3648
a(g78
g9
F0.9983
tp3649
asI1044
(lp3650
(S'no'
p3651
g48
F0.9704
tp3652
a(g17
g9
F0.9989
tp3653
asI1047
(lp3654
(S"they're"
p3655
g3
F0.9479
tp3656
a(S'just'
p3657
g26
F0.9991
tp3658
a(S'makin(g'
p3659
g6
F0.9851
tp3660
a(g8
g9
F0.9947
tp3661
a(S'an'
p3662
g12
F0.9827
tp3663
a(S'impression'
p3664
g15
F0.9979
tp3665
a(S'like'
p3666
g132
F0.9448
tp3667
a(S'when'
p3668
g26
F0.9765
tp3669
a(S'you'
p3670
g41
F0.9985
tp3671
a(S'go'
p3672
g6
F0.9987
tp3673
a(S'in'
p3674
g132
F0.7783
tp3675
a(S'and'
p3676
g250
F0.999
tp3677
a(S'you'
p3678
g41
F0.9996
tp3679
a(S'have'
p3680
g6
F0.9987
tp3681
a(S'false'
p3682
g61
F0.9808
tp3683
a(S'teeth'
p3684
g15
F0.9988
tp3685
a(S'done'
p3686
g6
F0.946
tp3687
a(g17
g9
F0.9992
tp3688
asI1054
(lp3689
(S'so'
p3690
g132
F0.9134
tp3691
a(S'he'
p3692
g41
F0.9983
tp3693
a(S'called'
p3694
g6
F0.9999
tp3695
a(S'in'
p3696
g132
F0.9062
tp3697
a(S'today'
p3698
g15
F0.9981
tp3699
a(g183
g41
F0.9956
tp3700
a(S'guess'
p3701
g6
F0.9993
tp3702
a(S'and'
p3703
g250
F0.9969
tp3704
a(S'said'
p3705
g6
F0.9973
tp3706
a(S'he'
p3707
g41
F0.9968
tp3708
a(S"doesn't"
p3709
g6
F0.9995
tp3710
a(S'need'
p3711
g6
F0.9991
tp3712
a(S'anybody'
p3713
g15
F0.9872
tp3714
a(g17
g9
F0.9991
tp3715
asI1061
(lp3716
(S'only'
p3717
g26
F0.8987
tp3718
a(S'big'
p3719
g61
F0.9979
tp3720
a(S'people'
p3721
g15
F0.9998
tp3722
a(S'meet'
p3723
g6
F0.9399
tp3724
a(g78
g9
F0.9977
tp3725
asI1064
(lp3726
(S'this'
p3727
g41
F0.7776
tp3728
a(S"isn't"
p3729
g6
F0.9968
tp3730
a(S'Cyrus'
p3731
g243
F0.9967
tp3732
a(g439
g9
F0.9842
tp3733
a(g78
g9
F0.9841
tp3734
a(g442
g9
F0.9236
tp3735
a(S'from'
p3736
g132
F0.9947
tp3737
a(S'work'
p3738
g15
F0.9334
tp3739
a(S'that'
p3740
g132
F0.8527
tp3741
a(S'run'
p3742
g6
F0.9988
tp3743
a(S'this'
p3744
g41
F0.8114
tp3745
a(g78
g9
F0.9974
tp3746
asI1069
(lp3747
(S'no'
p3748
g48
F0.9704
tp3749
a(g17
g9
F0.9989
tp3750
asI1072
(lp3751
(S'xxx'
p3752
g376
F0.5822
tp3753
a(g17
g9
F0.9648
tp3754
asI1073
(lp3755
(S'mhm'
p3756
g48
F0.9761
tp3757
a(g17
g9
F0.9962
tp3758
asI1076
(lp3759
(S'must'
p3760
g6
F0.9761
tp3761
a(S'be'
p3762
g6
F0.9968
tp3763
a(g17
g9
F0.9979
tp3764
asI1080
(lp3765
(S'Mommy'
p3766
g15
F0.711
tp3767
a(g78
g9
F0.9974
tp3768
asI1084
(lp3769
(g183
g41
F0.9983
tp3770
a(S'have'
p3771
g6
F0.9998
tp3772
a(S'no'
p3773
g12
F0.9901
tp3774
a(S'idea'
p3775
g15
F0.9994
tp3776
a(g17
g9
F0.9986
tp3777
asI2229
(lp3778
(S'uhhuh'
p3779
g48
F0.9952
tp3780
a(g48
g9
F0.9969
tp3781
asI1089
(lp3782
(S'Mommy'
p3783
g15
F0.6653
tp3784
a(S'is'
p3785
g6
F0.9991
tp3786
a(S'this'
p3787
g41
F0.7953
tp3788
a(S'[='
p3789
g376
F0.8705
tp3790
a(S'tape'
p3791
g15
F0.9852
tp3792
a(S'recorder'
p3793
g15
F0.9983
tp3794
a(g442
g9
F0.9947
tp3795
a(S'playin(g'
p3796
g6
F0.96
tp3797
a(g8
g9
F0.9857
tp3798
a(g78
g9
F0.9964
tp3799
asI1094
(lp3800
(S'yes'
p3801
g48
F0.965
tp3802
a(S'it'
p3803
g41
F0.9987
tp3804
a(S'is'
p3805
g6
F0.9995
tp3806
a(g17
g9
F0.9979
tp3807
asI1097
(lp3808
(S'then'
p3809
g26
F0.9584
tp3810
a(S'why'
p3811
g26
F0.8492
tp3812
a(S'is'
p3813
g6
F0.9995
tp3814
a(S'it'
p3815
g41
F0.9986
tp3816
a(S'not'
p3817
g26
F0.9974
tp3818
a(S'gonna'
p3819
g6
F0.9964
tp3820
a(S'talk'
p3821
g6
F0.9761
tp3822
a(g78
g9
F0.9979
tp3823
asI1102
(lp3824
(S'because'
p3825
g132
F0.991
tp3826
a(S"it's"
p3827
g3
F0.9908
tp3828
a(S'recording'
p3829
g6
F0.9811
tp3830
a(S'what'
p3831
g41
F0.9644
tp3832
a(S"you're"
p3833
g3
F0.9819
tp3834
a(S'saying'
p3835
g6
F0.9845
tp3836
a(g17
g9
F0.9982
tp3837
asI1107
(lp3838
(S"I'll"
p3839
g3
F0.9768
tp3840
a(S'show'
p3841
g6
F0.99
tp3842
a(S'you'
p3843
g41
F0.9957
tp3844
a(S'after'
p3845
g132
F0.7295
tp3846
a(S'when'
p3847
g26
F0.8493
tp3848
a(S"you're"
p3849
g3
F0.9841
tp3850
a(S'all'
p3851
g12
F0.763
tp3852
a(S'done'
p3853
g6
F0.7264
tp3854
a(S'eating'
p3855
g6
F0.9691
tp3856
a(g17
g9
F0.9978
tp3857
asI1113
(lp3858
(S'Mommy'
p3859
g15
F0.4941
tp3860
a(S"I'm"
p3861
g3
F0.9933
tp3862
a(S'done'
p3863
g6
F0.9165
tp3864
a(S'can'
p3865
g6
F0.9926
tp3866
a(g183
g41
F0.9989
tp3867
a(S'sit'
p3868
g6
F0.9996
tp3869
a(S'in'
p3870
g132
F0.8461
tp3871
a(S'that'
p3872
g12
F0.8507
tp3873
a(S'chair'
p3874
g15
F0.9979
tp3875
a(g78
g9
F0.9986
tp3876
asI1120
(lp3877
(S"you're"
p3878
g3
F0.9953
tp3879
a(S'not'
p3880
g26
F0.9973
tp3881
a(S'gonna'
p3882
g6
F0.9957
tp3883
a(S'touch'
p3884
g6
F0.9476
tp3885
a(S'that'
p3886
g41
F0.8599
tp3887
a(g17
g9
F0.9984
tp3888
asI1125
(lp3889
(S"you're"
p3890
g3
F0.9894
tp3891
a(S'gonna'
p3892
g6
F0.996
tp3893
a(S'eat'
p3894
g6
F0.9997
tp3895
a(S'your'
p3896
g12
F0.9943
tp3897
a(S'supper'
p3898
g15
F0.9846
tp3899
a(S'first'
p3900
g61
F0.6253
tp3901
a(g17
g9
F0.9985
tp3902
asI1131
(lp3903
(S'Nikki'
p3904
g243
F0.9998
tp3905
a(S'do'
p3906
g6
F0.9993
tp3907
a(S'you'
p3908
g41
F0.9997
tp3909
a(S'want'
p3910
g6
F0.9999
tp3911
a(S'the'
p3912
g12
F0.9997
tp3913
a(S'other'
p3914
g61
F0.9852
tp3915
a(S'half'
p3916
g15
F0.7739
tp3917
a(S'of'
p3918
g132
F0.9984
tp3919
a(S"Eric's"
p3920
g518
F0.8215
tp3921
a(S'sandwich'
p3922
g15
F0.9753
tp3923
a(g78
g9
F0.9977
tp3924
asI1137
(lp3925
(S'no'
p3926
g48
F0.9704
tp3927
a(g17
g9
F0.9989
tp3928
asI1140
(lp3929
(S'to'
p3930
g132
F0.9838
tp3931
a(S'dunk'
p3932
g6
F0.9101
tp3933
a(S'in'
p3934
g132
F0.9675
tp3935
a(S'your'
p3936
g12
F0.9909
tp3937
a(S'soup'
p3938
g15
F0.9968
tp3939
a(g78
g9
F0.9971
tp3940
asI1143
(lp3941
(S'no'
p3942
g48
F0.9704
tp3943
a(g17
g9
F0.9989
tp3944
asI1146
(lp3945
(S'here'
p3946
g26
F0.9346
tp3947
a(S'you'
p3948
g41
F0.9996
tp3949
a(S'go'
p3950
g6
F0.9916
tp3951
a(g17
g9
F0.998
tp3952
asI1149
(lp3953
(S"I'll"
p3954
g3
F0.9855
tp3955
a(S'give'
p3956
g6
F0.9999
tp3957
a(S'it'
p3958
g41
F0.9875
tp3959
a(S'to'
p3960
g132
F0.9952
tp3961
a(S'you'
p3962
g41
F0.9985
tp3963
a(g17
g9
F0.9994
tp3964
asI1153
(lp3965
(S'no'
p3966
g48
F0.8567
tp3967
a(g183
g41
F0.9962
tp3968
a(S"don't"
p3969
g6
F1.0
tp3970
a(S'+/'
p3971
g6
F0.3121
tp3972
a(g17
g9
F0.9973
tp3973
asI1156
(lp3974
(S'she'
p3975
g41
F0.9908
tp3976
a(S"doesn't"
p3977
g6
F0.999
tp3978
a(S'want'
p3979
g6
F1.0
tp3980
a(S'it'
p3981
g41
F0.988
tp3982
a(g17
g9
F0.9989
tp3983
asI1159
(lp3984
(S"don't"
p3985
g6
F0.9992
tp3986
a(S'make'
p3987
g6
F0.9999
tp3988
a(S'her'
p3989
g41
F0.4802
tp3990
a(g17
g9
F0.9984
tp3991
asI1163
(lp3992
(S'Nikki'
p3993
g243
F0.9992
tp3994
a(g20
g21
F0.4311
tp3995
a(S'w(ant)'
p3996
g6
F0.8865
tp3997
a(g28
g9
F0.2852
tp3998
a(S'[/]'
p3999
g243
F0.229
tp4000
a(S'want'
p4001
g6
F0.9993
tp4002
a(S'my'
p4003
g12
F0.9973
tp4004
a(S'sandwich'
p4005
g15
F0.9982
tp4006
a(g78
g9
F0.9979
tp4007
asI1167
(lp4008
(S'she'
p4009
g41
F0.9908
tp4010
a(S"doesn't"
p4011
g6
F0.999
tp4012
a(S'want'
p4013
g6
F1.0
tp4014
a(S'it'
p4015
g41
F0.9863
tp4016
a(S'Eric'
p4017
g243
F0.9992
tp4018
a(g17
g9
F0.9931
tp4019
asI1170
(lp4020
(S'well'
p4021
g48
F0.7616
tp4022
a(S"I'll"
p4023
g3
F0.9857
tp4024
a(S'give'
p4025
g6
F0.9999
tp4026
a(S'it'
p4027
g41
F0.9875
tp4028
a(S'to'
p4029
g132
F0.9892
tp4030
a(S'you'
p4031
g41
F0.9988
tp4032
a(g17
g9
F0.9995
tp4033
asI1175
(lp4034
(g183
g41
F0.9976
tp4035
a(S"don't"
p4036
g6
F1.0
tp4037
a(S'want'
p4038
g6
F1.0
tp4039
a(S'it'
p4040
g41
F0.988
tp4041
a(g17
g9
F0.9989
tp4042
asI1178
(lp4043
(S"I'm"
p4044
g3
F0.9981
tp4045
a(S'not'
p4046
g26
F0.9994
tp4047
a(S'hungry'
p4048
g61
F0.924
tp4049
a(g17
g9
F0.9983
tp4050
asI1182
(lp4051
(g183
g41
F0.9976
tp4052
a(S"don't"
p4053
g6
F1.0
tp4054
a(S'want'
p4055
g6
F1.0
tp4056
a(S'it'
p4057
g41
F0.988
tp4058
a(g17
g9
F0.9989
tp4059
asI1185
(lp4060
(S'come'
p4061
g6
F0.9897
tp4062
a(S'on'
p4063
g132
F0.9163
tp4064
a(S'eat'
p4065
g243
F0.3622
tp4066
a(g48
g9
F0.9858
tp4067
asI1190
(lp4068
(S'Daniel'
p4069
g243
F0.9992
tp4070
a(S'xxx'
p4071
g376
F0.2601
tp4072
a(S'work'
p4073
g15
F0.9222
tp4074
a(S'xxx'
p4075
g15
F0.5551
tp4076
a(S'today'
p4077
g15
F0.9975
tp4078
a(g17
g9
F0.9969
tp4079
asI1194
(lp4080
(S'Daniel'
p4081
g243
F0.999
tp4082
a(S'did'
p4083
g6
F0.9578
tp4084
a(g78
g9
F0.9973
tp4085
asI1197
(lp4086
(g20
g21
F0.9177
tp4087
a(S'he'
p4088
g41
F0.9963
tp4089
a(S"didn't"
p4090
g6
F0.9999
tp4091
a(S'even'
p4092
g26
F0.9887
tp4093
a(g28
g29
F0.3515
tp4094
a(S'[//]'
p4095
g29
F0.3163
tp4096
a(S'actually'
p4097
g26
F0.9949
tp4098
a(S'he'
p4099
g41
F0.9954
tp4100
a(S"didn't"
p4101
g6
F0.9999
tp4102
a(S'even'
p4103
g26
F0.986
tp4104
a(S'work'
p4105
g15
F0.75
tp4106
a(g17
g9
F0.9975
tp4107
asI1201
(lp4108
(S'he'
p4109
g41
F0.9956
tp4110
a(S'showed'
p4111
g6
F1.0
tp4112
a(S'up'
p4113
g545
F0.9633
tp4114
a(S'about'
p4115
g132
F0.9624
tp4116
a(S'nine'
p4117
g316
F0.4973
tp4118
a(S"o'clock"
p4119
g15
F0.5069
tp4120
a(S'on'
p4121
g132
F0.999
tp4122
a(S'his'
p4123
g12
F0.9988
tp4124
a(S'motorcycle'
p4125
g15
F0.9961
tp4126
a(S'and'
p4127
g250
F0.9983
tp4128
a(S'it'
p4129
g41
F0.9986
tp4130
a(S'was'
p4131
g6
F0.9988
tp4132
a(S'still'
p4133
g26
F0.9987
tp4134
a(S'you'
p4135
g41
F0.999
tp4136
a(S'know'
p4137
g6
F0.9981
tp4138
a(S'kind'
p4139
g15
F0.8542
tp4140
a(S'o(f'
p4141
g132
F0.6273
tp4142
a(g8
g9
F0.9908
tp4143
a(S'drizzling'
p4144
g6
F0.9267
tp4145
a(S'out'
p4146
g545
F0.8357
tp4147
a(S'and'
p4148
g250
F0.9972
tp4149
a(S'stuff'
p4150
g15
F0.9565
tp4151
a(S'(.)'
p4152
g9
F0.3003
tp4153
a(S'so'
p4154
g26
F0.5894
tp4155
a(g20
g21
F0.6695
tp4156
a(S'he'
p4157
g41
F0.996
tp4158
a(S'went'
p4159
g6
F0.9977
tp4160
a(g28
g9
F0.2631
tp4161
a(S'[//]'
p4162
g9
F0.326
tp4163
a(S'he'
p4164
g41
F0.9965
tp4165
a(S'took'
p4166
g6
F0.9991
tp4167
a(S'first'
p4168
g61
F0.9497
tp4169
a(S'truck'
p4170
g15
F0.9985
tp4171
a(S'and'
p4172
g250
F0.9979
tp4173
a(S'went'
p4174
g6
F0.9942
tp4175
a(S'home'
p4176
g15
F0.6038
tp4177
a(S'(.)'
p4178
g29
F0.3784
tp4179
a(S'to'
p4180
g132
F0.9945
tp4181
a(S'pick'
p4182
g6
F0.9997
tp4183
a(S'up'
p4184
g545
F0.9628
tp4185
a(S'Mark'
p4186
g243
F0.998
tp4187
a(S'(.)'
p4188
g243
F0.3657
tp4189
a(S'he'
p4190
g41
F0.993
tp4191
a(S'came'
p4192
g6
F0.9985
tp4193
a(S'back'
p4194
g26
F0.6895
tp4195
a(S'(.)'
p4196
g29
F0.3924
tp4197
a(S'he'
p4198
g41
F0.9954
tp4199
a(S'dropped'
p4200
g6
F1.0
tp4201
a(S'some'
p4202
g12
F0.9963
tp4203
a(S'stuff'
p4204
g15
F0.9951
tp4205
a(S'off'
p4206
g132
F0.5577
tp4207
a(S'at'
p4208
g132
F0.9972
tp4209
a(S"Fred's"
p4210
g518
F0.8992
tp4211
a(S'house'
p4212
g15
F0.9277
tp4213
a(S'came'
p4214
g6
F0.9834
tp4215
a(S'back'
p4216
g26
F0.6895
tp4217
a(S'(.)'
p4218
g243
F0.3334
tp4219
a(S'took'
p4220
g6
F0.9986
tp4221
a(S'his'
p4222
g12
F0.9986
tp4223
a(S'motorcycle'
p4224
g15
F0.9961
tp4225
a(S'and'
p4226
g250
F0.9979
tp4227
a(S'left'
p4228
g6
F0.8016
tp4229
a(g17
g9
F0.9981
tp4230
asI1220
(lp4231
(S'did'
p4232
g6
F0.9846
tp4233
a(S'Mark'
p4234
g243
F0.9945
tp4235
a(S'work'
p4236
g15
F0.9602
tp4237
a(g78
g9
F0.9968
tp4238
asI1223
(lp4239
(S'yep'
p4240
g48
F0.9972
tp4241
a(g17
g9
F0.9971
tp4242
asI1226
(lp4243
(S'Mark'
p4244
g243
F0.9934
tp4245
a(S'and'
p4246
g250
F0.9995
tp4247
a(g183
g41
F0.9982
tp4248
a(S'just'
p4249
g26
F0.9993
tp4250
a(S'got'
p4251
g6
F0.9987
tp4252
a(S'done'
p4253
g6
F0.9963
tp4254
a(S'you'
p4255
g41
F0.9991
tp4256
a(S'know'
p4257
g6
F0.995
tp4258
a(g17
g9
F0.9984
tp4259
asI1231
(lp4260
(S'you'
p4261
g41
F0.9983
tp4262
a(S'know'
p4263
g6
F0.9958
tp4264
a(S'and'
p4265
g250
F0.9971
tp4266
a(S'he'
p4267
g41
F0.9952
tp4268
a(S'xxx'
p4269
g6
F0.9177
tp4270
a(S'over'
p4271
g132
F0.8041
tp4272
a(S'there'
p4273
g26
F0.8799
tp4274
a(g17
g9
F0.9981
tp4275
asI1236
(lp4276
(S'yeah'
p4277
g48
F0.9947
tp4278
a(g20
g21
F0.8016
tp4279
a(g183
g41
F0.9986
tp4280
a(S'took'
p4281
g6
F0.9994
tp4282
a(g28
g376
F0.2506
tp4283
a(S'[/]'
p4284
g376
F0.5822
tp4285
a(g183
g41
F0.9967
tp4286
a(S'took'
p4287
g6
F0.9999
tp4288
a(S'some'
p4289
g12
F0.8339
tp4290
a(S'of'
p4291
g132
F0.9958
tp4292
a(S'this'
p4293
g41
F0.7474
tp4294
a(S'in'
p4295
g132
F0.9561
tp4296
a(S'my'
p4297
g12
F0.9989
tp4298
a(S'mouth'
p4299
g15
F0.9995
tp4300
a(g20
g21
F0.6887
tp4301
a(g183
g41
F0.9963
tp4302
a(g28
g6
F0.2795
tp4303
a(S'[/]'
p4304
g9
F0.2642
tp4305
a(g20
g21
F0.9375
tp4306
a(g183
g41
F0.9963
tp4307
a(g28
g6
F0.2795
tp4308
a(S'[/]'
p4309
g9
F0.4145
tp4310
a(g183
g41
F0.9935
tp4311
a(S'keeped'
p4312
g6
F0.8801
tp4313
a(S'@n'
p4314
g2002
F0.995
tp4315
a(S'it'
p4316
g41
F0.9903
tp4317
a(S'in'
p4318
g132
F0.9635
tp4319
a(S'my'
p4320
g12
F0.9989
tp4321
a(S'mouth'
p4322
g15
F0.9993
tp4323
a(S'and'
p4324
g250
F0.9981
tp4325
a(g183
g41
F0.9991
tp4326
a(S'took'
p4327
g6
F0.9999
tp4328
a(S'some'
p4329
g12
F0.8339
tp4330
a(S'of'
p4331
g132
F0.9979
tp4332
a(S'the'
p4333
g12
F0.9991
tp4334
a(S'milk'
p4335
g15
F0.998
tp4336
a(g439
g9
F0.988
tp4337
a(g78
g9
F0.9827
tp4338
a(g442
g9
F0.8997
tp4339
a(g17
g9
F0.996
tp4340
asI1245
(lp4341
(S'it'
p4342
g41
F0.9787
tp4343
a(S'taste'
p4344
g6
F0.9834
tp4345
a(S'good'
p4346
g61
F0.9921
tp4347
a(g17
g9
F0.9984
tp4348
asI1250
(lp4349
(S'xxx'
p4350
g376
F0.7344
tp4351
a(S'+/'
p4352
g376
F0.2582
tp4353
a(g17
g9
F0.9683
tp4354
asI1254
(lp4355
(S'you'
p4356
g41
F0.9969
tp4357
a(S'can'
p4358
g6
F0.9997
tp4359
a(S'feel'
p4360
g6
F0.9999
tp4361
a(S'my'
p4362
g12
F0.9983
tp4363
a(S'muscles'
p4364
g15
F0.999
tp4365
a(g17
g9
F0.9983
tp4366
asI1257
(lp4367
(S'yeah'
p4368
g48
F0.9971
tp4369
a(g183
g41
F0.999
tp4370
a(S'can'
p4371
g6
F0.9999
tp4372
a(S'see'
p4373
g6
F0.9998
tp4374
a(S'them'
p4375
g41
F0.906
tp4376
a(g17
g9
F0.998
tp4377
asI1260
(lp4378
(S'Mommy'
p4379
g15
F0.655
tp4380
a(g20
g21
F0.4408
tp4381
a(S'want'
p4382
g6
F0.9954
tp4383
a(S'to'
p4384
g132
F0.9923
tp4385
a(S'feel'
p4386
g6
F0.9939
tp4387
a(g1330
g9
F0.9883
tp4388
a(S'th)em'
p4389
g41
F0.7996
tp4390
a(g28
g376
F0.5318
tp4391
a(g439
g376
F0.5345
tp4392
a(g28
g376
F0.949
tp4393
a(g442
g9
F0.6387
tp4394
a(g78
g9
F0.9934
tp4395
asI1264
(lp4396
(S'xxx'
p4397
g376
F0.8981
tp4398
a(g439
g9
F0.6622
tp4399
a(g20
g21
F0.972
tp4400
a(g442
g9
F0.9847
tp4401
a(g17
g9
F0.9962
tp4402
asI1265
(lp4403
(S'wait'
p4404
g6
F0.9414
tp4405
a(g20
g21
F0.5888
tp4406
a(S'can'
p4407
g6
F0.9996
tp4408
a(S'you'
p4409
g41
F0.9985
tp4410
a(g28
g9
F0.4612
tp4411
a(S'[/]'
p4412
g9
F0.2888
tp4413
a(S'can'
p4414
g6
F0.9997
tp4415
a(S'you'
p4416
g41
F0.9989
tp4417
a(S'feel'
p4418
g6
F0.9951
tp4419
a(g439
g9
F0.9827
tp4420
a(g48
g9
F0.9901
tp4421
a(g442
g9
F0.8924
tp4422
a(g1330
g9
F0.9731
tp4423
a(S'th)em'
p4424
g41
F0.6213
tp4425
a(g78
g9
F0.9974
tp4426
asI1269
(lp4427
(S"they're"
p4428
g3
F0.9063
tp4429
a(S'pretty'
p4430
g26
F0.7254
tp4431
a(S'big'
p4432
g61
F0.9877
tp4433
a(g17
g9
F0.9986
tp4434
asI1272
(lp4435
(S'they'
p4436
g41
F0.9877
tp4437
a(S'look'
p4438
g6
F0.9908
tp4439
a(g439
g9
F0.9831
tp4440
a(g48
g9
F0.9922
tp4441
a(g442
g9
F0.9839
tp4442
a(S'big'
p4443
g61
F0.9249
tp4444
a(g17
g9
F0.9985
tp4445
asI1275
(lp4446
(S'oh'
p4447
g48
F0.9987
tp4448
a(S'yeah'
p4449
g48
F0.9998
tp4450
a(g48
g9
F0.9972
tp4451
asI1278
(lp4452
(S'big'
p4453
g61
F0.8102
tp4454
a(g439
g9
F0.9894
tp4455
a(g28
g21
F0.3399
tp4456
a(g442
g9
F0.9753
tp4457
a(S'muscles'
p4458
g15
F0.9868
tp4459
a(g48
g9
F0.9988
tp4460
asI1281
(lp4461
(S'yeah'
p4462
g48
F0.9951
tp4463
a(g439
g9
F0.9843
tp4464
a(g20
g21
F0.972
tp4465
a(g442
g9
F0.9847
tp4466
a(g17
g9
F0.9962
tp4467
asI1284
(lp4468
(S'feel'
p4469
g6
F0.9902
tp4470
a(S'the'
p4471
g12
F0.9995
tp4472
a(S'other'
p4473
g61
F0.9955
tp4474
a(S'one'
p4475
g316
F0.9322
tp4476
a(g17
g9
F0.9977
tp4477
asI1287
(lp4478
(S'big'
p4479
g61
F0.7898
tp4480
a(g78
g9
F0.9961
tp4481
asI1291
(lp4482
(S'feel'
p4483
g6
F0.984
tp4484
a(S'mine'
p4485
g41
F0.9347
tp4486
a(g17
g9
F0.9971
tp4487
asI1294
(lp4488
(S'big'
p4489
g61
F0.9629
tp4490
a(S'muscles'
p4491
g15
F0.998
tp4492
a(S'oh'
p4493
g48
F0.9851
tp4494
a(S'yeah'
p4495
g48
F0.9954
tp4496
a(S'baby'
p4497
g15
F0.9243
tp4498
a(g48
g9
F0.9985
tp4499
asI1297
(lp4500
(S'feel'
p4501
g6
F0.9911
tp4502
a(S'this'
p4503
g12
F0.9348
tp4504
a(S'one'
p4505
g316
F0.7809
tp4506
a(g17
g9
F0.9976
tp4507
asI1300
(lp4508
(S'boy'
p4509
g15
F0.9582
tp4510
a(g17
g9
F0.9978
tp4511
asI1303
(lp4512
(S'&-uh'
p4513
g48
F0.8719
tp4514
a(S'&-uh'
p4515
g48
F0.9764
tp4516
a(S'that'
p4517
g12
F0.4254
tp4518
a(S'muscle'
p4519
g15
F0.9669
tp4520
a(g48
g9
F0.9988
tp4521
asI1307
(lp4522
(S'let'
p4523
g6
F0.9975
tp4524
a(S'me'
p4525
g41
F0.9995
tp4526
a(S'see'
p4527
g6
F0.9944
tp4528
a(S'the'
p4529
g12
F0.9998
tp4530
a(S'other'
p4531
g61
F0.9835
tp4532
a(S'muscle'
p4533
g15
F0.9229
tp4534
a(g17
g9
F0.9981
tp4535
asI1311
(lp4536
(S'zzz'
p4537
g48
F0.3756
tp4538
a(g17
g9
F0.9972
tp4539
asI1315
(lp4540
(S"it's"
p4541
g3
F0.9799
tp4542
a(S'small'
p4543
g61
F0.996
tp4544
a(g78
g9
F0.9967
tp4545
asI1318
(lp4546
(S'small'
p4547
g61
F0.9467
tp4548
a(g78
g9
F0.9967
tp4549
asI1321
(lp4550
(S'zzz'
p4551
g48
F0.3756
tp4552
a(g17
g9
F0.9972
tp4553
asI1325
(lp4554
(S'yeah'
p4555
g48
F0.9947
tp4556
a(g20
g21
F0.7012
tp4557
a(S"they're>"
p4558
g3
F0.5893
tp4559
a(S'[/]'
p4560
g9
F0.5046
tp4561
a(S"they're"
p4562
g12
F0.5088
tp4563
a(S'small'
p4564
g61
F0.9908
tp4565
a(S'Buddy'
p4566
g15
F0.9376
tp4567
a(g17
g9
F0.9987
tp4568
asI1329
(lp4569
(S'xxx'
p4570
g376
F0.6827
tp4571
a(S'David'
p4572
g243
F0.9976
tp4573
a(g17
g9
F0.9946
tp4574
asI1332
(lp4575
(S'big'
p4576
g61
F0.8102
tp4577
a(g439
g9
F0.9908
tp4578
a(g78
g9
F0.979
tp4579
a(g442
g9
F0.8218
tp4580
a(g48
g9
F0.997
tp4581
asI1335
(lp4582
(S'okay'
p4583
g48
F0.88
tp4584
a(S'eat'
p4585
g6
F0.9895
tp4586
a(S'up'
p4587
g545
F0.9346
tp4588
a(S'your'
p4589
g12
F0.9896
tp4590
a(S'soup'
p4591
g15
F0.998
tp4592
a(g17
g9
F0.9982
tp4593
asI1338
(lp4594
(S'yeah'
p4595
g48
F0.9986
tp4596
a(g17
g9
F0.997
tp4597
asI1341
(lp4598
(S'dunk'
p4599
g6
F0.8207
tp4600
a(S'your'
p4601
g12
F0.984
tp4602
a(S'sandwich'
p4603
g15
F0.9989
tp4604
a(S'in'
p4605
g132
F0.9986
tp4606
a(S'your'
p4607
g12
F0.9914
tp4608
a(S'soup'
p4609
g15
F0.9981
tp4610
a(g17
g9
F0.9985
tp4611
asI1344
(lp4612
(S'all'
p4613
g12
F0.7812
tp4614
a(S'gone'
p4615
g61
F0.8592
tp4616
a(g17
g9
F0.9989
tp4617
asI1347
(lp4618
(S'eat'
p4619
g6
F0.99
tp4620
a(S'your'
p4621
g12
F0.9928
tp4622
a(S'soup'
p4623
g15
F0.999
tp4624
a(g17
g9
F0.9986
tp4625
asI1350
(lp4626
(S'wow'
p4627
g48
F0.9986
tp4628
a(g48
g9
F0.9956
tp4629
asI1353
(lp4630
(g183
g41
F0.9937
tp4631
a(g20
g21
F0.777
tp4632
a(S'can'
p4633
g6
F0.9941
tp4634
a(S'dunk'
p4635
g6
F0.9947
tp4636
a(S'it'
p4637
g41
F0.9821
tp4638
a(S'in'
p4639
g132
F0.9635
tp4640
a(S'my'
p4641
g12
F0.9972
tp4642
a(S'milk'
p4643
g15
F0.9991
tp4644
a(g28
g376
F0.5184
tp4645
a(g439
g376
F0.535
tp4646
a(g20
g21
F0.8293
tp4647
a(g442
g9
F0.9908
tp4648
a(S'and'
p4649
g250
F0.9992
tp4650
a(S"it's"
p4651
g3
F0.9977
tp4652
a(S'gonna'
p4653
g6
F0.993
tp4654
a(S'be'
p4655
g6
F0.9994
tp4656
a(S'good'
p4657
g61
F0.9929
tp4658
a(g17
g9
F0.9988
tp4659
asI1358
(lp4660
(S'one'
p4661
g316
F0.958
tp4662
a(S'two'
p4663
g316
F0.9058
tp4664
a(S'three'
p4665
g316
F0.8993
tp4666
a(S'four'
p4667
g316
F0.6208
tp4668
a(S'five'
p4669
g316
F0.4995
tp4670
a(S'six'
p4671
g316
F0.5182
tp4672
a(S'seven'
p4673
g316
F0.8382
tp4674
a(S'eight'
p4675
g316
F0.7956
tp4676
a(S'nine'
p4677
g61
F0.4662
tp4678
a(S'twelve'
p4679
g316
F0.605
tp4680
a(S'twenty'
p4681
g316
F0.6734
tp4682
a(g439
g9
F0.9821
tp4683
a(g78
g9
F0.982
tp4684
a(g442
g9
F0.9518
tp4685
a(g17
g9
F0.996
tp4686
asI1364
(lp4687
(S'zzz'
p4688
g48
F0.3756
tp4689
a(g17
g9
F0.9972
tp4690
asI1368
(lp4691
(S'go'
p4692
g6
F0.8895
tp4693
a(S't_t'
p4694
g376
F0.3326
tp4695
a(S'o'
p4696
g132
F0.7707
tp4697
a(S'call'
p4698
g6
F0.5018
tp4699
a(S'Nanna'
p4700
g243
F0.8276
tp4701
a(g17
g9
F0.9954
tp4702
asI1372
(lp4703
(S'you'
p4704
g41
F0.995
tp4705
a(S'still'
p4706
g26
F0.9489
tp4707
a(S"haven't"
p4708
g6
F0.8969
tp4709
a(S'got'
p4710
g6
F0.9982
tp4711
a(S'in'
p4712
g132
F0.7505
tp4713
a(S'touch'
p4714
g15
F0.9618
tp4715
a(S'with'
p4716
g132
F0.9997
tp4717
a(S'her'
p4718
g41
F0.8361
tp4719
a(g78
g9
F0.9974
tp4720
asI1377
(lp4721
(g183
g41
F0.9978
tp4722
a(S"didn't"
p4723
g6
F1.0
tp4724
a(S'try'
p4725
g6
F0.9959
tp4726
a(S'today'
p4727
g15
F0.9899
tp4728
a(g17
g9
F0.9978
tp4729
asI1380
(lp4730
(S'Uncle'
p4731
g243
F0.5481
tp4732
a(S"Dave's"
p4733
g518
F0.9271
tp4734
a(S'truck'
p4735
g15
F0.9749
tp4736
a(S'right'
p4737
g26
F0.5095
tp4738
a(g78
g9
F0.9988
tp4739
asI1384
(lp4740
(S'mhm'
p4741
g48
F0.9761
tp4742
a(g17
g9
F0.9962
tp4743
asI1387
(lp4744
(S'and'
p4745
g250
F0.9985
tp4746
a(S'Jimmy'
p4747
g243
F0.999
tp4748
a(g439
g9
F0.9725
tp4749
a(g78
g9
F0.9878
tp4750
a(g442
g9
F0.8782
tp4751
a(S'do'
p4752
g6
F0.9992
tp4753
a(S'this'
p4754
g41
F0.898
tp4755
a(S'and'
p4756
g250
F0.9973
tp4757
a(S"I'm"
p4758
g3
F0.997
tp4759
a(S'gonna'
p4760
g6
F0.9968
tp4761
a(S'do'
p4762
g6
F0.9998
tp4763
a(S'this'
p4764
g41
F0.9092
tp4765
a(g17
g9
F0.9982
tp4766
asI2092
(lp4767
(S"I'm"
p4768
g3
F0.9942
tp4769
a(g142
g12
F0.9873
tp4770
a(S'rotten'
p4771
g61
F0.9725
tp4772
a(S'egg'
p4773
g15
F0.9944
tp4774
a(S'Nikki'
p4775
g243
F0.9993
tp4776
a(g17
g9
F0.9935
tp4777
asI1394
(lp4778
(S'come'
p4779
g6
F0.9897
tp4780
a(S'on'
p4781
g132
F0.936
tp4782
a(S'eat'
p4783
g6
F0.6329
tp4784
a(S'nice'
p4785
g61
F0.9862
tp4786
a(g17
g9
F0.9987
tp4787
asI1397
(lp4788
(S"you're"
p4789
g3
F0.9894
tp4790
a(S'gonna'
p4791
g6
F0.9962
tp4792
a(S'make'
p4793
g6
F0.9998
tp4794
a(S'me'
p4795
g41
F0.9794
tp4796
a(S'mad'
p4797
g61
F0.9069
tp4798
a(g17
g9
F0.9977
tp4799
asI1401
(lp4800
(S'Eric'
p4801
g243
F0.9973
tp4802
a(g48
g9
F0.9903
tp4803
asI1404
(lp4804
(S'swallow'
p4805
g6
F0.9928
tp4806
a(S'it'
p4807
g41
F0.9887
tp4808
a(g48
g9
F0.999
tp4809
asI1407
(lp4810
(S'you'
p4811
g41
F0.9969
tp4812
a(S'can'
p4813
g6
F0.9996
tp4814
a(S'go'
p4815
g6
F0.9994
tp4816
a(S'to'
p4817
g132
F0.9839
tp4818
a(S'bed'
p4819
g6
F0.4911
tp4820
a(S'early'
p4821
g26
F0.679
tp4822
a(S'tonight'
p4823
g26
F0.5709
tp4824
a(g439
g9
F0.9797
tp4825
a(g28
g376
F0.4696
tp4826
a(g442
g9
F0.795
tp4827
a(g17
g9
F0.9964
tp4828
asI1411
(lp4829
(g20
g21
F0.9117
tp4830
a(S"I'm"
p4831
g3
F0.9949
tp4832
a(S'gonna'
p4833
g6
F0.9971
tp4834
a(S'do'
p4835
g6
F0.9993
tp4836
a(g28
g376
F0.6345
tp4837
a(g439
g376
F0.535
tp4838
a(g20
g21
F0.8293
tp4839
a(g442
g9
F0.9883
tp4840
a(S'that'
p4841
g41
F0.7611
tp4842
a(g17
g9
F0.9987
tp4843
asI1414
(lp4844
(S'no'
p4845
g48
F0.9005
tp4846
a(S"you're"
p4847
g3
F0.9942
tp4848
a(S'not'
p4849
g26
F0.9967
tp4850
a(g17
g9
F0.996
tp4851
asI1418
(lp4852
(S'see'
p4853
g6
F0.8807
tp4854
a(S'what'
p4855
g41
F0.9009
tp4856
a(S'you'
p4857
g41
F0.9993
tp4858
a(S'teach'
p4859
g6
F0.9999
tp4860
a(S'your'
p4861
g12
F0.9953
tp4862
a(S'sister'
p4863
g15
F0.9992
tp4864
a(g78
g9
F0.998
tp4865
asI1423
(lp4866
(S"that's"
p4867
g3
F0.9974
tp4868
a(S'not'
p4869
g26
F0.9993
tp4870
a(S'nice'
p4871
g61
F0.9837
tp4872
a(S'to'
p4873
g132
F0.9936
tp4874
a(S'do'
p4875
g6
F0.9996
tp4876
a(S'at'
p4877
g132
F0.9974
tp4878
a(S'the'
p4879
g12
F0.9994
tp4880
a(S'supper'
p4881
g15
F0.9274
tp4882
a(S'table'
p4883
g15
F0.9985
tp4884
a(g17
g9
F0.9982
tp4885
asI1429
(lp4886
(S'zzz'
p4887
g48
F0.3756
tp4888
a(g17
g9
F0.9972
tp4889
asI1433
(lp4890
(S'like'
p4891
g132
F0.7787
tp4892
a(S'that'
p4893
g41
F0.971
tp4894
a(g17
g9
F0.9986
tp4895
asI1436
(lp4896
(g183
g41
F0.9976
tp4897
a(S"don't"
p4898
g6
F1.0
tp4899
a(S'(.)'
p4900
g6
F0.3234
tp4901
a(g48
g9
F0.9977
tp4902
asI1439
(lp4903
(S'Eric'
p4904
g243
F0.9973
tp4905
a(g48
g9
F0.9903
tp4906
asI1442
(lp4907
(S"it's"
p4908
g3
F0.9984
tp4909
a(S'not'
p4910
g26
F0.9995
tp4911
a(S'funny'
p4912
g61
F0.9977
tp4913
a(g17
g9
F0.9986
tp4914
asI1445
(lp4915
(S'tryin(g'
p4916
g6
F0.8667
tp4917
a(g8
g9
F0.9941
tp4918
a(S'to'
p4919
g132
F0.9883
tp4920
a(S'stop'
p4921
g6
F0.947
tp4922
a(g17
g9
F0.9976
tp4923
asI1448
(lp4924
(S'no'
p4925
g48
F0.9005
tp4926
a(S"you're"
p4927
g3
F0.9942
tp4928
a(S'not'
p4929
g26
F0.9967
tp4930
a(g17
g9
F0.996
tp4931
asI1451
(lp4932
(S"you're"
p4933
g3
F0.9953
tp4934
a(S'not'
p4935
g26
F0.9987
tp4936
a(S'trying'
p4937
g6
F0.9984
tp4938
a(S'hard'
p4939
g61
F0.6712
tp4940
a(S'enough'
p4941
g15
F0.7185
tp4942
a(g17
g9
F0.9988
tp4943
asI1455
(lp4944
(S'like'
p4945
g132
F0.7787
tp4946
a(S'that'
p4947
g41
F0.9647
tp4948
a(g48
g9
F0.9987
tp4949
asI1458
(lp4950
(S'uhuh'
p4951
g48
F0.9924
tp4952
a(g17
g9
F0.9962
tp4953
asI1463
(lp4954
(g183
g41
F0.9991
tp4955
a(S'did'
p4956
g6
F0.9999
tp4957
a(S'the'
p4958
g12
F0.9996
tp4959
a(S'best'
p4960
g61
F0.9524
tp4961
a(g183
g41
F0.9941
tp4962
a(S'could'
p4963
g6
F0.9999
tp4964
a(S'at'
p4965
g132
F0.9761
tp4966
a(S'cleaning'
p4967
g6
F0.8478
tp4968
a(S'that'
p4969
g12
F0.8387
tp4970
a(S'car'
p4971
g15
F0.9948
tp4972
a(S'out'
p4973
g132
F0.4574
tp4974
a(g17
g9
F0.9965
tp4975
asI1469
(lp4976
(S"I'm"
p4977
g3
F0.9951
tp4978
a(S'gonna'
p4979
g6
F0.9845
tp4980
a(g20
g21
F0.9157
tp4981
a(S'scream'
p4982
g6
F0.9972
tp4983
a(S'with'
p4984
g132
F0.9981
tp4985
a(g142
g12
F0.9987
tp4986
a(S'fork'
p4987
g15
F0.9973
tp4988
a(g28
g376
F0.6312
tp4989
a(g439
g376
F0.5345
tp4990
a(g28
g376
F0.949
tp4991
a(g442
g9
F0.7992
tp4992
a(g17
g9
F0.9936
tp4993
asI1474
(lp4994
(S'xxx'
p4995
g376
F0.8981
tp4996
a(g439
g9
F0.6622
tp4997
a(g20
g21
F0.972
tp4998
a(g442
g9
F0.9847
tp4999
a(g17
g9
F0.9962
tp5000
asI1476
(lp5001
(S"it's"
p5002
g3
F0.9957
tp5003
a(S'got'
p5004
g6
F0.9955
tp5005
a(g142
g12
F0.9976
tp5006
a(S'lot'
p5007
g15
F0.9809
tp5008
a(S'of'
p5009
g132
F0.9973
tp5010
a(S'dirt'
p5011
g15
F0.9914
tp5012
a(S'in'
p5013
g132
F0.9891
tp5014
a(g20
g21
F0.8881
tp5015
a(S'it'
p5016
g41
F0.9797
tp5017
a(S'&-uh'
p5018
g48
F0.37
tp5019
a(g28
g376
F0.569
tp5020
a(g439
g376
F0.5345
tp5021
a(g28
g376
F0.9532
tp5022
a(g442
g9
F0.8376
tp5023
a(S'on'
p5024
g132
F0.9946
tp5025
a(S'the'
p5026
g12
F0.999
tp5027
a(S'passenger'
p5028
g15
F0.8906
tp5029
a(S'side'
p5030
g15
F0.9021
tp5031
a(S'the'
p5032
g12
F0.9985
tp5033
a(S"leather's"
p5034
g15
F0.7824
tp5035
a(S'all'
p5036
g26
F0.6556
tp5037
a(S'like'
p5038
g132
F0.8226
tp5039
a(S'going'
p5040
g6
F0.9957
tp5041
a(S'to'
p5042
g132
F0.9802
tp5043
a(S'shreds'
p5044
g6
F0.7094
tp5045
a(S'xxx'
p5046
g376
F0.4962
tp5047
a(g17
g9
F0.9219
tp5048
asI1486
(lp5049
(S'hey'
p5050
g48
F0.9937
tp5051
a(g439
g9
F0.9841
tp5052
a(g20
g21
F0.972
tp5053
a(g442
g9
F0.9661
tp5054
a(g48
g9
F0.997
tp5055
asI1489
(lp5056
(g20
g21
F0.9387
tp5057
a(S'le(t'
p5058
g6
F0.6796
tp5059
a(g8
g9
F0.9925
tp5060
a(S'me'
p5061
g41
F0.9967
tp5062
a(S'see'
p5063
g6
F0.9665
tp5064
a(g28
g376
F0.4624
tp5065
a(g439
g376
F0.535
tp5066
a(g20
g21
F0.7916
tp5067
a(g442
g9
F0.9861
tp5068
a(g17
g9
F0.9959
tp5069
asI1493
(lp5070
(S'did'
p5071
g6
F0.9986
tp5072
a(S'you'
p5073
g41
F0.9747
tp5074
a(S'vacuum'
p5075
g6
F0.9654
tp5076
a(S'it'
p5077
g41
F0.9768
tp5078
a(g439
g9
F0.9925
tp5079
a(g28
g376
F0.6043
tp5080
a(g442
g9
F0.5753
tp5081
a(g78
g9
F0.996
tp5082
asI1497
(lp5083
(g20
g21
F0.9542
tp5084
a(S'boom'
p5085
g48
F0.322
tp5086
a(S'@o'
p5087
g2002
F0.9982
tp5088
a(g28
g376
F0.4216
tp5089
a(g439
g376
F0.535
tp5090
a(g20
g21
F0.6902
tp5091
a(g442
g9
F0.963
tp5092
a(g48
g9
F0.9969
tp5093
asI1500
(lp5094
(S'he'
p5095
g41
F0.9961
tp5096
a(S'said'
p5097
g6
F0.9999
tp5098
a(S'it'
p5099
g41
F0.9965
tp5100
a(S'was'
p5101
g6
F0.9975
tp5102
a(S'hard'
p5103
g61
F0.6486
tp5104
a(S'getting'
p5105
g6
F0.9831
tp5106
a(S'the'
p5107
g12
F0.9936
tp5108
a(S'xxx'
p5109
g15
F0.7509
tp5110
a(S'out'
p5111
g132
F0.2793
tp5112
a(g17
g9
F0.9977
tp5113
asI1507
(lp5114
(S"let's"
p5115
g3
F0.9813
tp5116
a(S'see'
p5117
g6
F0.9996
tp5118
a(S'yours'
p5119
g41
F0.6799
tp5120
a(g17
g9
F0.9985
tp5121
asI1512
(lp5122
(S'come'
p5123
g6
F0.9897
tp5124
a(S'on'
p5125
g132
F0.8067
tp5126
a(g20
g21
F0.8564
tp5127
a(S"Martha's>"
p5128
g243
F0.8406
tp5129
a(g439
g9
F0.983
tp5130
a(g28
g376
F0.4438
tp5131
a(g442
g9
F0.8456
tp5132
a(S'gonna'
p5133
g6
F0.9977
tp5134
a(S'be'
p5135
g6
F0.9992
tp5136
a(S'here'
p5137
g26
F0.9976
tp5138
a(S'and'
p5139
g250
F0.9984
tp5140
a(S"you're"
p5141
g3
F0.997
tp5142
a(S'not'
p5143
g26
F0.9985
tp5144
a(S'gonna'
p5145
g6
F0.998
tp5146
a(S'be'
p5147
g6
F0.9995
tp5148
a(S'done'
p5149
g6
F0.9371
tp5150
a(S'eatin(g'
p5151
g6
F0.8537
tp5152
a(g8
g9
F0.9917
tp5153
a(S'supper'
p5154
g15
F0.9674
tp5155
a(g17
g9
F0.9983
tp5156
asI1521
(lp5157
(S'no'
p5158
g48
F0.8389
tp5159
a(g439
g9
F0.9936
tp5160
a(g20
g21
F0.972
tp5161
a(g442
g9
F0.9661
tp5162
a(g48
g9
F0.997
tp5163
asI1525
(lp5164
(S'yes'
p5165
g48
F0.9984
tp5166
a(g48
g9
F0.997
tp5167
asI1529
(lp5168
(S'no'
p5169
g48
F0.9005
tp5170
a(S"you're"
p5171
g3
F0.9942
tp5172
a(S'not'
p5173
g26
F0.9967
tp5174
a(g17
g9
F0.996
tp5175
asI1532
(lp5176
(S"I'm"
p5177
g3
F0.9951
tp5178
a(S'gonna'
p5179
g6
F0.9954
tp5180
a(S'beat'
p5181
g6
F0.998
tp5182
a(S'Martha'
p5183
g243
F0.9991
tp5184
a(S'up'
p5185
g545
F0.9162
tp5186
a(g17
g9
F0.9974
tp5187
asI1535
(lp5188
(S'yes'
p5189
g48
F0.9832
tp5190
a(g439
g9
F0.9846
tp5191
a(g28
g376
F0.3811
tp5192
a(g442
g9
F0.551
tp5193
a(g48
g9
F0.997
tp5194
asI1539
(lp5195
(g20
g21
F0.9115
tp5196
a(S"that's"
p5197
g3
F0.9974
tp5198
a(S'not'
p5199
g26
F0.9997
tp5200
a(S'nice'
p5201
g61
F0.9942
tp5202
a(g28
g376
F0.5417
tp5203
a(g439
g376
F0.535
tp5204
a(g20
g21
F0.7057
tp5205
a(g442
g9
F0.9842
tp5206
a(g17
g9
F0.9969
tp5207
asI1544
(lp5208
(S"I'm"
p5209
g3
F0.9951
tp5210
a(S'gonna'
p5211
g6
F0.9954
tp5212
a(S'chop'
p5213
g6
F0.9993
tp5214
a(S'it'
p5215
g41
F0.9894
tp5216
a(S'up'
p5217
g545
F0.9449
tp5218
a(S'and'
p5219
g250
F0.9968
tp5220
a(S'eat'
p5221
g6
F0.9983
tp5222
a(S'it'
p5223
g41
F0.9925
tp5224
a(g17
g9
F0.9991
tp5225
asI1552
(lp5226
(S'when'
p5227
g26
F0.9145
tp5228
a(S'was'
p5229
g6
F0.998
tp5230
a(S'that'
p5231
g41
F0.5051
tp5232
a(S'&-uh'
p5233
g29
F0.4093
tp5234
a(g20
g21
F0.9353
tp5235
a(S'cruise'
p5236
g15
F0.8308
tp5237
a(S'thing'
p5238
g15
F0.9978
tp5239
a(g28
g376
F0.7853
tp5240
a(g439
g376
F0.5345
tp5241
a(g28
g376
F0.949
tp5242
a(g442
g9
F0.6387
tp5243
a(g78
g9
F0.9934
tp5244
asI1556
(lp5245
(S'<<'
p5246
g21
F0.9206
tp5247
a(g183
g41
F0.9968
tp5248
a(g28
g21
F0.2694
tp5249
a(S'[/]'
p5250
g9
F0.2002
tp5251
a(g20
g21
F0.9073
tp5252
a(S'&w'
p5253
g29
F0.5815
tp5254
a(g28
g29
F0.6252
tp5255
a(S'[/]'
p5256
g29
F0.3408
tp5257
a(S'wan'
p5258
g61
F0.6934
tp5259
a(g1330
g9
F0.9703
tp5260
a(S't)a'
p5261
g132
F0.3061
tp5262
a(g28
g376
F0.4949
tp5263
a(g439
g376
F0.535
tp5264
a(g20
g21
F0.8293
tp5265
a(g442
g9
F0.9849
tp5266
a(S'chop'
p5267
g6
F0.9939
tp5268
a(S'it'
p5269
g41
F0.9919
tp5270
a(S'up'
p5271
g545
F0.9449
tp5272
a(S'and'
p5273
g250
F0.9968
tp5274
a(S'eat'
p5275
g6
F0.9986
tp5276
a(S'it'
p5277
g41
F0.9912
tp5278
a(g17
g9
F0.9988
tp5279
asI1561
(lp5280
(S'yeah'
p5281
g48
F0.9994
tp5282
a(g48
g9
F0.9967
tp5283
asI1564
(lp5284
(g20
g21
F0.9328
tp5285
a(S"it's"
p5286
g3
F0.989
tp5287
a(S'this'
p5288
g12
F0.9855
tp5289
a(S'weekend'
p5290
g15
F0.9948
tp5291
a(S"isn't"
p5292
g6
F0.9997
tp5293
a(S'it'
p5294
g41
F0.9981
tp5295
a(g28
g376
F0.4648
tp5296
a(g439
g376
F0.5345
tp5297
a(g28
g376
F0.9577
tp5298
a(g442
g9
F0.6335
tp5299
a(g78
g9
F0.9962
tp5300
asI1569
(lp5301
(S'zzz'
p5302
g29
F0.409
tp5303
a(g439
g9
F0.9451
tp5304
a(g20
g21
F0.972
tp5305
a(g442
g9
F0.9847
tp5306
a(g17
g9
F0.9962
tp5307
asI1573
(lp5308
(S'July'
p5309
g243
F0.9385
tp5310
a(S'fifteenth'
p5311
g61
F0.8887
tp5312
a(g17
g9
F0.9984
tp5313
asI1577
(lp5314
(S'oh'
p5315
g48
F0.9969
tp5316
a(S"it's"
p5317
g3
F0.9914
tp5318
a(S'next'
p5319
g61
F0.9782
tp5320
a(S'weekend'
p5321
g15
F0.9984
tp5322
a(g17
g9
F0.9986
tp5323
asI1580
(lp5324
(S'are'
p5325
g6
F0.9964
tp5326
a(S'you'
p5327
g41
F0.9994
tp5328
a(S'gonna'
p5329
g6
F0.9995
tp5330
a(S'go'
p5331
g6
F0.9889
tp5332
a(g78
g9
F0.9974
tp5333
asI1583
(lp5334
(S'two'
p5335
g316
F0.9854
tp5336
a(S'weekends'
p5337
g15
F0.9962
tp5338
a(g17
g9
F0.9986
tp5339
asI1586
(lp5340
(S'three'
p5341
g316
F0.9606
tp5342
a(S'weekends'
p5343
g15
F0.9954
tp5344
a(g17
g9
F0.9986
tp5345
asI1589
(lp5346
(S'July'
p5347
g243
F0.9509
tp5348
a(S'fifteenth'
p5349
g61
F0.8077
tp5350
a(g439
g9
F0.9851
tp5351
a(g28
g376
F0.5453
tp5352
a(g442
g9
F0.7789
tp5353
a(g17
g9
F0.995
tp5354
asI1592
(lp5355
(g20
g21
F0.9324
tp5356
a(S'two'
p5357
g316
F0.9791
tp5358
a(S'weekends'
p5359
g15
F0.994
tp5360
a(g28
g376
F0.6042
tp5361
a(g439
g376
F0.535
tp5362
a(g20
g21
F0.6902
tp5363
a(g442
g9
F0.9839
tp5364
a(g17
g9
F0.9962
tp5365
asI1595
(lp5366
(g20
g21
F0.9324
tp5367
a(S'two'
p5368
g316
F0.9541
tp5369
a(S'more'
p5370
g61
F0.8918
tp5371
a(S'weeks'
p5372
g15
F0.9931
tp5373
a(g28
g376
F0.6038
tp5374
a(g439
g376
F0.5345
tp5375
a(g28
g376
F0.9732
tp5376
a(g442
g9
F0.8062
tp5377
a(g17
g9
F0.9969
tp5378
asI1598
(lp5379
(g20
g21
F0.9374
tp5380
a(S'no'
p5381
g12
F0.7862
tp5382
a(S'next'
p5383
g15
F0.6105
tp5384
a(g28
g376
F0.4689
tp5385
a(g439
g376
F0.535
tp5386
a(g20
g21
F0.8293
tp5387
a(g442
g9
F0.9815
tp5388
a(S'[///]'
p5389
g9
F0.3213
tp5390
a(S'this'
p5391
g12
F0.9816
tp5392
a(S'weekend'
p5393
g15
F0.9934
tp5394
a(S'comin(g'
p5395
g6
F0.9519
tp5396
a(g8
g9
F0.995
tp5397
a(S'up'
p5398
g545
F0.7505
tp5399
a(S'is'
p5400
g6
F0.9794
tp5401
a(S'July'
p5402
g243
F0.9524
tp5403
a(S'first'
p5404
g61
F0.6663
tp5405
a(g17
g9
F0.9982
tp5406
asI1602
(lp5407
(S'next'
p5408
g61
F0.93
tp5409
a(S'weekend'
p5410
g15
F0.9982
tp5411
a(S'is'
p5412
g6
F0.9965
tp5413
a(S'July'
p5414
g243
F0.945
tp5415
a(S'ninth'
p5416
g61
F0.7355
tp5417
a(g17
g9
F0.9982
tp5418
asI1605
(lp5419
(S'are'
p5420
g6
F0.9964
tp5421
a(S'you'
p5422
g41
F0.9994
tp5423
a(S'gonna'
p5424
g6
F0.9995
tp5425
a(S'go'
p5426
g6
F0.9889
tp5427
a(g78
g9
F0.9974
tp5428
asI1608
(lp5429
(g183
g41
F0.9976
tp5430
a(S"don't"
p5431
g6
F1.0
tp5432
a(S'know'
p5433
g6
F0.9986
tp5434
a(g17
g9
F0.9981
tp5435
asI1611
(lp5436
(g20
g21
F0.9409
tp5437
a(S'Mark'
p5438
g243
F0.9972
tp5439
a(S'said'
p5440
g6
F0.9744
tp5441
a(g28
g9
F0.2661
tp5442
a(S'[//]'
p5443
g29
F0.2427
tp5444
a(S'Mark'
p5445
g243
F0.9917
tp5446
a(S'went'
p5447
g6
F0.9914
tp5448
a(S'on'
p5449
g132
F0.9355
tp5450
a(S'one'
p5451
g316
F0.869
tp5452
a(S'<&-'
p5453
g29
F0.1765
tp5454
a(S'uh'
p5455
g48
F0.6732
tp5456
a(g28
g376
F0.5535
tp5457
a(g439
g376
F0.5345
tp5458
a(g28
g376
F0.9625
tp5459
a(g442
g9
F0.7995
tp5460
a(g17
g9
F0.9972
tp5461
asI1614
(lp5462
(S'when'
p5463
g26
F0.9635
tp5464
a(g439
g9
F0.9766
tp5465
a(g20
g21
F0.972
tp5466
a(g442
g9
F0.974
tp5467
a(g78
g9
F0.9963
tp5468
asI1617
(lp5469
(S'what'
p5470
g41
F0.9962
tp5471
a(S'is'
p5472
g6
F0.9997
tp5473
a(S'it'
p5474
g41
F0.9974
tp5475
a(g78
g9
F0.999
tp5476
asI1621
(lp5477
(S'one'
p5478
g316
F0.9869
tp5479
a(S'of'
p5480
g132
F0.9991
tp5481
a(S'those'
p5482
g12
F0.5457
tp5483
a(S'xxx'
p5484
g376
F0.5733
tp5485
a(g20
g21
F0.8788
tp5486
a(S'called'
p5487
g6
F0.9994
tp5488
a(S'the'
p5489
g12
F0.9864
tp5490
a(g28
g29
F0.2983
tp5491
a(S'[//]'
p5492
g29
F0.2674
tp5493
a(S"it's"
p5494
g3
F0.9956
tp5495
a(S'called'
p5496
g6
F0.9986
tp5497
a(S'the'
p5498
g12
F0.9994
tp5499
a(S'Bud'
p5500
g243
F0.9401
tp5501
a(S'Light'
p5502
g243
F0.8565
tp5503
a(S'&-uh'
p5504
g29
F0.3597
tp5505
a(S'cruise'
p5506
g15
F0.9342
tp5507
a(S'or'
p5508
g250
F0.9906
tp5509
a(S'something'
p5510
g15
F0.9864
tp5511
a(S'like'
p5512
g132
F0.9171
tp5513
a(S'that'
p5514
g132
F0.5112
tp5515
a(S'you'
p5516
g41
F0.9998
tp5517
a(S'know'
p5518
g6
F0.9959
tp5519
a(g439
g9
F0.9861
tp5520
a(g28
g376
F0.5339
tp5521
a(g442
g9
F0.6168
tp5522
a(g78
g9
F0.9944
tp5523
asI1629
(lp5524
(g20
g21
F0.8911
tp5525
a(S'over'
p5526
g132
F0.963
tp5527
a(S'your'
p5528
g12
F0.9907
tp5529
a(S'bowl'
p5530
g15
F0.9995
tp5531
a(g28
g376
F0.628
tp5532
a(g439
g376
F0.535
tp5533
a(g20
g21
F0.7057
tp5534
a(g442
g9
F0.9653
tp5535
a(g48
g9
F0.9975
tp5536
asI1633
(lp5537
(S'yeah'
p5538
g48
F0.9986
tp5539
a(g17
g9
F0.997
tp5540
asI1637
(lp5541
(S'Bud'
p5542
g243
F0.8686
tp5543
a(S'Light'
p5544
g243
F0.8883
tp5545
a(S'sponsors'
p5546
g15
F0.8483
tp5547
a(S'it'
p5548
g41
F0.9611
tp5549
a(g17
g9
F0.9989
tp5550
asI1640
(lp5551
(S'he'
p5552
g41
F0.9961
tp5553
a(S'said'
p5554
g6
F0.9998
tp5555
a(S'that'
p5556
g132
F0.9077
tp5557
a(S'he'
p5558
g41
F0.9981
tp5559
a(S'went'
p5560
g6
F0.9992
tp5561
a(S'on'
p5562
g132
F0.9355
tp5563
a(S'one'
p5564
g316
F0.8298
tp5565
a(S'it'
p5566
g41
F0.9913
tp5567
a(S'was'
p5568
g6
F0.9981
tp5569
a(S'pretty'
p5570
g26
F0.9929
tp5571
a(S'good'
p5572
g61
F0.9985
tp5573
a(S'he'
p5574
g41
F0.9931
tp5575
a(S'saw'
p5576
g6
F0.9977
tp5577
a(S'Beatlemania'
p5578
g243
F0.9989
tp5579
a(g17
g9
F0.9962
tp5580
asI1646
(lp5581
(S'Jasmine'
p5582
g243
F0.973
tp5583
a(S'+/'
p5584
g243
F0.7385
tp5585
a(g17
g9
F0.9934
tp5586
asI1649
(lp5587
(S'ahhah'
p5588
g48
F0.9994
tp5589
a(g48
g9
F0.9965
tp5590
asI1652
(lp5591
(S"Jasmine's"
p5592
g518
F0.7756
tp5593
a(S'gonna'
p5594
g6
F0.986
tp5595
a(S'be'
p5596
g6
F0.9995
tp5597
a(S'on'
p5598
g132
F0.9827
tp5599
a(S'it'
p5600
g41
F0.9974
tp5601
a(g17
g9
F0.9986
tp5602
asI1655
(lp5603
(S'yeah'
p5604
g48
F0.9958
tp5605
a(S'he'
p5606
g41
F0.9981
tp5607
a(S'said'
p5608
g6
F0.9999
tp5609
a(S'it'
p5610
g41
F0.9962
tp5611
a(S'was'
p5612
g6
F0.9981
tp5613
a(S'pretty'
p5614
g26
F0.9933
tp5615
a(S'good'
p5616
g61
F0.9994
tp5617
a(g17
g9
F0.9984
tp5618
asI1659
(lp5619
(S'no'
p5620
g48
F0.9847
tp5621
a(g48
g9
F0.999
tp5622
asI1663
(lp5623
(S'no'
p5624
g48
F0.9847
tp5625
a(g48
g9
F0.999
tp5626
asI1667
(lp5627
(S'they'
p5628
g41
F0.9792
tp5629
a(g20
g21
F0.6417
tp5630
a(S'had'
p5631
g6
F0.9985
tp5632
a(g142
g12
F0.9811
tp5633
a(S'&-uh'
p5634
g29
F0.4685
tp5635
a(S'they'
p5636
g41
F0.9961
tp5637
a(S'had'
p5638
g6
F0.9999
tp5639
a(S'the'
p5640
g12
F0.9887
tp5641
a(g28
g376
F0.2024
tp5642
a(g439
g376
F0.5345
tp5643
a(g28
g376
F0.9532
tp5644
a(g442
g9
F0.808
tp5645
a(S'live'
p5646
g61
F0.5937
tp5647
a(S'band'
p5648
g15
F0.9973
tp5649
a(S'upstairs'
p5650
g15
F0.7278
tp5651
a(S'and'
p5652
g250
F0.9889
tp5653
a(S'the'
p5654
g12
F0.9988
tp5655
a(S'disc'
p5656
g15
F0.9904
tp5657
a(S'jockey'
p5658
g15
F0.9913
tp5659
a(S'downstairs'
p5660
g15
F0.9206
tp5661
a(g17
g9
F0.9969
tp5662
asI1674
(lp5663
(g20
g21
F0.97
tp5664
a(S'xxx'
p5665
g376
F0.3714
tp5666
a(S'this'
p5667
g12
F0.9768
tp5668
a(S'thing'
p5669
g15
F0.9984
tp5670
a(S'[='
p5671
g376
F0.9816
tp5672
a(S'taperecorder'
p5673
g15
F0.3613
tp5674
a(g78
g9
F0.9881
tp5675
a(g442
g9
F0.9212
tp5676
a(S'talk'
p5677
g6
F0.8995
tp5678
a(g28
g376
F0.4605
tp5679
a(g439
g376
F0.535
tp5680
a(g20
g21
F0.8058
tp5681
a(g442
g9
F0.9681
tp5682
a(g78
g9
F0.9977
tp5683
asI1678
(lp5684
(S'yeah'
p5685
g48
F0.9988
tp5686
a(g78
g9
F0.9966
tp5687
asI1682
(lp5688
(S'he'
p5689
g41
F0.9961
tp5690
a(S'said'
p5691
g6
F0.9999
tp5692
a(S'it'
p5693
g41
F0.9965
tp5694
a(S'was'
p5695
g6
F0.9977
tp5696
a(S'well'
p5697
g26
F0.9756
tp5698
a(S'worth'
p5699
g61
F0.5465
tp5700
a(S'the'
p5701
g12
F0.999
tp5702
a(S'money'
p5703
g15
F0.9989
tp5704
a(g17
g9
F0.9988
tp5705
asI1687
(lp5706
(g183
g41
F0.9982
tp5707
a(S'told'
p5708
g6
F1.0
tp5709
a(S'him'
p5710
g41
F0.9793
tp5711
a(S'you'
p5712
g41
F0.9988
tp5713
a(S'know'
p5714
g6
F0.9997
tp5715
a(S'that'
p5716
g132
F0.7456
tp5717
a(S'it'
p5718
g41
F0.9992
tp5719
a(S'was'
p5720
g6
F0.9988
tp5721
a(S'twelve'
p5722
g316
F0.7798
tp5723
a(S'bucks'
p5724
g15
F0.8328
tp5725
a(S'+/'
p5726
g15
F0.3286
tp5727
a(g17
g9
F0.9967
tp5728
asI1695
(lp5729
(S'Eric'
p5730
g243
F0.9981
tp5731
a(S'where'
p5732
g26
F0.9255
tp5733
a(S'are'
p5734
g6
F0.9898
tp5735
a(S'you'
p5736
g41
F0.9995
tp5737
a(S'goin(g'
p5738
g6
F0.9888
tp5739
a(g8
g9
F0.9817
tp5740
a(g78
g9
F0.9965
tp5741
asI1700
(lp5742
(S"I'm"
p5743
g3
F0.997
tp5744
a(S'goin(g'
p5745
g6
F0.7126
tp5746
a(g8
g9
F0.9926
tp5747
a(S'potty'
p5748
g61
F0.7756
tp5749
a(g17
g9
F0.9985
tp5750
asI1703
(lp5751
(S'xxx'
p5752
g376
F0.5822
tp5753
a(g17
g9
F0.9648
tp5754
asI1704
(lp5755
(g183
g41
F0.9972
tp5756
a(S'fell'
p5757
g6
F0.9806
tp5758
a(g17
g9
F0.9981
tp5759
asI1708
(lp5760
(S'you'
p5761
g41
F0.998
tp5762
a(S'got'
p5763
g6
F0.9993
tp5764
a(S'ta'
p5765
g132
F0.9645
tp5766
a(S'eat'
p5767
g6
F0.9853
tp5768
a(S'some'
p5769
g12
F0.9939
tp5770
a(S'soup'
p5771
g15
F0.9916
tp5772
a(g17
g9
F0.9985
tp5773
asI1711
(lp5774
(S'ow'
p5775
g48
F0.9868
tp5776
a(g48
g9
F0.9967
tp5777
asI1714
(lp5778
(S'ow'
p5779
g48
F0.9868
tp5780
a(g48
g9
F0.9967
tp5781
asI1717
(lp5782
(S'you'
p5783
g41
F0.9646
tp5784
a(S'alright'
p5785
g48
F0.6315
tp5786
a(g78
g9
F0.9976
tp5787
asI1721
(lp5788
(g183
g41
F0.9978
tp5789
a(S'bumped'
p5790
g6
F0.9999
tp5791
a(S'my'
p5792
g12
F0.9989
tp5793
a(S'head'
p5794
g15
F0.9983
tp5795
a(g48
g9
F0.999
tp5796
asI1725
(lp5797
(S'come'
p5798
g6
F0.929
tp5799
a(g1330
g9
F0.9932
tp5800
a(S'h)ere'
p5801
g26
F0.4818
tp5802
a(g17
g9
F0.9985
tp5803
asI1728
(lp5804
(S'you'
p5805
g41
F0.9966
tp5806
a(S'see'
p5807
g6
F0.9994
tp5808
a(S'the'
p5809
g12
F0.998
tp5810
a(S'cut'
p5811
g15
F0.999
tp5812
a(g17
g9
F0.9989
tp5813
asI1731
(lp5814
(S"you're"
p5815
g3
F0.9854
tp5816
a(S'fine'
p5817
g61
F0.9917
tp5818
a(g17
g9
F0.9984
tp5819
asI1734
(lp5820
(S'go'
p5821
g6
F0.955
tp5822
a(S'potty'
p5823
g61
F0.7073
tp5824
a(g439
g9
F0.9824
tp5825
a(g28
g376
F0.5453
tp5826
a(g442
g9
F0.7789
tp5827
a(g17
g9
F0.995
tp5828
asI1737
(lp5829
(g20
g21
F0.9171
tp5830
a(S'it'
p5831
g41
F0.9967
tp5832
a(S'hurts'
p5833
g6
F0.9953
tp5834
a(g28
g376
F0.5793
tp5835
a(g439
g376
F0.535
tp5836
a(g20
g21
F0.6902
tp5837
a(g442
g9
F0.9839
tp5838
a(g17
g9
F0.9962
tp5839
asI1740
(lp5840
(S'go'
p5841
g6
F0.9491
tp5842
a(S'potty'
p5843
g61
F0.7947
tp5844
a(g17
g9
F0.9982
tp5845
asI1743
(lp5846
(S'but'
p5847
g250
F0.9965
tp5848
a(g183
g41
F0.9982
tp5849
a(S'xxx'
p5850
g6
F0.7179
tp5851
a(g17
g9
F0.9977
tp5852
asI1747
(lp5853
(S"it's"
p5854
g3
F0.9936
tp5855
a(S'all'
p5856
g12
F0.8268
tp5857
a(S'filled'
p5858
g6
F0.5613
tp5859
a(g17
g9
F0.9983
tp5860
asI1751
(lp5861
(S"that's"
p5862
g3
F0.9932
tp5863
a(S'because'
p5864
g132
F0.9963
tp5865
a(S'you'
p5866
g41
F0.9998
tp5867
a(S'kept'
p5868
g6
F0.9996
tp5869
a(S'drinkin(g'
p5870
g15
F0.4918
tp5871
a(g8
g9
F0.9837
tp5872
a(S'your'
p5873
g12
F0.9589
tp5874
a(S'milk'
p5875
g15
F0.9995
tp5876
a(g17
g9
F0.9989
tp5877
asI1757
(lp5878
(S'go'
p5879
g6
F0.9861
tp5880
a(S'to'
p5881
g132
F0.9977
tp5882
a(S'your'
p5883
g12
F0.979
tp5884
a(S'room'
p5885
g15
F0.9993
tp5886
a(g17
g9
F0.9989
tp5887
asI1760
(lp5888
(S'xxx'
p5889
g376
F0.5609
tp5890
a(S'to'
p5891
g132
F0.9968
tp5892
a(S'make'
p5893
g6
F0.9954
tp5894
a(S'Mommy'
p5895
g15
F0.6679
tp5896
a(S'happy'
p5897
g61
F0.8935
tp5898
a(S'again'
p5899
g26
F0.9789
tp5900
a(S'please'
p5901
g6
F0.9393
tp5902
a(g17
g9
F0.9981
tp5903
asI1765
(lp5904
(S'feel'
p5905
g6
F0.9953
tp5906
a(S'my'
p5907
g12
F0.9976
tp5908
a(S'stomach'
p5909
g15
F0.9994
tp5910
a(g17
g9
F0.9984
tp5911
asI1769
(lp5912
(g20
g21
F0.9128
tp5913
a(S'would'
p5914
g6
F0.9994
tp5915
a(S'you'
p5916
g41
F0.9983
tp5917
a(g28
g9
F0.5218
tp5918
a(S'[/]'
p5919
g9
F0.2807
tp5920
a(S'would'
p5921
g6
F0.9996
tp5922
a(S'you'
p5923
g41
F0.9977
tp5924
a(g20
g21
F0.9379
tp5925
a(S'xxx'
p5926
g6
F0.5867
tp5927
a(S'me'
p5928
g41
F0.9983
tp5929
a(S'up'
p5930
g545
F0.9606
tp5931
a(g28
g376
F0.4659
tp5932
a(g439
g376
F0.5345
tp5933
a(g28
g376
F0.9625
tp5934
a(g442
g9
F0.6401
tp5935
a(g78
g9
F0.9971
tp5936
asI1774
(lp5937
(g20
g21
F0.9261
tp5938
a(S'Mom'
p5939
g15
F0.7162
tp5940
a(S'feel'
p5941
g6
F0.9973
tp5942
a(S'my'
p5943
g12
F0.9983
tp5944
a(S'stomach'
p5945
g15
F0.998
tp5946
a(g28
g376
F0.6662
tp5947
a(g439
g376
F0.535
tp5948
a(g20
g21
F0.7916
tp5949
a(g442
g9
F0.9861
tp5950
a(g17
g9
F0.9959
tp5951
asI1777
(lp5952
(g183
g41
F0.9984
tp5953
a(S'know'
p5954
g6
F0.9995
tp5955
a(S"it's"
p5956
g3
F0.9974
tp5957
a(S'fat'
p5958
g61
F0.987
tp5959
a(g17
g9
F0.9987
tp5960
asI1781
(lp5961
(S'yeah'
p5962
g48
F0.9962
tp5963
a(S'but'
p5964
g250
F0.9924
tp5965
a(S'my'
p5966
g12
F0.9945
tp5967
a(S'bum'
p5968
g15
F0.9983
tp5969
a(S'is'
p5970
g6
F0.998
tp5971
a(S'+/'
p5972
g243
F0.2845
tp5973
a(g17
g9
F0.9933
tp5974
asI1784
(lp5975
(S'wow'
p5976
g48
F0.9986
tp5977
a(g48
g9
F0.9956
tp5978
asI1787
(lp5979
(S"Nikki's"
p5980
g518
F0.7917
tp5981
a(g20
g21
F0.5812
tp5982
a(S'beatin(g'
p5983
g6
F0.9169
tp5984
a(g8
g9
F0.9777
tp5985
a(g28
g376
F0.5093
tp5986
a(g439
g376
F0.5345
tp5987
a(g28
g376
F0.9732
tp5988
a(g442
g9
F0.8062
tp5989
a(g17
g9
F0.9969
tp5990
asI1790
(lp5991
(g20
g21
F0.9128
tp5992
a(S'would'
p5993
g6
F0.9994
tp5994
a(S'you'
p5995
g41
F0.9983
tp5996
a(g28
g376
F0.3835
tp5997
a(g439
g376
F0.535
tp5998
a(g20
g21
F0.8293
tp5999
a(g442
g9
F0.9852
tp6000
a(S'help'
p6001
g6
F0.9605
tp6002
a(S'once'
p6003
g26
F0.9771
tp6004
a(g78
g9
F0.9983
tp6005
asI1795
(lp6006
(S"Nikki's"
p6007
g518
F0.7133
tp6008
a(S'beatin(g'
p6009
g6
F0.7651
tp6010
a(g8
g9
F0.9934
tp6011
a(S'you'
p6012
g41
F0.9846
tp6013
a(S'Eric'
p6014
g243
F0.9986
tp6015
a(g17
g9
F0.9931
tp6016
asI1799
(lp6017
(S'xxx'
p6018
g376
F0.5822
tp6019
a(g17
g9
F0.9648
tp6020
asI1800
(lp6021
(S'probably'
p6022
g26
F0.9975
tp6023
a(g17
g9
F0.9963
tp6024
asI1803
(lp6025
(g183
g41
F0.9982
tp6026
a(S'think'
p6027
g6
F0.9997
tp6028
a(S"it's"
p6029
g3
F0.9982
tp6030
a(S'+/'
p6031
g243
F0.2679
tp6032
a(g17
g9
F0.9942
tp6033
asI1806
(lp6034
(S'pull'
p6035
g6
F0.9809
tp6036
a(S'your'
p6037
g12
F0.9968
tp6038
a(S'pants'
p6039
g15
F0.9985
tp6040
a(S'up'
p6041
g132
F0.712
tp6042
a(S'please'
p6043
g6
F0.9559
tp6044
a(g17
g9
F0.9975
tp6045
asI1809
(lp6046
(S'you'
p6047
g41
F0.9968
tp6048
a(S'should'
p6049
g6
F0.9997
tp6050
a(S'do'
p6051
g6
F0.9999
tp6052
a(S'that'
p6053
g41
F0.7806
tp6054
a(S'in'
p6055
g132
F0.9928
tp6056
a(S'the'
p6057
g12
F0.999
tp6058
a(S'bath+room'
p6059
g15
F0.9985
tp6060
a(g17
g9
F0.999
tp6061
asI1813
(lp6062
(S'stop'
p6063
g6
F0.9902
tp6064
a(S'it'
p6065
g41
F0.9872
tp6066
a(g17
g9
F0.9987
tp6067
asI1816
(lp6068
(S'now'
p6069
g26
F0.9966
tp6070
a(S'go'
p6071
g6
F0.9894
tp6072
a(S'finish'
p6073
g6
F0.992
tp6074
a(S'your'
p6075
g12
F0.9923
tp6076
a(S'soup'
p6077
g15
F0.998
tp6078
a(g17
g9
F0.9982
tp6079
asI1819
(lp6080
(S"Nikki's"
p6081
g518
F0.7133
tp6082
a(S'beatin(g'
p6083
g6
F0.7651
tp6084
a(g8
g9
F0.9934
tp6085
a(S'you'
p6086
g41
F0.9939
tp6087
a(S'and'
p6088
g250
F0.9955
tp6089
a(S"she's"
p6090
g3
F0.9645
tp6091
a(S'littler'
p6092
g61
F0.787
tp6093
a(S'than'
p6094
g132
F0.997
tp6095
a(S'you'
p6096
g41
F0.9995
tp6097
a(g17
g9
F0.9994
tp6098
asI1824
(lp6099
(S'zzz'
p6100
g48
F0.3756
tp6101
a(g17
g9
F0.9972
tp6102
asI1828
(lp6103
(S'she'
p6104
g41
F0.991
tp6105
a(S"ain't"
p6106
g6
F0.9727
tp6107
a(g48
g9
F0.997
tp6108
asI1831
(lp6109
(S'yeah'
p6110
g48
F0.996
tp6111
a(S'she'
p6112
g41
F0.9994
tp6113
a(S'is'
p6114
g6
F0.9994
tp6115
a(g17
g9
F0.9979
tp6116
asI1834
(lp6117
(S'look_it'
p6118
g15
F0.7233
tp6119
a(g48
g9
F0.9982
tp6120
asI1838
(lp6121
(S'over'
p6122
g132
F0.9556
tp6123
a(S'your'
p6124
g12
F0.9906
tp6125
a(S'bowl'
p6126
g15
F0.9998
tp6127
a(g48
g9
F0.9992
tp6128
asI1842
(lp6129
(g20
g21
F0.9526
tp6130
a(g183
g41
F0.9984
tp6131
a(S'can'
p6132
g6
F0.9998
tp6133
a(g28
g29
F0.2468
tp6134
a(S'[/]'
p6135
g29
F0.3115
tp6136
a(g183
g41
F0.997
tp6137
a(S'can'
p6138
g6
F0.9999
tp6139
a(S'eat'
p6140
g6
F0.9979
tp6141
a(S'faster'
p6142
g26
F0.5501
tp6143
a(S'than'
p6144
g132
F0.9978
tp6145
a(S'her'
p6146
g41
F0.963
tp6147
a(g17
g9
F0.9972
tp6148
asI1846
(lp6149
(S'uhuh'
p6150
g48
F0.9924
tp6151
a(g17
g9
F0.9962
tp6152
asI1849
(lp6153
(S'Eric'
p6154
g243
F0.999
tp6155
a(S'sit'
p6156
g6
F0.9906
tp6157
a(S'down'
p6158
g545
F0.9101
tp6159
a(g17
g9
F0.9981
tp6160
asI1852
(lp6161
(S'the'
p6162
g12
F0.9947
tp6163
a(S'right'
p6164
g61
F0.955
tp6165
a(S'way'
p6166
g15
F0.9843
tp6167
a(g17
g9
F0.9985
tp6168
asI1855
(lp6169
(S'move'
p6170
g6
F0.951
tp6171
a(S'your'
p6172
g12
F0.9849
tp6173
a(S'milk'
p6174
g15
F0.9996
tp6175
a(S'out'
p6176
g132
F0.9553
tp6177
a(S'of'
p6178
g132
F0.9984
tp6179
a(S'the'
p6180
g12
F0.9993
tp6181
a(S'way'
p6182
g15
F0.9882
tp6183
a(g17
g9
F0.9986
tp6184
asI1859
(lp6185
(S'move'
p6186
g6
F0.951
tp6187
a(S'your'
p6188
g12
F0.9849
tp6189
a(S'milk'
p6190
g15
F0.9996
tp6191
a(S'out'
p6192
g132
F0.9553
tp6193
a(S'of'
p6194
g132
F0.9984
tp6195
a(S'the'
p6196
g12
F0.9993
tp6197
a(S'way'
p6198
g15
F0.9794
tp6199
a(g48
g9
F0.9989
tp6200
asI1863
(lp6201
(S"don't"
p6202
g6
F0.9991
tp6203
a(S'yell'
p6204
g6
F0.9828
tp6205
a(g17
g9
F0.9969
tp6206
asI1866
(lp6207
(S'xxx'
p6208
g376
F0.8981
tp6209
a(g439
g9
F0.661
tp6210
a(g28
g376
F0.3811
tp6211
a(g442
g9
F0.7604
tp6212
a(g17
g9
F0.9962
tp6213
asI1868
(lp6214
(g20
g21
F0.9511
tp6215
a(S'Nikki'
p6216
g243
F0.9994
tp6217
a(g28
g243
F0.3094
tp6218
a(g439
g9
F0.9714
tp6219
a(g20
g21
F0.9635
tp6220
a(g442
g9
F0.9888
tp6221
a(S'you'
p6222
g41
F0.9971
tp6223
a(S'can'
p6224
g6
F0.9995
tp6225
a(S'get'
p6226
g6
F0.9999
tp6227
a(S'that'
p6228
g41
F0.8759
tp6229
a(S'over'
p6230
g132
F0.6061
tp6231
a(S'here'
p6232
g26
F0.9749
tp6233
a(S'so'
p6234
g132
F0.5728
tp6235
a(g183
g41
F0.999
tp6236
a(S'can'
p6237
g6
F0.9999
tp6238
a(S'see'
p6239
g6
F0.9998
tp6240
a(S'it'
p6241
g41
F0.8496
tp6242
a(g78
g9
F0.9992
tp6243
asI1875
(lp6244
(S'no'
p6245
g48
F0.9847
tp6246
a(g48
g9
F0.999
tp6247
asI1878
(lp6248
(S'you'
p6249
g41
F0.9969
tp6250
a(S'can'
p6251
g6
F0.9998
tp6252
a(S'eat'
p6253
g6
F0.9997
tp6254
a(S'your'
p6255
g12
F0.994
tp6256
a(S'supper'
p6257
g15
F0.9976
tp6258
a(g17
g9
F0.9982
tp6259
asI1882
(lp6260
(S'nima'
p6261
g48
F0.4582
tp6262
a(S'@b'
p6263
g2002
F0.9944
tp6264
a(g17
g9
F0.9949
tp6265
asI1885
(lp6266
(S'Mommy'
p6267
g243
F0.4716
tp6268
a(S'nima'
p6269
g29
F0.5403
tp6270
a(S'@b'
p6271
g2002
F0.9946
tp6272
a(g78
g9
F0.9957
tp6273
asI1889
(lp6274
(S'eat'
p6275
g6
F0.9835
tp6276
a(S'over'
p6277
g132
F0.9506
tp6278
a(S'the'
p6279
g12
F0.9992
tp6280
a(S'bowl'
p6281
g15
F0.9974
tp6282
a(S"I'll"
p6283
g3
F0.987
tp6284
a(S'clean'
p6285
g6
F0.9442
tp6286
a(S'it'
p6287
g41
F0.9885
tp6288
a(S'up'
p6289
g545
F0.9337
tp6290
a(S'after'
p6291
g132
F0.6
tp6292
a(g17
g9
F0.9959
tp6293
asI1895
(lp6294
(S'xxx'
p6295
g376
F0.6398
tp6296
a(S'this'
p6297
g41
F0.8216
tp6298
a(g78
g9
F0.998
tp6299
asI1898
(lp6300
(S'eat'
p6301
g6
F0.7998
tp6302
a(S'please'
p6303
g6
F0.8934
tp6304
a(g17
g9
F0.9979
tp6305
asI1901
(lp6306
(S'&-um'
p6307
g48
F0.9446
tp6308
a(S"I'm"
p6309
g3
F0.9979
tp6310
a(S'almost'
p6311
g26
F0.995
tp6312
a(S'beatin(g'
p6313
g6
F0.9828
tp6314
a(g8
g9
F0.9954
tp6315
a(S'her'
p6316
g41
F0.6926
tp6317
a(S'too'
p6318
g26
F0.9936
tp6319
a(g17
g9
F0.9972
tp6320
asI1905
(lp6321
(S'uhuh'
p6322
g48
F0.9924
tp6323
a(g17
g9
F0.9962
tp6324
asI1908
(lp6325
(S'xxx'
p6326
g376
F0.8981
tp6327
a(g439
g9
F0.661
tp6328
a(g28
g376
F0.3811
tp6329
a(g442
g9
F0.7604
tp6330
a(g17
g9
F0.9962
tp6331
asI1909
(lp6332
(g20
g21
F0.8911
tp6333
a(S'over'
p6334
g132
F0.963
tp6335
a(S'your'
p6336
g12
F0.9907
tp6337
a(S'bowl'
p6338
g15
F0.9995
tp6339
a(g28
g376
F0.628
tp6340
a(g439
g376
F0.535
tp6341
a(g20
g21
F0.7057
tp6342
a(g442
g9
F0.9842
tp6343
a(g17
g9
F0.9969
tp6344
asI1912
(lp6345
(S'how'
p6346
g26
F0.9945
tp6347
a(S'many'
p6348
g61
F0.9818
tp6349
a(S'times'
p6350
g15
F0.992
tp6351
a(S'do'
p6352
g6
F0.9882
tp6353
a(g183
g41
F0.9993
tp6354
a(S'have_to'
p6355
g6
F0.9997
tp6356
a(S'tell'
p6357
g6
F0.9992
tp6358
a(S'you'
p6359
g41
F0.999
tp6360
a(g78
g9
F0.9995
tp6361
asI1917
(lp6362
(S'over'
p6363
g132
F0.9556
tp6364
a(S'your'
p6365
g12
F0.9906
tp6366
a(S'bowl'
p6367
g15
F0.9998
tp6368
a(g48
g9
F0.9992
tp6369
asI1921
(lp6370
(S'hm'
p6371
g48
F0.9811
tp6372
a(g753
g9
F0.8492
tp6373
a(g48
g9
F0.9917
tp6374
asI1924
(lp6375
(g20
g21
F0.9117
tp6376
a(S"I'm"
p6377
g3
F0.995
tp6378
a(S'makin(g'
p6379
g6
F0.9151
tp6380
a(g8
g9
F0.9738
tp6381
a(S'xxx'
p6382
g376
F0.7912
tp6383
a(g28
g376
F0.9474
tp6384
a(g439
g376
F0.5345
tp6385
a(g28
g376
F0.9555
tp6386
a(g442
g9
F0.8291
tp6387
a(g17
g9
F0.9959
tp6388
asI1927
(lp6389
(g20
g21
F0.925
tp6390
a(S'we'
p6391
g41
F0.9959
tp6392
a(S'make'
p6393
g6
F0.9994
tp6394
a(g142
g12
F0.9962
tp6395
a(S'nice'
p6396
g61
F0.9898
tp6397
a(g28
g376
F0.5417
tp6398
a(g439
g376
F0.535
tp6399
a(g20
g21
F0.8293
tp6400
a(g442
g9
F0.9779
tp6401
a(S'car'
p6402
g15
F0.9613
tp6403
a(S'right'
p6404
g26
F0.3681
tp6405
a(g439
g9
F0.9891
tp6406
a(g28
g376
F0.4371
tp6407
a(g442
g9
F0.7576
tp6408
a(g78
g9
F0.9957
tp6409
asI1931
(lp6410
(S'huh'
p6411
g48
F0.9724
tp6412
a(g439
g9
F0.9856
tp6413
a(g20
g21
F0.972
tp6414
a(g442
g9
F0.974
tp6415
a(g78
g9
F0.9963
tp6416
asI1935
(lp6417
(S'we'
p6418
g41
F0.9958
tp6419
a(S'make'
p6420
g6
F0.9995
tp6421
a(g142
g12
F0.9957
tp6422
a(S'nice'
p6423
g61
F0.9978
tp6424
a(S'car'
p6425
g15
F0.994
tp6426
a(S'right'
p6427
g26
F0.4798
tp6428
a(g78
g9
F0.9986
tp6429
asI1939
(lp6430
(S'zzz'
p6431
g48
F0.3756
tp6432
a(g17
g9
F0.9972
tp6433
asI1943
(lp6434
(S'eat'
p6435
g6
F0.7998
tp6436
a(S'please'
p6437
g6
F0.8934
tp6438
a(g17
g9
F0.9979
tp6439
asI1946
(lp6440
(S"that's"
p6441
g3
F0.9874
tp6442
a(S'alright'
p6443
g48
F0.5457
tp6444
a(g17
g9
F0.9978
tp6445
asI1949
(lp6446
(S'what'
p6447
g41
F0.756
tp6448
a(S'car'
p6449
g15
F0.998
tp6450
a(g78
g9
F0.9978
tp6451
asI1952
(lp6452
(S'my'
p6453
g12
F0.9977
tp6454
a(S"mama's"
p6455
S'S'
p6456
F0.6235
tp6457
a(S'car'
p6458
g15
F0.9974
tp6459
a(g17
g9
F0.9983
tp6460
asI1955
(lp6461
(S'and'
p6462
g250
F0.9985
tp6463
a(g20
g21
F0.7327
tp6464
a(S'whose'
p6465
g3
F0.6804
tp6466
a(S'c(ar)'
p6467
g15
F0.8974
tp6468
a(g28
g29
F0.3047
tp6469
a(S'[//]'
p6470
g29
F0.2772
tp6471
a(S'whose'
p6472
g3
F0.5384
tp6473
a(S'truck'
p6474
g15
F0.9854
tp6475
a(g78
g9
F0.9986
tp6476
asI1958
(lp6477
(S'Eric'
p6478
g243
F0.9973
tp6479
a(g48
g9
F0.9903
tp6480
asI1962
(lp6481
(S"you're"
p6482
g3
F0.9894
tp6483
a(S'gonna'
p6484
g6
F0.9904
tp6485
a(S'spill'
p6486
g6
F0.9928
tp6487
a(S'your'
p6488
g12
F0.9858
tp6489
a(S'soup'
p6490
g15
F0.9969
tp6491
a(S'please'
p6492
g6
F0.9774
tp6493
a(S'eat'
p6494
g6
F0.965
tp6495
a(S'(.)'
p6496
g243
F0.3483
tp6497
a(g48
g9
F0.9929
tp6498
asI1967
(lp6499
(S'no'
p6500
g48
F0.9847
tp6501
a(g48
g9
F0.999
tp6502
asI1970
(lp6503
(S'eat'
p6504
g6
F0.99
tp6505
a(S'your'
p6506
g12
F0.9928
tp6507
a(S'soup'
p6508
g15
F0.999
tp6509
a(g48
g9
F0.9989
tp6510
asI1975
(lp6511
(S"that's"
p6512
g3
F0.9924
tp6513
a(S'why'
p6514
g26
F0.938
tp6515
a(S"you're"
p6516
g3
F0.9869
tp6517
a(S'gettin(g'
p6518
g6
F0.9708
tp6519
a(g8
g9
F0.9912
tp6520
a(S'filled'
p6521
g6
F0.9974
tp6522
a(S'up'
p6523
g545
F0.9251
tp6524
a(S'and'
p6525
g250
F0.9977
tp6526
a(S"can't"
p6527
g6
F0.9989
tp6528
a(S'eat'
p6529
g6
F0.9998
tp6530
a(S'your'
p6531
g12
F0.9944
tp6532
a(S'supper'
p6533
g15
F0.9982
tp6534
a(g17
g9
F0.9983
tp6535
asI1983
(lp6536
(S'oh'
p6537
g48
F0.9878
tp6538
a(S'you'
p6539
g41
F0.9376
tp6540
a(S'rotten'
p6541
g61
F0.9202
tp6542
a(S'egg'
p6543
g15
F0.9985
tp6544
a(g48
g9
F0.999
tp6545
asI1987
(lp6546
(S'right'
p6547
g48
F0.7089
tp6548
a(S"I'm"
p6549
g3
F0.9941
tp6550
a(S'gonna'
p6551
g6
F0.9963
tp6552
a(S'be'
p6553
g6
F0.9996
tp6554
a(S'in'
p6555
g132
F0.9622
tp6556
a(g142
g12
F0.9979
tp6557
a(S'rotten'
p6558
g61
F0.9821
tp6559
a(S'egg'
p6560
g15
F0.992
tp6561
a(S'right'
p6562
g26
F0.5617
tp6563
a(g78
g9
F0.9985
tp6564
asI1993
(lp6565
(S'no'
p6566
g48
F0.9005
tp6567
a(S"you're"
p6568
g3
F0.9945
tp6569
a(S'not'
p6570
g26
F0.9985
tp6571
a(S'gonna'
p6572
g6
F0.9979
tp6573
a(S'be'
p6574
g6
F0.9998
tp6575
a(g142
g12
F0.9894
tp6576
a(S'rotten'
p6577
g61
F0.9821
tp6578
a(S'egg'
p6579
g15
F0.9921
tp6580
a(S"Eric's"
p6581
g518
F0.6345
tp6582
a(S'gonna'
p6583
g6
F0.9895
tp6584
a(S'be'
p6585
g6
F0.9998
tp6586
a(g142
g12
F0.9894
tp6587
a(S'rotten'
p6588
g61
F0.9787
tp6589
a(S'egg'
p6590
g15
F0.9981
tp6591
a(g17
g9
F0.9984
tp6592
asI2000
(lp6593
(S'no'
p6594
g48
F0.9847
tp6595
a(g48
g9
F0.999
tp6596
asI2003
(lp6597
(S"I'm"
p6598
g3
F0.9951
tp6599
a(S'gonna'
p6600
g6
F0.9956
tp6601
a(S'be'
p6602
g6
F0.9998
tp6603
a(g142
g12
F0.9893
tp6604
a(S'rotten'
p6605
g61
F0.9795
tp6606
a(S'egg'
p6607
g15
F0.9977
tp6608
a(g17
g9
F0.9983
tp6609
asI2007
(lp6610
(S'no'
p6611
g48
F0.9847
tp6612
a(g48
g9
F0.999
tp6613
asI2010
(lp6614
(S"you're"
p6615
g3
F0.9894
tp6616
a(S'gonna'
p6617
g6
F0.9945
tp6618
a(S'win'
p6619
g6
F0.989
tp6620
a(g17
g9
F0.9983
tp6621
asI2013
(lp6622
(S"he's"
p6623
g3
F0.9893
tp6624
a(S'gonna'
p6625
g6
F0.9937
tp6626
a(S'be'
p6627
g6
F0.9998
tp6628
a(S'the'
p6629
g12
F0.997
tp6630
a(S'rotten'
p6631
g61
F0.8996
tp6632
a(S'egg'
p6633
g15
F0.9977
tp6634
a(g17
g9
F0.9983
tp6635
asI2018
(lp6636
(S"I'm"
p6637
g3
F0.9951
tp6638
a(S'gonna'
p6639
g6
F0.9921
tp6640
a(S'win'
p6641
g6
F0.9887
tp6642
a(g78
g9
F0.9979
tp6643
asI2021
(lp6644
(S'&-uh'
p6645
g48
F0.9317
tp6646
a(S'huh'
p6647
g48
F0.995
tp6648
a(g17
g9
F0.9977
tp6649
asI2024
(lp6650
(S"Eric's"
p6651
g518
F0.6326
tp6652
a(S'gonna'
p6653
g6
F0.9897
tp6654
a(S'be'
p6655
g6
F0.9998
tp6656
a(g142
g12
F0.9893
tp6657
a(S'rotten'
p6658
g61
F0.9795
tp6659
a(S'egg'
p6660
g15
F0.9964
tp6661
a(g78
g9
F0.9979
tp6662
asI2028
(lp6663
(S'rotten['
p6664
g61
F0.8428
tp6665
a(g48
g9
F0.9953
tp6666
a(g442
g9
F0.9638
tp6667
a(S'egg'
p6668
g15
F0.9847
tp6669
a(g17
g9
F0.9985
tp6670
asI2032
(lp6671
(S'rotten['
p6672
g61
F0.8428
tp6673
a(g48
g9
F0.9953
tp6674
a(g442
g9
F0.9538
tp6675
a(S'egg'
p6676
g15
F0.9764
tp6677
a(g439
g9
F0.9864
tp6678
a(g48
g9
F0.988
tp6679
a(g442
g9
F0.9591
tp6680
a(g78
g9
F0.996
tp6681
asI2035
(lp6682
(S'&-uh'
p6683
g48
F0.9317
tp6684
a(S'huh'
p6685
g48
F0.995
tp6686
a(g17
g9
F0.9977
tp6687
asI2038
(lp6688
(S"I'm"
p6689
g3
F0.9951
tp6690
a(S'gonna'
p6691
g6
F0.9956
tp6692
a(S'be'
p6693
g6
F0.9998
tp6694
a(g142
g12
F0.9288
tp6695
a(S'+/'
p6696
g15
F0.4624
tp6697
a(g17
g9
F0.9975
tp6698
asI2041
(lp6699
(S'almost'
p6700
g26
F0.9923
tp6701
a(S'done'
p6702
g6
F0.9371
tp6703
a(g48
g9
F0.9987
tp6704
asI2044
(lp6705
(S'you'
p6706
g41
F0.998
tp6707
a(S'got'
p6708
g6
F0.9993
tp6709
a(S'ta'
p6710
g132
F0.9501
tp6711
a(S'stop'
p6712
g6
F0.8868
tp6713
a(S'talkin(g'
p6714
g6
F0.7355
tp6715
a(g8
g9
F0.9953
tp6716
a(S'and'
p6717
g250
F0.9988
tp6718
a(S'eat'
p6719
g6
F0.9565
tp6720
a(g48
g9
F0.9986
tp6721
as.