(dp0
I0
(lp1
(S'sit'
p2
S'V'
p3
F0.9825
tp4
a(S'down'
p5
S'T'
p6
F0.7861
tp7
a(S'now'
p8
S'R'
p9
F0.994
tp10
asI1
(lp11
(S'xxx'
p12
S'E'
p13
F0.8437
tp14
asI2
(lp15
(S'xxx'
p16
g13
F0.6382
tp17
a(S'this'
p18
S'D'
p19
F0.9309
tp20
a(S'one'
p21
S'$'
p22
F0.8288
tp23
a(S'too'
p24
g9
F0.9137
tp25
asI3
(lp26
(S'chi'
p27
S'^'
p28
F0.7464
tp29
a(S'may'
p30
g3
F0.6078
tp31
a(S'i'
p32
S'O'
p33
F0.9895
tp34
a(S'have'
p35
g3
F0.9999
tp36
a(S'that'
p37
g33
F0.5858
tp38
a(S'please'
p39
g3
F0.9934
tp40
asI4
(lp41
(S'what'
p42
g33
F0.9739
tp43
a(S's'
p44
g3
F0.4505
tp45
a(S'that'
p46
g33
F0.8603
tp47
asI5
(lp48
(S'you'
p49
g33
F0.9983
tp50
a(S'know'
p51
g3
F0.9986
tp52
a(S'what'
p53
g33
F0.9942
tp54
a(S'that'
p55
g33
F0.904
tp56
a(S'is'
p57
g3
F0.9992
tp58
asI6
(lp59
(S'it'
p60
g33
F0.9858
tp61
a(g44
S'G'
p62
F0.6822
tp63
a(S'xxx'
p64
g13
F0.487
tp65
asI7
(lp66
(S'chi'
p67
S'!'
p68
F0.4684
tp69
asI8
(lp70
(S'chi'
p71
g28
F0.7269
tp72
a(S'do'
p73
g3
F0.999
tp74
a(S'you'
p75
g33
F0.9997
tp76
a(S'want'
p77
g3
F0.9987
tp78
a(S'chicken'
p79
S'N'
p80
F0.7515
tp81
asI9
(lp82
(S'hot'
p83
S'A'
p84
F0.964
tp85
a(S'dog'
p86
g80
F0.999
tp87
asI10
(lp88
(S'no'
p89
g68
F0.9253
tp90
asI11
(lp91
(S'xxx'
p92
g13
F0.8437
tp93
asI12
(lp94
(S'that'
p95
g33
F0.473
tp96
a(g44
g62
F0.4353
tp97
a(S'not'
p98
g9
F0.9637
tp99
a(S'chicken'
p100
g80
F0.8619
tp101
asI13
(lp102
(S'yes'
p103
g68
F0.9804
tp104
a(S'it'
p105
g33
F0.9987
tp106
a(S'is'
p107
g3
F0.9992
tp108
asI14
(lp109
(S'it'
p110
g33
F0.9974
tp111
a(S'is'
p112
g3
F0.9984
tp113
a(S'chicken'
p114
g80
F0.8635
tp115
asI15
(lp116
(S'look'
p117
g3
F0.9901
tp118
a(S'it'
p119
g33
F0.9961
tp120
asI16
(lp121
(S'babbling'
p122
g3
F0.9317
tp123
asI17
(lp124
(S'look'
p125
g3
F0.9901
tp126
a(S'it'
p127
g33
F0.9961
tp128
asI18
(lp129
(S'it'
p130
g33
F0.9888
tp131
a(g44
g3
F0.7285
tp132
a(S'a'
p133
g19
F0.9931
tp134
a(S'nice'
p135
g84
F0.9949
tp136
a(S'chicken'
p137
g80
F0.9453
tp138
asI19
(lp139
(S'that'
p140
g33
F0.473
tp141
a(g44
g62
F0.3674
tp142
a(S'breaded'
p143
g84
F0.727
tp144
a(S'chicken'
p145
g80
F0.9921
tp146
asI20
(lp147
(S'xxx'
p148
g13
F0.8437
tp149
asI21
(lp150
(S'breaded'
p151
g84
F0.5798
tp152
a(S'chicken'
p153
g80
F0.9911
tp154
asI22
(lp155
(S'hey'
p156
g68
F0.9955
tp157
a(g32
g33
F0.9935
tp158
a(S'like'
p159
g3
F0.8178
tp160
a(S'xxx'
p161
g13
F0.7158
tp162
asI23
(lp163
(S'chi'
p164
g28
F0.4479
tp165
a(S'what'
p166
g33
F0.9796
tp167
a(S'are'
p168
g3
F0.9982
tp169
a(S'you'
p170
g33
F0.9994
tp171
a(S'gonna'
p172
g3
F0.9995
tp173
a(S'have'
p174
g3
F0.9996
tp175
a(S'for'
p176
S'P'
p177
F0.9987
tp178
a(S'supper'
p179
g80
F0.9282
tp180
asI24
(lp181
(S'mommy'
p182
g80
F0.7607
tp183
a(g32
g33
F0.8919
tp184
a(S'like'
p185
g3
F0.84
tp186
a(S'chicken'
p187
g80
F0.9172
tp188
asI25
(lp189
(S'chicken'
p190
g80
F0.7024
tp191
asI26
(lp192
(S'and'
p193
S'&'
p194
F0.9986
tp195
a(S'what'
p196
g33
F0.9938
tp197
a(S'else'
p198
g9
F0.8213
tp199
asI27
(lp200
(S'and'
p201
g194
F0.9988
tp202
a(S'coleslaw'
p203
g80
F0.9094
tp204
asI28
(lp205
(S'and'
p206
g194
F0.9986
tp207
a(S'what'
p208
g33
F0.9941
tp209
asI29
(lp210
(S'and'
p211
g194
F0.9988
tp212
a(S'coleslaw'
p213
g80
F0.9094
tp214
asI30
(lp215
(S'no'
p216
g68
F0.9253
tp217
asI31
(lp218
(S'no'
p219
g68
F0.7985
tp220
a(S'you'
p221
g33
F0.9776
tp222
a(S're'
p223
g3
F0.5559
tp224
a(S'gonna'
p225
g3
F0.9907
tp226
a(S'have'
p227
g3
F0.999
tp228
a(S'asparagus'
p229
g80
F0.993
tp230
a(S'and'
p231
g194
F0.9959
tp232
a(S'you'
p233
g33
F0.9966
tp234
a(S're'
p235
g3
F0.5665
tp236
a(S'gonna'
p237
g3
F0.9909
tp238
a(S'have'
p239
g3
F0.9993
tp240
a(S'baked'
p241
g3
F0.7624
tp242
a(S'xxx'
p243
g13
F0.6771
tp244
asI32
(lp245
(S'xxx'
p246
g13
F0.648
tp247
a(S'no'
p248
g68
F0.7825
tp249
a(S'we'
p250
g33
F0.9911
tp251
a(S'don'
p252
g3
F0.8412
tp253
a(S't'
p254
g3
F0.5246
tp255
a(S'like'
p256
g177
F0.8752
tp257
a(S'asparagus'
p258
g80
F0.9902
tp259
asI33
(lp260
(S'ssh'
p261
g28
F0.6558
tp262
asI34
(lp263
(S'alright'
p264
g68
F0.9864
tp265
asI35
(lp266
(S'wait'
p267
g3
F0.9897
tp268
a(g133
g19
F0.994
tp269
a(S'minute'
p270
g80
F0.9741
tp271
asI36
(lp272
(S'xxx'
p273
g13
F0.8437
tp274
asI37
(lp275
(S'shh'
p276
g68
F0.9891
tp277
a(S'shh'
p278
g68
F0.9932
tp279
a(S'shh'
p280
g68
F0.9926
tp281
asI38
(lp282
(S'chi'
p283
g28
F0.4479
tp284
a(S'what'
p285
g33
F0.9796
tp286
a(S'are'
p287
g3
F0.9982
tp288
a(S'you'
p289
g33
F0.9994
tp290
a(S'gonna'
p291
g3
F0.9997
tp292
a(S'have'
p293
g3
F0.999
tp294
asI39
(lp295
(S'xxx'
p296
g13
F0.8437
tp297
asI40
(lp298
(S'xxx'
p299
g13
F0.6632
tp300
a(S'gonna'
p301
g3
F0.9908
tp302
a(S'have'
p303
g3
F0.9993
tp304
a(S'macaroni'
p305
g80
F0.8775
tp306
asI41
(lp307
(S'yeah'
p308
g68
F0.9962
tp309
a(S'but'
p310
g194
F0.9951
tp311
a(g32
g33
F0.9871
tp312
a(S'm'
p313
g3
F0.9856
tp314
a(S'asking'
p315
g3
F0.9932
tp316
a(S'chi'
p317
g28
F0.427
tp318
a(S'sis'
p319
g80
F0.6318
tp320
asI42
(lp321
(S'chi'
p322
g28
F0.4479
tp323
a(S'what'
p324
g33
F0.9796
tp325
a(S'are'
p326
g3
F0.9982
tp327
a(S'you'
p328
g33
F0.9994
tp329
a(S'gonna'
p330
g3
F0.9997
tp331
a(S'have'
p332
g3
F0.999
tp333
asI43
(lp334
(g32
g33
F0.953
tp335
a(g313
g3
F0.9883
tp336
a(S'mopping'
p337
g3
F0.9887
tp338
a(S'helping'
p339
g3
F0.9633
tp340
a(S'mop'
p341
g80
F0.7942
tp342
asI44
(lp343
(S'what'
p344
g33
F0.9835
tp345
a(S'are'
p346
g3
F0.9978
tp347
a(S'you'
p348
g33
F0.9996
tp349
a(S'gonna'
p350
g3
F0.9992
tp351
a(S'have'
p352
g3
F0.9994
tp353
asI45
(lp354
(S'mop'
p355
g80
F0.6329
tp356
asI46
(lp357
(S'look'
p358
g3
F0.8919
tp359
a(S'what'
p360
g33
F0.9859
tp361
a(S'you'
p362
g33
F0.9998
tp363
a(S'did'
p364
g3
F0.9976
tp365
asI47
(lp366
(S'put'
p367
g3
F0.9661
tp368
a(S'that'
p369
g33
F0.8499
tp370
a(S'down'
p371
g9
F0.4423
tp372
a(S'please'
p373
g3
F0.9081
tp374
asI48
(lp375
(S'be'
p376
g3
F0.9727
tp377
a(S'cause'
p378
g177
F0.9443
tp379
a(S'you'
p380
g33
F0.9965
tp381
a(S're'
p382
g3
F0.7538
tp383
a(S'getting'
p384
g3
F0.9996
tp385
a(S'all'
p386
g19
F0.9754
tp387
a(S'dirty'
p388
g84
F0.9616
tp389
asI49
(lp390
(S'me'
p391
g33
F0.9918
tp392
asI50
(lp393
(S'yes'
p394
g68
F0.9958
tp395
asI51
(lp396
(S'me'
p397
g33
F0.9918
tp398
asI52
(lp399
(S'now'
p400
g9
F0.9839
tp401
a(S'this'
p402
g33
F0.9673
tp403
a(S'is'
p404
g3
F0.996
tp405
a(S'hot'
p406
g84
F0.9821
tp407
a(S'so'
p408
g177
F0.9342
tp409
a(S'you'
p410
g33
F0.9997
tp411
a(S'have'
p412
g3
F0.9995
tp413
a(S'to'
p414
g177
F0.995
tp415
a(S'be'
p416
g3
F0.9992
tp417
a(S'careful'
p418
g84
F0.9049
tp419
asI53
(lp420
(S'nothing'
p421
g80
F0.9862
tp422
a(S'can'
p423
g3
F0.9956
tp424
a(S'hurt'
p425
g3
F0.9997
tp426
a(S'me'
p427
g33
F0.9982
tp428
asI54
(lp429
(S'you'
p430
g33
F0.9983
tp431
a(S'know'
p432
g3
F0.9986
tp433
a(S'what'
p434
g33
F0.9852
tp435
a(g32
g33
F0.9928
tp436
a(S'can'
p437
g3
F0.9999
tp438
a(S'do'
p439
g3
F0.9994
tp440
asI55
(lp441
(S'what'
p442
g33
F0.949
tp443
asI56
(lp444
(S'watch'
p445
g3
F0.9852
tp446
a(S'this'
p447
g33
F0.6052
tp448
asI57
(lp449
(g32
g33
F0.9873
tp450
a(S'do'
p451
g3
F0.9992
tp452
a(S'very'
p453
g9
F0.9926
tp454
a(S'carefully'
p455
g9
F0.9812
tp456
asI58
(lp457
(S'alright'
p458
g68
F0.8615
tp459
a(S'get'
p460
g3
F0.9991
tp461
a(S'up'
p462
g6
F0.989
tp463
a(S'on'
p464
g177
F0.9942
tp465
a(S'your'
p466
g19
F0.9968
tp467
a(S'knees'
p468
g80
F0.9962
tp469
a(S'if'
p470
g177
F0.9999
tp471
a(S'you'
p472
g33
F0.9983
tp473
a(S're'
p474
g3
F0.7653
tp475
a(S'not'
p476
g9
F0.9966
tp477
a(S'gonna'
p478
g3
F0.9978
tp479
a(S'use'
p480
g3
F0.9981
tp481
a(S'your'
p482
g19
F0.9907
tp483
a(S'chair'
p484
g80
F0.999
tp485
asI59
(lp486
(g32
g33
F0.9897
tp487
a(S'want'
p488
g3
F0.9999
tp489
a(S'to'
p490
g177
F0.9954
tp491
a(S'get'
p492
g3
F1.0
tp493
a(S'up'
p494
g6
F0.9523
tp495
a(S'up'
p496
g6
F0.8832
tp497
a(S'on'
p498
g177
F0.9941
tp499
a(S'my'
p500
g19
F0.9979
tp501
a(S'knees'
p502
g80
F0.9957
tp503
a(S'whining'
p504
g3
F0.9984
tp505
asI60
(lp506
(S'well'
p507
g68
F0.741
tp508
a(S'you'
p509
g33
F0.9955
tp510
a(S're'
p511
g3
F0.7781
tp512
a(S'in'
p513
g177
F0.9717
tp514
a(S'your'
p515
g19
F0.9945
tp516
a(S'little'
p517
g84
F0.9889
tp518
a(S'chair'
p519
g80
F0.9981
tp520
a(S'be'
p521
g3
F0.9862
tp522
a(S'cause'
p523
g177
F0.9396
tp524
a(S'you'
p525
g33
F0.9964
tp526
a(S're'
p527
g3
F0.804
tp528
a(S'littler'
p529
g84
F0.6043
tp530
a(S'than'
p531
g177
F0.9683
tp532
a(S'sis'
p533
g80
F0.9662
tp534
asI61
(lp535
(S'here'
p536
g9
F0.7796
tp537
asI62
(lp538
(S'can'
p539
g3
F0.9755
tp540
a(g32
g33
F0.987
tp541
a(S'have'
p542
g3
F0.9999
tp543
a(S'that'
p544
g33
F0.4961
tp545
a(S'please'
p546
g3
F0.9951
tp547
asI63
(lp548
(S'oh'
p549
g68
F0.9988
tp550
asI64
(lp551
(g32
g33
F0.9586
tp552
a(g313
g3
F0.9753
tp553
a(S'caught'
p554
g3
F0.9594
tp555
asI65
(lp556
(S'give'
p557
g3
F0.9985
tp558
a(S'me'
p559
g33
F0.9987
tp560
a(S'that'
p561
g33
F0.5524
tp562
a(S'please'
p563
g3
F0.9895
tp564
asI66
(lp565
(S'oh'
p566
g68
F0.9979
tp567
a(S'oh'
p568
g68
F0.9994
tp569
a(S'oh'
p570
g68
F0.9994
tp571
asI67
(lp572
(S'oh'
p573
g68
F0.9971
tp574
a(g32
g33
F0.9725
tp575
a(g32
g33
F0.9483
tp576
a(g313
g3
F0.9393
tp577
a(S'sorry'
p578
g84
F0.9762
tp579
a(S'mommy'
p580
g80
F0.9626
tp581
a(g32
g33
F0.8225
tp582
a(g313
g3
F0.9246
tp583
a(S'sorry'
p584
g84
F0.8702
tp585
asI68
(lp586
(S'alright'
p587
g68
F0.9415
tp588
a(S'are'
p589
g3
F0.9958
tp590
a(S'you'
p591
g33
F0.9995
tp592
a(S'gonna'
p593
g3
F0.9995
tp594
a(S'eat'
p595
g3
F0.9986
tp596
a(S'like'
p597
g177
F0.9396
tp598
a(g133
g19
F0.9922
tp599
a(S'nice'
p600
g84
F0.9988
tp601
a(S'girl'
p602
g80
F0.9935
tp603
asI69
(lp604
(S'um'
p605
g68
F0.979
tp606
asI70
(lp607
(S'huh'
p608
g68
F0.993
tp609
asI71
(lp610
(S'yes'
p611
g68
F0.9958
tp612
asI72
(lp613
(S'and'
p614
g194
F0.9975
tp615
a(S'don'
p616
g3
F0.3559
tp617
a(g254
g80
F0.2761
tp618
a(S'spill'
p619
g3
F0.8308
tp620
a(S'it'
p621
g33
F0.9913
tp622
a(S'please'
p623
g3
F0.9934
tp624
asI73
(lp625
(S'hey'
p626
g68
F0.998
tp627
a(S'that'
p628
g33
F0.7491
tp629
a(g44
g62
F0.3687
tp630
a(S'chicken'
p631
g80
F0.907
tp632
a(g32
g33
F0.8084
tp633
a(S'don'
p634
g3
F0.9198
tp635
a(g254
g3
F0.3903
tp636
a(S'like'
p637
g177
F0.8625
tp638
a(S'chicken'
p639
g80
F0.9345
tp640
asI74
(lp641
(S'you'
p642
g33
F0.995
tp643
a(S'always'
p644
g9
F0.9908
tp645
a(S'liked'
p646
g3
F0.9959
tp647
a(S'chicken'
p648
g80
F0.8639
tp649
a(S'before'
p650
g177
F0.9374
tp651
asI75
(lp652
(g32
g33
F0.9635
tp653
a(S'don'
p654
g3
F0.9231
tp655
a(g254
g3
F0.4066
tp656
a(S'like'
p657
g177
F0.8897
tp658
a(S'chicken'
p659
g80
F0.8635
tp660
asI76
(lp661
(S'well'
p662
g68
F0.741
tp663
a(S'you'
p664
g33
F0.9994
tp665
a(S'eat'
p666
g3
F0.9995
tp667
a(g133
g19
F0.9988
tp668
a(S'little'
p669
g84
F0.9968
tp670
a(S'bit'
p671
g80
F0.9433
tp672
a(S'tonight'
p673
g9
F0.5337
tp674
a(S'if'
p675
g177
F0.9992
tp676
a(S'you'
p677
g33
F0.9998
tp678
a(S'want'
p679
g3
F1.0
tp680
a(S'your'
p681
g19
F0.987
tp682
a(S'dessert'
p683
g80
F0.9978
tp684
asI77
(lp685
(S'what'
p686
g33
F0.9739
tp687
a(g44
g3
F0.4505
tp688
a(S'that'
p689
g33
F0.8603
tp690
asI78
(lp691
(S'what'
p692
g33
F0.9651
tp693
a(S'that'
p694
g33
F0.6245
tp695
a(g44
g62
F0.425
tp696
a(S'asparagus'
p697
g80
F0.9835
tp698
asI79
(lp699
(S'you'
p700
g33
F0.997
tp701
a(S'want'
p702
g3
F0.9998
tp703
a(S'some'
p704
g19
F0.8559
tp705
asI80
(lp706
(S'no'
p707
g68
F0.9253
tp708
asI81
(lp709
(S'mom'
p710
g80
F0.7188
tp711
asI82
(lp712
(S'eat'
p713
g3
F0.9893
tp714
a(S'your'
p715
g19
F0.9867
tp716
a(S'macaroni'
p717
g80
F0.9631
tp718
asI83
(lp719
(S'mommy'
p720
g80
F0.6284
tp721
a(S'will'
p722
g3
F0.9992
tp723
a(S'you'
p724
g33
F0.9977
tp725
a(S'xxx'
p726
g3
F0.868
tp727
a(S'this'
p728
g19
F0.9405
tp729
a(S'last'
p730
g84
F0.9831
tp731
a(S'macaroni'
p732
g80
F0.9721
tp733
asI84
(lp734
(S'yeah'
p735
g68
F0.9988
tp736
asI85
(lp737
(S'xxx'
p738
g13
F0.8437
tp739
asI86
(lp740
(S'yeah'
p741
g68
F0.9988
tp742
asI87
(lp743
(S'chi'
p744
g28
F0.4377
tp745
a(S'where'
p746
g9
F0.9052
tp747
a(S'did'
p748
g3
F0.9953
tp749
a(S'we'
p750
g33
F0.9977
tp751
a(S'go'
p752
g3
F0.9991
tp753
a(S'on'
p754
g177
F0.971
tp755
a(S'vacation'
p756
g80
F0.9916
tp757
asI88
(lp758
(S'we'
p759
g33
F0.9961
tp760
a(S'went'
p761
g3
F0.9957
tp762
a(S'xxx'
p763
g13
F0.7044
tp764
asI89
(lp765
(S'beach'
p766
g80
F0.7418
tp767
asI90
(lp768
(S'we'
p769
g33
F0.9962
tp770
a(S'went'
p771
g3
F0.9994
tp772
a(S'to'
p773
g177
F0.9956
tp774
a(S'the'
p775
g19
F0.999
tp776
a(S'beach'
p777
g80
F0.8782
tp778
a(S'and'
p779
g194
F0.9973
tp780
a(S'we'
p781
g33
F0.9963
tp782
a(S'went'
p783
g3
F0.9994
tp784
a(S'to'
p785
g177
F0.9974
tp786
a(S'the'
p787
g19
F0.9991
tp788
a(S'motel'
p789
g80
F0.9903
tp790
a(S'and'
p791
g194
F0.9975
tp792
a(S'we'
p793
g33
F0.9957
tp794
asI91
(lp795
(S'wait'
p796
g3
F0.9922
tp797
a(g133
g19
F0.9943
tp798
a(S'minute'
p799
g80
F0.9174
tp800
a(S'sis'
p801
g80
F0.9693
tp802
a(S'sis'
p803
g80
F0.9704
tp804
a(S'let'
p805
g3
F0.9302
tp806
a(S'chi'
p807
g28
F0.5709
tp808
a(S'answer'
p809
g80
F0.6094
tp810
a(S'please'
p811
g3
F0.9729
tp812
asI92
(lp813
(S'and'
p814
g194
F0.9987
tp815
a(S'where'
p816
g9
F0.8862
tp817
a(S'did'
p818
g3
F0.9953
tp819
a(S'we'
p820
g33
F0.9977
tp821
a(S'go'
p822
g3
F0.9994
tp823
a(S'to'
p824
g177
F0.9918
tp825
a(S'eat'
p826
g3
F0.9911
tp827
asI93
(lp828
(S'we'
p829
g33
F0.9962
tp830
a(S'went'
p831
g3
F0.999
tp832
a(S'to'
p833
g177
F0.9945
tp834
a(S'the'
p835
g19
F0.9881
tp836
asI94
(lp837
(S'xxx'
p838
g13
F0.648
tp839
a(S'no'
p840
g68
F0.6263
tp841
a(g32
g33
F0.9475
tp842
a(S'say'
p843
g3
F0.9998
tp844
a(S'it'
p845
g33
F0.9862
tp846
asI95
(lp847
(S'alright'
p848
g68
F0.9864
tp849
asI96
(lp850
(S'let'
p851
g3
F0.9052
tp852
a(S'chi'
p853
g28
F0.48
tp854
a(S'say'
p855
g3
F0.9965
tp856
a(S'it'
p857
g33
F0.9874
tp858
asI97
(lp859
(g32
g33
F0.9891
tp860
a(S'found'
p861
g3
F0.9999
tp862
a(S'some'
p863
g19
F0.7593
tp864
a(S'xxx'
p865
g13
F0.6335
tp866
asI98
(lp867
(S'nope'
p868
g68
F0.943
tp869
a(S'to'
p870
g177
F0.9981
tp871
a(S'the'
p872
g19
F0.9989
tp873
a(S'restaurant'
p874
g80
F0.9984
tp875
asI99
(lp876
(S'to'
p877
g177
F0.998
tp878
a(S'the'
p879
g19
F0.9991
tp880
a(S'restaurant'
p881
g80
F0.9987
tp882
asI100
(lp883
(S'and'
p884
g194
F0.9988
tp885
a(S'what'
p886
g33
F0.9988
tp887
a(S'did'
p888
g3
F0.9992
tp889
a(S'you'
p890
g33
F0.9994
tp891
a(S'have'
p892
g3
F0.9989
tp893
asI101
(lp894
(S'we'
p895
g33
F0.9972
tp896
a(S'have'
p897
g3
F0.9976
tp898
a(S'xxx'
p899
g13
F0.6098
tp900
asI102
(lp901
(g32
g33
F0.9873
tp902
a(S'can'
p903
g3
F0.9998
tp904
a(S'say'
p905
g3
F0.9999
tp906
a(S'it'
p907
g33
F0.9871
tp908
a(S'too'
p909
g9
F0.9778
tp910
asI103
(lp911
(S'well'
p912
g68
F0.6724
tp913
a(S'let'
p914
g3
F0.9151
tp915
a(S'chi'
p916
g28
F0.6717
tp917
a(S'say'
p918
g3
F0.9964
tp919
a(S'it'
p920
g33
F0.9921
tp921
a(S'today'
p922
g80
F0.8711
tp923
a(S'sis'
p924
g80
F0.7675
tp925
asI104
(lp926
(S'what'
p927
g33
F0.9965
tp928
a(S'did'
p929
g3
F0.9965
tp930
a(S'we'
p931
g33
F0.9992
tp932
a(S'have'
p933
g3
F0.9977
tp934
a(S'chi'
p935
g28
F0.4098
tp936
asI105
(lp937
(S'no'
p938
g68
F0.568
tp939
a(S'don'
p940
g80
F0.8031
tp941
a(g254
g80
F0.4558
tp942
a(S'touch'
p943
g3
F0.8569
tp944
a(S'the'
p945
g19
F0.9994
tp946
a(S'tape'
p947
g80
F0.9951
tp948
a(S'recorder'
p949
g80
F0.9951
tp950
asI106
(lp951
(S'we'
p952
g33
F0.9973
tp953
a(S'had'
p954
g3
F0.9998
tp955
a(S'we'
p956
g33
F0.999
tp957
a(S'had'
p958
g3
F0.9998
tp959
a(S'we'
p960
g33
F0.999
tp961
a(S'had'
p962
g3
F0.9999
tp963
a(S'some'
p964
g19
F0.9903
tp965
a(S'pizza'
p966
g80
F0.9744
tp967
a(S'xxx'
p968
g13
F0.6903
tp969
asI107
(lp970
(S'pizza'
p971
g80
F0.8718
tp972
a(S'and'
p973
g194
F0.9976
tp974
a(S'what'
p975
g33
F0.994
tp976
a(S'else'
p977
g9
F0.8885
tp978
asI108
(lp979
(S'and'
p980
g194
F0.9988
tp981
a(S'cookies'
p982
g80
F0.994
tp983
asI109
(lp984
(S'no'
p985
g68
F0.9253
tp986
asI110
(lp987
(S'yeah'
p988
g68
F0.9988
tp989
asI111
(lp990
(S'n'
p991
g194
F0.9129
tp992
a(S'no'
p993
g19
F0.4903
tp994
a(S'we'
p995
g33
F0.9565
tp996
a(S'we'
p997
g33
F0.9679
tp998
a(S'didn'
p999
g3
F0.9869
tp1000
a(g254
g3
F0.7217
tp1001
a(S'have'
p1002
g3
F0.9769
tp1003
a(S'cookies'
p1004
g80
F0.9974
tp1005
asI112
(lp1006
(S'alright'
p1007
g68
F0.8587
tp1008
a(S'wait'
p1009
g3
F0.9935
tp1010
a(g133
g19
F0.994
tp1011
a(S'minute'
p1012
g80
F0.9068
tp1013
a(S'sis'
p1014
g80
F0.9556
tp1015
a(S'shh'
p1016
g68
F0.9376
tp1017
asI113
(lp1018
(S'chi'
p1019
g28
F0.4479
tp1020
a(S'what'
p1021
g33
F0.9952
tp1022
a(S'did'
p1023
g3
F0.9993
tp1024
a(S'you'
p1025
g33
F0.9993
tp1026
a(S'do'
p1027
g3
F0.9997
tp1028
a(S'what'
p1029
g33
F0.9989
tp1030
a(S'did'
p1031
g3
F0.9993
tp1032
a(S'you'
p1033
g33
F0.9988
tp1034
a(S'put'
p1035
g3
F0.9992
tp1036
a(S'up'
p1037
g6
F0.9752
tp1038
a(S'in'
p1039
g177
F0.9967
tp1040
a(S'the'
p1041
g19
F0.9994
tp1042
a(S'sky'
p1043
g80
F0.9228
tp1044
a(S'at'
p1045
g177
F0.9999
tp1046
a(S'the'
p1047
g19
F0.9994
tp1048
a(S'beach'
p1049
g80
F0.9204
tp1050
asI114
(lp1051
(S'kite'
p1052
g80
F0.9376
tp1053
asI115
(lp1054
(S'kite'
p1055
g80
F0.9376
tp1056
asI116
(lp1057
(S'kite'
p1058
g80
F0.9376
tp1059
asI117
(lp1060
(S'kite'
p1061
g80
F0.9376
tp1062
asI118
(lp1063
(S'mhm'
p1064
g68
F0.9747
tp1065
asI119
(lp1066
(S'kite'
p1067
g80
F0.8991
tp1068
a(S'kite'
p1069
g80
F0.9866
tp1070
asI120
(lp1071
(S'and'
p1072
g194
F0.9988
tp1073
a(S'what'
p1074
g33
F0.9323
tp1075
a(S'kind'
p1076
g80
F0.974
tp1077
a(S'of'
p1078
g177
F0.9986
tp1079
a(g133
g19
F0.998
tp1080
a(S'kite'
p1081
g80
F0.9956
tp1082
a(S'did'
p1083
g3
F0.9983
tp1084
a(S'you'
p1085
g33
F0.9995
tp1086
a(S'have'
p1087
g3
F0.9981
tp1088
asI121
(lp1089
(S'um'
p1090
g68
F0.9584
tp1091
a(g32
g33
F0.9921
tp1092
a(S'had'
p1093
g3
F1.0
tp1094
a(S'the'
p1095
g19
F0.9994
tp1096
a(S'pony'
p1097
g80
F0.9801
tp1098
a(S'one'
p1099
g22
F0.9448
tp1100
asI122
(lp1101
(S'no'
p1102
g19
F0.7536
tp1103
a(S'sis'
p1104
g80
F0.9993
tp1105
a(S'had'
p1106
g3
F0.9984
tp1107
a(S'the'
p1108
g19
F0.9994
tp1109
a(S'pony'
p1110
g80
F0.9956
tp1111
asI123
(lp1112
(S'me'
p1113
g33
F0.9951
tp1114
a(S'too'
p1115
g9
F0.9856
tp1116
asI124
(lp1117
(S'no'
p1118
g68
F0.7985
tp1119
a(S'you'
p1120
g33
F0.992
tp1121
a(S'didn'
p1122
g3
F0.9888
tp1123
a(g254
g62
F0.4278
tp1124
asI125
(lp1125
(S'you'
p1126
g33
F0.998
tp1127
a(S'had'
p1128
g3
F0.9999
tp1129
a(g133
g19
F0.9948
tp1130
a(S'happy'
p1131
g84
F0.9992
tp1132
a(S'face'
p1133
g80
F0.9819
tp1134
asI126
(lp1135
(g32
g33
F0.9583
tp1136
a(g32
g33
F0.9668
tp1137
a(S'had'
p1138
g3
F0.9999
tp1139
a(g133
g19
F0.9954
tp1140
a(S'happy'
p1141
g84
F0.999
tp1142
a(S'face'
p1143
g80
F0.9843
tp1144
asI127
(lp1145
(S'xxx'
p1146
g13
F0.6905
tp1147
a(S'happy'
p1148
g84
F0.9991
tp1149
a(S'face'
p1150
g80
F0.9906
tp1151
asI128
(lp1152
(S'sis'
p1153
g80
F0.899
tp1154
a(S'sis'
p1155
g80
F0.9558
tp1156
asI129
(lp1157
(S'shh'
p1158
g68
F0.9891
tp1159
a(S'shh'
p1160
g68
F0.9958
tp1161
asI130
(lp1162
(S'and'
p1163
g194
F0.9988
tp1164
a(S'what'
p1165
g33
F0.9988
tp1166
a(S'did'
p1167
g3
F0.9993
tp1168
a(S'you'
p1169
g33
F0.9986
tp1170
a(S'see'
p1171
g3
F0.9998
tp1172
a(S'up'
p1173
g6
F0.9577
tp1174
a(S'in'
p1175
g177
F0.9976
tp1176
a(S'the'
p1177
g19
F0.9992
tp1178
a(S'sky'
p1179
g80
F0.8799
tp1180
asI131
(lp1181
(S'kites'
p1182
g80
F0.7337
tp1183
asI132
(lp1184
(S'kite'
p1185
g80
F0.9376
tp1186
asI133
(lp1187
(S'no'
p1188
g68
F0.871
tp1189
a(S'what'
p1190
g33
F0.9957
tp1191
a(S'did'
p1192
g3
F0.9963
tp1193
a(S'we'
p1194
g33
F0.9978
tp1195
a(S'see'
p1196
g3
F0.9985
tp1197
a(S'at'
p1198
g177
F0.9932
tp1199
a(S'night'
p1200
g80
F0.9598
tp1201
asI134
(lp1202
(S'xxx'
p1203
g13
F0.7058
tp1204
a(S'was'
p1205
g3
F0.9949
tp1206
a(S'gone'
p1207
g3
F0.6256
tp1208
asI135
(lp1209
(S'did'
p1210
g3
F0.9986
tp1211
a(S'you'
p1212
g33
F0.9986
tp1213
a(S'see'
p1214
g3
F0.9995
tp1215
a(S'the'
p1216
g19
F0.9996
tp1217
a(S'fireworks'
p1218
g80
F0.9862
tp1219
asI136
(lp1220
(S'yeah'
p1221
g68
F0.9933
tp1222
a(S'and'
p1223
g194
F0.9991
tp1224
a(S'we'
p1225
g33
F0.9981
tp1226
a(S'saw'
p1227
g3
F0.9994
tp1228
a(S'the'
p1229
g19
F0.9881
tp1230
asI137
(lp1231
(S'chi'
p1232
g68
F0.4684
tp1233
asI138
(lp1234
(S'xxx'
p1235
g13
F0.8437
tp1236
asI139
(lp1237
(S'what'
p1238
g33
F0.9798
tp1239
a(S'else'
p1240
g9
F0.8293
tp1241
a(S'did'
p1242
g3
F0.9993
tp1243
a(S'you'
p1244
g33
F0.9987
tp1245
a(S'see'
p1246
g3
F0.9959
tp1247
a(S'chi'
p1248
g28
F0.6106
tp1249
asI140
(lp1250
(S'fireworks'
p1251
g80
F0.9435
tp1252
asI141
(lp1253
(S'yeah'
p1254
g68
F0.999
tp1255
a(S'what'
p1256
g33
F0.9239
tp1257
a(S'color'
p1258
g80
F0.9787
tp1259
asI142
(lp1260
(S'xxx'
p1261
g13
F0.8437
tp1262
asI143
(lp1263
(S'red'
p1264
g84
F0.9719
tp1265
a(S'purple'
p1266
g84
F0.861
tp1267
asI144
(lp1268
(S'purple'
p1269
g84
F0.8823
tp1270
asI145
(lp1271
(S'and'
p1272
g194
F0.9981
tp1273
a(S'blue'
p1274
g84
F0.8964
tp1275
asI146
(lp1276
(S'no'
p1277
g68
F0.6532
tp1278
a(g32
g33
F0.9571
tp1279
a(S'say'
p1280
g3
F0.9999
tp1281
a(S'it'
p1282
g33
F0.9952
tp1283
a(S'yelling'
p1284
g3
F0.9994
tp1285
asI147
(lp1286
(S'purple'
p1287
g84
F0.8823
tp1288
asI148
(lp1289
(g32
g33
F0.9635
tp1290
a(S'don'
p1291
g3
F0.9231
tp1292
a(g254
g80
F0.2503
tp1293
a(S'want'
p1294
g3
F0.9993
tp1295
a(S'her'
p1296
g33
F0.8573
tp1297
a(S'to'
p1298
g177
F0.9901
tp1299
a(S'say'
p1300
g3
F0.9998
tp1301
a(S'it'
p1302
g33
F0.992
tp1303
asI149
(lp1304
(S'listen'
p1305
g3
F0.9941
tp1306
a(S'do'
p1307
g3
F0.9978
tp1308
a(S'you'
p1309
g33
F0.9997
tp1310
a(S'remember'
p1311
g3
F0.9985
tp1312
a(S'when'
p1313
g9
F0.9878
tp1314
a(S'you'
p1315
g33
F0.9993
tp1316
a(S'had'
p1317
g3
F0.9999
tp1318
a(S'your'
p1319
g19
F0.8417
tp1320
a(S'turn'
p1321
g80
F0.718
tp1322
a(S'with'
p1323
g177
F0.9989
tp1324
a(S'the'
p1325
g19
F0.9996
tp1326
a(S'tape'
p1327
g80
F0.9965
tp1328
a(S'recorder'
p1329
g80
F0.9948
tp1330
asI150
(lp1331
(S'now'
p1332
g9
F0.9853
tp1333
a(S'it'
p1334
g33
F0.9946
tp1335
a(g44
g62
F0.7093
tp1336
a(S'chi'
p1337
g62
F0.5725
tp1338
a(g44
g62
F0.8302
tp1339
a(S'turn'
p1340
g3
F0.9485
tp1341
asI151
(lp1342
(S'what'
p1343
g33
F0.9835
tp1344
a(S'are'
p1345
g3
F0.9978
tp1346
a(S'you'
p1347
g33
F0.9994
tp1348
a(S'eating'
p1349
g3
F0.9983
tp1350
a(S'chi'
p1351
g28
F0.3389
tp1352
asI152
(lp1353
(S'this'
p1354
g33
F0.5028
tp1355
asI153
(lp1356
(S'what'
p1357
g33
F0.9956
tp1358
a(S'is'
p1359
g3
F0.9997
tp1360
a(S'it'
p1361
g33
F0.9986
tp1362
asI154
(lp1363
(S'hot'
p1364
g84
F0.964
tp1365
a(S'dog'
p1366
g80
F0.999
tp1367
asI155
(lp1368
(S'no'
p1369
g68
F0.9253
tp1370
asI156
(lp1371
(S'it'
p1372
g33
F0.9858
tp1373
a(g44
g3
F0.467
tp1374
a(S'macaroni'
p1375
g80
F0.7567
tp1376
asI157
(lp1377
(S'macaroni'
p1378
g80
F0.5006
tp1379
asI158
(lp1380
(S'xxx'
p1381
g13
F0.8437
tp1382
asI159
(lp1383
(S'and'
p1384
g194
F0.9986
tp1385
a(S'what'
p1386
g33
F0.9938
tp1387
a(S'else'
p1388
g9
F0.8213
tp1389
asI160
(lp1390
(S'and'
p1391
g194
F0.9988
tp1392
a(S'chicken'
p1393
g80
F0.8712
tp1394
asI161
(lp1395
(S'mhm'
p1396
g68
F0.9747
tp1397
asI162
(lp1398
(S'xxx'
p1399
g13
F0.6645
tp1400
a(S'cookie'
p1401
g80
F0.978
tp1402
asI163
(lp1403
(S'no'
p1404
g68
F0.7985
tp1405
a(S'you'
p1406
g33
F0.9928
tp1407
a(S'don'
p1408
g3
F0.8576
tp1409
a(g254
g80
F0.2122
tp1410
a(S'have'
p1411
g3
F0.9941
tp1412
a(S'cookies'
p1413
g80
F0.9963
tp1414
a(S'for'
p1415
g177
F0.9996
tp1416
a(S'supper'
p1417
g80
F0.9282
tp1418
asI164
(lp1419
(S'oh'
p1420
g68
F0.9959
tp1421
a(S'yes'
p1422
g68
F0.9981
tp1423
a(S'we'
p1424
g33
F0.9983
tp1425
a(S'do'
p1426
g3
F0.999
tp1427
asI165
(lp1428
(S'what'
p1429
g33
F0.9835
tp1430
a(S'are'
p1431
g3
F0.9978
tp1432
a(S'you'
p1433
g33
F0.9995
tp1434
a(S'gonna'
p1435
g3
F0.9995
tp1436
a(S'have'
p1437
g3
F0.9998
tp1438
a(S'for'
p1439
g177
F0.9987
tp1440
a(S'dessert'
p1441
g80
F0.9299
tp1442
asI166
(lp1443
(S'pudding'
p1444
g80
F0.9501
tp1445
asI167
(lp1446
(S'no'
p1447
g68
F0.9253
tp1448
asI168
(lp1449
(S'ice'
p1450
g80
F0.7724
tp1451
a(S'cream'
p1452
g80
F0.9444
tp1453
asI169
(lp1454
(S'what'
p1455
g33
F0.9835
tp1456
a(S'are'
p1457
g3
F0.9933
tp1458
a(S'we'
p1459
g33
F0.9991
tp1460
a(S'gonna'
p1461
g3
F0.9992
tp1462
a(S'have'
p1463
g3
F0.9994
tp1464
a(S'saturday'
p1465
g28
F0.844
tp1466
asI170
(lp1467
(S'cookie'
p1468
g80
F0.957
tp1469
asI171
(lp1470
(S'no'
p1471
g68
F0.9253
tp1472
asI172
(lp1473
(S'tape'
p1474
g80
F0.9841
tp1475
a(S'recorder'
p1476
g80
F0.9953
tp1477
asI173
(lp1478
(S'chi'
p1479
g28
F0.5428
tp1480
a(S'be'
p1481
g3
F0.9874
tp1482
a(S'nice'
p1483
g84
F0.9947
tp1484
asI174
(lp1485
(S'what'
p1486
g33
F0.9835
tp1487
a(S'are'
p1488
g3
F0.9933
tp1489
a(S'we'
p1490
g33
F0.9991
tp1491
a(S'gonna'
p1492
g3
F0.9992
tp1493
a(S'have'
p1494
g3
F0.9994
tp1495
a(S'saturday'
p1496
g28
F0.844
tp1497
asI175
(lp1498
(S'and'
p1499
g194
F0.9991
tp1500
a(S'everybody'
p1501
g80
F0.9059
tp1502
a(g44
g62
F0.8078
tp1503
a(S'gonna'
p1504
g3
F0.9823
tp1505
a(S'come'
p1506
g3
F0.9994
tp1507
asI176
(lp1508
(g133
g19
F0.917
tp1509
a(S'xxx'
p1510
g80
F0.4025
tp1511
asI177
(lp1512
(g133
g19
F0.9801
tp1513
a(S'happy'
p1514
g84
F0.9993
tp1515
a(S'what'
p1516
g33
F0.9914
tp1517
asI178
(lp1518
(S'kite'
p1519
g80
F0.8991
tp1520
a(S'kite'
p1521
g80
F0.9866
tp1522
asI179
(lp1523
(S'happy'
p1524
g84
F0.9933
tp1525
a(S'birthday'
p1526
g80
F0.9918
tp1527
asI180
(lp1528
(S'mommy'
p1529
g80
F0.602
tp1530
a(S'xxx'
p1531
g13
F0.6969
tp1532
asI181
(lp1533
(S'how'
p1534
g9
F0.9856
tp1535
a(S'old'
p1536
g84
F0.998
tp1537
a(S'are'
p1538
g3
F0.9114
tp1539
a(S'you'
p1540
g33
F0.9994
tp1541
a(S'gonna'
p1542
g3
F0.9998
tp1543
a(S'be'
p1544
g3
F0.9981
tp1545
a(S'chi'
p1546
g28
F0.518
tp1547
asI182
(lp1548
(S'uh'
p1549
g68
F0.9719
tp1550
a(S'four'
p1551
g22
F0.5945
tp1552
asI183
(lp1553
(S'that'
p1554
g33
F0.4727
tp1555
a(g44
g3
F0.5427
tp1556
a(S'right'
p1557
g68
F0.3487
tp1558
asI184
(lp1559
(S'and'
p1560
g194
F0.9987
tp1561
a(S'how'
p1562
g9
F0.991
tp1563
a(S'old'
p1564
g84
F0.984
tp1565
a(S'is'
p1566
g3
F0.8625
tp1567
a(S'sis'
p1568
g80
F0.8913
tp1569
asI185
(lp1570
(g32
g33
F0.953
tp1571
a(g313
g3
F0.9629
tp1572
a(S'gonna'
p1573
g3
F0.9956
tp1574
a(S'be'
p1575
g3
F0.9989
tp1576
a(S'five'
p1577
g177
F0.3155
tp1578
a(S'this'
p1579
g33
F0.5545
tp1580
a(S'xxx'
p1581
g13
F0.7748
tp1582
asI186
(lp1583
(g32
g33
F0.953
tp1584
a(g313
g3
F0.9629
tp1585
a(S'gonna'
p1586
g3
F0.9955
tp1587
a(S'be'
p1588
g3
F0.9984
tp1589
a(S'four'
p1590
g22
F0.3855
tp1591
asI187
(lp1592
(S'yep'
p1593
g68
F0.985
tp1594
a(S'you'
p1595
g33
F0.983
tp1596
a(S're'
p1597
g3
F0.5559
tp1598
a(S'gonna'
p1599
g3
F0.9935
tp1600
a(S'be'
p1601
g3
F0.9991
tp1602
a(S'four'
p1603
g22
F0.3798
tp1604
a(S'and'
p1605
g194
F0.9983
tp1606
a(S'sis'
p1607
g80
F0.9722
tp1608
a(S'is'
p1609
g3
F0.9955
tp1610
a(S'gonna'
p1611
g3
F0.9893
tp1612
a(S'be'
p1613
g3
F0.9984
tp1614
a(S'five'
p1615
g22
F0.3017
tp1616
asI188
(lp1617
(S'yep'
p1618
g68
F0.9977
tp1619
asI189
(lp1620
(S'who'
p1621
g33
F0.9886
tp1622
a(g44
g3
F0.7219
tp1623
a(S'coming'
p1624
g3
F0.9895
tp1625
asI190
(lp1626
(S'auntie'
p1627
g80
F0.557
tp1628
a(S'natalie'
p1629
g28
F0.7092
tp1630
asI191
(lp1631
(S'auntie'
p1632
g80
F0.557
tp1633
a(S'natalie'
p1634
g28
F0.7092
tp1635
asI192
(lp1636
(S'yeah'
p1637
g68
F0.9988
tp1638
asI193
(lp1639
(S'and'
p1640
g194
F0.9986
tp1641
a(S'who'
p1642
g33
F0.9957
tp1643
a(S'else'
p1644
g9
F0.8291
tp1645
asI194
(lp1646
(S'kathy'
p1647
g28
F0.9824
tp1648
asI195
(lp1649
(S'xxx'
p1650
g13
F0.8437
tp1651
asI196
(lp1652
(S'mhm'
p1653
g68
F0.9747
tp1654
asI197
(lp1655
(S'xxx'
p1656
g13
F0.6713
tp1657
a(S'and'
p1658
g194
F0.9981
tp1659
a(S'kathy'
p1660
g28
F0.9875
tp1661
asI198
(lp1662
(S'how'
p1663
g9
F0.9957
tp1664
a(S'about'
p1665
g177
F0.9113
tp1666
a(S'uncle'
p1667
g80
F0.9026
tp1668
a(S'joey'
p1669
g28
F0.9843
tp1670
a(S'and'
p1671
g194
F0.9986
tp1672
a(S'anne'
p1673
g28
F0.8721
tp1674
a(S'marie'
p1675
g28
F0.9971
tp1676
asI199
(lp1677
(S'hey'
p1678
g68
F0.9961
tp1679
a(S'they'
p1680
g33
F0.9977
tp1681
a(S'can'
p1682
g3
F0.9996
tp1683
a(S'come'
p1684
g3
F0.9994
tp1685
a(S'too'
p1686
g9
F0.9881
tp1687
a(S'xxx'
p1688
g13
F0.616
tp1689
a(S'they'
p1690
g33
F0.9914
tp1691
a(S'want'
p1692
g3
F0.9993
tp1693
asI200
(lp1694
(S'who'
p1695
g33
F0.9905
tp1696
a(g44
g3
F0.7219
tp1697
a(S'coming'
p1698
g3
F0.9882
tp1699
a(S'chi'
p1700
g28
F0.3409
tp1701
asI201
(lp1702
(S'kathy'
p1703
g28
F0.9962
tp1704
a(S'and'
p1705
g194
F0.9982
tp1706
a(S'michelle'
p1707
g28
F0.9775
tp1708
asI202
(lp1709
(S'and'
p1710
g194
F0.9986
tp1711
a(S'who'
p1712
g33
F0.9957
tp1713
a(S'else'
p1714
g9
F0.8291
tp1715
asI203
(lp1716
(S'xxx'
p1717
g13
F0.8437
tp1718
asI204
(lp1719
(S'who'
p1720
g33
F0.9764
tp1721
asI205
(lp1722
(S'xxx'
p1723
g13
F0.8437
tp1724
asI206
(lp1725
(S'what'
p1726
g33
F0.9777
tp1727
a(S'about'
p1728
g177
F0.914
tp1729
a(S'uncle'
p1730
g80
F0.935
tp1731
a(S'joey'
p1732
g28
F0.9495
tp1733
asI207
(lp1734
(S'uncle'
p1735
g80
F0.798
tp1736
a(S'joey'
p1737
g28
F0.9238
tp1738
asI208
(lp1739
(S'no'
p1740
g68
F0.6532
tp1741
a(g32
g33
F0.8329
tp1742
a(g32
g33
F0.9665
tp1743
a(S'say'
p1744
g3
F0.9996
tp1745
a(S'that'
p1746
g33
F0.8619
tp1747
a(S'already'
p1748
g9
F0.9929
tp1749
asI209
(lp1750
(S'and'
p1751
g194
F0.9985
tp1752
a(S'anne'
p1753
g28
F0.7534
tp1754
a(S'marie'
p1755
g28
F0.9966
tp1756
asI210
(lp1757
(S'anne'
p1758
g28
F0.8337
tp1759
a(S'marie'
p1760
g28
F0.9945
tp1761
asI211
(lp1762
(S'look'
p1763
g3
F0.9135
tp1764
a(S'at'
p1765
g177
F0.9991
tp1766
a(S'my'
p1767
g19
F0.999
tp1768
a(S'hand'
p1769
g80
F0.9987
tp1770
asI212
(lp1771
(S'xxx'
p1772
g13
F0.8437
tp1773
asI213
(lp1774
(S'what'
p1775
g33
F0.9725
tp1776
a(S'about'
p1777
g177
F0.9802
tp1778
a(S'sarah'
p1779
g28
F0.8872
tp1780
asI214
(lp1781
(S'sarah'
p1782
g28
F0.896
tp1783
asI215
(lp1784
(S'when'
p1785
g9
F0.581
tp1786
a(S'is'
p1787
g3
F0.9919
tp1788
a(S'sarah'
p1789
g28
F0.9248
tp1790
a(S'gonna'
p1791
g3
F0.9771
tp1792
a(S'come'
p1793
g3
F0.9994
tp1794
asI216
(lp1795
(S'and'
p1796
g194
F0.9985
tp1797
a(S'jeff'
p1798
g28
F0.9409
tp1799
asI217
(lp1800
(S'jeff'
p1801
g28
F0.9603
tp1802
asI218
(lp1803
(S'and'
p1804
g194
F0.9985
tp1805
a(S'diane'
p1806
g28
F0.6936
tp1807
asI219
(lp1808
(S'mhm'
p1809
g68
F0.9747
tp1810
asI220
(lp1811
(S'and'
p1812
g194
F0.9986
tp1813
a(S'who'
p1814
g33
F0.9957
tp1815
a(S'else'
p1816
g9
F0.8291
tp1817
asI221
(lp1818
(S'what'
p1819
g33
F0.9835
tp1820
a(S'are'
p1821
g3
F0.9933
tp1822
a(S'we'
p1823
g33
F0.9991
tp1824
a(S'gonna'
p1825
g3
F0.9996
tp1826
a(S'have'
p1827
g3
F0.9994
tp1828
a(S'at'
p1829
g177
F0.9994
tp1830
a(S'the'
p1831
g19
F0.9996
tp1832
a(S'birthday'
p1833
g80
F0.9938
tp1834
a(S'chi'
p1835
g62
F0.4239
tp1836
asI222
(lp1837
(S'cake'
p1838
g80
F0.9559
tp1839
asI223
(lp1840
(S'xxx'
p1841
g13
F0.8437
tp1842
asI224
(lp1843
(S'what'
p1844
g33
F0.9835
tp1845
a(S'are'
p1846
g3
F0.9933
tp1847
a(S'we'
p1848
g33
F0.9991
tp1849
a(S'gonna'
p1850
g3
F0.9996
tp1851
a(S'have'
p1852
g3
F0.9994
tp1853
a(S'at'
p1854
g177
F0.9994
tp1855
a(S'the'
p1856
g19
F0.9997
tp1857
a(S'birthday'
p1858
g80
F0.9976
tp1859
a(S'party'
p1860
g80
F0.9879
tp1861
a(S'chi'
p1862
g62
F0.6295
tp1863
asI225
(lp1864
(S'cake'
p1865
g80
F0.9559
tp1866
asI226
(lp1867
(S'mommy'
p1868
g80
F0.5495
tp1869
a(S'mom'
p1870
g80
F0.9362
tp1871
asI227
(lp1872
(S'shh'
p1873
g68
F0.9891
tp1874
a(S'shh'
p1875
g68
F0.9758
tp1876
a(S'sis'
p1877
g80
F0.9141
tp1878
asI228
(lp1879
(S'where'
p1880
g9
F0.9592
tp1881
a(S'does'
p1882
g3
F0.999
tp1883
a(S'the'
p1884
g19
F0.9992
tp1885
a(S'music'
p1886
g80
F0.9963
tp1887
a(S'xxx'
p1888
g13
F0.8411
tp1889
asI229
(lp1890
(S'oh'
p1891
g68
F0.9971
tp1892
a(g32
g33
F0.9807
tp1893
a(S'don'
p1894
g3
F0.9162
tp1895
a(g254
g80
F0.2903
tp1896
a(S'know'
p1897
g3
F0.9882
tp1898
asI230
(lp1899
(S'and'
p1900
g194
F0.9979
tp1901
a(S'wh'
p1902
g62
F0.2787
tp1903
a(S'what'
p1904
g33
F0.987
tp1905
a(S'are'
p1906
g3
F0.9974
tp1907
a(S'you'
p1908
g33
F0.9932
tp1909
a(S'um'
p1910
g68
F0.627
tp1911
a(S'chi'
p1912
g28
F0.4846
tp1913
asI231
(lp1914
(S'who'
p1915
g33
F0.9905
tp1916
a(g44
g3
F0.5286
tp1917
a(S'gonna'
p1918
g3
F0.9949
tp1919
a(S'make'
p1920
g3
F0.9997
tp1921
a(S'your'
p1922
g19
F0.9937
tp1923
a(S'cake'
p1924
g80
F0.9968
tp1925
a(S'and'
p1926
g194
F0.9977
tp1927
a(S'sis'
p1928
g80
F0.9004
tp1929
a(g44
g62
F0.7067
tp1930
a(S'cake'
p1931
g80
F0.9583
tp1932
asI232
(lp1933
(S'and'
p1934
g194
F0.9988
tp1935
a(S'my'
p1936
g19
F0.9903
tp1937
a(S'cake'
p1938
g80
F0.999
tp1939
asI233
(lp1940
(S'yeah'
p1941
g68
F0.9988
tp1942
asI234
(lp1943
(S'sis'
p1944
g80
F0.8115
tp1945
a(g44
g62
F0.6996
tp1946
a(S'cake'
p1947
g80
F0.9836
tp1948
asI235
(lp1949
(S'yeah'
p1950
g68
F0.9959
tp1951
a(S'who'
p1952
g33
F0.9959
tp1953
a(g44
g3
F0.5386
tp1954
a(S'gonna'
p1955
g3
F0.991
tp1956
a(S'make'
p1957
g3
F0.9999
tp1958
a(S'it'
p1959
g33
F0.8669
tp1960
asI236
(lp1961
(S'chi'
p1962
g68
F0.4684
tp1963
asI237
(lp1964
(S'and'
p1965
g194
F0.9985
tp1966
a(S'sis'
p1967
g80
F0.94
tp1968
a(S'and'
p1969
g194
F0.9973
tp1970
a(S'and'
p1971
g194
F0.9986
tp1972
a(S'you'
p1973
g33
F0.9978
tp1974
asI238
(lp1975
(S'um'
p1976
g68
F0.9326
tp1977
a(S'auntie'
p1978
g80
F0.5094
tp1979
a(S'valerie'
p1980
g28
F0.8172
tp1981
asI239
(lp1982
(S'xxx'
p1983
g13
F0.8437
tp1984
asI240
(lp1985
(S'no'
p1986
g68
F0.9253
tp1987
asI241
(lp1988
(S'xxx'
p1989
g13
F0.6944
tp1990
a(S'uncle'
p1991
g80
F0.8376
tp1992
a(S'joey'
p1993
g28
F0.9508
tp1994
asI242
(lp1995
(S'but'
p1996
g194
F0.9924
tp1997
a(S'mind'
p1998
g3
F0.6104
tp1999
a(S'your'
p2000
g19
F0.9818
tp2001
a(S'own'
p2002
g80
F0.5673
tp2003
a(S'business'
p2004
g80
F0.983
tp2005
a(S'sis'
p2006
g80
F0.9789
tp2007
asI243
(lp2008
(S'that'
p2009
g33
F0.473
tp2010
a(g44
g3
F0.4372
tp2011
a(S'not'
p2012
g9
F0.9994
tp2013
a(S'nice'
p2014
g84
F0.9892
tp2015
a(S'to'
p2016
g177
F0.996
tp2017
a(S'say'
p2018
g3
F0.9948
tp2019
asI244
(lp2020
(S'no'
p2021
g68
F0.9253
tp2022
asI245
(lp2023
(S'you'
p2024
g33
F0.9926
tp2025
a(S'don'
p2026
g3
F0.8675
tp2027
a(g254
g80
F0.2326
tp2028
a(S'tell'
p2029
g3
F0.9449
tp2030
a(S'sis'
p2031
g80
F0.9674
tp2032
a(S'to'
p2033
g177
F0.9976
tp2034
a(S'mind'
p2035
g3
F0.9511
tp2036
a(S'her'
p2037
g19
F0.9103
tp2038
a(S'own'
p2039
g80
F0.7452
tp2040
a(S'business'
p2041
g80
F0.9821
tp2042
asI246
(lp2043
(S'no'
p2044
g19
F0.8788
tp2045
a(S'mind'
p2046
g80
F0.9816
tp2047
a(S'your'
p2048
g19
F0.9541
tp2049
a(S'own'
p2050
g84
F0.5176
tp2051
a(S'business'
p2052
g80
F0.9964
tp2053
a(g32
g33
F0.9489
tp2054
a(S'said'
p2055
g3
F0.9985
tp2056
asI247
(lp2057
(S'that'
p2058
g33
F0.473
tp2059
a(g44
g62
F0.4353
tp2060
a(S'not'
p2061
g9
F0.9981
tp2062
a(S'nice'
p2063
g84
F0.9917
tp2064
asI248
(lp2065
(S'that'
p2066
g33
F0.4727
tp2067
a(g44
g62
F0.4353
tp2068
a(S'not'
p2069
g9
F0.9735
tp2070
asI249
(lp2071
(S'mom'
p2072
g80
F0.8127
tp2073
a(S'xxx'
p2074
g13
F0.7828
tp2075
asI250
(lp2076
(S'no'
p2077
g68
F0.7985
tp2078
a(S'you'
p2079
g33
F0.9776
tp2080
a(S're'
p2081
g3
F0.5559
tp2082
a(S'gonna'
p2083
g3
F0.9917
tp2084
a(S'eat'
p2085
g3
F0.9997
tp2086
a(S'your'
p2087
g19
F0.9926
tp2088
a(S'supper'
p2089
g80
F0.9954
tp2090
a(S'please'
p2091
g3
F0.9583
tp2092
asI251
(lp2093
(S'but'
p2094
g194
F0.9948
tp2095
a(g32
g33
F0.9949
tp2096
a(S'already'
p2097
g9
F0.9939
tp2098
a(S'did'
p2099
g3
F0.9934
tp2100
asI252
(lp2101
(S'you'
p2102
g33
F0.997
tp2103
a(S'want'
p2104
g3
F0.9995
tp2105
a(S'more'
p2106
g84
F0.6244
tp2107
asI253
(lp2108
(S'yeah'
p2109
g68
F0.9968
tp2110
a(g32
g33
F0.9966
tp2111
a(S'want'
p2112
g3
F0.9998
tp2113
a(S'macaroni'
p2114
g80
F0.6952
tp2115
asI254
(lp2116
(S'you'
p2117
g33
F0.998
tp2118
a(S'want'
p2119
g3
F0.9995
tp2120
a(S'more'
p2121
g84
F0.7582
tp2122
a(S'macaroni'
p2123
g80
F0.9615
tp2124
asI255
(lp2125
(S'yeah'
p2126
g68
F0.9988
tp2127
asI256
(lp2128
(S'alright'
p2129
g68
F0.8585
tp2130
a(S'here'
p2131
g9
F0.7265
tp2132
asI257
(lp2133
(g32
g33
F0.9635
tp2134
a(S'don'
p2135
g3
F0.9231
tp2136
a(g254
g80
F0.2503
tp2137
a(S'want'
p2138
g3
F0.9988
tp2139
a(S'any'
p2140
g19
F0.8779
tp2141
a(S'more'
p2142
g84
F0.9387
tp2143
a(S'meat'
p2144
g80
F0.9953
tp2145
asI258
(lp2146
(S'you'
p2147
g33
F0.998
tp2148
a(S'want'
p2149
g3
F1.0
tp2150
a(S'you'
p2151
g33
F0.9984
tp2152
a(S'don'
p2153
g3
F0.8611
tp2154
a(g254
g80
F0.2294
tp2155
a(S'want'
p2156
g3
F0.9987
tp2157
a(S'any'
p2158
g19
F0.8995
tp2159
a(S'more'
p2160
g84
F0.9542
tp2161
a(S'meat'
p2162
g80
F0.9972
tp2163
asI259
(lp2164
(S'no'
p2165
g68
F0.9253
tp2166
asI260
(lp2167
(S'chi'
p2168
g62
F0.3949
tp2169
a(S'you'
p2170
g33
F0.98
tp2171
a(S're'
p2172
g3
F0.6994
tp2173
a(S'not'
p2174
g9
F0.9961
tp2175
a(S'eating'
p2176
g3
F0.9979
tp2177
asI261
(lp2178
(S'chi'
p2179
g68
F0.4684
tp2180
asI262
(lp2181
(S'mind'
p2182
g3
F0.5403
tp2183
a(S'your'
p2184
g19
F0.9817
tp2185
a(S'own'
p2186
g80
F0.6556
tp2187
a(S'business'
p2188
g80
F0.9929
tp2189
asI263
(lp2190
(S'please'
p2191
g3
F0.9659
tp2192
a(S'eat'
p2193
g3
F0.9711
tp2194
asI264
(lp2195
(S'would'
p2196
g3
F0.9987
tp2197
a(S'you'
p2198
g33
F0.9948
tp2199
a(S'like'
p2200
g3
F0.942
tp2201
a(S'to'
p2202
g177
F0.9676
tp2203
a(S'go'
p2204
g3
F0.9996
tp2205
a(S'to'
p2206
g177
F0.9846
tp2207
a(S'bed'
p2208
g80
F0.7513
tp2209
asI265
(lp2210
(S'no'
p2211
g68
F0.9253
tp2212
asI266
(lp2213
(S'you'
p2214
g33
F0.9926
tp2215
a(S'don'
p2216
g3
F0.8675
tp2217
a(g254
g80
F0.2326
tp2218
a(S'tell'
p2219
g3
F0.9643
tp2220
a(S'momma'
p2221
g80
F0.8643
tp2222
a(S'to'
p2223
g177
F0.9971
tp2224
a(S'mind'
p2225
g3
F0.9511
tp2226
a(S'her'
p2227
g19
F0.9103
tp2228
a(S'own'
p2229
g80
F0.7452
tp2230
a(S'business'
p2231
g80
F0.9821
tp2232
asI267
(lp2233
(S'babbles'
p2234
g80
F0.4202
tp2235
asI268
(lp2236
(S'bitch'
p2237
g80
F0.8507
tp2238
asI269
(lp2239
(S'what'
p2240
g33
F0.949
tp2241
asI270
(lp2242
(g32
g33
F0.9519
tp2243
a(S'xxx'
p2244
g3
F0.8558
tp2245
a(S'talking'
p2246
g3
F0.9096
tp2247
a(S'xxx'
p2248
g13
F0.3621
tp2249
a(S'give'
p2250
g3
F0.9994
tp2251
a(S'me'
p2252
g33
F0.9987
tp2253
a(S'that'
p2254
g33
F0.4222
tp2255
asI271
(lp2256
(S'give'
p2257
g3
F0.9981
tp2258
a(S'it'
p2259
g33
F0.9911
tp2260
a(S'to'
p2261
g177
F0.9798
tp2262
a(S'me'
p2263
g33
F0.9989
tp2264
a(S'sings'
p2265
g3
F0.9579
tp2266
asI272
(lp2267
(S'uh'
p2268
g68
F0.982
tp2269
a(S'chi'
p2270
g68
F0.5859
tp2271
asI273
(lp2272
(S'0'
p2273
g22
F0.9647
tp2274
a(S'keeps'
p2275
g3
F0.8461
tp2276
a(S'singing'
p2277
g3
F0.9962
tp2278
asI274
(lp2279
(S'over'
p2280
g177
F0.9715
tp2281
a(S'the'
p2282
g19
F0.9992
tp2283
a(S'table'
p2284
g80
F0.9952
tp2285
a(S'please'
p2286
g3
F0.9557
tp2287
asI275
(lp2288
(S'xxx'
p2289
g13
F0.8437
tp2290
asI276
(lp2291
(S'debbie'
p2292
g28
F0.711
tp2293
asI277
(lp2294
(S'screams'
p2295
g3
F0.7508
tp2296
asI278
(lp2297
(S'well'
p2298
g68
F0.741
tp2299
a(S'you'
p2300
g33
F0.9993
tp2301
a(S'put'
p2302
g3
F0.9994
tp2303
a(S'your'
p2304
g19
F0.8167
tp2305
a(S'you'
p2306
g33
F0.9595
tp2307
a(S'bit'
p2308
g3
F0.9149
tp2309
a(S'your'
p2310
g19
F0.9901
tp2311
a(S'finger'
p2312
g80
F0.9986
tp2313
asI279
(lp2314
(S'cries'
p2315
g3
F0.6365
tp2316
asI280
(lp2317
(S'well'
p2318
g68
F0.741
tp2319
a(S'you'
p2320
g33
F0.9986
tp2321
a(S'don'
p2322
g3
F0.8576
tp2323
a(g254
g3
F0.4689
tp2324
a(S'if'
p2325
g177
F0.9984
tp2326
a(S'you'
p2327
g33
F0.9994
tp2328
a(S'use'
p2329
g3
F0.9984
tp2330
a(S'your'
p2331
g19
F0.9935
tp2332
a(S'fork'
p2333
g80
F0.994
tp2334
a(S'you'
p2335
g33
F0.9955
tp2336
a(S'can'
p2337
g3
F0.9993
tp2338
a(g254
g3
F0.6652
tp2339
a(S'bite'
p2340
g3
F0.9858
tp2341
a(S'your'
p2342
g19
F0.9957
tp2343
a(S'finger'
p2344
g80
F0.999
tp2345
a(S'can'
p2346
g3
F0.9989
tp2347
a(S'you'
p2348
g33
F0.9971
tp2349
asI281
(lp2350
(g32
g33
F0.9583
tp2351
a(g32
g33
F0.9336
tp2352
a(S'xxx'
p2353
g3
F0.609
tp2354
a(S'bite'
p2355
g3
F0.985
tp2356
a(S'my'
p2357
g19
F0.9986
tp2358
a(S'finger'
p2359
g80
F0.9921
tp2360
a(S'hard'
p2361
g84
F0.8554
tp2362
a(S'xxx'
p2363
g13
F0.6144
tp2364
asI282
(lp2365
(S'well'
p2366
g68
F0.741
tp2367
a(S'you'
p2368
g33
F0.9966
tp2369
a(S've'
p2370
g3
F0.7458
tp2371
a(S'gotta'
p2372
g3
F0.9946
tp2373
a(S'careful'
p2374
g84
F0.7498
tp2375
a(S'so'
p2376
g177
F0.9585
tp2377
a(S'you'
p2378
g33
F0.9989
tp2379
a(S'don'
p2380
g3
F0.8626
tp2381
a(g254
g80
F0.2856
tp2382
a(S'bite'
p2383
g3
F0.9871
tp2384
a(S'your'
p2385
g19
F0.9959
tp2386
a(S'finger'
p2387
g80
F0.999
tp2388
asI283
(lp2389
(S'if'
p2390
g177
F0.9977
tp2391
a(S'you'
p2392
g33
F0.9993
tp2393
a(S'use'
p2394
g3
F0.9985
tp2395
a(S'your'
p2396
g19
F0.9936
tp2397
a(S'fork'
p2398
g80
F0.994
tp2399
a(S'you'
p2400
g33
F0.996
tp2401
a(S'won'
p2402
g3
F0.978
tp2403
a(g254
g177
F0.3297
tp2404
a(S'bite'
p2405
g3
F0.9828
tp2406
a(S'your'
p2407
g19
F0.9953
tp2408
a(S'finger'
p2409
g80
F0.999
tp2410
asI284
(lp2411
(g32
g33
F0.953
tp2412
a(g313
g3
F0.9784
tp2413
a(S'not'
p2414
g9
F0.9949
tp2415
a(S'biting'
p2416
g3
F0.999
tp2417
a(S'my'
p2418
g19
F0.9975
tp2419
a(S'food'
p2420
g80
F0.9976
tp2421
asI285
(lp2422
(g32
g33
F0.953
tp2423
a(g313
g3
F0.9784
tp2424
a(S'not'
p2425
g9
F0.9949
tp2426
a(S'biting'
p2427
g3
F0.999
tp2428
a(S'my'
p2429
g19
F0.9989
tp2430
a(S'finger'
p2431
g80
F0.9983
tp2432
asI286
(lp2433
(S'alright'
p2434
g68
F0.9364
tp2435
a(S'then'
p2436
g9
F0.9257
tp2437
a(S'use'
p2438
g3
F0.9777
tp2439
a(S'your'
p2440
g19
F0.9936
tp2441
a(S'fork'
p2442
g80
F0.9982
tp2443
a(S'then'
p2444
g9
F0.7863
tp2445
a(S'your'
p2446
g19
F0.9547
tp2447
a(S'finger'
p2448
g80
F0.9988
tp2449
a(S'can'
p2450
g3
F0.9892
tp2451
a(g254
g3
F0.687
tp2452
a(S'get'
p2453
g3
F0.9975
tp2454
a(S'in'
p2455
g177
F0.9633
tp2456
a(S'the'
p2457
g19
F0.9995
tp2458
a(S'way'
p2459
g80
F0.9691
tp2460
asI287
(lp2461
(S'oh'
p2462
g68
F0.9988
tp2463
asI288
(lp2464
(S'see'
p2465
g3
F0.8335
tp2466
asI289
(lp2467
(S'bitch'
p2468
g80
F0.8507
tp2469
asI290
(lp2470
(S'huh'
p2471
g68
F0.993
tp2472
asI291
(lp2473
(S'bitch'
p2474
g80
F0.8507
tp2475
asI292
(lp2476
(S'you'
p2477
g33
F0.9977
tp2478
a(S'saying'
p2479
g3
F0.9993
tp2480
a(S'naughty'
p2481
g84
F0.9925
tp2482
a(S'words'
p2483
g80
F0.9944
tp2484
asI293
(lp2485
(S'no'
p2486
g19
F0.8951
tp2487
a(S'bitch'
p2488
g80
F0.9996
tp2489
a(S'in'
p2490
g177
F0.9986
tp2491
a(S'the'
p2492
g19
F0.9992
tp2493
a(S'cupboard'
p2494
g80
F0.988
tp2495
asI294
(lp2496
(S'xxx'
p2497
g13
F0.8437
tp2498
asI295
(lp2499
(S'happy'
p2500
g84
F0.9949
tp2501
a(S'birthday'
p2502
g80
F0.9928
tp2503
a(g44
g62
F0.7362
tp2504
a(S'coming'
p2505
g3
F0.9735
tp2506
asI296
(lp2507
(S'mhm'
p2508
g68
F0.9747
tp2509
asI297
(lp2510
(S'whose'
p2511
S'L'
p2512
F0.6506
tp2513
a(S'birthday'
p2514
g80
F0.9941
tp2515
a(S'is'
p2516
g3
F0.9989
tp2517
a(S'it'
p2518
g33
F0.9981
tp2519
asI298
(lp2520
(S'mine'
p2521
g33
F0.9042
tp2522
asI299
(lp2523
(S'and'
p2524
g194
F0.9986
tp2525
a(S'who'
p2526
g33
F0.9957
tp2527
a(S'else'
p2528
g9
F0.8291
tp2529
asI300
(lp2530
(S'xxx'
p2531
g13
F0.6436
tp2532
a(S'debbie'
p2533
g28
F0.3856
tp2534
asI301
(lp2535
(S'yeah'
p2536
g68
F0.9916
tp2537
a(S'both'
p2538
g33
F0.4759
tp2539
a(S'of'
p2540
g177
F0.9896
tp2541
a(S'you'
p2542
g33
F0.9985
tp2543
asI302
(lp2544
(S'and'
p2545
g194
F0.9993
tp2546
a(S'yours'
p2547
g33
F0.9488
tp2548
asI303
(lp2549
(S'no'
p2550
g68
F0.8652
tp2551
a(S'my'
p2552
g19
F0.9961
tp2553
a(S'birthday'
p2554
g80
F0.998
tp2555
a(g44
g62
F0.8608
tp2556
a(S'already'
p2557
g9
F0.995
tp2558
a(S'gone'
p2559
g3
F0.8743
tp2560
asI304
(lp2561
(S'who'
p2562
g33
F0.9764
tp2563
asI305
(lp2564
(S'why'
p2565
g9
F0.8527
tp2566
asI306
(lp2567
(S'why'
p2568
g9
F0.8527
tp2569
asI307
(lp2570
(S'because'
p2571
g177
F0.9978
tp2572
a(S'you'
p2573
g33
F0.9996
tp2574
a(S'only'
p2575
g9
F0.8994
tp2576
a(S'have'
p2577
g3
F0.9747
tp2578
a(S'one'
p2579
g22
F0.9116
tp2580
a(S'birthday'
p2581
g80
F0.9928
tp2582
a(g133
g19
F0.9858
tp2583
a(S'year'
p2584
g80
F0.9702
tp2585
asI308
(lp2586
(S'thank'
p2587
g3
F0.6768
tp2588
a(S'god'
p2589
g28
F0.6207
tp2590
asI309
(lp2591
(S'what'
p2592
g33
F0.9835
tp2593
a(S'are'
p2594
g3
F0.9933
tp2595
a(S'we'
p2596
g33
F0.9991
tp2597
a(S'gonna'
p2598
g3
F0.9996
tp2599
a(S'have'
p2600
g3
F0.9994
tp2601
a(S'at'
p2602
g177
F0.9994
tp2603
a(S'the'
p2604
g19
F0.9994
tp2605
a(S'party'
p2606
g80
F0.9881
tp2607
asI310
(lp2608
(S'cake'
p2609
g80
F0.9174
tp2610
a(S'and'
p2611
g194
F0.9979
tp2612
a(S'juice'
p2613
g80
F0.9199
tp2614
a(S'and'
p2615
g194
F0.9972
tp2616
a(S'all'
p2617
g19
F0.5702
tp2618
a(S'the'
p2619
g19
F0.9994
tp2620
a(S'things'
p2621
g80
F0.9972
tp2622
a(S'we'
p2623
g33
F0.9387
tp2624
a(S're'
p2625
g80
F0.5186
tp2626
a(S'gonna'
p2627
g3
F0.9955
tp2628
a(S'have'
p2629
g3
F0.9985
tp2630
asI311
(lp2631
(S'what'
p2632
g33
F0.9725
tp2633
a(S'about'
p2634
g177
F0.9316
tp2635
a(S'xxx'
p2636
g13
F0.5439
tp2637
asI312
(lp2638
(S'you'
p2639
g33
F0.998
tp2640
a(S'want'
p2641
g3
F0.9993
tp2642
a(S'hats'
p2643
g80
F0.9866
tp2644
a(S'and'
p2645
g194
F0.9979
tp2646
a(S'horns'
p2647
g80
F0.9667
tp2648
asI313
(lp2649
(S'where'
p2650
g9
F0.9373
tp2651
a(S'are'
p2652
g3
F0.9637
tp2653
a(S'we'
p2654
g33
F0.9991
tp2655
a(S'gonna'
p2656
g3
F0.9996
tp2657
a(S'find'
p2658
g3
F0.9984
tp2659
a(S'th'
p2660
g3
F0.2642
tp2661
a(S'em'
p2662
g33
F0.9748
tp2663
asI314
(lp2664
(S'at'
p2665
g177
F0.9988
tp2666
a(S'the'
p2667
g19
F0.9994
tp2668
a(S'store'
p2669
g80
F0.9936
tp2670
asI315
(lp2671
(S'the'
p2672
g19
F0.9984
tp2673
a(S'party'
p2674
g80
F0.9668
tp2675
a(S'store'
p2676
g80
F0.9917
tp2677
asI316
(lp2678
(S'what'
p2679
g33
F0.9898
tp2680
a(S'would'
p2681
g3
F0.9997
tp2682
a(S'you'
p2683
g33
F0.9958
tp2684
a(S'like'
p2685
g177
F0.6978
tp2686
a(S'chi'
p2687
g28
F0.4437
tp2688
asI317
(lp2689
(g32
g33
F0.9651
tp2690
asI318
(lp2691
(S'um'
p2692
g68
F0.9361
tp2693
a(S'corn'
p2694
g80
F0.9714
tp2695
asI319
(lp2696
(S'corn'
p2697
g80
F0.9657
tp2698
asI320
(lp2699
(S'no'
p2700
g19
F0.8412
tp2701
a(S'horns'
p2702
g80
F0.9996
tp2703
asI321
(lp2704
(S'oh'
p2705
g68
F0.9897
tp2706
a(S'horn'
p2707
g80
F0.8841
tp2708
a(S'okay'
p2709
g68
F0.8367
tp2710
asI322
(lp2711
(S'and'
p2712
g194
F0.9976
tp2713
a(S'ea'
p2714
g28
F0.3338
tp2715
asI323
(lp2716
(S'and'
p2717
g194
F0.9984
tp2718
a(S'hat'
p2719
g80
F0.8956
tp2720
asI324
(lp2721
(g2273
g22
F0.9641
tp2722
a(S'makes'
p2723
g3
F0.8742
tp2724
a(S'strange'
p2725
g84
F0.9993
tp2726
a(S'noises'
p2727
g80
F0.9965
tp2728
asI325
(lp2729
(S'and'
p2730
g194
F0.9988
tp2731
a(S'what'
p2732
g33
F0.9938
tp2733
a(S'else'
p2734
g9
F0.8909
tp2735
a(S'chi'
p2736
g62
F0.4216
tp2737
asI326
(lp2738
(S'and'
p2739
g194
F0.999
tp2740
a(g32
g33
F0.9943
tp2741
a(S'want'
p2742
g3
F1.0
tp2743
a(g133
g19
F0.9954
tp2744
a(S'balloon'
p2745
g80
F0.9471
tp2746
asI327
(lp2747
(S'do'
p2748
g3
F0.9929
tp2749
a(S'we'
p2750
g33
F0.9992
tp2751
a(S'have'
p2752
g3
F0.9999
tp2753
a(S'any'
p2754
g19
F0.9982
tp2755
a(S'balloons'
p2756
g80
F0.9915
tp2757
a(S'there'
p2758
g9
F0.8799
tp2759
asI328
(lp2760
(S'yeah'
p2761
g68
F0.9988
tp2762
asI329
(lp2763
(S'whispers'
p2764
g80
F0.418
tp2765
asI330
(lp2766
(S'can'
p2767
g3
F0.9946
tp2768
a(S'we'
p2769
g33
F0.987
tp2770
a(S'fly'
p2771
g3
F0.9995
tp2772
a(S'our'
p2773
g19
F0.9977
tp2774
a(S'kite'
p2775
g80
F0.9884
tp2776
asI331
(lp2777
(S'why'
p2778
g9
F0.8527
tp2779
asI332
(lp2780
(S'why'
p2781
g9
F0.8527
tp2782
asI333
(lp2783
(S'because'
p2784
g177
F0.9903
tp2785
a(S'there'
p2786
S'X'
p2787
F0.575
tp2788
a(g44
g62
F0.6572
tp2789
a(S'too'
p2790
g9
F0.9897
tp2791
a(S'many'
p2792
g84
F0.9917
tp2793
a(S'kids'
p2794
g80
F0.9912
tp2795
asI334
(lp2796
(S'chi'
p2797
g28
F0.4479
tp2798
a(S'what'
p2799
g33
F0.9905
tp2800
a(S'do'
p2801
g3
F0.9904
tp2802
a(S'want'
p2803
g3
F0.9871
tp2804
a(S'to'
p2805
g177
F0.9492
tp2806
asI335
(lp2807
(S'sis'
p2808
g80
F0.8954
tp2809
a(S'put'
p2810
g3
F0.9862
tp2811
a(S'the'
p2812
g19
F0.9996
tp2813
a(S'fork'
p2814
g80
F0.9965
tp2815
a(S'down'
p2816
g177
F0.4604
tp2817
a(S'please'
p2818
g3
F0.9537
tp2819
asI336
(lp2820
(S'mommy'
p2821
g80
F0.8045
tp2822
a(g32
g33
F0.8975
tp2823
asI337
(lp2824
(S'do'
p2825
g3
F0.9985
tp2826
a(S'you'
p2827
g33
F0.9997
tp2828
a(S'want'
p2829
g3
F0.9996
tp2830
a(S'more'
p2831
g84
F0.5832
tp2832
asI338
(lp2833
(S'alright'
p2834
g68
F0.8587
tp2835
a(S'wait'
p2836
g3
F0.9872
tp2837
a(S'until'
p2838
g177
F0.9957
tp2839
a(S'chi'
p2840
g28
F0.6553
tp2841
a(S'finishes'
p2842
g3
F0.9461
tp2843
a(S'and'
p2844
g194
F0.9981
tp2845
a(S'then'
p2846
g9
F0.9839
tp2847
a(S'you'
p2848
g33
F0.9995
tp2849
a(S'can'
p2850
g3
F0.9997
tp2851
a(S'have'
p2852
g3
F1.0
tp2853
a(S'your'
p2854
g19
F0.9919
tp2855
a(S'dessert'
p2856
g80
F0.9978
tp2857
asI339
(lp2858
(S'no'
p2859
g68
F0.6532
tp2860
a(g32
g33
F0.9612
tp2861
a(S'want'
p2862
g3
F1.0
tp2863
a(S'my'
p2864
g19
F0.9975
tp2865
a(S'dessert'
p2866
g80
F0.9953
tp2867
a(S'now'
p2868
g9
F0.9895
tp2869
asI340
(lp2870
(S'no'
p2871
g68
F0.7985
tp2872
a(S'you'
p2873
g33
F0.9973
tp2874
a(S'have'
p2875
g3
F0.9996
tp2876
a(S'to'
p2877
g177
F0.9964
tp2878
a(S'wait'
p2879
g3
F0.9991
tp2880
a(S'for'
p2881
g177
F0.9979
tp2882
a(S'chi'
p2883
g28
F0.6633
tp2884
a(S'to'
p2885
g177
F0.9935
tp2886
a(S'finish'
p2887
g3
F0.9905
tp2888
a(S'and'
p2889
g194
F0.9947
tp2890
a(S'momma'
p2891
g80
F0.8207
tp2892
asI341
(lp2893
(g2273
g22
F0.9641
tp2894
a(S'makes'
p2895
g3
F0.9047
tp2896
a(S'defiant'
p2897
g84
F0.7279
tp2898
a(S'noises'
p2899
g80
F0.9985
tp2900
asI342
(lp2901
(S'go'
p2902
g3
F0.9661
tp2903
a(S'watch'
p2904
g3
F0.8979
tp2905
a(S'cartoons'
p2906
g80
F0.9868
tp2907
a(S'until'
p2908
g177
F0.9996
tp2909
a(S'chi'
p2910
g28
F0.7213
tp2911
a(g44
g28
F0.6303
tp2912
a(S'finished'
p2913
g3
F0.9721
tp2914
asI343
(lp2915
(S'chi'
p2916
g68
F0.4684
tp2917
asI344
(lp2918
(S'what'
p2919
g33
F0.949
tp2920
asI345
(lp2921
(S'are'
p2922
g3
F0.9964
tp2923
a(S'you'
p2924
g33
F0.9995
tp2925
a(S'going'
p2926
g3
F0.9997
tp2927
a(S'to'
p2928
g177
F0.9791
tp2929
a(S'school'
p2930
g80
F0.8699
tp2931
a(S'pretty'
p2932
g9
F0.9757
tp2933
a(S'soon'
p2934
g9
F0.9208
tp2935
asI346
(lp2936
(S'yes'
p2937
g68
F0.9958
tp2938
asI347
(lp2939
(S'where'
p2940
g9
F0.9373
tp2941
a(S'are'
p2942
g3
F0.9864
tp2943
a(S'you'
p2944
g33
F0.9997
tp2945
a(S'going'
p2946
g3
F0.9977
tp2947
asI348
(lp2948
(g32
g33
F0.9888
tp2949
a(S'goes'
p2950
g3
F0.9997
tp2951
a(S'to'
p2952
g177
F0.9381
tp2953
a(S'kindergarten'
p2954
g28
F0.6631
tp2955
asI349
(lp2956
(S'no'
p2957
g68
F0.9253
tp2958
asI350
(lp2959
(S'no'
p2960
g68
F0.7121
tp2961
a(S'debbie'
p2962
g80
F0.4889
tp2963
a(g44
g62
F0.4517
tp2964
a(S'going'
p2965
g3
F0.9961
tp2966
a(S'to'
p2967
g177
F0.9729
tp2968
a(S'kindergarten'
p2969
g28
F0.6076
tp2970
a(S'where'
p2971
g9
F0.9733
tp2972
a(S'are'
p2973
g3
F0.983
tp2974
a(S'you'
p2975
g33
F0.9995
tp2976
a(S'going'
p2977
g3
F0.999
tp2978
asI351
(lp2979
(S'she'
p2980
g33
F0.9917
tp2981
a(g44
g3
F0.583
tp2982
a(S'going'
p2983
g3
F0.9982
tp2984
a(S'to'
p2985
g177
F0.9474
tp2986
a(S'head'
p2987
g80
F0.604
tp2988
a(S'start'
p2989
g3
F0.9548
tp2990
asI352
(lp2991
(S'and'
p2992
g194
F0.999
tp2993
a(g32
g33
F0.9891
tp2994
a(g313
g3
F0.983
tp2995
a(S'going'
p2996
g3
F0.9844
tp2997
asI353
(lp2998
(S'where'
p2999
g9
F0.9373
tp3000
a(S'are'
p3001
g3
F0.987
tp3002
a(S'you'
p3003
g33
F0.9997
tp3004
a(S'going'
p3005
g3
F0.9975
tp3006
a(S'chi'
p3007
g28
F0.3516
tp3008
asI354
(lp3009
(g32
g33
F0.9843
tp3010
a(S'go'
p3011
g3
F0.9994
tp3012
a(S'to'
p3013
g177
F0.964
tp3014
a(S'head'
p3015
g80
F0.8479
tp3016
a(S'start'
p3017
g3
F0.9741
tp3018
asI355
(lp3019
(S'that'
p3020
g33
F0.473
tp3021
a(g44
g3
F0.5762
tp3022
a(S'right'
p3023
g9
F0.6561
tp3024
a(S'and'
p3025
g194
F0.998
tp3026
a(S'who'
p3027
g33
F0.9969
tp3028
a(g44
g3
F0.5104
tp3029
a(S'gonna'
p3030
g3
F0.9957
tp3031
a(S'be'
p3032
g3
F0.9999
tp3033
a(S'your'
p3034
g19
F0.9798
tp3035
a(S'teacher'
p3036
g80
F0.9936
tp3037
asI356
(lp3038
(S'miss'
p3039
g3
F0.832
tp3040
a(S'susan'
p3041
g28
F0.9111
tp3042
asI357
(lp3043
(S'miss'
p3044
g3
F0.832
tp3045
a(S'susan'
p3046
g28
F0.9111
tp3047
asI358
(lp3048
(S'do'
p3049
g3
F0.9985
tp3050
a(S'you'
p3051
g33
F0.9989
tp3052
a(S'like'
p3053
g3
F0.806
tp3054
a(S'miss'
p3055
g3
F0.6905
tp3056
a(S'susan'
p3057
g28
F0.9511
tp3058
asI359
(lp3059
(S'yep'
p3060
g68
F0.9977
tp3061
asI360
(lp3062
(S'could'
p3063
g3
F0.9703
tp3064
a(g32
g33
F0.9896
tp3065
a(S'go'
p3066
g3
F0.9996
tp3067
a(S'with'
p3068
g177
F0.9993
tp3069
a(S'it'
p3070
g33
F0.997
tp3071
asI361
(lp3072
(S'are'
p3073
g3
F0.9964
tp3074
a(S'you'
p3075
g33
F0.9994
tp3076
a(S'gonna'
p3077
g3
F0.9997
tp3078
a(S'be'
p3079
g3
F0.9994
tp3080
a(S'glad'
p3081
g84
F0.9695
tp3082
a(S'to'
p3083
g177
F0.996
tp3084
a(S'go'
p3085
g3
F0.9993
tp3086
a(S'back'
p3087
g9
F0.9679
tp3088
a(S'with'
p3089
g177
F0.9992
tp3090
a(S'all'
p3091
g19
F0.5727
tp3092
a(S'the'
p3093
g19
F0.9991
tp3094
a(S'kids'
p3095
g80
F0.9867
tp3096
asI362
(lp3097
(S'yes'
p3098
g68
F0.9958
tp3099
asI363
(lp3100
(S'who'
p3101
g33
F0.9905
tp3102
a(g44
g3
F0.5286
tp3103
a(S'gonna'
p3104
g3
F0.995
tp3105
a(S'drive'
p3106
g3
F0.9863
tp3107
a(S'the'
p3108
g19
F0.9992
tp3109
a(S'bus'
p3110
g80
F0.9782
tp3111
asI364
(lp3112
(S'miss'
p3113
g3
F0.6669
tp3114
a(S'porter'
p3115
g28
F0.8638
tp3116
asI365
(lp3117
(S'miss'
p3118
g3
F0.6669
tp3119
a(S'porter'
p3120
g28
F0.8638
tp3121
asI366
(lp3122
(S'and'
p3123
g194
F0.9987
tp3124
a(S'who'
p3125
g33
F0.9972
tp3126
a(g44
g3
F0.807
tp3127
a(S'on'
p3128
g177
F0.9859
tp3129
a(S'the'
p3130
g19
F0.9993
tp3131
a(S'bus'
p3132
g80
F0.9782
tp3133
asI367
(lp3134
(S'kids'
p3135
g80
F0.7494
tp3136
a(S'all'
p3137
g2787
F0.6883
tp3138
a(S'the'
p3139
g19
F0.9998
tp3140
a(S'kids'
p3141
g80
F0.9886
tp3142
asI368
(lp3143
(S'what'
p3144
g33
F0.9784
tp3145
a(g44
g62
F0.5044
tp3146
a(S'their'
p3147
g19
F0.9883
tp3148
a(S'names'
p3149
g80
F0.9996
tp3150
asI369
(lp3151
(S'teachers'
p3152
g80
F0.9449
tp3153
asI370
(lp3154
(S'no'
p3155
g68
F0.9253
tp3156
asI371
(lp3157
(S'xxx'
p3158
g13
F0.8325
tp3159
a(S'xxx'
p3160
g13
F0.9813
tp3161
asI372
(lp3162
(S'the'
p3163
g19
F0.9989
tp3164
a(S'kids'
p3165
g80
F0.9894
tp3166
asI373
(lp3167
(S'you'
p3168
g33
F0.9962
tp3169
a(S'be'
p3170
g3
F0.9984
tp3171
a(S'quiet'
p3172
g84
F0.9307
tp3173
a(S'xxx'
p3174
g13
F0.7113
tp3175
asI374
(lp3176
(S'what'
p3177
g33
F0.9784
tp3178
a(g44
g62
F0.5951
tp3179
a(S'the'
p3180
g19
F0.9984
tp3181
a(S'kids'
p3182
g80
F0.971
tp3183
a(S'names'
p3184
g80
F0.9579
tp3185
asI375
(lp3186
(S'kids'
p3187
g80
F0.9182
tp3188
asI376
(lp3189
(S'no'
p3190
g68
F0.8168
tp3191
a(S'dika'
p3192
g80
F0.7008
tp3193
asI377
(lp3194
(S'dika'
p3195
g68
F0.6256
tp3196
asI378
(lp3197
(S'and'
p3198
g194
F0.9986
tp3199
a(S'who'
p3200
g33
F0.9957
tp3201
a(S'else'
p3202
g9
F0.8291
tp3203
asI379
(lp3204
(S'tinkerbell'
p3205
g28
F0.7354
tp3206
asI380
(lp3207
(S'and'
p3208
g194
F0.9984
tp3209
a(S'bill'
p3210
g80
F0.9573
tp3211
asI381
(lp3212
(S'bill'
p3213
g80
F0.907
tp3214
asI382
(lp3215
(S'no'
p3216
g68
F0.694
tp3217
a(S'chi'
p3218
g80
F0.6462
tp3219
a(S'not'
p3220
g9
F0.9898
tp3221
a(S'tinkerbell'
p3222
g28
F0.6027
tp3223
a(S'tinkerbell'
p3224
g28
F0.9192
tp3225
a(S'xxx'
p3226
g13
F0.5043
tp3227
a(S'peter'
p3228
g28
F0.992
tp3229
a(S'pan'
p3230
g28
F0.7654
tp3231
asI383
(lp3232
(S'no'
p3233
g68
F0.6532
tp3234
a(g32
g33
F0.9576
tp3235
a(S'think'
p3236
g3
F0.9999
tp3237
a(S'she'
p3238
g33
F0.9647
tp3239
a(S'better'
p3240
g9
F0.8881
tp3241
a(S'come'
p3242
g3
F0.9813
tp3243
a(S'here'
p3244
g9
F0.9874
tp3245
asI384
(lp3246
(S'tinkerbell'
p3247
g28
F0.9487
tp3248
a(S'is'
p3249
g3
F0.9984
tp3250
a(S'with'
p3251
g177
F0.9822
tp3252
a(S'peter'
p3253
g28
F0.9984
tp3254
a(S'pan'
p3255
g28
F0.747
tp3256
asI385
(lp3257
(S'who'
p3258
g33
F0.9764
tp3259
asI386
(lp3260
(S'tinkerbell'
p3261
g28
F0.7354
tp3262
asI387
(lp3263
(S'here'
p3264
g9
F0.9637
tp3265
a(S'comes'
p3266
g3
F0.987
tp3267
a(S'the'
p3268
g19
F0.994
tp3269
a(S'xxx'
p3270
g80
F0.448
tp3271
a(S'yippee'
p3272
g68
F0.899
tp3273
asI388
(lp3274
(g32
g33
F0.9563
tp3275
a(S'xxx'
p3276
g13
F0.605
tp3277
asI389
(lp3278
(S'sis'
p3279
g80
F0.8652
tp3280
asI390
(lp3281
(S'come'
p3282
g3
F0.9843
tp3283
a(S'here'
p3284
g9
F0.9694
tp3285
asI391
(lp3286
(S'did'
p3287
g3
F0.9986
tp3288
a(S'you'
p3289
g33
F0.9996
tp3290
a(S'did'
p3291
g3
F0.9999
tp3292
a(S'you'
p3293
g33
F0.9984
tp3294
a(S'go'
p3295
g3
F0.9986
tp3296
a(S'to'
p3297
g177
F0.9984
tp3298
a(S'the'
p3299
g19
F0.9994
tp3300
a(S'movies'
p3301
g80
F0.9957
tp3302
a(S'with'
p3303
g177
F0.9989
tp3304
a(S'auntie'
p3305
g80
F0.665
tp3306
asI392
(lp3307
(S'yes'
p3308
g68
F0.9958
tp3309
asI393
(lp3310
(S'and'
p3311
g194
F0.9988
tp3312
a(S'what'
p3313
g33
F0.9988
tp3314
a(S'did'
p3315
g3
F0.9992
tp3316
a(S'you'
p3317
g33
F0.9987
tp3318
a(S'see'
p3319
g3
F0.9971
tp3320
asI394
(lp3321
(S'uh'
p3322
g68
F0.9741
tp3323
a(S'peter'
p3324
g28
F0.996
tp3325
a(S'pan'
p3326
g28
F0.7093
tp3327
asI395
(lp3328
(S'peter'
p3329
g28
F0.9971
tp3330
a(S'pan'
p3331
g28
F0.6617
tp3332
asI396
(lp3333
(S'and'
p3334
g194
F0.9983
tp3335
a(S'tinkerbell'
p3336
g28
F0.6767
tp3337
asI397
(lp3338
(S'tinkerbell'
p3339
g28
F0.7354
tp3340
asI398
(lp3341
(S'yep'
p3342
g68
F0.9977
tp3343
asI399
(lp3344
(S'and'
p3345
g194
F0.9976
tp3346
a(S'the'
p3347
g19
F0.9974
tp3348
a(S'pirate'
p3349
g80
F0.9746
tp3350
asI400
(lp3351
(S'mhm'
p3352
g68
F0.9747
tp3353
asI401
(lp3354
(S'no'
p3355
g68
F0.787
tp3356
a(S'not'
p3357
g9
F0.9679
tp3358
a(S'all'
p3359
g2787
F0.6811
tp3360
a(S'the'
p3361
g19
F0.9997
tp3362
a(S'pirates'
p3363
g80
F0.9469
tp3364
asI402
(lp3365
(S'what'
p3366
g33
F0.9965
tp3367
a(S'did'
p3368
g3
F0.9933
tp3369
a(S'peter'
p3370
g28
F0.9973
tp3371
a(S'pan'
p3372
g28
F0.811
tp3373
a(S'do'
p3374
g3
F0.9946
tp3375
asI403
(lp3376
(S'xxx'
p3377
g13
F0.7701
tp3378
a(S'he'
p3379
g33
F0.9917
tp3380
a(S'fly'
p3381
g3
F0.9854
tp3382
a(S'high'
p3383
g84
F0.3985
tp3384
a(S'away'
p3385
g9
F0.9785
tp3386
a(S'like'
p3387
g177
F0.847
tp3388
a(S'that'
p3389
g33
F0.8974
tp3390
asI404
(lp3391
(S'he'
p3392
g33
F0.9916
tp3393
a(S'fly'
p3394
g3
F0.991
tp3395
a(S'away'
p3396
g9
F0.9196
tp3397
asI405
(lp3398
(S'yep'
p3399
g68
F0.9977
tp3400
asI406
(lp3401
(S'really'
p3402
g9
F0.9938
tp3403
asI407
(lp3404
(S'xxx'
p3405
g13
F0.8437
tp3406
asI408
(lp3407
(S'and'
p3408
g194
F0.9988
tp3409
a(S'what'
p3410
g33
F0.9988
tp3411
a(S'did'
p3412
g3
F0.9921
tp3413
a(S'tinkerbell'
p3414
g28
F0.9042
tp3415
a(S'do'
p3416
g3
F0.9893
tp3417
asI409
(lp3418
(S'mm'
p3419
g33
F0.1874
tp3420
a(S'fly'
p3421
g3
F0.9685
tp3422
a(S'high'
p3423
g80
F0.3485
tp3424
a(S'away'
p3425
g9
F0.9184
tp3426
a(S'too'
p3427
g9
F0.9912
tp3428
asI410
(lp3429
(S'where'
p3430
g9
F0.9164
tp3431
a(S'did'
p3432
g3
F0.9919
tp3433
a(S'she'
p3434
g33
F0.9976
tp3435
a(S'fly'
p3436
g3
F0.9479
tp3437
asI411
(lp3438
(S'up'
p3439
g6
F0.7394
tp3440
a(S'there'
p3441
g9
F0.8604
tp3442
a(S'to'
p3443
g177
F0.9986
tp3444
a(S'the'
p3445
g19
F0.9992
tp3446
a(S'sky'
p3447
g80
F0.7556
tp3448
asI412
(lp3449
(S'fly'
p3450
g3
F0.8543
tp3451
a(S'fly'
p3452
g3
F0.7525
tp3453
asI413
(lp3454
(S'no'
p3455
g68
F0.9253
tp3456
asI414
(lp3457
(g32
g33
F0.9893
tp3458
a(S'said'
p3459
g3
F0.9996
tp3460
a(S'to'
p3461
g177
F0.9892
tp3462
a(S'be'
p3463
g3
F0.9994
tp3464
a(S'quiet'
p3465
g84
F0.958
tp3466
a(S'didn'
p3467
g3
F0.2939
tp3468
a(g254
g3
F0.5483
tp3469
a(g32
g33
F0.9886
tp3470
asI415
(lp3471
(S'mommy'
p3472
g80
F0.7607
tp3473
a(g32
g33
F0.9594
tp3474
a(S'can'
p3475
g3
F0.9998
tp3476
a(S'talk'
p3477
g3
F0.9871
tp3478
asI416
(lp3479
(S'no'
p3480
g68
F0.787
tp3481
a(S'not'
p3482
g9
F0.9834
tp3483
a(S'until'
p3484
g177
F0.9929
tp3485
a(g32
g33
F0.9889
tp3486
a(S'after'
p3487
g177
F0.7306
tp3488
a(g32
g33
F0.9986
tp3489
a(S'shut'
p3490
g3
F0.9995
tp3491
a(S'the'
p3492
g19
F0.9993
tp3493
a(S'recorder'
p3494
g80
F0.9994
tp3495
a(S'off'
p3496
g177
F0.7554
tp3497
asI417
(lp3498
(S'chi'
p3499
g28
F0.4479
tp3500
a(S'what'
p3501
g33
F0.9906
tp3502
a(S'does'
p3503
g3
F0.9945
tp3504
a(S'auntie'
p3505
g80
F0.6018
tp3506
a(S'auntie'
p3507
g80
F0.7099
tp3508
a(S'donna'
p3509
g28
F0.4725
tp3510
a(S'have'
p3511
g3
F0.9783
tp3512
asI418
(lp3513
(S'food'
p3514
g80
F0.9401
tp3515
asI419
(lp3516
(S'tinkerbell'
p3517
g28
F0.7354
tp3518
asI420
(lp3519
(S'how'
p3520
g9
F0.9938
tp3521
a(S'many'
p3522
g84
F0.995
tp3523
a(S'kitties'
p3524
g80
F0.9593
tp3525
asI421
(lp3526
(S'tinkerbell'
p3527
g28
F0.7354
tp3528
asI422
(lp3529
(S'two'
p3530
g22
F0.9835
tp3531
a(S'kitties'
p3532
g80
F0.9413
tp3533
asI423
(lp3534
(S'what'
p3535
g33
F0.9784
tp3536
a(g44
g62
F0.5044
tp3537
a(S'their'
p3538
g19
F0.9883
tp3539
a(S'names'
p3540
g80
F0.9996
tp3541
asI424
(lp3542
(S'there'
p3543
g2787
F0.4649
tp3544
a(g44
g62
F0.5391
tp3545
a(S'ting'
p3546
g80
F0.9241
tp3547
asI425
(lp3548
(S'ting'
p3549
g80
F0.8775
tp3550
asI426
(lp3551
(S'and'
p3552
g194
F0.9983
tp3553
a(S'chelsea'
p3554
g28
F0.8474
tp3555
asI427
(lp3556
(S'and'
p3557
g194
F0.9983
tp3558
a(S'chelsea'
p3559
g28
F0.8474
tp3560
asI428
(lp3561
(S'and'
p3562
g194
F0.998
tp3563
a(S'xxx'
p3564
g13
F0.6761
tp3565
asI429
(lp3566
(S'stay'
p3567
g3
F0.8532
tp3568
a(S'in'
p3569
g177
F0.9046
tp3570
a(S'there'
p3571
g9
F0.8146
tp3572
a(S'until'
p3573
g177
F0.9961
tp3574
a(g32
g33
F0.9961
tp3575
a(S'finish'
p3576
g3
F0.9988
tp3577
asI430
(lp3578
(S'babbling'
p3579
g3
F0.9317
tp3580
asI431
(lp3581
(S'what'
p3582
g33
F0.9784
tp3583
a(g44
g62
F0.5951
tp3584
a(S'the'
p3585
g19
F0.9979
tp3586
a(S'kitties'
p3587
g80
F0.7772
tp3588
a(S'names'
p3589
g80
F0.9692
tp3590
a(S'chi'
p3591
g62
F0.5098
tp3592
asI432
(lp3593
(S'chelsea'
p3594
g28
F0.9659
tp3595
a(S'and'
p3596
g194
F0.9977
tp3597
a(S'kitty'
p3598
g80
F0.9684
tp3599
asI433
(lp3600
(S'no'
p3601
g68
F0.6511
tp3602
a(S'chelsea'
p3603
g28
F0.5446
tp3604
a(S'and'
p3605
g194
F0.9981
tp3606
a(S'ting'
p3607
g80
F0.9284
tp3608
asI434
(lp3609
(S'chelsea'
p3610
g28
F0.8232
tp3611
asI435
(lp3612
(S'and'
p3613
g194
F0.9986
tp3614
a(S'ting'
p3615
g80
F0.8885
tp3616
asI436
(lp3617
(S'and'
p3618
g194
F0.9987
tp3619
a(S'who'
p3620
g33
F0.9972
tp3621
a(g44
g3
F0.7355
tp3622
a(S'the'
p3623
g19
F0.9994
tp3624
a(S'other'
p3625
g84
F0.9871
tp3626
a(S'kitty'
p3627
g80
F0.9825
tp3628
asI437
(lp3629
(S'ting'
p3630
g80
F0.8775
tp3631
asI438
(lp3632
(S'quincy'
p3633
g28
F0.9449
tp3634
asI439
(lp3635
(S'quincy'
p3636
g28
F0.9449
tp3637
asI440
(lp3638
(S'xxx'
p3639
g13
F0.7728
tp3640
a(g32
g33
F0.9854
tp3641
a(S'have'
p3642
g3
F0.9998
tp3643
a(S'to'
p3644
g177
F0.9979
tp3645
a(S'get'
p3646
g3
F0.9994
tp3647
a(S'xxx'
p3648
g13
F0.7665
tp3649
asI441
(lp3650
(S'can'
p3651
g3
F0.9755
tp3652
a(g32
g33
F0.9832
tp3653
a(S'get'
p3654
g3
F0.9997
tp3655
a(S'one'
p3656
g22
F0.9009
tp3657
a(S'thing'
p3658
g80
F0.9946
tp3659
asI442
(lp3660
(S'what'
p3661
g33
F0.7628
tp3662
a(S'color'
p3663
g80
F0.9919
tp3664
a(S'is'
p3665
g3
F0.9979
tp3666
a(S'the'
p3667
g19
F0.9838
tp3668
a(S'are'
p3669
g3
F0.9126
tp3670
a(S'the'
p3671
g19
F0.9939
tp3672
a(S'kitties'
p3673
g80
F0.8512
tp3674
asI443
(lp3675
(g32
g33
F0.9908
tp3676
a(S'know'
p3677
g3
F0.9994
tp3678
a(S'what'
p3679
g33
F0.9891
tp3680
a(S'they'
p3681
g33
F0.9934
tp3682
a(S'are'
p3683
g3
F0.9994
tp3684
asI444
(lp3685
(S'black'
p3686
g84
F0.7029
tp3687
a(S'laughs'
p3688
g80
F0.8226
tp3689
asI445
(lp3690
(S'come'
p3691
g3
F0.9897
tp3692
a(S'on'
p3693
g177
F0.8541
tp3694
a(S'now'
p3695
g9
F0.99
tp3696
a(S'answer'
p3697
g3
F0.9762
tp3698
a(S'me'
p3699
g33
F0.9871
tp3700
a(S'nice'
p3701
g84
F0.991
tp3702
asI446
(lp3703
(S'what'
p3704
g33
F0.7628
tp3705
a(S'color'
p3706
g80
F0.9745
tp3707
a(S'are'
p3708
g3
F0.9756
tp3709
a(S'the'
p3710
g19
F0.9946
tp3711
a(S'kitties'
p3712
g80
F0.8289
tp3713
asI447
(lp3714
(S'uh'
p3715
g68
F0.9594
tp3716
a(S'there'
p3717
g9
F0.4575
tp3718
a(g44
g62
F0.8712
tp3719
a(S'xxx'
p3720
g13
F0.6136
tp3721
asI448
(lp3722
(S'nah'
p3723
g68
F0.9921
tp3724
asI449
(lp3725
(S'xxx'
p3726
g13
F0.8437
tp3727
asI450
(lp3728
(S'babbles'
p3729
g80
F0.4202
tp3730
asI451
(lp3731
(S'uh'
p3732
g68
F0.9824
tp3733
a(S'where'
p3734
g9
F0.9386
tp3735
a(g44
g62
F0.7607
tp3736
a(S'she'
p3737
g33
F0.995
tp3738
a(S'talking'
p3739
g3
F0.9914
tp3740
asI452
(lp3741
(S'in'
p3742
g177
F0.9342
tp3743
a(S'here'
p3744
g9
F0.7641
tp3745
a(S'act'
p3746
g3
F0.5727
tp3747
a(S'pats'
p3748
g28
F0.5963
tp3749
a(S'recorder'
p3750
g80
F0.945
tp3751
asI453
(lp3752
(S'in'
p3753
g177
F0.9914
tp3754
a(S'the'
p3755
g19
F0.999
tp3756
a(S'recorder'
p3757
g80
F0.9987
tp3758
asI454
(lp3759
(S'can'
p3760
g3
F0.9755
tp3761
a(g32
g33
F0.9836
tp3762
a(S'hear'
p3763
g3
F0.9996
tp3764
a(S'it'
p3765
g33
F0.9791
tp3766
asI455
(lp3767
(S'after'
p3768
g177
F0.979
tp3769
a(S'we'
p3770
g33
F0.9991
tp3771
a(S're'
p3772
g3
F0.6389
tp3773
a(S'through'
p3774
g177
F0.9793
tp3775
a(S'hear'
p3776
g3
F0.986
tp3777
a(S'it'
p3778
g33
F0.9814
tp3779
asI456
(lp3780
(S'chi'
p3781
g68
F0.4684
tp3782
asI457
(lp3783
(S'what'
p3784
g33
F0.949
tp3785
asI458
(lp3786
(S'what'
p3787
g33
F0.7628
tp3788
a(S'color'
p3789
g80
F0.9745
tp3790
a(S'are'
p3791
g3
F0.9851
tp3792
a(S'auntie'
p3793
g80
F0.7323
tp3794
a(g44
g62
F0.6391
tp3795
a(S'kitties'
p3796
g80
F0.6953
tp3797
asI459
(lp3798
(S'you'
p3799
g33
F0.9983
tp3800
a(S'know'
p3801
g3
F0.9986
tp3802
a(S'what'
p3803
g33
F0.9852
tp3804
a(g32
g33
F0.9928
tp3805
a(S'can'
p3806
g3
F0.9999
tp3807
a(S'do'
p3808
g3
F0.9994
tp3809
asI460
(lp3810
(S'brown'
p3811
g28
F0.517
tp3812
asI461
(lp3813
(S'chi'
p3814
g28
F0.6035
tp3815
a(S'answer'
p3816
g3
F0.9661
tp3817
a(S'me'
p3818
g33
F0.9912
tp3819
a(S'nice'
p3820
g84
F0.9919
tp3821
asI462
(lp3822
(S'what'
p3823
g33
F0.7628
tp3824
a(S'color'
p3825
g80
F0.9745
tp3826
a(S'are'
p3827
g3
F0.9851
tp3828
a(S'auntie'
p3829
g80
F0.7323
tp3830
a(g44
g62
F0.6391
tp3831
a(S'kitties'
p3832
g80
F0.6953
tp3833
asI463
(lp3834
(S'kitty'
p3835
g80
F0.8679
tp3836
asI464
(lp3837
(S'what'
p3838
g33
F0.9654
tp3839
a(S'what'
p3840
g33
F0.995
tp3841
a(S'are'
p3842
g3
F0.9958
tp3843
a(S'they'
p3844
g33
F0.9951
tp3845
a(S'are'
p3846
g3
F0.9998
tp3847
a(S'they'
p3848
g33
F0.8303
tp3849
a(S'black'
p3850
g84
F0.9087
tp3851
asI465
(lp3852
(S'yup'
p3853
g68
F0.9978
tp3854
asI466
(lp3855
(S'no'
p3856
g68
F0.8412
tp3857
a(S'they'
p3858
g33
F0.9091
tp3859
a(S're'
p3860
g3
F0.6866
tp3861
a(S'not'
p3862
g9
F0.9941
tp3863
asI467
(lp3864
(S'not'
p3865
g9
F0.9974
tp3866
a(S'black'
p3867
g84
F0.9676
tp3868
asI468
(lp3869
(g32
g33
F0.9908
tp3870
a(S'know'
p3871
g3
F0.9994
tp3872
a(S'what'
p3873
g33
F0.9891
tp3874
a(S'they'
p3875
g33
F0.9934
tp3876
a(S'are'
p3877
g3
F0.9994
tp3878
asI469
(lp3879
(g32
g33
F0.9912
tp3880
a(S'know'
p3881
g3
F0.9989
tp3882
asI470
(lp3883
(S'no'
p3884
g68
F0.6532
tp3885
a(g32
g33
F0.9261
tp3886
a(S'don'
p3887
g3
F0.9187
tp3888
a(g254
g80
F0.2247
tp3889
a(S'want'
p3890
g3
F0.9995
tp3891
a(S'you'
p3892
g33
F0.9989
tp3893
a(S'to'
p3894
g177
F0.9793
tp3895
a(S'answer'
p3896
g3
F0.8825
tp3897
a(S'honey'
p3898
g80
F0.8037
tp3899
asI471
(lp3900
(S'now'
p3901
g9
F0.9923
tp3902
a(S'be'
p3903
g3
F0.9913
tp3904
a(S'quiet'
p3905
g84
F0.9292
tp3906
asI472
(lp3907
(S'chi'
p3908
g28
F0.4479
tp3909
a(S'what'
p3910
g33
F0.7267
tp3911
a(S'color'
p3912
g80
F0.9801
tp3913
a(S'are'
p3914
g3
F0.9789
tp3915
a(S'auntie'
p3916
g80
F0.6387
tp3917
a(g44
g62
F0.6955
tp3918
a(S'kitties'
p3919
g80
F0.714
tp3920
asI473
(lp3921
(S'whines'
p3922
g3
F0.5694
tp3923
asI474
(lp3924
(S'uh'
p3925
g68
F0.9765
tp3926
a(S'xxx'
p3927
g13
F0.7807
tp3928
asI475
(lp3929
(S'they'
p3930
g33
F0.909
tp3931
a(S're'
p3932
g3
F0.708
tp3933
a(S'white'
p3934
g84
F0.7948
tp3935
asI476
(lp3936
(S'they'
p3937
g33
F0.909
tp3938
a(S're'
p3939
g3
F0.708
tp3940
a(S'white'
p3941
g84
F0.7948
tp3942
asI477
(lp3943
(S'and'
p3944
g194
F0.9981
tp3945
a(S'orange'
p3946
g84
F0.9376
tp3947
asI478
(lp3948
(S'and'
p3949
g194
F0.9981
tp3950
a(S'orange'
p3951
g84
F0.9376
tp3952
asI479
(lp3953
(S'know'
p3954
g3
F0.9511
tp3955
a(S'what'
p3956
g33
F0.9922
tp3957
asI480
(lp3958
(S'one'
p3959
g22
F0.961
tp3960
a(S'kitty'
p3961
g80
F0.9897
tp3962
a(S'is'
p3963
g3
F0.995
tp3964
a(S'orange'
p3965
g84
F0.9759
tp3966
a(S'and'
p3967
g194
F0.9928
tp3968
a(S'the'
p3969
g19
F0.9184
tp3970
a(S'and'
p3971
g194
F0.998
tp3972
a(S'those'
p3973
g19
F0.9179
tp3974
a(S'other'
p3975
g84
F0.9958
tp3976
a(S'two'
p3977
g22
F0.9507
tp3978
a(S'two'
p3979
g22
F0.973
tp3980
a(S'kitties'
p3981
g80
F0.9195
tp3982
a(S'are'
p3983
g3
F0.9879
tp3984
a(S'are'
p3985
g3
F0.9645
tp3986
a(S'are'
p3987
g3
F0.9733
tp3988
a(S'white'
p3989
g84
F0.9568
tp3990
asI481
(lp3991
(S'that'
p3992
g33
F0.4727
tp3993
a(g44
g3
F0.5427
tp3994
a(S'right'
p3995
g68
F0.3487
tp3996
asI482
(lp3997
(S'and'
p3998
g194
F0.9981
tp3999
a(S'orange'
p4000
g84
F0.9867
tp4001
a(S'kitty'
p4002
g80
F0.9963
tp4003
asI483
(lp4004
(S'xxx'
p4005
g13
F0.6358
tp4006
a(S'white'
p4007
g84
F0.9323
tp4008
asI484
(lp4009
(S'an'
p4010
g19
F0.9647
tp4011
a(S'orange'
p4012
g84
F0.9502
tp4013
a(S'kitty'
p4014
g80
F0.9963
tp4015
asI485
(lp4016
(S'chi'
p4017
g28
F0.7269
tp4018
a(S'do'
p4019
g3
F0.999
tp4020
a(S'you'
p4021
g33
F0.9997
tp4022
a(S'want'
p4023
g3
F0.9981
tp4024
a(S'dessert'
p4025
g80
F0.9355
tp4026
asI486
(lp4027
(S'yep'
p4028
g68
F0.9977
tp4029
asI487
(lp4030
(S'you'
p4031
g33
F0.998
tp4032
a(S'have'
p4033
g3
F0.9994
tp4034
a(S'to'
p4035
g177
F0.9959
tp4036
a(S'eat'
p4037
g3
F0.9996
tp4038
a(S'your'
p4039
g19
F0.9937
tp4040
a(S'meat'
p4041
g80
F0.9916
tp4042
a(S'and'
p4043
g194
F0.9975
tp4044
a(S'macaroni'
p4045
g80
F0.6959
tp4046
asI488
(lp4047
(g32
g33
F0.9586
tp4048
a(g313
g3
F0.9298
tp4049
a(S'sorry'
p4050
g84
F0.8759
tp4051
asI489
(lp4052
(S'xxx'
p4053
g13
F0.8437
tp4054
asI490
(lp4055
(S'don'
p4056
g28
F0.5427
tp4057
a(g254
g28
F0.549
tp4058
a(S'touch'
p4059
g3
F0.8403
tp4060
a(S'those'
p4061
g19
F0.5149
tp4062
a(S'those'
p4063
g33
F0.5856
tp4064
a(S'are'
p4065
g3
F0.9923
tp4066
a(S'dangerous'
p4067
g84
F0.9975
tp4068
asI491
(lp4069
(S'xxx'
p4070
g13
F0.8437
tp4071
asI492
(lp4072
(S'don'
p4073
g28
F0.5427
tp4074
a(g254
g28
F0.549
tp4075
a(S'touch'
p4076
g3
F0.8119
tp4077
a(S'those'
p4078
g33
F0.6905
tp4079
a(S'please'
p4080
g3
F0.9887
tp4081
asI493
(lp4082
(g32
g33
F0.9914
tp4083
a(S'was'
p4084
g3
F0.9996
tp4085
a(S'trying'
p4086
g3
F0.9962
tp4087
a(S'to'
p4088
g177
F0.9966
tp4089
a(S'reach'
p4090
g3
F0.9983
tp4091
asI494
(lp4092
(S'you'
p4093
g33
F0.998
tp4094
a(S'want'
p4095
g3
F0.9999
tp4096
a(g133
g19
F0.9901
tp4097
a(S'bite'
p4098
g80
F0.9959
tp4099
a(S'of'
p4100
g177
F0.9975
tp4101
a(S'this'
p4102
g33
F0.5992
tp4103
asI495
(lp4104
(S'what'
p4105
g33
F0.9956
tp4106
a(S'is'
p4107
g3
F0.9997
tp4108
a(S'it'
p4109
g33
F0.9986
tp4110
asI496
(lp4111
(S'onion'
p4112
g80
F0.6733
tp4113
asI497
(lp4114
(g32
g33
F0.9635
tp4115
a(S'don'
p4116
g3
F0.9231
tp4117
a(g254
g3
F0.4066
tp4118
a(S'like'
p4119
g177
F0.8897
tp4120
a(S'onions'
p4121
g80
F0.9809
tp4122
asI498
(lp4123
(g32
g33
F0.9718
tp4124
a(S'like'
p4125
g3
F0.7435
tp4126
a(S'onions'
p4127
g80
F0.9901
tp4128
asI499
(lp4129
(S'do'
p4130
g3
F0.9985
tp4131
a(S'you'
p4132
g33
F0.9996
tp4133
a(S'have'
p4134
g3
F0.9999
tp4135
a(g133
g19
F0.998
tp4136
a(S'fork'
p4137
g80
F0.9911
tp4138
a(S'chi'
p4139
g62
F0.4201
tp4140
asI500
(lp4141
(S'hey'
p4142
g68
F0.9978
tp4143
a(S'what'
p4144
g33
F0.9989
tp4145
a(S'is'
p4146
g3
F0.9993
tp4147
a(S'that'
p4148
g33
F0.9272
tp4149
asI501
(lp4150
(S'what'
p4151
g33
F0.9962
tp4152
a(S'is'
p4153
g3
F0.9992
tp4154
a(S'that'
p4155
g33
F0.9425
tp4156
a(S'there'
p4157
g9
F0.6949
tp4158
asI502
(lp4159
(S'that'
p4160
g33
F0.4727
tp4161
a(g44
g62
F0.3685
tp4162
a(S'meat'
p4163
g80
F0.9696
tp4164
asI503
(lp4165
(S'chi'
p4166
g28
F0.4076
tp4167
a(S'wh'
p4168
g62
F0.4363
tp4169
asI504
(lp4170
(S'xxx'
p4171
g13
F0.8437
tp4172
asI505
(lp4173
(S'you'
p4174
g33
F0.9983
tp4175
a(S'know'
p4176
g3
F0.9986
tp4177
a(S'what'
p4178
g33
F0.9936
tp4179
a(g44
g62
F0.5914
tp4180
a(S'gonna'
p4181
g3
F0.9938
tp4182
a(S'happen'
p4183
g3
F0.9998
tp4184
a(S'when'
p4185
g9
F0.9761
tp4186
a(S'we'
p4187
g33
F0.9901
tp4188
a(S'comb'
p4189
g3
F0.9954
tp4190
a(S'your'
p4191
g19
F0.9926
tp4192
a(S'hair'
p4193
g80
F0.9988
tp4194
asI506
(lp4195
(S'what'
p4196
g33
F0.949
tp4197
asI507
(lp4198
(S'it'
p4199
g33
F0.9888
tp4200
a(g44
g3
F0.4178
tp4201
a(S'gonna'
p4202
g3
F0.9926
tp4203
a(S'hurt'
p4204
g3
F0.9842
tp4205
asI508
(lp4206
(S'no'
p4207
g68
F0.9253
tp4208
asI509
(lp4209
(S'because'
p4210
g177
F0.9978
tp4211
a(S'you'
p4212
g33
F0.9977
tp4213
a(S're'
p4214
g3
F0.7623
tp4215
a(S'putting'
p4216
g3
F0.9883
tp4217
a(S'food'
p4218
g80
F0.9934
tp4219
a(S'in'
p4220
g177
F0.9981
tp4221
a(S'your'
p4222
g19
F0.9962
tp4223
a(S'hair'
p4224
g80
F0.9985
tp4225
asI510
(lp4226
(S'xxx'
p4227
g13
F0.7728
tp4228
a(g32
g33
F0.9572
tp4229
a(g313
g3
F0.9772
tp4230
a(S'not'
p4231
g9
F0.9922
tp4232
asI511
(lp4233
(S'where'
p4234
g9
F0.9493
tp4235
asI512
(lp4236
(g32
g33
F0.9902
tp4237
a(S'want'
p4238
g3
F1.0
tp4239
a(S'it'
p4240
g33
F0.9905
tp4241
asI513
(lp4242
(S'xxx'
p4243
g13
F0.8437
tp4244
asI514
(lp4245
(S'there'
p4246
g2787
F0.4664
tp4247
a(g44
g62
F0.5367
tp4248
a(S'no'
p4249
g19
F0.7957
tp4250
a(S'macaroni'
p4251
g80
F0.9958
tp4252
a(S'in'
p4253
g177
F0.9969
tp4254
a(S'my'
p4255
g19
F0.9985
tp4256
a(S'hair'
p4257
g80
F0.9979
tp4258
asI515
(lp4259
(S'xxx'
p4260
g13
F0.8437
tp4261
asI516
(lp4262
(S'babbling'
p4263
g3
F0.9317
tp4264
asI517
(lp4265
(S'sings'
p4266
g3
F0.719
tp4267
asI518
(lp4268
(S'what'
p4269
g33
F0.9835
tp4270
a(S'are'
p4271
g3
F0.9976
tp4272
a(S'you'
p4273
g33
F0.9994
tp4274
a(S'doing'
p4275
g3
F0.9994
tp4276
asI519
(lp4277
(g32
g33
F0.9896
tp4278
a(S'had'
p4279
g3
F0.9998
tp4280
a(S'to'
p4281
g177
F0.9507
tp4282
a(S'xxx'
p4283
g13
F0.5952
tp4284
asI520
(lp4285
(S'you'
p4286
g33
F0.9983
tp4287
a(S'know'
p4288
g3
F0.9977
tp4289
a(S'what'
p4290
g33
F0.9541
tp4291
a(S'mommy'
p4292
g80
F0.9422
tp4293
asI521
(lp4294
(g32
g33
F0.9563
tp4295
a(S'xxx'
p4296
g13
F0.605
tp4297
asI522
(lp4298
(g2273
g22
F0.9723
tp4299
a(S'singing'
p4300
g3
F0.9858
tp4301
a(S'loudly'
p4302
g9
F0.8024
tp4303
asI523
(lp4304
(S'chi'
p4305
g68
F0.4684
tp4306
asI524
(lp4307
(S'no'
p4308
g68
F0.9253
tp4309
asI525
(lp4310
(S'eat'
p4311
g3
F0.99
tp4312
a(S'your'
p4313
g19
F0.9934
tp4314
a(S'supper'
p4315
g80
F0.9977
tp4316
a(S'please'
p4317
g3
F0.9348
tp4318
asI526
(lp4319
(g32
g33
F0.9881
tp4320
a(S'do'
p4321
g3
F0.9996
tp4322
a(S'xxx'
p4323
g13
F0.775
tp4324
asI527
(lp4325
(S'xxx'
p4326
g13
F0.8437
tp4327
asI528
(lp4328
(S'yes'
p4329
g68
F0.9958
tp4330
asI529
(lp4331
(S'now'
p4332
g9
F0.9613
tp4333
asI530
(lp4334
(S'in'
p4335
g177
F0.9543
tp4336
a(g133
g19
F0.9971
tp4337
a(S'few'
p4338
g84
F0.8652
tp4339
a(S'minutes'
p4340
g80
F0.9979
tp4341
asI531
(lp4342
(S'come'
p4343
g3
F0.9897
tp4344
a(S'on'
p4345
g177
F0.9231
tp4346
a(S'chi'
p4347
g28
F0.8082
tp4348
a(S'if'
p4349
g177
F0.9989
tp4350
a(S'you'
p4351
g33
F0.9998
tp4352
a(S'want'
p4353
g3
F0.999
tp4354
asI532
(lp4355
(S'xxx'
p4356
g13
F0.8437
tp4357
asI533
(lp4358
(S'well'
p4359
g68
F0.8573
tp4360
a(g32
g33
F0.9915
tp4361
a(g313
g3
F0.9421
tp4362
a(S'sorry'
p4363
g84
F0.6068
tp4364
a(S'you'
p4365
g33
F0.9924
tp4366
a(S're'
p4367
g3
F0.5665
tp4368
a(S'gonna'
p4369
g3
F0.9909
tp4370
a(S'have'
p4371
g3
F0.9997
tp4372
a(S'to'
p4373
g177
F0.9964
tp4374
a(S'wait'
p4375
g3
F0.9993
tp4376
a(S'until'
p4377
g177
F0.9973
tp4378
a(S'chi'
p4379
g28
F0.7018
tp4380
a(g44
g28
F0.5848
tp4381
a(S'finished'
p4382
g3
F0.9849
tp4383
asI534
(lp4384
(S'no'
p4385
g68
F0.7985
tp4386
a(S'you'
p4387
g33
F0.9928
tp4388
a(S'don'
p4389
g3
F0.8576
tp4390
a(g254
g3
F0.5485
tp4391
a(S'you'
p4392
g33
F0.9986
tp4393
a(S'don'
p4394
g3
F0.8626
tp4395
a(g254
g80
F0.2172
tp4396
a(S'have'
p4397
g3
F0.9978
tp4398
a(S'to'
p4399
g177
F0.9964
tp4400
a(S'wait'
p4401
g3
F0.9991
tp4402
a(S'for'
p4403
g177
F0.998
tp4404
a(S'chi'
p4405
g28
F0.7183
tp4406
a(S'xxx'
p4407
g13
F0.6133
tp4408
asI535
(lp4409
(S'chi'
p4410
g28
F0.5882
tp4411
a(S'come'
p4412
g3
F0.9926
tp4413
a(S'on'
p4414
g6
F0.7116
tp4415
asI536
(lp4416
(S'it'
p4417
g33
F0.9888
tp4418
a(g44
g3
F0.5104
tp4419
a(S'almost'
p4420
g9
F0.9479
tp4421
a(S'time'
p4422
g80
F0.904
tp4423
a(S'for'
p4424
g177
F0.999
tp4425
a(S'dessert'
p4426
g80
F0.9431
tp4427
asI537
(lp4428
(S'xxx'
p4429
g13
F0.8437
tp4430
asI538
(lp4431
(S'chi'
p4432
g28
F0.7199
tp4433
a(S'are'
p4434
g3
F0.9965
tp4435
a(S'you'
p4436
g33
F0.9997
tp4437
a(S'finished'
p4438
g3
F0.9974
tp4439
asI539
(lp4440
(S'yep'
p4441
g68
F0.9977
tp4442
asI540
(lp4443
(S'oh'
p4444
g68
F0.9988
tp4445
asI541
(lp4446
(S'no'
p4447
g68
F0.7985
tp4448
a(S'you'
p4449
g33
F0.978
tp4450
a(S're'
p4451
g3
F0.6994
tp4452
a(S'not'
p4453
g9
F0.9941
tp4454
asI542
(lp4455
(S'my'
p4456
g19
F0.7906
tp4457
a(S'my'
p4458
g19
F0.6568
tp4459
a(S'xxx'
p4460
g80
F0.6853
tp4461
asI543
(lp4462
(S'come'
p4463
g3
F0.9849
tp4464
a(S'on'
p4465
g177
F0.7661
tp4466
a(S'honey'
p4467
g80
F0.9317
tp4468
asI544
(lp4469
(S'what'
p4470
g33
F0.9784
tp4471
a(g44
g62
F0.5501
tp4472
a(S'momma'
p4473
g80
F0.8658
tp4474
a(S'got'
p4475
g3
F0.9728
tp4476
asI545
(lp4477
(S'xxx'
p4478
g13
F0.8437
tp4479
asI546
(lp4480
(S'no'
p4481
g68
F0.871
tp4482
a(S'what'
p4483
g33
F0.9819
tp4484
a(g44
g3
F0.4541
tp4485
a(S'this'
p4486
g33
F0.6912
tp4487
asI547
(lp4488
(S'what'
p4489
g33
F0.9784
tp4490
a(g44
g3
F0.4504
tp4491
a(S'this'
p4492
g33
F0.537
tp4493
a(S'chi'
p4494
g62
F0.4664
tp4495
asI548
(lp4496
(S'coffee'
p4497
g80
F0.9635
tp4498
asI549
(lp4499
(S'and'
p4500
g194
F0.9987
tp4501
a(S'who'
p4502
g33
F0.9866
tp4503
a(S'drinks'
p4504
g80
F0.6448
tp4505
a(S'coffee'
p4506
g80
F0.9989
tp4507
asI550
(lp4508
(S'you'
p4509
g33
F0.9627
tp4510
asI551
(lp4511
(S'yeah'
p4512
g68
F0.9962
tp4513
a(S'but'
p4514
g194
F0.9908
tp4515
a(S'who'
p4516
g33
F0.9986
tp4517
a(S'am'
p4518
g3
F0.965
tp4519
a(g32
g33
F0.9923
tp4520
asI552
(lp4521
(S'momma'
p4522
g68
F0.4579
tp4523
asI553
(lp4524
(S'and'
p4525
g194
F0.9987
tp4526
a(S'only'
p4527
g9
F0.5198
tp4528
a(S'mommas'
p4529
g80
F0.4979
tp4530
a(S'and'
p4531
g194
F0.9969
tp4532
a(S'daddies'
p4533
g80
F0.8903
tp4534
a(S'drink'
p4535
g3
F0.8471
tp4536
a(S'coffee'
p4537
g80
F0.9943
tp4538
asI554
(lp4539
(S'yeah'
p4540
g68
F0.9988
tp4541
asI555
(lp4542
(S'not'
p4543
g9
F0.9689
tp4544
a(S'children'
p4545
g80
F0.856
tp4546
asI556
(lp4547
(S'sings'
p4548
g3
F0.719
tp4549
asI557
(lp4550
(S'chi'
p4551
g68
F0.4684
tp4552
asI558
(lp4553
(S'you'
p4554
g33
F0.9754
tp4555
a(S're'
p4556
g3
F0.756
tp4557
a(S'playing'
p4558
g3
F0.9989
tp4559
a(S'with'
p4560
g177
F0.9992
tp4561
a(S'your'
p4562
g19
F0.9956
tp4563
a(S'food'
p4564
g80
F0.997
tp4565
a(S'and'
p4566
g194
F0.9967
tp4567
a(S'you'
p4568
g33
F0.9966
tp4569
a(S're'
p4570
g3
F0.7653
tp4571
a(S'not'
p4572
g9
F0.9966
tp4573
a(S'gonna'
p4574
g3
F0.9959
tp4575
a(S'get'
p4576
g3
F1.0
tp4577
a(S'your'
p4578
g19
F0.995
tp4579
a(S'dessert'
p4580
g80
F0.9978
tp4581
asI559
(lp4582
(g32
g33
F0.9635
tp4583
a(S'don'
p4584
g3
F0.9231
tp4585
a(g254
g80
F0.3137
tp4586
a(S'want'
p4587
g3
F0.974
tp4588
a(S'dessert'
p4589
g80
F0.9355
tp4590
asI560
(lp4591
(S'you'
p4592
g33
F0.9926
tp4593
a(S'don'
p4594
g3
F0.8675
tp4595
a(g254
g80
F0.2503
tp4596
a(S'want'
p4597
g3
F0.9988
tp4598
a(S'any'
p4599
g19
F0.9619
tp4600
a(S'nice'
p4601
g84
F0.9924
tp4602
a(S'chocolate'
p4603
g80
F0.9815
tp4604
a(S'and'
p4605
g194
F0.9978
tp4606
a(S'strawberry'
p4607
g80
F0.7519
tp4608
a(S'and'
p4609
g194
F0.9979
tp4610
a(S'vanilla'
p4611
g80
F0.864
tp4612
a(S'ice'
p4613
g80
F0.9445
tp4614
a(S'cream'
p4615
g80
F0.9632
tp4616
asI561
(lp4617
(S'no'
p4618
g68
F0.9253
tp4619
asI562
(lp4620
(S'what'
p4621
g33
F0.8373
tp4622
a(S'kind'
p4623
g80
F0.9635
tp4624
a(S'of'
p4625
g177
F0.9958
tp4626
a(S'ice'
p4627
g80
F0.726
tp4628
a(S'cream'
p4629
g80
F0.9692
tp4630
a(S'do'
p4631
g3
F0.9305
tp4632
a(g32
g33
F0.9967
tp4633
a(S'have'
p4634
g3
F0.9993
tp4635
asI563
(lp4636
(S'chocolate'
p4637
g80
F0.919
tp4638
a(S'ice'
p4639
g80
F0.8996
tp4640
a(S'cream'
p4641
g80
F0.9774
tp4642
asI564
(lp4643
(S'chi'
p4644
g28
F0.6985
tp4645
a(S'look'
p4646
g3
F0.9401
tp4647
a(S'at'
p4648
g177
F0.9918
tp4649
a(S'momma'
p4650
g80
F0.6385
tp4651
asI565
(lp4652
(S'what'
p4653
g33
F0.8373
tp4654
a(S'kind'
p4655
g80
F0.9635
tp4656
a(S'of'
p4657
g177
F0.9958
tp4658
a(S'ice'
p4659
g80
F0.726
tp4660
a(S'cream'
p4661
g80
F0.9692
tp4662
a(S'do'
p4663
g3
F0.9305
tp4664
a(g32
g33
F0.9967
tp4665
a(S'have'
p4666
g3
F0.9993
tp4667
asI566
(lp4668
(S'strawberry'
p4669
g80
F0.7103
tp4670
asI567
(lp4671
(S'yeah'
p4672
g68
F0.9933
tp4673
a(S'and'
p4674
g194
F0.9986
tp4675
a(S'what'
p4676
g33
F0.92
tp4677
a(S'other'
p4678
g84
F0.9883
tp4679
a(S'kind'
p4680
g80
F0.8559
tp4681
asI568
(lp4682
(S'cookies'
p4683
g80
F0.9814
tp4684
asI569
(lp4685
(S'laughs'
p4686
g3
F0.9102
tp4687
asI570
(lp4688
(S'what'
p4689
g33
F0.7739
tp4690
a(S'other'
p4691
g84
F0.9924
tp4692
a(S'kind'
p4693
g80
F0.9779
tp4694
a(S'of'
p4695
g177
F0.9971
tp4696
a(S'ice'
p4697
g80
F0.7627
tp4698
a(S'cream'
p4699
g80
F0.9692
tp4700
a(S'do'
p4701
g3
F0.9216
tp4702
a(g32
g33
F0.9977
tp4703
a(S'have'
p4704
g3
F0.9995
tp4705
asI571
(lp4706
(S'cookie'
p4707
g80
F0.957
tp4708
asI572
(lp4709
(S'chi'
p4710
g68
F0.4684
tp4711
asI573
(lp4712
(S'babbling'
p4713
g3
F0.9317
tp4714
asI574
(lp4715
(S'chi'
p4716
g28
F0.6564
tp4717
a(S'give'
p4718
g3
F0.9989
tp4719
a(S'me'
p4720
g33
F0.998
tp4721
a(S'the'
p4722
g19
F0.9794
tp4723
a(S'xxx'
p4724
g13
F0.4596
tp4725
asI575
(lp4726
(S'does'
p4727
g3
F0.9922
tp4728
a(S'momma'
p4729
g80
F0.7097
tp4730
a(S'have'
p4731
g3
F0.9946
tp4732
a(S'chocolate'
p4733
g80
F0.9775
tp4734
a(S'ice'
p4735
g80
F0.9383
tp4736
a(S'cream'
p4737
g80
F0.9609
tp4738
asI576
(lp4739
(S'chi'
p4740
g68
F0.4684
tp4741
asI577
(lp4742
(S'babbling'
p4743
g3
F0.9317
tp4744
asI578
(lp4745
(S'what'
p4746
g33
F0.9784
tp4747
a(g44
g62
F0.5951
tp4748
a(S'the'
p4749
g19
F0.9988
tp4750
a(S'matter'
p4751
g80
F0.9785
tp4752
a(S'don'
p4753
g3
F0.4168
tp4754
a(g254
g3
F0.5494
tp4755
a(S'you'
p4756
g33
F0.9991
tp4757
a(S'feel'
p4758
g3
F0.999
tp4759
a(S'like'
p4760
g177
F0.7973
tp4761
a(S'talking'
p4762
g3
F0.7519
tp4763
a(S'today'
p4764
g80
F0.9789
tp4765
asI579
(lp4766
(S'sings'
p4767
g3
F0.719
tp4768
asI580
(lp4769
(S'what'
p4770
g33
F0.9835
tp4771
a(S'are'
p4772
g3
F0.9976
tp4773
a(S'you'
p4774
g33
F0.9997
tp4775
a(S'singing'
p4776
g3
F0.9997
tp4777
asI581
(lp4778
(S'sings'
p4779
g3
F0.719
tp4780
asI582
(lp4781
(S'sings'
p4782
g3
F0.719
tp4783
asI583
(lp4784
(S'do'
p4785
g3
F0.9985
tp4786
a(S'you'
p4787
g33
F0.9996
tp4788
a(S'want'
p4789
g3
F1.0
tp4790
a(S'your'
p4791
g19
F0.9866
tp4792
a(S'dessert'
p4793
g80
F0.9971
tp4794
asI584
(lp4795
(S'what'
p4796
g33
F0.949
tp4797
asI585
(lp4798
(S'do'
p4799
g3
F0.9985
tp4800
a(S'you'
p4801
g33
F0.9996
tp4802
a(S'want'
p4803
g3
F1.0
tp4804
a(S'your'
p4805
g19
F0.9866
tp4806
a(S'dessert'
p4807
g80
F0.9971
tp4808
asI586
(lp4809
(S'xxx'
p4810
g13
F0.8437
tp4811
asI587
(lp4812
(S'huh'
p4813
g68
F0.993
tp4814
asI588
(lp4815
(S'xxx'
p4816
g13
F0.8437
tp4817
asI589
(lp4818
(g32
g33
F0.9892
tp4819
a(S'got'
p4820
g3
F0.9999
tp4821
a(S'some'
p4822
g19
F0.9831
tp4823
a(S'awful'
p4824
g84
F0.9849
tp4825
a(S'nice'
p4826
g84
F0.9895
tp4827
a(S'ice'
p4828
g80
F0.9009
tp4829
a(S'cream'
p4830
g80
F0.9483
tp4831
asI590
(lp4832
(S'it'
p4833
g33
F0.9888
tp4834
a(g44
g3
F0.4623
tp4835
a(S'chocolate'
p4836
g80
F0.9227
tp4837
a(S'strawberry'
p4838
g80
F0.981
tp4839
a(S'and'
p4840
g194
F0.9984
tp4841
a(S'vanilla'
p4842
g80
F0.8991
tp4843
asI591
(lp4844
(S'what'
p4845
g33
F0.949
tp4846
asI592
(lp4847
(S'can'
p4848
g3
F0.999
tp4849
a(S'you'
p4850
g33
F0.9995
tp4851
a(S'say'
p4852
g3
F0.9994
tp4853
a(S'that'
p4854
g33
F0.7647
tp4855
asI593
(lp4856
(S'chocolate'
p4857
g80
F0.8837
tp4858
a(S'strawberry'
p4859
g80
F0.9761
tp4860
a(S'and'
p4861
g194
F0.9954
tp4862
a(S'xxx'
p4863
g13
F0.7529
tp4864
asI594
(lp4865
(S'xxx'
p4866
g13
F0.8437
tp4867
asI595
(lp4868
(S'and'
p4869
g194
F0.9992
tp4870
a(S'no'
p4871
g19
F0.9106
tp4872
a(S'vanilla'
p4873
g80
F0.9992
tp4874
asI596
(lp4875
(S'vanilla'
p4876
g80
F0.7749
tp4877
asI597
(lp4878
(S'and'
p4879
g194
F0.9988
tp4880
a(S'what'
p4881
g33
F0.9909
tp4882
a(S'about'
p4883
g177
F0.994
tp4884
a(S'the'
p4885
g19
F0.9986
tp4886
a(S'strawberry'
p4887
g80
F0.8765
tp4888
asI598
(lp4889
(S'xxx'
p4890
g13
F0.6625
tp4891
a(S'strawberries'
p4892
g80
F0.9908
tp4893
a(S'are'
p4894
g3
F0.9846
tp4895
a(S'bad'
p4896
g84
F0.9935
tp4897
asI599
(lp4898
(S'nope'
p4899
g68
F0.9706
tp4900
a(S'strawberries'
p4901
g80
F0.9878
tp4902
a(S'are'
p4903
g3
F0.9903
tp4904
a(S'good'
p4905
g84
F0.9987
tp4906
asI600
(lp4907
(S'no'
p4908
g68
F0.8412
tp4909
a(S'they'
p4910
g33
F0.9091
tp4911
a(S're'
p4912
g3
F0.7137
tp4913
a(S'bad'
p4914
g84
F0.9658
tp4915
asI601
(lp4916
(S'no'
p4917
g68
F0.9253
tp4918
asI602
(lp4919
(S'good'
p4920
g84
F0.9644
tp4921
asI603
(lp4922
(S'bad'
p4923
g84
F0.937
tp4924
asI604
(lp4925
(S'what'
p4926
g33
F0.9965
tp4927
a(S'did'
p4928
g3
F0.9886
tp4929
a(S'auntie'
p4930
g80
F0.6285
tp4931
a(S'pick'
p4932
g3
F0.9896
tp4933
a(S'off'
p4934
g6
F0.7062
tp4935
a(S'the'
p4936
g19
F0.9998
tp4937
a(S'bushes'
p4938
g80
F0.9952
tp4939
a(S'over'
p4940
g177
F0.9586
tp4941
a(S'in'
p4942
g177
F0.7878
tp4943
a(S'elaine'
p4944
g28
F0.9966
tp4945
a(g44
g62
F0.3914
tp4946
a(S'yard'
p4947
g80
F0.9298
tp4948
asI605
(lp4949
(S'xxx'
p4950
g13
F0.8437
tp4951
asI606
(lp4952
(S'huh'
p4953
g68
F0.993
tp4954
asI607
(lp4955
(S'xxx'
p4956
g13
F0.8437
tp4957
asI608
(lp4958
(S'blueberries'
p4959
g80
F0.9674
tp4960
asI609
(lp4961
(S'strawberries'
p4962
g80
F0.9774
tp4963
asI610
(lp4964
(S'blueberries'
p4965
g80
F0.9362
tp4966
a(S'they'
p4967
g33
F0.8887
tp4968
a(S're'
p4969
g3
F0.6024
tp4970
a(S'blueberries'
p4971
g80
F0.9854
tp4972
asI611
(lp4973
(S'blueberries'
p4974
g80
F0.9674
tp4975
asI612
(lp4976
(S'blueberries'
p4977
g80
F0.9674
tp4978
asI613
(lp4979
(S'blueberries'
p4980
g80
F0.9674
tp4981
asI614
(lp4982
(S'they'
p4983
g33
F0.9104
tp4984
a(S're'
p4985
g3
F0.6417
tp4986
a(S'blueberries'
p4987
g80
F0.9742
tp4988
a(S'blueberries'
p4989
g80
F0.9983
tp4990
asI615
(lp4991
(S'uhhuh'
p4992
g68
F0.9892
tp4993
asI616
(lp4994
(S'they'
p4995
g33
F0.909
tp4996
a(S're'
p4997
g3
F0.6417
tp4998
a(S'blueberries'
p4999
g80
F0.9871
tp5000
asI617
(lp5001
(S'yeah'
p5002
g68
F0.9988
tp5003
asI618
(lp5004
(S'blueberries'
p5005
g80
F0.9674
tp5006
asI619
(lp5007
(S'what'
p5008
g33
F0.9965
tp5009
a(S'did'
p5010
g3
F0.9965
tp5011
a(S'we'
p5012
g33
F0.9965
tp5013
a(S'what'
p5014
g33
F0.9943
tp5015
a(S'did'
p5016
g3
F0.9993
tp5017
a(S'you'
p5018
g33
F0.9989
tp5019
a(S'eat'
p5020
g3
F0.9987
tp5021
a(S'on'
p5022
g177
F0.9848
tp5023
a(S'the'
p5024
g19
F0.9994
tp5025
a(S'beach'
p5026
g80
F0.8911
tp5027
asI620
(lp5028
(S'ice'
p5029
g80
F0.7724
tp5030
a(S'cream'
p5031
g80
F0.9444
tp5032
asI621
(lp5033
(S'yeah'
p5034
g68
F0.9933
tp5035
a(S'and'
p5036
g194
F0.9984
tp5037
a(S'what'
p5038
g33
F0.994
tp5039
a(S'else'
p5040
g9
F0.8885
tp5041
asI622
(lp5042
(S'no'
p5043
g68
F0.787
tp5044
a(S'not'
p5045
g9
F0.9688
tp5046
a(S'ice'
p5047
g80
F0.7326
tp5048
a(S'cream'
p5049
g80
F0.97
tp5050
asI623
(lp5051
(S'where'
p5052
g9
F0.9164
tp5053
a(S'did'
p5054
g3
F0.9916
tp5055
a(S'we'
p5056
g33
F0.9984
tp5057
a(S'go'
p5058
g3
F0.9943
tp5059
asI624
(lp5060
(S'mamma'
p5061
g80
F0.8478
tp5062
a(S'leone'
p5063
g80
F0.5769
tp5064
a(g44
g62
F0.8897
tp5065
asI625
(lp5066
(S'yeah'
p5067
g68
F0.9988
tp5068
asI626
(lp5069
(S'where'
p5070
g9
F0.9493
tp5071
asI627
(lp5072
(S'to'
p5073
g177
F0.9731
tp5074
a(S'mamma'
p5075
g80
F0.795
tp5076
a(S'leone'
p5077
g80
F0.6451
tp5078
a(g44
g62
F0.9045
tp5079
asI628
(lp5080
(g32
g33
F0.9912
tp5081
a(S'know'
p5082
g3
F0.9987
tp5083
a(S'xxx'
p5084
g13
F0.6949
tp5085
asI629
(lp5086
(S'no'
p5087
g19
F0.4724
tp5088
a(S'put'
p5089
g3
F0.7105
tp5090
a(S'your'
p5091
g19
F0.997
tp5092
a(S'hand'
p5093
g80
F0.9985
tp5094
a(S'down'
p5095
g9
F0.5559
tp5096
a(S'and'
p5097
g194
F0.9952
tp5098
a(S'tell'
p5099
g3
F0.9563
tp5100
a(S'momma'
p5101
g80
F0.7478
tp5102
asI630
(lp5103
(S'where'
p5104
g9
F0.9164
tp5105
a(S'did'
p5106
g3
F0.9982
tp5107
a(S'you'
p5108
g33
F0.9988
tp5109
a(S'go'
p5110
g3
F0.9907
tp5111
asI631
(lp5112
(S'to'
p5113
g177
F0.9741
tp5114
a(S'xxx'
p5115
g13
F0.4772
tp5116
asI632
(lp5117
(S'chi'
p5118
g28
F0.68
tp5119
a(S'don'
p5120
g28
F0.8746
tp5121
a(g254
g28
F0.5739
tp5122
a(S'mumble'
p5123
g3
F0.5078
tp5124
a(S'look'
p5125
g3
F0.9217
tp5126
a(S'at'
p5127
g177
F0.9988
tp5128
a(S'me'
p5129
g33
F0.9979
tp5130
asI633
(lp5131
(S'me'
p5132
g33
F0.9918
tp5133
asI634
(lp5134
(S'me'
p5135
g33
F0.996
tp5136
a(S'xxx'
p5137
g13
F0.4582
tp5138
a(S'mamma'
p5139
g80
F0.9402
tp5140
a(S'leone'
p5141
g80
F0.5872
tp5142
a(g44
g62
F0.8617
tp5143
asI635
(lp5144
(S'mamma'
p5145
g80
F0.8478
tp5146
a(S'leone'
p5147
g80
F0.6852
tp5148
asI636
(lp5149
(S'mamma'
p5150
g80
F0.8478
tp5151
a(S'leone'
p5152
g80
F0.6852
tp5153
asI637
(lp5154
(S'alright'
p5155
g68
F0.8721
tp5156
a(S'say'
p5157
g3
F0.9951
tp5158
a(S'it'
p5159
g33
F0.9575
tp5160
a(S'loud'
p5161
g84
F0.9723
tp5162
asI638
(lp5163
(S'xxx'
p5164
g13
F0.8437
tp5165
asI639
(lp5166
(S'mamma'
p5167
g80
F0.8478
tp5168
a(S'leone'
p5169
g80
F0.5769
tp5170
a(g44
g62
F0.8897
tp5171
asI640
(lp5172
(S'mamma'
p5173
g80
F0.8478
tp5174
a(S'leone'
p5175
g80
F0.5769
tp5176
a(g44
g62
F0.8897
tp5177
asI641
(lp5178
(S'okay'
p5179
g68
F0.9857
tp5180
asI642
(lp5181
(S'and'
p5182
g194
F0.9986
tp5183
a(S'did'
p5184
g3
F0.9996
tp5185
a(S'you'
p5186
g33
F0.9986
tp5187
a(S'go'
p5188
g3
F0.9985
tp5189
a(S'in'
p5190
g177
F0.9819
tp5191
a(S'the'
p5192
g19
F0.999
tp5193
a(S'water'
p5194
g80
F0.9946
tp5195
asI643
(lp5196
(S'no'
p5197
g68
F0.9253
tp5198
asI644
(lp5199
(S'why'
p5200
g9
F0.8527
tp5201
asI645
(lp5202
(g32
g33
F0.9756
tp5203
a(S'didn'
p5204
g3
F0.9919
tp5205
a(g254
g3
F0.7474
tp5206
a(S'go'
p5207
g3
F0.9897
tp5208
a(S'in'
p5209
g177
F0.9819
tp5210
a(S'the'
p5211
g19
F0.999
tp5212
a(S'water'
p5213
g80
F0.9946
tp5214
asI646
(lp5215
(S'stop'
p5216
g3
F0.9629
tp5217
a(S'that'
p5218
g33
F0.7368
tp5219
a(S'yelling'
p5220
g3
F0.9995
tp5221
a(S'why'
p5222
g9
F0.9791
tp5223
a(S'didn'
p5224
g3
F0.8107
tp5225
a(g254
g3
F0.943
tp5226
a(S'you'
p5227
g33
F0.9991
tp5228
a(S'go'
p5229
g3
F0.9987
tp5230
a(S'in'
p5231
g177
F0.9904
tp5232
a(S'the'
p5233
g19
F0.9992
tp5234
a(S'water'
p5235
g80
F0.9961
tp5236
asI647
(lp5237
(S'be'
p5238
g3
F0.9922
tp5239
a(S'because'
p5240
g177
F0.9828
tp5241
a(g32
g33
F0.9924
tp5242
a(S'don'
p5243
g3
F0.9208
tp5244
a(g254
g3
F0.4265
tp5245
a(S'like'
p5246
g177
F0.506
tp5247
a(S'to'
p5248
g177
F0.9648
tp5249
a(S'xxx'
p5250
g3
F0.7735
tp5251
a(S'the'
p5252
g19
F0.9965
tp5253
a(S'waves'
p5254
g80
F0.9841
tp5255
asI648
(lp5256
(S'you'
p5257
g33
F0.9911
tp5258
a(S'didn'
p5259
g3
F0.9886
tp5260
a(g254
g3
F0.8986
tp5261
a(S'like'
p5262
g177
F0.96
tp5263
a(S'the'
p5264
g19
F0.9947
tp5265
a(S'waves'
p5266
g80
F0.9908
tp5267
asI649
(lp5268
(S'no'
p5269
g68
F0.9253
tp5270
asI650
(lp5271
(S'those'
p5272
g33
F0.64
tp5273
a(S'were'
p5274
g3
F0.9817
tp5275
a(S'nice'
p5276
g84
F0.9974
tp5277
a(S'waves'
p5278
g80
F0.9736
tp5279
asI651
(lp5280
(S'they'
p5281
g33
F0.9104
tp5282
a(S're'
p5283
g3
F0.7345
tp5284
a(S'bad'
p5285
g84
F0.9685
tp5286
a(S'waves'
p5287
g80
F0.9834
tp5288
asI652
(lp5289
(S'no'
p5290
g68
F0.9253
tp5291
asI653
(lp5292
(S'xxx'
p5293
g13
F0.6488
tp5294
a(S'bad'
p5295
g84
F0.9922
tp5296
a(S'waves'
p5297
g80
F0.9789
tp5298
asI654
(lp5299
(S'did'
p5300
g3
F0.9986
tp5301
a(S'you'
p5302
g33
F0.9987
tp5303
a(S'play'
p5304
g3
F0.9984
tp5305
a(S'on'
p5306
g177
F0.9789
tp5307
a(S'the'
p5308
g19
F0.9834
tp5309
a(S'the'
p5310
g19
F0.9638
tp5311
a(S'sand'
p5312
g80
F0.9747
tp5313
asI655
(lp5314
(S'no'
p5315
g68
F0.9253
tp5316
asI656
(lp5317
(S'where'
p5318
g9
F0.9164
tp5319
a(S'did'
p5320
g3
F0.9982
tp5321
a(S'you'
p5322
g33
F0.9991
tp5323
a(S'play'
p5324
g3
F0.992
tp5325
asI657
(lp5326
(S'on'
p5327
g177
F0.993
tp5328
a(S'the'
p5329
g19
F0.9994
tp5330
a(S'sand'
p5331
g80
F0.9856
tp5332
asI658
(lp5333
(S'and'
p5334
g194
F0.9988
tp5335
a(S'what'
p5336
g33
F0.9988
tp5337
a(S'did'
p5338
g3
F0.9992
tp5339
a(S'you'
p5340
g33
F0.9987
tp5341
a(S'make'
p5342
g3
F0.9962
tp5343
asI659
(lp5344
(S'cake'
p5345
g80
F0.9559
tp5346
asI660
(lp5347
(S'cakes'
p5348
g80
F0.9794
tp5349
asI661
(lp5350
(S'yep'
p5351
g68
F0.9977
tp5352
asI662
(lp5353
(S'oh'
p5354
g68
F0.9988
tp5355
asI663
(lp5356
(S'and'
p5357
g194
F0.9986
tp5358
a(S'did'
p5359
g3
F0.9982
tp5360
a(S'we'
p5361
g33
F0.9979
tp5362
a(S'go'
p5363
g3
F0.9997
tp5364
a(S'out'
p5365
g6
F0.4648
tp5366
a(S'did'
p5367
g3
F0.9687
tp5368
a(S'we'
p5369
g33
F0.9988
tp5370
a(S'have'
p5371
g3
F0.9982
tp5372
a(S'pizza'
p5373
g80
F0.9927
tp5374
asI664
(lp5375
(S'yes'
p5376
g68
F0.9958
tp5377
asI665
(lp5378
(S'and'
p5379
g194
F0.9988
tp5380
a(S'what'
p5381
g33
F0.9926
tp5382
a(S'else'
p5383
g9
F0.8864
tp5384
a(S'did'
p5385
g3
F0.9934
tp5386
a(S'we'
p5387
g33
F0.9989
tp5388
a(S'have'
p5389
g3
F0.9989
tp5390
asI666
(lp5391
(S'pizza'
p5392
g80
F0.9285
tp5393
a(S'and'
p5394
g194
F0.9979
tp5395
a(S'powder'
p5396
g80
F0.9744
tp5397
asI667
(lp5398
(S'we'
p5399
g33
F0.9942
tp5400
a(S'didn'
p5401
g3
F0.9879
tp5402
a(g254
g3
F0.7162
tp5403
a(S'have'
p5404
g3
F0.9771
tp5405
a(S'powder'
p5406
g80
F0.9787
tp5407
asI668
(lp5408
(S'xxx'
p5409
g13
F0.8437
tp5410
asI669
(lp5411
(S'can'
p5412
g3
F0.9755
tp5413
a(g32
g33
F0.9904
tp5414
a(S'have'
p5415
g3
F0.9994
tp5416
a(S'dessert'
p5417
g80
F0.9923
tp5418
asI670
(lp5419
(S'you'
p5420
g33
F0.9969
tp5421
a(S'can'
p5422
g3
F0.9997
tp5423
a(S'have'
p5424
g3
F1.0
tp5425
a(S'your'
p5426
g19
F0.9917
tp5427
a(S'dessert'
p5428
g80
F0.9984
tp5429
a(S'in'
p5430
g177
F0.9972
tp5431
a(S'one'
p5432
g22
F0.9654
tp5433
a(S'minute'
p5434
g80
F0.9222
tp5435
asI671
(lp5436
(S'are'
p5437
g3
F0.9964
tp5438
a(S'you'
p5439
g33
F0.9994
tp5440
a(S'gonna'
p5441
g3
F0.9996
tp5442
a(S'have'
p5443
g3
F0.9999
tp5444
a(S'your'
p5445
g19
F0.9913
tp5446
a(S'dessert'
p5447
g80
F0.9974
tp5448
asI672
(lp5449
(S'xxx'
p5450
g13
F0.8437
tp5451
asI673
(lp5452
(S'chi'
p5453
g68
F0.4684
tp5454
asI674
(lp5455
(S'you'
p5456
g33
F0.998
tp5457
a(S'have'
p5458
g3
F0.9994
tp5459
a(S'to'
p5460
g177
F0.9959
tp5461
a(S'eat'
p5462
g3
F0.9993
tp5463
a(S'your'
p5464
g19
F0.9934
tp5465
a(S'meat'
p5466
g80
F0.9953
tp5467
asI675
(lp5468
(S'eat'
p5469
g3
F0.9893
tp5470
a(S'your'
p5471
g19
F0.9928
tp5472
a(S'chicken'
p5473
g80
F0.986
tp5474
asI676
(lp5475
(g32
g33
F0.9635
tp5476
a(S'don'
p5477
g3
F0.9231
tp5478
a(g254
g80
F0.3137
tp5479
a(S'want'
p5480
g3
F0.9991
tp5481
a(S'it'
p5482
g33
F0.9893
tp5483
asI677
(lp5484
(S'come'
p5485
g3
F0.9897
tp5486
a(S'on'
p5487
g177
F0.936
tp5488
a(S'eat'
p5489
g3
F0.9485
tp5490
a(S'it'
p5491
g33
F0.9892
tp5492
a(S'like'
p5493
g177
F0.7692
tp5494
a(g133
g19
F0.9882
tp5495
a(S'good'
p5496
g84
F0.9993
tp5497
a(S'girl'
p5498
g80
F0.9969
tp5499
asI678
(lp5500
(S'mind'
p5501
g3
F0.5403
tp5502
a(S'your'
p5503
g19
F0.9817
tp5504
a(S'own'
p5505
g80
F0.6556
tp5506
a(S'business'
p5507
g80
F0.9929
tp5508
asI679
(lp5509
(S'what'
p5510
g33
F0.9835
tp5511
a(S'are'
p5512
g3
F0.9976
tp5513
a(S'you'
p5514
g33
F0.9996
tp5515
a(S'saying'
p5516
g3
F0.9986
tp5517
asI680
(lp5518
(S'mind'
p5519
g80
F0.451
tp5520
a(S'your'
p5521
g19
F0.9542
tp5522
a(S'own'
p5523
g80
F0.7963
tp5524
asI681
(lp5525
(g32
g33
F0.989
tp5526
a(S'told'
p5527
g3
F1.0
tp5528
a(S'you'
p5529
g33
F0.9963
tp5530
a(S'that'
p5531
g177
F0.564
tp5532
a(g44
g62
F0.5027
tp5533
a(S'not'
p5534
g9
F0.999
tp5535
a(S'nice'
p5536
g84
F0.9949
tp5537
asI682
(lp5538
(S'you'
p5539
g33
F0.9926
tp5540
a(S'don'
p5541
g3
F0.8675
tp5542
a(g254
g80
F0.2326
tp5543
a(S'tell'
p5544
g3
F0.9643
tp5545
a(S'momma'
p5546
g80
F0.8643
tp5547
a(S'to'
p5548
g177
F0.9971
tp5549
a(S'mind'
p5550
g3
F0.9511
tp5551
a(S'her'
p5552
g19
F0.9103
tp5553
a(S'own'
p5554
g80
F0.7452
tp5555
a(S'business'
p5556
g80
F0.9821
tp5557
asI683
(lp5558
(S'xxx'
p5559
g13
F0.8437
tp5560
asI684
(lp5561
(S'well'
p5562
g68
F0.7958
tp5563
a(S'then'
p5564
g9
F0.9605
tp5565
a(S'it'
p5566
g33
F0.9966
tp5567
a(S'looks'
p5568
g3
F0.999
tp5569
a(S'like'
p5570
g177
F0.9739
tp5571
a(S'no'
p5572
g19
F0.9676
tp5573
a(S'dessert'
p5574
g80
F0.9993
tp5575
a(S'for'
p5576
g177
F0.9999
tp5577
a(S'you'
p5578
g33
F0.999
tp5579
asI685
(lp5580
(S'xxx'
p5581
g13
F0.5672
tp5582
a(S'for'
p5583
g177
F0.9953
tp5584
a(S'sis'
p5585
g80
F0.9521
tp5586
asI686
(lp5587
(S'whispers'
p5588
g80
F0.418
tp5589
asI687
(lp5590
(S'you'
p5591
g33
F0.9983
tp5592
a(S'know'
p5593
g3
F0.9986
tp5594
a(S'what'
p5595
g33
F0.9863
tp5596
a(S'she'
p5597
g33
F0.9987
tp5598
a(S'said'
p5599
g3
F0.9977
tp5600
asI688
(lp5601
(S'are'
p5602
g3
F0.9963
tp5603
a(S'you'
p5604
g33
F0.9996
tp5605
a(S'finished'
p5606
g3
F0.9987
tp5607
asI689
(lp5608
(S'yep'
p5609
g68
F0.9977
tp5610
asI690
(lp5611
(S'alright'
p5612
g68
F0.9864
tp5613
asI691
(lp5614
(S'you'
p5615
g33
F0.9983
tp5616
a(S'know'
p5617
g3
F0.9986
tp5618
a(S'what'
p5619
g33
F0.9863
tp5620
a(S'she'
p5621
g33
F0.9987
tp5622
a(S'said'
p5623
g3
F0.9977
tp5624
as.