(dp0
I128
(lp1
(S'want'
p2
S'V'
p3
F0.9993
tp4
a(S'me'
p5
S'O'
p6
F0.9985
tp7
a(S'to'
p8
S'P'
p9
F0.9189
tp10
a(S'go'
p11
g3
F0.9992
tp12
a(S'with'
p13
g9
F0.9988
tp14
a(S'you'
p15
g6
F0.9984
tp16
a(S'?'
p17
S','
p18
F0.9994
tp19
asI257
(lp20
(S"don't"
p21
g3
F0.9985
tp22
a(S'spill'
p23
g3
F0.9964
tp24
a(S'the'
p25
S'D'
p26
F0.9985
tp27
a(S'crumbs'
p28
S'N'
p29
F0.8435
tp30
a(S'on'
p31
g9
F0.9956
tp32
a(S"Mommy's"
p33
S'Z'
p34
F0.8332
tp35
a(S'floor'
p36
g29
F0.9846
tp37
a(S'.'
p38
g18
F0.999
tp39
asI132
(lp40
(S'mhm'
p41
S'!'
p42
F0.9761
tp43
a(g38
g18
F0.9962
tp44
asI262
(lp45
(S'okay'
p46
g42
F0.9732
tp47
a(g17
g18
F0.9976
tp48
asI135
(lp49
(S'go'
p50
g3
F0.9861
tp51
a(S'to'
p52
g9
F0.9987
tp53
a(S'the'
p54
g26
F0.9988
tp55
a(S'beach'
p56
g29
F0.9434
tp57
a(g17
g18
F0.9989
tp58
asI300
(lp59
(S'the'
p60
g26
F0.9983
tp61
a(S'knife'
p62
g29
F0.9914
tp63
a(g38
g18
F0.9983
tp64
asI266
(lp65
(S'you'
p66
g6
F0.9968
tp67
a(S'gonna'
p68
g3
F0.9996
tp69
a(S'put'
p70
g3
F0.9995
tp71
a(S'it'
p72
g6
F0.9778
tp73
a(S'in'
p74
g9
F0.977
tp75
a(S'the'
p76
g26
F0.9971
tp77
a(S'sink'
p78
g29
F0.9809
tp79
a(S'for'
p80
g9
F0.9991
tp81
a(S'Mama'
p82
g29
F0.6192
tp83
a(g17
g18
F0.9979
tp84
asI139
(lp85
(S'want'
p86
g3
F0.9945
tp87
a(S'to'
p88
g9
F0.9951
tp89
a(S'walk'
p90
g3
F0.993
tp91
a(S'on'
p92
g9
F0.9805
tp93
a(S'the'
p94
g26
F0.9993
tp95
a(S'beach'
p96
g29
F0.9084
tp97
a(g17
g18
F0.9986
tp98
asI288
(lp99
(S'good'
p100
S'A'
p101
F0.9939
tp102
a(S'boy'
p103
g29
F0.9984
tp104
a(g38
g18
F0.9982
tp105
asI275
(lp106
(S'good'
p107
g101
F0.9939
tp108
a(S'boy'
p109
g29
F0.9984
tp110
a(g38
g18
F0.9982
tp111
asI143
(lp112
(S'after'
p113
g9
F0.9419
tp114
a(S'Tuesday'
p115
S'^'
p116
F0.9907
tp117
a(S'Park'
p118
g116
F0.9758
tp119
a(g17
g18
F0.9975
tp120
asI16
(lp121
(S'Chi'
p122
g116
F0.8114
tp123
a(S"what're"
p124
S'L'
p125
F0.3026
tp126
a(S'you'
p127
g6
F0.9989
tp128
a(S'doing'
p129
g3
F0.9988
tp130
a(g17
g18
F0.9974
tp131
asI303
(lp132
(S'put'
p133
g3
F0.9914
tp134
a(S'it'
p135
g6
F0.9844
tp136
a(S'in'
p137
g9
F0.9581
tp138
a(S'the'
p139
g26
F0.997
tp140
a(S'sink'
p141
g29
F0.9954
tp142
a(g38
g18
F0.9985
tp143
asI147
(lp144
(S'xxx'
p145
S'E'
p146
F0.5822
tp147
a(g38
g18
F0.9648
tp148
asI148
(lp149
(S'zzz'
p150
g42
F0.3756
tp151
a(g38
g18
F0.9972
tp152
asI21
(lp153
(S'you'
p154
g6
F0.9956
tp155
a(S'eating'
p156
g3
F0.9989
tp157
a(S'breakfast'
p158
g29
F0.9715
tp159
a(S'(.)'
p160
S'G'
p161
F0.3471
tp162
a(g17
g18
F0.9912
tp163
asI279
(lp164
(S'put'
p165
g3
F0.9914
tp166
a(S'it'
p167
g6
F0.9844
tp168
a(S'in'
p169
g9
F0.7173
tp170
a(S'easy'
p171
g101
F0.9823
tp172
a(g38
g18
F0.9987
tp173
asI152
(lp174
(S'Tuesday'
p175
g116
F0.9722
tp176
a(S'xxx'
p177
g146
F0.3874
tp178
a(S'too'
p179
S'R'
p180
F0.9694
tp181
a(S'['
p182
g18
F0.983
tp183
a(g17
g18
F0.9879
tp184
a(S']'
p185
g18
F0.888
tp186
a(g38
g18
F0.9959
tp187
asI25
(lp188
(S'what'
p189
g6
F0.9835
tp190
a(S'are'
p191
g3
F0.9978
tp192
a(S'you'
p193
g6
F0.9994
tp194
a(S'eating'
p195
g3
F0.9971
tp196
a(g17
g18
F0.9974
tp197
asI282
(lp198
(S"don't"
p199
g3
F0.9994
tp200
a(S'drop'
p201
g3
F0.9995
tp202
a(S'it'
p203
g6
F0.9273
tp204
a(S'hard'
p205
g101
F0.8781
tp206
a(S'('
p207
g18
F0.9933
tp208
a(S'be)cause'
p209
g9
F0.9965
tp210
a(S'it'
p211
g6
F0.9991
tp212
a(S'would'
p213
g3
F0.9986
tp214
a(S'break'
p215
g3
F0.9969
tp216
a(S'alright'
p217
g42
F0.5752
tp218
a(g17
g18
F0.9981
tp219
asI155
(lp220
(S'yeah'
p221
g42
F0.9988
tp222
a(g17
g18
F0.9966
tp223
asI29
(lp224
(S'I'
p225
g6
F0.9976
tp226
a(S"don't"
p227
g3
F1.0
tp228
a(S'want'
p229
g3
F1.0
tp230
a(S'it'
p231
g6
F0.988
tp232
a(g38
g18
F0.9989
tp233
asI32
(lp234
(S'you'
p235
g6
F0.9956
tp236
a(S'eating'
p237
g3
F0.9985
tp238
a(S'waffles'
p239
g29
F0.9982
tp240
a(g17
g18
F0.9974
tp241
asI36
(lp242
(S'and'
p243
S'&'
p244
F0.9981
tp245
a(S'orange'
p246
g101
F0.9792
tp247
a(S'juice'
p248
g29
F0.997
tp249
a(g17
g18
F0.9971
tp250
asI165
(lp251
(S'oh'
p252
g42
F0.9987
tp253
a(S'yeah'
p254
g42
F0.9997
tp255
a(g17
g18
F0.9973
tp256
asI272
(lp257
(S'thank'
p258
g3
F0.9631
tp259
a(S'you'
p260
g6
F0.9987
tp261
a(g38
g18
F0.9995
tp262
asI40
(lp263
(S'you'
p264
g6
F0.9896
tp265
a(S'<'
p266
S'~'
p267
F0.4736
tp268
a(S"don't>"
p269
g3
F0.9908
tp270
a(g182
g18
F0.9833
tp271
a(S'>'
p272
g146
F0.4438
tp273
a(g185
g18
F0.7918
tp274
a(S'want'
p275
g3
F0.999
tp276
a(S'no'
p277
g26
F0.5656
tp278
a(S'more'
p279
g101
F0.427
tp280
a(g17
g18
F0.9978
tp281
asI169
(lp282
(g266
g267
F0.9385
tp283
a(S'what'
p284
g6
F0.992
tp285
a(S'will'
p286
g3
F0.9924
tp287
a(S'happen'
p288
g3
F0.9995
tp289
a(S'will'
p290
g3
F0.9918
tp291
a(S'he'
p292
g6
F0.9959
tp293
a(S'get'
p294
g3
F0.9996
tp295
a(S'[/]'
p296
g6
F0.2044
tp297
a(g272
g146
F0.5142
tp298
a(g182
g146
F0.5345
tp299
a(g272
g146
F0.9597
tp300
a(g185
g18
F0.4989
tp301
a(g17
g18
F0.9952
tp302
asI44
(lp303
(g266
g267
F0.9526
tp304
a(g225
g6
F0.9983
tp305
a(S"don't"
p306
g3
F1.0
tp307
a(S'[/]'
p308
g3
F0.3081
tp309
a(g272
g146
F0.553
tp310
a(g182
g146
F0.535
tp311
a(g266
g267
F0.7057
tp312
a(g185
g18
F0.9842
tp313
a(g38
g18
F0.9969
tp314
asI173
(lp315
(g266
g267
F0.97
tp316
a(S'xxx'
p317
g146
F0.7306
tp318
a(S'xxx'
p319
g146
F0.9732
tp320
a(S'xxx'
p321
g146
F0.9845
tp322
a(g272
g146
F0.9474
tp323
a(g182
g18
F0.7297
tp324
a(S'<][>'
p325
g146
F0.3942
tp326
a(g185
g18
F0.8888
tp327
a(g38
g18
F0.9969
tp328
asI174
(lp329
(g266
g267
F0.9267
tp330
a(S'Troy'
p331
g116
F0.9905
tp332
a(S'will'
p333
g3
F0.9616
tp334
a(S'get'
p335
g3
F0.9991
tp336
a(g272
g146
F0.4461
tp337
a(g182
g146
F0.535
tp338
a(g266
g267
F0.8293
tp339
a(g185
g18
F0.9884
tp340
a(S'mad'
p341
g101
F0.9626
tp342
a(g38
g18
F0.9981
tp343
asI47
(lp344
(g225
g6
F0.9976
tp345
a(S"don't"
p346
g3
F1.0
tp347
a(S'want'
p348
g3
F1.0
tp349
a(S'it'
p350
g6
F0.988
tp351
a(g38
g18
F0.9989
tp352
asI177
(lp353
(S'huh'
p354
g42
F0.9936
tp355
a(g17
g18
F0.9967
tp356
asI50
(lp357
(S'what'
p358
g6
F0.9171
tp359
a(g17
g18
F0.9924
tp360
asI243
(lp361
(S'xxx'
p362
g146
F0.6791
tp363
a(S'put'
p364
g3
F0.9852
tp365
a(S'this'
p366
g6
F0.6105
tp367
a(S'back'
p368
g180
F0.8272
tp369
a(S'together'
p370
g180
F0.9103
tp371
a(S'(.)'
p372
g146
F0.3827
tp373
a(g17
g18
F0.9711
tp374
asI181
(lp375
(S'what'
p376
g6
F0.9171
tp377
a(g17
g18
F0.9924
tp378
asI310
(lp379
(S'no'
p380
g42
F0.9847
tp381
a(g42
g18
F0.999
tp382
asI55
(lp383
(g225
g6
F0.9983
tp384
a(S'want'
p385
g3
F1.0
tp386
a(S'a'
p387
g26
F0.9957
tp388
a(S'drink'
p389
g29
F0.9974
tp390
a(g42
g18
F0.9986
tp391
asI185
(lp392
(S'Troy'
p393
g116
F0.9844
tp394
a(S'will'
p395
g3
F0.9691
tp396
a(S'get'
p397
g3
F0.9997
tp398
a(S'mad'
p399
g101
F0.9867
tp400
a(g207
g18
F0.9922
tp401
a(S'be)cause'
p402
g9
F0.9986
tp403
a(S'he'
p404
g6
F0.999
tp405
a(S"didn't"
p406
g3
F0.9999
tp407
a(S'get'
p408
g3
F0.9999
tp409
a(S'to'
p410
g9
F0.9793
tp411
a(S'go'
p412
g3
F0.9911
tp413
a(g17
g18
F0.9959
tp414
asI58
(lp415
(S'you'
p416
g6
F0.998
tp417
a(S'want'
p418
g3
F0.9999
tp419
a(g387
g26
F0.9965
tp420
a(S'drink'
p421
g29
F0.9958
tp422
a(g182
g18
F0.9817
tp423
a(g42
g18
F0.988
tp424
a(g185
g18
F0.9591
tp425
a(g17
g18
F0.996
tp426
asI316
(lp427
(S'like'
p428
g9
F0.7814
tp429
a(S'that'
p430
g6
F0.9361
tp431
a(g182
g18
F0.9875
tp432
a(g42
g18
F0.9922
tp433
a(g185
g18
F0.9599
tp434
a(S'one'
p435
S'$'
p436
F0.9355
tp437
a(g38
g18
F0.9974
tp438
asI62
(lp439
(S'you'
p440
g6
F0.998
tp441
a(S'had'
p442
g3
F0.9986
tp443
a(S'two'
p444
g436
F0.9287
tp445
a(S'drinks'
p446
g29
F0.9984
tp447
a(g38
g18
F0.9987
tp448
asI191
(lp449
(S'what'
p450
g6
F0.9171
tp451
a(g17
g18
F0.9924
tp452
asI320
(lp453
(S'you'
p454
g6
F0.9968
tp455
a(S'gonna'
p456
g3
F0.9996
tp457
a(S'watch'
p458
g3
F0.9975
tp459
a(S'Robo'
p460
g116
F0.9725
tp461
a(S'Cop'
p462
g29
F0.561
tp463
a(S'now'
p464
g180
F0.9897
tp465
a(S'or'
p466
g244
F0.991
tp467
a(S'what'
p468
g6
F0.9915
tp469
a(S'(.)'
p470
g146
F0.316
tp471
a(g17
g18
F0.9751
tp472
asI65
(lp473
(S'oh'
p474
g42
F0.997
tp475
a(g225
g6
F0.9986
tp476
a(S'want'
p477
g3
F1.0
tp478
a(S'another'
p479
g26
F0.9917
tp480
a(S'one'
p481
g436
F0.8463
tp482
a(g38
g18
F0.9968
tp483
asI195
(lp484
(S"don't"
p485
g3
F0.9992
tp486
a(S'let'
p487
g3
F1.0
tp488
a(S'him'
p489
g6
F0.9955
tp490
a(S'go'
p491
g3
F0.9519
tp492
a(S'(.)'
p493
g116
F0.2521
tp494
a(g42
g18
F0.9828
tp495
asI68
(lp496
(S'you'
p497
g6
F0.9969
tp498
a(S'do'
p499
g3
F0.9988
tp500
a(g17
g18
F0.9969
tp501
asI309
(lp502
(S'xxx'
p503
g146
F0.8981
tp504
a(g182
g18
F0.6622
tp505
a(g266
g267
F0.9843
tp506
a(g185
g18
F0.9556
tp507
a(S'xxx'
p508
g146
F0.7984
tp509
a(S'xxx'
p510
g146
F0.9561
tp511
a(g38
g18
F0.9646
tp512
asI326
(lp513
(S'you'
p514
g6
F0.9968
tp515
a(S'gonna'
p516
g3
F0.9996
tp517
a(S'watch'
p518
g3
F0.9925
tp519
a(S'T'
p520
g116
F0.419
tp521
a(g3
g116
F0.8855
tp522
a(S'Chi'
p523
g116
F0.9953
tp524
a(S'(.)'
p525
g116
F0.8368
tp526
a(g17
g18
F0.995
tp527
asI199
(lp528
(S'so'
p529
g9
F0.6746
tp530
a(S'walk'
p531
g3
F0.8875
tp532
a(S'with'
p533
g9
F0.997
tp534
a(S'him'
p535
g6
F0.9881
tp536
a(g17
g18
F0.9984
tp537
asI72
(lp538
(S'yes'
p539
g42
F0.9961
tp540
a(g38
g18
F0.9972
tp541
asI330
(lp542
(S'Chi'
p543
g116
F0.8181
tp544
a(g17
g18
F0.9908
tp545
asI75
(lp546
(S'why'
p547
g180
F0.9408
tp548
a(g17
g18
F0.9946
tp549
asI79
(lp550
(S'because'
p551
g9
F0.9862
tp552
a(g266
g267
F0.8103
tp553
a(g225
g6
F0.9986
tp554
a(S'want'
p555
g3
F1.0
tp556
a(S'it'
p557
g6
F0.9952
tp558
a(g272
g146
F0.4648
tp559
a(g182
g146
F0.5345
tp560
a(g272
g146
F0.9555
tp561
a(g185
g18
F0.8291
tp562
a(g38
g18
F0.9959
tp563
asI208
(lp564
(S'you'
p565
g6
F0.9909
tp566
a(S'are'
p567
g3
F0.997
tp568
a(g17
g18
F0.9942
tp569
asI83
(lp570
(g266
g267
F0.913
tp571
a(S"don't"
p572
g3
F0.9997
tp573
a(S'play'
p574
g3
F0.9995
tp575
a(S'with'
p576
g9
F0.9917
tp577
a(g272
g146
F0.3326
tp578
a(g182
g146
F0.535
tp579
a(g266
g267
F0.8293
tp580
a(g185
g18
F0.9807
tp581
a(S'the'
p582
g26
F0.9988
tp583
a(S'pen'
p584
g29
F0.9626
tp585
a(g42
g18
F0.9989
tp586
asI212
(lp587
(S'uhhuh'
p588
g42
F0.9699
tp589
a(S'(.)'
p590
g42
F0.2602
tp591
a(g38
g18
F0.9973
tp592
asI86
(lp593
(S'give'
p594
g3
F0.9985
tp595
a(S'me'
p596
g6
F0.9987
tp597
a(S'that'
p598
g6
F0.6548
tp599
a(g42
g18
F0.9989
tp600
asI313
(lp601
(S'put'
p602
g3
F0.9914
tp603
a(S'it'
p604
g6
F0.9844
tp605
a(S'in'
p606
g9
F0.9581
tp607
a(S'the'
p608
g26
F0.997
tp609
a(S'sink'
p610
g29
F0.9954
tp611
a(g38
g18
F0.9985
tp612
asI216
(lp613
(S'let'
p614
g3
F0.9975
tp615
a(S'me'
p616
g6
F0.9994
tp617
a(S'get'
p618
g3
F0.9991
tp619
a(g387
g26
F0.996
tp620
a(S'drink'
p621
g29
F0.9944
tp622
a(g38
g18
F0.9974
tp623
asI89
(lp624
(S'you'
p625
g6
F0.9968
tp626
a(S"don't"
p627
g3
F1.0
tp628
a(S'play'
p629
g3
F0.9992
tp630
a(S'when'
p631
g180
F0.9691
tp632
a(S"you're"
p633
g125
F0.9916
tp634
a(S'eating'
p635
g3
F0.9893
tp636
a(g42
g18
F0.9977
tp637
asI219
(lp638
(S'please'
p639
g3
F0.8917
tp640
a(S'(.)'
p641
g116
F0.3428
tp642
a(g17
g18
F0.9944
tp643
asI297
(lp644
(S'the'
p645
g26
F0.9983
tp646
a(S'knife'
p647
g29
F0.9914
tp648
a(g38
g18
F0.9983
tp649
asI94
(lp650
(S'Chi'
p651
g116
F0.8074
tp652
a(g38
g18
F0.9887
tp653
asI223
(lp654
(S'you'
p655
g6
F0.998
tp656
a(S'had'
p657
g3
F0.9986
tp658
a(S'two'
p659
g436
F0.9323
tp660
a(S'drinks'
p661
g29
F0.9971
tp662
a(S'already'
p663
g180
F0.9913
tp664
a(g38
g18
F0.9971
tp665
asI97
(lp666
(S"don't"
p667
g3
F0.9991
tp668
a(S'play'
p669
g3
F0.9967
tp670
a(g38
g18
F0.9981
tp671
asI226
(lp672
(S'zzz'
p673
g42
F0.3756
tp674
a(g38
g18
F0.9972
tp675
asI100
(lp676
(S'you'
p677
g6
F0.9955
tp678
a(S'watching'
p679
g3
F0.9996
tp680
a(g520
g161
F0.3832
tp681
a(g3
g161
F0.5419
tp682
a(S'after'
p683
g9
F0.9864
tp684
a(S'you'
p685
g6
F0.9999
tp686
a(S'eat'
p687
g3
F0.9944
tp688
a(S'(.)'
p689
g116
F0.3728
tp690
a(g17
g18
F0.9964
tp691
asI293
(lp692
(S'all'
p693
g26
F0.7806
tp694
a(S'done'
p695
g101
F0.6726
tp696
a(g17
g18
F0.9972
tp697
asI230
(lp698
(S'no'
p699
g42
F0.9704
tp700
a(g38
g18
F0.9989
tp701
asI105
(lp702
(S'huh'
p703
g42
F0.9821
tp704
a(S'(.)'
p705
g42
F0.256
tp706
a(g17
g18
F0.9967
tp707
asI234
(lp708
(S'more'
p709
g180
F0.6212
tp710
a(S'o'
p711
g9
F0.9131
tp712
a(S'@l'
p713
S'@'
p714
F0.9945
tp715
a(S'j'
p716
g161
F0.5711
tp717
a(S'@l'
p718
g714
F0.9962
tp719
a(S'(.)'
p720
g146
F0.342
tp721
a(g17
g18
F0.9711
tp722
asI306
(lp723
(S'yeah'
p724
g42
F0.9951
tp725
a(g182
g18
F0.9838
tp726
a(g272
g146
F0.3811
tp727
a(g185
g18
F0.7604
tp728
a(g38
g18
F0.9962
tp729
asI203
(lp730
(S'when'
p731
g180
F0.9801
tp732
a(g225
g6
F0.9981
tp733
a(S'finish'
p734
g3
F0.9998
tp735
a(S'this'
p736
g26
F0.553
tp737
a(S"I'm"
p738
g125
F0.9888
tp739
a(S'gonna'
p740
g3
F0.993
tp741
a(S'go'
p742
g3
F0.9992
tp743
a(S'to'
p744
g9
F0.9984
tp745
a(S'the'
p746
g26
F0.999
tp747
a(S'beach'
p748
g29
F0.937
tp749
a(g42
g18
F0.9993
tp750
asI237
(lp751
(S"that's"
p752
g125
F0.9859
tp753
a(S'enough'
p754
g101
F0.7926
tp755
a(g38
g18
F0.9987
tp756
asI110
(lp757
(S'what'
p758
g6
F0.9835
tp759
a(S'are'
p760
g3
F0.9978
tp761
a(S'you'
p762
g6
F0.9995
tp763
a(S'gonna'
p764
g3
F0.9998
tp765
a(S'do'
p766
g3
F0.9997
tp767
a(S'today'
p768
g29
F0.9804
tp769
a(g17
g18
F0.9977
tp770
asI253
(lp771
(S'okay'
p772
g42
F0.9732
tp773
a(g17
g18
F0.9976
tp774
asI240
(lp775
(S'drink'
p776
g29
F0.6735
tp777
a(g182
g18
F0.9846
tp778
a(g17
g18
F0.979
tp779
a(g185
g18
F0.9016
tp780
a(g38
g18
F0.9962
tp781
asI115
(lp782
(S'are'
p783
g3
F0.9964
tp784
a(S'you'
p785
g6
F0.9994
tp786
a(S'gonna'
p787
g3
F0.9995
tp788
a(S'go'
p789
g3
F0.9963
tp790
a(S'(.)'
p791
g116
F0.3418
tp792
a(S'for'
p793
g9
F0.9991
tp794
a(g387
g26
F0.9862
tp795
a(S'ride'
p796
g29
F0.9483
tp797
a(S'in'
p798
g9
F0.9979
tp799
a(S'the'
p800
g26
F0.9992
tp801
a(S'car'
p802
g29
F0.9965
tp803
a(g17
g18
F0.9969
tp804
asI247
(lp805
(S"don't"
p806
g3
F0.9993
tp807
a(S'stuff'
p808
g3
F0.9437
tp809
a(S'your'
p810
g26
F0.984
tp811
a(S'mouth'
p812
g29
F0.9994
tp813
a(S'(.)'
p814
g146
F0.374
tp815
a(g38
g18
F0.9509
tp816
asI160
(lp817
(S'and'
p818
g244
F0.9991
tp819
a(S'they'
p820
g6
F0.9949
tp821
a(S'will'
p822
g3
F0.9994
tp823
a(S'find'
p824
g3
F0.9997
tp825
a(S'out'
p826
g520
F0.944
tp827
a(S"we're"
p828
g125
F0.8179
tp829
a(S'at'
p830
g9
F0.9994
tp831
a(S'the'
p832
g26
F0.9991
tp833
a(S'beach'
p834
g29
F0.9872
tp835
a(g38
g18
F0.9989
tp836
asI121
(lp837
(S'with'
p838
g9
F0.9924
tp839
a(S'Daddy'
p840
g29
F0.7113
tp841
a(g17
g18
F0.9975
tp842
asI250
(lp843
(S'go'
p844
g3
F0.966
tp845
a(S'put'
p846
g3
F0.9764
tp847
a(S'your'
p848
g26
F0.9955
tp849
a(S'plate'
p850
g29
F0.9991
tp851
a(S'in'
p852
g9
F0.9991
tp853
a(S'the'
p854
g26
F0.9971
tp855
a(S'sink'
p856
g29
F0.968
tp857
a(S'(.)'
p858
g29
F0.2861
tp859
a(g38
g18
F0.9982
tp860
asI125
(lp861
(g225
g6
F0.9976
tp862
a(S"don't"
p863
g3
F1.0
tp864
a(S'know'
p865
g3
F0.9993
tp866
a(S'(.)'
p867
g116
F0.3238
tp868
a(g38
g18
F0.9943
tp869
as.