(dp0
I0
(lp1
(S'chi'
p2
S'^'
p3
F0.4479
tp4
a(S'what'
p5
S'O'
p6
F0.9282
tp7
a(S're'
p8
S'N'
p9
F0.5405
tp10
a(S'you'
p11
g6
F0.9961
tp12
a(S'doing'
p13
S'V'
p14
F0.9998
tp15
asI1
(lp16
(S'you'
p17
g6
F0.9931
tp18
a(S'eating'
p19
g14
F0.9982
tp20
a(S'breakfast'
p21
g9
F0.9868
tp22
asI2
(lp23
(S'what'
p24
g6
F0.9835
tp25
a(S'are'
p26
g14
F0.9976
tp27
a(S'you'
p28
g6
F0.9994
tp29
a(S'eating'
p30
g14
F0.9986
tp31
asI3
(lp32
(S'i'
p33
g6
F0.9635
tp34
a(S'don'
p35
g14
F0.9231
tp36
a(S't'
p37
g9
F0.3137
tp38
a(S'want'
p39
g14
F0.9991
tp40
a(S'it'
p41
g6
F0.9893
tp42
asI4
(lp43
(S'you'
p44
g6
F0.9931
tp45
a(S'eating'
p46
g14
F0.9985
tp47
a(S'waffles'
p48
g9
F0.9973
tp49
asI5
(lp50
(S'and'
p51
S'&'
p52
F0.9981
tp53
a(S'orange'
p54
S'A'
p55
F0.9792
tp56
a(S'juice'
p57
g9
F0.9967
tp58
asI6
(lp59
(S'you'
p60
g6
F0.9926
tp61
a(S'don'
p62
g14
F0.8675
tp63
a(g37
g9
F0.2503
tp64
a(S'want'
p65
g14
F0.997
tp66
a(S'no'
p67
S'D'
p68
F0.5542
tp69
a(S'more'
p70
g55
F0.495
tp71
asI7
(lp72
(g33
g6
F0.9671
tp73
a(S'don'
p74
g14
F0.9156
tp75
a(g37
S'G'
p76
F0.4526
tp77
asI8
(lp78
(g33
g6
F0.9635
tp79
a(S'don'
p80
g14
F0.9231
tp81
a(g37
g9
F0.3137
tp82
a(S'want'
p83
g14
F0.9991
tp84
a(S'it'
p85
g6
F0.9893
tp86
asI9
(lp87
(S'what'
p88
g6
F0.949
tp89
asI10
(lp90
(g33
g6
F0.9897
tp91
a(S'want'
p92
g14
F1.0
tp93
a(S'a'
p94
g68
F0.9957
tp95
a(S'drink'
p96
g9
F0.9942
tp97
asI11
(lp98
(S'you'
p99
g6
F0.998
tp100
a(S'want'
p101
g14
F0.9999
tp102
a(g94
g68
F0.9957
tp103
a(S'drink'
p104
g9
F0.9942
tp105
asI12
(lp106
(S'you'
p107
g6
F0.998
tp108
a(S'had'
p109
g14
F0.9975
tp110
a(S'two'
p111
S'$'
p112
F0.9287
tp113
a(S'drinks'
p114
g9
F0.996
tp115
asI13
(lp116
(S'oh'
p117
S'!'
p118
F0.9971
tp119
a(g33
g6
F0.9931
tp120
a(S'want'
p121
g14
F1.0
tp122
a(S'another'
p123
g68
F0.9917
tp124
a(S'one'
p125
g112
F0.7784
tp126
asI14
(lp127
(S'you'
p128
g6
F0.9969
tp129
a(S'do'
p130
g14
F0.9993
tp131
asI15
(lp132
(S'yes'
p133
g118
F0.9958
tp134
asI16
(lp135
(S'why'
p136
S'R'
p137
F0.8527
tp138
asI17
(lp139
(S'because'
p140
S'P'
p141
F0.983
tp142
a(g33
g6
F0.9982
tp143
a(S'want'
p144
g14
F1.0
tp145
a(S'it'
p146
g6
F0.9896
tp147
asI18
(lp148
(S'don'
p149
g3
F0.5427
tp150
a(g37
g3
F0.478
tp151
a(S'play'
p152
g14
F0.9271
tp153
a(S'with'
p154
g141
F0.9993
tp155
a(S'the'
p156
g68
F0.9996
tp157
a(S'pen'
p158
g9
F0.9482
tp159
asI19
(lp160
(S'give'
p161
g14
F0.9982
tp162
a(S'me'
p163
g6
F0.9987
tp164
a(S'that'
p165
g6
F0.6433
tp166
asI20
(lp167
(S'you'
p168
g6
F0.9926
tp169
a(S'don'
p170
g14
F0.8675
tp171
a(g37
g14
F0.2174
tp172
a(S'play'
p173
g14
F0.976
tp174
a(S'when'
p175
g137
F0.9873
tp176
a(S'you'
p177
g6
F0.9932
tp178
a(S're'
p179
g14
F0.6959
tp180
a(S'eating'
p181
g14
F0.9896
tp182
asI21
(lp183
(S'chi'
p184
g118
F0.4684
tp185
asI22
(lp186
(S'don'
p187
g3
F0.4468
tp188
a(g37
g3
F0.4027
tp189
a(S'play'
p190
g14
F0.8644
tp191
asI23
(lp192
(S'you'
p193
g6
F0.9955
tp194
a(S'watching'
p195
g14
F0.9996
tp196
a(g37
g76
F0.5969
tp197
a(S'v'
p198
g76
F0.6724
tp199
a(S'after'
p200
g141
F0.9731
tp201
a(S'you'
p202
g6
F0.9999
tp203
a(S'eat'
p204
g14
F0.9948
tp205
asI24
(lp206
(S'huh'
p207
g118
F0.993
tp208
asI25
(lp209
(S'what'
p210
g6
F0.9835
tp211
a(S'are'
p212
g14
F0.9978
tp213
a(S'you'
p214
g6
F0.9995
tp215
a(S'gonna'
p216
g14
F0.9996
tp217
a(S'do'
p218
g14
F0.9997
tp219
a(S'today'
p220
g9
F0.9785
tp221
asI26
(lp222
(S'are'
p223
g14
F0.9964
tp224
a(S'you'
p225
g6
F0.9994
tp226
a(S'gonna'
p227
g14
F0.9995
tp228
a(S'go'
p229
g14
F0.999
tp230
a(S'for'
p231
g141
F0.998
tp232
a(g94
g68
F0.9862
tp233
a(S'ride'
p234
g9
F0.9483
tp235
a(S'in'
p236
g141
F0.9982
tp237
a(S'the'
p238
g68
F0.9993
tp239
a(S'car'
p240
g9
F0.9936
tp241
asI27
(lp242
(S'with'
p243
g141
F0.9861
tp244
a(S'daddy'
p245
g9
F0.9829
tp246
asI28
(lp247
(g33
g6
F0.9635
tp248
a(S'don'
p249
g14
F0.9156
tp250
a(g37
g9
F0.3074
tp251
a(S'know'
p252
g14
F0.965
tp253
asI29
(lp254
(S'want'
p255
g14
F0.9993
tp256
a(S'me'
p257
g6
F0.9985
tp258
a(S'to'
p259
g141
F0.9189
tp260
a(S'go'
p261
g14
F0.9986
tp262
a(S'with'
p263
g141
F0.9988
tp264
a(S'you'
p265
g6
F0.9988
tp266
asI30
(lp267
(S'mhm'
p268
g118
F0.9747
tp269
asI31
(lp270
(S'go'
p271
g14
F0.9861
tp272
a(S'to'
p273
g141
F0.9984
tp274
a(S'the'
p275
g68
F0.9988
tp276
a(S'beach'
p277
g9
F0.9466
tp278
asI32
(lp279
(S'want'
p280
g14
F0.9945
tp281
a(S'to'
p282
g141
F0.9951
tp283
a(S'walk'
p284
g14
F0.993
tp285
a(S'on'
p286
g141
F0.9826
tp287
a(S'the'
p288
g68
F0.9993
tp289
a(S'beach'
p290
g9
F0.9138
tp291
asI33
(lp292
(S'after'
p293
g141
F0.9123
tp294
a(S'tuesday'
p295
g3
F0.9361
tp296
a(S'park'
p297
g9
F0.6255
tp298
asI34
(lp299
(S'xxx'
p300
S'E'
p301
F0.8437
tp302
asI35
(lp303
(S'zzz'
p304
g118
F0.361
tp305
asI36
(lp306
(S'tuesday'
p307
g3
F0.9499
tp308
a(S'xxx'
p309
g301
F0.5232
tp310
a(S'too'
p311
g137
F0.9432
tp312
asI37
(lp313
(S'yeah'
p314
g118
F0.9988
tp315
asI38
(lp316
(S'and'
p317
g52
F0.9991
tp318
a(S'they'
p319
g6
F0.9949
tp320
a(S'will'
p321
g14
F0.9994
tp322
a(S'find'
p323
g14
F0.9997
tp324
a(S'out'
p325
S'T'
p326
F0.8843
tp327
a(S'we'
p328
g6
F0.9957
tp329
a(S're'
p330
g9
F0.524
tp331
a(S'at'
p332
g141
F0.9998
tp333
a(S'the'
p334
g68
F0.9994
tp335
a(S'beach'
p336
g9
F0.8911
tp337
asI39
(lp338
(S'oh'
p339
g118
F0.9987
tp340
a(S'yeah'
p341
g118
F0.9997
tp342
asI40
(lp343
(S'what'
p344
g6
F0.9897
tp345
a(S'will'
p346
g14
F0.9931
tp347
a(S'happen'
p348
g14
F0.9995
tp349
a(S'will'
p350
g14
F0.9852
tp351
a(S'he'
p352
g6
F0.9956
tp353
a(S'get'
p354
g14
F0.9993
tp355
asI41
(lp356
(S'xxx'
p357
g301
F0.8325
tp358
a(S'xxx'
p359
g301
F0.98
tp360
a(S'xxx'
p361
g301
F0.9782
tp362
asI42
(lp363
(S'troy'
p364
g3
F0.9708
tp365
a(S'will'
p366
g14
F0.9694
tp367
a(S'get'
p368
g14
F0.9997
tp369
a(S'mad'
p370
g55
F0.9829
tp371
asI43
(lp372
(S'huh'
p373
g118
F0.993
tp374
asI44
(lp375
(S'what'
p376
g6
F0.949
tp377
asI45
(lp378
(S'troy'
p379
g3
F0.9708
tp380
a(S'will'
p381
g14
F0.9692
tp382
a(S'get'
p383
g14
F0.9997
tp384
a(S'mad'
p385
g55
F0.9627
tp386
a(S'be'
p387
g14
F0.8696
tp388
a(S'cause'
p389
g141
F0.9727
tp390
a(S'he'
p391
g6
F0.9966
tp392
a(S'didn'
p393
g14
F0.9863
tp394
a(g37
g14
F0.6731
tp395
a(S'get'
p396
g14
F0.9984
tp397
a(S'to'
p398
g141
F0.9718
tp399
a(S'go'
p400
g14
F0.9974
tp401
asI46
(lp402
(S'what'
p403
g6
F0.949
tp404
asI47
(lp405
(S'don'
p406
g3
F0.5427
tp407
a(g37
g3
F0.4871
tp408
a(S'let'
p409
g14
F0.9983
tp410
a(S'him'
p411
g6
F0.9951
tp412
a(S'go'
p413
g14
F0.9845
tp414
asI48
(lp415
(S'so'
p416
g141
F0.6746
tp417
a(S'walk'
p418
g14
F0.8522
tp419
a(S'with'
p420
g141
F0.997
tp421
a(S'him'
p422
g6
F0.9824
tp423
asI49
(lp424
(S'when'
p425
g137
F0.9811
tp426
a(g33
g6
F0.987
tp427
a(S'finish'
p428
g14
F0.9999
tp429
a(S'this'
p430
g68
F0.7678
tp431
a(g33
g6
F0.9612
tp432
a(S'm'
p433
g14
F0.9607
tp434
a(S'gonna'
p435
g14
F0.9925
tp436
a(S'go'
p437
g14
F0.9992
tp438
a(S'to'
p439
g141
F0.9979
tp440
a(S'the'
p441
g68
F0.9988
tp442
a(S'beach'
p443
g9
F0.9378
tp444
asI50
(lp445
(S'you'
p446
g6
F0.9909
tp447
a(S'are'
p448
g14
F0.9985
tp449
asI51
(lp450
(S'uhhuh'
p451
g118
F0.9892
tp452
asI52
(lp453
(S'let'
p454
g14
F0.9975
tp455
a(S'me'
p456
g6
F0.9994
tp457
a(S'get'
p458
g14
F0.9991
tp459
a(g94
g68
F0.996
tp460
a(S'drink'
p461
g9
F0.9881
tp462
asI53
(lp463
(S'please'
p464
g14
F0.8246
tp465
asI54
(lp466
(S'you'
p467
g6
F0.998
tp468
a(S'had'
p469
g14
F0.9986
tp470
a(S'two'
p471
g112
F0.9287
tp472
a(S'drinks'
p473
g9
F0.9971
tp474
a(S'already'
p475
g137
F0.9902
tp476
asI55
(lp477
(S'zzz'
p478
g118
F0.361
tp479
asI56
(lp480
(S'no'
p481
g118
F0.9253
tp482
asI57
(lp483
(S'more'
p484
g137
F0.6212
tp485
a(S'o'
p486
g141
F0.8389
tp487
a(S'l'
p488
g76
F0.6358
tp489
a(S'j'
p490
g76
F0.8943
tp491
a(g488
g76
F0.8095
tp492
asI58
(lp493
(S'that'
p494
g6
F0.4727
tp495
a(S's'
p496
g14
F0.4356
tp497
a(S'enough'
p498
g137
F0.4051
tp499
asI59
(lp500
(S'drink'
p501
g14
F0.4759
tp502
asI60
(lp503
(S'xxx'
p504
g301
F0.6791
tp505
a(S'put'
p506
g14
F0.9852
tp507
a(S'this'
p508
g6
F0.6769
tp509
a(S'back'
p510
g137
F0.8187
tp511
a(S'together'
p512
g137
F0.9361
tp513
asI61
(lp514
(S'don'
p515
g3
F0.5427
tp516
a(g37
g3
F0.4343
tp517
a(S'stuff'
p518
g9
F0.6961
tp519
a(S'your'
p520
g68
F0.9615
tp521
a(S'mouth'
p522
g9
F0.9996
tp523
asI62
(lp524
(S'go'
p525
g14
F0.966
tp526
a(S'put'
p527
g14
F0.9764
tp528
a(S'your'
p529
g68
F0.9955
tp530
a(S'plate'
p531
g9
F0.9991
tp532
a(S'in'
p533
g141
F0.9984
tp534
a(S'the'
p535
g68
F0.9961
tp536
a(S'sink'
p537
g9
F0.9855
tp538
asI63
(lp539
(S'okay'
p540
g118
F0.9857
tp541
asI64
(lp542
(S'don'
p543
g3
F0.5427
tp544
a(g37
g3
F0.5086
tp545
a(S'spill'
p546
g14
F0.8637
tp547
a(S'the'
p548
g68
F0.9986
tp549
a(S'crumbs'
p550
g9
F0.8594
tp551
a(S'on'
p552
g141
F0.9931
tp553
a(S'mommy'
p554
g9
F0.5668
tp555
a(g496
g76
F0.7394
tp556
a(S'floor'
p557
g9
F0.9721
tp558
asI65
(lp559
(S'okay'
p560
g118
F0.9857
tp561
asI66
(lp562
(S'you'
p563
g6
F0.9968
tp564
a(S'gonna'
p565
g14
F0.9996
tp566
a(S'put'
p567
g14
F0.9995
tp568
a(S'it'
p569
g6
F0.9778
tp570
a(S'in'
p571
g141
F0.977
tp572
a(S'the'
p573
g68
F0.9971
tp574
a(S'sink'
p575
g9
F0.9809
tp576
a(S'for'
p577
g141
F0.9985
tp578
a(S'mama'
p579
g9
F0.9635
tp580
asI67
(lp581
(S'thank'
p582
g14
F0.9631
tp583
a(S'you'
p584
g6
F0.9987
tp585
asI68
(lp586
(S'good'
p587
g55
F0.9939
tp588
a(S'boy'
p589
g9
F0.9964
tp590
asI69
(lp591
(S'put'
p592
g14
F0.9914
tp593
a(S'it'
p594
g6
F0.985
tp595
a(S'in'
p596
g141
F0.7173
tp597
a(S'easy'
p598
g55
F0.9861
tp599
asI70
(lp600
(S'don'
p601
g3
F0.5427
tp602
a(g37
g3
F0.4511
tp603
a(S'drop'
p604
g14
F0.9804
tp605
a(S'it'
p606
g6
F0.9233
tp607
a(S'hard'
p608
g55
F0.6251
tp609
a(S'be'
p610
g14
F0.6843
tp611
a(S'cause'
p612
g141
F0.914
tp613
a(S'it'
p614
g6
F0.998
tp615
a(S'would'
p616
g14
F0.9985
tp617
a(S'break'
p618
g14
F0.9985
tp619
a(S'alright'
p620
g118
F0.7366
tp621
asI71
(lp622
(S'good'
p623
g55
F0.9939
tp624
a(S'boy'
p625
g9
F0.9964
tp626
asI72
(lp627
(S'all'
p628
g68
F0.7806
tp629
a(S'done'
p630
g55
F0.4992
tp631
asI73
(lp632
(S'the'
p633
g68
F0.9983
tp634
a(S'knife'
p635
g9
F0.9727
tp636
asI74
(lp637
(S'the'
p638
g68
F0.9983
tp639
a(S'knife'
p640
g9
F0.9727
tp641
asI75
(lp642
(S'put'
p643
g14
F0.9914
tp644
a(S'it'
p645
g6
F0.9844
tp646
a(S'in'
p647
g141
F0.9438
tp648
a(S'the'
p649
g68
F0.997
tp650
a(S'sink'
p651
g9
F0.9811
tp652
asI76
(lp653
(S'yeah'
p654
g118
F0.9988
tp655
asI77
(lp656
(S'xxx'
p657
g301
F0.8325
tp658
a(S'xxx'
p659
g301
F0.98
tp660
a(S'xxx'
p661
g301
F0.9782
tp662
asI78
(lp663
(S'no'
p664
g118
F0.9253
tp665
asI79
(lp666
(S'put'
p667
g14
F0.9914
tp668
a(S'it'
p669
g6
F0.9844
tp670
a(S'in'
p671
g141
F0.9438
tp672
a(S'the'
p673
g68
F0.997
tp674
a(S'sink'
p675
g9
F0.9811
tp676
asI80
(lp677
(S'like'
p678
g141
F0.7787
tp679
a(S'that'
p680
g68
F0.6302
tp681
a(S'one'
p682
g112
F0.6289
tp683
asI81
(lp684
(S'you'
p685
g6
F0.9968
tp686
a(S'gonna'
p687
g14
F0.9996
tp688
a(S'watch'
p689
g14
F0.9975
tp690
a(S'robo'
p691
g3
F0.6819
tp692
a(S'cop'
p693
g9
F0.9407
tp694
a(S'now'
p695
g137
F0.9951
tp696
a(S'or'
p697
g52
F0.9905
tp698
a(S'what'
p699
g6
F0.9942
tp700
asI82
(lp701
(S'you'
p702
g6
F0.9968
tp703
a(S'gonna'
p704
g14
F0.9996
tp705
a(S'watch'
p706
g14
F0.9925
tp707
a(g37
g76
F0.6161
tp708
a(g198
g76
F0.7917
tp709
a(S'chi'
p710
g76
F0.6414
tp711
asI83
(lp712
(S'chi'
p713
g118
F0.4684
tp714
as.