(dp0
I0
(lp1
(S'is'
p2
S'V'
p3
F0.9847
tp4
a(S'grammy'
p5
S'N'
p6
F0.6228
tp7
a(S'eatin'
p8
g3
F0.8183
tp9
a(S'g'
p10
g6
F0.3409
tp11
a(S'over'
p12
S'P'
p13
F0.8487
tp14
asI1
(lp15
(S'0'
p16
S'$'
p17
F0.9822
tp18
a(S'babbling'
p19
g3
F0.8448
tp20
a(S'noises'
p21
g6
F0.9788
tp22
asI2
(lp23
(S'no'
p24
S'!'
p25
F0.9253
tp26
asI3
(lp27
(S'oh'
p28
g25
F0.9988
tp29
asI4
(lp30
(S'xxx'
p31
S'E'
p32
F0.8325
tp33
a(S'xxx'
p34
g32
F0.9454
tp35
a(S'mom'
p36
g6
F0.9002
tp37
asI5
(lp38
(S'chi'
p39
S'G'
p40
F0.3949
tp41
a(S'you'
p42
S'O'
p43
F0.9979
tp44
a(S'gonna'
p45
g3
F0.9996
tp46
a(S'eat'
p47
g3
F0.9995
tp48
a(S'all'
p49
S'D'
p50
F0.8052
tp51
a(S'this'
p52
g50
F0.9729
tp53
a(S'spaghetti'
p54
g6
F0.9972
tp55
asI6
(lp56
(S'xxx'
p57
g32
F0.6944
tp58
a(S'mom'
p59
g6
F0.8018
tp60
a(S'daddy'
p61
g6
F0.9791
tp62
asI7
(lp63
(S'2'
p64
g13
F0.6789
tp65
a(S'no'
p66
g25
F0.835
tp67
asI8
(lp68
(S'put'
p69
g3
F0.9661
tp70
a(S'that'
p71
g50
F0.7937
tp72
a(S'one'
p73
g17
F0.8388
tp74
a(S'back'
p75
S'R'
p76
F0.7135
tp77
a(S'and'
p78
S'&'
p79
F0.9984
tp80
a(S'take'
p81
g3
F0.9967
tp82
a(S'this'
p83
g50
F0.9872
tp84
a(S'one'
p85
g17
F0.7813
tp86
asI9
(lp87
(S'daddy'
p88
g6
F0.9697
tp89
a(S'made'
p90
g3
F0.9968
tp91
a(S'the'
p92
g50
F0.9995
tp93
a(S'big'
p94
S'A'
p95
F0.9896
tp96
a(S'one'
p97
g17
F0.86
tp98
asI10
(lp99
(S'chi'
p100
S'^'
p101
F0.5023
tp102
a(S'chi'
p103
g101
F0.9483
tp104
a(S'are'
p105
g3
F0.9972
tp106
a(S'you'
p107
g43
F0.9994
tp108
a(S'gonna'
p109
g3
F0.9997
tp110
a(S'be'
p111
g3
F0.9995
tp112
a(S'eatin'
p113
g3
F0.6369
tp114
a(g10
g3
F0.5041
tp115
a(S'all'
p116
S'X'
p117
F0.4529
tp118
a(S'this'
p119
g50
F0.8856
tp120
asI11
(lp121
(S'no'
p122
g25
F0.9253
tp123
asI12
(lp124
(S'no'
p125
g25
F0.6674
tp126
a(S'no'
p127
g50
F0.5607
tp128
a(S'begins'
p129
g3
F0.6087
tp130
a(S'to'
p131
g13
F0.9946
tp132
a(S'cry'
p133
g3
F0.9923
tp134
asI13
(lp135
(S'what'
p136
g43
F0.949
tp137
asI14
(lp138
(S'whines'
p139
g3
F0.5694
tp140
asI15
(lp141
(S'what'
p142
g43
F0.949
tp143
asI16
(lp144
(S'xxx'
p145
g32
F0.8437
tp146
asI17
(lp147
(S'want'
p148
g3
F0.9975
tp149
a(S'any'
p150
g50
F0.8645
tp151
a(S'just'
p152
g76
F0.9988
tp153
a(S'eat'
p154
g3
F0.992
tp155
a(S'what'
p156
g43
F0.9776
tp157
a(S'you'
p158
g43
F0.9995
tp159
a(S'can'
p160
g3
F0.999
tp161
a(S'okay'
p162
g25
F0.7133
tp163
asI18
(lp164
(S'i'
p165
g43
F0.9873
tp166
a(S'can'
p167
g3
F0.9996
tp168
a(S't'
p169
g3
F0.809
tp170
a(S'eat'
p171
g3
F0.9923
tp172
a(S'all'
p173
g50
F0.6674
tp174
a(S'that'
p175
g43
F0.5012
tp176
a(S'whining'
p177
g3
F0.9994
tp178
asI19
(lp179
(S'chi'
p180
g25
F0.4684
tp181
asI20
(lp182
(g64
g17
F0.6877
tp183
a(g165
g43
F0.9481
tp184
a(S'm'
p185
g3
F0.9197
tp186
a(S'xxx'
p187
g32
F0.7501
tp188
asI21
(lp189
(S'chi'
p190
g40
F0.3949
tp191
a(S'you'
p192
g43
F0.9986
tp193
a(S'have'
p194
g3
F0.9996
tp195
a(S'to'
p196
g13
F0.9975
tp197
a(S'eat'
p198
g3
F0.9951
tp199
a(S'what'
p200
g43
F0.9776
tp201
a(S'you'
p202
g43
F0.9994
tp203
a(S'can'
p204
g3
F0.9993
tp205
a(S'alright'
p206
g25
F0.7424
tp207
asI22
(lp208
(S'wanna'
p209
g3
F0.9604
tp210
a(S'grow'
p211
g3
F0.9992
tp212
a(S'up'
p213
S'T'
p214
F0.9646
tp215
a(S'big'
p216
g95
F0.8527
tp217
asI23
(lp218
(S'and'
p219
g79
F0.9989
tp220
a(S'you'
p221
g43
F0.9992
tp222
a(S'grow'
p223
g3
F0.9997
tp224
a(S'up'
p225
g214
F0.9367
tp226
a(S'big'
p227
g95
F0.8097
tp228
a(S'and'
p229
g79
F0.9978
tp230
a(S'strong'
p231
g95
F0.9792
tp232
asI24
(lp233
(g64
g17
F0.472
tp234
a(S'chi'
p235
g25
F0.486
tp236
asI25
(lp237
(S'mommy'
p238
g6
F0.6704
tp239
a(S'can'
p240
g3
F0.9951
tp241
a(S'xxx'
p242
g32
F0.4589
tp243
asI26
(lp244
(g64
g17
F0.6765
tp245
a(S'xxx'
p246
g32
F0.6773
tp247
asI27
(lp248
(S'xxx'
p249
g32
F0.8437
tp250
asI28
(lp251
(S'yep'
p252
g25
F0.9977
tp253
asI29
(lp254
(S'uh'
p255
g25
F0.9472
tp256
a(S'you'
p257
g43
F0.9986
tp258
a(S'want'
p259
g3
F0.9999
tp260
a(S'some'
p261
g50
F0.9933
tp262
a(S'cheese'
p263
g6
F0.9933
tp264
a(S'on'
p265
g13
F0.999
tp266
a(S'this'
p267
g43
F0.5503
tp268
asI30
(lp269
(S'what'
p270
g43
F0.949
tp271
asI31
(lp272
(S'huh'
p273
g25
F0.993
tp274
asI32
(lp275
(g165
g43
F0.9869
tp276
a(S'wanna'
p277
g3
F0.9993
tp278
a(S'do'
p279
g3
F0.9999
tp280
a(S'it'
p281
g43
F0.9923
tp282
asI33
(lp283
(g64
g17
F0.4802
tp284
a(S'ma'
p285
g50
F0.3311
tp286
a(S'chi'
p287
g101
F0.5303
tp288
a(S'doesn'
p289
g3
F0.892
tp290
a(g169
g6
F0.2127
tp291
a(S'want'
p292
g3
F0.9994
tp293
a(S'hers'
p294
g43
F0.9344
tp295
asI34
(lp296
(S'just'
p297
g76
F0.9979
tp298
a(S'a'
p299
g50
F0.9922
tp300
a(S'little'
p301
g95
F0.9832
tp302
asI35
(lp303
(S'garlic'
p304
g6
F0.9575
tp305
a(S'bread'
p306
g6
F0.9981
tp307
asI36
(lp308
(S'nobody'
p309
g6
F0.9181
tp310
a(S'told'
p311
g3
F0.9993
tp312
a(S'you'
p313
g43
F0.9963
tp314
a(S'that'
p315
g13
F0.8848
tp316
a(S'you'
p317
g43
F0.9996
tp318
a(S'could'
p319
g3
F0.9995
tp320
a(S'have'
p321
g3
F0.9993
tp322
a(S'that'
p323
g43
F0.6781
tp324
asI37
(lp325
(S'just'
p326
g76
F0.9981
tp327
a(g299
g50
F0.9919
tp328
a(S'little'
p329
g95
F0.9471
tp330
a(S'don'
p331
g6
F0.6423
tp332
a(g169
g6
F0.4585
tp333
a(S'stick'
p334
g3
F0.9936
tp335
a(S'it'
p336
g43
F0.9903
tp337
a(S'in'
p338
g13
F0.9819
tp339
a(S'the'
p340
g50
F0.9992
tp341
a(S'sauce'
p342
g6
F0.9892
tp343
asI38
(lp344
(S'wait'
p345
g3
F0.9897
tp346
a(g299
g50
F0.994
tp347
a(S'minute'
p348
g6
F0.9741
tp349
asI39
(lp350
(S'pass'
p351
g3
F0.9237
tp352
a(S'the'
p353
g50
F0.9935
tp354
a(S'xxx'
p355
g6
F0.6386
tp356
a(S'can'
p357
g3
F0.9934
tp358
a(g165
g43
F0.9868
tp359
a(S'have'
p360
g3
F0.9999
tp361
a(S'the'
p362
g50
F0.9997
tp363
a(S'garlic'
p364
g6
F0.9879
tp365
a(S'bread'
p366
g6
F0.9985
tp367
asI40
(lp368
(S'your'
p369
S'L'
p370
F0.4715
tp371
a(S'in'
p372
g13
F0.7786
tp373
asI41
(lp374
(S'huh'
p375
g25
F0.993
tp376
asI42
(lp377
(g165
g43
F0.9873
tp378
a(S'can'
p379
g3
F0.9996
tp380
a(g169
g3
F0.809
tp381
a(S'eat'
p382
g3
F0.9923
tp383
a(S'all'
p384
g50
F0.8935
tp385
a(S'of'
p386
g13
F0.995
tp387
a(S'this'
p388
g50
F0.5164
tp389
asI43
(lp390
(S'chi'
p391
g101
F0.462
tp392
a(S'just'
p393
g76
F0.9979
tp394
a(S'eat'
p395
g3
F0.9983
tp396
a(S'some'
p397
g50
F0.9961
tp398
a(S'honey'
p399
g6
F0.8947
tp400
asI44
(lp401
(S'whose'
p402
g370
F0.7674
tp403
a(S'pepsi'
p404
g6
F0.816
tp405
a(S'is'
p406
g3
F0.9981
tp407
a(S'that'
p408
g43
F0.9272
tp409
asI45
(lp410
(g64
g17
F0.7437
tp411
a(S'mamma'
p412
g6
F0.9303
tp413
asI46
(lp414
(S'it'
p415
g43
F0.9858
tp416
a(S's'
p417
g3
F0.7321
tp418
a(S'mine'
p419
g43
F0.9658
tp420
asI47
(lp421
(g16
g17
F0.977
tp422
a(S'making'
p423
g3
F0.8906
tp424
a(S'baby'
p425
g6
F0.9939
tp426
a(S'noises'
p427
g6
F0.9944
tp428
asI48
(lp429
(g165
g43
F0.9897
tp430
a(S'want'
p431
g3
F0.9998
tp432
a(S'lot'
p433
g6
F0.8892
tp434
a(g165
g43
F0.9495
tp435
a(S'want'
p436
g3
F1.0
tp437
a(g299
g50
F0.9857
tp438
a(S'la'
p439
g101
F0.6945
tp440
a(S'uh'
p441
g25
F0.9472
tp442
a(S'uh'
p443
g25
F0.9938
tp444
asI49
(lp445
(g64
g17
F0.7421
tp446
a(S'daddy'
p447
g6
F0.9936
tp448
a(S'told'
p449
g3
F0.9996
tp450
a(S'me'
p451
g43
F0.9983
tp452
a(S'to'
p453
g13
F0.9841
tp454
a(S'ask'
p455
g3
F0.9998
tp456
a(S'you'
p457
g43
F0.9977
tp458
asI50
(lp459
(S'good'
p460
g95
F0.9582
tp461
a(S'eat'
p462
g3
F0.8566
tp463
a(S'it'
p464
g43
F0.9829
tp465
a(g165
g43
F0.9463
tp466
a(S'don'
p467
g3
F0.9408
tp468
a(g169
g40
F0.2494
tp469
a(S'care'
p470
g3
F0.6559
tp471
asI51
(lp472
(S'okay'
p473
g25
F0.9857
tp474
asI52
(lp475
(g64
g17
F0.6948
tp476
a(S'mhm'
p477
g25
F0.9711
tp478
asI53
(lp479
(S'thank'
p480
g3
F0.9631
tp481
a(S'you'
p482
g43
F0.9917
tp483
a(S'mommy'
p484
g6
F0.7179
tp485
asI54
(lp486
(S'mommy'
p487
g6
F0.5428
tp488
a(S'can'
p489
g3
F0.9939
tp490
a(g165
g43
F0.9825
tp491
a(S'please'
p492
g3
F0.9987
tp493
a(S'have'
p494
g3
F0.9997
tp495
a(g299
g50
F0.9967
tp496
a(S'cup'
p497
g6
F0.9932
tp498
asI55
(lp499
(S'one'
p500
g17
F0.956
tp501
a(S'second'
p502
g95
F0.9383
tp503
asI56
(lp504
(g64
g17
F0.6832
tp505
a(S'yup'
p506
g25
F0.9966
tp507
asI57
(lp508
(g16
g17
F0.9682
tp509
a(S'hums'
p510
g3
F0.529
tp511
a(g299
g50
F0.9889
tp512
a(S'tune'
p513
g6
F0.9774
tp514
asI58
(lp515
(S'sis'
p516
g6
F0.6134
tp517
a(S'you'
p518
g43
F0.9973
tp519
a(S'know'
p520
g3
F0.9998
tp521
a(S'you'
p522
g43
F0.9952
tp523
a(S're'
p524
g3
F0.7653
tp525
a(S'not'
p526
g76
F0.9972
tp527
a(S'supposed'
p528
g95
F0.6677
tp529
a(S'to'
p530
g13
F0.9975
tp531
a(S'have'
p532
g3
F0.9991
tp533
a(S'seconds'
p534
g6
F0.9978
tp535
a(S'of'
p536
g13
F0.9991
tp537
a(S'this'
p538
g50
F0.5279
tp539
asI59
(lp540
(g64
g17
F0.6816
tp541
a(g165
g43
F0.9852
tp542
a(S'know'
p543
g3
F0.9992
tp544
asI60
(lp545
(S'so'
p546
g76
F0.5368
tp547
a(g165
g43
F0.9854
tp548
a(S'll'
p549
g3
F0.7842
tp550
a(S'give'
p551
g3
F0.9996
tp552
a(S'you'
p553
g43
F0.9939
tp554
a(S'this'
p555
g50
F0.7156
tp556
a(S'for'
p557
g13
F0.9965
tp558
a(S'now'
p559
g76
F0.9823
tp560
a(S'and'
p561
g79
F0.9986
tp562
a(S'this'
p563
g43
F0.9771
tp564
a(S'is'
p565
g3
F0.9994
tp566
a(S'it'
p567
g43
F0.9976
tp568
asI61
(lp569
(g64
g13
F0.7981
tp570
a(S'you'
p571
g43
F0.9987
tp572
a(S'took'
p573
g3
F0.9999
tp574
a(S'the'
p575
g50
F0.9992
tp576
a(S'lid'
p577
g6
F0.9935
tp578
a(S'off'
p579
g13
F0.704
tp580
asI62
(lp581
(S'huh'
p582
g25
F0.993
tp583
asI63
(lp584
(g64
g13
F0.7981
tp585
a(S'you'
p586
g43
F0.9987
tp587
a(S'took'
p588
g3
F0.9999
tp589
a(S'the'
p590
g50
F0.9992
tp591
a(S'lid'
p592
g6
F0.9935
tp593
a(S'off'
p594
g13
F0.704
tp595
asI64
(lp596
(S'humming'
p597
g3
F0.9303
tp598
asI65
(lp599
(S'you'
p600
g43
F0.997
tp601
a(S'want'
p602
g3
F0.9989
tp603
a(S'cheese'
p604
g6
F0.9901
tp605
asI66
(lp606
(g64
g17
F0.6939
tp607
a(S'uh'
p608
g25
F0.9917
tp609
asI67
(lp610
(S'huh'
p611
g25
F0.993
tp612
asI68
(lp613
(S'mommy'
p614
g6
F0.7607
tp615
a(g165
g43
F0.9517
tp616
a(S'need'
p617
g3
F0.9997
tp618
a(g299
g50
F0.9981
tp619
a(S'little'
p620
g95
F0.9968
tp621
a(S'bit'
p622
g6
F0.6908
tp623
a(S'more'
p624
g76
F0.5603
tp625
a(S'please'
p626
g3
F0.9485
tp627
asI69
(lp628
(g64
g17
F0.6183
tp629
a(S'that'
p630
g13
F0.5019
tp631
a(S'cheese'
p632
g6
F0.9805
tp633
a(S'doesn'
p634
g3
F0.8515
tp635
a(g169
g6
F0.2608
tp636
a(S'come'
p637
g3
F0.998
tp638
a(S'out'
p639
g214
F0.5141
tp640
a(S'good'
p641
g95
F0.9731
tp642
asI70
(lp643
(S'xxx'
p644
g32
F0.8437
tp645
asI71
(lp646
(S'okay'
p647
g25
F0.9857
tp648
asI72
(lp649
(S'yep'
p650
g25
F0.9974
tp651
a(S'thank'
p652
g3
F0.9639
tp653
a(S'you'
p654
g43
F0.999
tp655
asI73
(lp656
(S'drinkin'
p657
g3
F0.8246
tp658
a(g10
g3
F0.5013
tp659
a(S'my'
p660
g50
F0.9867
tp661
a(S'pepsi'
p662
g6
F0.9606
tp663
a(S'start'
p664
g3
F0.9279
tp665
a(S'eatin'
p666
g3
F0.6379
tp667
a(g10
g3
F0.5056
tp668
a(S'your'
p669
g50
F0.9603
tp670
a(S'spaghetti'
p671
g6
F0.9994
tp672
asI74
(lp673
(S'spaghetti'
p674
g6
F0.9833
tp675
asI75
(lp676
(S'alright'
p677
g25
F0.9864
tp678
asI76
(lp679
(g16
g17
F0.9638
tp680
asI77
(lp681
(S'chi'
p682
g101
F0.5627
tp683
a(S'stop'
p684
g3
F0.979
tp685
a(S'that'
p686
g43
F0.8497
tp687
asI78
(lp688
(S'thank'
p689
g3
F0.9631
tp690
a(S'you'
p691
g43
F0.9987
tp692
asI79
(lp693
(S'eat'
p694
g3
F0.8267
tp695
asI80
(lp696
(S'xxx'
p697
g32
F0.6645
tp698
a(S'spaghetti'
p699
g6
F0.9883
tp700
a(S'xxx'
p701
g32
F0.6393
tp702
asI81
(lp703
(S'eat'
p704
g3
F0.9714
tp705
a(S'that'
p706
g50
F0.7856
tp707
a(S'spaghetti'
p708
g6
F0.998
tp709
a(S'right'
p710
g76
F0.8771
tp711
a(S'now'
p712
g76
F0.9954
tp713
asI82
(lp714
(S'sis'
p715
g6
F0.8652
tp716
asI83
(lp717
(S'there'
p718
g117
F0.4916
tp719
a(S'wasn'
p720
g3
F0.5231
tp721
a(g169
g40
F0.5887
tp722
a(S'brown'
p723
g95
F0.4721
tp724
a(S'in'
p725
g13
F0.9922
tp726
a(S'those'
p727
g50
F0.9738
tp728
a(S'things'
p729
g6
F0.9976
tp730
asI84
(lp731
(S'3'
p732
g17
F0.9572
tp733
a(S'huh'
p734
g25
F0.968
tp735
asI85
(lp736
(S'there'
p737
g117
F0.4916
tp738
a(S'wasn'
p739
g3
F0.5231
tp740
a(g169
g40
F0.5887
tp741
a(S'brown'
p742
g95
F0.4721
tp743
a(S'in'
p744
g13
F0.9922
tp745
a(S'those'
p746
g50
F0.9738
tp747
a(S'things'
p748
g6
F0.9976
tp749
asI86
(lp750
(g732
g17
F0.9682
tp751
a(S'brown'
p752
g95
F0.7752
tp753
asI87
(lp754
(S'wait'
p755
g3
F0.9421
tp756
a(S'xxx'
p757
g32
F0.4147
tp758
a(S'can'
p759
g3
F0.9895
tp760
a(g165
g43
F0.9851
tp761
a(S'have'
p762
g3
F1.0
tp763
a(S'my'
p764
g50
F0.9986
tp765
a(S'piece'
p766
g6
F0.9992
tp767
a(S'of'
p768
g13
F0.9968
tp769
a(S'bread'
p770
g6
F0.9838
tp771
a(S'for'
p772
g13
F0.9999
tp773
a(g299
g50
F0.9969
tp774
a(S'minute'
p775
g6
F0.959
tp776
asI88
(lp777
(S'why'
p778
g76
F0.8527
tp779
asI89
(lp780
(S'be'
p781
g3
F0.9696
tp782
a(S'cause'
p783
g13
F0.6746
tp784
asI90
(lp785
(S'sis'
p786
g6
F0.6763
tp787
a(S'your'
p788
g370
F0.7625
tp789
a(S'not'
p790
g76
F0.9987
tp791
a(S'suppose'
p792
g95
F0.5753
tp793
a(S'to'
p794
g13
F0.9979
tp795
a(S'be'
p796
g3
F0.9994
tp797
a(S'eatin'
p798
g3
F0.6369
tp799
a(g10
g3
F0.5464
tp800
a(S'all'
p801
g117
F0.4593
tp802
a(S'that'
p803
g50
F0.9514
tp804
a(S'bread'
p805
g6
F0.9953
tp806
a(S'you'
p807
g43
F0.9957
tp808
a(S'know'
p809
g3
F0.9975
tp810
asI91
(lp811
(g64
g17
F0.6018
tp812
a(S'hunhunh'
p813
g6
F0.4349
tp814
a(g165
g43
F0.9136
tp815
a(g185
g3
F0.9776
tp816
a(S'not'
p817
g76
F0.9944
tp818
a(S'eating'
p819
g3
F0.9955
tp820
a(S'sis'
p821
g6
F0.9514
tp822
a(g417
g40
F0.8917
tp823
asI92
(lp824
(g64
g17
F0.6463
tp825
a(S'never'
p826
g76
F0.9598
tp827
a(S'mind'
p828
g6
F0.6368
tp829
a(g165
g43
F0.9674
tp830
a(S'won'
p831
g3
F0.9878
tp832
a(g169
g13
F0.214
tp833
a(S'have'
p834
g3
F0.9986
tp835
a(S'it'
p836
g43
F0.9926
tp837
asI93
(lp838
(S'chi'
p839
g101
F0.6901
tp840
a(S'eat'
p841
g3
F0.9909
tp842
a(S'your'
p843
g50
F0.9922
tp844
a(S'spaghetti'
p845
g6
F0.9992
tp846
a(S'please'
p847
g3
F0.9688
tp848
asI94
(lp849
(g165
g43
F0.9873
tp850
a(S'can'
p851
g3
F0.9996
tp852
a(g169
g3
F0.8055
tp853
a(S'tell'
p854
g3
F0.9435
tp855
a(S'who'
p856
g43
F0.9994
tp857
a(S'made'
p858
g3
F0.9996
tp859
a(S'that'
p860
g43
F0.7448
tp861
asI95
(lp862
(S'your'
p863
g50
F0.9678
tp864
a(S'father'
p865
g6
F0.9975
tp866
a(S'cooked'
p867
g3
F0.9991
tp868
a(S'that'
p869
g43
F0.7605
tp870
asI96
(lp871
(S'how'
p872
g76
F0.9547
tp873
a(S'did'
p874
g3
F0.9943
tp875
a(S'he'
p876
g43
F0.9974
tp877
a(S'cook'
p878
g3
F0.9989
tp879
a(S'it'
p880
g43
F0.9894
tp881
asI97
(lp882
(S'huh'
p883
g25
F0.993
tp884
asI98
(lp885
(S'on'
p886
g13
F0.9538
tp887
a(S'stove'
p888
g6
F0.9879
tp889
asI99
(lp890
(g64
g17
F0.6512
tp891
a(S'not'
p892
g76
F0.9919
tp893
a(S'on'
p894
g13
F0.9782
tp895
a(S'stove'
p896
g6
F0.9825
tp897
a(S'the'
p898
g50
F0.9976
tp899
a(S'oven'
p900
g6
F0.9774
tp901
asI100
(lp902
(S'whines'
p903
g3
F0.5694
tp904
asI101
(lp905
(g64
g13
F0.7491
tp906
a(S'it'
p907
g43
F0.9951
tp908
a(S'won'
p909
g3
F0.9592
tp910
a(g169
g13
F0.3896
tp911
a(S'kill'
p912
g3
F0.9979
tp913
a(S'ya'
p914
g43
F0.7258
tp915
a(S'you'
p916
g43
F0.9944
tp917
asI102
(lp918
(g165
g43
F0.9635
tp919
a(S'don'
p920
g3
F0.9231
tp921
a(g169
g3
F0.4066
tp922
a(S'like'
p923
g13
F0.8556
tp924
a(S'xxx'
p925
g32
F0.6891
tp926
asI103
(lp927
(g64
g17
F0.6877
tp928
a(g165
g43
F0.8644
tp929
a(S'q'
p930
g3
F0.5619
tp931
a(S'eat'
p932
g3
F0.9938
tp933
a(S'it'
p934
g43
F0.9893
tp935
asI104
(lp936
(g165
g43
F0.9861
tp937
a(S'eat'
p938
g3
F0.9998
tp939
a(S'it'
p940
g43
F0.9901
tp941
asI105
(lp942
(S'ma'
p943
g50
F0.5636
tp944
a(g165
g43
F0.983
tp945
a(S'can'
p946
g3
F0.9996
tp947
a(g169
g3
F0.801
tp948
a(S'eat'
p949
g3
F0.9926
tp950
a(S'all'
p951
g50
F0.8824
tp952
a(S'of'
p953
g13
F0.9897
tp954
a(S'that'
p955
g43
F0.8449
tp956
asI106
(lp957
(S'you'
p958
g43
F0.9926
tp959
a(S'don'
p960
g3
F0.8675
tp961
a(g169
g40
F0.2713
tp962
a(S'just'
p963
g76
F0.9993
tp964
a(S'eat'
p965
g3
F0.9924
tp966
a(S'what'
p967
g43
F0.9776
tp968
a(S'you'
p969
g43
F0.9994
tp970
a(S'can'
p971
g3
F0.9993
tp972
a(S'alright'
p973
g25
F0.7424
tp974
asI107
(lp975
(S'xxx'
p976
g32
F0.4516
tp977
a(S'it'
p978
g43
F0.9951
tp979
a(S'was'
p980
g3
F0.9987
tp981
a(S'real'
p982
g95
F0.5078
tp983
a(S'hot'
p984
g95
F0.9567
tp985
asI108
(lp986
(S'well'
p987
g25
F0.6724
tp988
a(S'let'
p989
g3
F0.9966
tp990
a(S'it'
p991
g43
F0.9878
tp992
a(S'cool'
p993
g95
F0.8852
tp994
a(S'off'
p995
g13
F0.4465
tp996
asI109
(lp997
(S'xxx'
p998
g32
F0.8437
tp999
asI110
(lp1000
(S'xxx'
p1001
g32
F0.8437
tp1002
asI111
(lp1003
(S'why'
p1004
g76
F0.9496
tp1005
a(S'not'
p1006
g76
F0.9871
tp1007
asI112
(lp1008
(S'yes'
p1009
g25
F0.9617
tp1010
a(S'yelling'
p1011
g3
F0.9791
tp1012
asI113
(lp1013
(S'h'
p1014
g40
F0.4497
tp1015
a(S'ey'
p1016
g25
F0.5738
tp1017
a(g1014
g40
F0.2711
tp1018
a(S'ey'
p1019
g25
F0.4213
tp1020
a(S'stop'
p1021
g3
F0.9638
tp1022
a(S'yelling'
p1023
g3
F0.9943
tp1024
asI114
(lp1025
(S'crying'
p1026
g3
F0.9949
tp1027
asI115
(lp1028
(g165
g43
F0.9873
tp1029
a(S'can'
p1030
g3
F0.9996
tp1031
a(g169
g3
F0.809
tp1032
a(S'eat'
p1033
g3
F0.9923
tp1034
a(S'all'
p1035
g50
F0.8935
tp1036
a(S'of'
p1037
g13
F0.995
tp1038
a(S'this'
p1039
g50
F0.5164
tp1040
asI116
(lp1041
(S'that'
p1042
g43
F0.473
tp1043
a(g417
g40
F0.477
tp1044
a(S'just'
p1045
g76
F0.999
tp1046
a(S'be'
p1047
g3
F0.9932
tp1048
a(S'cause'
p1049
g13
F0.6587
tp1050
a(S'xxx'
p1051
g32
F0.8752
tp1052
asI117
(lp1053
(S'chi'
p1054
g40
F0.3949
tp1055
a(S'you'
p1056
g43
F0.9943
tp1057
a(S'don'
p1058
g3
F0.8576
tp1059
a(g169
g6
F0.2122
tp1060
a(S'have'
p1061
g3
F0.9978
tp1062
a(S'to'
p1063
g13
F0.9975
tp1064
a(S'eat'
p1065
g3
F0.9997
tp1066
a(S'it'
p1067
g43
F0.9828
tp1068
a(S'all'
p1069
g50
F0.8356
tp1070
asI118
(lp1071
(S'just'
p1072
g76
F0.9992
tp1073
a(S'eat'
p1074
g3
F0.9974
tp1075
a(S'some'
p1076
g50
F0.9169
tp1077
a(S'alright'
p1078
g25
F0.5021
tp1079
asI119
(lp1080
(S'alright'
p1081
g25
F0.9864
tp1082
asI120
(lp1083
(S'just'
p1084
g76
F0.9992
tp1085
a(S'eat'
p1086
g3
F0.998
tp1087
a(S'some'
p1088
g50
F0.8389
tp1089
a(S'of'
p1090
g13
F0.9957
tp1091
a(S'it'
p1092
g43
F0.997
tp1093
asI121
(lp1094
(S'it'
p1095
g43
F0.9888
tp1096
a(g417
g3
F0.585
tp1097
a(S'not'
p1098
g76
F0.9819
tp1099
a(S'the'
p1100
g50
F0.9975
tp1101
a(S'end'
p1102
g6
F0.9973
tp1103
a(S'of'
p1104
g13
F0.9994
tp1105
a(S'the'
p1106
g50
F0.9992
tp1107
a(S'world'
p1108
g6
F0.9674
tp1109
asI122
(lp1110
(g64
g13
F0.4614
tp1111
a(S'looks'
p1112
g3
F0.9983
tp1113
a(S'like'
p1114
g13
F0.9519
tp1115
a(S'you'
p1116
g43
F0.9996
tp1117
a(S'like'
p1118
g3
F0.9264
tp1119
a(S'it'
p1120
g43
F0.9855
tp1121
a(S'sis'
p1122
g6
F0.7339
tp1123
asI123
(lp1124
(g64
g17
F0.6765
tp1125
a(S'xxx'
p1126
g32
F0.6773
tp1127
asI124
(lp1128
(S'hm'
p1129
g25
F0.995
tp1130
asI125
(lp1131
(g64
g13
F0.4614
tp1132
a(S'looks'
p1133
g3
F0.9983
tp1134
a(S'like'
p1135
g13
F0.9519
tp1136
a(S'you'
p1137
g43
F0.9996
tp1138
a(S'like'
p1139
g3
F0.9264
tp1140
a(S'it'
p1141
g43
F0.9985
tp1142
asI126
(lp1143
(S'xxx'
p1144
g32
F0.8437
tp1145
asI127
(lp1146
(g16
g17
F0.9725
tp1147
a(S'whining'
p1148
g3
F0.9759
tp1149
a(S'and'
p1150
g79
F0.9982
tp1151
a(S'crying'
p1152
g3
F0.9989
tp1153
asI128
(lp1154
(g16
g17
F0.9641
tp1155
a(S'makes'
p1156
g3
F0.7343
tp1157
a(S'baby'
p1158
g6
F0.9856
tp1159
a(S'noise'
p1160
g6
F0.9923
tp1161
as.