(dp0
I0
(lp1
(S'chi'
p2
S'^'
p3
F0.6901
tp4
a(S'eat'
p5
S'V'
p6
F0.9909
tp7
a(S'your'
p8
S'D'
p9
F0.994
tp10
a(S'food'
p11
S'N'
p12
F0.9971
tp13
a(S'quickly'
p14
S'R'
p15
F0.9796
tp16
a(S'chi'
p17
S'G'
p18
F0.2822
tp19
a(S'here'
p20
g15
F0.9705
tp21
a(S'so'
p22
S'P'
p23
F0.6632
tp24
a(S'you'
p25
S'O'
p26
F0.9996
tp27
a(S'can'
p28
g6
F0.9997
tp29
a(S'watch'
p30
g6
F0.996
tp31
a(S'tv'
p32
g12
F0.9793
tp33
a(S'come'
p34
g6
F0.962
tp35
a(S'on'
p36
g23
F0.4964
tp37
asI1
(lp38
(S'xxx'
p39
S'E'
p40
F0.8437
tp41
asI2
(lp42
(S'i'
p43
g26
F0.9897
tp44
a(S'want'
p45
g6
F1.0
tp46
a(S'some'
p47
g9
F0.8746
tp48
a(S'xxx'
p49
g40
F0.325
tp50
a(S'juice'
p51
g12
F0.9097
tp52
asI3
(lp53
(S'some'
p54
g9
F0.9825
tp55
a(S'juice'
p56
g12
F0.9786
tp57
asI4
(lp58
(S'yeah'
p59
S'!'
p60
F0.9988
tp61
asI5
(lp62
(S'just'
p63
g15
F0.9991
tp64
a(S'leave'
p65
g6
F0.9979
tp66
a(S'this'
p67
g26
F0.7114
tp68
a(S'alone'
p69
S'A'
p70
F0.5653
tp71
asI6
(lp72
(S'okay'
p73
g60
F0.9857
tp74
asI7
(lp75
(S'yeah'
p76
g60
F0.9988
tp77
asI8
(lp78
(S'alright'
p79
g60
F0.9864
tp80
asI9
(lp81
(S'eat'
p82
g6
F0.8288
tp83
a(g43
g26
F0.9969
tp84
a(S'say'
p85
g6
F0.9992
tp86
a(S'eat'
p87
g6
F0.8566
tp88
asI10
(lp89
(S'come'
p90
g6
F0.9843
tp91
a(S'here'
p92
g15
F0.9825
tp93
a(S'chi'
p94
g18
F0.3326
tp95
asI11
(lp96
(S'xxx'
p97
g40
F0.8437
tp98
asI12
(lp99
(S'www'
p100
g3
F0.3889
tp101
asI13
(lp102
(S'what'
p103
g26
F0.9919
tp104
a(S'goes'
p105
g6
F0.9925
tp106
a(S'into'
p107
g23
F0.9853
tp108
a(S'this'
p109
g26
F0.5701
tp110
asI14
(lp111
(S'huh'
p112
g60
F0.993
tp113
asI15
(lp114
(S'this'
p115
g26
F0.5028
tp116
asI16
(lp117
(S'what'
p118
g26
F0.9674
tp119
a(S'xxx'
p120
g40
F0.6988
tp121
asI17
(lp122
(S'xxx'
p123
g40
F0.7728
tp124
a(g43
g26
F0.9854
tp125
a(S'gotta'
p126
g6
F0.9998
tp127
a(S'go'
p128
g6
F0.9861
tp129
asI18
(lp130
(S'come'
p131
g6
F0.9897
tp132
a(S'on'
p133
g23
F0.936
tp134
a(S'eat'
p135
g6
F0.9312
tp136
a(S'your'
p137
g9
F0.9944
tp138
a(S'food'
p139
g12
F0.9966
tp140
a(S'xxx'
p141
g40
F0.7025
tp142
asI19
(lp143
(S'gimme'
p144
S'L'
p145
F0.828
tp146
a(S'give'
p147
g6
F0.9976
tp148
a(S'me'
p149
g26
F0.9785
tp150
a(S'juice'
p151
g12
F0.8608
tp152
asI20
(lp153
(S'yeah'
p154
g60
F0.9955
tp155
a(S'gene'
p156
g3
F0.8513
tp157
a(S's'
p158
g3
F0.5362
tp159
a(S'angel'
p160
g3
F0.9318
tp161
a(S'gonna'
p162
g6
F0.9731
tp163
a(S'give'
p164
g6
F0.9999
tp165
a(S'your'
p166
g9
F0.9943
tp167
a(S'juice'
p168
g12
F0.9943
tp169
a(S'he'
p170
g26
F0.9806
tp171
a(g158
g6
F0.5676
tp172
a(S'gonna'
p173
g6
F0.9948
tp174
a(S'going'
p175
g6
F0.9999
tp176
a(S'to'
p177
g23
F0.9862
tp178
a(S'give'
p179
g6
F0.9999
tp180
a(S'you'
p181
g26
F0.9792
tp182
a(S'soda'
p183
g12
F0.8373
tp184
asI21
(lp185
(S'mom'
p186
g12
F0.5389
tp187
a(S'what'
p188
g26
F0.9532
tp189
a(g158
g6
F0.4541
tp190
a(S'this'
p191
g26
F0.6912
tp192
asI22
(lp193
(S'chi'
p194
g3
F0.3804
tp195
a(S'open'
p196
g6
F0.9307
tp197
a(S'your'
p198
g9
F0.9939
tp199
a(S'mouth'
p200
g12
F0.9998
tp201
asI23
(lp202
(S'what'
p203
g26
F0.949
tp204
asI24
(lp205
(S'gene'
p206
g3
F0.8848
tp207
a(g158
g3
F0.4383
tp208
a(S'angel'
p209
g3
F0.9356
tp210
a(S'gonna'
p211
g6
F0.9714
tp212
a(S'give'
p213
g6
F1.0
tp214
a(S'me'
p215
g26
F0.977
tp216
a(S'juice'
p217
g12
F0.8014
tp218
asI25
(lp219
(S'wait'
p220
g6
F0.9113
tp221
asI26
(lp222
(S'xxx'
p223
g40
F0.8437
tp224
asI27
(lp225
(S'here'
p226
g15
F0.7796
tp227
asI28
(lp228
(S'the'
p229
g9
F0.999
tp230
a(S'baby'
p231
g12
F0.9986
tp232
a(S'already'
p233
g15
F0.9844
tp234
a(S'ate'
p235
g6
F0.9883
tp236
asI29
(lp237
(S'xxx'
p238
g40
F0.6871
tp239
a(S'gene'
p240
g3
F0.7155
tp241
a(g158
g3
F0.5362
tp242
a(S'angel'
p243
g3
F0.9318
tp244
a(S'gonna'
p245
g6
F0.9731
tp246
a(S'give'
p247
g6
F0.9999
tp248
a(S'me'
p249
g26
F0.972
tp250
a(S'juice'
p251
g12
F0.8536
tp252
a(S'so'
p253
g23
F0.8927
tp254
a(S'stop'
p255
g6
F0.7985
tp256
a(S'bother'
p257
g6
F0.8206
tp258
a(S'ing'
p259
g6
F0.7023
tp260
a(S'me'
p261
g26
F0.9985
tp262
asI30
(lp263
(g43
g26
F0.953
tp264
a(S'm'
p265
g6
F0.9784
tp266
a(S'not'
p267
g15
F0.9941
tp268
a(S'bothering'
p269
g6
F0.999
tp270
a(S'you'
p271
g26
F0.9974
tp272
a(S'chi'
p273
g3
F0.2654
tp274
asI31
(lp275
(S'just'
p276
g15
F0.9983
tp277
a(S'hurry'
p278
g6
F0.994
tp279
a(S'up'
p280
S'T'
p281
F0.9937
tp282
asI32
(lp283
(S'juice'
p284
g12
F0.8012
tp285
a(S'gene'
p286
g12
F0.783
tp287
a(S'angel'
p288
g12
F0.9426
tp289
asI33
(lp290
(S'shut'
p291
g6
F0.9854
tp292
a(S'up'
p293
g281
F0.9416
tp294
a(S'man'
p295
g12
F0.923
tp296
a(S'just'
p297
g15
F0.9995
tp298
a(S'shut'
p299
g6
F0.9982
tp300
a(S'up'
p301
g281
F0.9868
tp302
asI34
(lp303
(S'gimme'
p304
g145
F0.828
tp305
a(S'give'
p306
g6
F0.9976
tp307
a(S'me'
p308
g26
F0.9785
tp309
a(S'juice'
p310
g12
F0.8608
tp311
asI35
(lp312
(S'there'
p313
S'X'
p314
F0.4664
tp315
a(g158
g18
F0.5367
tp316
a(S'no'
p317
g9
F0.4398
tp318
a(S'more'
p319
g70
F0.8457
tp320
a(S'juice'
p321
g12
F0.9942
tp322
a(S'come'
p323
g6
F0.9658
tp324
a(S'here'
p325
g15
F0.9899
tp326
a(S'come'
p327
g6
F0.965
tp328
a(S'here'
p329
g15
F0.9896
tp330
a(S'eat'
p331
g6
F0.7271
tp332
a(S'come'
p333
g6
F0.9787
tp334
a(S'on'
p335
g23
F0.9204
tp336
a(S'chi'
p337
g3
F0.7893
tp338
a(S'come'
p339
g6
F0.9936
tp340
a(S'on'
p341
g281
F0.5257
tp342
asI36
(lp343
(S'do'
p344
g6
F0.9985
tp345
a(S'you'
p346
g26
F0.9994
tp347
a(S'wanna'
p348
g6
F0.9978
tp349
a(S'watch'
p350
g6
F0.9918
tp351
a(S'tv'
p352
g12
F0.9555
tp353
a(S'watch'
p354
g6
F0.839
tp355
a(S'xxx'
p356
g40
F0.77
tp357
asI37
(lp358
(S'chi'
p359
g3
F0.6834
tp360
a(S'sit'
p361
g6
F0.9974
tp362
a(S'up'
p363
g281
F0.9845
tp364
a(S'and'
p365
S'&'
p366
F0.9964
tp367
a(S'eat'
p368
g6
F0.9821
tp369
asI38
(lp370
(S'hurry'
p371
g6
F0.9362
tp372
a(S'up'
p373
g281
F0.9889
tp374
asI39
(lp375
(S'xxx'
p376
g40
F0.8437
tp377
asI40
(lp378
(S'see'
p379
g6
F0.9924
tp380
a(S'you'
p381
g26
F0.9977
tp382
a(S'got'
p383
g6
F0.9993
tp384
a(S'bigger'
p385
g70
F0.9822
tp386
asI41
(lp387
(S'here'
p388
g15
F0.922
tp389
a(S'chi'
p390
g3
F0.3608
tp391
a(S'xxx'
p392
g40
F0.28
tp393
a(S'bigger'
p394
g70
F0.9129
tp395
a(S'you'
p396
g26
F0.9929
tp397
a(S'don'
p398
g6
F0.8626
tp399
a(S't'
p400
g18
F0.2595
tp401
a(S'wanna'
p402
g6
F0.9512
tp403
a(S'get'
p404
g6
F0.9993
tp405
a(S'bigger'
p406
g70
F0.9911
tp407
asI42
(lp408
(S'huh'
p409
g60
F0.993
tp410
asI43
(lp411
(S'don'
p412
g3
F0.5427
tp413
a(g400
g6
F0.4091
tp414
a(S'you'
p415
g26
F0.9994
tp416
a(S'wanna'
p417
g6
F0.9945
tp418
a(S'get'
p419
g6
F0.9996
tp420
a(S'bigger'
p421
g70
F0.9893
tp422
asI44
(lp423
(g43
g26
F0.9519
tp424
a(S'xxx'
p425
g6
F0.9622
tp426
a(S'it'
p427
g26
F0.9931
tp428
a(g158
g6
F0.5868
tp429
a(S'not'
p430
g15
F0.996
tp431
a(S'comin'
p432
g6
F0.9948
tp433
a(S'g'
p434
g6
F0.4053
tp435
a(S'on'
p436
g23
F0.7602
tp437
asI45
(lp438
(S'chi'
p439
g3
F0.3577
tp440
a(S'just'
p441
g15
F0.998
tp442
a(S'eat'
p443
g6
F0.9896
tp444
asI46
(lp445
(S'and'
p446
g366
F0.9975
tp447
a(S'don'
p448
g6
F0.3559
tp449
a(g400
g6
F0.2174
tp450
a(S'pay'
p451
g6
F0.978
tp452
a(S'no'
p453
g9
F0.9848
tp454
a(S'mind'
p455
g12
F0.9981
tp456
a(S'to'
p457
g23
F0.9994
tp458
a(S'that'
p459
g26
F0.9076
tp460
asI47
(lp461
(S'come'
p462
g6
F0.9843
tp463
a(S'here'
p464
g15
F0.9819
tp465
a(S'eat'
p466
g6
F0.7228
tp467
asI48
(lp468
(S'no'
p469
g60
F0.7985
tp470
a(S'you'
p471
g26
F0.9776
tp472
a(S're'
p473
g6
F0.7591
tp474
a(S'not'
p475
g15
F0.9968
tp476
a(S'gonna'
p477
g6
F0.9982
tp478
a(S'eat'
p479
g6
F0.9959
tp480
a(S'chips'
p481
g12
F0.9692
tp482
asI49
(lp483
(S'come'
p484
g6
F0.9685
tp485
a(S'chi'
p486
g3
F0.5492
tp487
a(S'eat'
p488
g6
F0.9893
tp489
a(S'your'
p490
g9
F0.9938
tp491
a(S'rice'
p492
g12
F0.9919
tp493
a(S'hurry'
p494
g6
F0.8706
tp495
a(S'up'
p496
g281
F0.9823
tp497
asI50
(lp498
(S'xxx'
p499
g40
F0.4267
tp500
a(S'you'
p501
g26
F0.9815
tp502
a(S're'
p503
g6
F0.9378
tp504
a(S'a'
p505
g9
F0.9901
tp506
a(S'good'
p507
g70
F0.9986
tp508
a(S'boy'
p509
g12
F0.9966
tp510
a(S'hm'
p511
g60
F0.9612
tp512
asI51
(lp513
(S'chi'
p514
g60
F0.4684
tp515
asI52
(lp516
(S'xxx'
p517
g40
F0.8437
tp518
asI53
(lp519
(S'what'
p520
g26
F0.949
tp521
asI54
(lp522
(g43
g26
F0.9635
tp523
a(S'don'
p524
g6
F0.9231
tp525
a(g400
g6
F0.4066
tp526
a(S'like'
p527
g23
F0.8785
tp528
a(S'soda'
p529
g12
F0.9712
tp530
asI55
(lp531
(S'you'
p532
g26
F0.9926
tp533
a(S'don'
p534
g6
F0.8675
tp535
a(g400
g6
F0.4437
tp536
a(S'like'
p537
g23
F0.8785
tp538
a(S'soda'
p539
g12
F0.9629
tp540
a(S'okay'
p541
g60
F0.8249
tp542
asI56
(lp543
(S'open'
p544
g6
F0.9556
tp545
a(S'your'
p546
g9
F0.9944
tp547
a(S'mouth'
p548
g12
F0.9997
tp549
a(S'eat'
p550
g6
F0.9816
tp551
a(S'your'
p552
g9
F0.9934
tp553
a(S'rice'
p554
g12
F0.9932
tp555
asI57
(lp556
(S'xxx'
p557
g40
F0.7728
tp558
a(g43
g26
F0.9642
tp559
a(S'like'
p560
g6
F0.8178
tp561
a(S'xxx'
p562
g40
F0.7158
tp563
asI58
(lp564
(S'come'
p565
g6
F0.9849
tp566
a(S'on'
p567
g23
F0.8996
tp568
a(S'chi'
p569
g3
F0.6308
tp570
asI59
(lp571
(S'eat'
p572
g6
F0.99
tp573
a(S'your'
p574
g9
F0.9543
tp575
a(S'open'
p576
g6
F0.5876
tp577
a(S'your'
p578
g9
F0.9948
tp579
a(S'mouth'
p580
g12
F0.9996
tp581
asI60
(lp582
(S'xxx'
p583
g40
F0.8437
tp584
asI61
(lp585
(S'you'
p586
g26
F0.9754
tp587
a(S're'
p588
g6
F0.9434
tp589
a(g505
g9
F0.9897
tp590
a(S'good'
p591
g70
F0.9989
tp592
a(S'boy'
p593
g12
F0.9971
tp594
a(S'oh'
p595
g60
F0.9823
tp596
a(S'wow'
p597
g60
F0.9943
tp598
a(S'you'
p599
g26
F0.9985
tp600
a(S'eat'
p601
g6
F0.9996
tp602
a(S'all'
p603
g9
F0.895
tp604
a(S'of'
p605
g23
F0.9948
tp606
a(S'it'
p607
g26
F0.9959
tp608
asI62
(lp609
(S'chi'
p610
g60
F0.4684
tp611
asI63
(lp612
(S'open'
p613
g6
F0.9576
tp614
a(S'your'
p615
g9
F0.9944
tp616
a(S'mouth'
p617
g12
F0.9998
tp618
asI64
(lp619
(S'mm'
p620
g60
F0.627
tp621
asI65
(lp622
(S'you'
p623
g26
F0.963
tp624
a(S're'
p625
g6
F0.754
tp626
a(S'big'
p627
g70
F0.8823
tp628
asI66
(lp629
(S'mm'
p630
g60
F0.627
tp631
asI67
(lp632
(S'wow'
p633
g60
F0.9755
tp634
a(S'you'
p635
g26
F0.9831
tp636
a(S're'
p637
g6
F0.6719
tp638
a(S'getting'
p639
g6
F0.9945
tp640
a(S'bigger'
p641
g70
F0.9255
tp642
asI68
(lp643
(S'look'
p644
g6
F0.8183
tp645
asI69
(lp646
(g43
g26
F0.9635
tp647
a(S'don'
p648
g6
F0.9231
tp649
a(g400
g6
F0.4066
tp650
a(S'like'
p651
g23
F0.8772
tp652
a(S'that'
p653
g26
F0.9294
tp654
asI70
(lp655
(S'you'
p656
g26
F0.9787
tp657
a(S'you'
p658
g26
F0.9786
tp659
a(S'like'
p660
g6
F0.9251
tp661
a(S'it'
p662
g26
F0.9971
tp663
a(S'okay'
p664
g60
F0.6918
tp665
asI71
(lp666
(S'you'
p667
g26
F0.9754
tp668
a(S're'
p669
g6
F0.5918
tp670
a(S'gonna'
p671
g6
F0.9924
tp672
a(S'eat'
p673
g6
F0.9996
tp674
a(S'it'
p675
g26
F0.9893
tp676
asI72
(lp677
(S'then'
p678
g15
F0.9939
tp679
a(S'close'
p680
g70
F0.742
tp681
a(S'your'
p682
g9
F0.9867
tp683
a(S'eyes'
p684
g12
F0.9987
tp685
asI73
(lp686
(S'no'
p687
g60
F0.9253
tp688
asI74
(lp689
(S'hurry'
p690
g6
F0.9362
tp691
a(S'up'
p692
g281
F0.9889
tp693
asI75
(lp694
(S'that'
p695
g26
F0.473
tp696
a(g158
g18
F0.472
tp697
a(S'why'
p698
g15
F0.9575
tp699
a(S'you'
p700
g26
F0.9956
tp701
a(S're'
p702
g6
F0.7268
tp703
a(S'so'
p704
g15
F0.9126
tp705
a(S'skinny'
p706
g70
F0.9985
tp707
asI76
(lp708
(S'don'
p709
g3
F0.5427
tp710
a(g400
g6
F0.4091
tp711
a(S'you'
p712
g26
F0.9996
tp713
a(S'want'
p714
g6
F0.9997
tp715
a(S'to'
p716
g23
F0.995
tp717
a(S'get'
p718
g6
F0.9998
tp719
a(S'bigger'
p720
g70
F0.994
tp721
asI77
(lp722
(S'muscles'
p723
g12
F0.9735
tp724
asI78
(lp725
(S'oh'
p726
g60
F0.9961
tp727
a(S'wow'
p728
g60
F0.9974
tp729
a(S'look'
p730
g6
F0.9929
tp731
a(S'it'
p732
g26
F0.9686
tp733
a(S'you'
p734
g26
F0.9867
tp735
a(S're'
p736
g6
F0.7466
tp737
a(S'getting'
p738
g6
F0.9952
tp739
a(S'bigger'
p740
g70
F0.9585
tp741
a(S'gasp'
p742
g12
F0.9449
tp743
asI79
(lp744
(S'and'
p745
g366
F0.9988
tp746
a(S'tomorrow'
p747
g12
F0.9136
tp748
a(S'we'
p749
g26
F0.9891
tp750
a(S'going'
p751
g6
F0.9998
tp752
a(S'to'
p753
g23
F0.9948
tp754
a(S'the'
p755
g9
F0.9991
tp756
a(S'park'
p757
g12
F0.8694
tp758
a(S'to'
p759
g23
F0.9991
tp760
a(S'eat'
p761
g6
F0.9939
tp762
asI80
(lp763
(S'did'
p764
g6
F0.9986
tp765
a(S'you'
p766
g26
F0.9988
tp767
a(S'wanna'
p768
g6
F0.9962
tp769
a(S'go'
p770
g6
F0.9986
tp771
a(S'to'
p772
g23
F0.9984
tp773
a(S'the'
p774
g9
F0.9994
tp775
a(S'big'
p776
g70
F0.9315
tp777
a(S'park'
p778
g12
F0.9418
tp779
a(S'with'
p780
g23
F0.9999
tp781
a(S'the'
p782
g9
F0.9995
tp783
a(S'pool'
p784
g12
F0.9983
tp785
asI81
(lp786
(S'no'
p787
g60
F0.9253
tp788
asI82
(lp789
(S'the'
p790
g9
F0.999
tp791
a(S'big'
p792
g70
F0.9766
tp793
a(S'giant'
p794
g70
F0.9752
tp795
a(S'pool'
p796
g12
F0.9991
tp797
asI83
(lp798
(S'open'
p799
g6
F0.9576
tp800
a(S'your'
p801
g9
F0.9944
tp802
a(S'mouth'
p803
g12
F0.9998
tp804
asI84
(lp805
(S'chi'
p806
g3
F0.5633
tp807
a(S'turn'
p808
g6
F0.9904
tp809
a(S'around'
p810
g281
F0.7625
tp811
asI85
(lp812
(g43
g26
F0.9635
tp813
a(S'don'
p814
g6
F0.9231
tp815
a(g400
g18
F0.5454
tp816
a(S'xxx'
p817
g18
F0.435
tp818
a(S'any'
p819
g9
F0.7463
tp820
asI86
(lp821
(S'xxx'
p822
g40
F0.8437
tp823
asI87
(lp824
(S'ew'
p825
g60
F0.9751
tp826
a(S'that'
p827
g26
F0.6756
tp828
a(g158
g6
F0.4176
tp829
a(S'nasty'
p830
g70
F0.995
tp831
asI88
(lp832
(S'that'
p833
g26
F0.473
tp834
a(g158
g6
F0.4372
tp835
a(S'not'
p836
g15
F0.9994
tp837
a(S'nasty'
p838
g70
F0.9954
tp839
a(S'hurry'
p840
g12
F0.5595
tp841
a(S'up'
p842
g281
F0.7543
tp843
a(S'and'
p844
g366
F0.9968
tp845
a(S'eat'
p846
g6
F0.998
tp847
a(S'your'
p848
g9
F0.9937
tp849
a(S'food'
p850
g12
F0.9969
tp851
asI89
(lp852
(S'xxx'
p853
g40
F0.8437
tp854
asI90
(lp855
(S'you'
p856
g26
F0.9923
tp857
a(S'like'
p858
g6
F0.675
tp859
a(S'rice'
p860
g12
F0.9836
tp861
a(S'come'
p862
g6
F0.8681
tp863
asI91
(lp864
(S'nuhhuh'
p865
g60
F0.533
tp866
asI92
(lp867
(S'open'
p868
g6
F0.9576
tp869
a(S'your'
p870
g9
F0.9944
tp871
a(S'mouth'
p872
g12
F0.9998
tp873
asI93
(lp874
(S'op'
p875
g18
F0.5675
tp876
a(S'en'
p877
g15
F0.4442
tp878
a(S'open'
p879
g6
F0.9403
tp880
a(S'your'
p881
g9
F0.7922
tp882
a(S'your'
p883
g9
F0.9297
tp884
a(S'mouth'
p885
g12
F0.9997
tp886
asI94
(lp887
(S'nuhhuh'
p888
g60
F0.3442
tp889
a(S'nuhhuh'
p890
g60
F0.336
tp891
a(S'nuhhuh'
p892
g60
F0.418
tp893
asI95
(lp894
(S'oh'
p895
g60
F0.9878
tp896
a(S'you'
p897
g26
F0.9515
tp898
a(S're'
p899
g6
F0.9378
tp900
a(g505
g9
F0.9892
tp901
a(S'good'
p902
g70
F0.9986
tp903
a(S'boy'
p904
g12
F0.9975
tp905
asI96
(lp906
(S'0'
p907
S'$'
p908
F0.9777
tp909
a(S'indignant'
p910
g70
F0.988
tp911
a(S'grunt'
p912
g12
F0.934
tp913
asI97
(lp914
(g907
g908
F0.9714
tp915
a(S'another'
p916
g9
F0.9481
tp917
a(S'grunt'
p918
g12
F0.958
tp919
asI98
(lp920
(g43
g26
F0.9519
tp921
a(S'xxx'
p922
g6
F0.8339
tp923
a(S'the'
p924
g9
F0.998
tp925
a(S'nasty'
p926
g70
F0.9826
tp927
asI99
(lp928
(S'it'
p929
g26
F0.9888
tp930
a(g158
g6
F0.585
tp931
a(S'not'
p932
g15
F0.9994
tp933
a(S'nasty'
p934
g70
F0.9912
tp935
a(S'chi'
p936
g3
F0.266
tp937
a(S'okay'
p938
g60
F0.8795
tp939
asI100
(lp940
(S'xxx'
p941
g40
F0.6607
tp942
a(S'nasty'
p943
g70
F0.9963
tp944
asI101
(lp945
(S'now'
p946
g15
F0.9935
tp947
a(S'turn'
p948
g6
F0.9941
tp949
a(S'around'
p950
g15
F0.7758
tp951
a(S'close'
p952
g70
F0.643
tp953
a(S'your'
p954
g9
F0.9899
tp955
a(S'eyes'
p956
g12
F0.9982
tp957
a(S'and'
p958
g366
F0.9973
tp959
a(S'open'
p960
g6
F0.983
tp961
a(S'your'
p962
g9
F0.9947
tp963
a(S'mouth'
p964
g12
F0.9991
tp965
a(S'quickly'
p966
g15
F0.9635
tp967
a(S'xxx'
p968
g40
F0.8139
tp969
asI102
(lp970
(S'hurry'
p971
g6
F0.9362
tp972
a(S'up'
p973
g281
F0.9889
tp974
asI103
(lp975
(S'whining'
p976
g6
F0.9836
tp977
asI104
(lp978
(S'xxx'
p979
g40
F0.6882
tp980
a(S'shut'
p981
g6
F0.9798
tp982
a(S'up'
p983
g281
F0.9878
tp984
a(S'hedy'
p985
g3
F0.9557
tp986
asI105
(lp987
(S'huh'
p988
g60
F0.993
tp989
asI106
(lp990
(S'see'
p991
g6
F0.8247
tp992
a(g43
g26
F0.985
tp993
a(S'told'
p994
g6
F1.0
tp995
a(S'you'
p996
g26
F0.9974
tp997
asI107
(lp998
(S'told'
p999
g6
F0.9989
tp1000
a(S'me'
p1001
g26
F0.9986
tp1002
a(S'what'
p1003
g26
F0.9725
tp1004
asI108
(lp1005
(S'gene'
p1006
g3
F0.9102
tp1007
a(S'angel'
p1008
g3
F0.9507
tp1009
a(S'say'
p1010
g6
F0.8684
tp1011
a(S'shut'
p1012
g6
F0.9718
tp1013
a(S'up'
p1014
g281
F0.9906
tp1015
asI109
(lp1016
(S'shut'
p1017
g6
F0.9803
tp1018
a(S'up'
p1019
g281
F0.9763
tp1020
a(S'xxx'
p1021
g40
F0.6782
tp1022
asI110
(lp1023
(S'here'
p1024
g15
F0.8857
tp1025
a(S'chi'
p1026
g18
F0.2774
tp1027
asI111
(lp1028
(S'xxx'
p1029
g40
F0.5383
tp1030
a(S'coming'
p1031
g6
F0.9906
tp1032
a(S'on'
p1033
g281
F0.6541
tp1034
asI112
(lp1035
(S'xxx'
p1036
g40
F0.8437
tp1037
asI113
(lp1038
(S'chi'
p1039
g3
F0.6901
tp1040
a(S'eat'
p1041
g6
F0.9909
tp1042
a(S'your'
p1043
g9
F0.9932
tp1044
a(S'food'
p1045
g12
F0.9984
tp1046
a(S'please'
p1047
g6
F0.9684
tp1048
asI114
(lp1049
(S'open'
p1050
g6
F0.9576
tp1051
a(S'your'
p1052
g9
F0.9944
tp1053
a(S'mouth'
p1054
g12
F0.9998
tp1055
asI115
(lp1056
(S'you'
p1057
g26
F0.9968
tp1058
a(S'wanna'
p1059
g6
F0.9974
tp1060
a(S'xxx'
p1061
g6
F0.8997
tp1062
a(S'you'
p1063
g26
F0.9992
tp1064
a(S'wanna'
p1065
g6
F0.9979
tp1066
a(S'watch'
p1067
g6
F0.9926
tp1068
a(S'superman'
p1069
g3
F0.9494
tp1070
asI116
(lp1071
(S'the'
p1072
g9
F0.9972
tp1073
a(S'monster'
p1074
g3
F0.4841
tp1075
a(S'movie'
p1076
g12
F0.9801
tp1077
asI117
(lp1078
(g43
g26
F0.9896
tp1079
a(S'have'
p1080
g6
F0.9999
tp1081
a(g505
g9
F0.9976
tp1082
a(S'candy'
p1083
g12
F0.9725
tp1084
a(S'for'
p1085
g23
F0.9998
tp1086
a(S'you'
p1087
g26
F0.9991
tp1088
asI118
(lp1089
(S'xxx'
p1090
g40
F0.6211
tp1091
a(S'ice'
p1092
g12
F0.5618
tp1093
a(S'cream'
p1094
g12
F0.8289
tp1095
a(S'you'
p1096
g26
F0.9965
tp1097
a(S'want'
p1098
g6
F0.9999
tp1099
a(S'any'
p1100
g9
F0.9903
tp1101
a(S'ice'
p1102
g12
F0.8882
tp1103
a(S'cream'
p1104
g12
F0.9731
tp1105
a(S'after'
p1106
g23
F0.9939
tp1107
a(S'this'
p1108
g26
F0.9482
tp1109
asI119
(lp1110
(S'wow'
p1111
g60
F0.9755
tp1112
a(S'you'
p1113
g26
F0.9895
tp1114
a(S'gettin'
p1115
g6
F0.9927
tp1116
a(g434
g18
F0.2794
tp1117
a(S'bigger'
p1118
g70
F0.9408
tp1119
asI120
(lp1120
(S'you'
p1121
g26
F0.9963
tp1122
a(S'go'
p1123
g6
F0.9985
tp1124
a(S'back'
p1125
g15
F0.9713
tp1126
a(S'to'
p1127
g23
F0.9939
tp1128
a(S'school'
p1129
g12
F0.9002
tp1130
a(S'tomorrow'
p1131
g12
F0.8906
tp1132
a(S'okay'
p1133
g60
F0.8469
tp1134
asI121
(lp1135
(S'see'
p1136
g6
F0.9924
tp1137
a(S'you'
p1138
g26
F0.9906
tp1139
a(S'xxx'
p1140
g6
F0.8845
tp1141
a(S'the'
p1142
g9
F0.9883
tp1143
a(S'xxx'
p1144
g12
F0.5025
tp1145
a(S'like'
p1146
g23
F0.9004
tp1147
a(S'this'
p1148
g26
F0.8515
tp1149
asI122
(lp1150
(S'xxx'
p1151
g40
F0.8437
tp1152
asI123
(lp1153
(g907
g908
F0.9864
tp1154
a(S'unintelligible'
p1155
g70
F0.9991
tp1156
a(S'noise'
p1157
g12
F0.997
tp1158
asI124
(lp1159
(S'open'
p1160
g6
F0.9576
tp1161
a(S'your'
p1162
g9
F0.9944
tp1163
a(S'mouth'
p1164
g12
F0.9998
tp1165
asI125
(lp1166
(S'you'
p1167
g26
F0.9754
tp1168
a(S're'
p1169
g6
F0.5739
tp1170
a(S'so'
p1171
g15
F0.9255
tp1172
a(S'skinny'
p1173
g70
F0.9977
tp1174
asI126
(lp1175
(S'xxx'
p1176
g40
F0.7728
tp1177
a(g43
g26
F0.9472
tp1178
a(g265
g6
F0.9644
tp1179
a(S'gonna'
p1180
g6
F0.994
tp1181
a(S'tell'
p1182
g6
F0.9998
tp1183
a(S'your'
p1184
g9
F0.9894
tp1185
a(S'mother'
p1186
g12
F0.9971
tp1187
asI127
(lp1188
(S'chi'
p1189
g60
F0.4684
tp1190
asI128
(lp1191
(S'grunts'
p1192
g6
F0.6753
tp1193
asI129
(lp1194
(S'get'
p1195
g6
F0.9977
tp1196
a(S'over'
p1197
g23
F0.6457
tp1198
a(S'here'
p1199
g15
F0.9867
tp1200
a(S'and'
p1201
g366
F0.996
tp1202
a(S'eat'
p1203
g6
F0.9988
tp1204
a(S'your'
p1205
g9
F0.993
tp1206
a(S'food'
p1207
g12
F0.9978
tp1208
asI130
(lp1209
(S'xxx'
p1210
g40
F0.6809
tp1211
a(S'leave'
p1212
g6
F0.9973
tp1213
a(S'me'
p1214
g26
F0.9988
tp1215
a(S'alone'
p1216
g15
F0.803
tp1217
asI131
(lp1218
(S'okay'
p1219
g60
F0.9622
tp1220
a(g43
g26
F0.9902
tp1221
a(S'll'
p1222
g6
F0.7482
tp1223
a(S'leave'
p1224
g6
F0.9991
tp1225
a(S'you'
p1226
g26
F0.9991
tp1227
a(S'alone'
p1228
g15
F0.7529
tp1229
a(S'eat'
p1230
g6
F0.9922
tp1231
a(S'your'
p1232
g9
F0.9945
tp1233
a(S'food'
p1234
g12
F0.9991
tp1235
a(S'come'
p1236
g6
F0.9817
tp1237
a(S'here'
p1238
g15
F0.9829
tp1239
asI132
(lp1240
(S'hurry'
p1241
g6
F0.9362
tp1242
a(S'up'
p1243
g281
F0.9889
tp1244
asI133
(lp1245
(S'xxx'
p1246
g40
F0.692
tp1247
a(S'chew'
p1248
g6
F0.9973
tp1249
a(S'your'
p1250
g9
F0.989
tp1251
a(S'food'
p1252
g12
F0.9972
tp1253
a(S'chi'
p1254
g18
F0.6986
tp1255
asI134
(lp1256
(S'don'
p1257
g3
F0.5427
tp1258
a(g400
g6
F0.4091
tp1259
a(S'you'
p1260
g26
F0.9996
tp1261
a(S'want'
p1262
g6
F0.9997
tp1263
a(S'to'
p1264
g23
F0.9961
tp1265
a(S'eat'
p1266
g6
F0.9991
tp1267
a(g505
g9
F0.998
tp1268
a(S'candy'
p1269
g12
F0.9917
tp1270
a(S'afterwards'
p1271
g15
F0.9444
tp1272
asI135
(lp1273
(S'mommy'
p1274
g12
F0.5464
tp1275
a(S'brought'
p1276
g6
F0.998
tp1277
a(S'you'
p1278
g26
F0.9882
tp1279
a(S'candy'
p1280
g12
F0.8707
tp1281
a(S'from'
p1282
g23
F0.9999
tp1283
a(S'the'
p1284
g9
F0.9982
tp1285
a(S'store'
p1286
g12
F0.9884
tp1287
asI136
(lp1288
(S'where'
p1289
g15
F0.9493
tp1290
asI137
(lp1291
(S'you'
p1292
g26
F0.998
tp1293
a(S'have'
p1294
g6
F0.9994
tp1295
a(S'to'
p1296
g23
F0.9945
tp1297
a(S'eat'
p1298
g6
F0.9916
tp1299
a(S'first'
p1300
g70
F0.6109
tp1301
asI138
(lp1302
(S'lemme'
p1303
g145
F0.973
tp1304
a(S'let'
p1305
g6
F0.9999
tp1306
a(S'me'
p1307
g26
F0.9996
tp1308
a(S'see'
p1309
g6
F0.9449
tp1310
asI139
(lp1311
(S'no'
p1312
g9
F0.5034
tp1313
a(S'eat'
p1314
g6
F0.8221
tp1315
a(S'first'
p1316
g15
F0.5013
tp1317
a(S'after'
p1318
g23
F0.9921
tp1319
a(S'you'
p1320
g26
F0.9999
tp1321
a(S'finish'
p1322
g6
F0.9977
tp1323
a(S'eating'
p1324
g6
F0.9842
tp1325
asI140
(lp1326
(S'xxx'
p1327
g40
F0.8252
tp1328
a(S'xxx'
p1329
g40
F0.9429
tp1330
a(S'eat'
p1331
g6
F0.9974
tp1332
a(S'it'
p1333
g26
F0.9894
tp1334
asI141
(lp1335
(g43
g26
F0.9793
tp1336
a(S'll'
p1337
g6
F0.8209
tp1338
a(S'give'
p1339
g6
F0.9996
tp1340
a(S'you'
p1341
g26
F0.9954
tp1342
a(g505
g9
F0.9957
tp1343
a(S'candy'
p1344
g12
F0.8897
tp1345
a(S'bar'
p1346
g12
F0.9988
tp1347
a(g43
g26
F0.9596
tp1348
a(S'bought'
p1349
g6
F0.9985
tp1350
asI142
(lp1351
(S'xxx'
p1352
g40
F0.4267
tp1353
a(S'you'
p1354
g26
F0.9962
tp1355
a(S'always'
p1356
g15
F0.9903
tp1357
a(S'say'
p1358
g6
F0.9965
tp1359
a(S'that'
p1360
g26
F0.8068
tp1361
asI143
(lp1362
(S'grunting'
p1363
g6
F0.9889
tp1364
asI144
(lp1365
(S'chi'
p1366
g3
F0.4613
tp1367
a(S'here'
p1368
g15
F0.9358
tp1369
a(g43
g26
F0.9975
tp1370
a(S'wanna'
p1371
g6
F0.9984
tp1372
a(S'watch'
p1373
g6
F0.9904
tp1374
a(g400
g18
F0.5511
tp1375
a(S'v'
p1376
g18
F0.7275
tp1377
asI145
(lp1378
(S'grunts'
p1379
g6
F0.6753
tp1380
asI146
(lp1381
(S'xxx'
p1382
g40
F0.6645
tp1383
a(S'candy'
p1384
g12
F0.7082
tp1385
a(S'bar'
p1386
g12
F0.9979
tp1387
asI147
(lp1388
(S'eat'
p1389
g6
F0.9056
tp1390
a(S'first'
p1391
g70
F0.9088
tp1392
a(S'hurry'
p1393
g12
F0.6238
tp1394
a(S'up'
p1395
g281
F0.8572
tp1396
asI148
(lp1397
(S'uh'
p1398
g60
F0.9849
tp1399
a(g43
g26
F0.9934
tp1400
a(S'wanna'
p1401
g6
F0.999
tp1402
a(S'see'
p1403
g6
F0.9994
tp1404
a(S'it'
p1405
g26
F0.9204
tp1406
asI149
(lp1407
(S'after'
p1408
g23
F0.9769
tp1409
a(S'you'
p1410
g26
F0.9999
tp1411
a(S'eat'
p1412
g6
F0.9983
tp1413
a(S'after'
p1414
g23
F0.9792
tp1415
a(S'you'
p1416
g26
F0.9999
tp1417
a(S'finish'
p1418
g6
F0.9977
tp1419
a(S'eating'
p1420
g6
F0.9842
tp1421
asI150
(lp1422
(S'xxx'
p1423
g40
F0.8437
tp1424
asI151
(lp1425
(S'chi'
p1426
g60
F0.4684
tp1427
asI152
(lp1428
(S'why'
p1429
g15
F0.9375
tp1430
a(S'don'
p1431
g12
F0.2525
tp1432
a(g400
g6
F0.5898
tp1433
a(S'you'
p1434
g26
F0.999
tp1435
a(S'just'
p1436
g15
F0.9995
tp1437
a(S'xxx'
p1438
g40
F0.7732
tp1439
asI153
(lp1440
(S'xxx'
p1441
g40
F0.8437
tp1442
asI154
(lp1443
(S'chi'
p1444
g3
F0.462
tp1445
a(S'just'
p1446
g15
F0.9979
tp1447
a(S'eat'
p1448
g6
F0.9991
tp1449
a(S'your'
p1450
g9
F0.9944
tp1451
a(S'food'
p1452
g12
F0.9969
tp1453
a(S'okay'
p1454
g60
F0.8163
tp1455
asI155
(lp1456
(S'xxx'
p1457
g40
F0.676
tp1458
a(S'and'
p1459
g366
F0.9971
tp1460
a(S'don'
p1461
g3
F0.3616
tp1462
a(g400
g3
F0.5069
tp1463
a(S'tell'
p1464
g6
F0.9949
tp1465
a(S'me'
p1466
g26
F0.9992
tp1467
a(S'to'
p1468
g23
F0.9887
tp1469
a(S'eat'
p1470
g6
F0.9911
tp1471
asI156
(lp1472
(S'you'
p1473
g26
F0.9754
tp1474
a(S're'
p1475
g6
F0.6442
tp1476
a(S'so'
p1477
g15
F0.9344
tp1478
a(S'skinny'
p1479
g70
F0.9978
tp1480
a(S'xxx'
p1481
g23
F0.3911
tp1482
a(S'you'
p1483
g26
F0.9991
tp1484
a(S'can'
p1485
g6
F0.9997
tp1486
a(S'see'
p1487
g6
F0.9998
tp1488
a(S'your'
p1489
g9
F0.9978
tp1490
a(S'skin'
p1491
g12
F0.9996
tp1492
a(S'and'
p1493
g366
F0.9981
tp1494
a(S'bones'
p1495
g12
F0.9227
tp1496
a(S'here'
p1497
g15
F0.9634
tp1498
asI157
(lp1499
(S'grunts'
p1500
g6
F0.6753
tp1501
asI158
(lp1502
(S'wow'
p1503
g60
F0.9755
tp1504
a(S'you'
p1505
g26
F0.9831
tp1506
a(S're'
p1507
g6
F0.9378
tp1508
a(g505
g9
F0.9901
tp1509
a(S'good'
p1510
g70
F0.9851
tp1511
a(S'almost'
p1512
g15
F0.9913
tp1513
a(S'finished'
p1514
g6
F0.9903
tp1515
asI159
(lp1516
(S'two'
p1517
g908
F0.968
tp1518
a(S'more'
p1519
g70
F0.9822
tp1520
a(S'spoons'
p1521
g12
F0.9859
tp1522
asI160
(lp1523
(S'three'
p1524
g908
F0.8849
tp1525
asI161
(lp1526
(S'grunts'
p1527
g6
F0.6753
tp1528
asI162
(lp1529
(g43
g26
F0.9563
tp1530
a(S'xxx'
p1531
g40
F0.605
tp1532
asI163
(lp1533
(S'what'
p1534
g26
F0.949
tp1535
asI164
(lp1536
(g43
g26
F0.9635
tp1537
a(S'don'
p1538
g6
F0.9231
tp1539
a(g400
g6
F0.4066
tp1540
a(S'like'
p1541
g23
F0.8772
tp1542
a(S'that'
p1543
g26
F0.9294
tp1544
asI165
(lp1545
(S'close'
p1546
g70
F0.4719
tp1547
a(S'your'
p1548
g9
F0.9893
tp1549
a(S'eyes'
p1550
g12
F0.9981
tp1551
a(S'and'
p1552
g366
F0.997
tp1553
a(S'open'
p1554
g6
F0.989
tp1555
a(S'your'
p1556
g9
F0.9932
tp1557
a(S'mouth'
p1558
g12
F0.9996
tp1559
asI166
(lp1560
(S'you'
p1561
g26
F0.9968
tp1562
a(S'wanna'
p1563
g6
F0.9984
tp1564
a(S'be'
p1565
g6
F0.9989
tp1566
a(S'skinny'
p1567
g70
F0.9961
tp1568
asI167
(lp1569
(S'huh'
p1570
g60
F0.993
tp1571
asI168
(lp1572
(S'no'
p1573
g60
F0.9253
tp1574
asI169
(lp1575
(S'you'
p1576
g26
F0.998
tp1577
a(S'need'
p1578
g6
F0.9987
tp1579
a(S'to'
p1580
g23
F0.9564
tp1581
a(S'have'
p1582
g6
F0.9985
tp1583
a(S'muscles'
p1584
g12
F0.9948
tp1585
asI170
(lp1586
(S'you'
p1587
g26
F0.998
tp1588
a(S'have'
p1589
g6
F0.9994
tp1590
a(S'to'
p1591
g23
F0.9945
tp1592
a(S'eat'
p1593
g6
F0.989
tp1594
a(S'okay'
p1595
g60
F0.7416
tp1596
asI171
(lp1597
(S'chi'
p1598
g3
F0.6082
tp1599
a(S'watch'
p1600
g6
F0.9344
tp1601
a(S'tv'
p1602
g12
F0.9833
tp1603
asI172
(lp1604
(S'xxx'
p1605
g40
F0.6542
tp1606
a(S'have'
p1607
g6
F0.9577
tp1608
a(S'muscles'
p1609
g12
F0.9976
tp1610
asI173
(lp1611
(S'wow'
p1612
g60
F0.9744
tp1613
a(S'come'
p1614
g6
F0.9871
tp1615
a(S'on'
p1616
g23
F0.8231
tp1617
a(S'chi'
p1618
g3
F0.6341
tp1619
asI174
(lp1620
(S'eat'
p1621
g6
F0.99
tp1622
a(S'your'
p1623
g9
F0.9935
tp1624
a(S'food'
p1625
g12
F0.9992
tp1626
a(S'now'
p1627
g15
F0.9843
tp1628
asI175
(lp1629
(S'grunts'
p1630
g6
F0.6753
tp1631
asI176
(lp1632
(S'everyday'
p1633
g12
F0.5085
tp1634
a(S'the'
p1635
g9
F0.9992
tp1636
a(S'same'
p1637
g70
F0.9944
tp1638
a(S'thing'
p1639
g12
F0.9989
tp1640
asI177
(lp1641
(S'grunts'
p1642
g6
F0.6753
tp1643
asI178
(lp1644
(S'hurry'
p1645
g6
F0.9546
tp1646
a(S'up'
p1647
g281
F0.9701
tp1648
a(S'hurry'
p1649
g6
F0.8891
tp1650
a(S'up'
p1651
g281
F0.9874
tp1652
asI179
(lp1653
(S'don'
p1654
g3
F0.5427
tp1655
a(g400
g6
F0.4091
tp1656
a(S'you'
p1657
g26
F0.9994
tp1658
a(S'wanna'
p1659
g6
F0.9975
tp1660
a(S'watch'
p1661
g6
F0.992
tp1662
a(S'tv'
p1663
g12
F0.9745
tp1664
a(S'before'
p1665
g23
F0.9954
tp1666
a(S'you'
p1667
g26
F0.9995
tp1668
a(S'go'
p1669
g6
F0.9986
tp1670
a(S'to'
p1671
g23
F0.9846
tp1672
a(S'sleep'
p1673
g6
F0.8342
tp1674
a(S'hm'
p1675
g60
F0.9418
tp1676
asI180
(lp1677
(S'okay'
p1678
g60
F0.8802
tp1679
a(S'drink'
p1680
g6
F0.9092
tp1681
a(S'some'
p1682
g9
F0.6891
tp1683
a(S'of'
p1684
g23
F0.9956
tp1685
a(S'this'
p1686
g26
F0.5578
tp1687
asI181
(lp1688
(S'okay'
p1689
g60
F0.9622
tp1690
a(g43
g26
F0.9824
tp1691
a(g265
g6
F0.9644
tp1692
a(S'gonna'
p1693
g6
F0.994
tp1694
a(S'eat'
p1695
g6
F0.9993
tp1696
a(S'the'
p1697
g9
F0.9996
tp1698
a(S'candy'
p1699
g12
F0.9107
tp1700
a(S'all'
p1701
g15
F0.3696
tp1702
a(S'by'
p1703
g23
F0.9947
tp1704
a(S'myself'
p1705
g26
F0.9887
tp1706
asI182
(lp1707
(S'no'
p1708
g60
F0.6532
tp1709
a(g43
g26
F0.9355
tp1710
a(g265
g6
F0.9772
tp1711
a(S'not'
p1712
g15
F0.9922
tp1713
asI183
(lp1714
(S'xxx'
p1715
g40
F0.8437
tp1716
asI184
(lp1717
(S'no'
p1718
g60
F0.6532
tp1719
a(g43
g26
F0.9355
tp1720
a(g265
g6
F0.9772
tp1721
a(S'not'
p1722
g15
F0.9922
tp1723
asI185
(lp1724
(S'well'
p1725
g60
F0.741
tp1726
a(S'you'
p1727
g26
F0.9997
tp1728
a(S'know'
p1729
g6
F0.9989
tp1730
a(S'what'
p1731
g26
F0.9819
tp1732
a(S'we'
p1733
g26
F0.9976
tp1734
a(S'll'
p1735
g6
F0.7881
tp1736
a(S'do'
p1737
g6
F0.9992
tp1738
a(S'with'
p1739
g23
F0.9985
tp1740
a(S'you'
p1741
g26
F0.9992
tp1742
a(S'then'
p1743
g15
F0.991
tp1744
asI186
(lp1745
(S'here'
p1746
g15
F0.8857
tp1747
a(S'chi'
p1748
g18
F0.2774
tp1749
asI187
(lp1750
(S'nuhhuh'
p1751
g60
F0.533
tp1752
asI188
(lp1753
(S'you'
p1754
g26
F0.998
tp1755
a(S'have'
p1756
g6
F0.9989
tp1757
a(S'to'
p1758
g23
F0.9945
tp1759
a(S'eat'
p1760
g6
F0.988
tp1761
asI189
(lp1762
(S'nuhhuh'
p1763
g60
F0.533
tp1764
asI190
(lp1765
(S'huh'
p1766
g60
F0.993
tp1767
asI191
(lp1768
(S'you'
p1769
g26
F0.9754
tp1770
a(S're'
p1771
g6
F0.9434
tp1772
a(g505
g9
F0.9897
tp1773
a(S'good'
p1774
g70
F0.9986
tp1775
a(S'boy'
p1776
g12
F0.9934
tp1777
a(S'mm'
p1778
g18
F0.3274
tp1779
asI192
(lp1780
(S'xxx'
p1781
g40
F0.8437
tp1782
asI193
(lp1783
(S'wow'
p1784
g60
F0.9755
tp1785
a(S'you'
p1786
g26
F0.9831
tp1787
a(S're'
p1788
g6
F0.738
tp1789
a(S'getting'
p1790
g6
F0.9966
tp1791
a(S'bigger'
p1792
g70
F0.8664
tp1793
a(S'look'
p1794
g12
F0.4704
tp1795
a(S'gasps'
p1796
g12
F0.7624
tp1797
asI194
(lp1798
(S'open'
p1799
g6
F0.9576
tp1800
a(S'your'
p1801
g9
F0.9944
tp1802
a(S'mouth'
p1803
g12
F0.9998
tp1804
asI195
(lp1805
(S'whining'
p1806
g6
F0.9836
tp1807
asI196
(lp1808
(S'chi'
p1809
g3
F0.5029
tp1810
a(S'why'
p1811
g15
F0.862
tp1812
a(S'do'
p1813
g6
F0.9984
tp1814
a(S'you'
p1815
g26
F0.9996
tp1816
a(S'have'
p1817
g6
F0.9995
tp1818
a(S'to'
p1819
g23
F0.9952
tp1820
a(S'fight'
p1821
g6
F0.9636
tp1822
a(S'with'
p1823
g23
F0.999
tp1824
a(S'me'
p1825
g26
F0.9985
tp1826
asI197
(lp1827
(S'open'
p1828
g6
F0.9556
tp1829
a(S'your'
p1830
g9
F0.9944
tp1831
a(S'mouth'
p1832
g12
F0.9996
tp1833
a(S'open'
p1834
g6
F0.912
tp1835
a(S'your'
p1836
g9
F0.9944
tp1837
a(S'mouth'
p1838
g12
F0.9997
tp1839
asI198
(lp1840
(g907
g908
F0.9725
tp1841
a(S'whining'
p1842
g6
F0.9759
tp1843
a(S'and'
p1844
g366
F0.9982
tp1845
a(S'crying'
p1846
g6
F0.9989
tp1847
asI199
(lp1848
(S'good'
p1849
g70
F0.9943
tp1850
a(S'boy'
p1851
g12
F0.9902
tp1852
a(S'two'
p1853
g908
F0.9264
tp1854
a(S'more'
p1855
g70
F0.7632
tp1856
asI200
(lp1857
(S'xxx'
p1858
g40
F0.6571
tp1859
a(S'don'
p1860
g3
F0.2461
tp1861
a(g400
g3
F0.2994
tp1862
a(S'like'
p1863
g23
F0.9126
tp1864
a(S'that'
p1865
g26
F0.9294
tp1866
asI201
(lp1867
(S'xxx'
p1868
g40
F0.8437
tp1869
asI202
(lp1870
(S'come'
p1871
g6
F0.9849
tp1872
a(S'on'
p1873
g23
F0.8996
tp1874
a(S'chi'
p1875
g3
F0.6308
tp1876
asI203
(lp1877
(S'xxx'
p1878
g40
F0.8437
tp1879
asI204
(lp1880
(S'nuhhuh'
p1881
g60
F0.533
tp1882
asI205
(lp1883
(S'mm'
p1884
g60
F0.627
tp1885
asI206
(lp1886
(S'mommy'
p1887
g12
F0.6334
tp1888
a(S'look'
p1889
g6
F0.9272
tp1890
asI207
(lp1891
(S'what'
p1892
g26
F0.949
tp1893
asI208
(lp1894
(S'xxx'
p1895
g40
F0.8437
tp1896
asI209
(lp1897
(S'huh'
p1898
g60
F0.993
tp1899
asI210
(lp1900
(S'xxx'
p1901
g40
F0.6791
tp1902
a(S'put'
p1903
g6
F0.9886
tp1904
a(S'the'
p1905
g9
F0.9997
tp1906
a(S'baby'
p1907
g12
F0.9982
tp1908
a(S'to'
p1909
g23
F0.9991
tp1910
a(S'sleep'
p1911
g6
F0.8865
tp1912
a(S'xxx'
p1913
g40
F0.5407
tp1914
a(g43
g26
F0.9544
tp1915
a(g265
g6
F0.9677
tp1916
a(S'busy'
p1917
g70
F0.9786
tp1918
asI211
(lp1919
(S'we'
p1920
g26
F0.9947
tp1921
a(S'are'
p1922
g6
F0.9982
tp1923
a(S'busy'
p1924
g70
F0.9923
tp1925
asI212
(lp1926
(S'huh'
p1927
g60
F0.993
tp1928
asI213
(lp1929
(S'turn'
p1930
g6
F0.9796
tp1931
a(S'around'
p1932
g281
F0.7078
tp1933
asI214
(lp1934
(S'turn'
p1935
g6
F0.9848
tp1936
a(S'around'
p1937
g281
F0.4593
tp1938
a(S'let'
p1939
g6
F0.9934
tp1940
a(S'me'
p1941
g26
F0.9994
tp1942
a(S'see'
p1943
g6
F0.9731
tp1944
asI215
(lp1945
(S'that'
p1946
g26
F0.7826
tp1947
a(S'hurts'
p1948
g6
F0.9881
tp1949
asI216
(lp1950
(S'let'
p1951
g6
F0.9968
tp1952
a(S'me'
p1953
g26
F0.9996
tp1954
a(S'see'
p1955
g6
F0.969
tp1956
asI217
(lp1957
(S'xxx'
p1958
g40
F0.68
tp1959
a(S'come'
p1960
g6
F0.9907
tp1961
a(S'on'
p1962
g281
F0.7116
tp1963
asI218
(lp1964
(S'xxx'
p1965
g40
F0.6877
tp1966
a(S'come'
p1967
g6
F0.9932
tp1968
a(S'here'
p1969
g15
F0.9878
tp1970
a(S'oh'
p1971
g60
F0.9505
tp1972
a(S'you'
p1973
g26
F0.967
tp1974
a(S're'
p1975
g6
F0.938
tp1976
a(g505
g9
F0.9912
tp1977
a(S'good'
p1978
g70
F0.9991
tp1979
a(S'boy'
p1980
g12
F0.9977
tp1981
asI219
(lp1982
(S'good'
p1983
g70
F0.9943
tp1984
a(S'boy'
p1985
g12
F0.9902
tp1986
a(S'two'
p1987
g908
F0.9264
tp1988
a(S'more'
p1989
g70
F0.7632
tp1990
asI220
(lp1991
(S'you'
p1992
g26
F0.9754
tp1993
a(S're'
p1994
g6
F0.9434
tp1995
a(g505
g9
F0.9897
tp1996
a(S'good'
p1997
g70
F0.9986
tp1998
a(S'boy'
p1999
g12
F0.9963
tp2000
a(S'huh'
p2001
g60
F0.937
tp2002
asI221
(lp2003
(S'xxx'
p2004
g40
F0.7386
tp2005
a(S'please'
p2006
g6
F0.9319
tp2007
asI222
(lp2008
(S'wow'
p2009
g60
F0.9963
tp2010
asI223
(lp2011
(S'you'
p2012
g26
F0.9969
tp2013
a(S'can'
p2014
g6
F0.9994
tp2015
a(g400
g6
F0.8494
tp2016
a(S'be'
p2017
g6
F0.9971
tp2018
a(S'that'
p2019
g9
F0.393
tp2020
a(S'thirsty'
p2021
g70
F0.9677
tp2022
a(S'chi'
p2023
g12
F0.4699
tp2024
asI224
(lp2025
(S'three'
p2026
g908
F0.9503
tp2027
a(S'more'
p2028
g70
F0.8765
tp2029
asI225
(lp2030
(S'xxx'
p2031
g40
F0.8437
tp2032
asI226
(lp2033
(S'wow'
p2034
g60
F0.9854
tp2035
a(S'see'
p2036
g6
F0.8474
tp2037
asI227
(lp2038
(S'you'
p2039
g26
F0.9754
tp2040
a(S're'
p2041
g6
F0.7093
tp2042
a(S'getting'
p2043
g6
F0.9976
tp2044
a(S'bigger'
p2045
g70
F0.9519
tp2046
asI228
(lp2047
(S'see'
p2048
g6
F0.8655
tp2049
a(S'look'
p2050
g6
F0.8622
tp2051
a(S'at'
p2052
g23
F0.9988
tp2053
a(S'your'
p2054
g9
F0.9902
tp2055
a(S'muscle'
p2056
g12
F0.976
tp2057
a(S'let'
p2058
g6
F0.9935
tp2059
a(S'me'
p2060
g26
F0.9995
tp2061
a(S'see'
p2062
g6
F0.9967
tp2063
a(S'your'
p2064
g9
F0.988
tp2065
a(S'muscle'
p2066
g12
F0.9355
tp2067
asI229
(lp2068
(S'wow'
p2069
g60
F0.9963
tp2070
asI230
(lp2071
(S'it'
p2072
g26
F0.9858
tp2073
a(g158
g6
F0.4703
tp2074
a(S'skinny'
p2075
g70
F0.9919
tp2076
asI231
(lp2077
(S'wow'
p2078
g60
F0.9842
tp2079
a(S'just'
p2080
g15
F0.9992
tp2081
a(S'like'
p2082
g23
F0.837
tp2083
a(S'superman'
p2084
g3
F0.928
tp2085
a(S'huh'
p2086
g60
F0.9905
tp2087
asI232
(lp2088
(S'it'
p2089
g26
F0.9888
tp2090
a(g158
g6
F0.6717
tp2091
a(S'comin'
p2092
g6
F0.9849
tp2093
a(g434
g6
F0.5828
tp2094
a(S'out'
p2095
g281
F0.9153
tp2096
asI233
(lp2097
(S'xxx'
p2098
g40
F0.68
tp2099
a(S'come'
p2100
g6
F0.9909
tp2101
a(S'here'
p2102
g15
F0.9712
tp2103
asI234
(lp2104
(S'wait'
p2105
g6
F0.9977
tp2106
a(S'it'
p2107
g26
F0.993
tp2108
a(g158
g6
F0.6802
tp2109
a(S'comin'
p2110
g6
F0.9759
tp2111
a(g434
g6
F0.7998
tp2112
a(S'out'
p2113
g281
F0.8738
tp2114
asI235
(lp2115
(S'just'
p2116
g15
F0.9984
tp2117
a(S'hurry'
p2118
g6
F0.9958
tp2119
a(S'up'
p2120
g281
F0.9753
tp2121
a(S'and'
p2122
g366
F0.9965
tp2123
a(S'eat'
p2124
g6
F0.9562
tp2125
a(S'chi'
p2126
g3
F0.3016
tp2127
a(S'open'
p2128
g6
F0.9383
tp2129
a(S'your'
p2130
g9
F0.9933
tp2131
a(S'mouth'
p2132
g12
F0.9998
tp2133
asI236
(lp2134
(S'xxx'
p2135
g40
F0.8437
tp2136
asI237
(lp2137
(S'whining'
p2138
g6
F0.9836
tp2139
asI238
(lp2140
(S'my'
p2141
g9
F0.9979
tp2142
a(S'muscles'
p2143
g12
F0.9978
tp2144
a(S'comin'
p2145
g6
F0.9928
tp2146
a(g434
g6
F0.5828
tp2147
a(S'out'
p2148
g281
F0.9153
tp2149
asI239
(lp2150
(S'your'
p2151
g9
F0.9783
tp2152
a(S'muscles'
p2153
g12
F0.999
tp2154
a(S'are'
p2155
g6
F0.9937
tp2156
a(S'coming'
p2157
g6
F0.9937
tp2158
a(S'out'
p2159
g281
F0.9653
tp2160
asI240
(lp2161
(S'xxx'
p2162
g40
F0.6793
tp2163
a(S'see'
p2164
g6
F0.9268
tp2165
a(g43
g26
F0.9825
tp2166
a(S'told'
p2167
g6
F0.9999
tp2168
a(S'you'
p2169
g26
F0.9969
tp2170
asI241
(lp2171
(S'my'
p2172
g9
F0.9979
tp2173
a(S'muscles'
p2174
g12
F0.9978
tp2175
a(S'comin'
p2176
g6
F0.9928
tp2177
a(g434
g6
F0.5828
tp2178
a(S'out'
p2179
g281
F0.9153
tp2180
asI242
(lp2181
(S'just'
p2182
g15
F0.9984
tp2183
a(S'hurry'
p2184
g6
F0.9958
tp2185
a(S'up'
p2186
g281
F0.98
tp2187
a(S'and'
p2188
g366
F0.9964
tp2189
a(S'eat'
p2190
g6
F0.9821
tp2191
asI243
(lp2192
(S'xxx'
p2193
g40
F0.7163
tp2194
a(S'just'
p2195
g15
F0.9996
tp2196
a(S'skinny'
p2197
g70
F0.9967
tp2198
a(S'xxx'
p2199
g40
F0.3724
tp2200
a(S'look'
p2201
g6
F0.9501
tp2202
a(S'how'
p2203
g15
F0.9949
tp2204
a(S'skinny'
p2205
g70
F0.996
tp2206
a(S'you'
p2207
g26
F0.9961
tp2208
a(S'are'
p2209
g6
F0.9986
tp2210
asI244
(lp2211
(S'lemme'
p2212
g145
F0.973
tp2213
a(S'let'
p2214
g6
F0.9999
tp2215
a(S'me'
p2216
g26
F0.9996
tp2217
a(S'see'
p2218
g6
F0.9449
tp2219
asI245
(lp2220
(S'xxx'
p2221
g40
F0.8437
tp2222
asI246
(lp2223
(S'xxx'
p2224
g40
F0.6398
tp2225
a(S'this'
p2226
g26
F0.6891
tp2227
asI247
(lp2228
(S'whining'
p2229
g6
F0.9836
tp2230
asI248
(lp2231
(S'xxx'
p2232
g40
F0.7292
tp2233
a(S'hurry'
p2234
g6
F0.9719
tp2235
a(S'up'
p2236
g281
F0.9802
tp2237
a(S'come'
p2238
g6
F0.9806
tp2239
a(S'on'
p2240
g23
F0.8885
tp2241
a(S'eat'
p2242
g3
F0.5279
tp2243
a(S'chi'
p2244
g3
F0.9384
tp2245
asI249
(lp2246
(S'chew'
p2247
g6
F0.9922
tp2248
a(S'your'
p2249
g9
F0.9897
tp2250
a(S'food'
p2251
g12
F0.9989
tp2252
asI250
(lp2253
(S'xxx'
p2254
g40
F0.6826
tp2255
a(S'be'
p2256
g6
F0.9924
tp2257
a(S'here'
p2258
g15
F0.9729
tp2259
a(S'all'
p2260
g9
F0.9889
tp2261
a(S'day'
p2262
g12
F0.9939
tp2263
asI251
(lp2264
(S'grunting'
p2265
g6
F0.9889
tp2266
asI252
(lp2267
(g43
g26
F0.9873
tp2268
a(S'can'
p2269
g6
F0.9996
tp2270
a(g400
g6
F0.8281
tp2271
a(S'do'
p2272
g6
F0.9985
tp2273
a(S'it'
p2274
g26
F0.9919
tp2275
asI253
(lp2276
(S'two'
p2277
g908
F0.968
tp2278
a(S'more'
p2279
g70
F0.9048
tp2280
asI254
(lp2281
(S'grunts'
p2282
g6
F0.6753
tp2283
asI255
(lp2284
(S'two'
p2285
g908
F0.968
tp2286
a(S'more'
p2287
g70
F0.9048
tp2288
asI256
(lp2289
(S'grunts'
p2290
g6
F0.6753
tp2291
asI257
(lp2292
(S'okay'
p2293
g60
F0.6865
tp2294
a(S'one'
p2295
g908
F0.9368
tp2296
a(S'more'
p2297
g70
F0.7612
tp2298
asI258
(lp2299
(S'you'
p2300
g26
F0.997
tp2301
a(S'eat'
p2302
g6
F0.9995
tp2303
a(S'this'
p2304
g9
F0.9712
tp2305
a(S'one'
p2306
g908
F0.8772
tp2307
a(S'you'
p2308
g26
F0.9792
tp2309
a(S're'
p2310
g6
F0.6116
tp2311
a(S'finished'
p2312
g6
F0.9818
tp2313
asI259
(lp2314
(S'xxx'
p2315
g40
F0.617
tp2316
a(S'on'
p2317
g23
F0.9934
tp2318
a(S'my'
p2319
g9
F0.9945
tp2320
a(S'white'
p2321
g70
F0.9606
tp2322
a(S'pants'
p2323
g12
F0.9959
tp2324
asI260
(lp2325
(S'chi'
p2326
g3
F0.6831
tp2327
a(S'listen'
p2328
g6
F0.9961
tp2329
a(S'to'
p2330
g23
F0.9873
tp2331
a(S'me'
p2332
g26
F0.9984
tp2333
asI261
(lp2334
(g907
g908
F0.9725
tp2335
a(S'whining'
p2336
g6
F0.9759
tp2337
a(S'and'
p2338
g366
F0.9982
tp2339
a(S'grunting'
p2340
g6
F0.998
tp2341
asI262
(lp2342
(g43
g26
F0.9586
tp2343
a(g265
g6
F0.9718
tp2344
a(S'finished'
p2345
g6
F0.9913
tp2346
asI263
(lp2347
(S'okay'
p2348
g60
F0.5135
tp2349
a(S'one'
p2350
g908
F0.9465
tp2351
a(S'more'
p2352
g70
F0.6788
tp2353
a(S'this'
p2354
g26
F0.9292
tp2355
a(S'is'
p2356
g6
F0.9988
tp2357
a(S'the'
p2358
g9
F0.9993
tp2359
a(S'last'
p2360
g70
F0.9986
tp2361
a(S'one'
p2362
g908
F0.8135
tp2363
asI264
(lp2364
(S'grunts'
p2365
g6
F0.6753
tp2366
asI265
(lp2367
(S'you'
p2368
g26
F0.9754
tp2369
a(S're'
p2370
g6
F0.9434
tp2371
a(g505
g9
F0.9888
tp2372
a(S'good'
p2373
g70
F0.9986
tp2374
a(S'boy'
p2375
g12
F0.9964
tp2376
asI266
(lp2377
(S'you'
p2378
g26
F0.9754
tp2379
a(S're'
p2380
g6
F0.5907
tp2381
a(S'finished'
p2382
g6
F0.9886
tp2383
a(S'chi'
p2384
g3
F0.5881
tp2385
asI267
(lp2386
(g43
g26
F0.9635
tp2387
a(S'don'
p2388
g6
F0.9231
tp2389
a(g400
g12
F0.3137
tp2390
a(S'want'
p2391
g6
F0.9991
tp2392
a(S'it'
p2393
g26
F0.9893
tp2394
asI268
(lp2395
(S'okay'
p2396
g60
F0.9469
tp2397
a(S'you'
p2398
g26
F0.9883
tp2399
a(S're'
p2400
g6
F0.9378
tp2401
a(g505
g9
F0.9901
tp2402
a(S'good'
p2403
g70
F0.9987
tp2404
a(S'boy'
p2405
g12
F0.9918
tp2406
a(S'you'
p2407
g26
F0.9704
tp2408
a(S're'
p2409
g6
F0.6074
tp2410
a(S'finished'
p2411
g6
F0.9877
tp2412
a(S'okay'
p2413
g60
F0.8334
tp2414
as.