(dp0
I19
(lp1
(S"don't"
p2
S'V'
p3
F0.9992
tp4
a(S'eat'
p5
g3
F0.9999
tp6
a(S'your'
p7
S'D'
p8
F0.9922
tp9
a(S'sausages'
p10
S'N'
p11
F0.9995
tp12
a(S'.'
p13
S','
p14
F0.9987
tp15
asI23
(lp16
(S'just'
p17
S'R'
p18
F0.9992
tp19
a(S'eat'
p20
g3
F0.9968
tp21
a(S'everything'
p22
g11
F0.987
tp23
a(S'else'
p24
g18
F0.948
tp25
a(S'in'
p26
S'P'
p27
F0.9868
tp28
a(S'front'
p29
g11
F0.9733
tp30
a(S'of'
p31
g27
F0.9994
tp32
a(S'you'
p33
S'O'
p34
F0.9991
tp35
a(g13
g14
F0.9996
tp36
asI28
(lp37
(S'I'
p38
g34
F0.9976
tp39
a(S"don't"
p40
g3
F1.0
tp41
a(S'like'
p42
g3
F0.9837
tp43
a(S'them'
p44
g34
F0.9947
tp45
a(g13
g14
F0.9985
tp46
asI32
(lp47
(S"don't"
p48
g3
F0.9992
tp49
a(S'eat'
p50
g3
F0.9973
tp51
a(S'['
p52
g14
F0.9864
tp53
a(S'!'
p54
g14
F0.9922
tp55
a(S']'
p56
g14
F0.9832
tp57
a(S'it'
p58
g34
F0.9847
tp59
a(S'then'
p60
g18
F0.9927
tp61
a(g54
g14
F0.9964
tp62
asI35
(lp63
(S'zzz'
p64
g54
F0.3756
tp65
a(g13
g14
F0.9972
tp66
asI39
(lp67
(S'that'
p68
g34
F0.9115
tp69
a(S'is'
p70
g3
F0.9999
tp71
a(S'all'
p72
g8
F0.5385
tp73
a(S'it'
p74
g34
F0.997
tp75
a(S'is'
p76
g3
F0.9985
tp77
a(S'is'
p78
g3
F0.9692
tp79
a(S'sausages'
p80
g11
F0.9908
tp81
a(g13
g14
F0.9987
tp82
asI43
(lp83
(S'God'
p84
S'^'
p85
F0.9841
tp86
a(S'bless'
p87
g3
F0.9736
tp88
a(S'you'
p89
g34
F0.9984
tp90
a(g13
g14
F0.9996
tp91
asI46
(lp92
(S'but'
p93
S'&'
p94
F0.9965
tp95
a(g38
g34
F0.9994
tp96
a(S'do'
p97
g3
F0.9999
tp98
a(S'not'
p99
g18
F0.9986
tp100
a(S'like'
p101
g27
F0.5242
tp102
a(S'it'
p103
g34
F0.9981
tp104
a(g13
g14
F0.9989
tp105
asI50
(lp106
(S"don't"
p107
g3
F0.9992
tp108
a(S'eat'
p109
g3
F0.9973
tp110
a(g52
g14
F0.9864
tp111
a(g54
g14
F0.9922
tp112
a(g56
g14
F0.9841
tp113
a(S'them'
p114
g34
F0.9374
tp115
a(g54
g14
F0.9985
tp116
asI53
(lp117
(S'just'
p118
g18
F0.9981
tp119
a(S'move'
p120
g3
F0.8102
tp121
a(S'('
p122
g14
F0.9822
tp123
a(S'th)em'
p124
g34
F0.6549
tp125
a(S'out'
p126
g27
F0.8654
tp127
a(S'of'
p128
g27
F0.9984
tp129
a(S'the'
p130
g8
F0.9995
tp131
a(S'way'
p132
g11
F0.9887
tp133
a(g13
g14
F0.9988
tp134
asI56
(lp135
(S'alright'
p136
g54
F0.9792
tp137
a(S'?'
p138
g14
F0.9969
tp139
asI59
(lp140
(S"that's"
p141
S'L'
p142
F0.9846
tp143
a(S'all'
p144
g8
F0.5657
tp145
a(S'it'
p146
g34
F0.996
tp147
a(S'takes'
p148
g3
F0.996
tp149
a(S'is'
p150
g3
F0.9983
tp151
a(S'to'
p152
g27
F0.9791
tp153
a(S'move'
p154
g3
F0.8265
tp155
a(g122
g14
F0.9865
tp156
a(S'th)em'
p157
g34
F0.6602
tp158
a(g13
g14
F0.9975
tp159
asI64
(lp160
(S'alls'
p161
g54
F0.6042
tp162
a(S'it'
p163
g34
F0.9985
tp164
a(S'is'
p165
g3
F0.9985
tp166
a(S'is'
p167
g3
F0.9457
tp168
a(S'sausages'
p169
g11
F0.9895
tp170
a(g13
g14
F0.9982
tp171
asI67
(lp172
(S'you'
p173
g34
F0.9923
tp174
a(S'like'
p175
g3
F0.675
tp176
a(S'sausages'
p177
g11
F0.9975
tp178
a(g13
g14
F0.9986
tp179
asI71
(lp180
(g38
g34
F0.994
tp181
a(S'like'
p182
g3
F0.9524
tp183
a(S'them'
p184
g34
F0.9894
tp185
a(g52
g14
F0.9888
tp186
a(S'>'
p187
S'E'
p188
F0.5563
tp189
a(g56
g14
F0.6899
tp190
a(g13
g14
F0.9959
tp191
asI74
(lp192
(S'<'
p193
S'~'
p194
F0.9351
tp195
a(S'eat'
p196
g3
F0.9975
tp197
a(S'up'
p198
S'T'
p199
F0.9621
tp200
a(g187
g188
F0.4934
tp201
a(g52
g188
F0.535
tp202
a(g193
g194
F0.8293
tp203
a(g56
g14
F0.9683
tp204
a(S'Chi'
p205
g85
F0.6098
tp206
a(S'you'
p207
g34
F0.9951
tp208
a(S'like'
p209
g3
F0.7105
tp210
a(S'this'
p211
g8
F0.9176
tp212
a(S'stuff'
p213
g11
F0.9988
tp214
a(g13
g14
F0.9983
tp215
asI77
(lp216
(S"Daddy's"
p217
S'Z'
p218
F0.4209
tp219
a(S'getting'
p220
g3
F0.9988
tp221
a(S'your'
p222
g8
F0.9762
tp223
a(S'iced'
p224
S'A'
p225
F0.9432
tp226
a(S'tea'
p227
g11
F0.9911
tp228
a(S'for'
p229
g27
F0.9999
tp230
a(S'you'
p231
g34
F0.999
tp232
a(g13
g14
F0.9995
tp233
asI82
(lp234
(S'zzz'
p235
g54
F0.3756
tp236
a(g13
g14
F0.9972
tp237
asI86
(lp238
(S'Jessica'
p239
g85
F0.9952
tp240
a(g54
g14
F0.9903
tp241
asI90
(lp242
(S'she'
p243
g34
F0.9971
tp244
a(S'want'
p245
g3
F0.9982
tp246
a(S'milk'
p247
g11
F0.9948
tp248
a(g138
g14
F0.9974
tp249
asI94
(lp250
(S'do'
p251
g3
F0.9985
tp252
a(S'you'
p253
g34
F0.9996
tp254
a(S'want'
p255
g3
F0.9994
tp256
a(S'milk'
p257
g11
F0.9931
tp258
a(S'or'
p259
g94
F0.9894
tp260
a(S'iced'
p261
g225
F0.9581
tp262
a(S'tea'
p263
g11
F0.9779
tp264
a(S'Jessica'
p265
g85
F0.9928
tp266
a(g138
g14
F0.997
tp267
asI99
(lp268
(S'xxx'
p269
g188
F0.5822
tp270
a(g13
g14
F0.9648
tp271
asI100
(lp272
(S'iced'
p273
g225
F0.958
tp274
a(S'tea'
p275
g11
F0.965
tp276
a(S'she'
p277
g34
F0.9918
tp278
a(S'said'
p279
g3
F0.9891
tp280
a(g13
g14
F0.9974
tp281
asI104
(lp282
(S'xxx'
p283
g188
F0.5822
tp284
a(g13
g14
F0.9648
tp285
asI105
(lp286
(S'alright'
p287
g54
F0.9339
tp288
a(S'Chi'
p289
g85
F0.8728
tp290
a(S'calm'
p291
g3
F0.6515
tp292
a(S'down'
p293
g199
F0.6379
tp294
a(g13
g14
F0.9981
tp295
asI109
(lp296
(S'sit'
p297
g3
F0.9948
tp298
a(S'up'
p299
g199
F0.9915
tp300
a(S'on'
p301
g27
F0.9939
tp302
a(S'the'
p303
g8
F0.9994
tp304
a(S'chair'
p305
g11
F0.9955
tp306
a(S'please'
p307
g3
F0.9764
tp308
a(S'(.)'
p309
g85
F0.4634
tp310
a(g13
g14
F0.9938
tp311
asI112
(lp312
(S'all'
p313
S'X'
p314
F0.7572
tp315
a(S'the'
p316
g8
F0.9997
tp317
a(S'way'
p318
g11
F0.9939
tp319
a(g13
g14
F0.9985
tp320
asI115
(lp321
(g38
g34
F0.9976
tp322
a(S"don't"
p323
g3
F1.0
tp324
a(S'want'
p325
g3
F0.9999
tp326
a(S'to'
p327
g27
F0.9511
tp328
a(g13
g14
F0.9948
tp329
asI118
(lp330
(S'you'
p331
g34
F0.9968
tp332
a(S'have_to'
p333
g3
F0.9991
tp334
a(S'sit'
p335
g3
F0.9996
tp336
a(S'up'
p337
g199
F0.9735
tp338
a(S'right'
p339
g18
F0.7372
tp340
a(S'to'
p341
g27
F0.9989
tp342
a(S'eat'
p343
g3
F0.9833
tp344
a(g13
g14
F0.9983
tp345
asI122
(lp346
(S'Ma'
p347
g8
F0.3333
tp348
a(g38
g34
F0.9979
tp349
a(S'want'
p350
g3
F0.9997
tp351
a(S'xxx'
p352
g188
F0.5539
tp353
a(g38
g34
F0.996
tp354
a(S'want'
p355
g3
F0.9997
tp356
a(S'&-uh'
p357
g54
F0.7895
tp358
a(g38
g34
F0.9956
tp359
a(S'(..)'
p360
g14
F0.3378
tp361
a(S'give'
p362
g3
F0.9995
tp363
a(S'them'
p364
g34
F0.9806
tp365
a(S'to'
p366
g27
F0.9929
tp367
a(S'me'
p368
g34
F0.9973
tp369
a(S'(.)'
p370
g14
F0.2959
tp371
a(g13
g14
F0.9958
tp372
asI127
(lp373
(S'give'
p374
g3
F0.9985
tp375
a(S'me'
p376
g34
F0.9981
tp377
a(S'mine'
p378
g34
F0.8497
tp379
a(g13
g14
F0.9972
tp380
asI130
(lp381
(S'zzz'
p382
g54
F0.3756
tp383
a(g13
g14
F0.9972
tp384
asI134
(lp385
(S'stop'
p386
g3
F0.9144
tp387
a(S'fighting'
p388
g3
F0.9956
tp389
a(g54
g14
F0.9987
tp390
asI137
(lp391
(S"that's"
p392
g142
F0.9633
tp393
a(S"Chi's"
p394
g218
F0.693
tp395
a(g13
g14
F0.9911
tp396
asI140
(lp397
(S"that's"
p398
g142
F0.9633
tp399
a(S"Chi's"
p400
g218
F0.693
tp401
a(g13
g14
F0.9911
tp402
asI143
(lp403
(S'get'
p404
g3
F0.9987
tp405
a(S'your'
p406
g8
F0.9968
tp407
a(S'hand'
p408
g11
F0.9987
tp409
a(S'out'
p410
g27
F0.9807
tp411
a(S'of'
p412
g27
F0.9846
tp413
a(S'there'
p414
g18
F0.6725
tp415
a(g13
g14
F0.998
tp416
asI146
(lp417
(S'Ma'
p418
g8
F0.4331
tp419
a(S'(.)'
p420
S'G'
p421
F0.2871
tp422
a(S'Daddy'
p423
g11
F0.7213
tp424
a(S'xxx'
p425
g3
F0.4776
tp426
a(S'over'
p427
g27
F0.8216
tp428
a(S'me'
p429
g34
F0.9994
tp430
a(g13
g14
F0.9983
tp431
asI149
(lp432
(S'xxx'
p433
g188
F0.8981
tp434
a(g52
g14
F0.661
tp435
a(g187
g188
F0.3811
tp436
a(g56
g14
F0.7604
tp437
a(g13
g14
F0.9962
tp438
asI151
(lp439
(S'xxx'
p440
g188
F0.8981
tp441
a(g52
g14
F0.6622
tp442
a(g193
g194
F0.972
tp443
a(g56
g14
F0.9847
tp444
a(g13
g14
F0.9962
tp445
asI152
(lp446
(S'you'
p447
g34
F0.998
tp448
a(S'want'
p449
g3
F0.9998
tp450
a(S'anything'
p451
g11
F0.9882
tp452
a(S'Kimberly'
p453
g85
F0.997
tp454
a(g138
g14
F0.9963
tp455
asI155
(lp456
(S'yeah'
p457
g54
F0.9986
tp458
a(g13
g14
F0.997
tp459
asI158
(lp460
(S'what'
p461
g34
F0.9931
tp462
a(S'does'
p463
g3
F0.995
tp464
a(S'Mummy'
p465
g11
F0.6301
tp466
a(S'want'
p467
g3
F0.9391
tp468
a(g138
g14
F0.9978
tp469
asI161
(lp470
(S"Mummy's"
p471
g142
F0.3591
tp472
a(S'having'
p473
g3
F0.9875
tp474
a(S'milk'
p475
g11
F0.9988
tp476
a(g13
g14
F0.9986
tp477
asI164
(lp478
(S'Mummy'
p479
g11
F0.7857
tp480
a(g54
g14
F0.9988
tp481
asI168
(lp482
(S'give'
p483
g3
F0.8965
tp484
a(g52
g14
F0.9891
tp485
a(g138
g14
F0.976
tp486
a(g56
g14
F0.9496
tp487
a(S'you'
p488
g34
F0.9725
tp489
a(S'a'
p490
g8
F0.9947
tp491
a(S'drink'
p492
g11
F0.9953
tp493
a(g13
g14
F0.9981
tp494
asI171
(lp495
(g193
g194
F0.9501
tp496
a(S'Wilfred'
p497
g85
F0.9977
tp498
a(g52
g14
F0.9694
tp499
a(g138
g14
F0.9878
tp500
a(g56
g14
F0.7796
tp501
a(g187
g188
F0.5377
tp502
a(g52
g188
F0.5345
tp503
a(g187
g188
F0.9555
tp504
a(g56
g14
F0.6527
tp505
a(g54
g14
F0.9965
tp506
asI174
(lp507
(S'xxx'
p508
g188
F0.8981
tp509
a(g52
g14
F0.6622
tp510
a(g193
g194
F0.972
tp511
a(g56
g14
F0.9847
tp512
a(g13
g14
F0.9962
tp513
asI175
(lp514
(g38
g34
F0.994
tp515
a(S'like'
p516
g3
F0.9278
tp517
a(S'anything'
p518
g11
F0.9978
tp519
a(g52
g14
F0.9861
tp520
a(g187
g188
F0.5563
tp521
a(g56
g14
F0.6899
tp522
a(g13
g14
F0.9959
tp523
asI178
(lp524
(g193
g194
F0.9409
tp525
a(S'Larry'
p526
g85
F0.9996
tp527
a(S'xxx'
p528
g188
F0.5035
tp529
a(g187
g188
F0.955
tp530
a(g52
g188
F0.535
tp531
a(g193
g194
F0.6902
tp532
a(g56
g14
F0.9839
tp533
a(g13
g14
F0.9962
tp534
asI181
(lp535
(S'then'
p536
g18
F0.9413
tp537
a(S'what'
p538
g34
F0.9972
tp539
a(S'do'
p540
g3
F0.9993
tp541
a(S'you'
p542
g34
F0.9996
tp543
a(S'want'
p544
g3
F0.9995
tp545
a(S'Dad'
p546
g11
F0.6817
tp547
a(g138
g14
F0.9981
tp548
asI185
(lp549
(S'xxx'
p550
g188
F0.8325
tp551
a(S'xxx'
p552
g188
F0.9233
tp553
a(g13
g14
F0.9721
tp554
asI186
(lp555
(S'xxx'
p556
g188
F0.7556
tp557
a(g38
g34
F0.9943
tp558
a(S'see'
p559
g3
F0.999
tp560
a(S'Michael'
p561
g85
F0.9993
tp562
a(g52
g14
F0.9799
tp563
a(g138
g14
F0.9841
tp564
a(g56
g14
F0.9227
tp565
a(S'Daddy'
p566
g11
F0.847
tp567
a(g138
g14
F0.9983
tp568
asI190
(lp569
(S'sit'
p570
g3
F0.9825
tp571
a(S'down'
p572
g199
F0.8648
tp573
a(g13
g14
F0.9978
tp574
asI193
(lp575
(S'sit'
p576
g3
F0.7878
tp577
a(g13
g14
F0.9976
tp578
asI196
(lp579
(S'sit'
p580
g3
F0.7999
tp581
a(g52
g14
F0.9895
tp582
a(g187
g188
F0.3811
tp583
a(g56
g14
F0.7604
tp584
a(g13
g14
F0.9962
tp585
asI199
(lp586
(S'give'
p587
g3
F0.8965
tp588
a(g52
g14
F0.9878
tp589
a(g193
g194
F0.9843
tp590
a(g56
g14
F0.992
tp591
a(S'me'
p592
g34
F0.9819
tp593
a(g490
g8
F0.9876
tp594
a(S'minute'
p595
g11
F0.978
tp596
a(g38
g34
F0.9938
tp597
a(S'will'
p598
g3
F0.9994
tp599
a(g13
g14
F0.9969
tp600
asI202
(lp601
(S'xxx'
p602
g188
F0.5822
tp603
a(g13
g14
F0.9648
tp604
asI203
(lp605
(S"I'll"
p606
g142
F0.9865
tp607
a(S'get'
p608
g3
F0.9999
tp609
a(S'the'
p610
g8
F0.9788
tp611
a(S'the'
p612
g8
F0.9701
tp613
a(S'sausage'
p614
g11
F0.9938
tp615
a(S'xxx'
p616
g27
F0.3362
tp617
a(S'you'
p618
g34
F0.9987
tp619
a(S'sit'
p620
g3
F0.9993
tp621
a(S'down'
p622
g199
F0.7595
tp623
a(g13
g14
F0.9978
tp624
asI208
(lp625
(g38
g34
F0.9983
tp626
a(S'want'
p627
g3
F1.0
tp628
a(S'the'
p629
g8
F0.9993
tp630
a(S'bigger'
p631
g225
F0.996
tp632
a(S'one'
p633
S'$'
p634
F0.8927
tp635
a(g13
g14
F0.9968
tp636
asI211
(lp637
(S'xxx'
p638
g188
F0.7346
tp639
a(S'Daddy'
p640
g11
F0.8507
tp641
a(S'please'
p642
g3
F0.9763
tp643
a(g13
g14
F0.9982
tp644
asI214
(lp645
(S'you'
p646
g34
F0.9969
tp647
a(S'can'
p648
g3
F0.9997
tp649
a(S'have'
p650
g3
F0.9999
tp651
a(S'some'
p652
g8
F0.976
tp653
a(S'more'
p654
g225
F0.9313
tp655
a(S'xxx'
p656
g188
F0.7256
tp657
a(S'(.)'
p658
g188
F0.8575
tp659
a(g13
g14
F0.9714
tp660
asI217
(lp661
(S'alright'
p662
g54
F0.9792
tp663
a(g138
g14
F0.9969
tp664
asI220
(lp665
(S'nanapkin'
p666
g421
F0.1979
tp667
a(S'@f'
p668
S'@'
p669
F0.9969
tp670
a(g138
g14
F0.9945
tp671
asI223
(lp672
(S'xxx'
p673
g188
F0.7103
tp674
a(g138
g14
F0.9715
tp675
asI224
(lp676
(S'nanapkin'
p677
g421
F0.1979
tp678
a(S'@f'
p679
g669
F0.9963
tp680
a(g54
g14
F0.9957
tp681
asI228
(lp682
(S"you're"
p683
g142
F0.9894
tp684
a(S'gonna'
p685
g3
F0.9938
tp686
a(S'get'
p687
g3
F0.9999
tp688
a(g490
g8
F0.9845
tp689
a(S'nanapkin'
p690
g11
F0.6027
tp691
a(S'@f'
p692
g669
F0.9933
tp693
a(g13
g14
F0.9956
tp694
asI232
(lp695
(S'xxx'
p696
g188
F0.5822
tp697
a(g13
g14
F0.9648
tp698
asI233
(lp699
(S"you're"
p700
g142
F0.9903
tp701
a(S'something'
p702
g11
F0.986
tp703
a(S'Chi'
p704
g85
F0.8585
tp705
a(g13
g14
F0.9901
tp706
asI237
(lp707
(S'what'
p708
g34
F0.9738
tp709
a(g52
g14
F0.9688
tp710
a(g187
g188
F0.3811
tp711
a(g56
g14
F0.5836
tp712
a(g138
g14
F0.9963
tp713
asI241
(lp714
(S'xxx'
p715
g188
F0.8981
tp716
a(g52
g14
F0.6622
tp717
a(g193
g194
F0.972
tp718
a(g56
g14
F0.9847
tp719
a(g13
g14
F0.9962
tp720
asI242
(lp721
(S'xxx'
p722
g188
F0.5822
tp723
a(g13
g14
F0.9648
tp724
asI243
(lp725
(S'xxx'
p726
g188
F0.5822
tp727
a(g13
g14
F0.9648
tp728
asI244
(lp729
(S'Dad'
p730
g11
F0.8923
tp731
a(g38
g34
F0.9905
tp732
a(S"don't"
p733
g3
F1.0
tp734
a(S'want'
p735
g3
F0.9999
tp736
a(S'to'
p737
g27
F0.9961
tp738
a(S'eat'
p739
g3
F0.9987
tp740
a(S'that'
p741
g34
F0.7992
tp742
a(g13
g14
F0.9987
tp743
asI249
(lp744
(S'xxx'
p745
g188
F0.8981
tp746
a(g52
g14
F0.661
tp747
a(g187
g188
F0.3811
tp748
a(g56
g14
F0.7604
tp749
a(g13
g14
F0.9962
tp750
asI250
(lp751
(S'xxx'
p752
g188
F0.8981
tp753
a(g52
g14
F0.6622
tp754
a(g193
g194
F0.972
tp755
a(g56
g14
F0.9847
tp756
a(g13
g14
F0.9962
tp757
asI251
(lp758
(S'maybe'
p759
g18
F0.9545
tp760
a(S'tomorrow'
p761
g11
F0.6106
tp762
a(S'can'
p763
g3
F0.9975
tp764
a(g38
g34
F0.9992
tp765
a(S'have'
p766
g3
F1.0
tp767
a(S'them'
p768
g34
F0.9589
tp769
a(g138
g14
F0.9982
tp770
asI254
(lp771
(S'yes'
p772
g54
F0.9832
tp773
a(g52
g14
F0.9846
tp774
a(g187
g188
F0.3811
tp775
a(g56
g14
F0.7604
tp776
a(g13
g14
F0.9962
tp777
asI257
(lp778
(g193
g194
F0.9112
tp779
a(S'Daddy'
p780
g11
F0.8504
tp781
a(g187
g421
F0.4522
tp782
a(g52
g14
F0.9261
tp783
a(g193
g194
F0.9635
tp784
a(g56
g14
F0.984
tp785
a(g38
g34
F0.9863
tp786
a(S'xxx'
p787
g188
F0.5372
tp788
a(g52
g14
F0.6588
tp789
a(g187
g188
F0.4205
tp790
a(g56
g14
F0.7992
tp791
a(g13
g14
F0.9936
tp792
asI260
(lp793
(g193
g194
F0.9385
tp794
a(S'what'
p795
g34
F0.9947
tp796
a(S'do'
p797
g3
F0.9993
tp798
a(S'you'
p799
g34
F0.9996
tp800
a(S'want'
p801
g3
F0.9996
tp802
a(S'Jessica'
p803
g85
F0.9991
tp804
a(g187
g421
F0.2873
tp805
a(g52
g14
F0.9049
tp806
a(g193
g194
F0.9516
tp807
a(g56
g14
F0.9705
tp808
a(g138
g14
F0.9962
tp809
asI263
(lp810
(S'xxx'
p811
g188
F0.6528
tp812
a(S'big'
p813
g225
F0.9917
tp814
a(S'glass'
p815
g11
F0.9984
tp816
a(g13
g14
F0.998
tp817
asI266
(lp818
(S'get'
p819
g3
F0.9973
tp820
a(S'the'
p821
g8
F0.9987
tp822
a(S'lasagne'
p823
g11
F0.6448
tp824
a(S'and'
p825
g94
F0.9952
tp826
a(S'put'
p827
g3
F0.9962
tp828
a(S'it'
p829
g34
F0.9831
tp830
a(S'in'
p831
g27
F0.9073
tp832
a(g490
g8
F0.9958
tp833
a(S'bowl'
p834
g11
F0.9981
tp835
a(S'Kevin'
p836
g85
F0.9959
tp837
a(g13
g14
F0.9953
tp838
asI271
(lp839
(S"don't"
p840
g3
F0.9991
tp841
a(S'eat'
p842
g3
F0.9975
tp843
a(g13
g14
F0.998
tp844
asI274
(lp845
(S'Mommy'
p846
g11
F0.7586
tp847
a(g54
g14
F0.9986
tp848
asI277
(lp849
(S'that'
p850
g34
F0.9115
tp851
a(S'is'
p852
g3
F0.9984
tp853
a(S'xxx'
p854
g11
F0.3488
tp855
a(g13
g14
F0.9983
tp856
asI280
(lp857
(S'oh'
p858
g54
F0.9963
tp859
a(S'xxx'
p860
g188
F0.3657
tp861
a(g13
g14
F0.9721
tp862
asI284
(lp863
(S'Daddy'
p864
g11
F0.9178
tp865
a(g54
g14
F0.9986
tp866
asI287
(lp867
(g38
g34
F0.9981
tp868
a(S'need'
p869
g3
F0.9976
tp870
a(S'milk'
p871
g11
F0.9976
tp872
a(g54
g14
F0.9989
tp873
asI290
(lp874
(S'iced'
p875
g225
F0.9534
tp876
a(S'tea'
p877
g11
F0.9972
tp878
a(g13
g14
F0.9984
tp879
asI293
(lp880
(S"you're"
p881
g142
F0.9837
tp882
a(S'drinking'
p883
g3
F0.9925
tp884
a(S'iced'
p885
g225
F0.9657
tp886
a(S'tea'
p887
g11
F0.9899
tp888
a(S'not'
p889
g18
F0.9877
tp890
a(S'milk'
p891
g11
F0.9931
tp892
a(g13
g14
F0.9985
tp893
asI297
(lp894
(g38
g34
F0.9983
tp895
a(S'want'
p896
g3
F0.9996
tp897
a(S'milk'
p898
g11
F0.9964
tp899
a(g54
g14
F0.9989
tp900
asI301
(lp901
(S'xxx'
p902
g188
F0.5822
tp903
a(g13
g14
F0.9648
tp904
asI302
(lp905
(S'xxx'
p906
g188
F0.407
tp907
a(S'yourself'
p908
g34
F0.9115
tp909
a(g490
g8
F0.9903
tp910
a(S'brownie'
p911
g11
F0.9798
tp912
a(g13
g14
F0.9989
tp913
asI305
(lp914
(S'baba'
p915
g85
F0.4318
tp916
a(S'@b'
p917
g669
F0.9911
tp918
a(S'ba'
p919
g421
F0.4934
tp920
a(S'@b'
p921
g669
F0.9957
tp922
a(S'ba'
p923
g421
F0.5603
tp924
a(S'@b'
p925
g669
F0.995
tp926
a(S'ba'
p927
g421
F0.48
tp928
a(S'@b'
p929
g669
F0.9933
tp930
a(g54
g14
F0.9971
tp931
asI310
(lp932
(S'has'
p933
g3
F0.9828
tp934
a(S'Jess'
p935
g85
F0.9993
tp936
a(S'been'
p937
g3
F0.9936
tp938
a(g490
g8
F0.9904
tp939
a(S'good'
p940
g225
F0.9988
tp941
a(S'girl'
p942
g11
F0.9981
tp943
a(S'today'
p944
g11
F0.9917
tp945
a(g138
g14
F0.9978
tp946
asI314
(lp947
(S'huh'
p948
g54
F0.9936
tp949
a(g138
g14
F0.9967
tp950
asI317
(lp951
(S'she'
p952
g34
F0.9962
tp953
a(S'went'
p954
g3
F0.9987
tp955
a(S'to'
p956
g27
F0.9956
tp957
a(S'the'
p958
g8
F0.999
tp959
a(S'bath+room'
p960
g11
F0.9968
tp961
a(S'in'
p962
g27
F0.9983
tp963
a(S'my'
p964
g8
F0.9987
tp965
a(S'underwear'
p966
g11
F0.9973
tp967
a(g13
g14
F0.9989
tp968
asI322
(lp969
(S'she'
p970
g34
F0.996
tp971
a(S"didn't"
p972
g3
F0.9997
tp973
a(g13
g14
F0.9971
tp974
asI326
(lp975
(S'xxx'
p976
g188
F0.5822
tp977
a(g13
g14
F0.9648
tp978
asI327
(lp979
(S'she'
p980
g34
F0.9962
tp981
a(S'used'
p982
g3
F0.9922
tp983
a(S'the'
p984
g8
F0.9996
tp985
a(S'toilet'
p986
g11
F0.999
tp987
a(g13
g14
F0.999
tp988
asI331
(lp989
(S"that's"
p990
g142
F0.992
tp991
a(S'very'
p992
g18
F0.9856
tp993
a(S'good'
p994
g225
F0.9997
tp995
a(g13
g14
F0.9984
tp996
asI334
(lp997
(S'but'
p998
g94
F0.9936
tp999
a(S'she'
p1000
g34
F0.9975
tp1001
a(S'just'
p1002
g18
F0.9998
tp1003
a(S'missed'
p1004
g3
F0.9997
tp1005
a(S'the'
p1006
g8
F0.9988
tp1007
a(S'toilet'
p1008
g11
F0.9984
tp1009
a(g13
g14
F0.9989
tp1010
asI337
(lp1011
(S'xxx'
p1012
g188
F0.5822
tp1013
a(g13
g14
F0.9648
tp1014
asI338
(lp1015
(S"she's"
p1016
g142
F0.9808
tp1017
a(S'gotta'
p1018
g3
F0.9952
tp1019
a(S'be'
p1020
g3
F0.9996
tp1021
a(g490
g8
F0.9724
tp1022
a(S'bad'
p1023
g225
F0.9957
tp1024
a(S'girl'
p1025
g11
F0.9987
tp1026
a(g52
g14
F0.9775
tp1027
a(g54
g14
F0.991
tp1028
a(g56
g14
F0.9802
tp1029
a(g13
g14
F0.9959
tp1030
asI342
(lp1031
(S'zzz'
p1032
g421
F0.409
tp1033
a(g52
g14
F0.9395
tp1034
a(g187
g188
F0.3811
tp1035
a(g56
g14
F0.7604
tp1036
a(g13
g14
F0.9962
tp1037
asI346
(lp1038
(g193
g194
F0.9692
tp1039
a(S'well'
p1040
g54
F0.929
tp1041
a(S"she's"
p1042
g142
F0.9937
tp1043
a(S'not'
p1044
g18
F0.9999
tp1045
a(S'bad'
p1046
g225
F0.9935
tp1047
a(S'girl'
p1048
g11
F0.9972
tp1049
a(g187
g188
F0.7349
tp1050
a(g52
g188
F0.535
tp1051
a(g193
g194
F0.7815
tp1052
a(g56
g14
F0.9822
tp1053
a(g13
g14
F0.9964
tp1054
asI349
(lp1055
(S"she's"
p1056
g142
F0.9887
tp1057
a(S'just'
p1058
g18
F0.9993
tp1059
a(S'learning'
p1060
g3
F0.9967
tp1061
a(g13
g14
F0.999
tp1062
asI353
(lp1063
(S'you'
p1064
g34
F0.9984
tp1065
a(S'learned'
p1066
g3
F0.9966
tp1067
a(S'how'
p1068
g18
F0.9928
tp1069
a(S'to'
p1070
g27
F0.9895
tp1071
a(S'[///]'
p1072
g3
F0.4412
tp1073
a(S"she's"
p1074
g142
F0.9701
tp1075
a(S'learning'
p1076
g3
F0.993
tp1077
a(S'how'
p1078
g18
F0.9959
tp1079
a(S'to'
p1080
g27
F0.9743
tp1081
a(S'do'
p1082
g3
F1.0
tp1083
a(S'it'
p1084
g34
F0.996
tp1085
a(S'now'
p1086
g18
F0.9943
tp1087
a(g13
g14
F0.9983
tp1088
asI358
(lp1089
(S'zzz'
p1090
g54
F0.3756
tp1091
a(g13
g14
F0.9972
tp1092
asI362
(lp1093
(S'sit'
p1094
g3
F0.9868
tp1095
a(S'down'
p1096
g199
F0.8766
tp1097
a(g52
g14
F0.9804
tp1098
a(g54
g14
F0.9922
tp1099
a(g56
g14
F0.9866
tp1100
a(S'and'
p1101
g94
F0.9991
tp1102
a(S'do'
p1103
g3
F0.9997
tp1104
a(S'it'
p1105
g34
F0.9945
tp1106
a(g13
g14
F0.9991
tp1107
asI365
(lp1108
(S'yeah'
p1109
g54
F0.9951
tp1110
a(g52
g14
F0.9838
tp1111
a(g187
g188
F0.3811
tp1112
a(g56
g14
F0.7604
tp1113
a(g13
g14
F0.9962
tp1114
asI368
(lp1115
(g193
g194
F0.9262
tp1116
a(S"you're"
p1117
g142
F0.9795
tp1118
a(S'okay'
p1119
g225
F0.8158
tp1120
a(g187
g188
F0.5055
tp1121
a(g52
g188
F0.535
tp1122
a(g193
g194
F0.6902
tp1123
a(g56
g14
F0.9839
tp1124
a(g13
g14
F0.9962
tp1125
asI371
(lp1126
(S'and'
p1127
g94
F0.9994
tp1128
a(g38
g34
F0.9988
tp1129
a(S'wipe'
p1130
g3
F0.9998
tp1131
a(S'my'
p1132
g8
F0.9981
tp1133
a(S'bum'
p1134
g11
F0.9973
tp1135
a(g52
g14
F0.9871
tp1136
a(g54
g14
F0.9901
tp1137
a(g56
g14
F0.9839
tp1138
a(S'off'
p1139
g18
F0.343
tp1140
a(g13
g14
F0.9981
tp1141
asI374
(lp1142
(S'good'
p1143
g225
F0.952
tp1144
a(S'for'
p1145
g27
F0.9997
tp1146
a(S'you'
p1147
g34
F0.9992
tp1148
a(g13
g14
F0.9996
tp1149
asI378
(lp1150
(S'do'
p1151
g3
F0.9985
tp1152
a(S'you'
p1153
g34
F0.9996
tp1154
a(S'want'
p1155
g3
F1.0
tp1156
a(S'me'
p1157
g34
F0.9981
tp1158
a(S'to'
p1159
g27
F0.9855
tp1160
a(S'teach'
p1161
g3
F0.9999
tp1162
a(S'you'
p1163
g34
F0.9985
tp1164
a(S'how'
p1165
g18
F0.9975
tp1166
a(S'to'
p1167
g27
F0.9743
tp1168
a(S'do'
p1169
g3
F0.9999
tp1170
a(S'that'
p1171
g34
F0.8276
tp1172
a(g138
g14
F0.9976
tp1173
asI383
(lp1174
(S'zzz'
p1175
g54
F0.3756
tp1176
a(g13
g14
F0.9972
tp1177
asI387
(lp1178
(S'xxx'
p1179
g188
F0.5822
tp1180
a(g13
g14
F0.9648
tp1181
asI388
(lp1182
(S'zzz'
p1183
g54
F0.3756
tp1184
a(g13
g14
F0.9972
tp1185
asI392
(lp1186
(S'alright'
p1187
g54
F0.9793
tp1188
a(g13
g14
F0.9973
tp1189
asI395
(lp1190
(S'Daddy'
p1191
g11
F0.9178
tp1192
a(g54
g14
F0.9986
tp1193
asI398
(lp1194
(S'she'
p1195
g34
F0.9962
tp1196
a(S'tried'
p1197
g3
F0.9968
tp1198
a(S'to'
p1199
g27
F0.9666
tp1200
a(S'xxx'
p1201
g188
F0.6167
tp1202
a(g52
g14
F0.6588
tp1203
a(g187
g188
F0.6043
tp1204
a(g56
g14
F0.7541
tp1205
a(g13
g14
F0.9962
tp1206
asI401
(lp1207
(S'yeah'
p1208
g54
F0.9951
tp1209
a(g52
g14
F0.9843
tp1210
a(g193
g194
F0.972
tp1211
a(g56
g14
F0.974
tp1212
a(g138
g14
F0.9963
tp1213
asI404
(lp1214
(S'you'
p1215
g34
F0.998
tp1216
a(S'want'
p1217
g3
F0.9999
tp1218
a(S'some'
p1219
g8
F0.9422
tp1220
a(S'more'
p1221
g225
F0.9306
tp1222
a(g138
g14
F0.998
tp1223
asI407
(lp1224
(S'milk'
p1225
g11
F0.9854
tp1226
a(g138
g14
F0.9968
tp1227
asI410
(lp1228
(S'milk'
p1229
g11
F0.9881
tp1230
a(S'now'
p1231
g18
F0.9844
tp1232
a(g138
g14
F0.9986
tp1233
asI413
(lp1234
(S'okay'
p1235
g54
F0.9741
tp1236
a(g13
g14
F0.9977
tp1237
asI416
(lp1238
(S"here's"
p1239
g142
F0.911
tp1240
a(S'your'
p1241
g8
F0.922
tp1242
a(S'iced'
p1243
g225
F0.8974
tp1244
a(S'tea'
p1245
g11
F0.9849
tp1246
a(S'Kevin'
p1247
g85
F0.9813
tp1248
a(g13
g14
F0.9931
tp1249
asI420
(lp1250
(S'drink'
p1251
g3
F0.9752
tp1252
a(S'it'
p1253
g34
F0.9834
tp1254
a(S'(.)'
p1255
g14
F0.2491
tp1256
a(S'or'
p1257
g94
F0.9911
tp1258
a(S"I'm"
p1259
g142
F0.9962
tp1260
a(S'taking'
p1261
g3
F0.9997
tp1262
a(S'it'
p1263
g34
F0.9955
tp1264
a(S'away'
p1265
g18
F0.9787
tp1266
a(g13
g14
F0.9984
tp1267
asI425
(lp1268
(S'xxx'
p1269
g188
F0.5822
tp1270
a(g13
g14
F0.9648
tp1271
asI426
(lp1272
(S'how'
p1273
g18
F0.9078
tp1274
a(S'is'
p1275
g3
F0.9993
tp1276
a(S'your'
p1277
g8
F0.977
tp1278
a(S'lasagna'
p1279
g11
F0.9349
tp1280
a(g138
g14
F0.998
tp1281
asI429
(lp1282
(S'good'
p1283
g225
F0.983
tp1284
a(S'but'
p1285
g94
F0.9676
tp1286
a(S'the'
p1287
g8
F0.9771
tp1288
a(S'xxx'
p1289
g11
F0.8949
tp1290
a(g13
g14
F0.9984
tp1291
asI432
(lp1292
(S"that's"
p1293
g142
F0.9857
tp1294
a(S'it'
p1295
g34
F0.9948
tp1296
a(g13
g14
F0.9987
tp1297
asI435
(lp1298
(S"you're"
p1299
g142
F0.9953
tp1300
a(S'not'
p1301
g18
F0.9969
tp1302
a(S'getting'
p1303
g3
F0.9998
tp1304
a(S'any'
p1305
g8
F0.9014
tp1306
a(S'more'
p1307
g225
F0.8657
tp1308
a(S'Kevin'
p1309
g85
F0.9961
tp1310
a(g13
g14
F0.9946
tp1311
asI439
(lp1312
(S'zzz'
p1313
g54
F0.3756
tp1314
a(g13
g14
F0.9972
tp1315
asI443
(lp1316
(S'where'
p1317
g18
F0.9373
tp1318
a(S'are'
p1319
g3
F0.987
tp1320
a(S'you'
p1321
g34
F0.9997
tp1322
a(S'going'
p1323
g3
F0.9946
tp1324
a(g138
g14
F0.9987
tp1325
asI446
(lp1326
(S'going'
p1327
g3
F0.9979
tp1328
a(S'to'
p1329
g27
F0.9946
tp1330
a(S'the'
p1331
g8
F0.9989
tp1332
a(S'bath+room'
p1333
g11
F0.9991
tp1334
a(g13
g14
F0.999
tp1335
asI449
(lp1336
(S'alright'
p1337
g54
F0.9793
tp1338
a(g13
g14
F0.9973
tp1339
asI453
(lp1340
(S'Daddy'
p1341
g11
F0.7096
tp1342
a(S'(.)'
p1343
g421
F0.3546
tp1344
a(g38
g34
F0.9833
tp1345
a(g193
g194
F0.9057
tp1346
a(S'want'
p1347
g3
F0.9924
tp1348
a(S'tea'
p1349
g11
F0.945
tp1350
a(g187
g188
F0.499
tp1351
a(g52
g188
F0.5345
tp1352
a(g187
g188
F0.9577
tp1353
a(g56
g14
F0.795
tp1354
a(g13
g14
F0.9964
tp1355
asI456
(lp1356
(S'no'
p1357
g54
F0.8389
tp1358
a(g52
g14
F0.9936
tp1359
a(g193
g194
F0.972
tp1360
a(g56
g14
F0.9847
tp1361
a(g13
g14
F0.9962
tp1362
asI459
(lp1363
(S'no'
p1364
g54
F0.681
tp1365
a(S"I'll"
p1366
g142
F0.9822
tp1367
a(S'tell'
p1368
g3
F0.9997
tp1369
a(S'you'
p1370
g34
F0.9991
tp1371
a(g13
g14
F0.9995
tp1372
asI462
(lp1373
(S'when'
p1374
g18
F0.9804
tp1375
a(S'you'
p1376
g34
F0.9993
tp1377
a(S'want'
p1378
g3
F0.9999
tp1379
a(g490
g8
F0.9986
tp1380
a(S'little'
p1381
g225
F0.9885
tp1382
a(S'drink'
p1383
g11
F0.595
tp1384
a(S'you'
p1385
g34
F0.9963
tp1386
a(S'ask'
p1387
g3
F0.9958
tp1388
a(S'Mommy'
p1389
g85
F0.5492
tp1390
a(S'and'
p1391
g94
F0.9988
tp1392
a(S"she'll"
p1393
g3
F0.5526
tp1394
a(S'give'
p1395
g3
F0.9999
tp1396
a(S'you'
p1397
g34
F0.9963
tp1398
a(g490
g8
F0.9962
tp1399
a(S'little'
p1400
g225
F0.9885
tp1401
a(S'drink'
p1402
g11
F0.9489
tp1403
a(S'(.)'
p1404
g188
F0.2618
tp1405
a(S'then'
p1406
g18
F0.9906
tp1407
a(S"we'll"
p1408
g142
F0.9691
tp1409
a(S'put'
p1410
g3
F0.999
tp1411
a(S'the'
p1412
g8
F0.9995
tp1413
a(S'glass'
p1414
g11
F0.9945
tp1415
a(S'away'
p1416
g18
F0.954
tp1417
a(g13
g14
F0.9971
tp1418
asI471
(lp1419
(S'okay'
p1420
g54
F0.9732
tp1421
a(g138
g14
F0.9976
tp1422
asI474
(lp1423
(S'want'
p1424
g3
F0.9975
tp1425
a(S'some'
p1426
g8
F0.9886
tp1427
a(S'iced'
p1428
g225
F0.9853
tp1429
a(S'tea'
p1430
g11
F0.9948
tp1431
a(S'to'
p1432
g27
F0.998
tp1433
a(S'drink'
p1434
g3
F0.9046
tp1435
a(g138
g14
F0.9965
tp1436
asI477
(lp1437
(S'huh'
p1438
g54
F0.9936
tp1439
a(g138
g14
F0.9967
tp1440
asI480
(lp1441
(S'yes'
p1442
g54
F0.9962
tp1443
a(g138
g14
F0.9967
tp1444
asI484
(lp1445
(S'put'
p1446
g3
F0.9896
tp1447
a(S'your'
p1448
g8
F0.9969
tp1449
a(S'foot'
p1450
g11
F0.9997
tp1451
a(S'off'
p1452
g27
F0.9686
tp1453
a(S'the'
p1454
g8
F0.9998
tp1455
a(S'table'
p1456
g11
F0.9977
tp1457
a(g13
g14
F0.9982
tp1458
asI487
(lp1459
(S'zzz'
p1460
g54
F0.3756
tp1461
a(g13
g14
F0.9972
tp1462
asI491
(lp1463
(S"that's"
p1464
g142
F0.9857
tp1465
a(S'it'
p1466
g34
F0.9948
tp1467
a(g13
g14
F0.9987
tp1468
asI494
(lp1469
(S'xxx'
p1470
g188
F0.8252
tp1471
a(S'xxx'
p1472
g188
F0.9396
tp1473
a(S'tea'
p1474
g11
F0.9774
tp1475
a(g54
g14
F0.9988
tp1476
asI497
(lp1477
(S'are'
p1478
g3
F0.9964
tp1479
a(S'you'
p1480
g34
F0.9917
tp1481
a(S'full'
p1482
g225
F0.9787
tp1483
a(g138
g14
F0.9953
tp1484
asI500
(lp1485
(S'zzz'
p1486
g54
F0.3756
tp1487
a(g13
g14
F0.9972
tp1488
asI504
(lp1489
(g193
g194
F0.97
tp1490
a(S'xxx'
p1491
g188
F0.7306
tp1492
a(S'xxx'
p1493
g188
F0.9784
tp1494
a(g187
g188
F0.955
tp1495
a(g52
g188
F0.5345
tp1496
a(g187
g188
F0.9749
tp1497
a(g56
g14
F0.7541
tp1498
a(g13
g14
F0.9962
tp1499
asI505
(lp1500
(g193
g194
F0.97
tp1501
a(S'xxx'
p1502
g188
F0.7306
tp1503
a(S'xxx'
p1504
g188
F0.9784
tp1505
a(g187
g188
F0.955
tp1506
a(g52
g188
F0.535
tp1507
a(g193
g194
F0.6902
tp1508
a(g56
g14
F0.9839
tp1509
a(g13
g14
F0.9962
tp1510
asI506
(lp1511
(g38
g34
F0.9983
tp1512
a(S'knew'
p1513
g3
F0.9999
tp1514
a(S'it'
p1515
g34
F0.9879
tp1516
a(g54
g14
F0.9992
tp1517
asI509
(lp1518
(S'zzz'
p1519
g54
F0.3756
tp1520
a(g13
g14
F0.9972
tp1521
asI514
(lp1522
(S"you're"
p1523
g142
F0.9953
tp1524
a(S'not'
p1525
g18
F0.9969
tp1526
a(S'getting'
p1527
g3
F0.9996
tp1528
a(S'anything'
p1529
g11
F0.9835
tp1530
a(S'else'
p1531
g18
F0.9424
tp1532
a(S'to'
p1533
g27
F0.9937
tp1534
a(S'drink'
p1535
g3
F0.9558
tp1536
a(S'at'
p1537
g27
F0.9973
tp1538
a(S'supper'
p1539
g11
F0.8649
tp1540
a(S'time'
p1541
g11
F0.9983
tp1542
a(g13
g14
F0.9981
tp1543
asI520
(lp1544
(S'never'
p1545
g18
F0.9751
tp1546
a(g54
g14
F0.9969
tp1547
asI524
(lp1548
(S'alright'
p1549
g54
F0.9793
tp1550
a(g13
g14
F0.9973
tp1551
asI527
(lp1552
(S'alright'
p1553
g54
F0.9793
tp1554
a(g13
g14
F0.9973
tp1555
asI530
(lp1556
(S"you're"
p1557
g142
F0.9791
tp1558
a(S'the'
p1559
g8
F0.9955
tp1560
a(S'one'
p1561
g634
F0.9495
tp1562
a(S"that's"
p1563
g142
F0.9314
tp1564
a(S'all'
p1565
g8
F0.7302
tp1566
a(S'soaked'
p1567
g225
F0.6745
tp1568
a(g52
g14
F0.9878
tp1569
a(g54
g14
F0.9901
tp1570
a(g56
g14
F0.9606
tp1571
a(S'(.)'
p1572
g421
F0.3401
tp1573
a(g13
g14
F0.992
tp1574
asI536
(lp1575
(S'oh'
p1576
g54
F0.9959
tp1577
a(S'+'
p1578
g94
F0.4937
tp1579
a(S'...'
p1580
g194
F0.5924
tp1581
asI539
(lp1582
(S'Daddy'
p1583
g11
F0.911
tp1584
a(g138
g14
F0.9974
tp1585
asI542
(lp1586
(S'iced'
p1587
g225
F0.958
tp1588
a(S'tea'
p1589
g11
F0.9846
tp1590
a(S'(.)'
p1591
g421
F0.3382
tp1592
a(g138
g14
F0.9891
tp1593
asI545
(lp1594
(S'Mummy'
p1595
g11
F0.7856
tp1596
a(g138
g14
F0.9978
tp1597
asI548
(lp1598
(S'iced'
p1599
g225
F0.9534
tp1600
a(S'tea'
p1601
g11
F0.9956
tp1602
a(g138
g14
F0.9955
tp1603
asI551
(lp1604
(S'xxx'
p1605
g188
F0.8981
tp1606
a(g52
g14
F0.661
tp1607
a(g187
g188
F0.3811
tp1608
a(g56
g14
F0.7604
tp1609
a(g13
g14
F0.9962
tp1610
asI552
(lp1611
(g193
g194
F0.9351
tp1612
a(S'eat'
p1613
g3
F0.9178
tp1614
a(g52
g14
F0.9864
tp1615
a(g54
g14
F0.9922
tp1616
a(g56
g14
F0.9571
tp1617
a(S'Kevin'
p1618
g85
F0.9967
tp1619
a(g187
g421
F0.2873
tp1620
a(g52
g14
F0.9049
tp1621
a(g193
g194
F0.9516
tp1622
a(g56
g14
F0.9822
tp1623
a(g13
g14
F0.9964
tp1624
asI555
(lp1625
(S"you're"
p1626
g142
F0.9953
tp1627
a(S'not'
p1628
g18
F0.9969
tp1629
a(S'getting'
p1630
g3
F0.9987
tp1631
a(S'anymore'
p1632
g18
F0.9901
tp1633
a(g13
g14
F0.9978
tp1634
asI559
(lp1635
(g38
g34
F0.9981
tp1636
a(S'need'
p1637
g3
F0.9988
tp1638
a(S'iced'
p1639
g225
F0.9726
tp1640
a(S'tea'
p1641
g11
F0.9973
tp1642
a(g54
g14
F0.999
tp1643
asI563
(lp1644
(S'what'
p1645
g34
F0.9965
tp1646
a(S'did'
p1647
g3
F0.9939
tp1648
a(g38
g34
F0.9988
tp1649
a(S'just'
p1650
g18
F0.9993
tp1651
a(S'say'
p1652
g3
F0.9868
tp1653
a(g138
g14
F0.997
tp1654
asI567
(lp1655
(S'no'
p1656
g54
F0.9847
tp1657
a(g54
g14
F0.999
tp1658
asI571
(lp1659
(S"what's"
p1660
g142
F0.9897
tp1661
a(S'this'
p1662
g34
F0.7161
tp1663
a(g52
g14
F0.9877
tp1664
a(g54
g14
F0.9922
tp1665
a(g56
g14
F0.9762
tp1666
a(S'stuff'
p1667
g11
F0.9803
tp1668
a(g138
g14
F0.9982
tp1669
asI575
(lp1670
(S'cheese'
p1671
g11
F0.9868
tp1672
a(g13
g14
F0.9983
tp1673
asI578
(lp1674
(S"that's"
p1675
g142
F0.9701
tp1676
a(S'cheese'
p1677
g11
F0.9836
tp1678
a(g13
g14
F0.9985
tp1679
asI582
(lp1680
(S'why'
p1681
g18
F0.9473
tp1682
a(S'[/]'
p1683
g14
F0.2738
tp1684
a(S'why'
p1685
g18
F0.9691
tp1686
a(g122
g14
F0.9677
tp1687
a(S'di)d'
p1688
g3
F0.9927
tp1689
a(S'you'
p1690
g34
F0.9992
tp1691
a(S'put'
p1692
g3
F0.9983
tp1693
a(S'some'
p1694
g8
F0.9937
tp1695
a(S'cheese'
p1696
g11
F0.9958
tp1697
a(S'in'
p1698
g27
F0.995
tp1699
a(S'here'
p1700
g18
F0.9231
tp1701
a(g138
g14
F0.9979
tp1702
asI588
(lp1703
(S'because'
p1704
g27
F0.9885
tp1705
a(S"that's"
p1706
g142
F0.9937
tp1707
a(S'how'
p1708
g18
F0.9959
tp1709
a(S'you'
p1710
g34
F0.9995
tp1711
a(S'make'
p1712
g3
F0.9999
tp1713
a(S'it'
p1714
g34
F0.7965
tp1715
a(g13
g14
F0.9989
tp1716
asI594
(lp1717
(S'how'
p1718
g18
F0.9703
tp1719
a(S'do'
p1720
g3
F0.9987
tp1721
a(S'you'
p1722
g34
F0.9993
tp1723
a(S'make'
p1724
g3
F0.9996
tp1725
a(S'it'
p1726
g34
F0.6876
tp1727
a(g138
g14
F0.9987
tp1728
asI598
(lp1729
(S'take'
p1730
g3
F0.9617
tp1731
a(S'cheese'
p1732
g11
F0.9882
tp1733
a(S'and'
p1734
g94
F0.9979
tp1735
a(S'tomato'
p1736
g11
F0.9614
tp1737
a(S'sauce'
p1738
g11
F0.9978
tp1739
a(S'and'
p1740
g94
F0.998
tp1741
a(S'meat'
p1742
g11
F0.9784
tp1743
a(g13
g14
F0.9987
tp1744
asI602
(lp1745
(S'and'
p1746
g94
F0.9984
tp1747
a(S'two'
p1748
g634
F0.9526
tp1749
a(S'eggs'
p1750
g11
F0.9989
tp1751
a(g13
g14
F0.9986
tp1752
asI605
(lp1753
(g193
g194
F0.9759
tp1754
a(S'uhhuh'
p1755
g54
F0.9732
tp1756
a(S"that's"
p1757
g142
F0.9976
tp1758
a(S'right'
p1759
g225
F0.695
tp1760
a(S'(.)>'
p1761
g11
F0.2688
tp1762
a(g52
g14
F0.9809
tp1763
a(g187
g188
F0.5886
tp1764
a(g56
g14
F0.8062
tp1765
a(g13
g14
F0.9969
tp1766
asI608
(lp1767
(g193
g194
F0.9112
tp1768
a(S'Mommy'
p1769
g85
F0.4808
tp1770
a(S'please'
p1771
g3
F0.9637
tp1772
a(g187
g188
F0.5295
tp1773
a(g52
g188
F0.535
tp1774
a(g193
g194
F0.6902
tp1775
a(g56
g14
F0.9731
tp1776
a(g138
g14
F0.996
tp1777
asI611
(lp1778
(S'eggs'
p1779
g11
F0.9792
tp1780
a(g52
g14
F0.9843
tp1781
a(g187
g188
F0.3811
tp1782
a(g56
g14
F0.7604
tp1783
a(g13
g14
F0.9962
tp1784
asI615
(lp1785
(g193
g194
F0.9112
tp1786
a(S'Mommy'
p1787
g11
F0.5708
tp1788
a(g187
g421
F0.4522
tp1789
a(g52
g14
F0.9261
tp1790
a(g193
g194
F0.948
tp1791
a(g56
g14
F0.9666
tp1792
a(g138
g14
F0.9959
tp1793
asI618
(lp1794
(S'be'
p1795
g3
F0.9862
tp1796
a(S'quiet'
p1797
g225
F0.9762
tp1798
a(S'and'
p1799
g94
F0.9958
tp1800
a(S'eat'
p1801
g3
F0.9984
tp1802
a(S'your'
p1803
g8
F0.9942
tp1804
a(S'supper'
p1805
g11
F0.9977
tp1806
a(S'or'
p1807
g94
F0.9837
tp1808
a(S"you're"
p1809
g142
F0.9939
tp1810
a(S'going'
p1811
g3
F0.9967
tp1812
a(S'to'
p1813
g27
F0.9804
tp1814
a(S'bed'
p1815
g11
F0.9193
tp1816
a(g13
g14
F0.9977
tp1817
asI623
(lp1818
(S'who'
p1819
g34
F0.9963
tp1820
a(S'do'
p1821
g3
F0.9999
tp1822
a(S'you'
p1823
g34
F0.9997
tp1824
a(S'think'
p1825
g3
F0.9986
tp1826
a(S'xxx'
p1827
g188
F0.5383
tp1828
a(S'cheeses'
p1829
g11
F0.9882
tp1830
a(g138
g14
F0.9976
tp1831
asI626
(lp1832
(S'shut'
p1833
g3
F0.9803
tp1834
a(S'up'
p1835
g199
F0.9775
tp1836
a(g54
g14
F0.9975
tp1837
asI630
(lp1838
(S'supper'
p1839
g11
F0.9721
tp1840
a(g13
g14
F0.9983
tp1841
asI633
(lp1842
(S'supper'
p1843
g11
F0.9721
tp1844
a(g13
g14
F0.9983
tp1845
asI638
(lp1846
(S'supper'
p1847
g11
F0.9721
tp1848
a(g13
g14
F0.9983
tp1849
asI641
(lp1850
(S'Daddy'
p1851
g11
F0.9401
tp1852
a(g13
g14
F0.9983
tp1853
asI644
(lp1854
(S'eat'
p1855
g3
F0.99
tp1856
a(S'your'
p1857
g8
F0.9934
tp1858
a(S'supper'
p1859
g11
F0.9989
tp1860
a(g54
g14
F0.9989
tp1861
asI647
(lp1862
(S'no'
p1863
g54
F0.9847
tp1864
a(g54
g14
F0.999
tp1865
asI650
(lp1866
(S"you're"
p1867
g142
F0.9942
tp1868
a(S'going'
p1869
g3
F0.9942
tp1870
a(S'right'
p1871
g18
F0.5174
tp1872
a(S'to'
p1873
g27
F0.9968
tp1874
a(S'bed'
p1875
g11
F0.7595
tp1876
a(g54
g14
F0.9986
tp1877
asI653
(lp1878
(S'no'
p1879
g54
F0.9847
tp1880
a(g54
g14
F0.999
tp1881
asI657
(lp1882
(S'xxx'
p1883
g188
F0.5822
tp1884
a(g13
g14
F0.9648
tp1885
asI658
(lp1886
(S'yeah'
p1887
g54
F0.9986
tp1888
a(g13
g14
F0.997
tp1889
asI661
(lp1890
(S"I'm"
p1891
g142
F0.9953
tp1892
a(S'good'
p1893
g225
F0.998
tp1894
a(S'at'
p1895
g27
F0.9888
tp1896
a(S'xxx'
p1897
g11
F0.3607
tp1898
a(g13
g14
F0.9984
tp1899
asI664
(lp1900
(g38
g34
F0.9977
tp1901
a(S'can'
p1902
g3
F0.9999
tp1903
a(S'[/]'
p1904
g3
F0.4038
tp1905
a(g38
g34
F0.9991
tp1906
a(S'can'
p1907
g3
F0.9999
tp1908
a(S'sing'
p1909
g3
F0.9998
tp1910
a(S'god'
p1911
g85
F0.8906
tp1912
a(S'god'
p1913
g85
F0.9697
tp1914
a(S'heaven'
p1915
g85
F0.9714
tp1916
a(S'heaven'
p1917
g85
F0.9548
tp1918
a(g13
g14
F0.9958
tp1919
asI669
(lp1920
(S'Mommy'
p1921
g11
F0.8032
tp1922
a(g38
g34
F0.9968
tp1923
a(S'did'
p1924
g3
F0.9999
tp1925
a(g490
g8
F0.9983
tp1926
a(S'handstand'
p1927
g11
F0.9984
tp1928
a(g54
g14
F0.9985
tp1929
asI672
(lp1930
(S'zzz'
p1931
g421
F0.409
tp1932
a(g52
g14
F0.9395
tp1933
a(g187
g188
F0.3811
tp1934
a(g56
g14
F0.7604
tp1935
a(g13
g14
F0.9962
tp1936
asI676
(lp1937
(g193
g194
F0.9001
tp1938
a(S'you'
p1939
g34
F0.9819
tp1940
a(S'what'
p1941
g34
F0.9352
tp1942
a(g187
g188
F0.5714
tp1943
a(g52
g188
F0.535
tp1944
a(g193
g194
F0.6902
tp1945
a(g56
g14
F0.9731
tp1946
a(g138
g14
F0.996
tp1947
asI680
(lp1948
(g38
g34
F0.9991
tp1949
a(S'did'
p1950
g3
F0.9999
tp1951
a(g490
g8
F0.9982
tp1952
a(S'handstand'
p1953
g11
F0.9989
tp1954
a(g13
g14
F0.9985
tp1955
asI683
(lp1956
(S'Chi'
p1957
g85
F0.6936
tp1958
a(g54
g14
F0.9785
tp1959
asI686
(lp1960
(S'xxx'
p1961
g188
F0.5822
tp1962
a(g13
g14
F0.9648
tp1963
asI687
(lp1964
(S'handstand'
p1965
g11
F0.9811
tp1966
a(g13
g14
F0.9981
tp1967
asI690
(lp1968
(S'testing'
p1969
g3
F0.5564
tp1970
a(g52
g14
F0.9894
tp1971
a(g138
g14
F0.979
tp1972
a(g56
g14
F0.9016
tp1973
a(g13
g14
F0.9962
tp1974
asI693
(lp1975
(S'handstand'
p1976
g11
F0.9811
tp1977
a(g13
g14
F0.9981
tp1978
asI696
(lp1979
(S'still'
p1980
g18
F0.9882
tp1981
a(S'testing'
p1982
g3
F0.9529
tp1983
a(g13
g14
F0.9981
tp1984
asI699
(lp1985
(S'testing'
p1986
g3
F0.5564
tp1987
a(g52
g14
F0.9879
tp1988
a(g54
g14
F0.9888
tp1989
a(g56
g14
F0.9754
tp1990
a(g13
g14
F0.9962
tp1991
asI703
(lp1992
(S'what'
p1993
g34
F0.9965
tp1994
a(S'did'
p1995
g3
F0.9994
tp1996
a(S'you'
p1997
g34
F0.9988
tp1998
a(S'find'
p1999
g3
F0.9991
tp2000
a(S'in'
p2001
g27
F0.9296
tp2002
a(S'the'
p2003
g8
F0.9993
tp2004
a(S'backyard'
p2005
g11
F0.9949
tp2006
a(S'today'
p2007
g11
F0.9837
tp2008
a(S'Chi'
p2009
g85
F0.9715
tp2010
a(g138
g14
F0.9911
tp2011
asI709
(lp2012
(S'frogs'
p2013
g11
F0.9718
tp2014
a(g52
g14
F0.9842
tp2015
a(g187
g188
F0.3811
tp2016
a(g56
g14
F0.7604
tp2017
a(g13
g14
F0.9962
tp2018
asI712
(lp2019
(S'frogs'
p2020
g11
F0.9718
tp2021
a(g52
g14
F0.9851
tp2022
a(g193
g194
F0.972
tp2023
a(g56
g14
F0.9847
tp2024
a(g13
g14
F0.9962
tp2025
asI715
(lp2026
(g490
g8
F0.9944
tp2027
a(S'frog'
p2028
g11
F0.9991
tp2029
a(g13
g14
F0.9983
tp2030
asI718
(lp2031
(g193
g194
F0.9324
tp2032
a(S'two'
p2033
g634
F0.9791
tp2034
a(S'frogs'
p2035
g11
F0.9965
tp2036
a(g187
g188
F0.6042
tp2037
a(g52
g188
F0.5345
tp2038
a(g187
g188
F0.9749
tp2039
a(g56
g14
F0.7541
tp2040
a(g13
g14
F0.9962
tp2041
asI721
(lp2042
(g193
g194
F0.9526
tp2043
a(g38
g34
F0.9981
tp2044
a(S'set'
p2045
g3
F0.9972
tp2046
a(S'mine'
p2047
g34
F0.9659
tp2048
a(g187
g188
F0.6519
tp2049
a(g52
g188
F0.535
tp2050
a(g193
g194
F0.8293
tp2051
a(g56
g14
F0.9895
tp2052
a(S'free'
p2053
g225
F0.9713
tp2054
a(g13
g14
F0.9982
tp2055
asI724
(lp2056
(g193
g194
F0.9346
tp2057
a(S'did'
p2058
g3
F0.9993
tp2059
a(S'you'
p2060
g34
F0.9984
tp2061
a(S'really'
p2062
g18
F0.9958
tp2063
a(g187
g188
F0.5127
tp2064
a(g52
g188
F0.5345
tp2065
a(g187
g188
F0.9732
tp2066
a(g56
g14
F0.6496
tp2067
a(g138
g14
F0.9965
tp2068
asI727
(lp2069
(g193
g194
F0.97
tp2070
a(S'xxx'
p2071
g188
F0.7306
tp2072
a(S'xxx'
p2073
g188
F0.9784
tp2074
a(g187
g188
F0.955
tp2075
a(g52
g188
F0.535
tp2076
a(g193
g194
F0.6902
tp2077
a(g56
g14
F0.9731
tp2078
a(g138
g14
F0.996
tp2079
asI729
(lp2080
(g38
g34
F0.9982
tp2081
a(S'got'
p2082
g3
F0.9992
tp2083
a(S'two'
p2084
g634
F0.9344
tp2085
a(S'frogs'
p2086
g11
F0.998
tp2087
a(g13
g14
F0.9986
tp2088
asI732
(lp2089
(S'one'
p2090
g634
F0.9203
tp2091
a(S'was'
p2092
g3
F0.9941
tp2093
a(S'all'
p2094
g8
F0.9666
tp2095
a(S'grayish'
p2096
g225
F0.7435
tp2097
a(S'(.)'
p2098
g27
F0.3033
tp2099
a(S'the'
p2100
g8
F0.9981
tp2101
a(S'one'
p2102
g634
F0.947
tp2103
a(S'you'
p2104
g34
F0.9961
tp2105
a(S'caught'
p2106
g3
F0.9997
tp2107
a(S'the'
p2108
g8
F0.9996
tp2109
a(S'other'
p2110
g225
F0.9927
tp2111
a(S'day'
p2112
g11
F0.9978
tp2113
a(g138
g14
F0.9985
tp2114
asI739
(lp2115
(S'Chi'
p2116
g85
F0.7691
tp2117
a(g193
g194
F0.5389
tp2118
a(S'threw'
p2119
g3
F0.9962
tp2120
a(S'his'
p2121
g8
F0.9973
tp2122
a(S'football'
p2123
g11
F0.998
tp2124
a(g187
g188
F0.5787
tp2125
a(g52
g14
F0.6089
tp2126
a(g138
g14
F0.9841
tp2127
a(g56
g14
F0.9319
tp2128
a(S'over'
p2129
g27
F0.9685
tp2130
a(S'the'
p2131
g8
F0.9992
tp2132
a(S'fence'
p2133
g11
F0.9792
tp2134
a(S'xxx'
p2135
g188
F0.4003
tp2136
a(g13
g14
F0.9835
tp2137
asI743
(lp2138
(g38
g34
F0.9982
tp2139
a(S'told'
p2140
g3
F1.0
tp2141
a(S'him'
p2142
g34
F0.9902
tp2143
a(S'go'
p2144
g3
F0.9773
tp2145
a(S'get'
p2146
g3
F0.9989
tp2147
a(S'it'
p2148
g34
F0.9921
tp2149
a(g13
g14
F0.9989
tp2150
asI746
(lp2151
(S'and'
p2152
g94
F0.9994
tp2153
a(g38
g34
F0.9989
tp2154
a(S'went'
p2155
g3
F0.9997
tp2156
a(S'to'
p2157
g27
F0.9933
tp2158
a(S'get'
p2159
g3
F1.0
tp2160
a(S'it'
p2161
g34
F0.9957
tp2162
a(S'and'
p2163
g94
F0.9957
tp2164
a(S'Danny'
p2165
g85
F0.9996
tp2166
a(S'said'
p2167
g3
F0.9683
tp2168
a(S'xxx'
p2169
g188
F0.4218
tp2170
a(S'and'
p2171
g94
F0.9987
tp2172
a(S'pout'
p2173
g11
F0.5052
tp2174
a(S'and'
p2175
g94
F0.9973
tp2176
a(S'pout'
p2177
g11
F0.5052
tp2178
a(S'and'
p2179
g94
F0.9973
tp2180
a(S'pout'
p2181
g11
F0.6883
tp2182
a(g13
g14
F0.9975
tp2183
asI754
(lp2184
(S'xxx'
p2185
g188
F0.6649
tp2186
a(S'Danny'
p2187
g85
F0.9992
tp2188
a(S'says'
p2189
g3
F0.9871
tp2190
a(S'go'
p2191
g3
F0.8668
tp2192
a(S'xxx'
p2193
g188
F0.3001
tp2194
a(g13
g14
F0.9527
tp2195
asI757
(lp2196
(S'hm'
p2197
g54
F0.9811
tp2198
a(S':'
p2199
g14
F0.891
tp2200
a(g138
g14
F0.9885
tp2201
asI761
(lp2202
(S'go'
p2203
g3
F0.9789
tp2204
a(S'right'
p2205
g18
F0.9646
tp2206
a(S'back'
p2207
g18
F0.9528
tp2208
a(S'through'
p2209
g27
F0.9952
tp2210
a(S'this'
p2211
g8
F0.9415
tp2212
a(S'spaghetti'
p2213
g11
F0.9983
tp2214
a(g13
g14
F0.9985
tp2215
asI765
(lp2216
(S'xxx'
p2217
g188
F0.5822
tp2218
a(g13
g14
F0.9648
tp2219
asI766
(lp2220
(S"I'm"
p2221
g142
F0.9981
tp2222
a(S'not'
p2223
g18
F0.9957
tp2224
a(S'gonna'
p2225
g3
F0.9964
tp2226
a(S'never'
p2227
g18
F0.9928
tp2228
a(g193
g194
F0.8332
tp2229
a(S'go'
p2230
g3
F0.9955
tp2231
a(S'o(ver)'
p2232
g27
F0.6943
tp2233
a(g187
g421
F0.3286
tp2234
a(S'[//]'
p2235
g421
F0.2389
tp2236
a(S'go'
p2237
g3
F0.9945
tp2238
a(S'over'
p2239
g27
F0.7221
tp2240
a(S'there'
p2241
g18
F0.9007
tp2242
a(S'again'
p2243
g18
F0.992
tp2244
a(g13
g14
F0.9986
tp2245
asI771
(lp2246
(S'just'
p2247
g18
F0.9995
tp2248
a(S'above'
p2249
g27
F0.9987
tp2250
a(S'the'
p2251
g8
F0.9988
tp2252
a(S'wall'
p2253
g11
F0.9904
tp2254
a(g13
g14
F0.9983
tp2255
asI775
(lp2256
(S'how'
p2257
g18
F0.9547
tp2258
a(S'did'
p2259
g3
F0.9863
tp2260
a(S'Jess'
p2261
g85
F0.9997
tp2262
a(S'look'
p2263
g3
F0.9776
tp2264
a(S'over'
p2265
g27
F0.482
tp2266
a(g138
g14
F0.9965
tp2267
asI779
(lp2268
(g490
g8
F0.917
tp2269
a(S'xxx'
p2270
g11
F0.7454
tp2271
a(g13
g14
F0.9981
tp2272
asI783
(lp2273
(S'how'
p2274
g18
F0.9945
tp2275
a(S'many'
p2276
g225
F0.9818
tp2277
a(S'times'
p2278
g11
F0.9966
tp2279
a(g38
g34
F0.9936
tp2280
a(S'got'
p2281
g3
F1.0
tp2282
a(S'it'
p2283
g34
F0.9906
tp2284
a(S'in'
p2285
g27
F0.9635
tp2286
a(S'my'
p2287
g8
F0.9983
tp2288
a(S'leg'
p2289
g11
F0.9983
tp2290
a(g138
g14
F0.9981
tp2291
asI788
(lp2292
(S'xxx'
p2293
g188
F0.5791
tp2294
a(S'now'
p2295
g18
F0.9868
tp2296
a(g38
g34
F0.9987
tp2297
a(S"can't"
p2298
g3
F0.9999
tp2299
a(S'pick'
p2300
g3
F0.9993
tp2301
a(S'anything'
p2302
g11
F0.9601
tp2303
a(S'up'
p2304
g199
F0.6445
tp2305
a(g13
g14
F0.998
tp2306
asI792
(lp2307
(S'napkin'
p2308
g11
F0.9848
tp2309
a(g13
g14
F0.998
tp2310
asI795
(lp2311
(S'xxx'
p2312
g188
F0.5944
tp2313
a(S'napkin'
p2314
g11
F0.9834
tp2315
a(g13
g14
F0.9983
tp2316
asI798
(lp2317
(S'is'
p2318
g3
F0.9965
tp2319
a(S'she'
p2320
g34
F0.9973
tp2321
a(S'all'
p2322
g8
F0.6875
tp2323
a(S'done'
p2324
g225
F0.5544
tp2325
a(g138
g14
F0.9985
tp2326
asI803
(lp2327
(S"you're"
p2328
g142
F0.9903
tp2329
a(S'making'
p2330
g3
F0.9992
tp2331
a(g490
g8
F0.9941
tp2332
a(S'mess'
p2333
g11
F0.9895
tp2334
a(S'Jess'
p2335
g85
F0.9985
tp2336
a(g13
g14
F0.9931
tp2337
asI807
(lp2338
(S'push'
p2339
g3
F0.9709
tp2340
a(S'it'
p2341
g34
F0.9606
tp2342
a(S'all'
p2343
g8
F0.4557
tp2344
a(S'to'
p2345
g27
F0.9987
tp2346
a(S'the'
p2347
g8
F0.999
tp2348
a(S'middle'
p2349
g11
F0.9638
tp2350
a(S'of'
p2351
g27
F0.9995
tp2352
a(S'the'
p2353
g8
F0.999
tp2354
a(S'plate'
p2355
g11
F0.9952
tp2356
a(S'please'
p2357
g3
F0.9801
tp2358
a(S'(.)'
p2359
g85
F0.4457
tp2360
a(g13
g14
F0.9902
tp2361
asI812
(lp2362
(S'push'
p2363
g3
F0.963
tp2364
a(S'your'
p2365
g8
F0.9929
tp2366
a(S'food'
p2367
g11
F0.9974
tp2368
a(S'all'
p2369
g18
F0.3651
tp2370
a(S'to'
p2371
g27
F0.9988
tp2372
a(S'the'
p2373
g8
F0.999
tp2374
a(S'middle'
p2375
g11
F0.9638
tp2376
a(S'of'
p2377
g27
F0.9995
tp2378
a(S'the'
p2379
g8
F0.999
tp2380
a(S'plate'
p2381
g11
F0.9839
tp2382
a(S'(.)'
p2383
g188
F0.3255
tp2384
a(g13
g14
F0.9491
tp2385
asI817
(lp2386
(S'with'
p2387
g27
F0.9984
tp2388
a(S'your'
p2389
g8
F0.9964
tp2390
a(S'spoon'
p2391
g11
F0.997
tp2392
a(g52
g14
F0.9897
tp2393
a(g54
g14
F0.9917
tp2394
a(g56
g14
F0.9703
tp2395
a(g13
g14
F0.9959
tp2396
asI820
(lp2397
(g193
g194
F0.8901
tp2398
a(S'with'
p2399
g27
F0.9991
tp2400
a(S'your'
p2401
g8
F0.9963
tp2402
a(S'sp(oon'
p2403
g11
F0.9942
tp2404
a(S')'
p2405
g14
F0.9891
tp2406
a(S'[/]'
p2407
g14
F0.296
tp2408
a(S'>[>'
p2409
g188
F0.422
tp2410
a(g56
g14
F0.8888
tp2411
a(g13
g14
F0.9969
tp2412
asI823
(lp2413
(S'xxx'
p2414
g188
F0.8981
tp2415
a(g52
g14
F0.6622
tp2416
a(g193
g194
F0.972
tp2417
a(g56
g14
F0.9847
tp2418
a(g13
g14
F0.9962
tp2419
asI824
(lp2420
(S'give'
p2421
g3
F0.9981
tp2422
a(S'it'
p2423
g34
F0.9911
tp2424
a(S'to'
p2425
g27
F0.9798
tp2426
a(S'me'
p2427
g34
F0.9983
tp2428
a(g13
g14
F0.9984
tp2429
asI827
(lp2430
(g38
g34
F0.9983
tp2431
a(S'said'
p2432
g3
F0.9996
tp2433
a(S'push'
p2434
g3
F0.9446
tp2435
a(S'it'
p2436
g34
F0.9856
tp2437
a(S'to'
p2438
g27
F0.9968
tp2439
a(S'the'
p2440
g8
F0.9987
tp2441
a(S'middle'
p2442
g11
F0.9367
tp2443
a(g13
g14
F0.999
tp2444
asI831
(lp2445
(S'this'
p2446
g34
F0.7776
tp2447
a(S"isn't"
p2448
g3
F0.9982
tp2449
a(S'pushed'
p2450
g3
F0.9805
tp2451
a(S'to'
p2452
g27
F0.9976
tp2453
a(S'the'
p2454
g8
F0.999
tp2455
a(S'middle'
p2456
g11
F0.9455
tp2457
a(g13
g14
F0.9989
tp2458
asI835
(lp2459
(S'that'
p2460
g8
F0.8481
tp2461
a(S'way'
p2462
g11
F0.9254
tp2463
a(S'it'
p2464
g34
F0.9759
tp2465
a(S"doesn't"
p2466
g3
F0.9994
tp2467
a(S'fall'
p2468
g3
F0.9871
tp2469
a(S'on'
p2470
g27
F0.9736
tp2471
a(S'the'
p2472
g8
F0.9994
tp2473
a(S'floor'
p2474
g11
F0.9984
tp2475
a(g13
g14
F0.9991
tp2476
asI840
(lp2477
(S'mm'
p2478
g54
F0.5842
tp2479
a(g13
g14
F0.9932
tp2480
asI844
(lp2481
(g38
g34
F0.9976
tp2482
a(S"don't"
p2483
g3
F1.0
tp2484
a(S'want'
p2485
g3
F0.9999
tp2486
a(S'that'
p2487
g34
F0.8137
tp2488
a(g13
g14
F0.9988
tp2489
asI847
(lp2490
(g38
g34
F0.9976
tp2491
a(S"don't"
p2492
g3
F1.0
tp2493
a(S'want'
p2494
g3
F0.9999
tp2495
a(S'that'
p2496
g34
F0.8137
tp2497
a(g13
g14
F0.9988
tp2498
asI850
(lp2499
(S'xxx'
p2500
g188
F0.8252
tp2501
a(S'xxx'
p2502
g188
F0.9102
tp2503
a(S'for'
p2504
g27
F0.9991
tp2505
a(S'her'
p2506
g34
F0.8283
tp2507
a(g138
g14
F0.9977
tp2508
asI854
(lp2509
(S'xxx'
p2510
g188
F0.7647
tp2511
a(S'(.)'
p2512
g188
F0.8124
tp2513
a(g13
g14
F0.9705
tp2514
asI855
(lp2515
(S'this'
p2516
g34
F0.9526
tp2517
a(S'is'
p2518
g3
F0.999
tp2519
a(g490
g8
F0.9835
tp2520
a(S'xxx'
p2521
g188
F0.4431
tp2522
a(g122
g14
F0.6971
tp2523
a(S'un)til'
p2524
g27
F0.9894
tp2525
a(S'everybody'
p2526
g11
F0.8777
tp2527
a(S'spills'
p2528
g3
F0.7775
tp2529
a(g13
g14
F0.9993
tp2530
asI859
(lp2531
(S'yeah'
p2532
g54
F0.9986
tp2533
a(g13
g14
F0.997
tp2534
asI862
(lp2535
(S'all'
p2536
g8
F0.7806
tp2537
a(S'done'
p2538
g225
F0.6726
tp2539
a(g138
g14
F0.9972
tp2540
asI866
(lp2541
(S'after'
p2542
g27
F0.8736
tp2543
a(g193
g194
F0.7351
tp2544
a(S'everybody'
p2545
g11
F0.9289
tp2546
a(S'finished'
p2547
g3
F0.9955
tp2548
a(g187
g188
F0.2506
tp2549
a(S'[/]'
p2550
g188
F0.3663
tp2551
a(S'everybody'
p2552
g11
F0.9442
tp2553
a(S'finished'
p2554
g3
F0.9968
tp2555
a(S'can'
p2556
g3
F0.9955
tp2557
a(g38
g34
F0.9988
tp2558
a(S'go'
p2559
g3
F0.9996
tp2560
a(S'outside'
p2561
g18
F0.7879
tp2562
a(g138
g14
F0.9979
tp2563
asI871
(lp2564
(S'no'
p2565
g54
F0.9704
tp2566
a(g13
g14
F0.9989
tp2567
asI874
(lp2568
(S"we'll"
p2569
g142
F0.9655
tp2570
a(S'see'
p2571
g3
F0.9914
tp2572
a(g13
g14
F0.9974
tp2573
asI877
(lp2574
(S'you'
p2575
g34
F0.9983
tp2576
a(S'know'
p2577
g3
F0.998
tp2578
a(S'why'
p2579
g18
F0.9655
tp2580
a(g138
g14
F0.9959
tp2581
asI881
(lp2582
(S'why'
p2583
g18
F0.9408
tp2584
a(g138
g14
F0.9946
tp2585
asI885
(lp2586
(S'the'
p2587
g8
F0.9988
tp2588
a(S'mosquitoes'
p2589
g11
F0.9946
tp2590
a(S'are'
p2591
g3
F0.9945
tp2592
a(S'too'
p2593
g18
F0.9813
tp2594
a(S'[/]'
p2595
g14
F0.4481
tp2596
a(S'too'
p2597
g18
F0.9993
tp2598
a(S'much'
p2599
g225
F0.8678
tp2600
a(g13
g14
F0.9987
tp2601
asI888
(lp2602
(S'xxx'
p2603
g188
F0.5822
tp2604
a(g13
g14
F0.9648
tp2605
asI889
(lp2606
(S'yeah'
p2607
g54
F0.9986
tp2608
a(g13
g14
F0.997
tp2609
asI893
(lp2610
(S'xxx'
p2611
g188
F0.5822
tp2612
a(g13
g14
F0.9648
tp2613
asI894
(lp2614
(S'xxx'
p2615
g188
F0.5798
tp2616
a(S'the'
p2617
g8
F0.9976
tp2618
a(S'water'
p2619
g11
F0.9973
tp2620
a(g138
g14
F0.9975
tp2621
asI898
(lp2622
(S'xxx'
p2623
g188
F0.8325
tp2624
a(S'xxx'
p2625
g188
F0.9233
tp2626
a(g13
g14
F0.9721
tp2627
asI899
(lp2628
(g193
g194
F0.9112
tp2629
a(S'Daddy'
p2630
g11
F0.7654
tp2631
a(S'[/]'
p2632
g421
F0.4278
tp2633
a(g187
g421
F0.4263
tp2634
a(g52
g14
F0.899
tp2635
a(g187
g188
F0.6043
tp2636
a(g56
g14
F0.5753
tp2637
a(g138
g14
F0.996
tp2638
asI900
(lp2639
(g193
g194
F0.9015
tp2640
a(S'when'
p2641
g18
F0.9675
tp2642
a(g52
g14
F0.9768
tp2643
a(g138
g14
F0.9878
tp2644
a(g56
g14
F0.9144
tp2645
a(S'Daddy'
p2646
g11
F0.885
tp2647
a(g187
g421
F0.4592
tp2648
a(g52
g14
F0.9049
tp2649
a(g193
g194
F0.9635
tp2650
a(g56
g14
F0.9889
tp2651
a(S'went'
p2652
g3
F0.9708
tp2653
a(g52
g14
F0.9897
tp2654
a(g138
g14
F0.9841
tp2655
a(g56
g14
F0.9329
tp2656
a(S'outside'
p2657
g225
F0.3669
tp2658
a(S'(.)'
p2659
g85
F0.2804
tp2660
a(g138
g14
F0.9931
tp2661
asI903
(lp2662
(S'sorry'
p2663
g225
F0.6822
tp2664
a(S'(.)'
p2665
g85
F0.3626
tp2666
a(g13
g14
F0.9933
tp2667
asI906
(lp2668
(S'Daddy'
p2669
g11
F0.9178
tp2670
a(g54
g14
F0.9986
tp2671
asI909
(lp2672
(S"I'm"
p2673
g142
F0.9955
tp2674
a(S'getting'
p2675
g3
F0.9793
tp2676
a(S'indigestion'
p2677
g11
F0.9977
tp2678
a(g13
g14
F0.9988
tp2679
asI912
(lp2680
(S'Daddy'
p2681
g11
F0.9227
tp2682
a(g38
g34
F0.9777
tp2683
a(S'+/'
p2684
g3
F0.4665
tp2685
a(g13
g14
F0.9974
tp2686
asI915
(lp2687
(S'xxx'
p2688
g188
F0.7103
tp2689
a(g138
g14
F0.9715
tp2690
asI916
(lp2691
(S'why'
p2692
g18
F0.8372
tp2693
a(S'thank'
p2694
g3
F0.9489
tp2695
a(S'you'
p2696
g34
F0.998
tp2697
a(g54
g14
F0.9996
tp2698
asI919
(lp2699
(g38
g34
F0.9982
tp2700
a(S'got'
p2701
g3
F0.9987
tp2702
a(S'indigestion'
p2703
g11
F0.9977
tp2704
a(g52
g14
F0.989
tp2705
a(g187
g188
F0.5563
tp2706
a(g56
g14
F0.6899
tp2707
a(g13
g14
F0.9959
tp2708
asI922
(lp2709
(g193
g194
F0.9112
tp2710
a(S'Daddy'
p2711
g11
F0.8504
tp2712
a(g187
g421
F0.4522
tp2713
a(g52
g14
F0.9261
tp2714
a(g193
g194
F0.9635
tp2715
a(g56
g14
F0.9891
tp2716
a(S'it'
p2717
g34
F0.9851
tp2718
a(S'xxx'
p2719
g3
F0.6792
tp2720
a(S'by'
p2721
g27
F0.9889
tp2722
a(S'everybody'
p2723
g11
F0.8454
tp2724
a(S'gonna'
p2725
g3
F0.9884
tp2726
a(g13
g14
F0.9961
tp2727
asI925
(lp2728
(S'yeah'
p2729
g54
F0.9988
tp2730
a(g138
g14
F0.9966
tp2731
asI929
(lp2732
(S'you'
p2733
g34
F0.9896
tp2734
a(g193
g194
F0.4762
tp2735
a(S'gonna'
p2736
g3
F0.9951
tp2737
a(S'eat'
p2738
g3
F0.9943
tp2739
a(g187
g14
F0.2788
tp2740
a(S'[/]'
p2741
g14
F0.2893
tp2742
a(S'gonna'
p2743
g3
F0.9963
tp2744
a(S'eat'
p2745
g3
F0.9997
tp2746
a(S'it'
p2747
g34
F0.9797
tp2748
a(g138
g14
F0.9988
tp2749
asI933
(lp2750
(S'are'
p2751
g3
F0.9964
tp2752
a(S'you'
p2753
g34
F0.9961
tp2754
a(S'all'
p2755
g8
F0.8665
tp2756
a(S'finished'
p2757
g3
F0.946
tp2758
a(S'here'
p2759
g18
F0.9809
tp2760
a(g138
g14
F0.9983
tp2761
asI937
(lp2762
(S'yeah'
p2763
g54
F0.9986
tp2764
a(g13
g14
F0.997
tp2765
asI940
(lp2766
(S"you're"
p2767
g142
F0.9894
tp2768
a(S'gonna'
p2769
g3
F0.996
tp2770
a(S'eat'
p2771
g3
F0.9994
tp2772
a(S'the'
p2773
g8
F0.9995
tp2774
a(S'carrots'
p2775
g11
F0.9834
tp2776
a(g138
g14
F0.9971
tp2777
asI944
(lp2778
(g193
g194
F0.9307
tp2779
a(S'they'
p2780
g34
F0.9919
tp2781
a(S'can'
p2782
g3
F0.9997
tp2783
a(S'eat'
p2784
g3
F0.9988
tp2785
a(S'anything'
p2786
g11
F0.9952
tp2787
a(g187
g188
F0.5697
tp2788
a(g52
g188
F0.5345
tp2789
a(g187
g188
F0.9555
tp2790
a(g56
g14
F0.6527
tp2791
a(g54
g14
F0.9965
tp2792
asI948
(lp2793
(g193
g194
F0.9136
tp2794
a(S'you['
p2795
g34
F0.7648
tp2796
a(g138
g14
F0.9935
tp2797
a(g56
g14
F0.9487
tp2798
a(S'can'
p2799
g3
F0.9982
tp2800
a(S'eat'
p2801
g3
F0.9989
tp2802
a(S'mine'
p2803
g34
F0.7794
tp2804
a(S'Daddy'
p2805
g11
F0.7893
tp2806
a(g187
g421
F0.4592
tp2807
a(g52
g14
F0.9049
tp2808
a(g193
g194
F0.9506
tp2809
a(g56
g14
F0.9737
tp2810
a(g13
g14
F0.9952
tp2811
asI952
(lp2812
(S'everybody'
p2813
g11
F0.8758
tp2814
a(S'shut'
p2815
g3
F0.7322
tp2816
a(g52
g14
F0.9861
tp2817
a(g54
g14
F0.9922
tp2818
a(g56
g14
F0.9769
tp2819
a(S'up'
p2820
g199
F0.6865
tp2821
a(g38
g34
F0.9985
tp2822
a(S'am'
p2823
g3
F0.9972
tp2824
a(S'talking'
p2825
g3
F0.8521
tp2826
a(S'to'
p2827
g27
F0.9907
tp2828
a(S'(.)'
p2829
g3
F0.2338
tp2830
a(g38
g34
F0.9991
tp2831
a(S'am'
p2832
g3
F0.9959
tp2833
a(S'xxx'
p2834
g188
F0.5768
tp2835
a(S'(.)'
p2836
g188
F0.8107
tp2837
a(g13
g14
F0.9792
tp2838
asI958
(lp2839
(S'who'
p2840
g34
F0.993
tp2841
a(S'are'
p2842
g3
F0.9997
tp2843
a(S'you'
p2844
g34
F0.9995
tp2845
a(S'talking'
p2846
g3
F0.9952
tp2847
a(S'to'
p2848
g27
F0.9366
tp2849
a(g138
g14
F0.9932
tp2850
asI962
(lp2851
(S'Dad'
p2852
g11
F0.9154
tp2853
a(g13
g14
F0.9983
tp2854
asI965
(lp2855
(S'okay'
p2856
g54
F0.9741
tp2857
a(g13
g14
F0.9977
tp2858
asI968
(lp2859
(S'Dad'
p2860
g11
F0.4618
tp2861
a(S'you'
p2862
g34
F0.9968
tp2863
a(S'know'
p2864
g3
F0.9988
tp2865
a(S'what'
p2866
g34
F0.9868
tp2867
a(g138
g14
F0.9954
tp2868
asI973
(lp2869
(S'the'
p2870
g8
F0.9988
tp2871
a(S'beetles'
p2872
g11
F0.9873
tp2873
a(S'will'
p2874
g3
F0.9934
tp2875
a(S'bite'
p2876
g3
F0.9994
tp2877
a(S'us'
p2878
g34
F0.9858
tp2879
a(g193
g194
F0.9534
tp2880
a(S'xxx'
p2881
g188
F0.7235
tp2882
a(S'xxx'
p2883
g188
F0.9592
tp2884
a(S'[/]'
p2885
g188
F0.3535
tp2886
a(S'>[>'
p2887
g188
F0.9183
tp2888
a(g56
g14
F0.8854
tp2889
a(g13
g14
F0.9936
tp2890
asI976
(lp2891
(S'xxx'
p2892
g188
F0.8981
tp2893
a(g52
g14
F0.6622
tp2894
a(g193
g194
F0.972
tp2895
a(g56
g14
F0.9847
tp2896
a(g13
g14
F0.9962
tp2897
asI977
(lp2898
(S'xxx'
p2899
g188
F0.8981
tp2900
a(g52
g14
F0.661
tp2901
a(g187
g188
F0.3811
tp2902
a(g56
g14
F0.7604
tp2903
a(g13
g14
F0.9962
tp2904
asI978
(lp2905
(g193
g194
F0.8621
tp2906
a(S'if'
p2907
g27
F0.9984
tp2908
a(S'you'
p2909
g34
F0.9997
tp2910
a(S"don't"
p2911
g3
F1.0
tp2912
a(S'want'
p2913
g3
F1.0
tp2914
a(S'it'
p2915
g34
F0.9952
tp2916
a(g187
g188
F0.4648
tp2917
a(g52
g188
F0.535
tp2918
a(g193
g194
F0.8293
tp2919
a(g56
g14
F0.9862
tp2920
a(S'throw'
p2921
g3
F0.88
tp2922
a(g193
g194
F0.7739
tp2923
a(S'in'
p2924
g27
F0.9949
tp2925
a(S'the'
p2926
g8
F0.9994
tp2927
a(S'trash'
p2928
g11
F0.9972
tp2929
a(g187
g188
F0.5229
tp2930
a(g52
g188
F0.5345
tp2931
a(g187
g188
F0.9336
tp2932
a(g56
g14
F0.7976
tp2933
a(g13
g14
F0.9948
tp2934
asI983
(lp2935
(S'beetles'
p2936
g11
F0.9534
tp2937
a(g52
g14
F0.9851
tp2938
a(g193
g194
F0.9843
tp2939
a(g56
g14
F0.9707
tp2940
a(g193
g194
F0.8993
tp2941
a(S'eating'
p2942
g3
F0.9997
tp2943
a(S'it'
p2944
g34
F0.9967
tp2945
a(g187
g14
F0.3718
tp2946
a(S'[/]'
p2947
g14
F0.3127
tp2948
a(S'eating'
p2949
g3
F0.9939
tp2950
a(S'xxx'
p2951
g188
F0.3466
tp2952
a(S'and'
p2953
g94
F0.9989
tp2954
a(S'they'
p2955
g34
F0.9946
tp2956
a(S'gonna'
p2957
g3
F0.9993
tp2958
a(g193
g194
F0.8257
tp2959
a(S'eat'
p2960
g3
F0.9917
tp2961
a(S'the'
p2962
g8
F0.9945
tp2963
a(S'xxx'
p2964
g11
F0.4543
tp2965
a(g187
g188
F0.4136
tp2966
a(g52
g188
F0.5345
tp2967
a(g187
g188
F0.9532
tp2968
a(g56
g14
F0.6425
tp2969
a(S'(.)'
p2970
g421
F0.285
tp2971
a(S'right'
p2972
g225
F0.6981
tp2973
a(S'Dad'
p2974
g11
F0.9194
tp2975
a(g138
g14
F0.9973
tp2976
asI989
(lp2977
(S'xxx'
p2978
g188
F0.8981
tp2979
a(g52
g14
F0.6622
tp2980
a(g193
g194
F0.972
tp2981
a(g56
g14
F0.9847
tp2982
a(g13
g14
F0.9962
tp2983
asI990
(lp2984
(S'yes'
p2985
g54
F0.9961
tp2986
a(g13
g14
F0.9972
tp2987
asI993
(lp2988
(S'Dad'
p2989
g11
F0.9154
tp2990
a(g13
g14
F0.9983
tp2991
asI996
(lp2992
(S'xxx'
p2993
g188
F0.8981
tp2994
a(g52
g14
F0.661
tp2995
a(g187
g188
F0.3811
tp2996
a(g56
g14
F0.7604
tp2997
a(g13
g14
F0.9962
tp2998
asI997
(lp2999
(g193
g194
F0.9526
tp3000
a(g38
g34
F0.9983
tp3001
a(S"don't"
p3002
g3
F1.0
tp3003
a(S'want'
p3004
g3
F0.9999
tp3005
a(S'that'
p3006
g34
F0.7079
tp3007
a(g187
g188
F0.4384
tp3008
a(g52
g188
F0.535
tp3009
a(g193
g194
F0.7916
tp3010
a(g56
g14
F0.9861
tp3011
a(g13
g14
F0.9959
tp3012
asI1000
(lp3013
(g38
g34
F0.9982
tp3014
a(S'told'
p3015
g3
F0.9996
tp3016
a(S'[/]'
p3017
g14
F0.3796
tp3018
a(g38
g34
F0.9981
tp3019
a(S'told'
p3020
g3
F1.0
tp3021
a(S'you'
p3022
g34
F0.9983
tp3023
a(g52
g14
F0.9952
tp3024
a(g187
g188
F0.4438
tp3025
a(g56
g14
F0.8498
tp3026
a(S'that'
p3027
g27
F0.7938
tp3028
a(S'they'
p3029
g34
F0.9899
tp3030
a(g193
g194
F0.8714
tp3031
a(S'walk'
p3032
g3
F0.9428
tp3033
a(S'sideways'
p3034
g18
F0.9812
tp3035
a(g187
g188
F0.5686
tp3036
a(g52
g14
F0.6089
tp3037
a(g138
g14
F0.9841
tp3038
a(g56
g14
F0.7118
tp3039
a(S'xxx'
p3040
g188
F0.7327
tp3041
a(S'xxx'
p3042
g188
F0.9304
tp3043
a(S'mosquitoes'
p3044
g11
F0.9768
tp3045
a(S'eat'
p3046
g3
F0.993
tp3047
a(S'frogs'
p3048
g11
F0.9848
tp3049
a(S'xxx'
p3050
g188
F0.8195
tp3051
a(g52
g14
F0.7575
tp3052
a(g54
g14
F0.9901
tp3053
a(g56
g14
F0.9875
tp3054
a(S'so'
p3055
g18
F0.5091
tp3056
a(S'[/]'
p3057
g14
F0.3635
tp3058
a(S'so'
p3059
g18
F0.4885
tp3060
a(S'mosquitoes'
p3061
g11
F0.9099
tp3062
a(S'can'
p3063
g3
F0.9987
tp3064
a(S'[/]'
p3065
g14
F0.2914
tp3066
a(S'can'
p3067
g3
F0.9974
tp3068
a(S'make'
p3069
g3
F0.9996
tp3070
a(g490
g8
F0.9919
tp3071
a(S'hole'
p3072
g11
F0.9993
tp3073
a(g54
g14
F0.9984
tp3074
asI1009
(lp3075
(S'xxx'
p3076
g188
F0.8981
tp3077
a(g52
g14
F0.6622
tp3078
a(g193
g194
F0.972
tp3079
a(g56
g14
F0.9847
tp3080
a(g13
g14
F0.9962
tp3081
asI1010
(lp3082
(g193
g194
F0.97
tp3083
a(S'xxx'
p3084
g188
F0.7306
tp3085
a(S'xxx'
p3086
g188
F0.9784
tp3087
a(g187
g188
F0.955
tp3088
a(g52
g188
F0.5345
tp3089
a(g187
g188
F0.9749
tp3090
a(g56
g14
F0.7541
tp3091
a(g13
g14
F0.9962
tp3092
asI1011
(lp3093
(g193
g194
F0.97
tp3094
a(S'xxx'
p3095
g188
F0.7306
tp3096
a(S'xxx'
p3097
g188
F0.9784
tp3098
a(g187
g188
F0.955
tp3099
a(g52
g188
F0.535
tp3100
a(g193
g194
F0.6902
tp3101
a(g56
g14
F0.9839
tp3102
a(g13
g14
F0.9962
tp3103
asI1012
(lp3104
(S'Playmate'
p3105
g11
F0.9739
tp3106
a(S'uhuh'
p3107
g54
F0.9557
tp3108
a(g13
g14
F0.9969
tp3109
asI1015
(lp3110
(S"let's"
p3111
g142
F0.9923
tp3112
a(S'not'
p3113
g18
F0.9949
tp3114
a(S'play'
p3115
g3
F0.9925
tp3116
a(S'with'
p3117
g27
F0.999
tp3118
a(S'our'
p3119
g8
F0.9982
tp3120
a(S'supper'
p3121
g11
F0.9924
tp3122
a(g13
g14
F0.9985
tp3123
asI1018
(lp3124
(S'zzz'
p3125
g421
F0.409
tp3126
a(g52
g14
F0.9395
tp3127
a(g187
g188
F0.3811
tp3128
a(g56
g14
F0.7604
tp3129
a(g13
g14
F0.9962
tp3130
asI1022
(lp3131
(g193
g194
F0.9117
tp3132
a(S"I'm"
p3133
g142
F0.9981
tp3134
a(S'not'
p3135
g18
F0.9974
tp3136
a(S'playing'
p3137
g3
F0.9995
tp3138
a(S'with'
p3139
g27
F0.9992
tp3140
a(S'my'
p3141
g8
F0.9196
tp3142
a(g52
g14
F0.9559
tp3143
a(g54
g14
F0.9901
tp3144
a(g56
g14
F0.973
tp3145
a(S'supper'
p3146
g11
F0.961
tp3147
a(g187
g188
F0.5149
tp3148
a(g52
g14
F0.7297
tp3149
a(S'<][>'
p3150
g188
F0.2885
tp3151
a(g56
g14
F0.8451
tp3152
a(g54
g14
F0.9968
tp3153
asI1026
(lp3154
(g193
g194
F0.97
tp3155
a(S'xxx'
p3156
g188
F0.4433
tp3157
a(S'say'
p3158
g3
F0.9969
tp3159
a(S'your'
p3160
g8
F0.6921
tp3161
a(S'doing'
p3162
g3
F0.5275
tp3163
a(g187
g188
F0.4994
tp3164
a(g52
g188
F0.535
tp3165
a(g193
g194
F0.7916
tp3166
a(g56
g14
F0.9861
tp3167
a(g13
g14
F0.9959
tp3168
asI1029
(lp3169
(g193
g194
F0.9116
tp3170
a(S"I'll"
p3171
g142
F0.9844
tp3172
a(S'throw'
p3173
g3
F0.9958
tp3174
a(S'mine'
p3175
g34
F0.9605
tp3176
a(S'away'
p3177
g18
F0.9885
tp3178
a(g187
g188
F0.5189
tp3179
a(g52
g188
F0.5345
tp3180
a(g187
g188
F0.9555
tp3181
a(g56
g14
F0.8291
tp3182
a(g13
g14
F0.9959
tp3183
asI1032
(lp3184
(S'zzz'
p3185
g421
F0.409
tp3186
a(g52
g14
F0.9451
tp3187
a(g193
g194
F0.972
tp3188
a(g56
g14
F0.9847
tp3189
a(g13
g14
F0.9962
tp3190
asI1036
(lp3191
(S'stop'
p3192
g3
F0.9144
tp3193
a(S'whining'
p3194
g3
F0.9948
tp3195
a(g13
g14
F0.9989
tp3196
asI1039
(lp3197
(S'zzz'
p3198
g421
F0.409
tp3199
a(g52
g14
F0.9395
tp3200
a(g187
g188
F0.3811
tp3201
a(g56
g14
F0.7604
tp3202
a(g13
g14
F0.9962
tp3203
asI1043
(lp3204
(S'xxx'
p3205
g188
F0.8981
tp3206
a(g52
g14
F0.6622
tp3207
a(g193
g194
F0.972
tp3208
a(g56
g14
F0.9847
tp3209
a(g13
g14
F0.9962
tp3210
asI1044
(lp3211
(S'whoops'
p3212
g54
F0.9771
tp3213
a(g13
g14
F0.9962
tp3214
asI1047
(lp3215
(S'it'
p3216
g34
F0.9944
tp3217
a(S'dropped'
p3218
g3
F0.9977
tp3219
a(g13
g14
F0.9979
tp3220
asI1050
(lp3221
(S'xxx'
p3222
g188
F0.8981
tp3223
a(g52
g14
F0.661
tp3224
a(g187
g188
F0.3811
tp3225
a(g56
g14
F0.7604
tp3226
a(g13
g14
F0.9962
tp3227
asI1051
(lp3228
(g193
g194
F0.913
tp3229
a(S"don't"
p3230
g3
F0.9997
tp3231
a(S'cry'
p3232
g3
F0.9888
tp3233
a(g52
g14
F0.987
tp3234
a(g138
g14
F0.9841
tp3235
a(g56
g14
F0.7796
tp3236
a(g187
g188
F0.5377
tp3237
a(g52
g188
F0.535
tp3238
a(g193
g194
F0.7815
tp3239
a(g56
g14
F0.9822
tp3240
a(g13
g14
F0.9964
tp3241
asI1054
(lp3242
(S'yeah'
p3243
g54
F0.9956
tp3244
a(S"that's"
p3245
g142
F0.9844
tp3246
a(S"Jessica's"
p3247
g218
F0.7989
tp3248
a(g13
g14
F0.9972
tp3249
asI1057
(lp3250
(S'just'
p3251
g18
F0.9991
tp3252
a(S'leave'
p3253
g3
F0.9994
tp3254
a(S'it'
p3255
g34
F0.9938
tp3256
a(S'alone'
p3257
g18
F0.5986
tp3258
a(g13
g14
F0.9982
tp3259
asI1060
(lp3260
(S'xxx'
p3261
g188
F0.5822
tp3262
a(g13
g14
F0.9648
tp3263
asI1061
(lp3264
(S'Jessica'
p3265
g85
F0.9986
tp3266
a(S'come'
p3267
g3
F0.9947
tp3268
a(S'in'
p3269
g27
F0.7848
tp3270
a(S'here'
p3271
g18
F0.8655
tp3272
a(g13
g14
F0.9987
tp3273
asI1064
(lp3274
(S'you'
p3275
g34
F0.9966
tp3276
a(S'put'
p3277
g3
F0.9995
tp3278
a(S'your'
p3279
g8
F0.9962
tp3280
a(S"Dad's"
p3281
g11
F0.9648
tp3282
a(S'in'
p3283
g27
F0.9994
tp3284
a(S'the'
p3285
g8
F0.9961
tp3286
a(S'sink'
p3287
g11
F0.9962
tp3288
a(g13
g14
F0.9989
tp3289
asI1069
(lp3290
(S'no'
p3291
g54
F0.9704
tp3292
a(g13
g14
F0.9989
tp3293
asI1072
(lp3294
(g38
g34
F0.9932
tp3295
a(S'burpded'
p3296
g3
F0.8057
tp3297
a(S'@n'
p3298
g669
F0.9965
tp3299
a(g13
g14
F0.9962
tp3300
asI1075
(lp3301
(g38
g34
F0.9982
tp3302
a(S'saw'
p3303
g3
F1.0
tp3304
a(S'them'
p3305
g34
F0.9858
tp3306
a(S'over'
p3307
g27
F0.6276
tp3308
a(S'here'
p3309
g18
F0.9754
tp3310
a(g13
g14
F0.9982
tp3311
asI1078
(lp3312
(S'xxx'
p3313
g188
F0.8325
tp3314
a(S'xxx'
p3315
g188
F0.9233
tp3316
a(g13
g14
F0.9721
tp3317
asI1079
(lp3318
(S'what'
p3319
g34
F0.9171
tp3320
a(g138
g14
F0.9924
tp3321
asI1083
(lp3322
(g193
g194
F0.8996
tp3323
a(S'how'
p3324
g18
F0.9508
tp3325
a(S'are'
p3326
g3
F0.9888
tp3327
a(S'we'
p3328
g34
F0.9984
tp3329
a(S'doing'
p3330
g3
F0.9996
tp3331
a(g187
g188
F0.4994
tp3332
a(g52
g188
F0.5345
tp3333
a(g187
g188
F0.9555
tp3334
a(g56
g14
F0.6839
tp3335
a(g138
g14
F0.9957
tp3336
asI1087
(lp3337
(S'xxx'
p3338
g188
F0.8981
tp3339
a(g52
g14
F0.6622
tp3340
a(g193
g194
F0.972
tp3341
a(g56
g14
F0.974
tp3342
a(g138
g14
F0.9963
tp3343
asI1091
(lp3344
(g193
g194
F0.9263
tp3345
a(S'why'
p3346
g18
F0.9354
tp3347
a(S"don't"
p3348
g3
F0.9999
tp3349
a(S'you'
p3350
g34
F0.9951
tp3351
a(S'&-um'
p3352
g54
F0.3862
tp3353
a(g187
g188
F0.569
tp3354
a(g52
g188
F0.535
tp3355
a(g193
g194
F0.8293
tp3356
a(g56
g14
F0.979
tp3357
a(S'pelt'
p3358
g11
F0.9778
tp3359
a(g52
g14
F0.992
tp3360
a(g54
g14
F0.9901
tp3361
a(g56
g14
F0.9832
tp3362
a(S'it'
p3363
g34
F0.99
tp3364
a(S'off'
p3365
g199
F0.8836
tp3366
a(g138
g14
F0.9982
tp3367
asI1095
(lp3368
(g193
g194
F0.9112
tp3369
a(S'Daddy'
p3370
g11
F0.7835
tp3371
a(S'want'
p3372
g3
F0.9848
tp3373
a(S'xxx'
p3374
g188
F0.428
tp3375
a(S'salad'
p3376
g11
F0.9826
tp3377
a(g187
g188
F0.5184
tp3378
a(g52
g188
F0.5345
tp3379
a(g187
g188
F0.9555
tp3380
a(g56
g14
F0.6839
tp3381
a(g138
g14
F0.9957
tp3382
asI1098
(lp3383
(g193
g194
F0.97
tp3384
a(S'xxx'
p3385
g188
F0.7306
tp3386
a(S'xxx'
p3387
g188
F0.9784
tp3388
a(g187
g188
F0.955
tp3389
a(g52
g188
F0.535
tp3390
a(g193
g194
F0.6902
tp3391
a(g56
g14
F0.9839
tp3392
a(g13
g14
F0.9962
tp3393
asI1099
(lp3394
(S'that'
p3395
g34
F0.8288
tp3396
a(S'was'
p3397
g3
F0.9994
tp3398
a(S'in'
p3399
g27
F0.9442
tp3400
a(S'my'
p3401
g8
F0.9563
tp3402
a(S'xxx'
p3403
g11
F0.4912
tp3404
a(S'xxx'
p3405
g3
F0.3501
tp3406
a(S'in'
p3407
g27
F0.9751
tp3408
a(S'my'
p3409
g8
F0.9961
tp3410
a(S'milk'
p3411
g11
F0.9996
tp3412
a(g54
g14
F0.9988
tp3413
asI1103
(lp3414
(S'no'
p3415
g54
F0.7417
tp3416
a(g193
g194
F0.5523
tp3417
a(S"there's"
p3418
g142
F0.8577
tp3419
a(S'nothing'
p3420
g11
F0.9946
tp3421
a(S'in'
p3422
g27
F0.9978
tp3423
a(S'your'
p3424
g8
F0.9914
tp3425
a(S'milk'
p3426
g11
F0.9995
tp3427
a(g187
g188
F0.5184
tp3428
a(g52
g188
F0.5345
tp3429
a(g187
g188
F0.949
tp3430
a(g56
g14
F0.7992
tp3431
a(g13
g14
F0.9936
tp3432
asI1107
(lp3433
(g193
g194
F0.9112
tp3434
a(S'Daddy'
p3435
g11
F0.8504
tp3436
a(g187
g421
F0.4522
tp3437
a(g52
g14
F0.9261
tp3438
a(g193
g194
F0.9635
tp3439
a(g56
g14
F0.9697
tp3440
a(S'more'
p3441
g225
F0.8182
tp3442
a(S'(.)'
p3443
g188
F0.5156
tp3444
a(g193
g194
F0.873
tp3445
a(g38
g34
F0.9986
tp3446
a(S'need'
p3447
g3
F0.9982
tp3448
a(g187
g188
F0.259
tp3449
a(S'[/]'
p3450
g188
F0.7743
tp3451
a(g193
g194
F0.8503
tp3452
a(g38
g34
F0.9986
tp3453
a(S'need'
p3454
g3
F0.9982
tp3455
a(g187
g188
F0.5541
tp3456
a(g52
g188
F0.5345
tp3457
a(g187
g188
F0.9532
tp3458
a(g56
g14
F0.8691
tp3459
a(S'something'
p3460
g11
F0.9734
tp3461
a(S'here'
p3462
g18
F0.9889
tp3463
a(g13
g14
F0.9978
tp3464
asI1111
(lp3465
(S'uhuh'
p3466
g54
F0.9667
tp3467
a(g52
g14
F0.9796
tp3468
a(g193
g194
F0.972
tp3469
a(g56
g14
F0.9847
tp3470
a(g13
g14
F0.9962
tp3471
asI1114
(lp3472
(S'Daddy'
p3473
g11
F0.7096
tp3474
a(S'(.)'
p3475
g421
F0.4796
tp3476
a(g193
g194
F0.9695
tp3477
a(g38
g34
F0.9984
tp3478
a(S'need'
p3479
g3
F0.9982
tp3480
a(g187
g188
F0.259
tp3481
a(S'[//]'
p3482
g188
F0.7743
tp3483
a(g193
g194
F0.8503
tp3484
a(g38
g34
F0.9963
tp3485
a(g187
g3
F0.2795
tp3486
a(S'[/]'
p3487
g14
F0.4145
tp3488
a(g38
g34
F0.9892
tp3489
a(S'(.)'
p3490
g3
F0.52
tp3491
a(S'give'
p3492
g3
F0.9993
tp3493
a(S'me'
p3494
g34
F0.9977
tp3495
a(S'the'
p3496
g8
F0.9981
tp3497
a(S'ketchup'
p3498
g11
F0.9955
tp3499
a(g13
g14
F0.9989
tp3500
asI1117
(lp3501
(S'can'
p3502
g3
F0.9938
tp3503
a(g38
g34
F0.9989
tp3504
a(S'go'
p3505
g3
F0.9999
tp3506
a(S'out'
p3507
g199
F0.4917
tp3508
a(S'and'
p3509
g94
F0.9962
tp3510
a(S'play'
p3511
g3
F0.9123
tp3512
a(g138
g14
F0.9976
tp3513
asI1120
(lp3514
(S'yeah'
p3515
g54
F0.9978
tp3516
a(S'yeah'
p3517
g54
F0.9991
tp3518
a(S'yeah'
p3519
g54
F0.9973
tp3520
a(g13
g14
F0.9979
tp3521
asI1123
(lp3522
(S'xxx'
p3523
g188
F0.4267
tp3524
a(S'you'
p3525
g34
F0.9983
tp3526
a(S'have'
p3527
g3
F0.9999
tp3528
a(S'it'
p3529
g34
F0.9929
tp3530
a(S'now'
p3531
g18
F0.9971
tp3532
a(g138
g14
F0.9983
tp3533
asI1126
(lp3534
(S'no'
p3535
g54
F0.8567
tp3536
a(g38
g34
F0.9973
tp3537
a(S"didn't"
p3538
g3
F1.0
tp3539
a(g13
g14
F0.9977
tp3540
asI1129
(lp3541
(g38
g34
F0.9983
tp3542
a(S'had'
p3543
g3
F1.0
tp3544
a(g490
g8
F0.996
tp3545
a(S'shovel'
p3546
g11
F0.9925
tp3547
a(S'in'
p3548
g27
F0.9983
tp3549
a(S'the'
p3550
g8
F0.9899
tp3551
a(S'xxx'
p3552
g11
F0.8685
tp3553
a(g13
g14
F0.9983
tp3554
asI1132
(lp3555
(S'oh'
p3556
g54
F0.9848
tp3557
a(S'did'
p3558
g3
F0.997
tp3559
a(S'you'
p3560
g34
F0.9914
tp3561
a(g138
g14
F0.9995
tp3562
asI1135
(lp3563
(S'yeah'
p3564
g54
F0.9973
tp3565
a(S'(.)'
p3566
g85
F0.2739
tp3567
a(g13
g14
F0.9933
tp3568
asI1138
(lp3569
(S'put'
p3570
g3
F0.9914
tp3571
a(S'it'
p3572
g34
F0.9741
tp3573
a(S'on'
p3574
g27
F0.9569
tp3575
a(S'the'
p3576
g8
F0.9917
tp3577
a(S'xxx'
p3578
g11
F0.8458
tp3579
a(g13
g14
F0.9978
tp3580
asI1141
(lp3581
(S'how'
p3582
g18
F0.9555
tp3583
a(S'are'
p3584
g3
F0.9858
tp3585
a(S'we'
p3586
g34
F0.9986
tp3587
a(S'doing'
p3588
g3
F0.9993
tp3589
a(S'Chi'
p3590
g85
F0.9445
tp3591
a(g138
g14
F0.9893
tp3592
asI1145
(lp3593
(S'good'
p3594
g225
F0.967
tp3595
a(g13
g14
F0.998
tp3596
asI1148
(lp3597
(S'everybody'
p3598
g11
F0.8644
tp3599
a(S'almost'
p3600
g18
F0.9925
tp3601
a(S'finished'
p3602
g3
F0.9897
tp3603
a(g138
g14
F0.9976
tp3604
asI1152
(lp3605
(S"I'm"
p3606
g142
F0.998
tp3607
a(S'not'
p3608
g18
F0.9919
tp3609
a(g13
g14
F0.9956
tp3610
asI1155
(lp3611
(S'okay'
p3612
g54
F0.9741
tp3613
a(g13
g14
F0.9977
tp3614
asI1158
(lp3615
(S'come'
p3616
g3
F0.9897
tp3617
a(S'on'
p3618
g27
F0.95
tp3619
a(S'Chi'
p3620
g85
F0.9816
tp3621
a(S'where'
p3622
g18
F0.9568
tp3623
a(S"you're"
p3624
g142
F0.989
tp3625
a(S'supposed'
p3626
g225
F0.9095
tp3627
a(S'to'
p3628
g27
F0.9834
tp3629
a(g13
g14
F0.9945
tp3630
asI1163
(lp3631
(S'Mommy'
p3632
g11
F0.7911
tp3633
a(g13
g14
F0.9983
tp3634
asI1168
(lp3635
(g193
g194
F0.9112
tp3636
a(S'Mommy'
p3637
g85
F0.5308
tp3638
a(S'xxx'
p3639
g188
F0.5125
tp3640
a(S'why'
p3641
g18
F0.9302
tp3642
a(S'did'
p3643
g3
F0.9987
tp3644
a(S'you'
p3645
g34
F0.9636
tp3646
a(S'guys'
p3647
g11
F0.9332
tp3648
a(S'shut'
p3649
g3
F0.9945
tp3650
a(S'that'
p3651
g34
F0.7862
tp3652
a(S'off'
p3653
g27
F0.3037
tp3654
a(g187
g188
F0.4053
tp3655
a(g52
g188
F0.5345
tp3656
a(g187
g188
F0.9519
tp3657
a(g56
g14
F0.7576
tp3658
a(g138
g14
F0.9957
tp3659
asI1174
(lp3660
(g193
g194
F0.9112
tp3661
a(S'Mommy'
p3662
g85
F0.5308
tp3663
a(S'xxx'
p3664
g188
F0.5663
tp3665
a(g187
g188
F0.955
tp3666
a(g52
g188
F0.535
tp3667
a(g193
g194
F0.6902
tp3668
a(g56
g14
F0.9839
tp3669
a(g13
g14
F0.9962
tp3670
asI1177
(lp3671
(S'it'
p3672
g34
F0.9979
tp3673
a(S'is'
p3674
g3
F0.9992
tp3675
a(g52
g14
F0.9849
tp3676
a(g54
g14
F0.9922
tp3677
a(g56
g14
F0.9829
tp3678
a(S'on'
p3679
g27
F0.8777
tp3680
a(g13
g14
F0.997
tp3681
asI1180
(lp3682
(S'it'
p3683
g34
F0.9979
tp3684
a(S'is'
p3685
g3
F0.9992
tp3686
a(g52
g14
F0.9849
tp3687
a(g54
g14
F0.9922
tp3688
a(g56
g14
F0.9829
tp3689
a(S'on'
p3690
g27
F0.8777
tp3691
a(g13
g14
F0.997
tp3692
asI1183
(lp3693
(S'xxx'
p3694
g188
F0.8981
tp3695
a(g52
g14
F0.661
tp3696
a(g187
g188
F0.3811
tp3697
a(g56
g14
F0.7604
tp3698
a(g13
g14
F0.9962
tp3699
asI1184
(lp3700
(g193
g194
F0.9277
tp3701
a(S'its'
p3702
g142
F0.992
tp3703
a(S'off['
p3704
g225
F0.3817
tp3705
a(g54
g14
F0.9951
tp3706
a(g56
g14
F0.9363
tp3707
a(g187
g188
F0.5377
tp3708
a(g52
g188
F0.535
tp3709
a(g193
g194
F0.7916
tp3710
a(g56
g14
F0.9861
tp3711
a(g13
g14
F0.9959
tp3712
asI1187
(lp3713
(S"it's"
p3714
g142
F0.9981
tp3715
a(S'on'
p3716
g27
F0.9252
tp3717
a(g52
g14
F0.9803
tp3718
a(g54
g14
F0.9911
tp3719
a(g56
g14
F0.978
tp3720
a(g13
g14
F0.995
tp3721
asI1190
(lp3722
(g38
g34
F0.9976
tp3723
a(S"can't"
p3724
g3
F1.0
tp3725
a(S'hear'
p3726
g3
F0.9879
tp3727
a(g52
g14
F0.9904
tp3728
a(g54
g14
F0.9901
tp3729
a(g56
g14
F0.982
tp3730
a(S'it'
p3731
g34
F0.9724
tp3732
a(g13
g14
F0.999
tp3733
asI1193
(lp3734
(S'of'
p3735
g27
F0.9563
tp3736
a(S'course'
p3737
g11
F0.9379
tp3738
a(S'you'
p3739
g34
F0.996
tp3740
a(S"can't"
p3741
g3
F0.9999
tp3742
a(S'hear'
p3743
g3
F0.9996
tp3744
a(S'it'
p3745
g34
F0.9772
tp3746
a(g13
g14
F0.9989
tp3747
asI1196
(lp3748
(S'can'
p3749
g3
F0.9938
tp3750
a(g38
g34
F0.9992
tp3751
a(S'see'
p3752
g3
F0.9969
tp3753
a(g138
g14
F0.9974
tp3754
asI1200
(lp3755
(S"it's"
p3756
g142
F0.9981
tp3757
a(S'on'
p3758
g27
F0.8781
tp3759
a(g13
g14
F0.9968
tp3760
asI1203
(lp3761
(g38
g34
F0.9976
tp3762
a(S"can't"
p3763
g3
F1.0
tp3764
a(S'hear'
p3765
g3
F0.9996
tp3766
a(S'it'
p3767
g34
F0.9745
tp3768
a(g13
g14
F0.9989
tp3769
asI1206
(lp3770
(g38
g34
F0.9984
tp3771
a(S'know'
p3772
g3
F0.9999
tp3773
a(S'you'
p3774
g34
F0.9991
tp3775
a(S"can't"
p3776
g3
F0.9999
tp3777
a(S'hear'
p3778
g3
F0.9996
tp3779
a(S'it'
p3780
g34
F0.9772
tp3781
a(g13
g14
F0.9989
tp3782
asI1210
(lp3783
(S'you'
p3784
g34
F0.9968
tp3785
a(S'have_to'
p3786
g3
F0.9986
tp3787
a(S'go'
p3788
g3
F0.9995
tp3789
a(S'all'
p3790
g314
F0.4529
tp3791
a(S'the'
p3792
g8
F0.9998
tp3793
a(S'way'
p3794
g11
F0.9711
tp3795
a(S'over'
p3796
g27
F0.964
tp3797
a(S'there'
p3798
g18
F0.8677
tp3799
a(g13
g14
F0.9985
tp3800
asI1215
(lp3801
(S'no'
p3802
g54
F0.8387
tp3803
a(S'he'
p3804
g34
F0.9861
tp3805
a(S"doesn't"
p3806
g3
F0.9993
tp3807
a(S'have_to'
p3808
g3
F0.9991
tp3809
a(S'come'
p3810
g3
F0.9999
tp3811
a(S'all'
p3812
g314
F0.5323
tp3813
a(S'the'
p3814
g8
F0.9998
tp3815
a(S'way'
p3816
g11
F0.9711
tp3817
a(S'over'
p3818
g27
F0.8317
tp3819
a(S'here'
p3820
g18
F0.9785
tp3821
a(g13
g14
F0.9987
tp3822
asI1220
(lp3823
(S'if'
p3824
g27
F0.9977
tp3825
a(S'you'
p3826
g34
F0.9998
tp3827
a(S'want'
p3828
g3
F0.9997
tp3829
a(S'to'
p3830
g27
F0.9955
tp3831
a(S'hear'
p3832
g3
F0.9988
tp3833
a(S'the'
p3834
g8
F0.9995
tp3835
a(S'water'
p3836
g11
F0.9984
tp3837
a(g13
g14
F0.9987
tp3838
asI1223
(lp3839
(S'see'
p3840
g3
F0.7243
tp3841
a(g138
g14
F0.9965
tp3842
asI1226
(lp3843
(S'testing'
p3844
g3
F0.901
tp3845
a(S'testing'
p3846
g11
F0.4882
tp3847
a(g13
g14
F0.9988
tp3848
asI1229
(lp3849
(S'zzz'
p3850
g54
F0.3756
tp3851
a(g13
g14
F0.9972
tp3852
asI1233
(lp3853
(S'go'
p3854
g3
F0.9637
tp3855
a(S'sit'
p3856
g3
F0.9828
tp3857
a(S'down'
p3858
g199
F0.7867
tp3859
a(S'and'
p3860
g94
F0.9965
tp3861
a(S'finish'
p3862
g3
F0.9978
tp3863
a(S'up'
p3864
g199
F0.965
tp3865
a(g13
g14
F0.9978
tp3866
asI1236
(lp3867
(S'eat'
p3868
g3
F0.99
tp3869
a(S'your'
p3870
g8
F0.9934
tp3871
a(S'supper'
p3872
g11
F0.9988
tp3873
a(g13
g14
F0.9986
tp3874
asI1239
(lp3875
(S'he'
p3876
g34
F0.9945
tp3877
a(S'went'
p3878
g3
F0.9997
tp3879
a(S'over'
p3880
g27
F0.6288
tp3881
a(S'there'
p3882
g18
F0.9137
tp3883
a(S'and'
p3884
g94
F0.9977
tp3885
a(S'said'
p3886
g3
F0.9961
tp3887
a(S'testing'
p3888
g3
F0.86
tp3889
a(S'testing'
p3890
g3
F0.5074
tp3891
a(g13
g14
F0.9986
tp3892
asI1244
(lp3893
(g38
g34
F0.9991
tp3894
a(S'did'
p3895
g3
F0.9992
tp3896
a(S'xxx'
p3897
g188
F0.3957
tp3898
a(g13
g14
F0.9663
tp3899
asI1248
(lp3900
(S'your'
p3901
g8
F0.9787
tp3902
a(S"brother's"
p3903
g11
F0.7313
tp3904
a(S'something'
p3905
g11
F0.9945
tp3906
a(S'xxx'
p3907
g188
F0.4481
tp3908
a(S"you're"
p3909
g142
F0.9923
tp3910
a(S'getting'
p3911
g3
F0.9995
tp3912
a(S'down'
p3913
g199
F0.4644
tp3914
a(g193
g194
F0.924
tp3915
a(S'xxx'
p3916
g188
F0.7235
tp3917
a(S'xxx'
p3918
g188
F0.9826
tp3919
a(g187
g188
F0.9474
tp3920
a(g52
g188
F0.5345
tp3921
a(g187
g188
F0.9519
tp3922
a(g56
g14
F0.8754
tp3923
a(g13
g14
F0.996
tp3924
asI1253
(lp3925
(S'xxx'
p3926
g188
F0.8981
tp3927
a(g52
g14
F0.6622
tp3928
a(g193
g194
F0.972
tp3929
a(g56
g14
F0.9847
tp3930
a(g13
g14
F0.9962
tp3931
asI1254
(lp3932
(S'zzz'
p3933
g421
F0.409
tp3934
a(g52
g14
F0.9395
tp3935
a(g187
g188
F0.3811
tp3936
a(g56
g14
F0.7604
tp3937
a(g13
g14
F0.9962
tp3938
asI1258
(lp3939
(S'awoh'
p3940
g54
F0.2228
tp3941
a(g52
g14
F0.9819
tp3942
a(g193
g194
F0.972
tp3943
a(g56
g14
F0.9847
tp3944
a(g13
g14
F0.9962
tp3945
asI1261
(lp3946
(g38
g34
F0.9983
tp3947
a(S'said'
p3948
g3
F0.9999
tp3949
a(S'it'
p3950
g34
F0.9799
tp3951
a(g54
g14
F0.9992
tp3952
asI1264
(lp3953
(S'this'
p3954
g34
F0.9526
tp3955
a(S'is'
p3956
g3
F0.9962
tp3957
a(S'boring'
p3958
g225
F0.9841
tp3959
a(g13
g14
F0.9987
tp3960
asI1267
(lp3961
(S'as'
p3962
g27
F0.571
tp3963
a(S'soon'
p3964
g18
F0.8864
tp3965
a(S'as'
p3966
g27
F0.9651
tp3967
a(S'you'
p3968
g34
F0.9799
tp3969
a(S'guys'
p3970
g11
F0.9212
tp3971
a(S'finish'
p3972
g3
F0.9882
tp3973
a(S"I'm"
p3974
g142
F0.9804
tp3975
a(S'gonna'
p3976
g3
F0.9894
tp3977
a(S'shoot'
p3978
g3
F0.9522
tp3979
a(S'to'
p3980
g27
F0.9975
tp3981
a(S'the'
p3982
g8
F0.9992
tp3983
a(S'store'
p3984
g11
F0.9973
tp3985
a(g13
g14
F0.9983
tp3986
asI1273
(lp3987
(S'what'
p3988
g34
F0.9511
tp3989
a(S'(.)'
p3990
g188
F0.3151
tp3991
a(g138
g14
F0.9749
tp3992
asI1278
(lp3993
(S'may'
p3994
g3
F0.8714
tp3995
a(g38
g34
F0.999
tp3996
a(S'go'
p3997
g3
F0.9995
tp3998
a(S'to'
p3999
g27
F0.9984
tp4000
a(S'the'
p4001
g8
F0.9991
tp4002
a(S'store'
p4003
g11
F0.9878
tp4004
a(S'with'
p4005
g27
F0.9998
tp4006
a(S'you'
p4007
g34
F0.9987
tp4008
a(g138
g14
F0.9995
tp4009
asI1284
(lp4010
(S'no'
p4011
g54
F0.9704
tp4012
a(g13
g14
F0.9989
tp4013
asI1287
(lp4014
(S'why'
p4015
g18
F0.9408
tp4016
a(g138
g14
F0.9946
tp4017
asI1291
(lp4018
(S'you'
p4019
g34
F0.995
tp4020
a(S'already'
p4021
g18
F0.9947
tp4022
a(S'went'
p4023
g3
F0.997
tp4024
a(S'once'
p4025
g18
F0.9873
tp4026
a(S'with'
p4027
g27
F0.9963
tp4028
a(S'Dad'
p4029
g11
F0.5562
tp4030
a(g13
g14
F0.9986
tp4031
asI1295
(lp4032
(S'can'
p4033
g3
F0.9938
tp4034
a(g38
g34
F0.9989
tp4035
a(S'go'
p4036
g3
F0.9997
tp4037
a(S'with'
p4038
g27
F0.9993
tp4039
a(S'you'
p4040
g34
F0.9981
tp4041
a(g138
g14
F0.9993
tp4042
asI1298
(lp4043
(S'no'
p4044
g54
F0.9005
tp4045
a(S"you're"
p4046
g142
F0.9945
tp4047
a(S'not'
p4048
g18
F0.9988
tp4049
a(S'coming'
p4050
g3
F0.9995
tp4051
a(S'either'
p4052
g18
F0.4511
tp4053
a(g13
g14
F0.9983
tp4054
asI1302
(lp4055
(S'where'
p4056
g18
F0.9806
tp4057
a(S'you'
p4058
g34
F0.9995
tp4059
a(S'going'
p4060
g3
F0.9974
tp4061
a(g138
g14
F0.9987
tp4062
asI1306
(lp4063
(S"I'm"
p4064
g142
F0.997
tp4065
a(S'going'
p4066
g3
F0.9912
tp4067
a(S'to'
p4068
g27
F0.9914
tp4069
a(S'the'
p4070
g8
F0.9991
tp4071
a(S'store'
p4072
g11
F0.9975
tp4073
a(g38
g34
F0.9918
tp4074
a(S'said'
p4075
g3
F0.9971
tp4076
a(g13
g14
F0.9975
tp4077
asI1312
(lp4078
(S'why'
p4079
g18
F0.8842
tp4080
a(S'do'
p4081
g3
F0.9981
tp4082
a(S'you'
p4083
g34
F0.9997
tp4084
a(S'have'
p4085
g3
F0.9961
tp4086
a(S'xxx'
p4087
g188
F0.518
tp4088
a(g138
g14
F0.9641
tp4089
asI1316
(lp4090
(S"I'm"
p4091
g142
F0.9951
tp4092
a(S'gonna'
p4093
g3
F0.9846
tp4094
a(S'mail'
p4095
g11
F0.6709
tp4096
a(S'something'
p4097
g11
F0.9994
tp4098
a(g13
g14
F0.9984
tp4099
asI1320
(lp4100
(S'xxx'
p4101
g188
F0.5822
tp4102
a(g13
g14
F0.9648
tp4103
asI1322
(lp4104
(g38
g34
F0.9976
tp4105
a(S"can't"
p4106
g3
F0.9999
tp4107
a(g52
g14
F0.9681
tp4108
a(g54
g14
F0.9922
tp4109
a(g56
g14
F0.9671
tp4110
a(S'mail'
p4111
g11
F0.8506
tp4112
a(S'this'
p4113
g34
F0.5636
tp4114
a(S'so'
p4115
g18
F0.645
tp4116
a(S"I'll"
p4117
g142
F0.9873
tp4118
a(S'have_to'
p4119
g3
F0.9997
tp4120
a(S'wait'
p4121
g3
F0.999
tp4122
a(S'until'
p4123
g27
F0.9929
tp4124
a(S'tomorrow'
p4125
g11
F0.9719
tp4126
a(g13
g14
F0.9978
tp4127
asI1328
(lp4128
(S'why'
p4129
g18
F0.9408
tp4130
a(g138
g14
F0.9946
tp4131
asI1332
(lp4132
(S'xxx'
p4133
g188
F0.5822
tp4134
a(g13
g14
F0.9648
tp4135
asI1333
(lp4136
(S'Mommy'
p4137
g11
F0.479
tp4138
a(S'xxx'
p4139
g188
F0.4863
tp4140
a(S'xxx'
p4141
g188
F0.9304
tp4142
a(S'can'
p4143
g3
F0.9969
tp4144
a(g38
g34
F0.999
tp4145
a(S'get'
p4146
g3
F0.9997
tp4147
a(S'water'
p4148
g11
F0.9873
tp4149
a(g52
g14
F0.988
tp4150
a(g138
g14
F0.9868
tp4151
a(g56
g14
F0.8084
tp4152
a(g138
g14
F0.9962
tp4153
asI1336
(lp4154
(g193
g194
F0.97
tp4155
a(S'xxx'
p4156
g188
F0.4864
tp4157
a(S'go'
p4158
g3
F0.9968
tp4159
a(S'out'
p4160
g199
F0.5875
tp4161
a(g187
g188
F0.4303
tp4162
a(g52
g188
F0.5345
tp4163
a(g187
g188
F0.9732
tp4164
a(g56
g14
F0.6496
tp4165
a(g138
g14
F0.9965
tp4166
asI1340
(lp4167
(g193
g194
F0.9093
tp4168
a(S'where'
p4169
g18
F0.9284
tp4170
a(S'are'
p4171
g3
F0.9898
tp4172
a(S'you'
p4173
g34
F0.9995
tp4174
a(S'going'
p4175
g3
F0.9983
tp4176
a(g187
g188
F0.5134
tp4177
a(g52
g188
F0.535
tp4178
a(g193
g194
F0.7916
tp4179
a(g56
g14
F0.9773
tp4180
a(g138
g14
F0.9957
tp4181
asI1344
(lp4182
(S'nobody'
p4183
g11
F0.9606
tp4184
a(S'is'
p4185
g3
F0.9975
tp4186
a(S'going'
p4187
g3
F0.9945
tp4188
a(S'outside'
p4189
g18
F0.3594
tp4190
a(S'after'
p4191
g27
F0.9121
tp4192
a(S'supper'
p4193
g11
F0.9834
tp4194
a(g13
g14
F0.9985
tp4195
asI1348
(lp4196
(S'the'
p4197
g8
F0.9988
tp4198
a(S'mosquitoes'
p4199
g11
F0.9946
tp4200
a(S'are'
p4201
g3
F0.9945
tp4202
a(S'too'
p4203
g18
F0.9993
tp4204
a(S'much'
p4205
g225
F0.741
tp4206
a(g13
g14
F0.9982
tp4207
asI1352
(lp4208
(S'Mom'
p4209
g11
F0.6256
tp4210
a(S'mosquitoes'
p4211
g11
F0.9768
tp4212
a(S'have'
p4213
g3
F0.9922
tp4214
a(g52
g14
F0.9877
tp4215
a(g54
g14
F0.9901
tp4216
a(g56
g14
F0.9728
tp4217
a(S'to'
p4218
g27
F0.995
tp4219
a(S'eat'
p4220
g3
F0.9998
tp4221
a(S'us'
p4222
g34
F0.9792
tp4223
a(S'xxx'
p4224
g188
F0.7195
tp4225
a(g52
g14
F0.6588
tp4226
a(g187
g188
F0.4915
tp4227
a(g56
g14
F0.7758
tp4228
a(g13
g14
F0.9977
tp4229
asI1355
(lp4230
(S'no'
p4231
g54
F0.8389
tp4232
a(g52
g14
F0.9936
tp4233
a(g193
g194
F0.9843
tp4234
a(g56
g14
F0.9848
tp4235
a(S'mosquitoes'
p4236
g11
F0.9873
tp4237
a(S"don't"
p4238
g3
F0.9998
tp4239
a(S'have_to'
p4240
g3
F0.9997
tp4241
a(S'eat'
p4242
g3
F0.997
tp4243
a(S'anybody'
p4244
g11
F0.9898
tp4245
a(g13
g14
F0.9982
tp4246
asI1359
(lp4247
(S"they're"
p4248
g142
F0.9577
tp4249
a(g490
g8
F0.9883
tp4250
a(S'nuisance'
p4251
g11
F0.9988
tp4252
a(g13
g14
F0.998
tp4253
asI1362
(lp4254
(S"there's"
p4255
g142
F0.6552
tp4256
a(S'one'
p4257
g634
F0.9236
tp4258
a(g52
g14
F0.9767
tp4259
a(g54
g14
F0.9922
tp4260
a(g56
g14
F0.9803
tp4261
a(S'on'
p4262
g27
F0.9873
tp4263
a(S'me'
p4264
g34
F0.998
tp4265
a(g52
g14
F0.9888
tp4266
a(g54
g14
F0.993
tp4267
a(g56
g14
F0.9712
tp4268
a(g13
g14
F0.9964
tp4269
asI1365
(lp4270
(S"let's"
p4271
g142
F0.9651
tp4272
a(S'hope'
p4273
g3
F0.9948
tp4274
a(S"that's"
p4275
g142
F0.9899
tp4276
a(S'all'
p4277
g8
F0.717
tp4278
a(g52
g14
F0.9744
tp4279
a(g54
g14
F0.9901
tp4280
a(g56
g14
F0.9821
tp4281
a(S'you'
p4282
g34
F0.9973
tp4283
a(S'get'
p4284
g3
F0.9984
tp4285
a(g13
g14
F0.9957
tp4286
asI1370
(lp4287
(S"you're"
p4288
g142
F0.9895
tp4289
a(S'lucky'
p4290
g225
F0.9991
tp4291
a(g13
g14
F0.9986
tp4292
asI1373
(lp4293
(S'zzz'
p4294
g421
F0.409
tp4295
a(g52
g14
F0.9395
tp4296
a(g187
g188
F0.3811
tp4297
a(g56
g14
F0.7604
tp4298
a(g13
g14
F0.9962
tp4299
asI1377
(lp4300
(g193
g194
F0.97
tp4301
a(S'xxx'
p4302
g188
F0.5579
tp4303
a(S'[/]'
p4304
g188
F0.5347
tp4305
a(g187
g188
F0.9607
tp4306
a(g52
g188
F0.535
tp4307
a(g193
g194
F0.6902
tp4308
a(g56
g14
F0.9839
tp4309
a(g13
g14
F0.9962
tp4310
asI1378
(lp4311
(S'Mommy'
p4312
g11
F0.7911
tp4313
a(g13
g14
F0.9983
tp4314
asI1381
(lp4315
(S'yeah'
p4316
g54
F0.9986
tp4317
a(g13
g14
F0.997
tp4318
asI1384
(lp4319
(S'add'
p4320
g3
F0.9332
tp4321
a(S'cheese'
p4322
g11
F0.9952
tp4323
a(g13
g14
F0.9985
tp4324
asI1387
(lp4325
(g193
g194
F0.9112
tp4326
a(S'Daddy'
p4327
g11
F0.7522
tp4328
a(S'needs'
p4329
g3
F0.9973
tp4330
a(g490
g8
F0.9967
tp4331
a(S'bumper'
p4332
g11
F0.9964
tp4333
a(g52
g14
F0.9855
tp4334
a(g54
g14
F0.9901
tp4335
a(g56
g14
F0.9866
tp4336
a(S'and'
p4337
g94
F0.9995
tp4338
a(S'some'
p4339
g8
F0.9062
tp4340
a(S'shocks['
p4341
g11
F0.9534
tp4342
a(g54
g14
F0.9972
tp4343
a(g56
g14
F0.9363
tp4344
a(g187
g188
F0.5377
tp4345
a(g52
g14
F0.6089
tp4346
a(g138
g14
F0.9892
tp4347
a(g56
g14
F0.8635
tp4348
a(g13
g14
F0.9971
tp4349
asI1392
(lp4350
(S'xxx'
p4351
g188
F0.5822
tp4352
a(g13
g14
F0.9648
tp4353
asI1394
(lp4354
(S"there's"
p4355
g142
F0.8076
tp4356
a(g490
g8
F0.9977
tp4357
a(S'bag'
p4358
g11
F0.9994
tp4359
a(S'of'
p4360
g27
F0.9947
tp4361
a(S'shoes'
p4362
g11
F0.9836
tp4363
a(S'in'
p4364
g27
F0.9955
tp4365
a(S'there'
p4366
g18
F0.6832
tp4367
a(S'if'
p4368
g27
F0.9991
tp4369
a(S'you'
p4370
g34
F0.9998
tp4371
a(S'want'
p4372
g3
F0.9992
tp4373
a(S'xxx'
p4374
g188
F0.7284
tp4375
a(S'xxx'
p4376
g188
F0.937
tp4377
a(S'put'
p4378
g3
F0.994
tp4379
a(S'it'
p4380
g34
F0.9861
tp4381
a(S'upstairs'
p4382
g3
F0.4191
tp4383
a(S'in'
p4384
g27
F0.9831
tp4385
a(S'the'
p4386
g8
F0.9993
tp4387
a(S'attic'
p4388
g11
F0.9958
tp4389
a(S'or'
p4390
g94
F0.9925
tp4391
a(S'something'
p4392
g11
F0.9982
tp4393
a(g13
g14
F0.997
tp4394
asI1402
(lp4395
(S'no'
p4396
g54
F0.5613
tp4397
a(S"don't"
p4398
g3
F0.999
tp4399
a(S'put'
p4400
g3
F0.9998
tp4401
a(S'it'
p4402
g34
F0.9778
tp4403
a(S'in'
p4404
g27
F0.977
tp4405
a(S'the'
p4406
g8
F0.9993
tp4407
a(S'attic'
p4408
g11
F0.9962
tp4409
a(g52
g14
F0.9885
tp4410
a(g187
g188
F0.4696
tp4411
a(g56
g14
F0.795
tp4412
a(g13
g14
F0.9964
tp4413
asI1407
(lp4414
(g193
g194
F0.9001
tp4415
a(S'you'
p4416
g34
F0.9971
tp4417
a(S"don't>"
p4418
g3
F0.9995
tp4419
a(g52
g14
F0.984
tp4420
a(g193
g194
F0.9635
tp4421
a(g56
g14
F0.9814
tp4422
a(S'need'
p4423
g3
F0.9459
tp4424
a(g52
g14
F0.9857
tp4425
a(g54
g14
F0.9901
tp4426
a(g56
g14
F0.9809
tp4427
a(S'it'
p4428
g34
F0.977
tp4429
a(g13
g14
F0.9982
tp4430
asI1410
(lp4431
(S"there's"
p4432
g142
F0.7172
tp4433
a(S'enough'
p4434
g225
F0.9384
tp4435
a(S'shoes'
p4436
g11
F0.9985
tp4437
a(g52
g14
F0.9908
tp4438
a(g54
g14
F0.9901
tp4439
a(g56
g14
F0.9798
tp4440
a(S'in'
p4441
g27
F0.9863
tp4442
a(S'this'
p4443
g8
F0.9669
tp4444
a(S'house'
p4445
g11
F0.9911
tp4446
a(S'to'
p4447
g27
F0.9943
tp4448
a(S'last'
p4449
g3
F0.8855
tp4450
a(S'us'
p4451
g34
F0.9192
tp4452
a(g490
g8
F0.9957
tp4453
a(S'lifetime'
p4454
g11
F0.9963
tp4455
a(g13
g14
F0.9985
tp4456
asI1416
(lp4457
(S'Mommy'
p4458
g11
F0.3919
tp4459
a(S'you'
p4460
g34
F0.9953
tp4461
a(S"didn't"
p4462
g3
F0.9999
tp4463
a(g193
g194
F0.9218
tp4464
a(S'xxx'
p4465
g188
F0.3822
tp4466
a(S'any'
p4467
g8
F0.7627
tp4468
a(g187
g188
F0.3738
tp4469
a(g52
g188
F0.5345
tp4470
a(g187
g188
F0.9577
tp4471
a(g56
g14
F0.795
tp4472
a(g13
g14
F0.9964
tp4473
asI1419
(lp4474
(g193
g194
F0.97
tp4475
a(S'xxx'
p4476
g188
F0.3953
tp4477
a(S'shoes'
p4478
g11
F0.9829
tp4479
a(g187
g188
F0.6003
tp4480
a(g52
g188
F0.535
tp4481
a(g193
g194
F0.6902
tp4482
a(g56
g14
F0.9839
tp4483
a(g13
g14
F0.9962
tp4484
asI1422
(lp4485
(S'Daddy'
p4486
g11
F0.8277
tp4487
a(S'can'
p4488
g3
F0.998
tp4489
a(g38
g34
F0.9988
tp4490
a(S'go'
p4491
g3
F0.9999
tp4492
a(S'up'
p4493
g199
F0.7756
tp4494
a(S'in'
p4495
g27
F0.9967
tp4496
a(S'the'
p4497
g8
F0.9926
tp4498
a(S'xxx'
p4499
g11
F0.3067
tp4500
a(S'(.)'
p4501
g188
F0.221
tp4502
a(S'Daddy'
p4503
g11
F0.8901
tp4504
a(g193
g194
F0.6397
tp4505
a(S'do'
p4506
g3
F0.999
tp4507
a(S'you'
p4508
g34
F0.9997
tp4509
a(S'want'
p4510
g3
F0.9997
tp4511
a(S'to'
p4512
g27
F0.9841
tp4513
a(S'go'
p4514
g3
F0.9968
tp4515
a(g187
g421
F0.2987
tp4516
a(S'[//]'
p4517
g421
F0.3447
tp4518
a(S'do'
p4519
g3
F0.9943
tp4520
a(S'want'
p4521
g3
F0.9938
tp4522
a(S'to'
p4523
g27
F0.9841
tp4524
a(S'go'
p4525
g3
F0.9999
tp4526
a(S'up'
p4527
g199
F0.8228
tp4528
a(S'into'
p4529
g27
F0.9994
tp4530
a(S'our'
p4531
g8
F0.9975
tp4532
a(S'attic'
p4533
g11
F0.9946
tp4534
a(g138
g14
F0.9967
tp4535
asI1430
(lp4536
(S'alright'
p4537
g54
F0.9489
tp4538
a(S'hey'
p4539
g54
F0.994
tp4540
a(S'you'
p4541
g34
F0.9991
tp4542
a(S'get'
p4543
g3
F0.9991
tp4544
a(S'xxx'
p4545
g188
F0.7044
tp4546
a(g52
g14
F0.6588
tp4547
a(g187
g188
F0.5886
tp4548
a(g56
g14
F0.8062
tp4549
a(g13
g14
F0.9969
tp4550
asI1433
(lp4551
(g193
g194
F0.9315
tp4552
a(S"he's>"
p4553
g142
F0.5769
tp4554
a(g52
g14
F0.9541
tp4555
a(g193
g194
F0.9566
tp4556
a(g56
g14
F0.989
tp4557
a(S'not'
p4558
g18
F0.9917
tp4559
a(S'doing'
p4560
g3
F0.9999
tp4561
a(S'it'
p4562
g34
F0.9945
tp4563
a(S'today'
p4564
g11
F0.8926
tp4565
a(S'so'
p4566
g27
F0.7984
tp4567
a(S'xxx'
p4568
g188
F0.3504
tp4569
a(g13
g14
F0.9514
tp4570
asI1437
(lp4571
(g193
g194
F0.9526
tp4572
a(g38
g34
F0.9983
tp4573
a(S"don't>"
p4574
g3
F0.9998
tp4575
a(g52
g14
F0.9833
tp4576
a(g187
g188
F0.4438
tp4577
a(g56
g14
F0.7509
tp4578
a(S'[///]'
p4579
g421
F0.342
tp4580
a(S'xxx'
p4581
g421
F0.4185
tp4582
a(S'to'
p4583
g27
F0.9735
tp4584
a(S'do'
p4585
g3
F0.9997
tp4586
a(S'without'
p4587
g27
F0.997
tp4588
a(S'the'
p4589
g8
F0.999
tp4590
a(S'supper'
p4591
g11
F0.9967
tp4592
a(g13
g14
F0.9992
tp4593
asI1440
(lp4594
(g193
g194
F0.937
tp4595
a(S'go'
p4596
g3
F0.99
tp4597
a(S'in'
p4598
g27
F0.9811
tp4599
a(S'the'
p4600
g8
F0.9996
tp4601
a(S'other'
p4602
g225
F0.9856
tp4603
a(S'room'
p4604
g11
F0.9954
tp4605
a(g187
g188
F0.456
tp4606
a(g52
g188
F0.535
tp4607
a(g193
g194
F0.7815
tp4608
a(g56
g14
F0.9822
tp4609
a(g13
g14
F0.9964
tp4610
asI1443
(lp4611
(S'go'
p4612
g3
F0.9676
tp4613
a(S'on'
p4614
g27
F0.7599
tp4615
a(g13
g14
F0.9968
tp4616
asI1446
(lp4617
(S'right'
p4618
g54
F0.7294
tp4619
a(g13
g14
F0.9987
tp4620
asI1449
(lp4621
(S'maybe'
p4622
g18
F0.932
tp4623
a(S'one'
p4624
g634
F0.9008
tp4625
a(S'or'
p4626
g94
F0.9887
tp4627
a(S'two'
p4628
g634
F0.9802
tp4629
a(S'pairs'
p4630
g11
F0.9941
tp4631
a(S'in'
p4632
g27
F0.9991
tp4633
a(S'the'
p4634
g8
F0.9994
tp4635
a(S'morning'
p4636
g11
F0.9994
tp4637
a(g13
g14
F0.9988
tp4638
asI1454
(lp4639
(S'keep'
p4640
g3
F0.9817
tp4641
a(S'the'
p4642
g8
F0.9908
tp4643
a(S'xxx'
p4644
g11
F0.9227
tp4645
a(g13
g14
F0.9983
tp4646
asI1457
(lp4647
(S'keep'
p4648
g3
F0.9817
tp4649
a(S'the'
p4650
g8
F0.9908
tp4651
a(S'xxx'
p4652
g11
F0.9227
tp4653
a(g13
g14
F0.9983
tp4654
asI1461
(lp4655
(S"I'm"
p4656
g142
F0.9969
tp4657
a(S'trying'
p4658
g3
F0.9946
tp4659
a(S'to'
p4660
g27
F0.9959
tp4661
a(S'get'
p4662
g3
F0.9997
tp4663
a(S'rid'
p4664
g225
F0.8359
tp4665
a(S'of'
p4666
g27
F0.9929
tp4667
a(S'shoes'
p4668
g11
F0.9858
tp4669
a(g13
g14
F0.9988
tp4670
asI1466
(lp4671
(S'why'
p4672
g18
F0.9408
tp4673
a(g138
g14
F0.9946
tp4674
asI1470
(lp4675
(S'xxx['
p4676
g188
F0.8184
tp4677
a(g187
g188
F0.9589
tp4678
a(g56
g14
F0.8011
tp4679
a(g13
g14
F0.9963
tp4680
asI1471
(lp4681
(S'xxx'
p4682
g188
F0.8981
tp4683
a(g52
g14
F0.6622
tp4684
a(g193
g194
F0.972
tp4685
a(g56
g14
F0.9847
tp4686
a(g13
g14
F0.9962
tp4687
asI1472
(lp4688
(S'what'
p4689
g34
F0.9171
tp4690
a(g138
g14
F0.9924
tp4691
asI1476
(lp4692
(S'it'
p4693
g34
F0.996
tp4694
a(S'helps'
p4695
g3
F0.9994
tp4696
a(S'being'
p4697
g3
F0.9983
tp4698
a(g490
g8
F0.9984
tp4699
a(S'girl'
p4700
g11
F0.9971
tp4701
a(g138
g14
F0.9966
tp4702
as.