(dp0
I514
(lp1
(S'yeah'
p2
S'!'
p3
F0.9976
tp4
a(S'Mot'
p5
S'^'
p6
F0.4591
tp7
a(S'.'
p8
S','
p9
F0.989
tp10
asI939
(lp11
(S'Mom'
p12
S'N'
p13
F0.8668
tp14
a(S'?'
p15
g9
F0.9977
tp16
asI1029
(lp17
(S'(..)'
p18
g9
F0.3453
tp19
a(S'slow'
p20
S'A'
p21
F0.9053
tp22
a(S'down'
p23
S'R'
p24
F0.3162
tp25
a(g8
g9
F0.9984
tp26
asI518
(lp27
(S'this'
p28
S'D'
p29
F0.6349
tp30
a(S'(.)'
p31
S'G'
p32
F0.4414
tp33
a(S'the'
p34
g29
F0.9974
tp35
a(S'sauce'
p36
g13
F0.9909
tp37
a(S'is'
p38
S'V'
p39
F0.9945
tp40
a(S'xxx'
p41
S'E'
p42
F0.4788
tp43
a(g8
g9
F0.9646
tp44
asI1032
(lp45
(S'(..)'
p46
g9
F0.3741
tp47
a(S'am'
p48
g39
F0.9765
tp49
a(S'I'
p50
S'O'
p51
F0.9996
tp52
a(S'done'
p53
g39
F0.9882
tp54
a(g15
g9
F0.999
tp55
asI521
(lp56
(S'yeah'
p57
g3
F0.9971
tp58
a(g50
g51
F0.9994
tp59
a(S'know'
p60
g39
F0.9987
tp61
a(g8
g9
F0.9981
tp62
asI524
(lp63
(S'the'
p64
g29
F0.9981
tp65
a(S'sauce'
p66
g13
F0.9915
tp67
a(S'is'
p68
g39
F0.9904
tp69
a(S'xxx'
p70
g42
F0.4203
tp71
a(g8
g9
F0.9688
tp72
asI1026
(lp73
(S'no'
p74
g3
F0.9704
tp75
a(g8
g9
F0.9989
tp76
asI527
(lp77
(S"that's"
p78
S'L'
p79
F0.9924
tp80
a(S'why'
p81
g24
F0.9773
tp82
a(g50
g51
F0.9992
tp83
a(S'have_to'
p84
g39
F0.9994
tp85
a(S'get'
p86
g39
F0.9998
tp87
a(S'a'
p88
g29
F0.9955
tp89
a(S'drink'
p90
g13
F0.9953
tp91
a(g8
g9
F0.9981
tp92
asI16
(lp93
(S'oh'
p94
g3
F0.9942
tp95
a(S"that's"
p96
g79
F0.9935
tp97
a(S'enough'
p98
g21
F0.7516
tp99
a(S'cheese'
p100
g13
F0.995
tp101
a(S'Chi'
p102
g6
F0.6378
tp103
a(g8
g9
F0.9852
tp104
asI1043
(lp105
(S'yeah'
p106
g3
F0.9986
tp107
a(g8
g9
F0.997
tp108
asI532
(lp109
(S'right'
p110
g3
F0.7325
tp111
a(g15
g9
F0.9985
tp112
asI21
(lp113
(S'Bro'
p114
g13
F0.9045
tp115
a(g8
g9
F0.9985
tp116
asI1046
(lp117
(S'no'
p118
g3
F0.9704
tp119
a(g8
g9
F0.9989
tp120
asI535
(lp121
(S'mhm'
p122
g3
F0.9761
tp123
a(g8
g9
F0.9962
tp124
asI25
(lp125
(S'what'
p126
g51
F0.9171
tp127
a(g15
g9
F0.9924
tp128
asI1050
(lp129
(S'no'
p130
g3
F0.8389
tp131
a(S'['
p132
g9
F0.9933
tp133
a(S'>'
p134
g42
F0.3811
tp135
a(S']'
p136
g9
F0.7604
tp137
a(g8
g9
F0.9962
tp138
asI539
(lp139
(S'Mom'
p140
g13
F0.7872
tp141
a(S'and'
p142
S'&'
p143
F0.9958
tp144
a(S'that'
p145
g51
F0.8999
tp146
a(g15
g9
F0.9985
tp147
asI28
(lp148
(S'will'
p149
g39
F0.9979
tp150
a(S'you'
p151
g51
F0.9986
tp152
a(S'help'
p153
g39
F0.9997
tp154
a(S'me'
p155
g51
F0.9961
tp156
a(g15
g9
F0.9984
tp157
asI1054
(lp158
(S'<'
p159
S'~'
p160
F0.9346
tp161
a(S'did'
p162
g39
F0.9993
tp163
a(S'you'
p164
g51
F0.9981
tp165
a(g134
g42
F0.3835
tp166
a(g132
g42
F0.535
tp167
a(g159
g160
F0.8293
tp168
a(g136
g9
F0.9852
tp169
a(S'finish'
p170
g39
F0.9976
tp171
a(S'your'
p172
g29
F0.9835
tp173
a(S'meatball'
p174
g13
F0.9581
tp175
a(g15
g9
F0.9973
tp176
asI31
(lp177
(S'what'
p178
g51
F0.9171
tp179
a(g15
g9
F0.9924
tp180
asI34
(lp181
(S'&-um'
p182
g3
F0.7886
tp183
a(S'xxx'
p184
g42
F0.4829
tp185
a(S'bike'
p186
g13
F0.9431
tp187
a(S"I'm"
p188
g79
F0.9953
tp189
a(S'tryin(g'
p190
g39
F0.829
tp191
a(S')'
p192
g9
F0.994
tp193
a(S'to'
p194
S'P'
p195
F0.9966
tp196
a(S'get'
p197
g39
F0.9999
tp198
a(S'the'
p199
g29
F0.9994
tp200
a(S'tire'
p201
g13
F0.9934
tp202
a(S'off'
p203
g195
F0.4397
tp204
a(g15
g9
F0.9959
tp205
asI547
(lp206
(S'&-um'
p207
g3
F0.7959
tp208
a(S'(.)'
p209
g42
F0.2634
tp210
a(g88
g29
F0.8567
tp211
a(S'xxx'
p212
g13
F0.5397
tp213
a(S'and'
p214
g143
F0.9993
tp215
a(g88
g29
F0.9625
tp216
a(S'beep'
p217
g13
F0.8801
tp218
a(g15
g9
F0.9977
tp219
asI1061
(lp220
(g50
g51
F0.9976
tp221
a(S"don't"
p222
g39
F1.0
tp223
a(S'want'
p224
g39
F1.0
tp225
a(g88
g29
F0.9953
tp226
a(S'meatball'
p227
g13
F0.9648
tp228
a(g8
g9
F0.9985
tp229
asI39
(lp230
(S'&-um'
p231
g3
F0.7886
tp232
a(S'xxx'
p233
g42
F0.4612
tp234
a(S'that'
p235
g29
F0.4441
tp236
a(S'black'
p237
g21
F0.9353
tp238
a(S'bike'
p239
g13
F0.9955
tp240
a(g15
g9
F0.9978
tp241
asI552
(lp242
(S'yeah'
p243
g3
F0.9951
tp244
a(g88
g29
F0.9939
tp245
a(S'little'
p246
g21
F0.9969
tp247
a(S'bit'
p248
g13
F0.9679
tp249
a(g8
g9
F0.9972
tp250
asI860
(lp251
(S'right'
p252
g3
F0.4489
tp253
a(S'there'
p254
g24
F0.6956
tp255
a(g8
g9
F0.9981
tp256
asI42
(lp257
(S'yeah'
p258
g3
F0.9986
tp259
a(g8
g9
F0.997
tp260
asI555
(lp261
(S'nuhhuh'
p262
g3
F0.4209
tp263
a(g8
g9
F0.9969
tp264
asI1068
(lp265
(S"you're"
p266
g79
F0.9929
tp267
a(S'done'
p268
g39
F0.715
tp269
a(g15
g9
F0.9986
tp270
asI45
(lp271
(S'wait'
p272
g39
F0.8939
tp273
a(g8
g9
F0.9973
tp274
asI558
(lp275
(S'no'
p276
g3
F0.9704
tp277
a(g8
g9
F0.9989
tp278
asI1072
(lp279
(S'put'
p280
g39
F0.9272
tp281
a(S'shoes'
p282
g13
F0.9869
tp283
a(S'on'
p284
g195
F0.9586
tp285
a(g8
g9
F0.9974
tp286
asI49
(lp287
(S'did'
p288
g39
F0.9986
tp289
a(S'you'
p290
g51
F0.9993
tp291
a(S'have'
p292
g39
F0.9977
tp293
a(S'fun'
p294
g13
F0.8151
tp295
a(S'on'
p296
g195
F0.9988
tp297
a(S'your'
p298
g29
F0.9933
tp299
a(S'vacation'
p300
g13
F0.9981
tp301
a(S'Chi'
p302
g6
F0.5547
tp303
a(g15
g9
F0.9943
tp304
asI565
(lp305
(S"where's"
p306
g79
F0.9547
tp307
a(g88
g29
F0.9953
tp308
a(S'napkin'
p309
g13
F0.9993
tp310
a(g15
g9
F0.9981
tp311
asI55
(lp312
(S'yeah'
p313
g3
F0.9986
tp314
a(g8
g9
F0.997
tp315
asI569
(lp316
(S'this'
p317
g51
F0.9526
tp318
a(S'is'
p319
g39
F0.9949
tp320
a(S'hot'
p321
g21
F0.982
tp322
a(g8
g9
F0.9987
tp323
asI58
(lp324
(S'where'
p325
g24
F0.9164
tp326
a(S'did'
p327
g39
F0.9941
tp328
a(S'we'
p329
g51
F0.9984
tp330
a(S'go'
p331
g39
F0.9872
tp332
a(g15
g9
F0.9974
tp333
asI863
(lp334
(S'xxx'
p335
g42
F0.7103
tp336
a(g15
g9
F0.9715
tp337
asI572
(lp338
(S'this'
p339
g51
F0.9526
tp340
a(S'is'
p341
g39
F0.9959
tp342
a(S'hot'
p343
g21
F0.9779
tp344
a(S'too'
p345
g24
F0.9773
tp346
a(g8
g9
F0.9974
tp347
asI62
(lp348
(S'huh'
p349
g3
F0.9936
tp350
a(g15
g9
F0.9967
tp351
asI575
(lp352
(S'ow'
p353
g3
F0.9868
tp354
a(g3
g9
F0.9967
tp355
asI608
(lp356
(S'it'
p357
g51
F0.9956
tp358
a(S'was'
p359
g39
F0.9989
tp360
a(S'so'
p361
g24
F0.9954
tp362
a(S'funny'
p363
g21
F0.9988
tp364
a(g3
g9
F0.9988
tp365
asI66
(lp366
(S'where'
p367
g24
F0.9164
tp368
a(S'did'
p369
g39
F0.9941
tp370
a(S'we'
p371
g51
F0.9984
tp372
a(S'go'
p373
g39
F0.9872
tp374
a(g15
g9
F0.9974
tp375
asI779
(lp376
(S'one'
p377
S'$'
p378
F0.8715
tp379
a(g15
g9
F0.9955
tp380
asI971
(lp381
(S'this'
p382
g51
F0.7
tp383
a(g15
g9
F0.9978
tp384
asI70
(lp385
(S'college'
p386
g13
F0.9567
tp387
a(g8
g9
F0.9983
tp388
asI73
(lp389
(S'to'
p390
g195
F0.9895
tp391
a(S'where'
p392
g24
F0.9339
tp393
a(g15
g9
F0.9961
tp394
asI1022
(lp395
(S'did'
p396
g39
F0.9986
tp397
a(S'you'
p398
g51
F0.9985
tp399
a(S'finish'
p400
g39
F0.9998
tp401
a(S'your'
p402
g29
F0.9923
tp403
a(S'milk'
p404
g13
F0.9991
tp405
a(g15
g9
F0.9971
tp406
asI588
(lp407
(S'hey'
p408
g3
F0.9992
tp409
a(g3
g9
F0.9964
tp410
asI77
(lp411
(S'college'
p412
g13
F0.9567
tp413
a(g8
g9
F0.9983
tp414
asI591
(lp415
(S'(..)'
p416
g42
F0.4292
tp417
a(g50
g51
F0.996
tp418
a(S'took'
p419
g39
F1.0
tp420
a(S'his'
p421
g29
F0.8238
tp422
a(g8
g9
F0.9961
tp423
asI80
(lp424
(S'the'
p425
g29
F0.9982
tp426
a(S'cottage'
p427
g13
F0.9979
tp428
a(g15
g9
F0.9969
tp429
asI594
(lp430
(g50
g51
F0.9984
tp431
a(S'know'
p432
g39
F0.9991
tp433
a(S'[='
p434
g42
F0.9434
tp435
a(g3
g9
F0.9939
tp436
a(S'short'
p437
g21
F0.9552
tp438
a(S'laugh'
p439
g13
F0.9582
tp440
a(g136
g9
F0.9919
tp441
a(g8
g9
F0.9962
tp442
asI84
(lp443
(S'<&='
p444
g6
F0.2832
tp445
a(S'laughs'
p446
g39
F0.9507
tp447
a(g134
g42
F0.3768
tp448
a(g132
g42
F0.4959
tp449
a(g134
g42
F0.9698
tp450
a(g136
g9
F0.6899
tp451
a(g8
g9
F0.9959
tp452
asI85
(lp453
(S'<&='
p454
g6
F0.2832
tp455
a(S'laughs'
p456
g39
F0.9507
tp457
a(g134
g42
F0.3768
tp458
a(g132
g42
F0.4963
tp459
a(g159
g160
F0.7259
tp460
a(g136
g9
F0.9803
tp461
a(g8
g9
F0.9959
tp462
asI86
(lp463
(S'the'
p464
g29
F0.9982
tp465
a(S'cottage'
p466
g13
F0.9979
tp467
a(g15
g9
F0.9969
tp468
asI697
(lp469
(S'oh'
p470
g3
F0.9969
tp471
a(S"it's"
p472
g79
F0.9972
tp473
a(g88
g29
F0.9945
tp474
a(S'mushroom'
p475
g13
F0.9993
tp476
a(g3
g9
F0.9991
tp477
asI601
(lp478
(S'she'
p479
g51
F0.9969
tp480
a(S'ate'
p481
g39
F0.9983
tp482
a(S'like'
p483
g195
F0.8967
tp484
a(g88
g29
F0.9892
tp485
a(S'four'
p486
g378
F0.9534
tp487
a(S'year'
p488
g13
F0.6893
tp489
a(S'old'
p490
g21
F0.943
tp491
a(S"she's"
p492
g79
F0.9701
tp493
a(S'hiccoughing'
p494
g39
F0.3084
tp495
a(S'@d'
p496
S'@'
p497
F0.9971
tp498
a(S'and'
p499
g143
F0.999
tp500
a(S'burping'
p501
g39
F0.9918
tp502
a(S'at'
p503
g195
F0.999
tp504
a(S'the'
p505
g29
F0.9997
tp506
a(S'same'
p507
g21
F0.9968
tp508
a(S'time'
p509
g13
F0.9989
tp510
a(g143
g143
F0.9936
tp511
a(S'='
p512
g9
F0.9079
tp513
a(S'laughs'
p514
g39
F0.8992
tp515
a(g3
g9
F0.9973
tp516
asI90
(lp517
(S'college'
p518
g13
F0.9567
tp519
a(g8
g9
F0.9983
tp520
asI1039
(lp521
(S'one'
p522
g378
F0.9677
tp523
a(S'more'
p524
g21
F0.8945
tp525
a(g15
g9
F0.9965
tp526
asI93
(lp527
(S'college'
p528
g13
F0.9567
tp529
a(g8
g9
F0.9983
tp530
asI96
(lp531
(S'(..)'
p532
g9
F0.3642
tp533
a(S'is'
p534
g39
F0.9998
tp535
a(S'it'
p536
g51
F0.9797
tp537
a(S'hot'
p538
g21
F0.9795
tp539
a(g15
g9
F0.998
tp540
asI611
(lp541
(S'Mom'
p542
g13
F0.9095
tp543
a(g8
g9
F0.9981
tp544
asI100
(lp545
(S'yeah'
p546
g3
F0.9986
tp547
a(g8
g9
F0.997
tp548
asI614
(lp549
(g50
g51
F0.9498
tp550
a(S'dove'
p551
g39
F0.9469
tp552
a(S'over'
p553
g195
F0.3583
tp554
a(S'and'
p555
g143
F0.9965
tp556
a(S'under'
p557
g195
F0.967
tp558
a(g50
g51
F0.9976
tp559
a(S'[%'
p560
g39
F0.4627
tp561
a(S'act'
p562
g39
F0.8151
tp563
a(g512
g9
F0.8866
tp564
a(S'takes'
p565
g39
F0.9934
tp566
a(S'deep'
p567
g21
F0.9832
tp568
a(S'breath'
p569
g13
F0.9996
tp570
a(g136
g9
F0.9799
tp571
a(S'+'
p572
g143
F0.5117
tp573
a(S'...'
p574
g9
F0.5906
tp575
asI103
(lp576
(S'this'
p577
g51
F0.9526
tp578
a(S'is'
p579
g39
F0.9978
tp580
a(S'stickin(g'
p581
g21
F0.5824
tp582
a(g192
g9
F0.9978
tp583
a(S'together'
p584
g24
F0.8429
tp585
a(g8
g9
F0.9974
tp586
asI617
(lp587
(S'Mom'
p588
g13
F0.8271
tp589
a(g159
g160
F0.4089
tp590
a(g50
g51
F0.9965
tp591
a(g134
g39
F0.2842
tp592
a(S'[//]'
p593
g9
F0.4951
tp594
a(S'maybe'
p595
g24
F0.9847
tp596
a(g50
g51
F0.9989
tp597
a(S"don't"
p598
g39
F1.0
tp599
a(S'need'
p600
g39
F0.9998
tp601
a(g88
g29
F0.9978
tp602
a(S'bubble'
p603
g13
F0.6805
tp604
a(S'when'
p605
g24
F0.9808
tp606
a(g50
g51
F0.9985
tp607
a(S'went'
p608
g39
F0.9997
tp609
a(S'in'
p610
g195
F0.9207
tp611
a(S'there'
p612
g24
F0.7739
tp613
a(g8
g9
F0.9975
tp614
asI106
(lp615
(S'it'
p616
g51
F0.9979
tp617
a(S'is'
p618
g39
F0.9996
tp619
a(S'stickin(g'
p620
g21
F0.5824
tp621
a(g192
g9
F0.9978
tp622
a(S'together'
p623
g24
F0.9005
tp624
a(g15
g9
F0.9976
tp625
asI786
(lp626
(S'sure'
p627
g21
F0.865
tp628
a(g15
g9
F0.9967
tp629
asI622
(lp630
(S'yeah'
p631
g3
F0.9971
tp632
a(g50
g51
F0.9993
tp633
a(S'know'
p634
g39
F0.9999
tp635
a(S'you'
p636
g51
F0.9992
tp637
a(S"didn't"
p638
g39
F0.9999
tp639
a(S'need'
p640
g39
F0.9997
tp641
a(g88
g29
F0.998
tp642
a(S'bubble'
p643
g13
F0.775
tp644
a(g8
g9
F0.9988
tp645
asI111
(lp646
(S'yeah'
p647
g3
F0.9986
tp648
a(g8
g9
F0.997
tp649
asI114
(lp650
(S'Chi'
p651
g6
F0.8298
tp652
a(S"what's"
p653
g79
F0.9753
tp654
a(S'this'
p655
g51
F0.8419
tp656
a(g15
g9
F0.9984
tp657
asI627
(lp658
(S'is'
p659
g39
F0.998
tp660
a(S'the'
p661
g29
F0.9991
tp662
a(S'towel'
p663
g13
F0.9965
tp664
a(S'she'
p665
g51
F0.9904
tp666
a(S'had'
p667
g39
F0.9986
tp668
a(S'still'
p669
g24
F0.9926
tp670
a(S'there'
p671
g24
F0.9853
tp672
a(g15
g9
F0.9981
tp673
asI117
(lp674
(S"they're"
p675
g79
F0.7253
tp676
a(S'both'
p677
g51
F0.3296
tp678
a(S'xxx'
p679
g13
F0.3615
tp680
a(g8
g9
F0.9983
tp681
asI631
(lp682
(S'xxx'
p683
g42
F0.6884
tp684
a(S'hands'
p685
g13
F0.8773
tp686
a(S'off'
p687
S'T'
p688
F0.4502
tp689
a(S'on'
p690
g195
F0.8766
tp691
a(g8
g9
F0.9974
tp692
asI120
(lp693
(S'xxx'
p694
g42
F0.5822
tp695
a(g8
g9
F0.9648
tp696
asI121
(lp697
(S'what'
p698
g51
F0.9931
tp699
a(S'does'
p700
g39
F0.9997
tp701
a(S'it'
p702
g51
F0.9913
tp703
a(S'taste'
p704
g39
F0.9826
tp705
a(S'like'
p706
g195
F0.6363
tp707
a(g15
g9
F0.9934
tp708
asI634
(lp709
(g159
g160
F0.9001
tp710
a(S'you'
p711
g51
F0.9908
tp712
a(S"won't>"
p713
g39
F0.9317
tp714
a(g132
g9
F0.9817
tp715
a(g134
g42
F0.4438
tp716
a(g136
g9
F0.63
tp717
a(S'+/'
p718
g6
F0.1968
tp719
a(g8
g9
F0.9939
tp720
asI124
(lp721
(S'same'
p722
g21
F0.9822
tp723
a(S'as'
p724
g195
F0.9979
tp725
a(S'the'
p726
g29
F0.9993
tp727
a(S'other'
p728
g21
F0.993
tp729
a(S'stuff'
p730
g13
F0.9954
tp731
a(S'tasted'
p732
g39
F0.9895
tp733
a(g8
g9
F0.9981
tp734
asI637
(lp735
(S'xxx'
p736
g42
F0.8981
tp737
a(g132
g9
F0.6622
tp738
a(g159
g160
F0.9843
tp739
a(g136
g9
F0.99
tp740
a(S'on'
p741
g195
F0.9879
tp742
a(S'her'
p743
g51
F0.8457
tp744
a(S'left'
p745
g39
F0.6707
tp746
a(g8
g9
F0.9983
tp747
asI127
(lp748
(S'but'
p749
g143
F0.9922
tp750
a(S"it's"
p751
g79
F0.9962
tp752
a(S'good'
p753
g21
F0.9957
tp754
a(S'right'
p755
g24
F0.3946
tp756
a(S'Chi'
p757
g6
F0.9784
tp758
a(g15
g9
F0.9893
tp759
asI640
(lp760
(S'no'
p761
g3
F0.9704
tp762
a(g8
g9
F0.9989
tp763
asI131
(lp764
(S'mhm'
p765
g3
F0.9761
tp766
a(g8
g9
F0.9962
tp767
asI134
(lp768
(S'what'
p769
g51
F0.9965
tp770
a(S'did'
p771
g39
F0.9994
tp772
a(S'you'
p773
g51
F0.9994
tp774
a(S'do'
p775
g39
F0.9997
tp776
a(S'at'
p777
g195
F0.9974
tp778
a(S'the'
p779
g29
F0.9989
tp780
a(S'cottage'
p781
g13
F0.9967
tp782
a(g15
g9
F0.9977
tp783
asI649
(lp784
(S'xxx'
p785
g42
F0.5822
tp786
a(g8
g9
F0.9648
tp787
asI650
(lp788
(S"it's"
p789
g79
F0.9923
tp790
a(S'the'
p791
g29
F0.9967
tp792
a(S'brown'
p793
g21
F0.7686
tp794
a(S'one'
p795
g378
F0.7786
tp796
a(g15
g9
F0.9973
tp797
asI139
(lp798
(S'huh'
p799
g3
F0.9936
tp800
a(g15
g9
F0.9967
tp801
asI653
(lp802
(S'yes'
p803
g3
F0.9832
tp804
a(g132
g9
F0.9846
tp805
a(g134
g42
F0.3811
tp806
a(g136
g9
F0.7604
tp807
a(g8
g9
F0.9962
tp808
asI857
(lp809
(S'(..)'
p810
g42
F0.7187
tp811
a(S'where'
p812
g24
F0.954
tp813
a(S'should'
p814
g39
F0.9969
tp815
a(g50
g51
F0.9988
tp816
a(S'put'
p817
g39
F0.9995
tp818
a(S'this'
p819
g51
F0.783
tp820
a(g15
g9
F0.9984
tp821
asI143
(lp822
(g50
g51
F0.9978
tp823
a(S'painted'
p824
g39
F0.9701
tp825
a(g572
g32
F0.3656
tp826
a(S'...'
p827
g160
F0.6127
tp828
asI656
(lp829
(S'yeah'
p830
g3
F0.9951
tp831
a(g132
g9
F0.9843
tp832
a(g159
g160
F0.9843
tp833
a(g136
g9
F0.992
tp834
a(S'right'
p835
g24
F0.4698
tp836
a(S'over'
p837
g195
F0.96
tp838
a(S'there'
p839
g24
F0.8799
tp840
a(g8
g9
F0.9981
tp841
asI146
(lp842
(S'yeah'
p843
g3
F0.9951
tp844
a(g132
g9
F0.9838
tp845
a(g134
g42
F0.3811
tp846
a(g136
g9
F0.5836
tp847
a(g15
g9
F0.9963
tp848
asI659
(lp849
(S'xxx'
p850
g42
F0.5822
tp851
a(g8
g9
F0.9648
tp852
asI660
(lp853
(S"we'll"
p854
g79
F0.9651
tp855
a(S'give'
p856
g39
F0.9999
tp857
a(S'it'
p858
g51
F0.9875
tp859
a(S'to'
p860
g195
F0.9961
tp861
a(S'Chi'
p862
g6
F0.9781
tp863
a(g8
g9
F0.9852
tp864
asI150
(lp865
(S'<&='
p866
g6
F0.2832
tp867
a(S'laughs'
p868
g39
F0.9507
tp869
a(g134
g42
F0.3768
tp870
a(g132
g42
F0.4963
tp871
a(g159
g160
F0.7259
tp872
a(g136
g9
F0.9803
tp873
a(g8
g9
F0.9959
tp874
asI151
(lp875
(S'ow'
p876
g3
F0.9684
tp877
a(g8
g9
F0.9969
tp878
asI991
(lp879
(S'one'
p880
g378
F0.8885
tp881
a(g8
g9
F0.9971
tp882
asI154
(lp883
(S'what'
p884
g51
F0.9757
tp885
a(S'else'
p886
g24
F0.8472
tp887
a(g15
g9
F0.9976
tp888
asI669
(lp889
(S'Mom'
p890
g13
F0.7518
tp891
a(S"I'll"
p892
g79
F0.9837
tp893
a(S'be'
p894
g39
F0.9998
tp895
a(S'down'
p896
g24
F0.4086
tp897
a(S"Mike's"
p898
S'Z'
p899
F0.7922
tp900
a(S'again'
p901
g24
F0.9936
tp902
a(S'okay'
p903
g21
F0.5603
tp904
a(g15
g9
F0.9972
tp905
asI158
(lp906
(S'and'
p907
g143
F0.9987
tp908
a(S'[/]'
p909
g9
F0.1903
tp910
a(S'(..)'
p911
g9
F0.4746
tp912
a(S'and'
p913
g143
F0.9989
tp914
a(S'[//]'
p915
g9
F0.1898
tp916
a(S'(..)'
p917
g42
F0.4106
tp918
a(S'hot'
p919
g21
F0.9443
tp920
a(g3
g9
F0.9989
tp921
asI162
(lp922
(S'blow'
p923
g13
F0.8305
tp924
a(S'on'
p925
g195
F0.9953
tp926
a(S'it'
p927
g51
F0.9943
tp928
a(S'Chi'
p929
g6
F0.9195
tp930
a(g8
g9
F0.99
tp931
asI165
(lp932
(S'and'
p933
g143
F0.9988
tp934
a(S'what'
p935
g51
F0.9926
tp936
a(S'else'
p937
g24
F0.8864
tp938
a(S'did'
p939
g39
F0.9991
tp940
a(S'you'
p941
g51
F0.9994
tp942
a(S'do'
p943
g39
F0.9997
tp944
a(S'at'
p945
g195
F0.9974
tp946
a(S'the'
p947
g29
F0.9911
tp948
a(S'xxx'
p949
g13
F0.7345
tp950
a(g15
g9
F0.9976
tp951
asI681
(lp952
(S'no'
p953
g3
F0.9704
tp954
a(g8
g9
F0.9989
tp955
asI171
(lp956
(S'&-um'
p957
g3
F0.9213
tp958
a(g50
g51
F0.999
tp959
a(S'had'
p960
g39
F0.9997
tp961
a(S'cherries'
p962
g13
F0.9786
tp963
a(g572
g143
F0.3978
tp964
a(S'...'
p965
g9
F0.5547
tp966
asI684
(lp967
(S'he'
p968
g51
F0.985
tp969
a(S'[/]'
p970
g39
F0.3985
tp971
a(S'he'
p972
g51
F0.9982
tp973
a(S"didn't"
p974
g39
F0.9999
tp975
a(S'+/'
p976
g39
F0.3823
tp977
a(g8
g9
F0.9964
tp978
asI174
(lp979
(S'yeah'
p980
g3
F0.9988
tp981
a(g15
g9
F0.9966
tp982
asI687
(lp983
(S'he'
p984
g51
F0.996
tp985
a(S'had'
p986
g39
F0.9995
tp987
a(S'just'
p988
g24
F0.9968
tp989
a(S'xxx'
p990
g42
F0.4611
tp991
a(g8
g9
F0.9688
tp992
asI700
(lp993
(S'you'
p994
g51
F0.9923
tp995
a(S'like'
p996
g39
F0.7127
tp997
a(S'mushrooms'
p998
g13
F0.9958
tp999
a(S'huh'
p1000
g3
F0.8492
tp1001
a(g15
g9
F0.998
tp1002
asI1058
(lp1003
(S'no'
p1004
g3
F0.9704
tp1005
a(g8
g9
F0.9989
tp1006
asI178
(lp1007
(S'and'
p1008
g143
F0.9981
tp1009
a(S'xxx'
p1010
g42
F0.7295
tp1011
a(g132
g9
F0.6403
tp1012
a(g134
g42
F0.5453
tp1013
a(g136
g9
F0.7789
tp1014
a(g8
g9
F0.995
tp1015
asI693
(lp1016
(S'what'
p1017
g51
F0.9962
tp1018
a(S'is'
p1019
g39
F0.9997
tp1020
a(S'it'
p1021
g51
F0.9974
tp1022
a(g15
g9
F0.999
tp1023
asI182
(lp1024
(g159
g160
F0.9617
tp1025
a(S"what's"
p1026
g79
F0.9918
tp1027
a(S'she'
p1028
g51
F0.9962
tp1029
a(g134
g42
F0.428
tp1030
a(g132
g42
F0.535
tp1031
a(g159
g160
F0.8293
tp1032
a(g136
g9
F0.9868
tp1033
a(S'talking'
p1034
g39
F0.9913
tp1035
a(S'about'
p1036
g195
F0.7899
tp1037
a(g15
g9
F0.9955
tp1038
asI185
(lp1039
(S'the'
p1040
g29
F0.9982
tp1041
a(S'cottage'
p1042
g13
F0.9994
tp1043
a(g8
g9
F0.9985
tp1044
asI543
(lp1045
(S'huh'
p1046
g3
F0.9936
tp1047
a(g15
g9
F0.9967
tp1048
asI188
(lp1049
(S'the'
p1050
g29
F0.9988
tp1051
a(S'game'
p1052
g13
F0.9968
tp1053
a(S'xxx'
p1054
g13
F0.4332
tp1055
a(g8
g9
F0.9983
tp1056
asI949
(lp1057
(S'one'
p1058
g378
F0.9452
tp1059
a(S'(.)'
p1060
g42
F0.5472
tp1061
a(S'two'
p1062
g378
F0.9321
tp1063
a(g8
g9
F0.9976
tp1064
asI191
(lp1065
(S'&-uh'
p1066
g3
F0.9554
tp1067
a(S'yeah'
p1068
g3
F0.9989
tp1069
a(g8
g9
F0.9975
tp1070
asI704
(lp1071
(S'it'
p1072
g51
F0.9979
tp1073
a(S'is'
p1074
g39
F0.9998
tp1075
a(g88
g29
F0.9978
tp1076
a(S'mushroom'
p1077
g13
F0.9992
tp1078
a(g8
g9
F0.9987
tp1079
asI195
(lp1080
(S'great'
p1081
g21
F0.9947
tp1082
a(S'stuff'
p1083
g13
F0.9988
tp1084
a(g8
g9
F0.9986
tp1085
asI198
(lp1086
(g159
g160
F0.9001
tp1087
a(S'you'
p1088
g51
F0.9972
tp1089
a(S'gotta'
p1090
g39
F0.9997
tp1091
a(S'be'
p1092
g39
F0.9981
tp1093
a(S'gettin(g)'
p1094
g39
F0.9113
tp1095
a(g134
g32
F0.2797
tp1096
a(S'[//]'
p1097
g32
F0.2582
tp1098
a(S"I'm"
p1099
g79
F0.9964
tp1100
a(S'tryin(g'
p1101
g39
F0.829
tp1102
a(g192
g9
F0.9918
tp1103
a(S'ta'
p1104
g195
F0.9885
tp1105
a(S'get'
p1106
g39
F0.9976
tp1107
a(S'the'
p1108
g29
F0.9994
tp1109
a(S'tire'
p1110
g13
F0.9962
tp1111
a(S'off'
p1112
g195
F0.4223
tp1113
a(S'and'
p1114
g143
F0.9991
tp1115
a(g50
g51
F0.9989
tp1116
a(S"can't"
p1117
g39
F0.9999
tp1118
a(S'get'
p1119
g39
F1.0
tp1120
a(S'it'
p1121
g51
F0.992
tp1122
a(g8
g9
F0.9979
tp1123
asI713
(lp1124
(S'yyy'
p1125
g3
F0.3916
tp1126
a(S'yyy'
p1127
g24
F0.4392
tp1128
a(g8
g9
F0.9952
tp1129
asI714
(lp1130
(S'(..)'
p1131
g42
F0.3605
tp1132
a(S'want'
p1133
g39
F0.9982
tp1134
a(S'some'
p1135
g29
F0.5744
tp1136
a(g15
g9
F0.9959
tp1137
asI203
(lp1138
(S'who'
p1139
g51
F0.994
tp1140
a(S'shut'
p1141
g39
F0.9962
tp1142
a(S'off'
p1143
g688
F0.9345
tp1144
a(g8
g9
F0.998
tp1145
asI717
(lp1146
(S'no'
p1147
g3
F0.8389
tp1148
a(g132
g9
F0.9933
tp1149
a(g134
g42
F0.3811
tp1150
a(g136
g9
F0.7604
tp1151
a(g8
g9
F0.9962
tp1152
asI207
(lp1153
(S'did'
p1154
g39
F0.9986
tp1155
a(S'you'
p1156
g51
F0.9984
tp1157
a(S'go'
p1158
g39
F0.9959
tp1159
a(S'swimmin(g'
p1160
g13
F0.8481
tp1161
a(g192
g9
F0.995
tp1162
a(S'at'
p1163
g195
F0.9991
tp1164
a(S'the'
p1165
g29
F0.9993
tp1166
a(S'cottage'
p1167
g13
F0.9969
tp1168
a(g15
g9
F0.9979
tp1169
asI720
(lp1170
(S'xxx'
p1171
g42
F0.8981
tp1172
a(g132
g9
F0.6622
tp1173
a(g159
g160
F0.972
tp1174
a(g136
g9
F0.9847
tp1175
a(g8
g9
F0.9962
tp1176
asI721
(lp1177
(g143
g143
F0.9893
tp1178
a(g512
g9
F0.8669
tp1179
a(S'laughs'
p1180
g39
F0.8696
tp1181
a(g8
g9
F0.9983
tp1182
asI722
(lp1183
(S'say'
p1184
g39
F0.908
tp1185
a(S'yyy'
p1186
g24
F0.6222
tp1187
a(g8
g9
F0.9952
tp1188
asI213
(lp1189
(S'yep'
p1190
g3
F0.9972
tp1191
a(g8
g9
F0.9971
tp1192
asI216
(lp1193
(S'what'
p1194
g51
F0.9777
tp1195
a(g159
g160
F0.6861
tp1196
a(S'else'
p1197
g24
F0.9053
tp1198
a(S'did'
p1199
g39
F0.9991
tp1200
a(S'you'
p1201
g51
F0.9994
tp1202
a(S'do'
p1203
g39
F0.9994
tp1204
a(g134
g42
F0.6345
tp1205
a(g132
g42
F0.5345
tp1206
a(g134
g42
F0.9577
tp1207
a(g136
g9
F0.6335
tp1208
a(g15
g9
F0.9962
tp1209
asI731
(lp1210
(S'are'
p1211
g39
F0.9931
tp1212
a(S'these'
p1213
g51
F0.6892
tp1214
a(S'done'
p1215
g39
F0.9271
tp1216
a(g15
g9
F0.9988
tp1217
asI220
(lp1218
(g159
g160
F0.9346
tp1219
a(S'did'
p1220
g39
F0.9993
tp1221
a(S'you'
p1222
g51
F0.9958
tp1223
a(S'jump'
p1224
g39
F0.9508
tp1225
a(g134
g42
F0.6439
tp1226
a(g132
g42
F0.535
tp1227
a(g159
g160
F0.7057
tp1228
a(g136
g9
F0.9741
tp1229
a(g15
g9
F0.9965
tp1230
asI734
(lp1231
(S'are'
p1232
g39
F0.9948
tp1233
a(S'mine'
p1234
g51
F0.9757
tp1235
a(S'done'
p1236
g39
F0.9506
tp1237
a(g15
g9
F0.9988
tp1238
asI223
(lp1239
(S'did'
p1240
g39
F0.9986
tp1241
a(S'you'
p1242
g51
F0.9948
tp1243
a(S'jump'
p1244
g39
F0.9847
tp1245
a(S'in'
p1246
g195
F0.8662
tp1247
a(S'xxx'
p1248
g13
F0.3682
tp1249
a(g15
g9
F0.9971
tp1250
asI962
(lp1251
(S'xxx'
p1252
g42
F0.5822
tp1253
a(g8
g9
F0.9648
tp1254
asI737
(lp1255
(S'yeah'
p1256
g3
F0.9986
tp1257
a(g8
g9
F0.997
tp1258
asI226
(lp1259
(g50
g51
F0.9976
tp1260
a(S"can't"
p1261
g39
F1.0
tp1262
a(S'sit'
p1263
g39
F0.9992
tp1264
a(S'on'
p1265
g195
F0.9229
tp1266
a(S'you'
p1267
g51
F0.9982
tp1268
a(g15
g9
F0.9993
tp1269
asI740
(lp1270
(S'almost'
p1271
g24
F0.9832
tp1272
a(g8
g9
F0.9966
tp1273
asI229
(lp1274
(S'no'
p1275
g3
F0.7985
tp1276
a(S'you'
p1277
g51
F0.9952
tp1278
a(S'go'
p1279
g39
F0.9938
tp1280
a(S't_t'
p1281
g42
F0.3435
tp1282
a(S'o'
p1283
g195
F0.3153
tp1284
a(g143
g143
F0.9878
tp1285
a(g512
g9
F0.8799
tp1286
a(S'laughs'
p1287
g39
F0.9524
tp1288
a(S'xxx'
p1289
g42
F0.3468
tp1290
a(S'give'
p1291
g39
F0.9902
tp1292
a(S'to'
p1293
g195
F0.9916
tp1294
a(S'you'
p1295
g51
F0.9985
tp1296
a(S'xxx'
p1297
g39
F0.7121
tp1298
a(S'eat'
p1299
g39
F0.9974
tp1300
a(S'it'
p1301
g51
F0.9875
tp1302
a(g8
g9
F0.9992
tp1303
asI743
(lp1304
(S'oh'
p1305
g3
F0.9878
tp1306
a(S'you'
p1307
g51
F0.9939
tp1308
a(S"didn't"
p1309
g39
F1.0
tp1310
a(S'put'
p1311
g39
F0.9994
tp1312
a(S'the'
p1313
g29
F0.9996
tp1314
a(S'dryer'
p1315
g13
F0.99
tp1316
a(S'on'
p1317
g195
F0.9833
tp1318
a(g8
g9
F0.9971
tp1319
asI1036
(lp1320
(g50
g51
F0.9983
tp1321
a(S'guess'
p1322
g39
F0.9995
tp1323
a(S'so'
p1324
g24
F0.8469
tp1325
a(g8
g9
F0.9966
tp1326
asI235
(lp1327
(S'xxx'
p1328
g42
F0.5741
tp1329
a(S'your'
p1330
g29
F0.7083
tp1331
a(S'Mot'
p1332
g13
F0.8277
tp1333
a(g8
g9
F0.9972
tp1334
asI748
(lp1335
(S'are'
p1336
g39
F0.9964
tp1337
a(S'you'
p1338
g51
F0.9985
tp1339
a(S'sure'
p1340
g21
F0.9492
tp1341
a(g15
g9
F0.9973
tp1342
asI946
(lp1343
(S'eat'
p1344
g39
F0.725
tp1345
a(S'('
p1346
g9
F0.9923
tp1347
a(S'th)em'
p1348
g29
F0.4279
tp1349
a(S'slow'
p1350
g21
F0.8357
tp1351
a(g8
g9
F0.9987
tp1352
asI238
(lp1353
(S'huh'
p1354
g3
F0.9936
tp1355
a(g15
g9
F0.9967
tp1356
asI751
(lp1357
(S'yes'
p1358
g3
F0.9961
tp1359
a(g8
g9
F0.9972
tp1360
asI242
(lp1361
(S'what'
p1362
g51
F0.9909
tp1363
a(S'd(id'
p1364
g39
F0.7767
tp1365
a(g192
g9
F0.9836
tp1366
a(S'the'
p1367
g29
F0.9986
tp1368
a(S'doctor'
p1369
g13
F0.9978
tp1370
a(S'do'
p1371
g39
F0.9969
tp1372
a(S'with'
p1373
g195
F0.9987
tp1374
a(S'the'
p1375
g29
F0.9993
tp1376
a(S'froggy'
p1377
g21
F0.7005
tp1378
a(g15
g9
F0.9968
tp1379
asI757
(lp1380
(g159
g160
F0.9368
tp1381
a(S'pick'
p1382
g39
F0.9967
tp1383
a(S'up'
p1384
g688
F0.9803
tp1385
a(g134
g9
F0.2832
tp1386
a(S'[//]'
p1387
g9
F0.2709
tp1388
a(S'pull'
p1389
g39
F0.9742
tp1390
a(S'out'
p1391
g688
F0.9188
tp1392
a(S'that'
p1393
g29
F0.6785
tp1394
a(S'big'
p1395
g21
F0.9737
tp1396
a(S'towel'
p1397
g13
F0.9987
tp1398
a(g8
g9
F0.9984
tp1399
asI707
(lp1400
(S'well'
p1401
g3
F0.7958
tp1402
a(S'then'
p1403
g24
F0.9714
tp1404
a(S'eat'
p1405
g39
F0.9968
tp1406
a(S'it'
p1407
g51
F0.9872
tp1408
a(g8
g9
F0.9989
tp1409
asI690
(lp1410
(S"it's"
p1411
g79
F0.9887
tp1412
a(S'soggy'
p1413
g21
F0.9968
tp1414
a(g8
g9
F0.9985
tp1415
asI248
(lp1416
(S'he'
p1417
g51
F0.9821
tp1418
a(S'(.)'
p1419
g32
F0.2664
tp1420
a(S'&-um'
p1421
g32
F0.7119
tp1422
a(S'Bro'
p1423
g13
F0.7859
tp1424
a(S'caught'
p1425
g39
F0.993
tp1426
a(S'the'
p1427
g29
F0.9942
tp1428
a(S'[/]'
p1429
g6
F0.2431
tp1430
a(S'the'
p1431
g29
F0.9973
tp1432
a(S'fish'
p1433
g13
F0.9947
tp1434
a(S'[/]'
p1435
g9
F0.4235
tp1436
a(S'fishy'
p1437
g21
F0.9167
tp1438
a(g15
g9
F0.9943
tp1439
asI763
(lp1440
(S'no'
p1441
g3
F0.9704
tp1442
a(g8
g9
F0.9989
tp1443
asI252
(lp1444
(S'yeah'
p1445
g3
F0.9988
tp1446
a(g15
g9
F0.9966
tp1447
asI766
(lp1448
(g159
g160
F0.925
tp1449
a(S'we'
p1450
g51
F0.9973
tp1451
a(S'have_to'
p1452
g39
F0.9988
tp1453
a(g134
g32
F0.2713
tp1454
a(S'[/]'
p1455
g32
F0.441
tp1456
a(g159
g160
F0.9049
tp1457
a(S'we'
p1458
g51
F0.9974
tp1459
a(S'have_to'
p1460
g39
F0.9986
tp1461
a(g134
g32
F0.3128
tp1462
a(S'[//]'
p1463
g32
F0.2876
tp1464
a(S'no'
p1465
g24
F0.5143
tp1466
a(S'more'
p1467
g21
F0.9149
tp1468
a(S'supper'
p1469
g13
F0.9961
tp1470
a(g50
g51
F0.9904
tp1471
a(S"don't"
p1472
g39
F1.0
tp1473
a(S'want'
p1474
g39
F0.9998
tp1475
a(S'eat'
p1476
g39
F0.9848
tp1477
a(g88
g29
F0.986
tp1478
a(S'(.)'
p1479
g21
F0.2852
tp1480
a(S'one'
p1481
g378
F0.9033
tp1482
a(g8
g9
F0.9956
tp1483
asI725
(lp1484
(S'will'
p1485
g39
F0.9979
tp1486
a(S'you'
p1487
g51
F0.9986
tp1488
a(S'cut'
p1489
g39
F0.6772
tp1490
a(g1346
g9
F0.9915
tp1491
a(S'th)em'
p1492
g51
F0.5918
tp1493
a(g15
g9
F0.997
tp1494
asI256
(lp1495
(S'and'
p1496
g143
F0.9985
tp1497
a(S'Bro'
p1498
g13
F0.9166
tp1499
a(S'caught'
p1500
g39
F0.9943
tp1501
a(S'the'
p1502
g29
F0.9948
tp1503
a(S'&-um'
p1504
g32
F0.7637
tp1505
a(S'the'
p1506
g29
F0.9976
tp1507
a(S'birdie'
p1508
g13
F0.9974
tp1509
a(g8
g9
F0.9983
tp1510
asI1004
(lp1511
(S'xxx'
p1512
g42
F0.7103
tp1513
a(g15
g9
F0.9715
tp1514
asI771
(lp1515
(S'right'
p1516
g3
F0.7325
tp1517
a(g15
g9
F0.9985
tp1518
asI260
(lp1519
(S'how'
p1520
g24
F0.9782
tp1521
a(S'come'
p1522
g39
F0.9627
tp1523
a(g15
g9
F0.9977
tp1524
asI775
(lp1525
(S'what'
p1526
g51
F0.9171
tp1527
a(g15
g9
F0.9924
tp1528
asI264
(lp1529
(S'mhm'
p1530
g3
F0.9761
tp1531
a(g8
g9
F0.9962
tp1532
asI267
(lp1533
(S"that's"
p1534
g79
F0.9953
tp1535
a(S'right'
p1536
g21
F0.5457
tp1537
a(S'you'
p1538
g51
F0.9974
tp1539
a(S'went'
p1540
g39
F0.9981
tp1541
a(S'after'
p1542
g195
F0.9863
tp1543
a(S'the'
p1544
g29
F0.9961
tp1545
a(S'frog'
p1546
g13
F0.9978
tp1547
a(S'that'
p1548
g195
F0.7601
tp1549
a(S'was'
p1550
g39
F0.9976
tp1551
a(S'on'
p1552
g195
F0.9767
tp1553
a(S'the'
p1554
g29
F0.9917
tp1555
a(S'xxx'
p1556
g13
F0.4808
tp1557
a(S'huh'
p1558
g3
F0.9405
tp1559
a(g15
g9
F0.9988
tp1560
asI783
(lp1561
(S'no'
p1562
g3
F0.9704
tp1563
a(g8
g9
F0.9989
tp1564
asI728
(lp1565
(S"they're"
p1566
g79
F0.9698
tp1567
a(S'not'
p1568
g24
F0.998
tp1569
a(S'done'
p1570
g39
F0.9897
tp1571
a(S'yet'
p1572
g24
F0.9655
tp1573
a(g8
g9
F0.9984
tp1574
asI274
(lp1575
(S'yep'
p1576
g3
F0.9972
tp1577
a(g8
g9
F0.9971
tp1578
asI643
(lp1579
(S'Chi'
p1580
g6
F0.8014
tp1581
a(S"where's"
p1582
g79
F0.9237
tp1583
a(S'the'
p1584
g29
F0.9988
tp1585
a(S'towel'
p1586
g13
F0.9977
tp1587
a(g15
g9
F0.9984
tp1588
asI1065
(lp1589
(S"I'm"
p1590
g79
F0.9967
tp1591
a(S'done'
p1592
g39
F0.7645
tp1593
a(g3
g9
F0.9987
tp1594
asI277
(lp1595
(S'xxx'
p1596
g42
F0.7525
tp1597
a(S'(.)'
p1598
g42
F0.8224
tp1599
a(S'had'
p1600
g39
F0.9633
tp1601
a(g1346
g9
F0.9918
tp1602
a(S'be)cause'
p1603
g195
F0.9986
tp1604
a(S'he'
p1605
g51
F0.9984
tp1606
a(g132
g9
F0.9758
tp1607
a(g134
g42
F0.4438
tp1608
a(g136
g9
F0.79
tp1609
a(S'+/'
p1610
g6
F0.1845
tp1611
a(g8
g9
F0.9943
tp1612
asI790
(lp1613
(g88
g29
F0.9924
tp1614
a(S'lot'
p1615
g13
F0.6194
tp1616
a(S'more'
p1617
g21
F0.4793
tp1618
a(g8
g9
F0.9986
tp1619
asI884
(lp1620
(S'all'
p1621
g29
F0.7806
tp1622
a(S'done'
p1623
g21
F0.6726
tp1624
a(g15
g9
F0.9972
tp1625
asI280
(lp1626
(S'how'
p1627
g24
F0.9747
tp1628
a(g132
g9
F0.973
tp1629
a(g159
g160
F0.9843
tp1630
a(g136
g9
F0.9909
tp1631
a(g143
g143
F0.9942
tp1632
a(g512
g9
F0.8799
tp1633
a(S'laughs'
p1634
g39
F0.9513
tp1635
a(g572
g143
F0.3569
tp1636
a(S'...'
p1637
g9
F0.6222
tp1638
asI793
(lp1639
(S'(..)'
p1640
g42
F0.5556
tp1641
a(S'what'
p1642
g51
F0.8146
tp1643
a(S'big'
p1644
g21
F0.9735
tp1645
a(S'towel'
p1646
g13
F0.9991
tp1647
a(g15
g9
F0.9984
tp1648
asI981
(lp1649
(S'yeah'
p1650
g3
F0.9986
tp1651
a(g8
g9
F0.997
tp1652
asI283
(lp1653
(g1346
g9
F0.9736
tp1654
a(S'be)cause'
p1655
g195
F0.987
tp1656
a(S'+/'
p1657
g6
F0.3729
tp1658
a(g8
g9
F0.9943
tp1659
asI797
(lp1660
(S'oh'
p1661
g3
F0.9942
tp1662
a(g159
g160
F0.8413
tp1663
a(g50
g51
F0.9965
tp1664
a(g134
g39
F0.2842
tp1665
a(S'[/]'
p1666
g9
F0.4145
tp1667
a(g50
g51
F0.9984
tp1668
a(S'got'
p1669
g39
F0.9999
tp1670
a(S'it'
p1671
g51
F0.9904
tp1672
a(g8
g9
F0.9991
tp1673
asI286
(lp1674
(S'are'
p1675
g39
F0.9931
tp1676
a(S'these'
p1677
g51
F0.6527
tp1678
a(S'the'
p1679
g29
F0.9988
tp1680
a(S'same'
p1681
g21
F0.995
tp1682
a(S'things'
p1683
g13
F0.9987
tp1684
a(g15
g9
F0.9979
tp1685
asI800
(lp1686
(S'one'
p1687
g378
F0.8885
tp1688
a(g8
g9
F0.9971
tp1689
asI289
(lp1690
(S'yeah'
p1691
g3
F0.9986
tp1692
a(g8
g9
F0.997
tp1693
asI803
(lp1694
(S'Mom'
p1695
g13
F0.6882
tp1696
a(S'how'
p1697
g24
F0.9985
tp1698
a(S'long'
p1699
g21
F0.9362
tp1700
a(S'does'
p1701
g39
F0.9881
tp1702
a(S'it'
p1703
g51
F0.9961
tp1704
a(S'take'
p1705
g39
F0.9986
tp1706
a(S'for'
p1707
g195
F0.9892
tp1708
a(S'this'
p1709
g29
F0.9812
tp1710
a(S'stuff'
p1711
g13
F0.9981
tp1712
a(S'to'
p1713
g195
F0.9989
tp1714
a(S'wash'
p1715
g39
F0.7109
tp1716
a(g15
g9
F0.9954
tp1717
asI292
(lp1718
(S'like'
p1719
g195
F0.7839
tp1720
a(S'xxx'
p1721
g42
F0.6173
tp1722
a(g132
g9
F0.6403
tp1723
a(g134
g42
F0.5453
tp1724
a(g136
g9
F0.7789
tp1725
a(g8
g9
F0.995
tp1726
asI646
(lp1727
(S'is'
p1728
g39
F0.9993
tp1729
a(S'it'
p1730
g51
F0.9904
tp1731
a(g88
g29
F0.9783
tp1732
a(S'brown'
p1733
g21
F0.968
tp1734
a(S'one'
p1735
g378
F0.8158
tp1736
a(g15
g9
F0.9959
tp1737
asI295
(lp1738
(g159
g160
F0.937
tp1739
a(S'go'
p1740
g39
F0.9788
tp1741
a(S'ahead'
p1742
g24
F0.9515
tp1743
a(g134
g42
F0.6075
tp1744
a(g132
g42
F0.535
tp1745
a(g159
g160
F0.8293
tp1746
a(g136
g9
F0.9728
tp1747
a(S'Chi'
p1748
g6
F0.908
tp1749
a(g8
g9
F0.993
tp1750
asI809
(lp1751
(g50
g51
F0.9983
tp1752
a(S'mean'
p1753
g39
F0.9918
tp1754
a(S'dry'
p1755
g21
F0.9389
tp1756
a(g15
g9
F0.9974
tp1757
asI298
(lp1758
(g50
g51
F0.9937
tp1759
a(g159
g160
F0.7976
tp1760
a(S'had'
p1761
g39
F0.9945
tp1762
a(S'first'
p1763
g21
F0.9161
tp1764
a(g134
g42
F0.4931
tp1765
a(g132
g42
F0.5345
tp1766
a(g134
g42
F0.9732
tp1767
a(g136
g9
F0.6181
tp1768
a(g3
g9
F0.9975
tp1769
asI812
(lp1770
(S"it'll"
p1771
g79
F0.9979
tp1772
a(S'be'
p1773
g39
F0.9996
tp1774
a(S'dry'
p1775
g21
F0.9085
tp1776
a(S'before'
p1777
g195
F0.9721
tp1778
a(S'six'
p1779
g378
F0.5257
tp1780
a(S'thirty'
p1781
g21
F0.4927
tp1782
a(S'Bro'
p1783
g13
F0.9916
tp1784
a(g8
g9
F0.9988
tp1785
asI301
(lp1786
(S'xxx'
p1787
g42
F0.8981
tp1788
a(g132
g9
F0.6622
tp1789
a(g159
g160
F0.9843
tp1790
a(g136
g9
F0.9891
tp1791
a(S'go'
p1792
g39
F0.9887
tp1793
a(S'first'
p1794
g24
F0.7461
tp1795
a(g8
g9
F0.9982
tp1796
asI304
(lp1797
(S"she's"
p1798
g79
F0.9891
tp1799
a(S'tryin(g'
p1800
g39
F0.7467
tp1801
a(g192
g9
F0.9925
tp1802
a(S'to'
p1803
g195
F0.9943
tp1804
a(S'tell'
p1805
g39
F0.9998
tp1806
a(S'me'
p1807
g51
F0.9991
tp1808
a(S'somethin(g'
p1809
g13
F0.967
tp1810
a(g192
g9
F0.9914
tp1811
a(g8
g9
F0.9968
tp1812
asI817
(lp1813
(S'one'
p1814
g378
F0.8715
tp1815
a(g15
g9
F0.9955
tp1816
asI308
(lp1817
(S'go'
p1818
g39
F0.9625
tp1819
a(S'ahead'
p1820
g24
F0.9014
tp1821
a(S'Chi'
p1822
g6
F0.9191
tp1823
a(g8
g9
F0.9901
tp1824
asI821
(lp1825
(S'(..)'
p1826
g42
F0.5824
tp1827
a(S'one'
p1828
g378
F0.8479
tp1829
a(g15
g9
F0.9957
tp1830
asI311
(lp1831
(S'&-um'
p1832
g3
F0.7959
tp1833
a(S'(.)'
p1834
g42
F0.2923
tp1835
a(S'then'
p1836
g24
F0.9757
tp1837
a(S'(.)'
p1838
g32
F0.3506
tp1839
a(g572
g32
F0.8063
tp1840
a(S'...'
p1841
g160
F0.7255
tp1842
asI826
(lp1843
(S'one'
p1844
g378
F0.9677
tp1845
a(S'more'
p1846
g21
F0.8945
tp1847
a(g15
g9
F0.9965
tp1848
asI315
(lp1849
(S'they'
p1850
g51
F0.9962
tp1851
a(S'did'
p1852
g39
F1.0
tp1853
a(S'it'
p1854
g51
F0.9903
tp1855
a(S'after'
p1856
g195
F0.9766
tp1857
a(S'me'
p1858
g51
F0.9996
tp1859
a(g8
g9
F0.998
tp1860
asI318
(lp1861
(S'yeah'
p1862
g3
F0.9971
tp1863
a(g50
g51
F0.9989
tp1864
a(S'hear'
p1865
g39
F0.9928
tp1866
a(S'xxx'
p1867
g42
F0.7349
tp1868
a(g132
g9
F0.6588
tp1869
a(g134
g42
F0.6043
tp1870
a(g136
g9
F0.7541
tp1871
a(g8
g9
F0.9962
tp1872
asI321
(lp1873
(g159
g160
F0.936
tp1874
a(S'Chi'
p1875
g6
F0.8407
tp1876
a(g134
g6
F0.3311
tp1877
a(g132
g9
F0.9714
tp1878
a(g159
g160
F0.9635
tp1879
a(g136
g9
F0.9822
tp1880
a(S'want'
p1881
g39
F0.9992
tp1882
a(g88
g29
F0.9972
tp1883
a(S'mushroom'
p1884
g13
F0.9989
tp1885
a(g15
g9
F0.9977
tp1886
asI324
(lp1887
(S'xxx'
p1888
g42
F0.5309
tp1889
a(S'my'
p1890
g29
F0.9914
tp1891
a(S'plate'
p1892
g13
F0.9995
tp1893
a(g8
g9
F0.9983
tp1894
asI837
(lp1895
(S'(.)'
p1896
g42
F0.3154
tp1897
a(S'yeah'
p1898
g3
F0.9953
tp1899
a(g8
g9
F0.9975
tp1900
asI327
(lp1901
(S'huh'
p1902
g3
F0.9936
tp1903
a(g15
g9
F0.9967
tp1904
asI840
(lp1905
(S'one'
p1906
g378
F0.8715
tp1907
a(g15
g9
F0.9955
tp1908
asI330
(lp1909
(g159
g160
F0.9129
tp1910
a(S"where's"
p1911
g79
F0.9409
tp1912
a(S'my'
p1913
g29
F0.9123
tp1914
a(g134
g32
F0.3775
tp1915
a(S'[/]'
p1916
g9
F0.2907
tp1917
a(S"where's"
p1918
g79
F0.9289
tp1919
a(S'my'
p1920
g29
F0.9592
tp1921
a(S'&-um'
p1922
g32
F0.6732
tp1923
a(S'(.)'
p1924
g32
F0.7661
tp1925
a(S'my'
p1926
g29
F0.9857
tp1927
a(S'roll'
p1928
g13
F0.984
tp1929
a(g15
g9
F0.9943
tp1930
asI844
(lp1931
(S'(..)'
p1932
g42
F0.6911
tp1933
a(S'two'
p1934
g378
F0.9077
tp1935
a(g15
g9
F0.9951
tp1936
asI994
(lp1937
(S'(..)'
p1938
g42
F0.6911
tp1939
a(S'three'
p1940
g378
F0.8904
tp1941
a(g8
g9
F0.9973
tp1942
asI334
(lp1943
(S'your'
p1944
g29
F0.4445
tp1945
a(S'what'
p1946
g51
F0.9384
tp1947
a(g15
g9
F0.9924
tp1948
asI909
(lp1949
(S'why'
p1950
g24
F0.9496
tp1951
a(S'not'
p1952
g24
F0.9933
tp1953
a(g15
g9
F0.9947
tp1954
asI710
(lp1955
(S'mm'
p1956
g3
F0.5842
tp1957
a(g8
g9
F0.9932
tp1958
asI338
(lp1959
(S'look'
p1960
g39
F0.713
tp1961
a(g3
g9
F0.9975
tp1962
asI851
(lp1963
(g159
g160
F0.9093
tp1964
a(S'where'
p1965
g24
F0.9493
tp1966
a(S'should'
p1967
g39
F0.9872
tp1968
a(g134
g42
F0.4972
tp1969
a(g132
g42
F0.535
tp1970
a(g159
g160
F0.8293
tp1971
a(g136
g9
F0.9836
tp1972
a(S'+/'
p1973
g6
F0.1842
tp1974
a(g8
g9
F0.9959
tp1975
asI341
(lp1976
(S'one'
p1977
g378
F0.9869
tp1978
a(S'of'
p1979
g195
F0.9987
tp1980
a(S'these'
p1981
g51
F0.5233
tp1982
a(g15
g9
F0.9983
tp1983
asI854
(lp1984
(S'where'
p1985
g24
F0.956
tp1986
a(S'should'
p1987
g39
F0.996
tp1988
a(g50
g51
F0.999
tp1989
a(S'put'
p1990
g39
F0.9989
tp1991
a(S'this'
p1992
g51
F0.756
tp1993
a(g15
g9
F0.9981
tp1994
asI345
(lp1995
(S'yeah'
p1996
g3
F0.9986
tp1997
a(g8
g9
F0.997
tp1998
asI348
(lp1999
(S'meatball'
p2000
g13
F0.777
tp2001
a(g8
g9
F0.9985
tp2002
asI351
(lp2003
(S'yeah'
p2004
g3
F0.9986
tp2005
a(g8
g9
F0.997
tp2006
asI864
(lp2007
(S'what'
p2008
g51
F0.988
tp2009
a(S'happened'
p2010
g39
F0.9981
tp2011
a(S'to'
p2012
g195
F0.9807
tp2013
a(S'that'
p2014
g29
F0.8869
tp2015
a(S'towel'
p2016
g13
F0.9967
tp2017
a(g15
g9
F0.9977
tp2018
asI354
(lp2019
(S'can'
p2020
g39
F0.9938
tp2021
a(g50
g51
F0.9994
tp2022
a(S'have'
p2023
g39
F1.0
tp2024
a(g88
g29
F0.9976
tp2025
a(S'piece'
p2026
g13
F0.9989
tp2027
a(S'of'
p2028
g195
F0.9971
tp2029
a(S'bread'
p2030
g13
F0.9866
tp2031
a(g15
g9
F0.9977
tp2032
asI867
(lp2033
(S'get'
p2034
g39
F0.9933
tp2035
a(S'rid'
p2036
g21
F0.8832
tp2037
a(S'of'
p2038
g195
F0.9993
tp2039
a(S'the'
p2040
g29
F0.999
tp2041
a(S'towel'
p2042
g13
F0.9952
tp2043
a(S'please'
p2044
g39
F0.9482
tp2045
a(g15
g9
F0.998
tp2046
asI357
(lp2047
(S'(..)'
p2048
g42
F0.6061
tp2049
a(S'xxx'
p2050
g42
F0.9139
tp2051
a(S'on'
p2052
g195
F0.9933
tp2053
a(S'the'
p2054
g29
F0.9993
tp2055
a(S'bus'
p2056
g13
F0.9933
tp2057
a(g8
g9
F0.9986
tp2058
asI870
(lp2059
(S'mm'
p2060
g3
F0.4155
tp2061
a(g50
g51
F0.9988
tp2062
a(S'done'
p2063
g39
F0.9963
tp2064
a(g8
g9
F0.999
tp2065
asI360
(lp2066
(S'did'
p2067
g39
F0.9986
tp2068
a(S'you'
p2069
g51
F0.982
tp2070
a(S'fish'
p2071
g13
F0.9587
tp2072
a(S'at'
p2073
g195
F0.9999
tp2074
a(S'the'
p2075
g29
F0.9993
tp2076
a(S'cottage'
p2077
g13
F0.9964
tp2078
a(g15
g9
F0.9976
tp2079
asI873
(lp2080
(S'no'
p2081
g3
F0.9704
tp2082
a(g8
g9
F0.9989
tp2083
asI364
(lp2084
(S'yep'
p2085
g3
F0.9972
tp2086
a(g8
g9
F0.9971
tp2087
asI367
(lp2088
(g1346
g9
F0.9736
tp2089
a(S'be)cause'
p2090
g195
F0.9967
tp2091
a(g50
g51
F0.9994
tp2092
a(S'watch'
p2093
g39
F0.9998
tp2094
a(S'the'
p2095
g29
F0.9995
tp2096
a(S'frog'
p2097
g13
F0.9978
tp2098
a(S'in'
p2099
g195
F0.9991
tp2100
a(S'the'
p2101
g29
F0.9993
tp2102
a(S'water'
p2103
g13
F0.9937
tp2104
a(S'xxx'
p2105
g42
F0.7297
tp2106
a(g132
g9
F0.6588
tp2107
a(g134
g42
F0.4915
tp2108
a(g136
g9
F0.7758
tp2109
a(g8
g9
F0.9977
tp2110
asI880
(lp2111
(S'Mom'
p2112
g13
F0.8668
tp2113
a(g15
g9
F0.9977
tp2114
asI677
(lp2115
(S'did'
p2116
g39
F0.991
tp2117
a(S'he'
p2118
g51
F0.9966
tp2119
a(S'eat'
p2120
g39
F0.9998
tp2121
a(S'it'
p2122
g51
F0.9717
tp2123
a(S'all'
p2124
g24
F0.4369
tp2125
a(g15
g9
F0.997
tp2126
asI372
(lp2127
(g159
g160
F0.9346
tp2128
a(S'did'
p2129
g39
F0.9993
tp2130
a(S'you'
p2131
g51
F0.9981
tp2132
a(g134
g42
F0.3835
tp2133
a(g132
g42
F0.535
tp2134
a(g159
g160
F0.8293
tp2135
a(g136
g9
F0.9853
tp2136
a(S'catch'
p2137
g39
F0.9937
tp2138
a(g88
g29
F0.9906
tp2139
a(S'fishy'
p2140
g21
F0.929
tp2141
a(g15
g9
F0.9966
tp2142
asI830
(lp2143
(S'no'
p2144
g3
F0.8444
tp2145
a(g88
g29
F0.9739
tp2146
a(S'few'
p2147
g21
F0.8487
tp2148
a(S'more'
p2149
g21
F0.5275
tp2150
a(g8
g9
F0.9987
tp2151
asI375
(lp2152
(S'yep'
p2153
g3
F0.9972
tp2154
a(g8
g9
F0.9971
tp2155
asI888
(lp2156
(S'not'
p2157
g24
F0.9972
tp2158
a(S'yet'
p2159
g24
F0.9792
tp2160
a(g8
g9
F0.9984
tp2161
asI378
(lp2162
(S'you'
p2163
g51
F0.9963
tp2164
a(S'caught'
p2165
g39
F0.9998
tp2166
a(g88
g29
F0.9968
tp2167
a(S'lot'
p2168
g13
F0.9809
tp2169
a(S'of'
p2170
g195
F0.9971
tp2171
a(S'fishies'
p2172
g13
F0.4977
tp2173
a(S'right'
p2174
g24
F0.5969
tp2175
a(g15
g9
F0.9987
tp2176
asI891
(lp2177
(S'0'
p2178
g378
F0.9816
tp2179
a(S'[='
p2180
g42
F0.9666
tp2181
a(g3
g9
F0.9904
tp2182
a(S'whimpering'
p2183
g39
F0.9989
tp2184
a(S'cry'
p2185
g39
F0.5779
tp2186
a(g136
g9
F0.988
tp2187
a(g8
g9
F0.9959
tp2188
asI892
(lp2189
(S'yyy'
p2190
g24
F0.6135
tp2191
a(S'be'
p2192
g39
F0.9947
tp2193
a(g88
g29
F0.9926
tp2194
a(S'big'
p2195
g21
F0.9873
tp2196
a(S'girl'
p2197
g13
F0.9982
tp2198
a(g8
g9
F0.9966
tp2199
asI382
(lp2200
(S'want'
p2201
g39
F0.9993
tp2202
a(S'me'
p2203
g51
F0.9983
tp2204
a(S'xxx'
p2205
g39
F0.3483
tp2206
a(S'the'
p2207
g29
F0.9993
tp2208
a(S'big'
p2209
g21
F0.8874
tp2210
a(S'fishy'
p2211
g21
F0.7489
tp2212
a(S'you'
p2213
g51
F0.9948
tp2214
a(S'caught'
p2215
g39
F0.994
tp2216
a(g15
g9
F0.9982
tp2217
asI895
(lp2218
(g2178
g378
F0.9816
tp2219
a(S'[='
p2220
g42
F0.9666
tp2221
a(g3
g9
F0.9882
tp2222
a(S'lets'
p2223
g79
F0.6531
tp2224
a(S'out'
p2225
g24
F0.6724
tp2226
a(S'loud'
p2227
g21
F0.9627
tp2228
a(S'whine'
p2229
g13
F0.9131
tp2230
a(g136
g9
F0.9918
tp2231
a(g8
g9
F0.9969
tp2232
asI896
(lp2233
(S'you'
p2234
g51
F0.9968
tp2235
a(S'wanna'
p2236
g39
F0.9984
tp2237
a(S'want'
p2238
g39
F0.9994
tp2239
a(S'to'
p2240
g195
F0.9835
tp2241
a(S'go'
p2242
g39
F0.9986
tp2243
a(S'see'
p2244
g39
F0.8753
tp2245
a(S'Uncle'
p2246
g6
F0.7204
tp2247
a(S'Bill'
p2248
g6
F0.9036
tp2249
a(S'after'
p2250
g195
F0.9541
tp2251
a(S'supper'
p2252
g13
F0.9631
tp2253
a(g15
g9
F0.9975
tp2254
asI386
(lp2255
(g50
g51
F0.9976
tp2256
a(S"don't"
p2257
g39
F1.0
tp2258
a(S'care'
p2259
g39
F0.9612
tp2260
a(g8
g9
F0.9964
tp2261
asI389
(lp2262
(S"it's"
p2263
g79
F0.9955
tp2264
a(g88
g29
F0.9974
tp2265
a(S'big'
p2266
g21
F0.9514
tp2267
a(S'big'
p2268
g21
F0.9907
tp2269
a(S'one'
p2270
g378
F0.9118
tp2271
a(g8
g9
F0.9968
tp2272
asI902
(lp2273
(S'no'
p2274
g3
F0.8389
tp2275
a(g132
g9
F0.9933
tp2276
a(g134
g42
F0.3811
tp2277
a(g136
g9
F0.7604
tp2278
a(g8
g9
F0.9962
tp2279
asI833
(lp2280
(S"I'm"
p2281
g79
F0.9951
tp2282
a(S'gonna'
p2283
g39
F0.9948
tp2284
a(S'put'
p2285
g39
F0.9995
tp2286
a(S'it'
p2287
g51
F0.9628
tp2288
a(S'on'
p2289
g195
F0.6542
tp2290
a(S'okay'
p2291
g21
F0.5178
tp2292
a(g15
g9
F0.997
tp2293
asI392
(lp2294
(g50
g51
F0.9971
tp2295
a(S'caught'
p2296
g39
F0.9999
tp2297
a(S'some'
p2298
g29
F0.8801
tp2299
a(S'xxx'
p2300
g42
F0.3278
tp2301
a(S'fish'
p2302
g13
F0.9872
tp2303
a(g8
g9
F0.9982
tp2304
asI905
(lp2305
(S'maybe'
p2306
g24
F0.9551
tp2307
a(g132
g9
F0.9771
tp2308
a(g159
g160
F0.972
tp2309
a(g136
g9
F0.974
tp2310
a(g15
g9
F0.9963
tp2311
asI395
(lp2312
(g159
g160
F0.9318
tp2313
a(S'Bro'
p2314
g13
F0.8104
tp2315
a(g134
g42
F0.4484
tp2316
a(g132
g42
F0.4959
tp2317
a(g134
g42
F0.9698
tp2318
a(g136
g42
F0.5168
tp2319
a(g3
g9
F0.9723
tp2320
asI578
(lp2321
(S'you'
p2322
g51
F0.9885
tp2323
a(S'xxx'
p2324
g39
F0.7181
tp2325
a(S'jump'
p2326
g39
F0.7831
tp2327
a(S'for'
p2328
g195
F0.9986
tp2329
a(S'her'
p2330
g29
F0.9192
tp2331
a(S'milk'
p2332
g13
F0.9986
tp2333
a(S'you'
p2334
g51
F0.9939
tp2335
a(S'almost'
p2336
g24
F0.9924
tp2337
a(g572
g32
F0.4012
tp2338
a(S'...'
p2339
g160
F0.706
tp2340
asI398
(lp2341
(S'xxx'
p2342
g42
F0.8981
tp2343
a(g132
g9
F0.6622
tp2344
a(g159
g160
F0.972
tp2345
a(g136
g9
F0.9847
tp2346
a(g8
g9
F0.9962
tp2347
asI399
(lp2348
(S'xxx'
p2349
g42
F0.7366
tp2350
a(S'[//]'
p2351
g42
F0.3177
tp2352
a(S'when'
p2353
g24
F0.9836
tp2354
a(S'we'
p2355
g51
F0.9952
tp2356
a(S'caught'
p2357
g39
F0.9997
tp2358
a(S'the'
p2359
g29
F0.9996
tp2360
a(S'big'
p2361
g21
F0.9224
tp2362
a(S'fish'
p2363
g13
F0.9969
tp2364
a(S'like'
p2365
g195
F0.9809
tp2366
a(S'this'
p2367
g29
F0.8791
tp2368
a(S'big'
p2369
g21
F0.8941
tp2370
a(g15
g9
F0.9951
tp2371
asI913
(lp2372
(S'because'
p2373
g195
F0.9863
tp2374
a(S'ow'
p2375
g3
F0.5635
tp2376
a(g50
g51
F0.9988
tp2377
a(S'got'
p2378
g39
F0.9999
tp2379
a(g88
g29
F0.9977
tp2380
a(S'headache'
p2381
g13
F0.988
tp2382
a(S'and'
p2383
g143
F0.9979
tp2384
a(S'xxx'
p2385
g42
F0.4564
tp2386
a(g50
g51
F0.9947
tp2387
a(S'wanna'
p2388
g39
F0.9981
tp2389
a(S'lie'
p2390
g39
F0.9963
tp2391
a(S'down'
p2392
g688
F0.6694
tp2393
a(g8
g9
F0.9974
tp2394
asI404
(lp2395
(S'we'
p2396
g51
F0.9954
tp2397
a(S'caught'
p2398
g39
F0.9975
tp2399
a(S'\xe2\x86\x91'
p2400
g32
F0.5349
tp2401
a(S'(.)'
p2402
g32
F0.6035
tp2403
a(S'okay'
p2404
g3
F0.8315
tp2405
a(g15
g9
F0.9978
tp2406
asI1006
(lp2407
(S'no'
p2408
g3
F0.4113
tp2409
a(S'more'
p2410
g21
F0.7372
tp2411
a(g8
g9
F0.9985
tp2412
asI919
(lp2413
(g143
g143
F0.9893
tp2414
a(g512
g9
F0.8849
tp2415
a(S'laughs'
p2416
g39
F0.9926
tp2417
a(S'no'
p2418
g3
F0.4281
tp2419
a(g8
g9
F0.9992
tp2420
asI408
(lp2421
(S'tomorrow'
p2422
g13
F0.9159
tp2423
a(g50
g51
F0.9939
tp2424
a(S'go'
p2425
g39
F0.9996
tp2426
a(S'do'
p2427
g39
F0.9886
tp2428
a(S'the'
p2429
g29
F0.989
tp2430
a(g572
g32
F0.4954
tp2431
a(S'...'
p2432
g160
F0.6739
tp2433
asI922
(lp2434
(S"you're"
p2435
g79
F0.9953
tp2436
a(S'not'
p2437
g24
F0.9978
tp2438
a(S'goin(g'
p2439
g39
F0.9661
tp2440
a(g192
g9
F0.9962
tp2441
a(S'out'
p2442
g195
F0.4157
tp2443
a(S'unless'
p2444
g195
F0.9956
tp2445
a(S'you'
p2446
g51
F0.9996
tp2447
a(S'finish'
p2448
g39
F0.9995
tp2449
a(S'some'
p2450
g29
F0.9307
tp2451
a(S'more'
p2452
g21
F0.9098
tp2453
a(S'o(f'
p2454
g195
F0.537
tp2455
a(g192
g9
F0.9842
tp2456
a(S'your'
p2457
g29
F0.963
tp2458
a(S'supper'
p2459
g13
F0.9982
tp2460
a(g8
g9
F0.9985
tp2461
asI411
(lp2462
(S'watch'
p2463
g39
F0.9907
tp2464
a(S'out'
p2465
g688
F0.8233
tp2466
a(S'for'
p2467
g195
F0.9997
tp2468
a(S'your'
p2469
g29
F0.9933
tp2470
a(S'milk'
p2471
g13
F0.9975
tp2472
a(S'Chi'
p2473
g6
F0.5647
tp2474
a(S"don't"
p2475
g39
F0.999
tp2476
a(S'spill'
p2477
g39
F0.998
tp2478
a(S'it'
p2479
g51
F0.9855
tp2480
a(g8
g9
F0.9988
tp2481
asI666
(lp2482
(g143
g143
F0.9895
tp2483
a(S'Sh'
p2484
g32
F0.4258
tp2485
a(S'Chi'
p2486
g6
F0.9102
tp2487
a(S'went'
p2488
g39
F0.9932
tp2489
a(S'to'
p2490
g195
F0.9734
tp2491
a(S'camp'
p2492
g13
F0.6969
tp2493
a(g8
g9
F0.9972
tp2494
asI416
(lp2495
(S'xxx'
p2496
g42
F0.5822
tp2497
a(g8
g9
F0.9648
tp2498
asI417
(lp2499
(S'yeah'
p2500
g3
F0.9986
tp2501
a(g8
g9
F0.997
tp2502
asI420
(lp2503
(S"I'm"
p2504
g79
F0.9951
tp2505
a(S'gonna'
p2506
g39
F0.9945
tp2507
a(S'eat'
p2508
g39
F0.9978
tp2509
a(S'good'
p2510
g21
F0.9889
tp2511
a(g8
g9
F0.9985
tp2512
asI582
(lp2513
(S'yeah'
p2514
g3
F0.9971
tp2515
a(g50
g51
F0.9994
tp2516
a(S'know'
p2517
g39
F0.9987
tp2518
a(g8
g9
F0.9981
tp2519
asI423
(lp2520
(S'right'
p2521
g3
F0.7325
tp2522
a(g15
g9
F0.9985
tp2523
asI427
(lp2524
(S'yup'
p2525
g3
F0.9973
tp2526
a(g8
g9
F0.9971
tp2527
asI754
(lp2528
(S'all'
p2529
S'X'
p2530
F0.7572
tp2531
a(S'the'
p2532
g29
F0.9993
tp2533
a(S"stuff's"
p2534
g79
F0.7965
tp2535
a(S'soaked'
p2536
g21
F0.5476
tp2537
a(g8
g9
F0.9985
tp2538
asI430
(lp2539
(S'is'
p2540
g39
F0.9983
tp2541
a(S'this'
p2542
g51
F0.5227
tp2543
a(S'right'
p2544
g21
F0.4797
tp2545
a(g15
g9
F0.998
tp2546
asI943
(lp2547
(S'five'
p2548
g378
F0.6687
tp2549
a(g8
g9
F0.9967
tp2550
asI434
(lp2551
(g88
g29
F0.9956
tp2552
a(S'little'
p2553
g21
F0.9983
tp2554
a(S'bit'
p2555
g13
F0.9297
tp2556
a(S'yeah'
p2557
g3
F0.9645
tp2558
a(g8
g9
F0.9977
tp2559
asI437
(lp2560
(g2178
g378
F0.9816
tp2561
a(S'[='
p2562
g42
F0.9666
tp2563
a(g3
g9
F0.9903
tp2564
a(S'strong'
p2565
g21
F0.9417
tp2566
a(S'exhale'
p2567
g13
F0.8633
tp2568
a(g136
g9
F0.9896
tp2569
a(g8
g9
F0.9959
tp2570
asI438
(lp2571
(S'Mom'
p2572
g13
F0.7518
tp2573
a(S"I'll"
p2574
g79
F0.9837
tp2575
a(S'be'
p2576
g39
F0.9994
tp2577
a(S'going'
p2578
g39
F0.9933
tp2579
a(S'to'
p2580
g195
F0.9567
tp2581
a(S'xxx'
p2582
g42
F0.4699
tp2583
a(S'okay'
p2584
g3
F0.6763
tp2585
a(g15
g9
F0.9983
tp2586
asI585
(lp2587
(S'(..)'
p2588
g42
F0.3551
tp2589
a(S'eat'
p2590
g39
F0.9933
tp2591
a(S'those'
p2592
g29
F0.9599
tp2593
a(S'Bro'
p2594
g13
F0.9894
tp2595
a(g8
g9
F0.9988
tp2596
asI952
(lp2597
(S'(..)'
p2598
g42
F0.6911
tp2599
a(S'three'
p2600
g378
F0.8904
tp2601
a(g8
g9
F0.9973
tp2602
asI441
(lp2603
(S"I'll"
p2604
g79
F0.9901
tp2605
a(S'be'
p2606
g39
F0.9986
tp2607
a(S'swimming'
p2608
g39
F0.7188
tp2609
a(S'until'
p2610
g195
F0.9973
tp2611
a(S'eight'
p2612
g378
F0.7568
tp2613
a(g8
g9
F0.9968
tp2614
asI955
(lp2615
(S'no'
p2616
g3
F0.6739
tp2617
a(g143
g143
F0.9865
tp2618
a(g512
g9
F0.8378
tp2619
a(S'laughs'
p2620
g39
F0.9872
tp2621
a(S"that's"
p2622
g79
F0.9308
tp2623
a(S'two'
p2624
g378
F0.9569
tp2625
a(g8
g9
F0.9974
tp2626
asI445
(lp2627
(S"I'll"
p2628
g79
F0.9901
tp2629
a(S'be'
p2630
g39
F0.9986
tp2631
a(S'swimming'
p2632
g39
F0.7188
tp2633
a(S'until'
p2634
g195
F0.9975
tp2635
a(S'eight'
p2636
g378
F0.6905
tp2637
a(S'and'
p2638
g143
F0.9983
tp2639
a(S"I'll"
p2640
g79
F0.9903
tp2641
a(S'go'
p2642
g39
F0.9984
tp2643
a(S'eat'
p2644
g39
F0.8335
tp2645
a(S'xxx'
p2646
g42
F0.3376
tp2647
a(S'friends'
p2648
g13
F0.9717
tp2649
a(g8
g9
F0.9974
tp2650
asI958
(lp2651
(S'how'
p2652
g24
F0.9744
tp2653
a(g1346
g9
F0.9809
tp2654
a(S'a)bout'
p2655
g195
F0.7197
tp2656
a(S'one'
p2657
g378
F0.9101
tp2658
a(g15
g9
F0.9973
tp2659
asI928
(lp2660
(S'one'
p2661
g378
F0.9512
tp2662
a(g143
g143
F0.9935
tp2663
a(g512
g9
F0.8844
tp2664
a(S'crying'
p2665
g39
F0.9928
tp2666
a(g15
g9
F0.999
tp2667
asI450
(lp2668
(S'yeah'
p2669
g3
F0.998
tp2670
a(S'alright'
p2671
g3
F0.9799
tp2672
a(g8
g9
F0.9978
tp2673
asI963
(lp2674
(g2178
g378
F0.9816
tp2675
a(S'[='
p2676
g42
F0.9666
tp2677
a(g3
g9
F0.9877
tp2678
a(S'whines'
p2679
g39
F0.9165
tp2680
a(S'and'
p2681
g143
F0.997
tp2682
a(S'cries'
p2683
g39
F0.5852
tp2684
a(g136
g9
F0.9905
tp2685
a(g8
g9
F0.9962
tp2686
asI964
(lp2687
(S'three'
p2688
g378
F0.9503
tp2689
a(S'more'
p2690
g21
F0.8885
tp2691
a(g8
g9
F0.9985
tp2692
asI453
(lp2693
(S'yeah'
p2694
g3
F0.9986
tp2695
a(g8
g9
F0.997
tp2696
asI967
(lp2697
(S'one'
p2698
g378
F0.8715
tp2699
a(g15
g9
F0.9955
tp2700
asI456
(lp2701
(S'Bro'
p2702
g13
F0.7733
tp2703
a(S"it's"
p2704
g79
F0.9914
tp2705
a(g88
g29
F0.9945
tp2706
a(S'vegetable'
p2707
g13
F0.9977
tp2708
a(g8
g9
F0.9987
tp2709
asI459
(lp2710
(S'(..)'
p2711
g9
F0.3831
tp2712
a(S"don't"
p2713
g39
F0.9998
tp2714
a(S'put'
p2715
g39
F0.9998
tp2716
a(S'it'
p2717
g51
F0.979
tp2718
a(S'right'
p2719
g24
F0.7678
tp2720
a(S'there'
p2721
g24
F0.4847
tp2722
a(S'this'
p2723
g51
F0.9439
tp2724
a(S'is'
p2725
g39
F0.999
tp2726
a(g88
g29
F0.9978
tp2727
a(S'mushroom'
p2728
g13
F0.9983
tp2729
a(g8
g9
F0.9987
tp2730
asI663
(lp2731
(S'who'
p2732
g51
F0.9566
tp2733
a(g15
g9
F0.9951
tp2734
asI674
(lp2735
(S'you'
p2736
g51
F0.9968
tp2737
a(S'have_to'
p2738
g39
F0.9991
tp2739
a(S'eat'
p2740
g39
F0.9995
tp2741
a(S'your'
p2742
g29
F0.994
tp2743
a(S'supper'
p2744
g13
F0.9979
tp2745
a(g3
g9
F0.9987
tp2746
asI975
(lp2747
(S'three'
p2748
g378
F0.9336
tp2749
a(g8
g9
F0.9969
tp2750
asI464
(lp2751
(S'oh'
p2752
g3
F0.9982
tp2753
a(S'sorry'
p2754
g3
F0.5704
tp2755
a(g3
g9
F0.9969
tp2756
asI760
(lp2757
(S"it's"
p2758
g79
F0.9969
tp2759
a(S'raining'
p2760
g39
F0.9912
tp2761
a(S'outside'
p2762
g688
F0.371
tp2763
a(g8
g9
F0.9981
tp2764
asI978
(lp2765
(S'no'
p2766
g3
F0.6995
tp2767
a(S'[/]'
p2768
g9
F0.6446
tp2769
a(S'no'
p2770
g29
F0.4625
tp2771
a(S'[/]'
p2772
g13
F0.4399
tp2773
a(S'no'
p2774
g29
F0.4152
tp2775
a(S'[/]'
p2776
g13
F0.4892
tp2777
a(S'no'
p2778
g24
F0.466
tp2779
a(g143
g143
F0.9903
tp2780
a(g512
g9
F0.912
tp2781
a(S'crying'
p2782
g39
F0.998
tp2783
a(g3
g9
F0.9989
tp2784
asI467
(lp2785
(S'how'
p2786
g24
F0.9802
tp2787
a(S'come'
p2788
g39
F0.9993
tp2789
a(S'you'
p2790
g51
F0.9994
tp2791
a(S"don't"
p2792
g39
F1.0
tp2793
a(S'want'
p2794
g39
F1.0
tp2795
a(S'this'
p2796
g51
F0.828
tp2797
a(g15
g9
F0.9984
tp2798
asI561
(lp2799
(S'do'
p2800
g39
F0.9985
tp2801
a(S'you'
p2802
g51
F0.9997
tp2803
a(S'mean'
p2804
g39
F0.9968
tp2805
a(S'it'
p2806
g51
F0.9759
tp2807
a(g15
g9
F0.999
tp2808
asI471
(lp2809
(S'Mom'
p2810
g13
F0.8482
tp2811
a(S'did'
p2812
g39
F0.9986
tp2813
a(S'the'
p2814
g29
F0.9994
tp2815
a(S'dryer'
p2816
g13
F0.99
tp2817
a(S'dry'
p2818
g39
F0.7285
tp2819
a(S'all'
p2820
g2530
F0.4703
tp2821
a(S'the'
p2822
g29
F0.9999
tp2823
a(S'clothes'
p2824
g13
F0.9967
tp2825
a(S'in'
p2826
g195
F0.9973
tp2827
a(S'there'
p2828
g24
F0.8519
tp2829
a(g15
g9
F0.9982
tp2830
asI984
(lp2831
(S'just'
p2832
g24
F0.9957
tp2833
a(S'one'
p2834
g378
F0.8601
tp2835
a(g15
g9
F0.9957
tp2836
asI932
(lp2837
(S'five'
p2838
g378
F0.6819
tp2839
a(g132
g9
F0.9786
tp2840
a(g134
g42
F0.3811
tp2841
a(g136
g9
F0.7604
tp2842
a(g8
g9
F0.9962
tp2843
asI476
(lp2844
(g50
g51
F0.9976
tp2845
a(S"don't"
p2846
g39
F1.0
tp2847
a(S'know'
p2848
g39
F0.9986
tp2849
a(g8
g9
F0.9981
tp2850
asI479
(lp2851
(S'why'
p2852
g24
F0.9408
tp2853
a(g15
g9
F0.9946
tp2854
asI848
(lp2855
(S'keep'
p2856
g39
F0.7049
tp2857
a(g132
g9
F0.9887
tp2858
a(g134
g160
F0.3399
tp2859
a(g136
g9
F0.9866
tp2860
a(S'that'
p2861
g29
F0.6708
tp2862
a(S'door'
p2863
g13
F0.9976
tp2864
a(S'shut'
p2865
g39
F0.443
tp2866
a(g8
g9
F0.9981
tp2867
asI482
(lp2868
(S'well'
p2869
g3
F0.8726
tp2870
a(S'(.)'
p2871
g6
F0.5321
tp2872
a(S'is'
p2873
g39
F0.9923
tp2874
a(g159
g160
F0.7365
tp2875
a(S'it'
p2876
g51
F0.9957
tp2877
a(S'done'
p2878
g39
F0.9854
tp2879
a(g134
g42
F0.4844
tp2880
a(g132
g42
F0.5345
tp2881
a(g134
g42
F0.9577
tp2882
a(g136
g9
F0.6335
tp2883
a(g15
g9
F0.9962
tp2884
asI1019
(lp2885
(S'it'
p2886
g51
F0.9961
tp2887
a(S'hurts'
p2888
g39
F0.9948
tp2889
a(S'xxx'
p2890
g42
F0.4312
tp2891
a(S'more'
p2892
g21
F0.73
tp2893
a(g8
g9
F0.9987
tp2894
asI997
(lp2895
(S'(..)'
p2896
g42
F0.4725
tp2897
a(S'Mot'
p2898
g6
F0.304
tp2899
a(g15
g9
F0.9917
tp2900
asI486
(lp2901
(S'xxx'
p2902
g42
F0.8981
tp2903
a(g132
g9
F0.6622
tp2904
a(g159
g160
F0.972
tp2905
a(g136
g9
F0.9847
tp2906
a(g8
g9
F0.9962
tp2907
asI487
(lp2908
(S'did'
p2909
g39
F0.9986
tp2910
a(S'you'
p2911
g51
F0.9986
tp2912
a(S'put'
p2913
g39
F0.9994
tp2914
a(S'it'
p2915
g51
F0.9692
tp2916
a(S'on'
p2917
g195
F0.5464
tp2918
a(g15
g9
F0.9962
tp2919
asI1001
(lp2920
(S'alright'
p2921
g3
F0.8544
tp2922
a(S'wipe'
p2923
g39
F0.9851
tp2924
a(S'your'
p2925
g29
F0.9962
tp2926
a(S'hands'
p2927
g13
F0.9993
tp2928
a(S'off'
p2929
g195
F0.5191
tp2930
a(g8
g9
F0.9969
tp2931
asI490
(lp2932
(S'it'
p2933
g51
F0.9826
tp2934
a(S'[/]'
p2935
g9
F0.5946
tp2936
a(S"it's"
p2937
g79
F0.9985
tp2938
a(S'not'
p2939
g24
F0.9968
tp2940
a(S'xxx'
p2941
g42
F0.7842
tp2942
a(g132
g9
F0.6588
tp2943
a(g134
g42
F0.5886
tp2944
a(g136
g9
F0.8062
tp2945
a(g8
g9
F0.9969
tp2946
asI935
(lp2947
(S'one'
p2948
g378
F0.9466
tp2949
a(g132
g9
F0.9793
tp2950
a(g159
g160
F0.9843
tp2951
a(g136
g9
F0.9636
tp2952
a(S'Mot'
p2953
g6
F0.3986
tp2954
a(g15
g9
F0.9901
tp2955
asI988
(lp2956
(S"that's"
p2957
g79
F0.9793
tp2958
a(S'two'
p2959
g378
F0.939
tp2960
a(g8
g9
F0.9973
tp2961
asI493
(lp2962
(g159
g160
F0.9328
tp2963
a(S"it's"
p2964
g79
F0.9899
tp2965
a(S'xxx'
p2966
g42
F0.6869
tp2967
a(g134
g42
F0.955
tp2968
a(g132
g42
F0.535
tp2969
a(g159
g160
F0.6902
tp2970
a(g136
g9
F0.9839
tp2971
a(g8
g9
F0.9962
tp2972
asI876
(lp2973
(S'one'
p2974
g378
F0.8715
tp2975
a(g15
g9
F0.9955
tp2976
asI496
(lp2977
(g50
g51
F0.9985
tp2978
a(S'know'
p2979
g39
F0.9983
tp2980
a(g8
g9
F0.9977
tp2981
asI1009
(lp2982
(g143
g143
F0.9893
tp2983
a(g512
g9
F0.8805
tp2984
a(S'whines'
p2985
g39
F0.903
tp2986
a(S'one'
p2987
g378
F0.897
tp2988
a(g15
g9
F0.9973
tp2989
asI499
(lp2990
(S'xxx'
p2991
g42
F0.565
tp2992
a(S'dry'
p2993
g21
F0.7494
tp2994
a(S'in'
p2995
g195
F0.9835
tp2996
a(g88
g29
F0.9961
tp2997
a(S'bit'
p2998
g13
F0.7307
tp2999
a(S'right'
p3000
g24
F0.5814
tp3001
a(g15
g9
F0.9986
tp3002
asI1013
(lp3003
(S'yeah'
p3004
g3
F0.9986
tp3005
a(g8
g9
F0.997
tp3006
asI503
(lp3007
(S'right'
p3008
g3
F0.7294
tp3009
a(g8
g9
F0.9987
tp3010
asI1016
(lp3011
(S'now'
p3012
g24
F0.9952
tp3013
a(S'wipe'
p3014
g39
F0.9966
tp3015
a(S'your'
p3016
g29
F0.9962
tp3017
a(S'hands'
p3018
g13
F0.9993
tp3019
a(S'off'
p3020
g195
F0.5191
tp3021
a(g8
g9
F0.9969
tp3022
asI507
(lp3023
(g50
g51
F0.9976
tp3024
a(S'have_to'
p3025
g39
F0.9995
tp3026
a(S'get'
p3027
g39
F0.9999
tp3028
a(g88
g29
F0.9966
tp3029
a(S'drink'
p3030
g13
F0.9713
tp3031
a(S'now'
p3032
g24
F0.9763
tp3033
a(g8
g9
F0.9985
tp3034
asI510
(lp3035
(S'check'
p3036
g39
F0.9725
tp3037
a(S'the'
p3038
g29
F0.999
tp3039
a(S'oven'
p3040
g13
F0.9965
tp3041
a(g8
g9
F0.999
tp3042
asI597
(lp3043
(S'when'
p3044
g24
F0.9604
tp3045
a(S'we'
p3046
g51
F0.9964
tp3047
a(S'were'
p3048
g39
F0.9986
tp3049
a(S'watching'
p3050
g39
F0.9985
tp3051
a(g88
g29
F0.9985
tp3052
a(S'movie'
p3053
g13
F0.9976
tp3054
a(S'xxx'
p3055
g42
F0.6908
tp3056
a(g15
g9
F0.9787
tp3057
as.