(dp0
I16
(lp1
(S'xxx'
p2
S'E'
p3
F0.5822
tp4
a(S'.'
p5
S','
p6
F0.9648
tp7
asI18
(lp8
(S'is'
p9
S'V'
p10
F0.998
tp11
a(S'the'
p12
S'D'
p13
F0.9992
tp14
a(S'rice'
p15
S'N'
p16
F0.9877
tp17
a(S'on'
p18
S'P'
p19
F0.9829
tp20
a(S'?'
p21
g6
F0.9974
tp22
asI21
(lp23
(S'yeah'
p24
S'!'
p25
F0.9951
tp26
a(S'['
p27
g6
F0.9838
tp28
a(S'>'
p29
g3
F0.3811
tp30
a(S']'
p31
g6
F0.7604
tp32
a(g5
g6
F0.9962
tp33
asI24
(lp34
(S'yeah'
p35
g25
F0.9951
tp36
a(g27
g6
F0.9843
tp37
a(S'<'
p38
S'~'
p39
F0.9843
tp40
a(g31
g6
F0.9916
tp41
a(S'you'
p42
S'O'
p43
F0.9981
tp44
a(S'want'
p45
g10
F0.9999
tp46
a(S'that'
p47
g13
F0.6724
tp48
a(S'one'
p49
S'$'
p50
F0.8021
tp51
a(g21
g6
F0.997
tp52
asI27
(lp53
(S'this'
p54
g13
F0.9705
tp55
a(S'one'
p56
g50
F0.8198
tp57
a(g38
g39
F0.8864
tp58
a(S'that'
p59
g13
F0.6067
tp60
a(S'middle'
p61
S'A'
p62
F0.6262
tp63
a(S'one'
p64
g50
F0.928
tp65
a(S'was'
p66
g10
F0.9826
tp67
a(S'for'
p68
g19
F0.9952
tp69
a(S'you'
p70
g43
F0.9994
tp71
a(g29
g3
F0.3773
tp72
a(g27
g3
F0.5345
tp73
a(g29
g3
F0.9607
tp74
a(g31
g6
F0.7758
tp75
a(g5
g6
F0.9977
tp76
asI32
(lp77
(g38
g39
F0.9304
tp78
a(S'everybody'
p79
g16
F0.9131
tp80
a(S'has'
p81
g10
F0.9944
tp82
a(S'got'
p83
g10
F0.9854
tp84
a(S'clam'
p85
g16
F0.5625
tp86
a(S'chowder'
p87
g16
F0.9902
tp88
a(S'to'
p89
g19
F0.9989
tp90
a(S'start'
p91
g10
F0.999
tp92
a(S'with'
p93
g19
F0.987
tp94
a(g29
g3
F0.3326
tp95
a(g27
g3
F0.535
tp96
a(g38
g39
F0.8058
tp97
a(g31
g6
F0.9681
tp98
a(g21
g6
F0.9977
tp99
asI38
(lp100
(S'everybody'
p101
g16
F0.8418
tp102
a(S'has'
p103
g10
F0.9947
tp104
a(S'got'
p105
g10
F0.9928
tp106
a(S'spoons'
p107
g16
F0.9089
tp108
a(S'or'
p109
S'&'
p110
F0.9922
tp111
a(S'something'
p112
g16
F0.9939
tp113
a(S'to'
p114
g19
F0.9986
tp115
a(S'eat'
p116
g10
F0.9969
tp117
a(S'with'
p118
g19
F0.98
tp119
a(g21
g6
F0.996
tp120
asI44
(lp121
(S'yup'
p122
g25
F0.9973
tp123
a(g5
g6
F0.9971
tp124
asI47
(lp125
(g38
g39
F0.9345
tp126
a(S'momma'
p127
g16
F0.7345
tp128
a(S'does'
p129
g10
F0.9972
tp130
a(S'not'
p131
S'R'
p132
F0.9908
tp133
a(g29
S'G'
p134
F0.4396
tp135
a(S'[//]'
p136
g134
F0.441
tp137
a(g38
g39
F0.929
tp138
a(S'this'
p139
g13
F0.958
tp140
a(S"one's"
p141
S'S'
p142
F0.8385
tp143
a(S'not'
p144
g132
F0.9946
tp145
a(S'[//]'
p146
g6
F0.2074
tp147
a(S'put'
p148
g10
F0.9812
tp149
a(S'that'
p150
g43
F0.6676
tp151
a(S'back'
p152
g132
F0.6614
tp153
a(g29
g3
F0.4357
tp154
a(g27
g3
F0.5345
tp155
a(g29
g3
F0.9487
tp156
a(g31
g6
F0.8534
tp157
a(g5
g6
F0.996
tp158
asI51
(lp159
(g38
g39
F0.925
tp160
a(S'we'
p161
g43
F0.9955
tp162
a(g110
g110
F0.9863
tp163
a(S'ha'
p164
g25
F0.9072
tp165
a(S'[//]'
p166
g6
F0.4975
tp167
a(S'any'
p168
g13
F0.7953
tp169
a(S'more'
p170
g62
F0.8491
tp171
a(S'saltine'
p172
g62
F0.6548
tp173
a(S'crackers'
p174
g16
F0.9984
tp175
a(S'over'
p176
g19
F0.9782
tp177
a(S'there'
p178
g132
F0.6369
tp179
a(g29
g3
F0.5498
tp180
a(g27
g3
F0.535
tp181
a(g38
g39
F0.7734
tp182
a(g31
g6
F0.9728
tp183
a(g21
g6
F0.9971
tp184
asI55
(lp185
(g38
g39
F0.9359
tp186
a(S'this'
p187
g43
F0.9681
tp188
a(S'is'
p189
g10
F0.9995
tp190
a(S'my'
p191
g13
F0.9951
tp192
a(S'soup'
p193
g16
F0.9976
tp194
a(g29
g3
F0.5184
tp195
a(g27
g3
F0.5345
tp196
a(g29
g3
F0.9555
tp197
a(g31
g6
F0.6839
tp198
a(g21
g6
F0.9957
tp199
asI59
(lp200
(g38
g39
F0.9374
tp201
a(S'no'
p202
g25
F0.869
tp203
a(S'we'
p204
g43
F0.9917
tp205
a(g29
g3
F0.4397
tp206
a(g27
g3
F0.535
tp207
a(g38
g39
F0.8293
tp208
a(g31
g6
F0.9822
tp209
a(S'want'
p210
g10
F0.9991
tp211
a(S'this'
p212
g13
F0.9601
tp213
a(S'one'
p214
g50
F0.9022
tp215
a(g5
g6
F0.9978
tp216
asI62
(lp217
(S"I'll"
p218
S'L'
p219
F0.9863
tp220
a(S'sit'
p221
g10
F0.997
tp222
a(S'next'
p223
g132
F0.4436
tp224
a(S'to'
p225
g19
F0.9966
tp226
a(S'Sara'
p227
S'^'
p228
F0.998
tp229
a(g5
g6
F0.9931
tp230
asI65
(lp231
(S'Sis'
p232
g16
F0.5837
tp233
a(S'you'
p234
g43
F0.9952
tp235
a(S'gonna'
p236
g10
F0.9992
tp237
a(g38
g39
F0.8446
tp238
a(S'sit'
p239
g10
F0.9885
tp240
a(S'right'
p241
g62
F0.4273
tp242
a(g29
g3
F0.4671
tp243
a(g27
g3
F0.5345
tp244
a(g29
g3
F0.9532
tp245
a(g31
g6
F0.8522
tp246
a(S'there'
p247
g132
F0.7483
tp248
a(g21
g6
F0.997
tp249
asI68
(lp250
(S'saltines'
p251
g16
F0.8278
tp252
a(g27
g6
F0.9891
tp253
a(g38
g39
F0.972
tp254
a(g31
g6
F0.974
tp255
a(g21
g6
F0.9963
tp256
asI71
(lp257
(S'mhm'
p258
g25
F0.9761
tp259
a(g5
g6
F0.9962
tp260
asI74
(lp261
(S'yeah'
p262
g25
F0.9914
tp263
a(S'saltines'
p264
g16
F0.6862
tp265
a(S'whatever'
p266
g25
F0.6948
tp267
a(S'they'
p268
g43
F0.9922
tp269
a(S'are'
p270
g10
F0.9991
tp271
a(g38
g39
F0.8803
tp272
a(S'national'
p273
g62
F0.6119
tp274
a(S'right'
p275
g16
F0.6142
tp276
a(S'at'
p277
g19
F0.9999
tp278
a(S'the'
p279
g13
F0.9988
tp280
a(S'end'
p281
g16
F0.9919
tp282
a(S'in'
p283
g19
F0.9987
tp284
a(S'the'
p285
g13
F0.9993
tp286
a(S'black'
p287
g62
F0.9329
tp288
a(S'box'
p289
g16
F0.9898
tp290
a(S'there'
p291
g132
F0.7513
tp292
a(g29
g3
F0.5498
tp293
a(g27
g3
F0.5345
tp294
a(g29
g3
F0.9516
tp295
a(g31
g6
F0.7567
tp296
a(g5
g6
F0.9927
tp297
asI81
(lp298
(g38
g39
F0.9297
tp299
a(S"mommy's"
p300
g219
F0.4266
tp301
a(S'sitting'
p302
g10
F0.9929
tp303
a(S'next'
p304
g62
F0.4901
tp305
a(S'to'
p306
g19
F0.9991
tp307
a(S'me'
p308
g43
F0.9982
tp309
a(S'too'
p310
g132
F0.9897
tp311
a(g29
g3
F0.4858
tp312
a(g27
g3
F0.535
tp313
a(g38
g39
F0.768
tp314
a(g31
g6
F0.985
tp315
a(g5
g6
F0.9936
tp316
asI85
(lp317
(S'the'
p318
g13
F0.9988
tp319
a(S'kids'
p320
g16
F0.9759
tp321
a(S'have'
p322
g10
F0.997
tp323
a(S'forks'
p324
g16
F0.9938
tp325
a(S'already'
p326
g132
F0.9953
tp327
a(S'too'
p328
g132
F0.995
tp329
a(g21
g6
F0.9969
tp330
asI88
(lp331
(S'no'
p332
g25
F0.9704
tp333
a(g5
g6
F0.9989
tp334
asI91
(lp335
(g110
g110
F0.9893
tp336
a(S'='
p337
g6
F0.8669
tp338
a(S'growls'
p339
g10
F0.9585
tp340
a(g5
g6
F0.9983
tp341
asI92
(lp342
(S'xxx'
p343
g3
F0.5822
tp344
a(g5
g6
F0.9648
tp345
asI93
(lp346
(S'mommy'
p347
g16
F0.611
tp348
a(S'+/'
p349
g16
F0.2804
tp350
a(g5
g6
F0.9979
tp351
asI96
(lp352
(S'anybody'
p353
g16
F0.9354
tp354
a(S'want'
p355
g10
F0.9988
tp356
a(S'some'
p357
g13
F0.9931
tp358
a(S'crackers'
p359
g16
F0.9732
tp360
a(S'for'
p361
g19
F0.9999
tp362
a(S'their'
p363
g13
F0.9919
tp364
a(S'soup'
p365
g16
F0.9978
tp366
a(g21
g6
F0.9977
tp367
asI100
(lp368
(S'yes'
p369
g25
F0.9961
tp370
a(g5
g6
F0.9972
tp371
asI103
(lp372
(S'yes'
p373
g25
F0.9856
tp374
a(S'[//]'
p375
g6
F0.3461
tp376
a(g38
g39
F0.9626
tp377
a(S'no'
p378
g25
F0.6625
tp379
a(S'(.)'
p380
g6
F0.3471
tp381
a(S'I'
p382
g43
F0.9973
tp383
a(S"don't"
p384
g10
F1.0
tp385
a(S'(.)'
p386
g3
F0.3094
tp387
a(S'xxx'
p388
g3
F0.9719
tp389
a(g29
g3
F0.9474
tp390
a(g27
g3
F0.5345
tp391
a(g29
g3
F0.9532
tp392
a(g31
g6
F0.5416
tp393
a(S'one'
p394
g50
F0.9353
tp395
a(g5
g6
F0.9976
tp396
asI106
(lp397
(g38
g39
F0.9403
tp398
a(S"there's"
p399
g219
F0.8362
tp400
a(S'a'
p401
g13
F0.9981
tp402
a(S'fork'
p403
g16
F0.9942
tp404
a(S'for'
p405
g19
F0.9999
tp406
a(S'you'
p407
g43
F0.9983
tp408
a(S'Sara'
p409
g228
F0.9704
tp410
a(S'(.)'
p411
g228
F0.7789
tp412
a(S'fork'
p413
g16
F0.6945
tp414
a(S'for'
p415
g19
F0.9996
tp416
a(S'Heather'
p417
g228
F0.9957
tp418
a(g29
g134
F0.2873
tp419
a(g27
g6
F0.9049
tp420
a(g38
g39
F0.9531
tp421
a(g31
g6
F0.9834
tp422
a(g5
g6
F0.9972
tp423
asI111
(lp424
(S'you'
p425
g43
F0.9968
tp426
a(S"don't"
p427
g10
F1.0
tp428
a(S'want'
p429
g10
F0.9998
tp430
a(S'crackers'
p431
g16
F0.9396
tp432
a(S'for'
p433
g19
F0.9999
tp434
a(S'your'
p435
g13
F0.9941
tp436
a(S'clam'
p437
g16
F0.9053
tp438
a(S'chowder'
p439
g16
F0.9903
tp440
a(g21
g6
F0.9979
tp441
asI116
(lp442
(g382
g43
F0.9981
tp443
a(S'do'
p444
g10
F0.9997
tp445
a(g5
g6
F0.9971
tp446
asI119
(lp447
(g382
g43
F0.9983
tp448
a(S'said'
p449
g10
F0.9997
tp450
a(g382
g43
F0.9993
tp451
a(S'would'
p452
g10
F0.9998
tp453
a(S'eat'
p454
g10
F0.9999
tp455
a(S'it'
p456
g43
F0.9878
tp457
a(S'+/'
p458
g6
F0.2982
tp459
a(g5
g6
F0.9963
tp460
asI122
(lp461
(S'oh'
p462
g25
F0.9984
tp463
a(g5
g6
F0.9938
tp464
asI125
(lp465
(S'what'
p466
g43
F0.9835
tp467
a(S'are'
p468
g10
F0.9978
tp469
a(S'you'
p470
g43
F0.9996
tp471
a(S'trying'
p472
g10
F0.9997
tp473
a(S'to'
p474
g19
F0.98
tp475
a(S'do'
p476
g10
F0.9998
tp477
a(S'there'
p478
g13
F0.4763
tp479
a(S'hon'
p480
g16
F0.9977
tp481
a(g21
g6
F0.9984
tp482
asI131
(lp483
(S'put'
p484
g10
F0.9661
tp485
a(S'that'
p486
g13
F0.8841
tp487
a(S'fork'
p488
g16
F0.9911
tp489
a(S'in'
p490
g19
F0.9956
tp491
a(S'there'
p492
g132
F0.8181
tp493
a(g5
g6
F0.9976
tp494
asI134
(lp495
(S'to'
p496
g19
F0.9867
tp497
a(S'what'
p498
g43
F0.9925
tp499
a(g21
g6
F0.9924
tp500
asI138
(lp501
(S'put'
p502
g10
F0.9811
tp503
a(S'the'
p504
g13
F0.9996
tp505
a(S'fork'
p506
g16
F0.993
tp507
a(S'in'
p508
g19
F0.9956
tp509
a(S'there'
p510
g132
F0.8181
tp511
a(g5
g6
F0.9976
tp512
asI141
(lp513
(S'put'
p514
g10
F0.9811
tp515
a(S'the'
p516
g13
F0.9996
tp517
a(S'fork'
p518
g16
F0.9956
tp519
a(S'inside'
p520
g19
F0.9928
tp521
a(S'the'
p522
g13
F0.9994
tp523
a(S'corn'
p524
g16
F0.998
tp525
a(S'on'
p526
g19
F0.9994
tp527
a(S'the'
p528
g13
F0.9987
tp529
a(S'cob'
p530
g16
F0.7598
tp531
a(g21
g6
F0.9987
tp532
asI147
(lp533
(S"I'm"
p534
g219
F0.9955
tp535
a(S'doing'
p536
g10
F0.997
tp537
a(S'great'
p538
g62
F0.9871
tp539
a(g25
g6
F0.9987
tp540
asI150
(lp541
(g382
g43
F0.9984
tp542
a(S'hate'
p543
g10
F0.9998
tp544
a(S'to'
p545
g19
F0.9847
tp546
a(S'say'
p547
g10
F0.9998
tp548
a(S'it'
p549
g43
F0.9704
tp550
a(g382
g43
F0.9971
tp551
a(S"don't"
p552
g10
F1.0
tp553
a(S'think'
p554
g10
F1.0
tp555
a(S'the'
p556
g13
F0.9976
tp557
a(S'corn'
p558
g16
F0.998
tp559
a(S'on'
p560
g19
F0.9994
tp561
a(S'the'
p562
g13
F0.999
tp563
a(S'cob'
p564
g16
F0.5893
tp565
a(S'is'
p566
g10
F0.9979
tp567
a(S'done'
p568
g10
F0.6353
tp569
a(g5
g6
F0.9992
tp570
asI157
(lp571
(g382
g43
F0.9982
tp572
a(S'think'
p573
g10
F1.0
tp574
a(S'it'
p575
g43
F0.9975
tp576
a(S'is'
p577
g10
F0.9989
tp578
a(S'so'
p579
g132
F0.9681
tp580
a(g5
g6
F0.9955
tp581
asI160
(lp582
(S'alright'
p583
g25
F0.9793
tp584
a(g5
g6
F0.9973
tp585
asI163
(lp586
(S'it'
p587
g43
F0.9979
tp588
a(S'is'
p589
g10
F0.9994
tp590
a(S"it's"
p591
g219
F0.9916
tp592
a(S'just'
p593
g132
F0.9991
tp594
a(S'&-uh'
p595
g134
F0.577
tp596
a(S'xxx'
p597
g3
F0.43
tp598
a(g5
g6
F0.9646
tp599
asI166
(lp600
(S'what'
p601
g43
F0.9835
tp602
a(S'are'
p603
g10
F0.9933
tp604
a(S'we'
p605
g43
F0.9986
tp606
a(S'having'
p607
g10
F0.9999
tp608
a(S'to'
p609
g19
F0.9868
tp610
a(S'drink'
p611
g10
F0.9046
tp612
a(g21
g6
F0.9965
tp613
asI170
(lp614
(g38
g39
F0.918
tp615
a(S'ice'
p616
g62
F0.516
tp617
a(S'tea'
p618
g16
F0.9941
tp619
a(g29
g3
F0.5277
tp620
a(g27
g3
F0.5345
tp621
a(g29
g3
F0.9749
tp622
a(g31
g6
F0.5753
tp623
a(g21
g6
F0.996
tp624
asI173
(lp625
(g38
g39
F0.918
tp626
a(S'ice'
p627
g62
F0.516
tp628
a(S'tea'
p629
g16
F0.9941
tp630
a(g29
g3
F0.5277
tp631
a(g27
g3
F0.535
tp632
a(g38
g39
F0.6902
tp633
a(g31
g6
F0.9839
tp634
a(g5
g6
F0.9962
tp635
asI176
(lp636
(S'paper'
p637
g16
F0.9462
tp638
a(S'cups'
p639
g16
F0.9972
tp640
a(g21
g6
F0.9979
tp641
asI179
(lp642
(S'you'
p643
g43
F0.9968
tp644
a(S'wanna'
p645
g10
F0.9969
tp646
a(S'zap'
p647
g10
F0.9451
tp648
a(S'the'
p649
g13
F0.9973
tp650
a(S'rolls'
p651
g16
F0.8924
tp652
a(S'real'
p653
g132
F0.6403
tp654
a(S'quick'
p655
g62
F0.993
tp656
a(g21
g6
F0.9965
tp657
asI183
(lp658
(S'out'
p659
g19
F0.8279
tp660
a(S'of'
p661
g19
F0.9984
tp662
a(S'the'
p663
g13
F0.9993
tp664
a(S'plastic'
p665
g16
F0.6518
tp666
a(S'bag'
p667
g16
F0.9967
tp668
a(g5
g6
F0.9984
tp669
asI186
(lp670
(S'let'
p671
g10
F0.9975
tp672
a(S'me'
p673
g43
F0.9995
tp674
a(S'eat'
p675
g10
F0.9936
tp676
a(S'this'
p677
g13
F0.9819
tp678
a(S'side'
p679
g16
F0.9924
tp680
a(g5
g6
F0.9979
tp681
asI189
(lp682
(S'we'
p683
g43
F0.9973
tp684
a(S'got'
p685
g10
F0.9998
tp686
a(g401
g13
F0.9978
tp687
a(S'salad'
p688
g16
F0.9977
tp689
a(S'too'
p690
g132
F0.8637
tp691
a(g38
g39
F0.7185
tp692
a(S"don't"
p693
g10
F0.9994
tp694
a(S'forget'
p695
g10
F0.9996
tp696
a(g29
g3
F0.5587
tp697
a(g27
g3
F0.5345
tp698
a(g29
g3
F0.9597
tp699
a(g31
g6
F0.6916
tp700
a(g5
g6
F0.9952
tp701
asI194
(lp702
(g38
g39
F0.9199
tp703
a(S'me'
p704
g43
F0.999
tp705
a(S'need'
p706
g10
F0.9806
tp707
a(S'butter'
p708
g16
F0.9754
tp709
a(S'on'
p710
g19
F0.999
tp711
a(S'this'
p712
g43
F0.6906
tp713
a(g29
g3
F0.4505
tp714
a(g27
g3
F0.535
tp715
a(g38
g39
F0.7815
tp716
a(g31
g6
F0.961
tp717
a(g25
g6
F0.9971
tp718
asI198
(lp719
(S'yes'
p720
g25
F0.9701
tp721
a(S'you'
p722
g43
F0.9988
tp723
a(S'do'
p724
g10
F0.9997
tp725
a(S'need'
p726
g10
F0.949
tp727
a(S'butter'
p728
g16
F0.9785
tp729
a(S'on'
p730
g19
F0.9977
tp731
a(S'that'
p732
g13
F0.793
tp733
a(S'corn'
p734
g16
F0.9983
tp735
a(g5
g6
F0.9989
tp736
asI203
(lp737
(S'yeah'
p738
g25
F0.9962
tp739
a(S"here's"
p740
g219
F0.9588
tp741
a(S'the'
p742
g13
F0.9987
tp743
a(S'butter'
p744
g16
F0.9855
tp745
a(S'you'
p746
g43
F0.9787
tp747
a(S'(.)'
p748
g6
F0.3545
tp749
a(S'twirl'
p750
g16
F0.5671
tp751
a(g27
g6
F0.9852
tp752
a(g29
g3
F0.4438
tp753
a(g31
g6
F0.9092
tp754
a(S'it'
p755
g43
F0.9878
tp756
a(S'over'
p757
g19
F0.9392
tp758
a(S'the'
p759
g13
F0.9995
tp760
a(S'top'
p761
g16
F0.8567
tp762
a(S'of'
p763
g19
F0.9995
tp764
a(S'the'
p765
g13
F0.9996
tp766
a(S'big'
p767
g62
F0.8754
tp768
a(S'cube'
p769
g16
F0.9888
tp770
a(S'of'
p771
g19
F0.9964
tp772
a(S'butter'
p773
g16
F0.9431
tp774
a(g5
g6
F0.9975
tp775
asI210
(lp776
(S'oh'
p777
g25
F0.9941
tp778
a(g27
g6
F0.9747
tp779
a(g38
g39
F0.972
tp780
a(g31
g6
F0.9847
tp781
a(g5
g6
F0.9962
tp782
asI213
(lp783
(S"dad'll"
p784
g16
F0.9274
tp785
a(S'show'
p786
g10
F0.8745
tp787
a(S'you'
p788
g43
F0.9969
tp789
a(S'how'
p790
g132
F0.9981
tp791
a(g5
g6
F0.997
tp792
asI216
(lp793
(S'me'
p794
g43
F0.985
tp795
a(g21
g6
F0.9978
tp796
asI220
(lp797
(S'&-um'
p798
g25
F0.9213
tp799
a(g382
g43
F0.9987
tp800
a(S"don't"
p801
g10
F1.0
tp802
a(S'want'
p803
g10
F1.0
tp804
a(S'your'
p805
g13
F0.9932
tp806
a(S'fingers'
p807
g16
F0.9935
tp808
a(S'all'
p809
g13
F0.4513
tp810
a(S'over'
p811
g19
F0.9422
tp812
a(S'it'
p813
g43
F0.9993
tp814
a(S'though'
p815
g19
F0.6375
tp816
a(g5
g6
F0.9973
tp817
asI225
(lp818
(S'there'
p819
S'X'
p820
F0.6334
tp821
a(S'we'
p822
g43
F0.9968
tp823
a(S'go'
p824
g10
F0.9946
tp825
a(g5
g6
F0.998
tp826
asI228
(lp827
(S'give'
p828
g10
F0.9981
tp829
a(S'it'
p830
g43
F0.9582
tp831
a(g401
g13
F0.9948
tp832
a(S'little'
p833
g62
F0.9683
tp834
a(S'spin'
p835
g16
F0.9572
tp836
a(g5
g6
F0.9985
tp837
asI231
(lp838
(S"mine's"
p839
g219
F0.9614
tp840
a(S'already'
p841
g132
F0.985
tp842
a(S'xxx'
p843
g3
F0.3452
tp844
a(g5
g6
F0.9663
tp845
asI235
(lp846
(S'Heather'
p847
g228
F0.9886
tp848
a(S'sit'
p849
g10
F0.9929
tp850
a(S'down'
p851
S'T'
p852
F0.8898
tp853
a(S'me'
p854
g43
F0.9977
tp855
a(S'and'
p856
g110
F0.9932
tp857
a(S'you'
p858
g43
F0.9994
tp859
a(S'will'
p860
g10
F0.9994
tp861
a(S'share'
p862
g10
F0.9984
tp863
a(S'the'
p864
g13
F0.9997
tp865
a(S'butter'
p866
g16
F0.9909
tp867
a(S'in'
p868
g19
F0.9955
tp869
a(g401
g13
F0.9957
tp870
a(S'minute'
p871
g16
F0.8721
tp872
a(S'(.)'
p873
g3
F0.2884
tp874
a(S'let'
p875
g10
F0.9749
tp876
a(S'Sara'
p877
g228
F0.996
tp878
a(S'and'
p879
g110
F0.9981
tp880
a(S'Dad'
p881
g16
F0.6843
tp882
a(S'do'
p883
g10
F0.9956
tp884
a(S'the'
p885
g13
F0.9992
tp886
a(S'butter'
p887
g16
F0.965
tp888
a(S'first'
p889
g62
F0.6745
tp890
a(g27
g6
F0.9887
tp891
a(g29
g3
F0.5339
tp892
a(g31
g6
F0.7822
tp893
a(g5
g6
F0.9946
tp894
asI243
(lp895
(S'okay'
p896
g25
F0.9276
tp897
a(g27
g6
F0.9883
tp898
a(g38
g39
F0.972
tp899
a(g31
g6
F0.9847
tp900
a(g5
g6
F0.9962
tp901
asI247
(lp902
(S'roll'
p903
g10
F0.9681
tp904
a(S'it'
p905
g43
F0.9856
tp906
a(g25
g6
F0.999
tp907
asI250
(lp908
(S'oh'
p909
g25
F0.9964
tp910
a(S'look_it'
p911
g25
F0.482
tp912
a(g25
g6
F0.9977
tp913
asI254
(lp914
(S'someone'
p915
g16
F0.9359
tp916
a(S'ate'
p917
g10
F0.9953
tp918
a(S'that'
p919
g13
F0.686
tp920
a(S'one'
p921
g50
F0.7921
tp922
a(S'already'
p923
g132
F0.9897
tp924
a(g5
g6
F0.9971
tp925
asI258
(lp926
(S'no'
p927
g25
F0.6668
tp928
a(S'some'
p929
g13
F0.7387
tp930
a(S'[//]'
p931
g6
F0.3314
tp932
a(S'this'
p933
g43
F0.9476
tp934
a(S'is'
p935
g10
F0.998
tp936
a(S'fresher'
p937
g62
F0.9478
tp938
a(S'than'
p939
g19
F0.9927
tp940
a(S'(.)'
p941
g134
F0.3282
tp942
a(S'your'
p943
g13
F0.9752
tp944
a(S"grandmother's"
p945
g142
F0.5765
tp946
a(S'garden'
p947
g16
F0.9331
tp948
a(g5
g6
F0.9972
tp949
asI263
(lp950
(S'out'
p951
g19
F0.8279
tp952
a(S'of'
p953
g19
F0.9914
tp954
a(S"marmar's"
p955
S'Z'
p956
F0.5666
tp957
a(S'[:'
p958
g3
F0.9189
tp959
a(S"grandma's"
p960
g16
F0.446
tp961
a(g31
g6
F0.9912
tp962
a(S'garden'
p963
g16
F0.7715
tp964
a(g5
g6
F0.9984
tp965
asI267
(lp966
(S'hey'
p967
g25
F0.9781
tp968
a(S'dad'
p969
g16
F0.6883
tp970
a(S'me'
p971
g43
F0.996
tp972
a(S'need'
p973
g10
F0.987
tp974
a(S'do'
p975
g10
F0.9953
tp976
a(S'that'
p977
g43
F0.6965
tp978
a(S'watch'
p979
g10
F0.9633
tp980
a(g27
g6
F0.9883
tp981
a(g29
g3
F0.4696
tp982
a(g31
g6
F0.795
tp983
a(g5
g6
F0.9964
tp984
asI271
(lp985
(g38
g39
F0.9263
tp986
a(S'why'
p987
g132
F0.8586
tp988
a(S'do'
p989
g10
F0.9984
tp990
a(S'you'
p991
g43
F0.999
tp992
a(g29
g3
F0.3773
tp993
a(g27
g3
F0.535
tp994
a(g38
g39
F0.8293
tp995
a(g31
g6
F0.9886
tp996
a(S'have_to'
p997
g10
F0.9904
tp998
a(g38
g39
F0.8411
tp999
a(S'put'
p1000
g10
F0.994
tp1001
a(S'your'
p1002
g13
F0.9972
tp1003
a(S'hair'
p1004
g16
F0.9987
tp1005
a(S'back'
p1006
g132
F0.4827
tp1007
a(g29
g3
F0.4357
tp1008
a(g27
g3
F0.5345
tp1009
a(g29
g3
F0.9487
tp1010
a(g31
g6
F0.723
tp1011
a(g21
g6
F0.9957
tp1012
asI276
(lp1013
(g38
g39
F0.9374
tp1014
a(S'no'
p1015
g25
F0.889
tp1016
a(g382
g43
F0.9962
tp1017
a(S"don't>"
p1018
g10
F0.9998
tp1019
a(g27
g6
F0.9797
tp1020
a(g38
g39
F0.9635
tp1021
a(g31
g6
F0.9459
tp1022
a(S'think'
p1023
g10
F0.9899
tp1024
a(S'so'
p1025
g132
F0.9508
tp1026
a(g5
g6
F0.996
tp1027
asI279
(lp1028
(S'('
p1029
g6
F0.9736
tp1030
a(S'be)cause'
p1031
g19
F0.9977
tp1032
a(S'my'
p1033
g13
F0.9977
tp1034
a(S"hair's"
p1035
g142
F0.5107
tp1036
a(S'long'
p1037
g62
F0.9437
tp1038
a(g5
g6
F0.9981
tp1039
asI283
(lp1040
(S'what'
p1041
g43
F0.9931
tp1042
a(S'do'
p1043
g10
F0.9993
tp1044
a(S'you'
p1045
g43
F0.9997
tp1046
a(S'mean'
p1047
g10
F0.9868
tp1048
a(S'that'
p1049
g43
F0.7104
tp1050
a(g21
g6
F0.9982
tp1051
asI286
(lp1052
(S'oh'
p1053
g25
F0.9979
tp1054
a(S'what'
p1055
g43
F0.9111
tp1056
a(S"you're"
p1057
g219
F0.9926
tp1058
a(S'not'
p1059
g132
F0.9983
tp1060
a(S'getting'
p1061
g10
F0.9989
tp1062
a(S'enough'
p1063
g62
F0.4996
tp1064
a(S'butter'
p1065
g16
F0.9932
tp1066
a(S'on'
p1067
g19
F0.999
tp1068
a(S'your'
p1069
g13
F0.9914
tp1070
a(S'corn'
p1071
g16
F0.9989
tp1072
a(g21
g6
F0.9978
tp1073
asI292
(lp1074
(S'unhunh'
p1075
g25
F0.3092
tp1076
a(g5
g6
F0.9969
tp1077
asI295
(lp1078
(S'lemme'
p1079
g219
F0.9367
tp1080
a(S'[:'
p1081
g3
F0.933
tp1082
a(S'let'
p1083
g10
F0.9985
tp1084
a(S'me'
p1085
g43
F0.999
tp1086
a(g31
g6
F0.996
tp1087
a(S'see'
p1088
g10
F0.95
tp1089
a(g5
g6
F0.9976
tp1090
asI298
(lp1091
(S'xxx'
p1092
g3
F0.5822
tp1093
a(g5
g6
F0.9648
tp1094
asI299
(lp1095
(S'here'
p1096
g132
F0.9472
tp1097
a(S'let'
p1098
g10
F0.9926
tp1099
a(S'me'
p1100
g43
F0.9997
tp1101
a(S'do'
p1102
g10
F0.9988
tp1103
a(S'it'
p1104
g43
F0.9905
tp1105
a(g5
g6
F0.9986
tp1106
asI302
(lp1107
(S'xxx'
p1108
g3
F0.5822
tp1109
a(g5
g6
F0.9648
tp1110
asI303
(lp1111
(S'there'
p1112
g132
F0.5362
tp1113
a(S'you'
p1114
g43
F0.9982
tp1115
a(S'go'
p1116
g10
F0.9916
tp1117
a(g5
g6
F0.998
tp1118
asI306
(lp1119
(S'hey'
p1120
g25
F0.9963
tp1121
a(S'where'
p1122
g132
F0.7612
tp1123
a(S'are'
p1124
g10
F0.9905
tp1125
a(S'my'
p1126
g13
F0.9873
tp1127
a(S'crackers'
p1128
g16
F0.9971
tp1129
a(g5
g6
F0.9982
tp1130
asI309
(lp1131
(S'oh'
p1132
g25
F0.9966
tp1133
a(S"they're"
p1134
g219
F0.97
tp1135
a(S'over'
p1136
g19
F0.6451
tp1137
a(S'there'
p1138
g132
F0.7424
tp1139
a(S'next'
p1140
g62
F0.6932
tp1141
a(S'to'
p1142
g19
F0.9972
tp1143
a(S'Heather'
p1144
g228
F0.9987
tp1145
a(g5
g6
F0.995
tp1146
asI314
(lp1147
(S'want'
p1148
g10
F0.9975
tp1149
a(S'some'
p1150
g13
F0.9518
tp1151
a(S'more'
p1152
g62
F0.9782
tp1153
a(S'crackers'
p1154
g16
F0.9975
tp1155
a(g21
g6
F0.9981
tp1156
asI318
(lp1157
(S'here'
p1158
g132
F0.8674
tp1159
a(g5
g6
F0.9983
tp1160
asI321
(lp1161
(S'mom'
p1162
g16
F0.8094
tp1163
a(S'+/'
p1164
g6
F0.2217
tp1165
a(g5
g6
F0.996
tp1166
asI324
(lp1167
(S'xxx'
p1168
g3
F0.8981
tp1169
a(g27
g6
F0.661
tp1170
a(g29
g39
F0.3399
tp1171
a(g31
g6
F0.9856
tp1172
a(S'some'
p1173
g13
F0.9795
tp1174
a(S'hot'
p1175
g62
F0.9855
tp1176
a(S'rolls'
p1177
g16
F0.974
tp1178
a(g21
g6
F0.9988
tp1179
asI328
(lp1180
(g382
g43
F0.9983
tp1181
a(S'was'
p1182
g10
F0.9998
tp1183
a(S'hanging'
p1184
g10
F0.9998
tp1185
a(S'them'
p1186
g43
F0.9804
tp1187
a(S'on'
p1188
g19
F0.9702
tp1189
a(g401
g13
F0.9771
tp1190
a(S'+/'
p1191
g16
F0.478
tp1192
a(g5
g6
F0.9981
tp1193
asI332
(lp1194
(S'just'
p1195
g132
F0.9991
tp1196
a(S'take'
p1197
g10
F0.9996
tp1198
a(g401
g13
F0.9952
tp1199
a(S'cracker'
p1200
g16
F0.7383
tp1201
a(S'baby'
p1202
g16
F0.9977
tp1203
a(g5
g6
F0.9978
tp1204
asI335
(lp1205
(S'thanks'
p1206
g16
F0.9172
tp1207
a(g5
g6
F0.9972
tp1208
asI338
(lp1209
(S'oh'
p1210
g25
F0.9984
tp1211
a(g5
g6
F0.9938
tp1212
asI341
(lp1213
(S"what's"
p1214
g219
F0.9956
tp1215
a(S'in'
p1216
g19
F0.967
tp1217
a(S'that'
p1218
g13
F0.8585
tp1219
a(S'salad'
p1220
g16
F0.994
tp1221
a(g21
g6
F0.9981
tp1222
asI345
(lp1223
(S"what's"
p1224
g219
F0.9956
tp1225
a(S'in'
p1226
g19
F0.9904
tp1227
a(S'the'
p1228
g13
F0.9991
tp1229
a(S'salad'
p1230
g16
F0.9916
tp1231
a(g21
g6
F0.9981
tp1232
asI349
(lp1233
(S'cucumbers'
p1234
g16
F0.6998
tp1235
a(S'out'
p1236
g19
F0.9183
tp1237
a(S'of'
p1238
g19
F0.9961
tp1239
a(S'your'
p1240
g13
F0.997
tp1241
a(S"grandmother's"
p1242
g142
F0.4779
tp1243
a(S'garden'
p1244
g16
F0.6812
tp1245
a(S'(.)'
p1246
g3
F0.3188
tp1247
a(S'tomatoes'
p1248
g16
F0.9904
tp1249
a(S'from'
p1250
g19
F0.9999
tp1251
a(S'the'
p1252
g13
F0.9968
tp1253
a(S'grocery'
p1254
g16
F0.9367
tp1255
a(S'store'
p1256
g16
F0.8538
tp1257
a(S'some'
p1258
g13
F0.9681
tp1259
a(S'lettuce'
p1260
g16
F0.9933
tp1261
a(S'from'
p1262
g19
F0.9999
tp1263
a(S'the'
p1264
g13
F0.9968
tp1265
a(S'grocery'
p1266
g16
F0.9367
tp1267
a(S'store'
p1268
g16
F0.9672
tp1269
a(S'pepper'
p1270
g16
F0.604
tp1271
a(S'out'
p1272
g19
F0.9074
tp1273
a(S'of'
p1274
g19
F0.9974
tp1275
a(S'your'
p1276
g13
F0.997
tp1277
a(S"grandmother's"
p1278
g142
F0.4779
tp1279
a(S'garden'
p1280
g16
F0.8044
tp1281
a(S'and'
p1282
g110
F0.9982
tp1283
a(S'(.)'
p1284
g3
F0.1825
tp1285
a(S'some'
p1286
g13
F0.9728
tp1287
a(S'carrots'
p1288
g16
F0.9924
tp1289
a(S'from'
p1290
g19
F0.9999
tp1291
a(S'the'
p1292
g13
F0.9905
tp1293
a(g38
g39
F0.8794
tp1294
a(S'grocery'
p1295
g16
F0.7525
tp1296
a(S'store'
p1297
g16
F0.9859
tp1298
a(g29
g3
F0.6186
tp1299
a(g27
g3
F0.5345
tp1300
a(g29
g3
F0.9532
tp1301
a(g31
g6
F0.7962
tp1302
a(g5
g6
F0.9956
tp1303
asI360
(lp1304
(g38
g39
F0.9526
tp1305
a(g382
g43
F0.9988
tp1306
a(S'had'
p1307
g10
F1.0
tp1308
a(g401
g13
F0.974
tp1309
a(g29
g3
F0.282
tp1310
a(g27
g3
F0.535
tp1311
a(g38
g39
F0.8293
tp1312
a(g31
g6
F0.9837
tp1313
a(S'+/'
p1314
g16
F0.1634
tp1315
a(g5
g6
F0.9979
tp1316
asI363
(lp1317
(g401
g13
F0.9908
tp1318
a(S'roll'
p1319
g16
F0.9452
tp1320
a(S'and'
p1321
g110
F0.9964
tp1322
a(S'butter'
p1323
g16
F0.9818
tp1324
a(g21
g6
F0.9981
tp1325
asI367
(lp1326
(S'look'
p1327
g10
F0.9135
tp1328
a(S'at'
p1329
g19
F0.9926
tp1330
a(S'mine'
p1331
g43
F0.855
tp1332
a(g25
g6
F0.9979
tp1333
asI370
(lp1334
(S'you'
p1335
g43
F0.9968
tp1336
a(S'gonna'
p1337
g10
F0.9995
tp1338
a(S'have'
p1339
g10
F0.9999
tp1340
a(g401
g13
F0.9987
tp1341
a(S'hot'
p1342
g62
F0.9879
tp1343
a(S'dog'
p1344
g16
F0.9956
tp1345
a(g401
g13
F0.9762
tp1346
a(S'hamburger'
p1347
g16
F0.9961
tp1348
a(g401
g13
F0.9569
tp1349
a(S'piece'
p1350
g16
F0.9989
tp1351
a(S'of'
p1352
g19
F0.9968
tp1353
a(S'steak'
p1354
g16
F0.9754
tp1355
a(S'what'
p1356
g43
F0.9834
tp1357
a(S'do'
p1358
g10
F0.9992
tp1359
a(S'you'
p1360
g43
F0.9997
tp1361
a(S'want'
p1362
g10
F0.9997
tp1363
a(S'to'
p1364
g19
F0.9954
tp1365
a(S'eat'
p1366
g10
F0.9879
tp1367
a(g21
g6
F0.9975
tp1368
asI378
(lp1369
(g382
g43
F0.9983
tp1370
a(S'have'
p1371
g10
F0.9982
tp1372
a(S'steak'
p1373
g16
F0.9991
tp1374
a(g5
g6
F0.9986
tp1375
asI381
(lp1376
(g38
g39
F0.9526
tp1377
a(g382
g43
F0.9988
tp1378
a(S'have'
p1379
g10
F0.9993
tp1380
a(S'&-uh'
p1381
g25
F0.5693
tp1382
a(g29
g3
F0.3036
tp1383
a(S'[/]'
p1384
g3
F0.5822
tp1385
a(g382
g43
F0.9968
tp1386
a(S'have'
p1387
g10
F0.9988
tp1388
a(S'steak'
p1389
g16
F0.999
tp1390
a(g5
g6
F0.9985
tp1391
asI385
(lp1392
(S'www'
p1393
g228
F0.5201
tp1394
a(g5
g6
F0.9961
tp1395
asI387
(lp1396
(S'xxx'
p1397
g3
F0.5822
tp1398
a(g5
g6
F0.9648
tp1399
asI388
(lp1400
(S'yes'
p1401
g25
F0.9701
tp1402
a(S'you'
p1403
g43
F0.9966
tp1404
a(S'are'
p1405
g10
F0.9996
tp1406
a(S"you're"
p1407
g219
F0.9731
tp1408
a(S'eating'
p1409
g10
F0.9944
tp1410
a(S'dinner'
p1411
g16
F0.9924
tp1412
a(g5
g6
F0.9985
tp1413
asI392
(lp1414
(S'www'
p1415
g228
F0.5201
tp1416
a(g5
g6
F0.9961
tp1417
asI394
(lp1418
(S'you'
p1419
g43
F0.9979
tp1420
a(S'do'
p1421
g10
F0.9999
tp1422
a(S'that'
p1423
g43
F0.8919
tp1424
a(S'over'
p1425
g19
F0.9273
tp1426
a(S'your'
p1427
g13
F0.9915
tp1428
a(S'bowl'
p1429
g16
F0.9984
tp1430
a(S'Sara'
p1431
g228
F0.9779
tp1432
a(g5
g6
F0.995
tp1433
asI398
(lp1434
(S'your'
p1435
g13
F0.9533
tp1436
a(S'crackers'
p1437
g16
F0.9949
tp1438
a(S'you'
p1439
g43
F0.9196
tp1440
a(S'crunch'
p1441
g16
F0.8024
tp1442
a(g1029
g6
F0.9882
tp1443
a(S'th)em'
p1444
g43
F0.737
tp1445
a(S'over'
p1446
g19
F0.9639
tp1447
a(S'your'
p1448
g13
F0.9915
tp1449
a(S'bowl'
p1450
g16
F0.9995
tp1451
a(S'into'
p1452
g19
F0.9998
tp1453
a(S'your'
p1454
g13
F0.9917
tp1455
a(S'soup'
p1456
g16
F0.9986
tp1457
a(g5
g6
F0.9983
tp1458
asI403
(lp1459
(S'well'
p1460
g25
F0.7616
tp1461
a(S"I'll"
p1462
g219
F0.9801
tp1463
a(S'have'
p1464
g10
F0.9999
tp1465
a(g401
g13
F0.9945
tp1466
a(S'cracker'
p1467
g16
F0.8533
tp1468
a(g5
g6
F0.9966
tp1469
asI406
(lp1470
(S'take'
p1471
g10
F0.9896
tp1472
a(S'that'
p1473
g43
F0.7496
tp1474
a(S'off'
p1475
g19
F0.408
tp1476
a(S'of'
p1477
g19
F0.9972
tp1478
a(S'the'
p1479
g13
F0.9988
tp1480
a(S'hook'
p1481
g16
F0.9986
tp1482
a(g5
g6
F0.9981
tp1483
asI409
(lp1484
(S'pass'
p1485
g10
F0.9237
tp1486
a(S'the'
p1487
g13
F0.9994
tp1488
a(S'crackers'
p1489
g16
F0.9966
tp1490
a(g5
g6
F0.9986
tp1491
asI412
(lp1492
(S'please'
p1493
g10
F0.9317
tp1494
a(S'+/'
p1495
g228
F0.2909
tp1496
a(g5
g6
F0.9934
tp1497
asI416
(lp1498
(g382
g43
F0.9982
tp1499
a(S'think'
p1500
g10
F0.9999
tp1501
a(g382
g43
F0.9991
tp1502
a(S'got'
p1503
g10
F0.9995
tp1504
a(S'enough'
p1505
g62
F0.3841
tp1506
a(g5
g6
F0.9984
tp1507
asI419
(lp1508
(g1029
g6
F0.9736
tp1509
a(S'be)cause'
p1510
g19
F0.9916
tp1511
a(S"mine's"
p1512
g219
F0.9649
tp1513
a(S'warm'
p1514
g62
F0.9879
tp1515
a(g5
g6
F0.9985
tp1516
asI424
(lp1517
(S'(..)'
p1518
g3
F0.4073
tp1519
a(S'Heather'
p1520
g228
F0.9904
tp1521
a(S'please'
p1522
g10
F0.9848
tp1523
a(S'sit'
p1524
g10
F0.9991
tp1525
a(S'up'
p1526
g852
F0.9819
tp1527
a(S'at'
p1528
g19
F0.9996
tp1529
a(S'the'
p1530
g13
F0.9992
tp1531
a(S'table'
p1532
g16
F0.9934
tp1533
a(S'the'
p1534
g13
F0.9932
tp1535
a(S'right'
p1536
g62
F0.9268
tp1537
a(S'way'
p1538
g16
F0.9753
tp1539
a(g5
g6
F0.9976
tp1540
asI429
(lp1541
(S'huh'
p1542
g25
F0.9657
tp1543
a(S'(.)'
p1544
g3
F0.298
tp1545
a(S'okay'
p1546
g25
F0.8061
tp1547
a(g5
g6
F0.9983
tp1548
asI432
(lp1549
(S"you're"
p1550
g219
F0.9894
tp1551
a(S'gonna'
p1552
g10
F0.9901
tp1553
a(S'end'
p1554
g10
F0.942
tp1555
a(S'up'
p1556
g852
F0.9567
tp1557
a(S'wearing'
p1558
g10
F0.9854
tp1559
a(S'more'
p1560
g62
F0.8568
tp1561
a(S'dinner'
p1562
g16
F0.9945
tp1563
a(S'than'
p1564
g19
F0.9987
tp1565
a(S"you're"
p1566
g219
F0.9615
tp1567
a(S'eating'
p1568
g10
F0.991
tp1569
a(g5
g6
F0.998
tp1570
asI438
(lp1571
(S'good'
p1572
g62
F0.9837
tp1573
a(S'corn'
p1574
g16
F0.9991
tp1575
a(g21
g6
F0.9971
tp1576
asI441
(lp1577
(S'mhm'
p1578
g25
F0.9761
tp1579
a(g5
g6
F0.9962
tp1580
asI444
(lp1581
(S'good'
p1582
g62
F0.9848
tp1583
a(S'corn'
p1584
g16
F0.9976
tp1585
a(S'Sara'
p1586
g228
F0.9566
tp1587
a(g21
g6
F0.996
tp1588
asI448
(lp1589
(S'mhm'
p1590
g25
F0.9761
tp1591
a(g5
g6
F0.9962
tp1592
asI451
(lp1593
(S'dad'
p1594
g16
F0.9038
tp1595
a(S'says'
p1596
g10
F0.9962
tp1597
a(S"it's"
p1598
g219
F0.988
tp1599
a(S'fresh'
p1600
g62
F0.9964
tp1601
a(S'xxx'
p1602
g16
F0.5847
tp1603
a(g5
g6
F0.9978
tp1604
asI454
(lp1605
(S'you'
p1606
g43
F0.998
tp1607
a(S'need'
p1608
g10
F0.9987
tp1609
a(S'to'
p1610
g19
F0.9699
tp1611
a(S'cut'
p1612
g10
F0.9611
tp1613
a(S'that'
p1614
g13
F0.7685
tp1615
a(S'meat'
p1616
g16
F0.989
tp1617
a(S'up'
p1618
g852
F0.7124
tp1619
a(S'on'
p1620
g19
F0.9966
tp1621
a(S'the'
p1622
g13
F0.9994
tp1623
a(S'plate'
p1624
g16
F0.9981
tp1625
a(g5
g6
F0.9984
tp1626
asI460
(lp1627
(S'almost'
p1628
g132
F0.9923
tp1629
a(S'lost'
p1630
g10
F0.8896
tp1631
a(S'that'
p1632
g13
F0.8328
tp1633
a(S'plate'
p1634
g16
F0.9989
tp1635
a(g25
g6
F0.999
tp1636
asI463
(lp1637
(S'mom'
p1638
g16
F0.7153
tp1639
a(S"there's"
p1640
g219
F0.7915
tp1641
a(g401
g13
F0.995
tp1642
a(S'hole'
p1643
g16
F0.9987
tp1644
a(S'in'
p1645
g19
F0.987
tp1646
a(S'here'
p1647
g132
F0.891
tp1648
a(g5
g6
F0.9985
tp1649
asI466
(lp1650
(S'yeah'
p1651
g25
F0.9922
tp1652
a(S'you'
p1653
g43
F0.9968
tp1654
a(S'just'
p1655
g132
F0.9998
tp1656
a(S'poke'
p1657
g10
F0.9959
tp1658
a(S'that'
p1659
g43
F0.7839
tp1660
a(S'with'
p1661
g19
F0.9988
tp1662
a(S'your'
p1663
g13
F0.9978
tp1664
a(S'finger'
p1665
g16
F0.9969
tp1666
a(S'Sara'
p1667
g228
F0.9665
tp1668
a(g5
g6
F0.9946
tp1669
asI471
(lp1670
(S'oh'
p1671
g25
F0.9963
tp1672
a(S'xxx'
p1673
g3
F0.3657
tp1674
a(g5
g6
F0.9721
tp1675
asI474
(lp1676
(S"don't"
p1677
g10
F0.9995
tp1678
a(S'do'
p1679
g10
F0.9998
tp1680
a(S'anymore'
p1681
g132
F0.9847
tp1682
a(g5
g6
F0.9978
tp1683
asI478
(lp1684
(S'is'
p1685
g10
F0.9789
tp1686
a(S'Investigator'
p1687
g16
F0.9345
tp1688
a(S'sitting'
p1689
g10
F0.9901
tp1690
a(S'on'
p1691
g19
F0.9756
tp1692
a(S'the'
p1693
g13
F0.998
tp1694
a(S'step'
p1695
g16
F0.9874
tp1696
a(g21
g6
F0.9977
tp1697
asI482
(lp1698
(S'hey'
p1699
g25
F0.998
tp1700
a(g5
g6
F0.9968
tp1701
asI485
(lp1702
(S'what'
p1703
g43
F0.9923
tp1704
a(S'was'
p1705
g10
F0.9986
tp1706
a(S'that'
p1707
g43
F0.5253
tp1708
a(S'Heather'
p1709
g228
F0.9918
tp1710
a(g21
g6
F0.9963
tp1711
asI488
(lp1712
(S'is'
p1713
g10
F0.9789
tp1714
a(S'Investigator'
p1715
g16
F0.9345
tp1716
a(S'sitting'
p1717
g10
F0.9901
tp1718
a(S'on'
p1719
g19
F0.9756
tp1720
a(S'the'
p1721
g13
F0.9996
tp1722
a(S'steps'
p1723
g16
F0.9945
tp1724
a(g21
g6
F0.9981
tp1725
asI493
(lp1726
(S'that'
p1727
g43
F0.6009
tp1728
a(S"doesn't"
p1729
g10
F0.9988
tp1730
a(S'matter'
p1731
g10
F0.8968
tp1732
a(S'just'
p1733
g132
F0.9998
tp1734
a(S'eat'
p1735
g10
F0.9989
tp1736
a(S'your'
p1737
g13
F0.9926
tp1738
a(S'dinner'
p1739
g16
F0.9978
tp1740
a(g5
g6
F0.9986
tp1741
asI498
(lp1742
(g1029
g6
F0.9531
tp1743
a(S're)member'
p1744
g10
F0.9979
tp1745
a(S'my'
p1746
g13
F0.9973
tp1747
a(S"bike's"
p1748
g16
F0.817
tp1749
a(S'laying'
p1750
g10
F0.9995
tp1751
a(S'out'
p1752
g852
F0.622
tp1753
a(S'there'
p1754
g132
F0.9119
tp1755
a(g25
g6
F0.9985
tp1756
asI505
(lp1757
(S'yeah'
p1758
g25
F0.9949
tp1759
a(S"Investigator's"
p1760
g956
F0.439
tp1761
a(S'watching'
p1762
g10
F0.9995
tp1763
a(S'it'
p1764
g43
F0.9966
tp1765
a(S"don't"
p1766
g10
F0.9999
tp1767
a(S'worry'
p1768
g10
F0.9983
tp1769
a(g5
g6
F0.9976
tp1770
asI511
(lp1771
(S"you're"
p1772
g219
F0.9894
tp1773
a(S'gonna'
p1774
g10
F0.9951
tp1775
a(S'want'
p1776
g10
F0.9999
tp1777
a(S'A_one'
p1778
g13
F0.9885
tp1779
a(S'right'
p1780
g62
F0.6153
tp1781
a(S'Heather'
p1782
g228
F0.9963
tp1783
a(g21
g6
F0.9957
tp1784
asI515
(lp1785
(S'mhm'
p1786
g25
F0.9761
tp1787
a(g5
g6
F0.9962
tp1788
asI518
(lp1789
(S'chop'
p1790
g10
F0.7647
tp1791
a(S'chop'
p1792
g16
F0.5451
tp1793
a(g25
g6
F0.9987
tp1794
asI521
(lp1795
(S'ketchup'
p1796
g16
F0.8978
tp1797
a(S'for'
p1798
g19
F0.9996
tp1799
a(S'Sara'
p1800
g228
F0.9969
tp1801
a(g21
g6
F0.996
tp1802
asI525
(lp1803
(S'xxx'
p1804
g3
F0.5822
tp1805
a(g5
g6
F0.9648
tp1806
asI526
(lp1807
(S"what'd"
p1808
g19
F0.2677
tp1809
a(S'you'
p1810
g43
F0.9993
tp1811
a(S'ask'
p1812
g10
F0.9987
tp1813
a(S'for'
p1814
g19
F0.9843
tp1815
a(g21
g6
F0.9965
tp1816
asI530
(lp1817
(S'chop'
p1818
g10
F0.7647
tp1819
a(S'chop'
p1820
g16
F0.5786
tp1821
a(g5
g6
F0.9987
tp1822
asI533
(lp1823
(S'chop'
p1824
g10
F0.7647
tp1825
a(S'chop'
p1826
g16
F0.5509
tp1827
a(g21
g6
F0.9974
tp1828
asI537
(lp1829
(S"what's"
p1830
g219
F0.9931
tp1831
a(S'that'
p1832
g13
F0.7051
tp1833
a(S'ketchup'
p1834
g16
F0.9958
tp1835
a(g21
g6
F0.9974
tp1836
asI541
(lp1837
(S'yeah'
p1838
g25
F0.9986
tp1839
a(g5
g6
F0.997
tp1840
asI544
(lp1841
(S'ketchup'
p1842
g16
F0.9707
tp1843
a(g5
g6
F0.9983
tp1844
asI548
(lp1845
(S'this'
p1846
g13
F0.9756
tp1847
a(S"one's"
p1848
g142
F0.7857
tp1849
a(S'so'
p1850
g19
F0.6017
tp1851
a(S'burned'
p1852
g62
F0.6791
tp1853
a(g5
g6
F0.9985
tp1854
asI551
(lp1855
(S'yeah'
p1856
g25
F0.9903
tp1857
a(S'it'
p1858
g43
F0.9982
tp1859
a(S'does'
p1860
g10
F0.9994
tp1861
a(S'look'
p1862
g10
F0.9413
tp1863
a(S'burned'
p1864
g10
F0.6786
tp1865
a(S"it's"
p1866
g219
F0.9964
tp1867
a(S'not'
p1868
g132
F0.9981
tp1869
a(S'burned'
p1870
g10
F0.9749
tp1871
a(S'though'
p1872
g19
F0.9097
tp1873
a(S'Sara'
p1874
g228
F0.9979
tp1875
a(S"it's"
p1876
g219
F0.9957
tp1877
a(S'just'
p1878
g132
F0.9992
tp1879
a(S'&-uh'
p1880
g134
F0.6655
tp1881
a(S'(.)'
p1882
g134
F0.455
tp1883
a(S'something'
p1884
g16
F0.9736
tp1885
a(S'inside'
p1886
g19
F0.9867
tp1887
a(S'the'
p1888
g13
F0.9994
tp1889
a(S'cup'
p1890
g16
F0.9886
tp1891
a(g1029
g6
F0.9869
tp1892
a(S'be)cause'
p1893
g19
F0.9975
tp1894
a(S'you'
p1895
g43
F0.9997
tp1896
a(S'can'
p1897
g10
F0.9997
tp1898
a(S'pick'
p1899
g10
F0.9994
tp1900
a(S'that'
p1901
g43
F0.5316
tp1902
a(S'right'
p1903
g132
F0.4821
tp1904
a(S'off'
p1905
g19
F0.8433
tp1906
a(S'see'
p1907
g10
F0.7871
tp1908
a(g21
g6
F0.9969
tp1909
asI562
(lp1910
(S"it's"
p1911
g219
F0.9984
tp1912
a(S'not'
p1913
g132
F0.9963
tp1914
a(S'burned'
p1915
g10
F0.8921
tp1916
a(g5
g6
F0.9983
tp1917
asI566
(lp1918
(S'but'
p1919
g110
F0.993
tp1920
a(S'you'
p1921
g43
F0.9995
tp1922
a(S"don't"
p1923
g10
F1.0
tp1924
a(S'have_to'
p1925
g10
F0.9997
tp1926
a(S'eat'
p1927
g10
F0.9996
tp1928
a(S'it'
p1929
g43
F0.9588
tp1930
a(S'you'
p1931
g43
F0.9978
tp1932
a(S'can'
p1933
g10
F0.9995
tp1934
a(g38
g39
F0.8126
tp1935
a(S'take'
p1936
g10
F0.9979
tp1937
a(S'another'
p1938
g13
F0.9917
tp1939
a(S'one'
p1940
g50
F0.7896
tp1941
a(g29
g3
F0.6304
tp1942
a(g27
g3
F0.5345
tp1943
a(g29
g3
F0.9539
tp1944
a(g31
g6
F0.8524
tp1945
a(g5
g6
F0.9948
tp1946
asI571
(lp1947
(g38
g39
F0.9374
tp1948
a(S'no'
p1949
g13
F0.36
tp1950
a(S'more'
p1951
g62
F0.7993
tp1952
a(S'Mom'
p1953
g16
F0.9752
tp1954
a(g29
g3
F0.601
tp1955
a(g27
g3
F0.535
tp1956
a(g38
g39
F0.7057
tp1957
a(g31
g6
F0.9842
tp1958
a(g5
g6
F0.9969
tp1959
asI574
(lp1960
(S'nope'
p1961
g25
F0.9942
tp1962
a(g5
g6
F0.9975
tp1963
asI577
(lp1964
(S"I'm"
p1965
g219
F0.9951
tp1966
a(S'gonna'
p1967
g10
F0.9954
tp1968
a(S'cut'
p1969
g10
F0.9929
tp1970
a(S'your'
p1971
g13
F0.9917
tp1972
a(S'steak'
p1973
g16
F0.9993
tp1974
a(S'up'
p1975
g19
F0.5222
tp1976
a(S'right'
p1977
g132
F0.9264
tp1978
a(S'now'
p1979
g132
F0.9951
tp1980
a(g5
g6
F0.9989
tp1981
asI582
(lp1982
(S'you'
p1983
g43
F0.9968
tp1984
a(S'gonna'
p1985
g10
F0.9995
tp1986
a(S'have'
p1987
g10
F0.9992
tp1988
a(S'steak'
p1989
g16
F0.9977
tp1990
a(g38
g39
F0.6917
tp1991
a(S'Sara'
p1992
g228
F0.963
tp1993
a(S'hot'
p1994
g62
F0.9455
tp1995
a(S'dog'
p1996
g16
F0.9993
tp1997
a(g29
g3
F0.6312
tp1998
a(g27
g3
F0.5345
tp1999
a(g29
g3
F0.9532
tp2000
a(g31
g6
F0.8148
tp2001
a(S'or'
p2002
g110
F0.9947
tp2003
a(S'hamburger'
p2004
g16
F0.9951
tp2005
a(g21
g6
F0.9974
tp2006
asI588
(lp2007
(g38
g39
F0.9526
tp2008
a(g382
g43
F0.9988
tp2009
a(S'want'
p2010
g10
F0.9998
tp2011
a(S'[//]'
p2012
g6
F0.4758
tp2013
a(S'you'
p2014
g43
F0.9989
tp2015
a(S'need'
p2016
g10
F0.9951
tp2017
a(g29
g3
F0.5541
tp2018
a(g27
g3
F0.535
tp2019
a(g38
g39
F0.8293
tp2020
a(g31
g6
F0.9812
tp2021
a(S'butter'
p2022
g16
F0.9688
tp2023
a(S'on'
p2024
g19
F0.999
tp2025
a(S'this'
p2026
g43
F0.8883
tp2027
a(g5
g6
F0.9992
tp2028
asI591
(lp2029
(S'you'
p2030
g43
F0.998
tp2031
a(S'need'
p2032
g10
F0.9954
tp2033
a(S'butter'
p2034
g16
F0.9778
tp2035
a(S'on'
p2036
g19
F0.9977
tp2037
a(S'that'
p2038
g43
F0.8616
tp2039
a(g21
g6
F0.9982
tp2040
asI595
(lp2041
(S"Dad'has"
p2042
g16
F0.852
tp2043
a(S'got'
p2044
g10
F0.9972
tp2045
a(S'the'
p2046
g13
F0.9994
tp2047
a(S'butter'
p2048
g16
F0.997
tp2049
a(g5
g6
F0.9987
tp2050
asI598
(lp2051
(S'only'
p2052
g132
F0.5441
tp2053
a(S'three'
p2054
g50
F0.8499
tp2055
a(S'more'
p2056
g62
F0.4947
tp2057
a(S'to'
p2058
g19
F0.9973
tp2059
a(S'go'
p2060
g10
F0.9965
tp2061
a(g5
g6
F0.9973
tp2062
asI601
(lp2063
(S"I'll"
p2064
g219
F0.9859
tp2065
a(S'take'
p2066
g10
F0.9998
tp2067
a(S'the'
p2068
g13
F0.9998
tp2069
a(S'little'
p2070
g62
F0.9984
tp2071
a(S'one'
p2072
g50
F0.9604
tp2073
a(S'(.)'
p2074
g3
F0.2367
tp2075
a(S'with'
p2076
g19
F0.9995
tp2077
a(S'the'
p2078
g13
F0.9994
tp2079
a(S'butter'
p2080
g16
F0.9977
tp2081
a(g5
g6
F0.9985
tp2082
asI606
(lp2083
(S'you'
p2084
g43
F0.9965
tp2085
a(S'wait'
p2086
g10
F0.9984
tp2087
a(S'and'
p2088
g110
F0.9945
tp2089
a(S'have'
p2090
g10
F0.9975
tp2091
a(S'something'
p2092
g16
F0.9964
tp2093
a(S'else'
p2094
g132
F0.9435
tp2095
a(S'besides'
p2096
g19
F0.7072
tp2097
a(S'corn'
p2098
g16
F0.9891
tp2099
a(S'please'
p2100
g10
F0.9204
tp2101
a(g5
g6
F0.998
tp2102
asI611
(lp2103
(S'hey'
p2104
g25
F0.9876
tp2105
a(S'dad'
p2106
g16
F0.9228
tp2107
a(g25
g6
F0.9988
tp2108
asI614
(lp2109
(S'me'
p2110
g43
F0.9984
tp2111
a(S'can'
p2112
g10
F0.9971
tp2113
a(S'pick'
p2114
g10
F0.9998
tp2115
a(S'up'
p2116
g852
F0.9663
tp2117
a(S'that'
p2118
g43
F0.5597
tp2119
a(S'xxx'
p2120
g3
F0.3894
tp2121
a(g5
g6
F0.9646
tp2122
asI617
(lp2123
(S'wanna'
p2124
g10
F0.9639
tp2125
a(S'see'
p2126
g10
F0.9846
tp2127
a(g21
g6
F0.9967
tp2128
asI621
(lp2129
(S'xxx'
p2130
g3
F0.5822
tp2131
a(g5
g6
F0.9648
tp2132
asI622
(lp2133
(S'xxx'
p2134
g3
F0.8981
tp2135
a(g27
g6
F0.661
tp2136
a(g29
g3
F0.3811
tp2137
a(g31
g6
F0.7604
tp2138
a(g5
g6
F0.9962
tp2139
asI623
(lp2140
(S'<&='
p2141
g228
F0.2832
tp2142
a(S'laughs'
p2143
g10
F0.9507
tp2144
a(g29
g3
F0.3768
tp2145
a(g27
g3
F0.4963
tp2146
a(g38
g39
F0.7259
tp2147
a(g31
g6
F0.9803
tp2148
a(g5
g6
F0.9959
tp2149
asI624
(lp2150
(S'what'
p2151
g43
F0.9738
tp2152
a(g27
g6
F0.9688
tp2153
a(g29
g3
F0.3811
tp2154
a(g31
g6
F0.5836
tp2155
a(g21
g6
F0.9963
tp2156
asI628
(lp2157
(S'xxx'
p2158
g3
F0.8981
tp2159
a(g27
g6
F0.6622
tp2160
a(g38
g39
F0.972
tp2161
a(g31
g6
F0.9847
tp2162
a(g5
g6
F0.9962
tp2163
asI629
(lp2164
(S'yes'
p2165
g25
F0.99
tp2166
a(S"it's"
p2167
g219
F0.9974
tp2168
a(S'like'
p2169
g19
F0.5374
tp2170
a(S'magic'
p2171
g16
F0.5355
tp2172
a(g5
g6
F0.9983
tp2173
asI632
(lp2174
(S'mm'
p2175
g25
F0.5842
tp2176
a(g5
g6
F0.9932
tp2177
asI635
(lp2178
(S'do'
p2179
g10
F0.9985
tp2180
a(S'you'
p2181
g43
F0.9989
tp2182
a(S'like'
p2183
g10
F0.7679
tp2184
a(S'bread'
p2185
g16
F0.9912
tp2186
a(S'and'
p2187
g110
F0.9985
tp2188
a(S'butter'
p2189
g16
F0.9713
tp2190
a(g21
g6
F0.9976
tp2191
asI639
(lp2192
(S'xxx'
p2193
g3
F0.6842
tp2194
a(S'stuck'
p2195
g10
F0.9203
tp2196
a(S'together'
p2197
g132
F0.8735
tp2198
a(g5
g6
F0.9981
tp2199
asI642
(lp2200
(g38
g39
F0.913
tp2201
a(S"don't"
p2202
g10
F0.9996
tp2203
a(S'talk'
p2204
g10
F0.999
tp2205
a(S'with'
p2206
g19
F0.9996
tp2207
a(S'your'
p2208
g13
F0.9979
tp2209
a(S'mouth'
p2210
g16
F0.9992
tp2211
a(S'full'
p2212
g62
F0.9742
tp2213
a(g29
g3
F0.4716
tp2214
a(g27
g3
F0.5345
tp2215
a(g29
g3
F0.949
tp2216
a(g31
g6
F0.7992
tp2217
a(g5
g6
F0.9936
tp2218
asI645
(lp2219
(g38
g39
F0.9227
tp2220
a(S'she'
p2221
g43
F0.998
tp2222
a(S'likes'
p2223
g10
F0.9995
tp2224
a(S'to'
p2225
g19
F0.9925
tp2226
a(S'stick'
p2227
g10
F0.9995
tp2228
a(S'it'
p2229
g43
F0.9924
tp2230
a(S'together'
p2231
g132
F0.9122
tp2232
a(g29
g3
F0.5449
tp2233
a(g27
g3
F0.535
tp2234
a(g38
g39
F0.768
tp2235
a(g31
g6
F0.985
tp2236
a(g5
g6
F0.9936
tp2237
asI648
(lp2238
(S'she'
p2239
g43
F0.9908
tp2240
a(S"doesn't"
p2241
g10
F0.9996
tp2242
a(S'like'
p2243
g10
F0.7937
tp2244
a(S'the'
p2245
g13
F0.9988
tp2246
a(S'bread'
p2247
g16
F0.998
tp2248
a(g38
g39
F0.5579
tp2249
a(S'and'
p2250
g110
F0.999
tp2251
a(S'butter'
p2252
g16
F0.9799
tp2253
a(g29
g3
F0.5184
tp2254
a(g27
g3
F0.5345
tp2255
a(g29
g3
F0.9597
tp2256
a(g31
g6
F0.6916
tp2257
a(g5
g6
F0.9952
tp2258
asI655
(lp2259
(g38
g39
F0.9355
tp2260
a(S"Angela's"
p2261
g956
F0.8116
tp2262
a(S'not'
p2263
g132
F0.99
tp2264
a(g29
g3
F0.5244
tp2265
a(g27
g3
F0.535
tp2266
a(g38
g39
F0.8293
tp2267
a(g31
g6
F0.989
tp2268
a(S'watching'
p2269
g10
F0.9998
tp2270
a(S'it'
p2271
g43
F0.9939
tp2272
a(g5
g6
F0.9988
tp2273
asI658
(lp2274
(S"don't"
p2275
g10
F0.9999
tp2276
a(S'you'
p2277
g43
F0.9992
tp2278
a(S'worry'
p2279
g10
F0.9994
tp2280
a(S'about'
p2281
g19
F0.9918
tp2282
a(S'it'
p2283
g43
F0.999
tp2284
a(g5
g6
F0.9986
tp2285
asI661
(lp2286
(S'just'
p2287
g132
F0.9991
tp2288
a(S'sit'
p2289
g10
F0.9984
tp2290
a(S'down'
p2291
g852
F0.9075
tp2292
a(S'[='
p2293
g3
F0.9414
tp2294
a(g25
g6
F0.9937
tp2295
a(S'small'
p2296
g62
F0.9373
tp2297
a(S'laugh'
p2298
g16
F0.9451
tp2299
a(g31
g6
F0.9955
tp2300
a(S'and'
p2301
g110
F0.9988
tp2302
a(S'eat'
p2303
g10
F0.9701
tp2304
a(g5
g6
F0.9983
tp2305
asI664
(lp2306
(S"nobody's"
p2307
g219
F0.9662
tp2308
a(S'gonna'
p2309
g10
F0.9918
tp2310
a(S'steal'
p2311
g10
F0.9989
tp2312
a(S'your'
p2313
g13
F0.9953
tp2314
a(S'bike'
p2315
g16
F0.9973
tp2316
a(g5
g6
F0.9979
tp2317
asI669
(lp2318
(g38
g39
F0.8848
tp2319
a(S'(be)cause'
p2320
g19
F0.9913
tp2321
a(S"it's>"
p2322
g219
F0.8959
tp2323
a(g27
g6
F0.9713
tp2324
a(g29
g3
F0.4438
tp2325
a(g31
g6
F0.8081
tp2326
a(S'laying'
p2327
g10
F0.9992
tp2328
a(S'on'
p2329
g19
F0.982
tp2330
a(S'the'
p2331
g13
F0.9996
tp2332
a(S'steps'
p2333
g16
F0.9978
tp2334
a(g5
g6
F0.9986
tp2335
asI674
(lp2336
(S'xxx'
p2337
g3
F0.8981
tp2338
a(g27
g6
F0.6622
tp2339
a(g38
g39
F0.972
tp2340
a(g31
g6
F0.9847
tp2341
a(g5
g6
F0.9962
tp2342
asI675
(lp2343
(S"it's"
p2344
g219
F0.9952
tp2345
a(S'laying'
p2346
g10
F0.9989
tp2347
a(S'down'
p2348
g852
F0.7559
tp2349
a(g21
g6
F0.9974
tp2350
asI678
(lp2351
(S'mhm'
p2352
g25
F0.9761
tp2353
a(g5
g6
F0.9962
tp2354
asI681
(lp2355
(g382
g43
F0.9983
tp2356
a(S'had'
p2357
g10
F1.0
tp2358
a(S'it'
p2359
g43
F0.9923
tp2360
a(S'standing'
p2361
g10
F1.0
tp2362
a(S'up'
p2363
g852
F0.9571
tp2364
a(S'when'
p2365
g132
F0.9898
tp2366
a(g382
g43
F0.9985
tp2367
a(S'came'
p2368
g10
F0.9993
tp2369
a(S'in'
p2370
g852
F0.5228
tp2371
a(g5
g6
F0.9962
tp2372
asI686
(lp2373
(S"it's"
p2374
g219
F0.9952
tp2375
a(S'laying'
p2376
g10
F0.9992
tp2377
a(S'down'
p2378
g852
F0.5675
tp2379
a(S'now'
p2380
g132
F0.9966
tp2381
a(g5
g6
F0.9986
tp2382
asI690
(lp2383
(S'maybe'
p2384
g132
F0.9677
tp2385
a(g382
g43
F0.9989
tp2386
a(S'should'
p2387
g10
F0.9999
tp2388
a(S'bring'
p2389
g10
F1.0
tp2390
a(S'the'
p2391
g13
F0.9996
tp2392
a(S'bike'
p2393
g16
F0.9912
tp2394
a(S'in'
p2395
g19
F0.9984
tp2396
a(S'you'
p2397
g43
F0.9992
tp2398
a(S'never'
p2399
g132
F0.9959
tp2400
a(S'know'
p2401
g10
F0.998
tp2402
a(S'somebody'
p2403
g16
F0.9518
tp2404
a(S'might'
p2405
g10
F0.9949
tp2406
a(S'steal'
p2407
g10
F0.9989
tp2408
a(S'it'
p2409
g43
F0.9907
tp2410
a(g5
g6
F0.9988
tp2411
asI697
(lp2412
(S'xxx'
p2413
g3
F0.5822
tp2414
a(g5
g6
F0.9648
tp2415
asI698
(lp2416
(S'stay'
p2417
g10
F0.4631
tp2418
a(g25
g6
F0.9981
tp2419
asI701
(lp2420
(g38
g39
F0.907
tp2421
a(S'just'
p2422
g132
F0.9995
tp2423
a(S'keep'
p2424
g10
F0.9896
tp2425
a(S'eating'
p2426
g10
F0.9865
tp2427
a(g29
g3
F0.4977
tp2428
a(g27
g3
F0.5345
tp2429
a(g29
g3
F0.9732
tp2430
a(g31
g6
F0.8062
tp2431
a(g5
g6
F0.9969
tp2432
asI704
(lp2433
(g38
g39
F0.9515
tp2434
a(S'move'
p2435
g10
F0.9705
tp2436
a(S'your'
p2437
g13
F0.9859
tp2438
a(S'clam'
p2439
g16
F0.9215
tp2440
a(S'chowder'
p2441
g16
F0.9901
tp2442
a(g29
g3
F0.5184
tp2443
a(g27
g3
F0.535
tp2444
a(g38
g39
F0.7916
tp2445
a(g31
g6
F0.9861
tp2446
a(g5
g6
F0.9959
tp2447
asI707
(lp2448
(S'oh'
p2449
g25
F0.9984
tp2450
a(g5
g6
F0.9938
tp2451
asI710
(lp2452
(S'no'
p2453
g25
F0.7968
tp2454
a(S"it's"
p2455
g219
F0.9957
tp2456
a(S'standing'
p2457
g10
F0.9984
tp2458
a(S'right'
p2459
g132
F0.6087
tp2460
a(S'up'
p2461
g852
F0.5586
tp2462
a(S'over'
p2463
g19
F0.9018
tp2464
a(S'there'
p2465
g132
F0.6966
tp2466
a(S"it's"
p2467
g219
F0.986
tp2468
a(S'fine'
p2469
g62
F0.9695
tp2470
a(g5
g6
F0.9985
tp2471
asI715
(lp2472
(S'she'
p2473
g43
F0.9971
tp2474
a(S'said'
p2475
g10
F0.9998
tp2476
a(S'it'
p2477
g43
F0.9965
tp2478
a(S'was'
p2479
g10
F0.9988
tp2480
a(S'laying'
p2481
g10
F0.9981
tp2482
a(S'on'
p2483
g19
F0.982
tp2484
a(S'the'
p2485
g13
F0.9996
tp2486
a(S'steps'
p2487
g16
F0.9985
tp2488
a(g5
g6
F0.9988
tp2489
asI720
(lp2490
(S"it's"
p2491
g219
F0.9952
tp2492
a(S'standing'
p2493
g10
F0.9994
tp2494
a(S'up'
p2495
g852
F0.9776
tp2496
a(g21
g6
F0.9978
tp2497
asI723
(lp2498
(S'what'
p2499
g43
F0.9835
tp2500
a(S'are'
p2501
g10
F0.9978
tp2502
a(S'you'
p2503
g43
F0.9993
tp2504
a(S'having'
p2505
g10
F0.9999
tp2506
a(g401
g13
F0.9982
tp2507
a(S'hot'
p2508
g62
F0.9879
tp2509
a(S'dog'
p2510
g16
F0.9986
tp2511
a(S'hamburger'
p2512
g16
F0.9971
tp2513
a(S'or'
p2514
g110
F0.9892
tp2515
a(S'steak'
p2516
g16
F0.9954
tp2517
a(g21
g6
F0.9977
tp2518
asI729
(lp2519
(S'steak'
p2520
g16
F0.9915
tp2521
a(g5
g6
F0.9983
tp2522
asI732
(lp2523
(S'steak'
p2524
g16
F0.9248
tp2525
a(S'you'
p2526
g43
F0.9893
tp2527
a(S'sure'
p2528
g62
F0.9492
tp2529
a(g21
g6
F0.9973
tp2530
asI737
(lp2531
(S'you'
p2532
g43
F0.9968
tp2533
a(S'wanna'
p2534
g10
F0.9979
tp2535
a(S'try'
p2536
g10
F0.9993
tp2537
a(g401
g13
F0.9966
tp2538
a(S'piece'
p2539
g16
F0.9822
tp2540
a(S'first'
p2541
g132
F0.5097
tp2542
a(S'\xe2\x86\x91'
p2543
g134
F0.4519
tp2544
a(g382
g43
F0.9979
tp2545
a(S'know'
p2546
g10
F0.9995
tp2547
a(S'how'
p2548
g132
F0.9901
tp2549
a(S'you'
p2550
g43
F0.9995
tp2551
a(S'are'
p2552
g10
F0.9985
tp2553
a(g5
g6
F0.9955
tp2554
asI744
(lp2555
(S'when'
p2556
g132
F0.9804
tp2557
a(S'you'
p2558
g43
F0.9984
tp2559
a(S'finish'
p2560
g10
F0.9996
tp2561
a(S'the'
p2562
g13
F0.9995
tp2563
a(S'bread'
p2564
g16
F0.9989
tp2565
a(g5
g6
F0.9982
tp2566
asI747
(lp2567
(S'you'
p2568
g43
F0.9812
tp2569
a(S'taste'
p2570
g10
F0.999
tp2571
a(S'it'
p2572
g43
F0.9651
tp2573
a(S'first'
p2574
g132
F0.629
tp2575
a(g382
g43
F0.9958
tp2576
a(S'wanna'
p2577
g10
F0.9991
tp2578
a(S'make'
p2579
g10
F0.9969
tp2580
a(S'sure'
p2581
g62
F0.9562
tp2582
a(S"you're"
p2583
g219
F0.9882
tp2584
a(S'gonna'
p2585
g10
F0.9908
tp2586
a(S'[:'
p2587
g3
F0.7834
tp2588
a(S'going'
p2589
g10
F0.9979
tp2590
a(S'to'
p2591
g19
F0.898
tp2592
a(g31
g6
F0.9807
tp2593
a(S'eat'
p2594
g10
F0.9985
tp2595
a(S'it'
p2596
g43
F0.9873
tp2597
a(g5
g6
F0.9985
tp2598
asI754
(lp2599
(S'you'
p2600
g43
F0.995
tp2601
a(S'always'
p2602
g132
F0.9918
tp2603
a(S'play'
p2604
g10
F0.9941
tp2605
a(S'[///]'
p2606
g6
F0.4175
tp2607
a(S'[='
p2608
g3
F0.9545
tp2609
a(g25
g6
F0.9897
tp2610
a(S'sigh'
p2611
g10
F0.8185
tp2612
a(S'of'
p2613
g19
F0.9748
tp2614
a(S'disgust'
p2615
g16
F0.9699
tp2616
a(g31
g6
F0.9926
tp2617
a(S'pouring'
p2618
g10
F0.9892
tp2619
a(S'out'
p2620
g19
F0.7177
tp2621
a(S'the'
p2622
g13
F0.9858
tp2623
a(g62
g16
F0.8017
tp2624
a(g5
g6
F0.9984
tp2625
asI758
(lp2626
(S"it's"
p2627
g219
F0.9984
tp2628
a(S'not'
p2629
g132
F0.9885
tp2630
a(S'what'
p2631
g43
F0.9665
tp2632
a(S'it'
p2633
g43
F0.9972
tp2634
a(S'always'
p2635
g132
F0.995
tp2636
a(S'did'
p2637
g10
F0.9939
tp2638
a(g5
g6
F0.9975
tp2639
asI762
(lp2640
(S'you'
p2641
g43
F0.9923
tp2642
a(S'like'
p2643
g10
F0.7039
tp2644
a(S'these'
p2645
g43
F0.8581
tp2646
a(g25
g6
F0.999
tp2647
asI765
(lp2648
(S'Sara'
p2649
g228
F0.9626
tp2650
a(S'these'
p2651
g13
F0.9
tp2652
a(S'Salisbury'
p2653
g228
F0.9848
tp2654
a(S'steaks'
p2655
g16
F0.984
tp2656
a(g25
g6
F0.9991
tp2657
asI769
(lp2658
(S"what's"
p2659
g219
F0.9909
tp2660
a(g38
g39
F0.7764
tp2661
a(S'Salisbury'
p2662
g228
F0.9852
tp2663
a(g29
g134
F0.3603
tp2664
a(g27
g6
F0.899
tp2665
a(g29
g3
F0.4438
tp2666
a(g31
g6
F0.7021
tp2667
a(S'+/'
p2668
g228
F0.1842
tp2669
a(g5
g6
F0.9959
tp2670
asI772
(lp2671
(g38
g39
F0.9001
tp2672
a(S'you'
p2673
g43
F0.9983
tp2674
a(S'want'
p2675
g10
F0.9991
tp2676
a(g29
g3
F0.5804
tp2677
a(g27
g3
F0.535
tp2678
a(g38
g39
F0.8293
tp2679
a(g31
g6
F0.9775
tp2680
a(S'Salisbury'
p2681
g228
F0.9877
tp2682
a(S'steak'
p2683
g16
F0.9924
tp2684
a(g21
g6
F0.9977
tp2685
asI777
(lp2686
(S"what's"
p2687
g219
F0.9871
tp2688
a(S'Salisbury'
p2689
g228
F0.9665
tp2690
a(S'steak'
p2691
g16
F0.9921
tp2692
a(g21
g6
F0.9974
tp2693
asI781
(lp2694
(g38
g39
F0.897
tp2695
a(S'the'
p2696
g13
F0.957
tp2697
a(g110
g110
F0.9554
tp2698
a(S'm'
p2699
g10
F0.5282
tp2700
a(g29
g134
F0.2542
tp2701
a(S'[//]'
p2702
g134
F0.5013
tp2703
a(S'the'
p2704
g13
F0.9985
tp2705
a(S'gravy'
p2706
g16
F0.9905
tp2707
a(S'and'
p2708
g110
F0.9981
tp2709
a(S'hamburgers'
p2710
g16
F0.9526
tp2711
a(S'like'
p2712
g19
F0.964
tp2713
a(g38
g39
F0.9001
tp2714
a(S'&Mi'
p2715
g134
F0.4463
tp2716
a(g29
g134
F0.6064
tp2717
a(S'[//]'
p2718
g134
F0.3292
tp2719
a(S'&-uh'
p2720
g134
F0.6771
tp2721
a(S'Mimi'
p2722
g228
F0.9993
tp2723
a(S'makes'
p2724
g10
F0.9123
tp2725
a(g5
g6
F0.9977
tp2726
asI787
(lp2727
(S'you'
p2728
g43
F0.9912
tp2729
a(S"haven't"
p2730
g10
F0.9913
tp2731
a(S'taken'
p2732
g10
F0.9995
tp2733
a(g401
g13
F0.9898
tp2734
a(S'bite'
p2735
g16
F0.994
tp2736
a(S'of'
p2737
g19
F0.9984
tp2738
a(S'your'
p2739
g13
F0.9932
tp2740
a(S'corn'
p2741
g16
F0.9994
tp2742
a(S'yet'
p2743
g132
F0.958
tp2744
a(g5
g6
F0.9983
tp2745
asI792
(lp2746
(S'xxx'
p2747
g3
F0.8981
tp2748
a(g27
g6
F0.661
tp2749
a(g29
g3
F0.3811
tp2750
a(g31
g6
F0.7604
tp2751
a(g5
g6
F0.9962
tp2752
asI793
(lp2753
(S'yessir'
p2754
g25
F0.9567
tp2755
a(g27
g6
F0.9826
tp2756
a(g38
g39
F0.972
tp2757
a(g31
g6
F0.9847
tp2758
a(g5
g6
F0.9962
tp2759
asI796
(lp2760
(S'where'
p2761
g132
F0.9821
tp2762
a(g21
g6
F0.9953
tp2763
asI799
(lp2764
(S'this'
p2765
g43
F0.9526
tp2766
a(S'is'
p2767
g10
F0.999
tp2768
a(g401
g13
F0.9904
tp2769
a(S'bite'
p2770
g16
F0.9905
tp2771
a(g5
g6
F0.9989
tp2772
asI802
(lp2773
(S'me'
p2774
g43
F0.9965
tp2775
a(S'bite'
p2776
g10
F0.9865
tp2777
a(S'this'
p2778
g13
F0.9509
tp2779
a(S'little'
p2780
g62
F0.9803
tp2781
a(g5
g6
F0.9986
tp2782
asI805
(lp2783
(S'here'
p2784
g132
F0.9505
tp2785
a(S'put'
p2786
g10
F0.936
tp2787
a(g401
g13
F0.9988
tp2788
a(S'little'
p2789
g62
F0.9973
tp2790
a(S'bit'
p2791
g16
F0.9809
tp2792
a(S'of'
p2793
g19
F0.9961
tp2794
a(S'pepper'
p2795
g16
F0.5581
tp2796
a(S'on'
p2797
g19
F0.997
tp2798
a(S'it'
p2799
g43
F0.997
tp2800
a(g5
g6
F0.9988
tp2801
asI810
(lp2802
(S'like'
p2803
g19
F0.8033
tp2804
a(S'pepper'
p2805
g16
F0.8454
tp2806
a(g21
g6
F0.9962
tp2807
asI814
(lp2808
(S'yeah'
p2809
g25
F0.9986
tp2810
a(g5
g6
F0.997
tp2811
asI817
(lp2812
(S'xxx'
p2813
g3
F0.6042
tp2814
a(S'that'
p2815
g43
F0.5318
tp2816
a(S'smells'
p2817
g10
F0.9922
tp2818
a(g5
g6
F0.998
tp2819
asI820
(lp2820
(S'stop'
p2821
g10
F0.9902
tp2822
a(S'it'
p2823
g43
F0.9872
tp2824
a(g5
g6
F0.9987
tp2825
asI823
(lp2826
(S'stop'
p2827
g10
F0.9902
tp2828
a(S'it'
p2829
g43
F0.9872
tp2830
a(g25
g6
F0.999
tp2831
asI826
(lp2832
(g401
g13
F0.9956
tp2833
a(S'little'
p2834
g62
F0.9983
tp2835
a(S'bit'
p2836
g16
F0.909
tp2837
a(S'salt'
p2838
g16
F0.9736
tp2839
a(g21
g6
F0.9977
tp2840
asI830
(lp2841
(S'very'
p2842
g132
F0.9844
tp2843
a(S'little'
p2844
g62
F0.9992
tp2845
a(g5
g6
F0.9984
tp2846
asI833
(lp2847
(S'she'
p2848
g43
F0.9959
tp2849
a(S"don't"
p2850
g10
F0.9999
tp2851
a(S'need'
p2852
g10
F0.9993
tp2853
a(S'salt'
p2854
g16
F0.7353
tp2855
a(S'and'
p2856
g110
F0.9982
tp2857
a(S'pepper'
p2858
g16
F0.6167
tp2859
a(S'dear'
p2860
g16
F0.8266
tp2861
a(g5
g6
F0.9984
tp2862
asI838
(lp2863
(S'0'
p2864
g50
F0.9816
tp2865
a(S'[='
p2866
g3
F0.9666
tp2867
a(g25
g6
F0.9878
tp2868
a(S'cry'
p2869
g10
F0.8331
tp2870
a(S'of'
p2871
g19
F0.9688
tp2872
a(S'protest'
p2873
g16
F0.9932
tp2874
a(g31
g6
F0.9802
tp2875
a(g25
g6
F0.9969
tp2876
asI839
(lp2877
(S'you'
p2878
g43
F0.9979
tp2879
a(S'do'
p2880
g10
F0.9997
tp2881
a(S'need'
p2882
g10
F0.963
tp2883
a(S'salt'
p2884
g16
F0.7353
tp2885
a(S'and'
p2886
g110
F0.9986
tp2887
a(S'pepper'
p2888
g16
F0.6711
tp2889
a(g21
g6
F0.9971
tp2890
asI843
(lp2891
(S'mm'
p2892
g25
F0.7864
tp2893
a(g25
g6
F0.9938
tp2894
asI846
(lp2895
(S'Heather'
p2896
g228
F0.9816
tp2897
a(g25
g6
F0.9903
tp2898
asI849
(lp2899
(S'Mom'
p2900
g16
F0.8533
tp2901
a(g25
g6
F0.9985
tp2902
asI852
(lp2903
(S'xxx'
p2904
g3
F0.5822
tp2905
a(g5
g6
F0.9648
tp2906
asI853
(lp2907
(S'oh'
p2908
g25
F0.9878
tp2909
a(S'you'
p2910
g43
F0.9961
tp2911
a(S'want'
p2912
g10
F0.9999
tp2913
a(S'some'
p2914
g13
F0.9933
tp2915
a(S'salad'
p2916
g16
F0.9938
tp2917
a(S'too'
p2918
g132
F0.9607
tp2919
a(g21
g6
F0.9969
tp2920
asI857
(lp2921
(S'xxx'
p2922
g3
F0.5822
tp2923
a(g5
g6
F0.9648
tp2924
asI858
(lp2925
(S'xxx'
p2926
g3
F0.5822
tp2927
a(g5
g6
F0.9648
tp2928
asI859
(lp2929
(S"here's"
p2930
g219
F0.92
tp2931
a(S'the'
p2932
g13
F0.9982
tp2933
a(S'steak'
p2934
g16
F0.9995
tp2935
a(g5
g6
F0.9986
tp2936
asI862
(lp2937
(S'you'
p2938
g43
F0.9981
tp2939
a(S'done'
p2940
g10
F0.9976
tp2941
a(S'with'
p2942
g19
F0.9986
tp2943
a(S'your'
p2944
g13
F0.9949
tp2945
a(S'soup'
p2946
g16
F0.9968
tp2947
a(g21
g6
F0.9971
tp2948
asI865
(lp2949
(S'you'
p2950
g43
F0.9968
tp2951
a(S"don't"
p2952
g10
F1.0
tp2953
a(S'like'
p2954
g10
F0.9376
tp2955
a(S'clam'
p2956
g16
F0.7034
tp2957
a(S'chowder'
p2958
g16
F0.9823
tp2959
a(S'huh'
p2960
g25
F0.8775
tp2961
a(g21
g6
F0.9978
tp2962
asI868
(lp2963
(S'you'
p2964
g43
F0.9812
tp2965
a(S'taste'
p2966
g10
F0.9966
tp2967
a(S'that'
p2968
g19
F0.6091
tp2969
a(S'Salisbury'
p2970
g228
F0.9947
tp2971
a(S'steak'
p2972
g16
F0.9899
tp2973
a(S'make'
p2974
g10
F0.9203
tp2975
a(S'sure'
p2976
g62
F0.9501
tp2977
a(S"it's"
p2978
g219
F0.9963
tp2979
a(S'still'
p2980
g132
F0.9993
tp2981
a(S'good'
p2982
g62
F0.9978
tp2983
a(g21
g6
F0.9963
tp2984
asI873
(lp2985
(S'xxx'
p2986
g3
F0.5822
tp2987
a(g5
g6
F0.9648
tp2988
asI874
(lp2989
(g38
g39
F0.9526
tp2990
a(g382
g43
F0.999
tp2991
a(S'heard'
p2992
g10
F0.9996
tp2993
a(g29
g6
F0.3103
tp2994
a(S'[//]'
p2995
g6
F0.3878
tp2996
a(S"I'm"
p2997
g219
F0.9951
tp2998
a(S'eatin(g'
p2999
g10
F0.9145
tp3000
a(S')'
p3001
g6
F0.9896
tp3002
a(S'hamburger'
p3003
g16
F0.9874
tp3004
a(g5
g6
F0.9985
tp3005
asI877
(lp3006
(g382
g43
F0.9967
tp3007
a(S'already'
p3008
g132
F0.9904
tp3009
a(S'had'
p3010
g10
F0.9972
tp3011
a(S'two'
p3012
g50
F0.9387
tp3013
a(S'steaks'
p3014
g16
F0.9938
tp3015
a(S"it's"
p3016
g219
F0.9907
tp3017
a(S'fine'
p3018
g62
F0.9862
tp3019
a(g5
g6
F0.9986
tp3020
asI882
(lp3021
(S'fine'
p3022
g62
F0.9246
tp3023
a(g21
g6
F0.9956
tp3024
asI885
(lp3025
(S'mhm'
p3026
g25
F0.9761
tp3027
a(g5
g6
F0.9962
tp3028
asI888
(lp3029
(S'tastes'
p3030
g10
F0.9567
tp3031
a(S'better'
p3032
g62
F0.8812
tp3033
a(S'than'
p3034
g19
F0.9984
tp3035
a(S'the'
p3036
g13
F0.9985
tp3037
a(S'hamburgers'
p3038
g16
F0.9965
tp3039
a(g5
g6
F0.9982
tp3040
asI891
(lp3041
(S'you'
p3042
g43
F0.998
tp3043
a(S'want'
p3044
g10
F0.9993
tp3045
a(S'bacon'
p3046
g16
F0.9822
tp3047
a(S'bits'
p3048
g16
F0.9944
tp3049
a(S'on'
p3050
g19
F0.9988
tp3051
a(S'your'
p3052
g13
F0.9923
tp3053
a(S'salad'
p3054
g16
F0.9925
tp3055
a(S'Sara'
p3056
g228
F0.957
tp3057
a(g21
g6
F0.997
tp3058
asI897
(lp3059
(g382
g43
F0.9976
tp3060
a(S'will'
p3061
g10
F0.9997
tp3062
a(S'not'
p3063
g132
F0.9947
tp3064
a(S'have'
p3065
g10
F0.9933
tp3066
a(S'bacon'
p3067
g16
F0.9931
tp3068
a(S'bits'
p3069
g16
F0.9986
tp3070
a(g5
g6
F0.9984
tp3071
asI900
(lp3072
(S'xxx'
p3073
g3
F0.7556
tp3074
a(g382
g43
F0.9958
tp3075
a(S'will'
p3076
g10
F0.9994
tp3077
a(g5
g6
F0.9974
tp3078
asI903
(lp3079
(S'where'
p3080
g132
F0.9373
tp3081
a(S'are'
p3082
g10
F0.9786
tp3083
a(S'those'
p3084
g13
F0.8455
tp3085
a(S'bacon'
p3086
g16
F0.9969
tp3087
a(S'bits'
p3088
g16
F0.997
tp3089
a(g21
g6
F0.9977
tp3090
asI907
(lp3091
(S'where'
p3092
g132
F0.9373
tp3093
a(S'are'
p3094
g10
F0.9717
tp3095
a(S'they'
p3096
g43
F0.9937
tp3097
a(g21
g6
F0.9966
tp3098
asI911
(lp3099
(S"they're"
p3100
g219
F0.9456
tp3101
a(S'up'
p3102
g852
F0.6333
tp3103
a(S'on'
p3104
g19
F0.9939
tp3105
a(S'the'
p3106
g13
F0.9993
tp3107
a(S'counter'
p3108
g16
F0.9959
tp3109
a(S"I'll"
p3110
g219
F0.9787
tp3111
a(S'get'
p3112
g10
F0.9982
tp3113
a(g1029
g6
F0.9826
tp3114
a(S'th)em'
p3115
g43
F0.6602
tp3116
a(g5
g6
F0.9975
tp3117
asI916
(lp3118
(S'we'
p3119
g43
F0.9968
tp3120
a(S"don't"
p3121
g10
F1.0
tp3122
a(S'keep'
p3123
g10
F0.9969
tp3124
a(S'xxx'
p3125
g10
F0.5966
tp3126
a(S'up'
p3127
g852
F0.9661
tp3128
a(S'on'
p3129
g19
F0.9966
tp3130
a(S'the'
p3131
g13
F0.9993
tp3132
a(S'counter'
p3133
g16
F0.999
tp3134
a(g5
g6
F0.9986
tp3135
asI922
(lp3136
(g382
g43
F0.9982
tp3137
a(S'told'
p3138
g10
F1.0
tp3139
a(S'you'
p3140
g43
F0.9985
tp3141
a(S"I'd"
p3142
g219
F0.934
tp3143
a(S'get'
p3144
g10
F1.0
tp3145
a(S'them'
p3146
g13
F0.6105
tp3147
a(S'one'
p3148
g50
F0.9706
tp3149
a(S'minute'
p3150
g16
F0.9428
tp3151
a(S'please'
p3152
g10
F0.9622
tp3153
a(S'okay'
p3154
g25
F0.665
tp3155
a(S'\xe2\x86\x91'
p3156
g228
F0.4629
tp3157
a(S'let'
p3158
g10
F0.9985
tp3159
a(S'me'
p3160
g43
F0.987
tp3161
a(S'dish'
p3162
g10
F0.5234
tp3163
a(S'out'
p3164
g852
F0.5035
tp3165
a(S'your'
p3166
g13
F0.9813
tp3167
a(S'salad'
p3168
g16
F0.9973
tp3169
a(g5
g6
F0.9989
tp3170
asI930
(lp3171
(S'xxx'
p3172
g3
F0.5822
tp3173
a(g5
g6
F0.9648
tp3174
asI931
(lp3175
(S'no'
p3176
g25
F0.8567
tp3177
a(g382
g43
F0.9962
tp3178
a(S"don't"
p3179
g10
F1.0
tp3180
a(S'have'
p3181
g10
F0.9999
tp3182
a(S'any'
p3183
g13
F0.9983
tp3184
a(S'chick'
p3185
g16
F0.9841
tp3186
a(S'peas'
p3187
g16
F0.9847
tp3188
a(g5
g6
F0.9983
tp3189
asI935
(lp3190
(g38
g39
F0.9526
tp3191
a(g382
g43
F0.9988
tp3192
a(S'have'
p3193
g10
F0.9999
tp3194
a(S'some'
p3195
g13
F0.9219
tp3196
a(g29
g134
F0.339
tp3197
a(S'[//]'
p3198
g134
F0.3115
tp3199
a(g382
g43
F0.9967
tp3200
a(S"don't"
p3201
g10
F1.0
tp3202
a(S'have'
p3203
g10
F0.9999
tp3204
a(S'any'
p3205
g13
F0.9983
tp3206
a(S'chick'
p3207
g16
F0.9853
tp3208
a(S'peas'
p3209
g16
F0.9725
tp3210
a(S'tonight'
p3211
g16
F0.8043
tp3212
a(g5
g6
F0.9992
tp3213
asI940
(lp3214
(g382
g43
F0.9983
tp3215
a(S'have'
p3216
g10
F0.999
tp3217
a(S'bacon'
p3218
g16
F0.9945
tp3219
a(S'bits'
p3220
g16
F0.9904
tp3221
a(S'(.)'
p3222
g6
F0.251
tp3223
a(S'and'
p3224
g110
F0.999
tp3225
a(S'croutons'
p3226
g16
F0.8341
tp3227
a(S'but'
p3228
g110
F0.9768
tp3229
a(S'you'
p3230
g43
F0.9996
tp3231
a(S"didn't"
p3232
g10
F1.0
tp3233
a(S'like'
p3234
g10
F0.748
tp3235
a(S'the'
p3236
g13
F0.9975
tp3237
a(S'croutons'
p3238
g16
F0.8863
tp3239
a(S'last'
p3240
g62
F0.9845
tp3241
a(S'time'
p3242
g16
F0.9995
tp3243
a(g382
g43
F0.9947
tp3244
a(S'had'
p3245
g10
F1.0
tp3246
a(S'them'
p3247
g43
F0.984
tp3248
a(g5
g6
F0.9983
tp3249
asI947
(lp3250
(g38
g39
F0.9199
tp3251
a(S'me'
p3252
g43
F0.9967
tp3253
a(S'xxx'
p3254
g3
F0.6967
tp3255
a(g29
g3
F0.955
tp3256
a(g27
g3
F0.5345
tp3257
a(g29
g3
F0.9532
tp3258
a(g31
g6
F0.7021
tp3259
a(S'+/'
p3260
g228
F0.1842
tp3261
a(g5
g6
F0.9959
tp3262
asI950
(lp3263
(g38
g39
F0.9128
tp3264
a(S'would'
p3265
g10
F0.9994
tp3266
a(S'you'
p3267
g43
F0.9983
tp3268
a(g29
g3
F0.3835
tp3269
a(g27
g3
F0.535
tp3270
a(g38
g39
F0.8293
tp3271
a(g31
g6
F0.9893
tp3272
a(S'like'
p3273
g10
F0.7155
tp3274
a(S'to'
p3275
g19
F0.9859
tp3276
a(S'try'
p3277
g10
F0.9999
tp3278
a(S'them'
p3279
g43
F0.9806
tp3280
a(S'again'
p3281
g132
F0.9946
tp3282
a(g21
g6
F0.9973
tp3283
asI955
(lp3284
(S'you'
p3285
g43
F0.998
tp3286
a(S'want'
p3287
g10
F0.9995
tp3288
a(S"Ken's"
p3289
g956
F0.856
tp3290
a(S'Italian'
p3291
g62
F0.7156
tp3292
a(g21
g6
F0.9964
tp3293
asI959
(lp3294
(S'creamy'
p3295
g62
F0.9504
tp3296
a(S'Italian'
p3297
g62
F0.8012
tp3298
a(S'or'
p3299
g110
F0.988
tp3300
a(S'regular'
p3301
g62
F0.9176
tp3302
a(S'Italian'
p3303
g62
F0.8146
tp3304
a(g21
g6
F0.9941
tp3305
asI963
(lp3306
(g38
g39
F0.9362
tp3307
a(S'creamy'
p3308
g62
F0.969
tp3309
a(S'Italian'
p3310
g62
F0.6991
tp3311
a(g29
g3
F0.4416
tp3312
a(g27
g3
F0.5345
tp3313
a(g29
g3
F0.9749
tp3314
a(g31
g6
F0.7541
tp3315
a(g5
g6
F0.9962
tp3316
asI966
(lp3317
(g38
g39
F0.9362
tp3318
a(S'creamy'
p3319
g62
F0.969
tp3320
a(S'Italian'
p3321
g62
F0.6991
tp3322
a(g29
g3
F0.4416
tp3323
a(g27
g3
F0.535
tp3324
a(g38
g39
F0.6902
tp3325
a(g31
g6
F0.9839
tp3326
a(g5
g6
F0.9962
tp3327
asI969
(lp3328
(g382
g43
F0.9978
tp3329
a(S"didn't"
p3330
g10
F1.0
tp3331
a(S'know'
p3332
g10
F0.9999
tp3333
a(S'you'
p3334
g43
F0.9993
tp3335
a(S'wanted'
p3336
g10
F0.9991
tp3337
a(g401
g13
F0.9972
tp3338
a(S'salad'
p3339
g16
F0.9965
tp3340
a(g5
g6
F0.9987
tp3341
asI974
(lp3342
(S'would'
p3343
g10
F0.9987
tp3344
a(S'you'
p3345
g43
F0.9976
tp3346
a(S'pass'
p3347
g10
F0.9992
tp3348
a(S'me'
p3349
g43
F0.9966
tp3350
a(S'the'
p3351
g13
F0.9966
tp3352
a(S'salt'
p3353
g16
F0.9822
tp3354
a(g5
g6
F0.9981
tp3355
asI977
(lp3356
(S'could'
p3357
g10
F0.9917
tp3358
a(g382
g43
F0.9994
tp3359
a(S'have'
p3360
g10
F0.9997
tp3361
a(S'little'
p3362
g62
F0.9094
tp3363
a(S'bite'
p3364
g16
F0.9837
tp3365
a(S'of'
p3366
g19
F0.9937
tp3367
a(S'something'
p3368
g16
F0.9961
tp3369
a(S'to'
p3370
g19
F0.9986
tp3371
a(S'eat'
p3372
g10
F0.9879
tp3373
a(S'and'
p3374
g110
F0.9958
tp3375
a(S'then'
p3376
g132
F0.9928
tp3377
a(S"I'll"
p3378
g219
F0.9836
tp3379
a(S'&-um'
p3380
g134
F0.6642
tp3381
a(S'+'
p3382
g134
F0.6066
tp3383
a(S'...'
p3384
g39
F0.6955
tp3385
asI983
(lp3386
(S'Heather'
p3387
g228
F0.9873
tp3388
a(S'throw'
p3389
g10
F0.9757
tp3390
a(S'down'
p3391
g852
F0.8678
tp3392
a(S'the'
p3393
g13
F0.9995
tp3394
a(S'bun'
p3395
g16
F0.9584
tp3396
a(S'Heather'
p3397
g228
F0.9892
tp3398
a(S'and'
p3399
g110
F0.9985
tp3400
a(S"I'll"
p3401
g219
F0.9898
tp3402
a(S'put'
p3403
g10
F0.9985
tp3404
a(S'some'
p3405
g13
F0.9937
tp3406
a(S'butter'
p3407
g16
F0.9855
tp3408
a(S'on'
p3409
g19
F0.9988
tp3410
a(S'it'
p3411
g43
F0.9982
tp3412
a(S'for'
p3413
g19
F0.9991
tp3414
a(S'you'
p3415
g43
F0.9992
tp3416
a(g5
g6
F0.9996
tp3417
asI990
(lp3418
(S'is'
p3419
g10
F0.9983
tp3420
a(S'this'
p3421
g43
F0.8667
tp3422
a(S'for'
p3423
g19
F0.9971
tp3424
a(S'me'
p3425
g43
F0.9973
tp3426
a(g21
g6
F0.9984
tp3427
asI994
(lp3428
(S'please'
p3429
g10
F0.9748
tp3430
a(S'pass'
p3431
g10
F0.9964
tp3432
a(S'me'
p3433
g43
F0.9971
tp3434
a(S'the'
p3435
g13
F0.9988
tp3436
a(S'buns'
p3437
g16
F0.9935
tp3438
a(g110
g110
F0.9921
tp3439
a(g337
g6
F0.8816
tp3440
a(S'whispers'
p3441
g16
F0.6058
tp3442
a(g21
g6
F0.9978
tp3443
asI997
(lp3444
(g2864
g50
F0.9816
tp3445
a(S'[='
p3446
g3
F0.9666
tp3447
a(g25
g6
F0.9905
tp3448
a(S'short'
p3449
g62
F0.9615
tp3450
a(S'laugh'
p3451
g16
F0.9323
tp3452
a(g31
g6
F0.9894
tp3453
a(g5
g6
F0.9959
tp3454
asI998
(lp3455
(S'what'
p3456
g43
F0.9171
tp3457
a(g21
g6
F0.9924
tp3458
asI1001
(lp3459
(S'yeah'
p3460
g25
F0.9994
tp3461
a(g25
g6
F0.9967
tp3462
asI1004
(lp3463
(S'what'
p3464
g43
F0.9835
tp3465
a(S'are'
p3466
g10
F0.9978
tp3467
a(S'you'
p3468
g43
F0.9996
tp3469
a(S'saying'
p3470
g10
F0.997
tp3471
a(g21
g6
F0.9983
tp3472
asI1007
(lp3473
(g110
g110
F0.9893
tp3474
a(g337
g6
F0.8669
tp3475
a(S'laughs'
p3476
g10
F0.8696
tp3477
a(g5
g6
F0.9983
tp3478
asI1008
(lp3479
(S'it'
p3480
g43
F0.9949
tp3481
a(S'rolled'
p3482
g10
F0.9946
tp3483
a(S'right'
p3484
g132
F0.7445
tp3485
a(S'on'
p3486
g19
F0.9975
tp3487
a(S'my'
p3488
g13
F0.9969
tp3489
a(S'plate'
p3490
g16
F0.9911
tp3491
a(S'Mom'
p3492
g16
F0.9488
tp3493
a(g25
g6
F0.9988
tp3494
asI1012
(lp3495
(g110
g110
F0.9893
tp3496
a(g337
g6
F0.8669
tp3497
a(S'laughs'
p3498
g10
F0.8696
tp3499
a(g5
g6
F0.9983
tp3500
asI1013
(lp3501
(S'can'
p3502
g10
F0.9938
tp3503
a(g382
g43
F0.9994
tp3504
a(S'have'
p3505
g10
F1.0
tp3506
a(S'the'
p3507
g13
F0.9965
tp3508
a(S'xxx'
p3509
g16
F0.5605
tp3510
a(S'dressing'
p3511
g10
F0.96
tp3512
a(g21
g6
F0.9982
tp3513
asI1016
(lp3514
(g110
g110
F0.9893
tp3515
a(g337
g6
F0.8669
tp3516
a(S'laughs'
p3517
g10
F0.8696
tp3518
a(g5
g6
F0.9983
tp3519
asI1018
(lp3520
(S'what'
p3521
g43
F0.9965
tp3522
a(S'did'
p3523
g10
F0.9994
tp3524
a(S'you'
p3525
g43
F0.9995
tp3526
a(S'say'
p3527
g10
F0.9857
tp3528
a(g21
g6
F0.9977
tp3529
asI1021
(lp3530
(g110
g110
F0.9893
tp3531
a(g337
g6
F0.8669
tp3532
a(S'laughs'
p3533
g10
F0.8696
tp3534
a(g5
g6
F0.9983
tp3535
asI1022
(lp3536
(S'what'
p3537
g43
F0.9559
tp3538
a(S'Sara'
p3539
g228
F0.9532
tp3540
a(g21
g6
F0.9952
tp3541
asI1026
(lp3542
(S'what'
p3543
g43
F0.9965
tp3544
a(S'did'
p3545
g10
F0.9962
tp3546
a(S'he'
p3547
g43
F0.9987
tp3548
a(S'do'
p3549
g10
F0.9981
tp3550
a(g21
g6
F0.9976
tp3551
asI1029
(lp3552
(S'nothing'
p3553
g16
F0.9842
tp3554
a(S'Dad'
p3555
g16
F0.8021
tp3556
a(S'asked'
p3557
g10
F0.9997
tp3558
a(S'me'
p3559
g43
F0.9986
tp3560
a(S'for'
p3561
g19
F0.9924
tp3562
a(S'something'
p3563
g16
F0.9877
tp3564
a(S'and'
p3565
g110
F0.9981
tp3566
a(g382
g43
F0.9991
tp3567
a(S'found'
p3568
g10
F1.0
tp3569
a(S'it'
p3570
g43
F0.9487
tp3571
a(S'amusing'
p3572
g62
F0.9487
tp3573
a(g5
g6
F0.9977
tp3574
asI1035
(lp3575
(S'&-um'
p3576
g25
F0.8421
tp3577
a(g110
g110
F0.9908
tp3578
a(g337
g6
F0.8743
tp3579
a(S'laughs'
p3580
g10
F0.8183
tp3581
a(g5
g6
F0.9983
tp3582
asI1036
(lp3583
(S'well'
p3584
g25
F0.8956
tp3585
a(S'he'
p3586
g43
F0.9988
tp3587
a(S'asked'
p3588
g10
F0.9999
tp3589
a(S'you'
p3590
g43
F0.9986
tp3591
a(S'for'
p3592
g19
F0.9943
tp3593
a(S'something'
p3594
g16
F0.982
tp3595
a(S'he'
p3596
g43
F0.9933
tp3597
a(S'told'
p3598
g10
F0.9999
tp3599
a(S'you'
p3600
g43
F0.999
tp3601
a(S'to'
p3602
g19
F0.9875
tp3603
a(S'throw'
p3604
g10
F0.9982
tp3605
a(S'the'
p3606
g13
F0.9996
tp3607
a(S'bun'
p3608
g16
F0.9947
tp3609
a(S'at'
p3610
g19
F0.9996
tp3611
a(S'him'
p3612
g43
F0.9935
tp3613
a(g5
g6
F0.9988
tp3614
asI1043
(lp3615
(S'xxx'
p3616
g3
F0.5822
tp3617
a(g5
g6
F0.9648
tp3618
asI1044
(lp3619
(S'unhunh'
p3620
g25
F0.3092
tp3621
a(g5
g6
F0.9969
tp3622
asI1047
(lp3623
(S'only'
p3624
g132
F0.9077
tp3625
a(S'when'
p3626
g132
F0.9833
tp3627
a(S"I'm"
p3628
g219
F0.9967
tp3629
a(S'asking'
p3630
g10
F0.9961
tp3631
a(S'for'
p3632
g19
F0.9987
tp3633
a(S'it'
p3634
g43
F0.9978
tp3635
a(g5
g6
F0.9989
tp3636
asI1053
(lp3637
(S'(..)'
p3638
g3
F0.3551
tp3639
a(S'eat'
p3640
g10
F0.993
tp3641
a(S'the'
p3642
g13
F0.9995
tp3643
a(S'rest'
p3644
g16
F0.9979
tp3645
a(g5
g6
F0.999
tp3646
asI1056
(lp3647
(S'are'
p3648
g10
F0.9964
tp3649
a(S'you'
p3650
g43
F0.9992
tp3651
a(S'eating'
p3652
g10
F0.9999
tp3653
a(S'any'
p3654
g13
F0.9061
tp3655
a(S'of'
p3656
g19
F0.9926
tp3657
a(S'that'
p3658
g13
F0.872
tp3659
a(S'steak'
p3660
g16
F0.9925
tp3661
a(S'Sara'
p3662
g228
F0.957
tp3663
a(g21
g6
F0.997
tp3664
asI1062
(lp3665
(S'eat'
p3666
g10
F0.9784
tp3667
a(S'this'
p3668
g13
F0.9704
tp3669
a(S'little'
p3670
g62
F0.9758
tp3671
a(g5
g6
F0.9986
tp3672
asI1065
(lp3673
(S'is'
p3674
g10
F0.9981
tp3675
a(S'that'
p3676
g43
F0.6116
tp3677
a(S'the'
p3678
g13
F0.9948
tp3679
a(S'bite'
p3680
g16
F0.771
tp3681
a(S'you'
p3682
g43
F0.9983
tp3683
a(S'took'
p3684
g10
F0.9999
tp3685
a(S'out'
p3686
g19
F0.7128
tp3687
a(S'of'
p3688
g19
F0.9963
tp3689
a(S'her'
p3690
g13
F0.9468
tp3691
a(S'corn'
p3692
g16
F0.9992
tp3693
a(g21
g6
F0.9978
tp3694
asI1071
(lp3695
(S'so'
p3696
g19
F0.7418
tp3697
a(S'what'
p3698
g43
F0.9989
tp3699
a(S'did'
p3700
g10
F0.9844
tp3701
a(S'Chi'
p3702
g228
F0.9636
tp3703
a(S'eat'
p3704
g10
F0.9225
tp3705
a(S'so'
p3706
g132
F0.972
tp3707
a(S'far'
p3708
g132
F0.9175
tp3709
a(g21
g6
F0.9983
tp3710
asI1074
(lp3711
(g401
g13
F0.9953
tp3712
a(S'half'
p3713
g16
F0.4085
tp3714
a(g401
g13
F0.9595
tp3715
a(S'roll'
p3716
g16
F0.976
tp3717
a(g6
g6
F0.9975
tp3718
a(g401
g13
F0.9846
tp3719
a(S'nibble'
p3720
g16
F0.9782
tp3721
a(S'of'
p3722
g19
F0.9944
tp3723
a(S'corn'
p3724
g16
F0.9879
tp3725
a(g6
g6
F0.9975
tp3726
a(g401
g13
F0.9785
tp3727
a(S'bite'
p3728
g16
F0.994
tp3729
a(S'of'
p3730
g19
F0.9938
tp3731
a(S'salad'
p3732
g16
F0.9488
tp3733
a(g6
g6
F0.9955
tp3734
a(S'two'
p3735
g50
F0.9789
tp3736
a(S'scoops'
p3737
g16
F0.976
tp3738
a(S'of'
p3739
g19
F0.9955
tp3740
a(S'clam'
p3741
g16
F0.729
tp3742
a(S'chowder'
p3743
g16
F0.9915
tp3744
a(g5
g6
F0.9975
tp3745
asI1081
(lp3746
(S'&-um'
p3747
g25
F0.7959
tp3748
a(S'(.)'
p3749
g3
F0.3513
tp3750
a(g382
g43
F0.9969
tp3751
a(S'ate'
p3752
g10
F0.9998
tp3753
a(g401
g13
F0.9965
tp3754
a(S'couple'
p3755
g16
F0.9919
tp3756
a(S'of'
p3757
g19
F0.9973
tp3758
a(S'bites'
p3759
g16
F0.9053
tp3760
a(S'of'
p3761
g19
F0.9935
tp3762
a(S'clam'
p3763
g16
F0.6656
tp3764
a(S'chowder'
p3765
g16
F0.9578
tp3766
a(S'all'
p3767
g13
F0.5896
tp3768
a(S'of'
p3769
g19
F0.9953
tp3770
a(S'my'
p3771
g13
F0.9972
tp3772
a(S'corn'
p3773
g16
F0.9995
tp3774
a(g5
g6
F0.999
tp3775
asI1086
(lp3776
(S'did'
p3777
g10
F0.9986
tp3778
a(S'you'
p3779
g43
F0.9987
tp3780
a(S'eat'
p3781
g10
F0.9995
tp3782
a(S'any'
p3783
g13
F0.909
tp3784
a(S'of'
p3785
g19
F0.9926
tp3786
a(S'that'
p3787
g13
F0.872
tp3788
a(S'steak'
p3789
g16
F0.998
tp3790
a(S'yet'
p3791
g132
F0.9602
tp3792
a(g21
g6
F0.9986
tp3793
asI1091
(lp3794
(S'yeah'
p3795
g25
F0.9981
tp3796
a(S'mhm'
p3797
g25
F0.9821
tp3798
a(g5
g6
F0.9969
tp3799
asI1094
(lp3800
(S'you'
p3801
g43
F0.998
tp3802
a(S'ate'
p3803
g10
F0.9986
tp3804
a(S'almost'
p3805
g132
F0.9856
tp3806
a(g401
g13
F0.9929
tp3807
a(S'whole'
p3808
g62
F0.9529
tp3809
a(S'roll'
p3810
g16
F0.8269
tp3811
a(S"that's"
p3812
g219
F0.9703
tp3813
a(S'in'
p3814
g19
F0.9892
tp3815
a(S'your'
p3816
g13
F0.9957
tp3817
a(S'hand'
p3818
g16
F0.9991
tp3819
a(g5
g6
F0.9985
tp3820
asI1099
(lp3821
(S'and'
p3822
g110
F0.9989
tp3823
a(S'you'
p3824
g43
F0.9996
tp3825
a(S'want'
p3826
g10
F0.9999
tp3827
a(S'some'
p3828
g13
F0.9933
tp3829
a(S'salad'
p3830
g16
F0.9804
tp3831
a(S'right'
p3832
g132
F0.4595
tp3833
a(g21
g6
F0.9986
tp3834
asI1102
(lp3835
(S'so'
p3836
g132
F0.5703
tp3837
a(S'&-uh'
p3838
g134
F0.6502
tp3839
a(S'(.)'
p3840
g134
F0.5117
tp3841
a(g382
g43
F0.9963
tp3842
a(S'guess'
p3843
g10
F0.9999
tp3844
a(S"you'll"
p3845
g219
F0.9856
tp3846
a(S'be'
p3847
g10
F0.9995
tp3848
a(S'able'
p3849
g62
F0.9684
tp3850
a(S'to'
p3851
g19
F0.9967
tp3852
a(g38
g39
F0.8852
tp3853
a(S'go'
p3854
g10
F0.9949
tp3855
a(S'outside'
p3856
g132
F0.9078
tp3857
a(S'and'
p3858
g110
F0.9959
tp3859
a(S'play'
p3860
g10
F0.957
tp3861
a(g29
g3
F0.4756
tp3862
a(g27
g3
F0.5345
tp3863
a(g29
g3
F0.9487
tp3864
a(g31
g6
F0.8534
tp3865
a(g5
g6
F0.996
tp3866
asI1107
(lp3867
(g38
g39
F0.9526
tp3868
a(g382
g43
F0.9983
tp3869
a(S'wanna'
p3870
g10
F0.9982
tp3871
a(S'go'
p3872
g10
F0.9936
tp3873
a(g29
g3
F0.3977
tp3874
a(g27
g3
F0.535
tp3875
a(g38
g39
F0.7057
tp3876
a(g31
g6
F0.9842
tp3877
a(g5
g6
F0.9969
tp3878
asI1110
(lp3879
(S'finish'
p3880
g10
F0.9766
tp3881
a(S'that'
p3882
g13
F0.8201
tp3883
a(S'clam'
p3884
g16
F0.8705
tp3885
a(S'chowder'
p3886
g16
F0.9177
tp3887
a(S'you'
p3888
g43
F0.9948
tp3889
a(S'will'
p3890
g10
F0.9981
tp3891
a(g5
g6
F0.9972
tp3892
asI1113
(lp3893
(S'you'
p3894
g43
F0.9968
tp3895
a(S'have_to'
p3896
g10
F0.9996
tp3897
a(S'some'
p3898
g13
F0.8765
tp3899
a(S'eat'
p3900
g10
F0.9414
tp3901
a(S'some'
p3902
g13
F0.944
tp3903
a(S'more'
p3904
g62
F0.9633
tp3905
a(S'Sara'
p3906
g228
F0.9761
tp3907
a(S'or'
p3908
g110
F0.9936
tp3909
a(S"you're"
p3910
g219
F0.9966
tp3911
a(S'not'
p3912
g132
F0.9987
tp3913
a(S'going'
p3914
g10
F0.9993
tp3915
a(S'back'
p3916
g132
F0.7217
tp3917
a(S'outside'
p3918
g132
F0.5642
tp3919
a(S'and'
p3920
g110
F0.997
tp3921
a(S'playing'
p3922
g10
F0.9994
tp3923
a(S'with'
p3924
g19
F0.9992
tp3925
a(S'your'
p3926
g13
F0.9976
tp3927
a(S'friends'
p3928
g16
F0.9972
tp3929
a(g382
g43
F0.9943
tp3930
a(S'told'
p3931
g10
F1.0
tp3932
a(S'you'
p3933
g43
F0.9972
tp3934
a(S'that'
p3935
g19
F0.3386
tp3936
a(g5
g6
F0.997
tp3937
asI1123
(lp3938
(S'xxx'
p3939
g3
F0.5822
tp3940
a(g5
g6
F0.9648
tp3941
asI1124
(lp3942
(S'can'
p3943
g10
F0.9938
tp3944
a(g382
g43
F0.9994
tp3945
a(S'have'
p3946
g10
F0.9999
tp3947
a(S'some'
p3948
g13
F0.9957
tp3949
a(S'bacon'
p3950
g16
F0.9906
tp3951
a(S'bits'
p3952
g16
F0.9965
tp3953
a(S'please'
p3954
g10
F0.966
tp3955
a(g21
g6
F0.9981
tp3956
asI1127
(lp3957
(S'so'
p3958
g132
F0.4912
tp3959
a(S'did'
p3960
g10
F0.997
tp3961
a(S'you'
p3962
g43
F0.9994
tp3963
a(S'have'
p3964
g10
F0.9962
tp3965
a(S'fun'
p3966
g16
F0.9473
tp3967
a(S'at'
p3968
g19
F0.9999
tp3969
a(S'the'
p3970
g13
F0.9992
tp3971
a(S'park'
p3972
g16
F0.886
tp3973
a(S'today'
p3974
g16
F0.9926
tp3975
a(S'Sara'
p3976
g228
F0.9984
tp3977
a(g21
g6
F0.9961
tp3978
asI1132
(lp3979
(S'yes'
p3980
g25
F0.9961
tp3981
a(g5
g6
F0.9972
tp3982
asI1135
(lp3983
(S'Sara'
p3984
g228
F0.9818
tp3985
a(g21
g6
F0.9951
tp3986
asI1139
(lp3987
(S'you'
p3988
g43
F0.998
tp3989
a(S'have'
p3990
g10
F0.9958
tp3991
a(S'fun'
p3992
g16
F0.8679
tp3993
a(S'today'
p3994
g16
F0.9915
tp3995
a(S'at'
p3996
g19
F0.9999
tp3997
a(S'the'
p3998
g13
F0.9988
tp3999
a(S'park'
p4000
g16
F0.7907
tp4001
a(g21
g6
F0.9983
tp4002
asI1143
(lp4003
(S'xxx'
p4004
g3
F0.7799
tp4005
a(S'&-um'
p4006
g25
F0.751
tp4007
a(S'you'
p4008
g43
F0.9991
tp4009
a(S'know'
p4010
g10
F0.9976
tp4011
a(S'what'
p4012
g43
F0.9858
tp4013
a(g21
g6
F0.9932
tp4014
asI1147
(lp4015
(S'what'
p4016
g43
F0.9171
tp4017
a(g21
g6
F0.9924
tp4018
asI1151
(lp4019
(g38
g39
F0.9359
tp4020
a(S'this'
p4021
g43
F0.8606
tp4022
a(S'was'
p4023
g10
F0.9878
tp4024
a(g29
g6
F0.2707
tp4025
a(S'[/]'
p4026
g6
F0.3136
tp4027
a(S'this'
p4028
g13
F0.531
tp4029
a(S'[/]'
p4030
g6
F0.4208
tp4031
a(S'this'
p4032
g43
F0.8102
tp4033
a(S'was'
p4034
g10
F0.9957
tp4035
a(S'better'
p4036
g132
F0.5402
tp4037
a(S'this'
p4038
g43
F0.5217
tp4039
a(S'xxx'
p4040
g3
F0.378
tp4041
a(S'button'
p4042
g16
F0.9801
tp4043
a(g25
g6
F0.9994
tp4044
asI1154
(lp4045
(S'xxx'
p4046
g3
F0.8308
tp4047
a(S'what'
p4048
g43
F0.9545
tp4049
a(g21
g6
F0.9924
tp4050
asI1158
(lp4051
(S'this'
p4052
g13
F0.9864
tp4053
a(S'belly'
p4054
g16
F0.997
tp4055
a(g27
g6
F0.986
tp4056
a(g21
g6
F0.9878
tp4057
a(g31
g6
F0.9181
tp4058
a(S'button'
p4059
g16
F0.7647
tp4060
a(S'this'
p4061
g13
F0.588
tp4062
a(S'xxx'
p4063
g16
F0.6452
tp4064
a(g5
g6
F0.9986
tp4065
asI1161
(lp4066
(g110
g110
F0.9893
tp4067
a(g337
g6
F0.8669
tp4068
a(S'laughs'
p4069
g10
F0.8696
tp4070
a(g5
g6
F0.9983
tp4071
asI1162
(lp4072
(S'yeah'
p4073
g25
F0.9986
tp4074
a(g5
g6
F0.997
tp4075
asI1165
(lp4076
(S'yeah'
p4077
g25
F0.9988
tp4078
a(g21
g6
F0.9966
tp4079
asI1169
(lp4080
(g382
g43
F0.9976
tp4081
a(S"don't"
p4082
g10
F1.0
tp4083
a(S'see'
p4084
g10
F0.9998
tp4085
a(S'any'
p4086
g13
F0.9965
tp4087
a(S'buttons'
p4088
g16
F0.9951
tp4089
a(S'on'
p4090
g19
F0.9993
tp4091
a(S'the'
p4092
g13
F0.9993
tp4093
a(S'table'
p4094
g16
F0.998
tp4095
a(g5
g6
F0.9986
tp4096
asI1174
(lp4097
(S'xxx'
p4098
g3
F0.5822
tp4099
a(g5
g6
F0.9648
tp4100
asI1175
(lp4101
(S'oh'
p4102
g25
F0.9898
tp4103
a(S'Heather'
p4104
g228
F0.9828
tp4105
a(g382
g43
F0.9929
tp4106
a(S'got'
p4107
g10
F1.0
tp4108
a(S'up'
p4109
g852
F0.9734
tp4110
a(S'to'
p4111
g19
F0.9978
tp4112
a(S'get'
p4113
g10
F1.0
tp4114
a(S'you'
p4115
g43
F0.9979
tp4116
a(g401
g13
F0.997
tp4117
a(S'bowl'
p4118
g16
F0.9986
tp4119
a(S'for'
p4120
g19
F0.9999
tp4121
a(S'your'
p4122
g13
F0.9521
tp4123
a(S'(.)'
p4124
g228
F0.3315
tp4125
a(S'salad'
p4126
g16
F0.7722
tp4127
a(g110
g110
F0.9911
tp4128
a(g337
g6
F0.9245
tp4129
a(S'loudly'
p4130
g132
F0.7101
tp4131
a(g5
g6
F0.9988
tp4132
asI1180
(lp4133
(S'can'
p4134
g10
F0.9938
tp4135
a(g382
g43
F0.9994
tp4136
a(S'have'
p4137
g10
F0.9998
tp4138
a(S'something'
p4139
g16
F0.9972
tp4140
a(S'to'
p4141
g19
F0.9981
tp4142
a(S'drink'
p4143
g10
F0.9458
tp4144
a(S'please'
p4145
g10
F0.9559
tp4146
a(S'can'
p4147
g10
F0.9991
tp4148
a(g382
g43
F0.9993
tp4149
a(S'have'
p4150
g10
F0.9998
tp4151
a(S'something'
p4152
g16
F0.9973
tp4153
a(S'to'
p4154
g19
F0.9984
tp4155
a(S'drink'
p4156
g10
F0.9062
tp4157
a(g21
g6
F0.998
tp4158
asI1187
(lp4159
(S'no'
p4160
g25
F0.5694
tp4161
a(S'Sara'
p4162
g228
F0.8692
tp4163
a(S'you'
p4164
g43
F0.994
tp4165
a(S'cannot'
p4166
g10
F0.9965
tp4167
a(S'because'
p4168
g19
F0.987
tp4169
a(S'you'
p4170
g43
F0.9994
tp4171
a(S"haven't"
p4172
g10
F0.9838
tp4173
a(S'eaten'
p4174
g10
F0.9988
tp4175
a(S'anything'
p4176
g16
F0.9758
tp4177
a(S'yet'
p4178
g132
F0.9836
tp4179
a(g5
g6
F0.9985
tp4180
asI1193
(lp4181
(S'yessir'
p4182
g25
F0.9952
tp4183
a(g25
g6
F0.9968
tp4184
asI1196
(lp4185
(S'what'
p4186
g43
F0.8956
tp4187
a(S'some'
p4188
g13
F0.9244
tp4189
a(S'bites'
p4190
g16
F0.9629
tp4191
a(S'of'
p4192
g19
F0.9951
tp4193
a(S'salad'
p4194
g16
F0.9407
tp4195
a(g21
g6
F0.9971
tp4196
asI1200
(lp4197
(S'what'
p4198
g43
F0.9777
tp4199
a(g38
g39
F0.7452
tp4200
a(S'did'
p4201
g10
F0.9967
tp4202
a(S'she'
p4203
g43
F0.9971
tp4204
a(g29
g134
F0.4031
tp4205
a(S'[//]'
p4206
g134
F0.2417
tp4207
a(S'did'
p4208
g10
F0.9963
tp4209
a(S'she'
p4210
g43
F0.9971
tp4211
a(S'eat'
p4212
g10
F0.9977
tp4213
a(S'anything'
p4214
g16
F0.9947
tp4215
a(S'today'
p4216
g16
F0.989
tp4217
a(g21
g6
F0.9965
tp4218
asI1204
(lp4219
(g38
g39
F0.9324
tp4220
a(S'two'
p4221
g50
F0.956
tp4222
a(S'&-uh'
p4223
g25
F0.4396
tp4224
a(g110
g110
F0.9914
tp4225
a(S's'
p4226
g134
F0.7213
tp4227
a(g29
g39
F0.5133
tp4228
a(S'[//]'
p4229
g6
F0.1651
tp4230
a(g38
g39
F0.9141
tp4231
a(S'two'
p4232
g50
F0.9644
tp4233
a(S'sandwiches'
p4234
g16
F0.9976
tp4235
a(g29
g3
F0.5184
tp4236
a(g27
g3
F0.5345
tp4237
a(g29
g3
F0.9532
tp4238
a(g31
g6
F0.8377
tp4239
a(S'at'
p4240
g19
F0.9984
tp4241
a(S'Kentucky'
p4242
g228
F0.9996
tp4243
a(S'Fried'
p4244
g228
F0.879
tp4245
a(g5
g6
F0.9977
tp4246
asI1207
(lp4247
(S'<&='
p4248
g228
F0.2832
tp4249
a(S'laughs'
p4250
g10
F0.9507
tp4251
a(g29
g3
F0.3768
tp4252
a(g27
g3
F0.4963
tp4253
a(g38
g39
F0.7259
tp4254
a(g31
g6
F0.9803
tp4255
a(g5
g6
F0.9959
tp4256
asI1208
(lp4257
(S'who'
p4258
g43
F0.9963
tp4259
a(S'said'
p4260
g10
F0.9995
tp4261
a(S'that'
p4262
g43
F0.7916
tp4263
a(g21
g6
F0.9985
tp4264
asI1212
(lp4265
(S'xxx'
p4266
g3
F0.5822
tp4267
a(g5
g6
F0.9648
tp4268
asI1213
(lp4269
(g110
g110
F0.9893
tp4270
a(g337
g6
F0.8669
tp4271
a(S'laughs'
p4272
g10
F0.8696
tp4273
a(g5
g6
F0.9983
tp4274
asI1214
(lp4275
(S'my'
p4276
g13
F0.9088
tp4277
a(S'xxx'
p4278
g16
F0.7572
tp4279
a(S'said'
p4280
g10
F0.9996
tp4281
a(S'it'
p4282
g43
F0.9461
tp4283
a(S'my'
p4284
g13
F0.9492
tp4285
a(S'xxx'
p4286
g16
F0.8423
tp4287
a(g5
g6
F0.9982
tp4288
asI1217
(lp4289
(S"don't"
p4290
g10
F0.999
tp4291
a(S'talk'
p4292
g10
F0.9972
tp4293
a(S'at'
p4294
g19
F0.9992
tp4295
a(S'the'
p4296
g13
F0.9991
tp4297
a(S'table'
p4298
g16
F0.9943
tp4299
a(g110
g110
F0.9925
tp4300
a(g337
g6
F0.8882
tp4301
a(S'laughs'
p4302
g10
F0.8974
tp4303
a(g5
g6
F0.9986
tp4304
asI1220
(lp4305
(S'well'
p4306
g25
F0.8747
tp4307
a(g382
g43
F0.9993
tp4308
a(S'am'
p4309
g10
F0.9965
tp4310
a(S'xxx'
p4311
g3
F0.3425
tp4312
a(g5
g6
F0.9688
tp4313
asI1223
(lp4314
(S'mhm'
p4315
g25
F0.8505
tp4316
a(S'xxx'
p4317
g3
F0.514
tp4318
a(S'some'
p4319
g13
F0.9599
tp4320
a(S'chow'
p4321
g16
F0.9665
tp4322
a(S'eat'
p4323
g10
F0.9898
tp4324
a(S'some'
p4325
g13
F0.9922
tp4326
a(S'burgers'
p4327
g16
F0.9921
tp4328
a(g5
g6
F0.9987
tp4329
asI1226
(lp4330
(S'that'
p4331
g19
F0.5609
tp4332
a(S'Salisbury'
p4333
g228
F0.9938
tp4334
a(S'steak'
p4335
g16
F0.9909
tp4336
a(S'there'
p4337
g132
F0.8555
tp4338
a(g5
g6
F0.9982
tp4339
asI1229
(lp4340
(S'please'
p4341
g10
F0.8368
tp4342
a(g5
g6
F0.9977
tp4343
asI1232
(lp4344
(S'xxx'
p4345
g3
F0.5822
tp4346
a(g5
g6
F0.9648
tp4347
asI1233
(lp4348
(S'do'
p4349
g10
F0.9985
tp4350
a(S'you'
p4351
g43
F0.9989
tp4352
a(S'like'
p4353
g10
F0.9251
tp4354
a(S'it'
p4355
g43
F0.9961
tp4356
a(g21
g6
F0.999
tp4357
asI1237
(lp4358
(S'do'
p4359
g10
F0.9985
tp4360
a(S'you'
p4361
g43
F0.9989
tp4362
a(S'like'
p4363
g10
F0.7106
tp4364
a(S'the'
p4365
g13
F0.9941
tp4366
a(S'Salisbury'
p4367
g228
F0.9969
tp4368
a(S'steak'
p4369
g16
F0.9851
tp4370
a(g21
g6
F0.9976
tp4371
asI1241
(lp4372
(S'okay'
p4373
g25
F0.9741
tp4374
a(g5
g6
F0.9977
tp4375
asI1245
(lp4376
(g382
g43
F0.9983
tp4377
a(S'mean'
p4378
g10
F0.9823
tp4379
a(S"I'm"
p4380
g219
F0.9922
tp4381
a(S'pouring'
p4382
g10
F0.9678
tp4383
a(S'your'
p4384
g13
F0.9744
tp4385
a(S'drink'
p4386
g16
F0.9815
tp4387
a(S'but'
p4388
g110
F0.9447
tp4389
a(S'you'
p4390
g43
F0.9987
tp4391
a(S'[///]'
p4392
g6
F0.7152
tp4393
a(S"I'm"
p4394
g219
F0.9947
tp4395
a(S'gonna'
p4396
g10
F0.9893
tp4397
a(S'have_to'
p4398
g10
F0.9994
tp4399
a(S'hold'
p4400
g10
F0.9991
tp4401
a(S'off'
p4402
g852
F0.9688
tp4403
a(S'on'
p4404
g19
F0.9929
tp4405
a(S'your'
p4406
g13
F0.9872
tp4407
a(S'drink'
p4408
g16
F0.9963
tp4409
a(g1029
g6
F0.989
tp4410
a(S'be)cause'
p4411
g19
F0.9964
tp4412
a(g382
g43
F0.9996
tp4413
a(S'know'
p4414
g10
F0.9995
tp4415
a(S'what'
p4416
g43
F0.9785
tp4417
a(S'you'
p4418
g43
F0.9996
tp4419
a(S'do'
p4420
g10
F0.9993
tp4421
a(g5
g6
F0.9969
tp4422
asI1254
(lp4423
(S'you'
p4424
g43
F0.9845
tp4425
a(S'drink'
p4426
g10
F0.9983
tp4427
a(S'the'
p4428
g13
F0.9994
tp4429
a(S'whole'
p4430
g62
F0.8959
tp4431
a(S'+/'
p4432
g16
F0.3664
tp4433
a(g5
g6
F0.9975
tp4434
asI1257
(lp4435
(S'dad'
p4436
g16
F0.9082
tp4437
a(g25
g6
F0.9985
tp4438
asI1260
(lp4439
(S"she's"
p4440
g219
F0.9865
tp4441
a(S'moving'
p4442
g10
F0.9898
tp4443
a(S'her'
p4444
g13
F0.9663
tp4445
a(S'salad'
p4446
g16
F0.9976
tp4447
a(S'right'
p4448
g132
F0.6701
tp4449
a(S'along'
p4450
g19
F0.9073
tp4451
a(S'there'
p4452
g132
F0.4859
tp4453
a(S'what'
p4454
g43
F0.9942
tp4455
a(S'do'
p4456
g10
F0.9992
tp4457
a(S'you'
p4458
g43
F0.9997
tp4459
a(S'want'
p4460
g10
F0.9994
tp4461
a(S'Heather'
p4462
g228
F0.9968
tp4463
a(g21
g6
F0.9947
tp4464
asI1266
(lp4465
(g38
g39
F0.9116
tp4466
a(S"I'll"
p4467
g219
F0.9814
tp4468
a(S'have'
p4469
g10
F0.9987
tp4470
a(S'potatoes'
p4471
g16
F0.9944
tp4472
a(S'and'
p4473
g110
F0.9989
tp4474
a(g401
g13
F0.938
tp4475
a(S'xxx'
p4476
g3
F0.4182
tp4477
a(g29
g3
F0.9474
tp4478
a(g27
g3
F0.5345
tp4479
a(g29
g3
F0.9532
tp4480
a(g31
g6
F0.8561
tp4481
a(S'and'
p4482
g110
F0.9992
tp4483
a(S'cabbage'
p4484
g16
F0.9923
tp4485
a(g25
g6
F0.9994
tp4486
asI1271
(lp4487
(g38
g39
F0.913
tp4488
a(S"don't"
p4489
g10
F0.9994
tp4490
a(S'drink'
p4491
g10
F0.9996
tp4492
a(S'it'
p4493
g43
F0.9469
tp4494
a(S'all'
p4495
g13
F0.4671
tp4496
a(S'and'
p4497
g110
F0.9975
tp4498
a(S'not'
p4499
g132
F0.9958
tp4500
a(S'have'
p4501
g10
F0.9991
tp4502
a(S'any'
p4503
g13
F0.9973
tp4504
a(S'room'
p4505
g16
F0.996
tp4506
a(S'left'
p4507
g10
F0.9415
tp4508
a(S'for'
p4509
g19
F0.9982
tp4510
a(S'dinner'
p4511
g16
F0.9468
tp4512
a(S'please'
p4513
g10
F0.9594
tp4514
a(g29
g3
F0.5086
tp4515
a(g27
g3
F0.535
tp4516
a(g38
g39
F0.8262
tp4517
a(g31
g6
F0.9861
tp4518
a(g5
g6
F0.996
tp4519
asI1277
(lp4520
(S'xxx'
p4521
g3
F0.5822
tp4522
a(g5
g6
F0.9648
tp4523
asI1278
(lp4524
(S'by'
p4525
g19
F0.9988
tp4526
a(S'the'
p4527
g13
F0.9996
tp4528
a(S'time'
p4529
g16
F0.9993
tp4530
a(g382
g43
F0.9895
tp4531
a(S'get'
p4532
g10
F0.9999
tp4533
a(S'to'
p4534
g19
F0.9956
tp4535
a(S'the'
p4536
g13
F0.999
tp4537
a(S'salad'
p4538
g16
F0.9873
tp4539
a(S"it's"
p4540
g219
F0.9851
tp4541
a(S'all'
p4542
g13
F0.8213
tp4543
a(S'picked'
p4544
g10
F0.9092
tp4545
a(S'through'
p4546
g19
F0.8126
tp4547
a(g25
g6
F0.9911
tp4548
asI1283
(lp4549
(S"that's"
p4550
g219
F0.9857
tp4551
a(S'it'
p4552
g43
F0.9944
tp4553
a(g25
g6
F0.999
tp4554
asI1286
(lp4555
(g382
g43
F0.9983
tp4556
a(S'want'
p4557
g10
F1.0
tp4558
a(S'some'
p4559
g13
F0.7722
tp4560
a(S'too'
p4561
g132
F0.95
tp4562
a(g5
g6
F0.9974
tp4563
asI1289
(lp4564
(g382
g43
F0.9984
tp4565
a(S'know'
p4566
g10
F0.9999
tp4567
a(S'you'
p4568
g43
F0.9995
tp4569
a(S'want'
p4570
g10
F0.9999
tp4571
a(S'some'
p4572
g13
F0.8001
tp4573
a(S'too'
p4574
g132
F0.9552
tp4575
a(g5
g6
F0.997
tp4576
asI1292
(lp4577
(S'you'
p4578
g43
F0.9969
tp4579
a(S'can'
p4580
g10
F0.9997
tp4581
a(S'have'
p4582
g10
F0.9999
tp4583
a(S'some'
p4584
g13
F0.897
tp4585
a(S'of'
p4586
g19
F0.9809
tp4587
a(S'mine'
p4588
g43
F0.7574
tp4589
a(S'Mom'
p4590
g16
F0.7851
tp4591
a(g5
g6
F0.9985
tp4592
asI1296
(lp4593
(S'are'
p4594
g10
F0.9964
tp4595
a(S'you'
p4596
g43
F0.9996
tp4597
a(S'done'
p4598
g10
F0.9983
tp4599
a(S'with'
p4600
g19
F0.9991
tp4601
a(S'your'
p4602
g13
F0.9956
tp4603
a(S'clam'
p4604
g16
F0.9332
tp4605
a(S'chowder'
p4606
g16
F0.9904
tp4607
a(g21
g6
F0.9977
tp4608
asI1301
(lp4609
(S'xxx'
p4610
g3
F0.5822
tp4611
a(g5
g6
F0.9648
tp4612
asI1302
(lp4613
(S"here's"
p4614
g219
F0.9084
tp4615
a(S'my'
p4616
g13
F0.9181
tp4617
a(S'xxx'
p4618
g16
F0.6456
tp4619
a(S'Mom'
p4620
g16
F0.9775
tp4621
a(g5
g6
F0.9985
tp4622
asI1305
(lp4623
(S'oh'
p4624
g25
F0.997
tp4625
a(g382
g43
F0.9959
tp4626
a(S'xxx'
p4627
g10
F0.7179
tp4628
a(g5
g6
F0.9977
tp4629
asI1308
(lp4630
(S"that's"
p4631
g219
F0.9874
tp4632
a(S'alright'
p4633
g25
F0.5457
tp4634
a(g5
g6
F0.9978
tp4635
asI1311
(lp4636
(S'let'
p4637
g10
F0.9967
tp4638
a(S'it'
p4639
g43
F0.9961
tp4640
a(S'sink'
p4641
g10
F0.9884
tp4642
a(S'there'
p4643
g132
F0.901
tp4644
a(g5
g6
F0.9982
tp4645
asI1314
(lp4646
(g110
g110
F0.9893
tp4647
a(g337
g6
F0.8588
tp4648
a(S'giggles'
p4649
g16
F0.5863
tp4650
a(g5
g6
F0.9982
tp4651
asI1315
(lp4652
(S'oh'
p4653
g25
F0.9984
tp4654
a(g5
g6
F0.9938
tp4655
asI1318
(lp4656
(S'oh'
p4657
g25
F0.9984
tp4658
a(g5
g6
F0.9938
tp4659
asI1321
(lp4660
(g38
g39
F0.9058
tp4661
a(S'almost'
p4662
g132
F0.9861
tp4663
a(S'spilt'
p4664
g10
F0.9548
tp4665
a(g29
g3
F0.3031
tp4666
a(S'[//]'
p4667
g3
F0.7202
tp4668
a(S'xxx'
p4669
g3
F0.9789
tp4670
a(S'xxx'
p4671
g3
F0.9689
tp4672
a(S'one'
p4673
g50
F0.8961
tp4674
a(S'spilt'
p4675
g10
F0.918
tp4676
a(S'their'
p4677
g13
F0.9723
tp4678
a(S'drink'
p4679
g16
F0.9958
tp4680
a(g5
g6
F0.9967
tp4681
asI1324
(lp4682
(S'me'
p4683
g43
F0.996
tp4684
a(S'xxx'
p4685
g3
F0.5088
tp4686
a(S'too'
p4687
g132
F0.9556
tp4688
a(S'+/'
p4689
g62
F0.2102
tp4690
a(g5
g6
F0.9975
tp4691
asI1327
(lp4692
(S'xxx'
p4693
g3
F0.5822
tp4694
a(g5
g6
F0.9648
tp4695
asI1328
(lp4696
(S"don't"
p4697
g10
F0.9995
tp4698
a(S'do'
p4699
g10
F1.0
tp4700
a(S'it'
p4701
g43
F0.9913
tp4702
a(g5
g6
F0.999
tp4703
asI1331
(lp4704
(S'xxx'
p4705
g3
F0.5822
tp4706
a(g5
g6
F0.9648
tp4707
asI1332
(lp4708
(S'you'
p4709
g43
F0.998
tp4710
a(S'want'
p4711
g10
F0.9993
tp4712
a(S'bacon'
p4713
g16
F0.9889
tp4714
a(S'bits'
p4715
g16
F0.9986
tp4716
a(g21
g6
F0.9984
tp4717
asI1335
(lp4718
(S'yes'
p4719
g25
F0.9961
tp4720
a(g5
g6
F0.9972
tp4721
asI1338
(lp4722
(S'you'
p4723
g43
F0.998
tp4724
a(S'want'
p4725
g10
F0.9996
tp4726
a(S'dressing'
p4727
g10
F0.9268
tp4728
a(g21
g6
F0.9982
tp4729
asI1341
(lp4730
(S'is'
p4731
g10
F0.9981
tp4732
a(S'that'
p4733
g43
F0.6165
tp4734
a(S'our'
p4735
g13
F0.9965
tp4736
a(S'favorite'
p4737
g62
F0.887
tp4738
a(g21
g6
F0.9983
tp4739
asI1344
(lp4740
(S"that's"
p4741
g219
F0.986
tp4742
a(S'enough'
p4743
g62
F0.5761
tp4744
a(S'of'
p4745
g19
F0.9931
tp4746
a(S'that'
p4747
g43
F0.9224
tp4748
a(g5
g6
F0.9988
tp4749
asI1348
(lp4750
(g38
g39
F0.9351
tp4751
a(S'eat'
p4752
g10
F0.9928
tp4753
a(S'some'
p4754
g13
F0.8807
tp4755
a(g29
g134
F0.2922
tp4756
a(S'[/]'
p4757
g134
F0.2306
tp4758
a(S'eat'
p4759
g10
F0.9912
tp4760
a(S'some'
p4761
g13
F0.9435
tp4762
a(S'+/'
p4763
g228
F0.3514
tp4764
a(g5
g6
F0.9959
tp4765
asI1351
(lp4766
(S'yeah'
p4767
g25
F0.9933
tp4768
a(S'this'
p4769
g43
F0.9874
tp4770
a(S'is'
p4771
g10
F0.9995
tp4772
a(S'your'
p4773
g13
F0.9934
tp4774
a(S'favorite'
p4775
g62
F0.531
tp4776
a(g5
g6
F0.9982
tp4777
asI1354
(lp4778
(S'Italian'
p4779
g62
F0.902
tp4780
a(S'dressing'
p4781
g10
F0.9145
tp4782
a(S'you'
p4783
g43
F0.9974
tp4784
a(S'like'
p4785
g10
F0.7951
tp4786
a(S'it'
p4787
g43
F0.998
tp4788
a(g5
g6
F0.9986
tp4789
asI1357
(lp4790
(S'at'
p4791
g19
F0.9866
tp4792
a(S'least'
p4793
g62
F0.8843
tp4794
a(S'you'
p4795
g43
F0.9963
tp4796
a(S'always'
p4797
g132
F0.9949
tp4798
a(S'tell'
p4799
g10
F0.9993
tp4800
a(S'me'
p4801
g43
F0.998
tp4802
a(S'you'
p4803
g43
F0.9978
tp4804
a(S'do'
p4805
g10
F0.9991
tp4806
a(g5
g6
F0.9979
tp4807
asI1363
(lp4808
(g2864
g50
F0.9816
tp4809
a(S'[='
p4810
g3
F0.9666
tp4811
a(g25
g6
F0.9877
tp4812
a(S'accelerated'
p4813
g10
F0.7097
tp4814
a(S'eating'
p4815
g10
F0.9864
tp4816
a(S'noises'
p4817
g16
F0.9961
tp4818
a(g31
g6
F0.9943
tp4819
a(g5
g6
F0.9962
tp4820
asI1364
(lp4821
(S'hey'
p4822
g25
F0.9885
tp4823
a(S"don't"
p4824
g10
F0.9994
tp4825
a(S'be'
p4826
g10
F0.9999
tp4827
a(S'like'
p4828
g19
F0.9125
tp4829
a(S'that'
p4830
g43
F0.9637
tp4831
a(g5
g6
F0.9984
tp4832
asI1367
(lp4833
(g38
g39
F0.9288
tp4834
a(g2864
g50
F0.9882
tp4835
a(S'[='
p4836
g3
F0.9603
tp4837
a(g25
g6
F0.9935
tp4838
a(S'eating'
p4839
g10
F0.9986
tp4840
a(S'noises]'
p4841
g16
F0.9953
tp4842
a(g29
g3
F0.5759
tp4843
a(g27
g3
F0.5345
tp4844
a(g29
g3
F0.9577
tp4845
a(g31
g6
F0.795
tp4846
a(g5
g6
F0.9964
tp4847
asI1368
(lp4848
(S'pepper'
p4849
g16
F0.496
tp4850
a(g27
g6
F0.9807
tp4851
a(g38
g39
F0.972
tp4852
a(g31
g6
F0.974
tp4853
a(g21
g6
F0.9963
tp4854
asI1371
(lp4855
(S'xxx'
p4856
g3
F0.7661
tp4857
a(S"it's"
p4858
g219
F0.9959
tp4859
a(S'surprising'
p4860
g62
F0.8511
tp4861
a(S'you'
p4862
g43
F0.9966
tp4863
a(S'sat'
p4864
g10
F0.9923
tp4865
a(S'down'
p4866
g852
F0.5964
tp4867
a(S'this'
p4868
g13
F0.9233
tp4869
a(S'long'
p4870
g62
F0.9855
tp4871
a(S'Sara'
p4872
g228
F0.9895
tp4873
a(S'and'
p4874
g110
F0.9979
tp4875
a(S'xxx'
p4876
g16
F0.3569
tp4877
a(g5
g6
F0.9971
tp4878
asI1376
(lp4879
(S'bacon'
p4880
g16
F0.9788
tp4881
a(S'bits'
p4882
g16
F0.9985
tp4883
a(g5
g6
F0.9985
tp4884
asI1379
(lp4885
(S'hey'
p4886
g25
F0.9929
tp4887
a(S'xxx'
p4888
g3
F0.8354
tp4889
a(g27
g6
F0.6403
tp4890
a(g29
g3
F0.5453
tp4891
a(g31
g6
F0.7789
tp4892
a(g5
g6
F0.995
tp4893
asI1382
(lp4894
(S'xxx'
p4895
g3
F0.8981
tp4896
a(g27
g6
F0.6622
tp4897
a(g38
g39
F0.9843
tp4898
a(g31
g6
F0.9901
tp4899
a(S"it's"
p4900
g219
F0.9797
tp4901
a(S'bacon'
p4902
g16
F0.9939
tp4903
a(g5
g6
F0.9985
tp4904
asI1385
(lp4905
(S'xxx'
p4906
g3
F0.5822
tp4907
a(g5
g6
F0.9648
tp4908
asI1386
(lp4909
(S'Mom'
p4910
g16
F0.7481
tp4911
a(S"it's"
p4912
g219
F0.9812
tp4913
a(S'bacon'
p4914
g16
F0.9967
tp4915
a(g5
g6
F0.9986
tp4916
asI1389
(lp4917
(S'mhm'
p4918
g25
F0.9761
tp4919
a(g5
g6
F0.9962
tp4920
asI1392
(lp4921
(S'<<'
p4922
g39
F0.9206
tp4923
a(g382
g43
F0.9994
tp4924
a(S'did'
p4925
g10
F0.9999
tp4926
a(S'this'
p4927
g13
F0.9623
tp4928
a(S'one'
p4929
g50
F0.7104
tp4930
a(g29
g3
F0.6304
tp4931
a(g27
g6
F0.7297
tp4932
a(S'>]>'
p4933
g134
F0.2374
tp4934
a(S'[//]'
p4935
g134
F0.5481
tp4936
a(g38
g39
F0.9473
tp4937
a(g382
g43
F0.9993
tp4938
a(S'did'
p4939
g10
F0.9995
tp4940
a(g29
g3
F0.2563
tp4941
a(S'[/]'
p4942
g3
F0.5822
tp4943
a(g382
g43
F0.9984
tp4944
a(S'did'
p4945
g10
F0.9999
tp4946
a(S'this'
p4947
g13
F0.9461
tp4948
a(S'one'
p4949
g50
F0.8807
tp4950
a(g5
g6
F0.9975
tp4951
asI1395
(lp4952
(S'xxx'
p4953
g3
F0.8981
tp4954
a(g27
g6
F0.8619
tp4955
a(S'<][>'
p4956
g3
F0.2489
tp4957
a(g31
g6
F0.862
tp4958
a(g5
g6
F0.9962
tp4959
asI1396
(lp4960
(S'mhm'
p4961
g25
F0.9046
tp4962
a(g27
g6
F0.9796
tp4963
a(g38
g39
F0.972
tp4964
a(g31
g6
F0.9847
tp4965
a(g5
g6
F0.9962
tp4966
asI1399
(lp4967
(g38
g39
F0.9526
tp4968
a(g382
g43
F0.9967
tp4969
a(g29
g39
F0.2694
tp4970
a(S'[//]'
p4971
g6
F0.201
tp4972
a(S'Mom'
p4973
g16
F0.8049
tp4974
a(S"what's"
p4975
g219
F0.9906
tp4976
a(g38
g39
F0.8256
tp4977
a(S'that'
p4978
g13
F0.8116
tp4979
a(S'thing'
p4980
g16
F0.9916
tp4981
a(S'right'
p4982
g132
F0.8432
tp4983
a(S'there'
p4984
g132
F0.7605
tp4985
a(g29
g3
F0.5498
tp4986
a(g27
g3
F0.5345
tp4987
a(g29
g3
F0.9625
tp4988
a(g31
g6
F0.6401
tp4989
a(g21
g6
F0.9971
tp4990
asI1403
(lp4991
(g38
g39
F0.9001
tp4992
a(S'you'
p4993
g43
F0.9972
tp4994
a(S'gotta'
p4995
g10
F0.9997
tp4996
a(S'eat'
p4997
g10
F0.9922
tp4998
a(S'more'
p4999
g62
F0.8103
tp5000
a(S'than'
p5001
g19
F0.9968
tp5002
a(S'that'
p5003
g43
F0.9512
tp5004
a(g29
g3
F0.4384
tp5005
a(g27
g3
F0.535
tp5006
a(g38
g39
F0.768
tp5007
a(g31
g6
F0.985
tp5008
a(g5
g6
F0.9936
tp5009
asI1407
(lp5010
(S"what's"
p5011
g219
F0.9911
tp5012
a(S'that'
p5013
g43
F0.7339
tp5014
a(g21
g6
F0.9981
tp5015
asI1410
(lp5016
(S'never'
p5017
g132
F0.9694
tp5018
a(S'mind'
p5019
g16
F0.5525
tp5020
a(g5
g6
F0.997
tp5021
asI1413
(lp5022
(S'xxx'
p5023
g3
F0.5822
tp5024
a(g5
g6
F0.9648
tp5025
asI1414
(lp5026
(g382
g43
F0.9985
tp5027
a(S'know'
p5028
g10
F0.9983
tp5029
a(g5
g6
F0.9977
tp5030
asI1417
(lp5031
(S"it's"
p5032
g219
F0.9923
tp5033
a(S'the'
p5034
g13
F0.9986
tp5035
a(S'light'
p5036
g16
F0.9885
tp5037
a(S'blinking'
p5038
g10
F0.6129
tp5039
a(S'just'
p5040
g132
F0.9996
tp5041
a(S'leave'
p5042
g10
F0.9995
tp5043
a(S'it'
p5044
g43
F0.9934
tp5045
a(S'alone'
p5046
g132
F0.5783
tp5047
a(g5
g6
F0.9985
tp5048
asI1422
(lp5049
(S"it's"
p5050
g219
F0.9974
tp5051
a(S'just'
p5052
g132
F0.9936
tp5053
a(S"Investigator's"
p5054
g956
F0.8269
tp5055
a(S'tape'
p5056
g16
F0.996
tp5057
a(S'recorder'
p5058
g16
F0.9974
tp5059
a(g5
g6
F0.9973
tp5060
asI1426
(lp5061
(S'batteries'
p5062
g16
F0.9707
tp5063
a(S'are'
p5064
g10
F0.9909
tp5065
a(S'going'
p5066
g10
F0.9932
tp5067
a(S'dead'
p5068
g62
F0.9052
tp5069
a(S"it's"
p5070
g219
F0.9964
tp5071
a(S'just'
p5072
g132
F0.9995
tp5073
a(S'showing'
p5074
g10
F0.9997
tp5075
a(S'you'
p5076
g43
F0.9988
tp5077
a(S'that'
p5078
g43
F0.3099
tp5079
a(g5
g6
F0.9987
tp5080
asI1433
(lp5081
(S'xxx'
p5082
g3
F0.5822
tp5083
a(g5
g6
F0.9648
tp5084
asI1434
(lp5085
(S'(...)'
p5086
g6
F0.3922
tp5087
a(S"I'll"
p5088
g219
F0.9805
tp5089
a(S'have'
p5090
g10
F0.9999
tp5091
a(S'another'
p5092
g13
F0.9967
tp5093
a(S'piece'
p5094
g16
F0.999
tp5095
a(S'of'
p5096
g19
F0.9971
tp5097
a(S'corn'
p5098
g16
F0.9918
tp5099
a(g5
g6
F0.9987
tp5100
asI1437
(lp5101
(S'which'
p5102
g13
F0.9927
tp5103
a(S'piece'
p5104
g16
F0.9921
tp5105
a(S'would'
p5106
g10
F0.9994
tp5107
a(S'you'
p5108
g43
F0.9962
tp5109
a(S'like'
p5110
g10
F0.7342
tp5111
a(g21
g6
F0.9958
tp5112
asI1440
(lp5113
(S'that'
p5114
g13
F0.6949
tp5115
a(S'one'
p5116
g50
F0.8057
tp5117
a(g5
g6
F0.9975
tp5118
asI1443
(lp5119
(S'looks'
p5120
g10
F0.981
tp5121
a(S'good'
p5122
g62
F0.9961
tp5123
a(S'to'
p5124
g19
F0.9982
tp5125
a(S'me'
p5126
g43
F0.999
tp5127
a(S'would'
p5128
g10
F0.9995
tp5129
a(S'you'
p5130
g43
F0.995
tp5131
a(S'like'
p5132
g10
F0.6338
tp5133
a(S'the'
p5134
g13
F0.9987
tp5135
a(S'butter'
p5136
g16
F0.9959
tp5137
a(S'also'
p5138
g132
F0.9928
tp5139
a(g21
g6
F0.9975
tp5140
asI1448
(lp5141
(S'please'
p5142
g10
F0.8368
tp5143
a(g5
g6
F0.9977
tp5144
asI1451
(lp5145
(S'that'
p5146
g43
F0.7809
tp5147
a(S'almost'
p5148
g132
F0.9887
tp5149
a(S'melting'
p5150
g10
F0.9782
tp5151
a(g25
g6
F0.9989
tp5152
asI1454
(lp5153
(S'help'
p5154
g10
F0.9926
tp5155
a(S'me'
p5156
g43
F0.9972
tp5157
a(S"I'm"
p5158
g219
F0.9932
tp5159
a(S'melt(ing'
p5160
g10
F0.8871
tp5161
a(g3001
g6
F0.9907
tp5162
a(S'[='
p5163
g3
F0.9635
tp5164
a(g25
g6
F0.9937
tp5165
a(S'high'
p5166
g62
F0.3937
tp5167
a(S'quavering'
p5168
g16
F0.9188
tp5169
a(S'voice'
p5170
g16
F0.9953
tp5171
a(g31
g6
F0.9942
tp5172
a(S'who'
p5173
g43
F0.9958
tp5174
a(S'says'
p5175
g10
F0.9999
tp5176
a(S'that'
p5177
g43
F0.7564
tp5178
a(g21
g6
F0.9984
tp5179
asI1460
(lp5180
(S'me'
p5181
g43
F0.9992
tp5182
a(S'did'
p5183
g10
F0.9838
tp5184
a(g25
g6
F0.9971
tp5185
asI1463
(lp5186
(S'no'
p5187
g13
F0.4786
tp5188
a(S'help'
p5189
g10
F0.741
tp5190
a(S'me'
p5191
g43
F0.9972
tp5192
a(S"I'm"
p5193
g219
F0.9925
tp5194
a(S'melting'
p5195
g10
F0.934
tp5196
a(S'what'
p5197
g43
F0.6366
tp5198
a(S'movie'
p5199
g16
F0.9968
tp5200
a(g21
g6
F0.9982
tp5201
asI1469
(lp5202
(S'remember'
p5203
g10
F0.9956
tp5204
a(S'the'
p5205
g13
F0.9994
tp5206
a(S'wicked'
p5207
g62
F0.9912
tp5208
a(S'witch'
p5209
g16
F0.9944
tp5210
a(S'help'
p5211
g10
F0.9932
tp5212
a(S'me'
p5213
g43
F0.9972
tp5214
a(S"I'm"
p5215
g219
F0.9925
tp5216
a(S'melting'
p5217
g10
F0.9003
tp5218
a(S'[='
p5219
g3
F0.9343
tp5220
a(g25
g6
F0.9902
tp5221
a(S'quivery'
p5222
g16
F0.2565
tp5223
a(S'voice'
p5224
g16
F0.9947
tp5225
a(g31
g6
F0.9886
tp5226
a(g21
g6
F0.9977
tp5227
asI1475
(lp5228
(S'Dorothy'
p5229
g228
F0.9595
tp5230
a(S"I'm"
p5231
g219
F0.9876
tp5232
a(S'going'
p5233
g10
F0.9951
tp5234
a(S'to'
p5235
g19
F0.9914
tp5236
a(S'get'
p5237
g10
F1.0
tp5238
a(S'you'
p5239
g43
F0.9995
tp5240
a(S'and'
p5241
g110
F0.9928
tp5242
a(S'your'
p5243
g13
F0.9181
tp5244
a(S'little'
p5245
g62
F0.9902
tp5246
a(S'dog'
p5247
g16
F0.9993
tp5248
a(S'too'
p5249
g132
F0.914
tp5250
a(S'[='
p5251
g3
F0.957
tp5252
a(g25
g6
F0.9937
tp5253
a(S'high'
p5254
g62
F0.4791
tp5255
a(S'quivery'
p5256
g16
F0.92
tp5257
a(S'voice'
p5258
g16
F0.9939
tp5259
a(g31
g6
F0.9926
tp5260
a(g5
g6
F0.9971
tp5261
asI1480
(lp5262
(S'yeah'
p5263
g25
F0.9986
tp5264
a(g5
g6
F0.997
tp5265
asI1483
(lp5266
(S'the'
p5267
g13
F0.9987
tp5268
a(S'wicked'
p5269
g62
F0.9981
tp5270
a(S'witch'
p5271
g16
F0.998
tp5272
a(g25
g6
F0.9989
tp5273
asI1486
(lp5274
(S'yeah'
p5275
g25
F0.9994
tp5276
a(g25
g6
F0.9967
tp5277
asI1489
(lp5278
(S'from'
p5279
g19
F0.9991
tp5280
a(S'the'
p5281
g13
F0.9956
tp5282
a(S'Wizard'
p5283
g16
F0.8155
tp5284
a(S'of'
p5285
g19
F0.995
tp5286
a(S'Oz'
p5287
g228
F0.8096
tp5288
a(g25
g6
F0.9893
tp5289
asI1492
(lp5290
(S'yeah'
p5291
g25
F0.9986
tp5292
a(g5
g6
F0.997
tp5293
asI1495
(lp5294
(g382
g43
F0.9962
tp5295
a(S'just'
p5296
g132
F0.9986
tp5297
a(S'watched'
p5298
g10
F0.9997
tp5299
a(S'it'
p5300
g43
F0.9861
tp5301
a(g5
g6
F0.9989
tp5302
asI1498
(lp5303
(S'you'
p5304
g43
F0.9645
tp5305
a(S'what'
p5306
g43
F0.8876
tp5307
a(g21
g6
F0.9924
tp5308
asI1502
(lp5309
(S'she'
p5310
g43
F0.9945
tp5311
a(S'just'
p5312
g132
F0.9996
tp5313
a(S'watched'
p5314
g10
F0.9997
tp5315
a(S'it'
p5316
g43
F0.9861
tp5317
a(g5
g6
F0.9989
tp5318
asI1505
(lp5319
(S'you'
p5320
g43
F0.999
tp5321
a(S'did'
p5322
g10
F0.9984
tp5323
a(S'\xe2\x86\x91'
p5324
g134
F0.258
tp5325
a(S'when'
p5326
g132
F0.9915
tp5327
a(g21
g6
F0.9974
tp5328
asI1509
(lp5329
(S'at'
p5330
g19
F0.9897
tp5331
a(S'movies'
p5332
g16
F0.952
tp5333
a(S'xxx'
p5334
g10
F0.5343
tp5335
a(S'you'
p5336
g43
F0.9963
tp5337
a(S'butthead'
p5338
g10
F0.9828
tp5339
a(S'@f'
p5340
S'@'
p5341
F0.9939
tp5342
a(g25
g6
F0.9961
tp5343
asI1512
(lp5344
(S'<&='
p5345
g228
F0.2832
tp5346
a(S'laughs'
p5347
g10
F0.9507
tp5348
a(g29
g3
F0.3768
tp5349
a(g27
g3
F0.4959
tp5350
a(g29
g3
F0.9698
tp5351
a(g31
g6
F0.6899
tp5352
a(g5
g6
F0.9959
tp5353
asI1513
(lp5354
(S'<&='
p5355
g228
F0.2832
tp5356
a(S'laughs'
p5357
g10
F0.9507
tp5358
a(g29
g3
F0.3768
tp5359
a(g27
g3
F0.4963
tp5360
a(g38
g39
F0.7259
tp5361
a(g31
g6
F0.9803
tp5362
a(g5
g6
F0.9959
tp5363
asI1514
(lp5364
(S"don't"
p5365
g10
F0.9993
tp5366
a(S'call'
p5367
g10
F0.9998
tp5368
a(S'me'
p5369
g43
F0.9957
tp5370
a(g401
g13
F0.9718
tp5371
a(S'butthead'
p5372
g16
F0.889
tp5373
a(S'@f'
p5374
g5341
F0.9852
tp5375
a(g5
g6
F0.9956
tp5376
asI1517
(lp5377
(S'me'
p5378
g43
F0.9984
tp5379
a(S'can'
p5380
g10
F0.9965
tp5381
a(S'too'
p5382
g132
F0.9679
tp5383
a(S'+/'
p5384
g62
F0.2102
tp5385
a(g5
g6
F0.9975
tp5386
asI1520
(lp5387
(S"that's"
p5388
g219
F0.9974
tp5389
a(S'not'
p5390
g132
F0.9993
tp5391
a(S'nice'
p5392
g62
F0.9837
tp5393
a(S'to'
p5394
g19
F0.9983
tp5395
a(S'call'
p5396
g10
F0.9827
tp5397
a(S'dad'
p5398
g16
F0.9796
tp5399
a(g5
g6
F0.9983
tp5400
asI1523
(lp5401
(S'sit'
p5402
g10
F0.9948
tp5403
a(S'up'
p5404
g852
F0.9719
tp5405
a(S'and'
p5406
g110
F0.9965
tp5407
a(S'eat'
p5408
g10
F0.9694
tp5409
a(S'Sara'
p5410
g228
F0.9958
tp5411
a(g5
g6
F0.9931
tp5412
asI1526
(lp5413
(S"I'm"
p5414
g219
F0.9968
tp5415
a(S'sick'
p5416
g62
F0.9985
tp5417
a(g5
g6
F0.998
tp5418
asI1529
(lp5419
(S'xxx'
p5420
g3
F0.5822
tp5421
a(g5
g6
F0.9648
tp5422
asI1530
(lp5423
(S"you're"
p5424
g219
F0.9953
tp5425
a(S'not'
p5426
g132
F0.9996
tp5427
a(S'sick'
p5428
g62
F0.9743
tp5429
a(g5
g6
F0.9982
tp5430
asI1533
(lp5431
(S'now'
p5432
g132
F0.994
tp5433
a(S'come'
p5434
g10
F0.9979
tp5435
a(S'on'
p5436
g19
F0.9139
tp5437
a(S'you'
p5438
g43
F0.9996
tp5439
a(S'do'
p5440
g10
F0.9999
tp5441
a(S'this'
p5442
g43
F0.5419
tp5443
a(S'every'
p5444
g13
F0.9543
tp5445
a(S'night'
p5446
g16
F0.9978
tp5447
a(g5
g6
F0.9992
tp5448
asI1538
(lp5449
(S"I'm"
p5450
g219
F0.9878
tp5451
a(S'xxx'
p5452
g3
F0.4988
tp5453
a(S'+/'
p5454
g3
F0.2373
tp5455
a(g5
g6
F0.9615
tp5456
asI1541
(lp5457
(S"you're"
p5458
g219
F0.9903
tp5459
a(S'doing'
p5460
g10
F0.9976
tp5461
a(S'so'
p5462
g132
F0.9624
tp5463
a(S'good'
p5464
g62
F0.9944
tp5465
a(S'just'
p5466
g132
F0.9995
tp5467
a(S'sit'
p5468
g10
F0.9994
tp5469
a(S'up'
p5470
g852
F0.9723
tp5471
a(S'and'
p5472
g110
F0.9973
tp5473
a(S'finish'
p5474
g10
F0.8485
tp5475
a(g5
g6
F0.998
tp5476
asI1546
(lp5477
(S'at'
p5478
g19
F0.9866
tp5479
a(S'least'
p5480
g62
F0.9361
tp5481
a(S'sit'
p5482
g10
F0.5415
tp5483
a(S'with'
p5484
g19
F0.9968
tp5485
a(S'us'
p5486
g43
F0.9749
tp5487
a(S'while'
p5488
g19
F0.81
tp5489
a(S'everybody'
p5490
g16
F0.9363
tp5491
a(S'else'
p5492
g132
F0.9044
tp5493
a(S'finishes'
p5494
g10
F0.9883
tp5495
a(S'how'
p5496
g132
F0.9938
tp5497
a(S'you'
p5498
g43
F0.9996
tp5499
a(S'doing'
p5500
g10
F0.9998
tp5501
a(S'Heather'
p5502
g228
F0.9825
tp5503
a(S'almost'
p5504
g132
F0.9931
tp5505
a(S'done'
p5506
g10
F0.9348
tp5507
a(g21
g6
F0.9992
tp5508
asI1554
(lp5509
(S'you'
p5510
g43
F0.9946
tp5511
a(S'feel'
p5512
g10
F0.9985
tp5513
a(S'sick'
p5514
g62
F0.9975
tp5515
a(S'honey'
p5516
g16
F0.9861
tp5517
a(g21
g6
F0.9983
tp5518
asI1558
(lp5519
(g2864
g50
F0.9816
tp5520
a(S'[='
p5521
g3
F0.9666
tp5522
a(g25
g6
F0.9799
tp5523
a(S'makes'
p5524
g10
F0.9969
tp5525
a(S'crying'
p5526
g10
F0.9965
tp5527
a(S'noise'
p5528
g16
F0.9886
tp5529
a(g31
g6
F0.994
tp5530
a(g5
g6
F0.9962
tp5531
asI1559
(lp5532
(S'do'
p5533
g10
F0.9983
tp5534
a(S'you'
p5535
g43
F0.9956
tp5536
a(g21
g6
F0.9993
tp5537
asI1563
(lp5538
(g2864
g50
F0.9816
tp5539
a(S'[='
p5540
g3
F0.9666
tp5541
a(g25
g6
F0.9906
tp5542
a(S'continues'
p5543
g10
F0.995
tp5544
a(S'whining'
p5545
g10
F0.9961
tp5546
a(g31
g6
F0.996
tp5547
a(g5
g6
F0.9959
tp5548
asI1564
(lp5549
(g1029
g6
F0.9736
tp5550
a(S'be)cause'
p5551
g19
F0.9892
tp5552
a(S'if'
p5553
g19
F0.9934
tp5554
a(S"you're"
p5555
g219
F0.997
tp5556
a(S'sick'
p5557
g62
F0.993
tp5558
a(S"I'm"
p5559
g219
F0.9954
tp5560
a(S'sure'
p5561
g62
F0.9519
tp5562
a(S"we'll"
p5563
g219
F0.9466
tp5564
a(S'put'
p5565
g10
F0.9991
tp5566
a(S'you'
p5567
g43
F0.9986
tp5568
a(S'to'
p5569
g19
F0.9716
tp5570
a(S'bed'
p5571
g16
F0.5543
tp5572
a(S'when'
p5573
g132
F0.948
tp5574
a(S"you're"
p5575
g219
F0.9928
tp5576
a(S'done'
p5577
g10
F0.9684
tp5578
a(S'eating'
p5579
g10
F0.9747
tp5580
a(g5
g6
F0.9972
tp5581
asI1573
(lp5582
(S"don't"
p5583
g10
F0.9992
tp5584
a(S'start'
p5585
g10
F0.9997
tp5586
a(S'crying'
p5587
g10
F0.9979
tp5588
a(S'[='
p5589
g3
F0.9284
tp5590
a(g25
g6
F0.9927
tp5591
a(S'intense'
p5592
g62
F0.8933
tp5593
a(S'near'
p5594
g19
F0.9904
tp5595
a(S'whisper'
p5596
g16
F0.9128
tp5597
a(g31
g6
F0.9922
tp5598
a(g5
g6
F0.9959
tp5599
asI1576
(lp5600
(S'come'
p5601
g10
F0.9849
tp5602
a(S'on'
p5603
g852
F0.4965
tp5604
a(g25
g6
F0.9961
tp5605
asI1579
(lp5606
(S'sit'
p5607
g10
F0.9948
tp5608
a(S'up'
p5609
g852
F0.9814
tp5610
a(S'please'
p5611
g10
F0.9035
tp5612
a(g5
g6
F0.9982
tp5613
asI1582
(lp5614
(S'xxx'
p5615
g3
F0.5822
tp5616
a(g5
g6
F0.9648
tp5617
asI1583
(lp5618
(S'nuhhuh'
p5619
g25
F0.4209
tp5620
a(g5
g6
F0.9969
tp5621
asI1586
(lp5622
(S'fine'
p5623
g62
F0.8737
tp5624
a(S'just'
p5625
g132
F0.9993
tp5626
a(S'there'
p5627
g132
F0.8249
tp5628
a(S'sit'
p5629
g10
F0.889
tp5630
a(S'hon'
p5631
g16
F0.9844
tp5632
a(S'okay'
p5633
g25
F0.831
tp5634
a(S'\xe2\x86\x91'
p5635
g228
F0.2622
tp5636
a(S'just'
p5637
g132
F0.9986
tp5638
a(S'let'
p5639
g10
F0.9997
tp5640
a(S'us'
p5641
g43
F0.9944
tp5642
a(S'finish'
p5643
g10
F0.9202
tp5644
a(S'eating'
p5645
g10
F0.9777
tp5646
a(g5
g6
F0.9973
tp5647
asI1591
(lp5648
(g110
g110
F0.9893
tp5649
a(g337
g6
F0.8613
tp5650
a(S'burps'
p5651
g10
F0.4664
tp5652
a(g5
g6
F0.9978
tp5653
asI1592
(lp5654
(S"here's"
p5655
g219
F0.911
tp5656
a(S'your'
p5657
g13
F0.946
tp5658
a(S'drink'
p5659
g16
F0.9975
tp5660
a(g5
g6
F0.998
tp5661
asI1595
(lp5662
(S'<&='
p5663
g228
F0.2832
tp5664
a(S'laughs'
p5665
g10
F0.9507
tp5666
a(g29
g3
F0.3768
tp5667
a(g27
g3
F0.4959
tp5668
a(g29
g3
F0.9698
tp5669
a(g31
g6
F0.6899
tp5670
a(g5
g6
F0.9959
tp5671
asI1596
(lp5672
(S'<&='
p5673
g228
F0.2344
tp5674
a(S'whining'
p5675
g10
F0.9971
tp5676
a(g29
g3
F0.4024
tp5677
a(g27
g3
F0.4963
tp5678
a(g38
g39
F0.7259
tp5679
a(g31
g6
F0.9803
tp5680
a(g5
g6
F0.9959
tp5681
asI1597
(lp5682
(S'what'
p5683
g43
F0.9931
tp5684
a(S'do'
p5685
g10
F0.9993
tp5686
a(S'you'
p5687
g43
F0.9997
tp5688
a(S'say'
p5689
g10
F0.9857
tp5690
a(g21
g6
F0.9977
tp5691
asI1600
(lp5692
(S'excuse'
p5693
g10
F0.9751
tp5694
a(S'me'
p5695
g43
F0.9988
tp5696
a(S'xxx'
p5697
g3
F0.3736
tp5698
a(g5
g6
F0.9663
tp5699
asI1603
(lp5700
(S'xxx'
p5701
g3
F0.5794
tp5702
a(S'table'
p5703
g16
F0.9791
tp5704
a(g110
g110
F0.9916
tp5705
a(g337
g6
F0.9113
tp5706
a(S'whispering'
p5707
g10
F0.993
tp5708
a(g5
g6
F0.9987
tp5709
asI1606
(lp5710
(S"don't"
p5711
g10
F0.9985
tp5712
a(S'spill'
p5713
g10
F0.9984
tp5714
a(S'it'
p5715
g43
F0.9897
tp5716
a(S'xxx'
p5717
g3
F0.4179
tp5718
a(g5
g6
F0.9688
tp5719
asI1609
(lp5720
(S"what's"
p5721
g219
F0.9897
tp5722
a(S'this'
p5723
g43
F0.5815
tp5724
a(S'your'
p5725
g13
F0.467
tp5726
a(S'used'
p5727
g10
F0.6635
tp5728
a(S'up'
p5729
g852
F0.9097
tp5730
a(S'corn'
p5731
g16
F0.9755
tp5732
a(S'cob'
p5733
g16
F0.9158
tp5734
a(g21
g6
F0.9987
tp5735
asI1614
(lp5736
(S'no'
p5737
g25
F0.6931
tp5738
a(S'this'
p5739
g43
F0.9334
tp5740
a(S'is'
p5741
g10
F0.9995
tp5742
a(S'my'
p5743
g13
F0.7953
tp5744
a(S'used'
p5745
g10
F0.5114
tp5746
a(S'up'
p5747
g852
F0.9097
tp5748
a(S'corn'
p5749
g16
F0.9751
tp5750
a(S'cob'
p5751
g16
F0.9449
tp5752
a(g5
g6
F0.9993
tp5753
asI1620
(lp5754
(S'that'
p5755
g43
F0.5202
tp5756
a(S'mine'
p5757
g43
F0.8705
tp5758
a(g25
g6
F0.9978
tp5759
asI1623
(lp5760
(S'mine'
p5761
g43
F0.8022
tp5762
a(g5
g6
F0.9966
tp5763
asI1626
(lp5764
(S'hey'
p5765
g25
F0.9912
tp5766
a(S'you'
p5767
g43
F0.9989
tp5768
a(S"didn't"
p5769
g10
F0.9999
tp5770
a(S'want'
p5771
g10
F1.0
tp5772
a(S'it'
p5773
g43
F0.9876
tp5774
a(S'Sara'
p5775
g228
F0.9702
tp5776
a(S"dad's"
p5777
g16
F0.4126
tp5778
a(S'taking'
p5779
g10
F0.9986
tp5780
a(S'over'
p5781
g19
F0.6383
tp5782
a(S'now'
p5783
g132
F0.9967
tp5784
a(g5
g6
F0.9987
tp5785
asI1631
(lp5786
(S'nuhhuh'
p5787
g25
F0.4209
tp5788
a(g5
g6
F0.9969
tp5789
asI1634
(lp5790
(S'okay'
p5791
g25
F0.9741
tp5792
a(g5
g6
F0.9977
tp5793
asI1637
(lp5794
(S'she'
p5795
g43
F0.9908
tp5796
a(S"doesn't"
p5797
g10
F0.9988
tp5798
a(S'care'
p5799
g10
F0.9496
tp5800
a(g5
g6
F0.9964
tp5801
asI1642
(lp5802
(S'this'
p5803
g13
F0.6364
tp5804
a(S"wasn't"
p5805
g10
F0.8882
tp5806
a(S"her's"
p5807
g43
F0.9546
tp5808
a(S'anyway'
p5809
g132
F0.9953
tp5810
a(g5
g6
F0.9978
tp5811
asI1646
(lp5812
(S'she'
p5813
g43
F0.9969
tp5814
a(S'took'
p5815
g10
F0.9999
tp5816
a(S"her's"
p5817
g43
F0.8904
tp5818
a(S'over'
p5819
g19
F0.3317
tp5820
a(S'on'
p5821
g19
F0.9686
tp5822
a(S'the'
p5823
g13
F0.999
tp5824
a(S'counter'
p5825
g16
F0.999
tp5826
a(g5
g6
F0.9984
tp5827
asI1652
(lp5828
(S'&-um'
p5829
g25
F0.9716
tp5830
a(g5
g6
F0.9962
tp5831
asI1653
(lp5832
(S'oh'
p5833
g25
F0.9984
tp5834
a(g5
g6
F0.9938
tp5835
asI1656
(lp5836
(S'my'
p5837
g13
F0.9943
tp5838
a(S'corn'
p5839
g16
F0.9945
tp5840
a(S'cob'
p5841
g16
F0.967
tp5842
a(g5
g6
F0.9992
tp5843
asI1659
(lp5844
(S'Heather'
p5845
g228
F0.9564
tp5846
a(S'you'
p5847
g43
F0.9983
tp5848
a(S'want'
p5849
g10
F0.9999
tp5850
a(S'another'
p5851
g13
F0.9953
tp5852
a(S'piece'
p5853
g16
F0.999
tp5854
a(S'of'
p5855
g19
F0.9968
tp5856
a(S'corn'
p5857
g16
F0.9922
tp5858
a(S'now'
p5859
g132
F0.9953
tp5860
a(S'still'
p5861
g132
F0.9984
tp5862
a(g21
g6
F0.9963
tp5863
asI1664
(lp5864
(S'no'
p5865
g25
F0.9596
tp5866
a(g21
g6
F0.9962
tp5867
asI1667
(lp5868
(S"you've"
p5869
g219
F0.9563
tp5870
a(S'eaten'
p5871
g10
F0.9977
tp5872
a(S'enough'
p5873
g132
F0.5205
tp5874
a(g21
g6
F0.9984
tp5875
asI1670
(lp5876
(S'see'
p5877
g10
F0.7673
tp5878
a(S'\xe2\x86\x91'
p5879
g134
F0.2948
tp5880
a(S'it'
p5881
g43
F0.9962
tp5882
a(S'was'
p5883
g10
F0.9987
tp5884
a(S'better'
p5885
g132
F0.8243
tp5886
a(S'you'
p5887
g43
F0.9984
tp5888
a(S'ate'
p5889
g10
F0.9993
tp5890
a(S'the'
p5891
g13
F0.9989
tp5892
a(S'salad'
p5893
g16
F0.9981
tp5894
a(g5
g6
F0.9985
tp5895
asI1675
(lp5896
(S'are'
p5897
g10
F0.9964
tp5898
a(S'you'
p5899
g43
F0.9994
tp5900
a(S'gonna'
p5901
g10
F0.9996
tp5902
a(S'eat'
p5903
g10
F0.9994
tp5904
a(S'this'
p5905
g13
F0.9744
tp5906
a(S'last'
p5907
g62
F0.9857
tp5908
a(S'tomato'
p5909
g16
F0.9988
tp5910
a(g21
g6
F0.9977
tp5911
asI1679
(lp5912
(S'mom'
p5913
g16
F0.522
tp5914
a(S'me'
p5915
g43
F0.9912
tp5916
a(S'xxx'
p5917
g3
F0.3705
tp5918
a(S'table'
p5919
g16
F0.9915
tp5920
a(g5
g6
F0.9984
tp5921
asI1682
(lp5922
(S'no'
p5923
g25
F0.5613
tp5924
a(S"don't"
p5925
g10
F0.9992
tp5926
a(S'play'
p5927
g10
F0.9993
tp5928
a(S'under'
p5929
g19
F0.9964
tp5930
a(S'the'
p5931
g13
F0.9993
tp5932
a(S'table'
p5933
g16
F0.9794
tp5934
a(S'Sara'
p5935
g228
F0.9764
tp5936
a(g5
g6
F0.995
tp5937
asI1687
(lp5938
(S'what'
p5939
g43
F0.9835
tp5940
a(S'are'
p5941
g10
F0.9978
tp5942
a(S'you'
p5943
g43
F0.9996
tp5944
a(S'going'
p5945
g10
F0.9996
tp5946
a(S'to'
p5947
g19
F0.8782
tp5948
a(S'do'
p5949
g10
F0.9998
tp5950
a(S'with'
p5951
g19
F0.9879
tp5952
a(S'xxx'
p5953
g16
F0.3047
tp5954
a(g5
g6
F0.9986
tp5955
asI1691
(lp5956
(S'me'
p5957
g43
F0.996
tp5958
a(S'xxx'
p5959
g3
F0.3253
tp5960
a(S'under'
p5961
g19
F0.9972
tp5962
a(S'the'
p5963
g13
F0.9993
tp5964
a(S'table'
p5965
g16
F0.9976
tp5966
a(g5
g6
F0.9977
tp5967
asI1694
(lp5968
(g382
g43
F0.9976
tp5969
a(S"don't"
p5970
g10
F1.0
tp5971
a(S'know'
p5972
g10
F0.9986
tp5973
a(g5
g6
F0.9981
tp5974
asI1697
(lp5975
(S'xxx'
p5976
g3
F0.5944
tp5977
a(S'table'
p5978
g16
F0.9874
tp5979
a(g5
g6
F0.9983
tp5980
asI1700
(lp5981
(S'you'
p5982
g43
F0.9969
tp5983
a(S'can'
p5984
g10
F0.9994
tp5985
a(S'xxx'
p5986
g10
F0.5417
tp5987
a(g5
g6
F0.9977
tp5988
asI1703
(lp5989
(S'under'
p5990
g19
F0.9964
tp5991
a(S'the'
p5992
g13
F0.9918
tp5993
a(g3382
g134
F0.5618
tp5994
a(S'...'
p5995
g39
F0.6127
tp5996
asI1706
(lp5997
(S"what's"
p5998
g219
F0.9956
tp5999
a(S'under'
p6000
g19
F0.9939
tp6001
a(S'the'
p6002
g13
F0.9992
tp6003
a(S'table'
p6004
g16
F0.9952
tp6005
a(g21
g6
F0.9984
tp6006
asI1710
(lp6007
(S'me'
p6008
g43
F0.9977
tp6009
a(S'just'
p6010
g132
F0.9997
tp6011
a(S'burp'
p6012
g10
F0.9575
tp6013
a(S'under'
p6014
g19
F0.9951
tp6015
a(S'the'
p6016
g13
F0.9993
tp6017
a(S'table'
p6018
g16
F0.9977
tp6019
a(g5
g6
F0.9982
tp6020
asI1713
(lp6021
(S'xxx'
p6022
g3
F0.5822
tp6023
a(g5
g6
F0.9648
tp6024
asI1714
(lp6025
(S'oh'
p6026
g25
F0.9957
tp6027
a(S'well'
p6028
g25
F0.9295
tp6029
a(S'you'
p6030
g43
F0.9997
tp6031
a(S'say'
p6032
g10
F0.9983
tp6033
a(S'excuse'
p6034
g10
F0.982
tp6035
a(S'me'
p6036
g43
F0.9991
tp6037
a(S'even'
p6038
g132
F0.998
tp6039
a(S'if'
p6040
g19
F0.9976
tp6041
a(S'you'
p6042
g43
F0.9993
tp6043
a(S'burp'
p6044
g10
F0.9813
tp6045
a(S'under'
p6046
g19
F0.9853
tp6047
a(g401
g13
F0.9977
tp6048
a(S'table'
p6049
g16
F0.9982
tp6050
a(g5
g6
F0.999
tp6051
asI1719
(lp6052
(S'what'
p6053
g43
F0.9931
tp6054
a(S'do'
p6055
g10
F0.9993
tp6056
a(S'you'
p6057
g43
F0.9997
tp6058
a(S'say'
p6059
g10
F0.9857
tp6060
a(g21
g6
F0.9977
tp6061
asI1723
(lp6062
(S'excuse'
p6063
g10
F0.9631
tp6064
a(S'me'
p6065
g43
F0.9986
tp6066
a(g5
g6
F0.9983
tp6067
asI1726
(lp6068
(S'xxx'
p6069
g3
F0.5822
tp6070
a(g5
g6
F0.9648
tp6071
asI1727
(lp6072
(S'yep'
p6073
g25
F0.9972
tp6074
a(g5
g6
F0.9971
tp6075
asI1730
(lp6076
(S'xxx'
p6077
g3
F0.6152
tp6078
a(S'under'
p6079
g19
F0.9975
tp6080
a(S'the'
p6081
g13
F0.9992
tp6082
a(S'table'
p6083
g16
F0.9986
tp6084
a(g5
g6
F0.9984
tp6085
asI1733
(lp6086
(S'nuhhuh'
p6087
g25
F0.4209
tp6088
a(g5
g6
F0.9969
tp6089
asI1736
(lp6090
(S'xxx'
p6091
g3
F0.5822
tp6092
a(g5
g6
F0.9648
tp6093
asI1737
(lp6094
(S'xxx'
p6095
g3
F0.5822
tp6096
a(g5
g6
F0.9648
tp6097
asI1738
(lp6098
(S'xxx'
p6099
g3
F0.8252
tp6100
a(S'xxx'
p6101
g3
F0.9788
tp6102
a(S'[='
p6103
g3
F0.9975
tp6104
a(g25
g6
F0.9946
tp6105
a(S'speaking'
p6106
g10
F0.9981
tp6107
a(S'in'
p6108
g19
F0.8501
tp6109
a(S'low'
p6110
g62
F0.982
tp6111
a(S'voice'
p6112
g16
F0.999
tp6113
a(g31
g6
F0.9972
tp6114
a(S'outside'
p6115
g62
F0.4054
tp6116
a(g5
g6
F0.9987
tp6117
asI1741
(lp6118
(S'please'
p6119
g10
F0.953
tp6120
a(S'go'
p6121
g10
F0.9914
tp6122
a(S'sit'
p6123
g10
F0.9445
tp6124
a(S'back'
p6125
g132
F0.6543
tp6126
a(S'at'
p6127
g19
F0.9996
tp6128
a(S'the'
p6129
g13
F0.9992
tp6130
a(S'table'
p6131
g16
F0.9942
tp6132
a(S'til'
p6133
g19
F0.9775
tp6134
a(S"everybody's"
p6135
g219
F0.7993
tp6136
a(S'done'
p6137
g10
F0.8887
tp6138
a(S'eating'
p6139
g10
F0.988
tp6140
a(S'Sara'
p6141
g228
F0.9897
tp6142
a(g25
g6
F0.9867
tp6143
asI1748
(lp6144
(S'now'
p6145
g132
F0.9819
tp6146
a(S'[='
p6147
g3
F0.9564
tp6148
a(g25
g6
F0.9887
tp6149
a(S'harsh'
p6150
g62
F0.9832
tp6151
a(S'yell'
p6152
g16
F0.8869
tp6153
a(g31
g6
F0.9788
tp6154
a(g25
g6
F0.9967
tp6155
asI1751
(lp6156
(S"I'm"
p6157
g219
F0.9951
tp6158
a(S'gonna'
p6159
g10
F0.9942
tp6160
a(S'drop'
p6161
g10
F0.9981
tp6162
a(S'you'
p6163
g43
F0.9982
tp6164
a(S'on'
p6165
g19
F0.9937
tp6166
a(S'the'
p6167
g13
F0.9994
tp6168
a(S'floor'
p6169
g16
F0.9951
tp6170
a(S"that's"
p6171
g219
F0.9228
tp6172
a(S'it'
p6173
g43
F0.9951
tp6174
a(g5
g6
F0.9988
tp6175
asI1756
(lp6176
(S"I'm"
p6177
g219
F0.9967
tp6178
a(S'done'
p6179
g10
F0.6688
tp6180
a(g5
g6
F0.9988
tp6181
asI1759
(lp6182
(S'xxx'
p6183
g3
F0.5822
tp6184
a(g5
g6
F0.9648
tp6185
asI1760
(lp6186
(S'nuhhuh'
p6187
g25
F0.4209
tp6188
a(g5
g6
F0.9969
tp6189
asI1763
(lp6190
(S'did'
p6191
g10
F0.9923
tp6192
a(S'she'
p6193
g43
F0.9982
tp6194
a(S'already'
p6195
g132
F0.9987
tp6196
a(S'have'
p6197
g10
F0.9994
tp6198
a(g401
g13
F0.999
tp6199
a(S'second'
p6200
g62
F0.8872
tp6201
a(S'drink'
p6202
g16
F0.9884
tp6203
a(g21
g6
F0.9961
tp6204
asI1767
(lp6205
(S'no'
p6206
g25
F0.5694
tp6207
a(S'Heather'
p6208
g228
F0.9195
tp6209
a(S'only'
p6210
g132
F0.8586
tp6211
a(S'had'
p6212
g10
F0.9996
tp6213
a(g401
g13
F0.9921
tp6214
a(S'very'
p6215
g132
F0.9728
tp6216
a(S'little'
p6217
g62
F0.9981
tp6218
a(g5
g6
F0.9986
tp6219
asI1771
(lp6220
(S'close'
p6221
g62
F0.6179
tp6222
a(S'that'
p6223
g19
F0.5147
tp6224
a(S'door'
p6225
g16
F0.9835
tp6226
a(S'Sara'
p6227
g228
F0.9656
tp6228
a(g5
g6
F0.9953
tp6229
asI1774
(lp6230
(g110
g110
F0.9893
tp6231
a(g337
g6
F0.8588
tp6232
a(S'cries'
p6233
g16
F0.5335
tp6234
a(g5
g6
F0.9982
tp6235
asI1776
(lp6236
(S'can'
p6237
g10
F0.9938
tp6238
a(g382
g43
F0.9989
tp6239
a(S'go'
p6240
g10
F0.9999
tp6241
a(S'out'
p6242
g852
F0.5114
tp6243
a(S'Mom'
p6244
g16
F0.8861
tp6245
a(g21
g6
F0.9977
tp6246
asI1779
(lp6247
(S'here'
p6248
g132
F0.9074
tp6249
a(S'+/'
p6250
g6
F0.2314
tp6251
a(g5
g6
F0.996
tp6252
asI1782
(lp6253
(g382
g43
F0.9983
tp6254
a(S'guess'
p6255
g10
F0.9996
tp6256
a(S'so'
p6257
g19
F0.8476
tp6258
a(S"you're"
p6259
g219
F0.9934
tp6260
a(S'done'
p6261
g10
F0.9704
tp6262
a(S'eating'
p6263
g10
F0.9902
tp6264
a(S'after'
p6265
g19
F0.9892
tp6266
a(S'this'
p6267
g43
F0.6954
tp6268
a(S'drink'
p6269
g10
F0.6268
tp6270
a(S'go'
p6271
g10
F0.9683
tp6272
a(S'on'
p6273
g19
F0.9173
tp6274
a(S'out'
p6275
g852
F0.2946
tp6276
a(g5
g6
F0.9975
tp6277
asI1789
(lp6278
(S'okay'
p6279
g25
F0.6937
tp6280
a(S'tralala'
p6281
g25
F0.3282
tp6282
a(S"everything's"
p6283
g219
F0.94
tp6284
a(S'done'
p6285
g10
F0.6501
tp6286
a(g5
g6
F0.999
tp6287
as.