(dp0
I130
(lp1
(S'<'
p2
S'~'
p3
F0.9117
tp4
a(S"I'm"
p5
S'L'
p6
F0.9981
tp7
a(S'not'
p8
S'R'
p9
F0.9953
tp10
a(S'>'
p11
S'G'
p12
F0.3953
tp13
a(S'[//]'
p14
g12
F0.441
tp15
a(g2
g3
F0.9473
tp16
a(S'I'
p17
S'O'
p18
F0.9954
tp19
a(S"won't>"
p20
S'V'
p21
F0.985
tp22
a(S'[/]'
p23
S','
p24
F0.3541
tp25
a(g17
g18
F0.9945
tp26
a(S"won't"
p27
g21
F0.9986
tp28
a(S'gi(ve'
p29
g21
F0.9661
tp30
a(S')'
p31
g24
F0.9938
tp32
a(S'you'
p33
g18
F0.971
tp34
a(S'none'
p35
S'N'
p36
F0.907
tp37
a(S'.'
p38
g24
F0.999
tp39
asI133
(lp40
(S"I'm"
p41
g6
F0.9981
tp42
a(S'not'
p43
g9
F0.9957
tp44
a(S'gonna'
p45
g21
F0.9977
tp46
a(S'let'
p47
g21
F0.9998
tp48
a(S'you'
p49
g18
F0.9996
tp50
a(S'talk'
p51
g21
F0.9974
tp52
a(S'to'
p53
S'P'
p54
F0.9979
tp55
a(S'me'
p56
g18
F0.9989
tp57
a(g38
g24
F0.9986
tp58
asI138
(lp59
(S'please'
p60
g21
F0.9415
tp61
a(S'can'
p62
g21
F0.9991
tp63
a(g17
g18
F0.9993
tp64
a(S'have'
p65
g21
F0.9999
tp66
a(S'it'
p67
g18
F0.9743
tp68
a(S'?'
p69
g24
F0.9987
tp70
asI141
(lp71
(S'please'
p72
g21
F0.9415
tp73
a(S'can'
p74
g21
F0.9991
tp75
a(g17
g18
F0.9993
tp76
a(S'have'
p77
g21
F1.0
tp78
a(S'it'
p79
g18
F0.9926
tp80
a(S'back'
p81
g9
F0.729
tp82
a(S'['
p83
g24
F0.9844
tp84
a(g11
S'E'
p85
F0.4567
tp86
a(S']'
p87
g24
F0.6839
tp88
a(g69
g24
F0.9957
tp89
asI15
(lp90
(S'xxx'
p91
g85
F0.5822
tp92
a(g38
g24
F0.9648
tp93
asI144
(lp94
(S'xxx'
p95
g85
F0.8981
tp96
a(g83
g24
F0.6622
tp97
a(g2
g3
F0.9843
tp98
a(g87
g24
F0.9917
tp99
a(S'holdin(g'
p100
g21
F0.9376
tp101
a(g31
g24
F0.9936
tp102
a(S'it'
p103
g18
F0.9715
tp104
a(g38
g24
F0.999
tp105
asI18
(lp106
(S'(..)'
p107
g24
F0.3794
tp108
a(S'can'
p109
g21
F0.9952
tp110
a(S'xxx'
p111
g21
F0.6463
tp112
a(S'come'
p113
g21
F0.9433
tp114
a(g69
g24
F0.9981
tp115
asI147
(lp116
(S'xxx'
p117
g85
F0.6149
tp118
a(S'there'
p119
g9
F0.5396
tp120
a(g83
g24
F0.9797
tp121
a(g11
g85
F0.5453
tp122
a(g87
g24
F0.5755
tp123
a(S'!'
p124
g24
F0.9959
tp125
asI22
(lp126
(S'mm'
p127
g124
F0.6238
tp128
a(g69
g24
F0.9927
tp129
asI150
(lp130
(g2
g3
F0.9001
tp131
a(S'you'
p132
g18
F0.9983
tp133
a(S'want'
p134
g21
F0.9991
tp135
a(g11
g85
F0.5804
tp136
a(g83
g85
F0.535
tp137
a(g2
g3
F0.8293
tp138
a(g87
g24
F0.9873
tp139
a(S'somethin(g'
p140
g36
F0.9895
tp141
a(g31
g24
F0.991
tp142
a(S'to'
p143
g54
F0.9931
tp144
a(S'drink'
p145
g21
F0.8568
tp146
a(g69
g24
F0.9944
tp147
asI26
(lp148
(S'did'
p149
g21
F0.9595
tp150
a(S'Chi'
p151
S'^'
p152
F0.9553
tp153
a(S'xxx'
p154
g152
F0.293
tp155
a(S'come'
p156
g21
F0.9218
tp157
a(g69
g24
F0.9981
tp158
asI154
(lp159
(S'yes'
p160
g124
F0.9961
tp161
a(g38
g24
F0.9972
tp162
asI30
(lp163
(S'yeah'
p164
g124
F0.9988
tp165
a(g69
g24
F0.9966
tp166
asI160
(lp167
(S'what'
p168
g18
F0.9701
tp169
a(S'[/]'
p170
g24
F0.2707
tp171
a(S'what'
p172
g18
F0.9777
tp173
a(S'[/]'
p174
g24
F0.3272
tp175
a(S'what'
p176
g18
F0.9516
tp177
a(S'you'
p178
g18
F0.9996
tp179
a(S'want'
p180
g21
F0.9976
tp181
a(g69
g24
F0.9976
tp182
asI163
(lp183
(S'this'
p184
g18
F0.7
tp185
a(g69
g24
F0.9978
tp186
asI36
(lp187
(S'(..)'
p188
g85
F0.569
tp189
a(S'why'
p190
g9
F0.8637
tp191
a(S"aren't"
p192
g21
F0.9687
tp193
a(S'you'
p194
g18
F0.9996
tp195
a(S'at'
p196
g54
F0.9983
tp197
a(S'the'
p198
S'D'
p199
F0.9992
tp200
a(S'movie'
p201
g36
F0.9978
tp202
a(g69
g24
F0.9982
tp203
asI198
(lp204
(S'mommy'
p205
g36
F0.602
tp206
a(S'xxx'
p207
g85
F0.3332
tp208
a(g38
g24
F0.9721
tp209
asI166
(lp210
(S'no'
p211
g124
F0.9596
tp212
a(g69
g24
F0.9962
tp213
asI41
(lp214
(S'(.)'
p215
g85
F0.3919
tp216
a(S'xxx'
p217
g85
F0.8997
tp218
a(g38
g24
F0.9721
tp219
asI43
(lp220
(S'(..)'
p221
g85
F0.4292
tp222
a(g17
g18
F0.9966
tp223
a(S'know'
p224
g21
F0.9999
tp225
a(S"you're"
p226
g6
F0.9967
tp227
a(S'supposed'
p228
S'A'
p229
F0.9022
tp230
a(S'to'
p231
g54
F0.9984
tp232
a(S'talk'
p233
g21
F0.9962
tp234
a(S'to'
p235
g54
F0.9977
tp236
a(S'me'
p237
g18
F0.9983
tp238
a(g38
g24
F0.9983
tp239
asI172
(lp240
(g17
g18
F0.9984
tp241
a(S'know'
p242
g21
F0.9999
tp243
a(S"you're"
p244
g6
F0.9967
tp245
a(S'goin(g'
p246
g21
F0.8247
tp247
a(g31
g24
F0.9938
tp248
a(S'to'
p249
g54
F0.9966
tp250
a(S'get'
p251
g21
F1.0
tp252
a(S'it'
p253
g18
F0.9948
tp254
a(g38
g24
F0.9991
tp255
asI157
(lp256
(S'please'
p257
g21
F0.8368
tp258
a(g38
g24
F0.9977
tp259
asI48
(lp260
(S'(.)'
p261
g85
F0.2979
tp262
a(S'so'
p263
g9
F0.7125
tp264
a(g69
g24
F0.9958
tp265
asI177
(lp266
(S'hm'
p267
g124
F0.9811
tp268
a(S':'
p269
g24
F0.891
tp270
a(g69
g24
F0.9885
tp271
asI51
(lp272
(S'(.)'
p273
g85
F0.3919
tp274
a(S'xxx'
p275
g85
F0.8997
tp276
a(g38
g24
F0.9721
tp277
asI52
(lp278
(S'(.)'
p279
g85
F0.2735
tp280
a(S'when'
p281
g9
F0.9806
tp282
a(g17
g18
F0.9987
tp283
a(S'do'
p284
g21
F1.0
tp285
a(S'it'
p286
g18
F0.997
tp287
a(S"don't"
p288
g21
F1.0
tp289
a(S'do'
p290
g21
F1.0
tp291
a(S'it'
p292
g18
F0.9933
tp293
a(S'okay'
p294
g124
F0.5212
tp295
a(g69
g24
F0.9982
tp296
asI181
(lp297
(S"I'm"
p298
g6
F0.9981
tp299
a(S'not'
p300
g9
F0.9957
tp301
a(S'gonna'
p302
g21
F0.9976
tp303
a(S'accept'
p304
g21
F0.9999
tp305
a(S'this'
p306
g18
F0.7547
tp307
a(S'from'
p308
g54
F0.9987
tp309
a(S'you'
p310
g18
F0.9987
tp311
a(g38
g24
F0.9995
tp312
asI201
(lp313
(S'me'
p314
g18
F0.9957
tp315
a(S'to'
p316
g54
F0.8509
tp317
a(g38
g24
F0.9939
tp318
asI57
(lp319
(S'(.)'
p320
g85
F0.2735
tp321
a(S'when'
p322
g9
F0.9453
tp323
a(S"you're"
p324
g6
F0.9928
tp325
a(S'finished'
p326
g21
F0.9943
tp327
a(S'eat'
p328
g21
F0.9278
tp329
a(S'Chit'
p330
g36
F0.6757
tp331
a(g38
g24
F0.9984
tp332
asI186
(lp333
(S'stop'
p334
g21
F0.756
tp335
a(S'&'
p336
g336
F0.9837
tp337
a(S'='
p338
g24
F0.8681
tp339
a(S'cries'
p340
g36
F0.5868
tp341
a(g124
g24
F0.9987
tp342
asI61
(lp343
(S'mommy'
p344
g36
F0.4348
tp345
a(S'when'
p346
g9
F0.9613
tp347
a(g17
g18
F0.9981
tp348
a(S'finish'
p349
g21
F0.9993
tp350
a(S'eat'
p351
g21
F0.879
tp352
a(S'xxx'
p353
g85
F0.3563
tp354
a(S'can'
p355
g21
F0.997
tp356
a(g17
g18
F0.9993
tp357
a(S'have'
p358
g21
F0.9999
tp359
a(S'another'
p360
g199
F0.9959
tp361
a(S'one'
p362
S'$'
p363
F0.8023
tp364
a(g69
g24
F0.9945
tp365
asI192
(lp366
(S'me'
p367
g18
F0.9964
tp368
a(S'too'
p369
g9
F0.9896
tp370
a(S'mommy'
p371
g229
F0.3085
tp372
a(g336
g336
F0.9931
tp373
a(g338
g24
F0.9036
tp374
a(S'whining'
p375
g21
F0.9956
tp376
a(g38
g24
F0.9989
tp377
asI67
(lp378
(S'hm'
p379
g124
F0.9699
tp380
a(g269
g24
F0.7979
tp381
a(S'xxx'
p382
g85
F0.7478
tp383
a(g69
g24
F0.9737
tp384
asI70
(lp385
(S'(.)'
p386
g85
F0.2508
tp387
a(S'not'
p388
g9
F0.9976
tp389
a(S'yet'
p390
g9
F0.9743
tp391
a(S'Chi'
p392
g152
F0.9434
tp393
a(g38
g24
F0.99
tp394
asI73
(lp395
(g17
g18
F0.9985
tp396
a(S'know'
p397
g21
F0.9983
tp398
a(g38
g24
F0.9977
tp399
asI76
(lp400
(S'(.)'
p401
g85
F0.3392
tp402
a(g17
g18
F0.9863
tp403
a(S'[/]'
p404
g21
F0.5751
tp405
a(g17
g18
F0.9972
tp406
a(S'[/]'
p407
g21
F0.6377
tp408
a(S'dunno'
p409
g21
F0.2242
tp410
a(S'[:'
p411
g85
F0.892
tp412
a(S"don't"
p413
g21
F0.9995
tp414
a(S'know'
p415
g21
F0.9986
tp416
a(g87
g24
F0.996
tp417
a(S'how'
p418
g9
F0.9919
tp419
a(S'to'
p420
g54
F0.9567
tp421
a(g38
g24
F0.9928
tp422
asI205
(lp423
(S"you're"
p424
g6
F0.9953
tp425
a(S'not'
p426
g9
F0.9964
tp427
a(S'finished'
p428
g21
F0.9961
tp429
a(S'xxx'
p430
g85
F0.4637
tp431
a(g38
g24
F0.9688
tp432
asI79
(lp433
(S'oh'
p434
g124
F0.9994
tp435
a(g124
g24
F0.9921
tp436
asI208
(lp437
(S'can'
p438
g21
F0.9989
tp439
a(S'you'
p440
g18
F0.9969
tp441
a(g38
g24
F0.9995
tp442
asI82
(lp443
(S'if'
p444
g54
F0.9977
tp445
a(S'you'
p446
g18
F0.9997
tp447
a(S'must'
p448
g21
F0.9968
tp449
a(S'of'
p450
g54
F0.9426
tp451
a(S'drop'
p452
g36
F0.7075
tp453
a(S'Chit'
p454
g36
F0.6439
tp455
a(S'then'
p456
g9
F0.9665
tp457
a(S"it's"
p458
g6
F0.9953
tp459
a(S'my'
p460
g199
F0.9374
tp461
a(S'turn'
p462
g36
F0.8354
tp463
a(g38
g24
F0.9987
tp464
asI211
(lp465
(S'xxx'
p466
g85
F0.5822
tp467
a(g38
g24
F0.9648
tp468
asI88
(lp469
(S'(.)'
p470
g85
F0.2616
tp471
a(S"I'm"
p472
g6
F0.9978
tp473
a(S'still'
p474
g9
F0.9925
tp475
a(S'doing'
p476
g21
F0.9999
tp477
a(S'it'
p478
g18
F0.9926
tp479
a(g38
g24
F0.9986
tp480
asI91
(lp481
(S'so'
p482
g9
F0.7527
tp483
a(g69
g24
F0.9949
tp484
asI94
(lp485
(S'(.)'
p486
g152
F0.257
tp487
a(S'mommy'
p488
g152
F0.5758
tp489
a(S"I'm"
p490
g6
F0.9811
tp491
a(S'finished'
p492
g21
F0.9304
tp493
a(g38
g24
F0.9976
tp494
asI97
(lp495
(S'mm'
p496
g124
F0.6238
tp497
a(g69
g24
F0.9927
tp498
asI101
(lp499
(S'xxx'
p500
g85
F0.7259
tp501
a(S'mommy'
p502
g36
F0.6865
tp503
a(S'xxx'
p504
g85
F0.4191
tp505
a(g69
g24
F0.9737
tp506
asI195
(lp507
(S'me'
p508
g18
F0.9964
tp509
a(S'too'
p510
g9
F0.9893
tp511
a(S'mommy'
p512
g36
F0.4486
tp513
a(g38
g24
F0.9988
tp514
asI104
(lp515
(S'yo'
p516
g124
F0.5377
tp517
a(S'mommy'
p518
g36
F0.7157
tp519
a(g69
g24
F0.998
tp520
asI107
(lp521
(S'alright'
p522
g124
F0.8519
tp523
a(S'stop'
p524
g21
F0.7574
tp525
a(g336
g336
F0.9787
tp526
a(g338
g24
F0.9107
tp527
a(S'yelling'
p528
g21
F0.9913
tp529
a(g124
g24
F0.9984
tp530
asI110
(lp531
(S'yyy'
p532
g9
F0.8143
tp533
a(g336
g336
F0.9921
tp534
a(g338
g24
F0.8694
tp535
a(S'whines'
p536
g21
F0.5913
tp537
a(g124
g24
F0.998
tp538
asI189
(lp539
(S'then'
p540
g9
F0.9591
tp541
a(S"I'm"
p542
g6
F0.9969
tp543
a(S'gonna'
p544
g21
F0.9944
tp545
a(S'move'
p546
g21
F0.7897
tp547
a(g38
g24
F0.9973
tp548
asI112
(lp549
(S'no'
p550
g124
F0.6739
tp551
a(g336
g336
F0.9865
tp552
a(g338
g24
F0.8681
tp553
a(S'cries'
p554
g36
F0.6228
tp555
a(g38
g24
F0.9982
tp556
asI180
(lp557
(S'xxx'
p558
g85
F0.5822
tp559
a(g38
g24
F0.9648
tp560
asI115
(lp561
(S'hey'
p562
g124
F0.9992
tp563
a(g124
g24
F0.9964
tp564
asI118
(lp565
(S'(.)'
p566
g152
F0.3439
tp567
a(S'eat'
p568
g21
F0.9932
tp569
a(S'it'
p570
g18
F0.9882
tp571
a(g124
g24
F0.9992
tp572
asI169
(lp573
(S'put'
p574
g21
F0.9914
tp575
a(S'it'
p576
g18
F0.9943
tp577
a(S'here'
p578
g9
F0.9738
tp579
a(g69
g24
F0.9986
tp580
asI121
(lp581
(S'you'
p582
g18
F0.9968
tp583
a(S'have_to'
p584
g21
F0.9991
tp585
a(S'eat'
p586
g21
F0.9996
tp587
a(S'it'
p588
g18
F0.9872
tp589
a(g38
g24
F0.9989
tp590
asI124
(lp591
(S'gimme'
p592
g6
F0.66
tp593
a(S'[:'
p594
g85
F0.9371
tp595
a(S'give'
p596
g21
F0.9992
tp597
a(S'me'
p598
g18
F0.9974
tp599
a(g87
g24
F0.9949
tp600
a(S'Chit'
p601
g36
F0.3796
tp602
a(S'xxx'
p603
g85
F0.4745
tp604
a(g38
g24
F0.9729
tp605
asI127
(lp606
(S'you'
p607
g18
F0.9968
tp608
a(S'have_to'
p609
g21
F0.9991
tp610
a(S'eat'
p611
g21
F0.9996
tp612
a(S'it'
p613
g18
F0.9872
tp614
a(g38
g24
F0.9989
tp615
as.