(dp0
I0
(lp1
(S'xxx'
p2
S'E'
p3
F0.8437
tp4
asI1
(lp5
(S'can'
p6
S'V'
p7
F0.9756
tp8
a(S'xxx'
p9
g7
F0.6206
tp10
a(S'come'
p11
g7
F0.9841
tp12
asI2
(lp13
(S'mm'
p14
S'!'
p15
F0.627
tp16
asI3
(lp17
(S'did'
p18
g7
F0.96
tp19
a(S'chi'
p20
S'^'
p21
F0.4182
tp22
a(S'xxx'
p23
g3
F0.2996
tp24
a(S'come'
p25
g7
F0.9653
tp26
asI4
(lp27
(S'yeah'
p28
g15
F0.9988
tp29
asI5
(lp30
(S'why'
p31
S'R'
p32
F0.922
tp33
a(S'aren'
p34
S'G'
p35
F0.2548
tp36
a(S't'
p37
g35
F0.6449
tp38
a(S'you'
p39
S'O'
p40
F0.9973
tp41
a(S'at'
p42
S'P'
p43
F0.9968
tp44
a(S'the'
p45
S'D'
p46
F0.9992
tp47
a(S'movie'
p48
S'N'
p49
F0.9977
tp50
asI6
(lp51
(S'xxx'
p52
g3
F0.8437
tp53
asI7
(lp54
(S'i'
p55
g40
F0.9908
tp56
a(S'know'
p57
g7
F0.9999
tp58
a(S'you'
p59
g40
F0.9959
tp60
a(S're'
p61
g7
F0.7586
tp62
a(S'supposed'
p63
S'A'
p64
F0.8458
tp65
a(S'to'
p66
g43
F0.9984
tp67
a(S'talk'
p68
g7
F0.9953
tp69
a(S'to'
p70
g43
F0.9977
tp71
a(S'me'
p72
g40
F0.9983
tp73
asI8
(lp74
(S'so'
p75
g32
F0.5317
tp76
asI9
(lp77
(S'xxx'
p78
g3
F0.8437
tp79
asI10
(lp80
(S'when'
p81
g32
F0.9811
tp82
a(g55
g40
F0.9906
tp83
a(S'do'
p84
g7
F1.0
tp85
a(S'it'
p86
g40
F0.9934
tp87
a(S'don'
p88
g7
F0.7332
tp89
a(g37
g7
F0.3004
tp90
a(S'do'
p91
g7
F0.9988
tp92
a(S'it'
p93
g40
F0.9933
tp94
a(S'okay'
p95
g15
F0.6289
tp96
asI11
(lp97
(S'when'
p98
g32
F0.9804
tp99
a(S'you'
p100
g40
F0.9918
tp101
a(S're'
p102
g7
F0.6229
tp103
a(S'finished'
p104
g7
F0.9923
tp105
a(S'eat'
p106
g7
F0.9278
tp107
a(S'chit'
p108
g49
F0.7416
tp109
asI12
(lp110
(S'mommy'
p111
g49
F0.4348
tp112
a(S'when'
p113
g32
F0.9848
tp114
a(g55
g40
F0.9865
tp115
a(S'finish'
p116
g7
F0.9994
tp117
a(S'eat'
p118
g7
F0.879
tp119
a(S'xxx'
p120
g3
F0.3563
tp121
a(S'can'
p122
g7
F0.9891
tp123
a(g55
g40
F0.9868
tp124
a(S'have'
p125
g7
F0.9999
tp126
a(S'another'
p127
g46
F0.9959
tp128
a(S'one'
p129
S'$'
p130
F0.757
tp131
asI13
(lp132
(S'hm'
p133
g15
F0.9857
tp134
a(S'xxx'
p135
g3
F0.7883
tp136
asI14
(lp137
(S'not'
p138
g32
F0.9972
tp139
a(S'yet'
p140
g32
F0.9757
tp141
a(S'chi'
p142
g35
F0.4039
tp143
asI15
(lp144
(g55
g40
F0.9912
tp145
a(S'know'
p146
g7
F0.9989
tp147
asI16
(lp148
(g55
g40
F0.9583
tp149
a(g55
g40
F0.8665
tp150
a(S'dunno'
p151
g7
F0.7771
tp152
a(S'don'
p153
g21
F0.3218
tp154
a(g37
g21
F0.6207
tp155
a(S'know'
p156
g7
F0.9718
tp157
a(S'how'
p158
g32
F0.9943
tp159
a(S'to'
p160
g43
F0.9736
tp161
asI17
(lp162
(S'oh'
p163
g15
F0.9988
tp164
asI18
(lp165
(S'if'
p166
g43
F0.9977
tp167
a(S'you'
p168
g40
F0.9997
tp169
a(S'must'
p170
g7
F0.9968
tp171
a(S'of'
p172
g43
F0.9426
tp173
a(S'drop'
p174
g49
F0.7075
tp175
a(S'chit'
p176
g49
F0.7637
tp177
a(S'then'
p178
g32
F0.8684
tp179
a(S'it'
p180
g40
F0.9957
tp181
a(S's'
p182
g7
F0.7215
tp183
a(S'my'
p184
g46
F0.906
tp185
a(S'turn'
p186
g49
F0.8784
tp187
asI19
(lp188
(g55
g40
F0.953
tp189
a(S'm'
p190
g7
F0.9683
tp191
a(S'still'
p192
g32
F0.9903
tp193
a(S'doing'
p194
g7
F0.9999
tp195
a(S'it'
p196
g40
F0.9936
tp197
asI20
(lp198
(S'so'
p199
g32
F0.5317
tp200
asI21
(lp201
(S'mommy'
p202
g49
F0.7607
tp203
a(g55
g40
F0.8587
tp204
a(g190
g7
F0.9751
tp205
a(S'finished'
p206
g7
F0.9829
tp207
asI22
(lp208
(S'mm'
p209
g15
F0.627
tp210
asI23
(lp211
(S'xxx'
p212
g3
F0.7294
tp213
a(S'mommy'
p214
g49
F0.6865
tp215
a(S'xxx'
p216
g3
F0.646
tp217
asI24
(lp218
(S'yo'
p219
g15
F0.5377
tp220
a(S'mommy'
p221
g49
F0.5694
tp222
asI25
(lp223
(S'alright'
p224
g15
F0.9102
tp225
a(S'stop'
p226
g7
F0.9253
tp227
a(S'yelling'
p228
g7
F0.9939
tp229
asI26
(lp230
(S'yyy'
p231
g32
F0.6119
tp232
a(S'whines'
p233
g7
F0.7509
tp234
asI27
(lp235
(S'no'
p236
g15
F0.5629
tp237
a(S'cries'
p238
g49
F0.7256
tp239
asI28
(lp240
(S'hey'
p241
g15
F0.9986
tp242
asI29
(lp243
(S'eat'
p244
g7
F0.9929
tp245
a(S'it'
p246
g40
F0.9912
tp247
asI30
(lp248
(S'you'
p249
g40
F0.998
tp250
a(S'have'
p251
g7
F0.9994
tp252
a(S'to'
p253
g43
F0.9945
tp254
a(S'eat'
p255
g7
F0.9995
tp256
a(S'it'
p257
g40
F0.9893
tp258
asI31
(lp259
(S'gimme'
p260
S'L'
p261
F0.828
tp262
a(S'give'
p263
g7
F0.9985
tp264
a(S'me'
p265
g40
F0.9721
tp266
a(S'chit'
p267
g49
F0.3538
tp268
a(S'xxx'
p269
g3
F0.827
tp270
asI32
(lp271
(S'you'
p272
g40
F0.998
tp273
a(S'have'
p274
g7
F0.9994
tp275
a(S'to'
p276
g43
F0.9945
tp277
a(S'eat'
p278
g7
F0.9995
tp279
a(S'it'
p280
g40
F0.9893
tp281
asI33
(lp282
(g55
g40
F0.953
tp283
a(g190
g7
F0.9784
tp284
a(S'not'
p285
g32
F0.9962
tp286
a(g55
g40
F0.984
tp287
a(S'won'
p288
g7
F0.9878
tp289
a(g37
g49
F0.3476
tp290
a(g55
g40
F0.9673
tp291
a(S'won'
p292
g7
F0.9878
tp293
a(g37
g35
F0.5092
tp294
a(S'gi'
p295
g35
F0.8503
tp296
a(S've'
p297
g43
F0.4172
tp298
a(S'you'
p299
g40
F0.983
tp300
a(S'none'
p301
g49
F0.822
tp302
asI34
(lp303
(g55
g40
F0.953
tp304
a(g190
g7
F0.9784
tp305
a(S'not'
p306
g32
F0.995
tp307
a(S'gonna'
p308
g7
F0.9974
tp309
a(S'let'
p310
g7
F0.9998
tp311
a(S'you'
p312
g40
F0.9996
tp313
a(S'talk'
p314
g7
F0.9968
tp315
a(S'to'
p316
g43
F0.9977
tp317
a(S'me'
p318
g40
F0.9983
tp319
asI35
(lp320
(S'please'
p321
g7
F0.9415
tp322
a(S'can'
p323
g7
F0.9967
tp324
a(g55
g40
F0.9889
tp325
a(S'have'
p326
g7
F0.9999
tp327
a(S'it'
p328
g40
F0.988
tp329
asI36
(lp330
(S'please'
p331
g7
F0.9415
tp332
a(S'can'
p333
g7
F0.9967
tp334
a(g55
g40
F0.9862
tp335
a(S'have'
p336
g7
F0.9999
tp337
a(S'it'
p338
g40
F0.9922
tp339
a(S'back'
p340
g32
F0.6429
tp341
asI37
(lp342
(S'xxx'
p343
g3
F0.7045
tp344
a(S'holdin'
p345
g7
F0.9589
tp346
a(S'g'
p347
g7
F0.6315
tp348
a(S'it'
p349
g40
F0.9904
tp350
asI38
(lp351
(S'xxx'
p352
g3
F0.6137
tp353
a(S'there'
p354
g32
F0.4342
tp355
asI39
(lp356
(S'you'
p357
g40
F0.998
tp358
a(S'want'
p359
g7
F0.9998
tp360
a(S'somethin'
p361
g49
F0.9804
tp362
a(g347
g7
F0.3237
tp363
a(S'to'
p364
g43
F0.9861
tp365
a(S'drink'
p366
g7
F0.9614
tp367
asI40
(lp368
(S'yes'
p369
g15
F0.9958
tp370
asI41
(lp371
(S'please'
p372
g7
F0.8246
tp373
asI42
(lp374
(S'what'
p375
g40
F0.9654
tp376
a(S'what'
p377
g40
F0.9931
tp378
a(S'what'
p379
g40
F0.9842
tp380
a(S'you'
p381
g40
F0.9996
tp382
a(S'want'
p383
g7
F0.9994
tp384
asI43
(lp385
(S'this'
p386
g40
F0.5028
tp387
asI44
(lp388
(S'no'
p389
g15
F0.9253
tp390
asI45
(lp391
(S'put'
p392
g7
F0.9891
tp393
a(S'it'
p394
g40
F0.9943
tp395
a(S'here'
p396
g32
F0.9316
tp397
asI46
(lp398
(g55
g40
F0.9908
tp399
a(S'know'
p400
g7
F0.9999
tp401
a(S'you'
p402
g40
F0.9959
tp403
a(S're'
p404
g7
F0.7384
tp405
a(S'goin'
p406
g7
F0.9857
tp407
a(g347
g7
F0.4784
tp408
a(S'to'
p409
g43
F0.9968
tp410
a(S'get'
p411
g7
F1.0
tp412
a(S'it'
p413
g40
F0.9941
tp414
asI47
(lp415
(S'hm'
p416
g15
F0.995
tp417
asI48
(lp418
(S'xxx'
p419
g3
F0.8437
tp420
asI49
(lp421
(g55
g40
F0.953
tp422
a(g190
g7
F0.9784
tp423
a(S'not'
p424
g32
F0.995
tp425
a(S'gonna'
p426
g7
F0.9972
tp427
a(S'accept'
p428
g7
F0.9999
tp429
a(S'this'
p430
g40
F0.793
tp431
a(S'from'
p432
g43
F0.9989
tp433
a(S'you'
p434
g40
F0.9991
tp435
asI50
(lp436
(S'stop'
p437
g7
F0.8857
tp438
a(S'cries'
p439
g7
F0.709
tp440
asI51
(lp441
(S'then'
p442
g32
F0.9819
tp443
a(g55
g40
F0.979
tp444
a(g190
g7
F0.9612
tp445
a(S'gonna'
p446
g7
F0.9906
tp447
a(S'move'
p448
g7
F0.9724
tp449
asI52
(lp450
(S'me'
p451
g40
F0.9964
tp452
a(S'too'
p453
g32
F0.9893
tp454
a(S'mommy'
p455
g49
F0.3631
tp456
a(S'whining'
p457
g7
F0.998
tp458
asI53
(lp459
(S'me'
p460
g40
F0.9951
tp461
a(S'too'
p462
g32
F0.9893
tp463
a(S'mommy'
p464
g64
F0.3613
tp465
asI54
(lp466
(S'mommy'
p467
g49
F0.602
tp468
a(S'xxx'
p469
g3
F0.6969
tp470
asI55
(lp471
(S'me'
p472
g40
F0.9957
tp473
a(S'to'
p474
g43
F0.9001
tp475
asI56
(lp476
(S'you'
p477
g40
F0.9754
tp478
a(S're'
p479
g7
F0.7849
tp480
a(S'not'
p481
g32
F0.9915
tp482
a(S'finished'
p483
g7
F0.992
tp484
a(S'xxx'
p485
g3
F0.8034
tp486
asI57
(lp487
(S'can'
p488
g7
F0.9989
tp489
a(S'you'
p490
g40
F0.9969
tp491
asI58
(lp492
(S'xxx'
p493
g3
F0.8437
tp494
as.