(dp0
I15
(lp1
(S'I'
p2
S'O'
p3
F0.9982
tp4
a(S'got'
p5
S'V'
p6
F0.9998
tp7
a(S'ta'
p8
S'P'
p9
F0.9547
tp10
a(S'turn'
p11
g6
F0.9908
tp12
a(S'the'
p13
S'D'
p14
F0.9996
tp15
a(S'record'
p16
S'N'
p17
F0.8968
tp18
a(S'player'
p19
g17
F0.9855
tp20
a(S'down'
p21
g9
F0.4014
tp22
a(S'so'
p23
S'R'
p24
F0.6795
tp25
a(S'can'
p26
g6
F0.9977
tp27
a(S'you'
p28
g3
F0.9981
tp29
a(S'wait'
p30
g6
F0.9989
tp31
a(S'one'
p32
S'$'
p33
F0.9341
tp34
a(S'second'
p35
S'A'
p36
F0.7406
tp37
a(S'just'
p38
g24
F0.999
tp39
a(S'sit'
p40
g6
F0.9985
tp41
a(S'down'
p42
S'T'
p43
F0.7973
tp44
a(S'.'
p45
S','
p46
F0.9984
tp47
asI22
(lp48
(S'sit'
p49
g6
F0.9825
tp50
a(S'down'
p51
g43
F0.8648
tp52
a(g45
g46
F0.9978
tp53
asI26
(lp54
(S'xxx'
p55
S'E'
p56
F0.5822
tp57
a(g45
g46
F0.9648
tp58
asI27
(lp59
(S'okay'
p60
S'!'
p61
F0.9732
tp62
a(S'?'
p63
g46
F0.9976
tp64
asI31
(lp65
(S'what'
p66
g3
F0.9835
tp67
a(S'are'
p68
g6
F0.9978
tp69
a(S'you'
p70
g3
F0.9993
tp71
a(S'making'
p72
g6
F0.9993
tp73
a(S'Vinnie'
p74
S'^'
p75
F0.9964
tp76
a(g63
g46
F0.9951
tp77
asI36
(lp78
(S'huh'
p79
g61
F0.9936
tp80
a(g63
g46
F0.9967
tp81
asI40
(lp82
(S'now'
p83
g24
F0.9952
tp84
a(S'pour'
p85
g6
F0.984
tp86
a(S'it'
p87
g3
F0.9593
tp88
a(g63
g46
F0.999
tp89
asI44
(lp90
(S'huh'
p91
g61
F0.9724
tp92
a(S'['
p93
g46
F0.9776
tp94
a(g61
g46
F0.9888
tp95
a(S']'
p96
g46
F0.9554
tp97
a(g63
g46
F0.9963
tp98
asI48
(lp99
(S'now'
p100
g24
F0.9952
tp101
a(S'pour'
p102
g6
F0.984
tp103
a(S'it'
p104
g3
F0.9593
tp105
a(g63
g46
F0.999
tp106
asI52
(lp107
(S'yep'
p108
g61
F0.9822
tp109
a(S'now'
p110
g24
F0.9847
tp111
a(S'you'
p112
g3
F0.9992
tp113
a(S'can'
p114
g6
F0.9997
tp115
a(S'pour'
p116
g6
F0.9991
tp117
a(S'it'
p118
g3
F0.9814
tp119
a(g45
g46
F0.9989
tp120
asI55
(lp121
(S'put'
p122
g6
F0.9811
tp123
a(S'the'
p124
g14
F0.9995
tp125
a(S'corn'
p126
g17
F0.9895
tp127
a(S'meal'
p128
g17
F0.9993
tp129
a(S'in'
p130
g9
F0.9398
tp131
a(g45
g46
F0.9941
tp132
asI58
(lp133
(S'now'
p134
g24
F0.995
tp135
a(S'okay'
p136
g61
F0.6837
tp137
a(S"it's"
p138
S'L'
p139
F0.9963
tp140
a(S'all'
p141
g14
F0.617
tp142
a(S'in'
p143
g9
F0.6831
tp144
a(g45
g46
F0.9941
tp145
asI62
(lp146
(S'('
p147
g46
F0.9613
tp148
a(S'o)kay'
p149
g61
F0.5587
tp150
a(S'let'
p151
g6
F0.9964
tp152
a(S'me'
p153
g3
F0.9994
tp154
a(S'see'
p155
g6
F0.9984
tp156
a(S'it'
p157
g3
F0.9167
tp158
a(g45
g46
F0.9989
tp159
asI65
(lp160
(S'you'
p161
g3
F0.9966
tp162
a(S'put'
p163
g6
F0.9989
tp164
a(S'a'
p165
g14
F0.9973
tp166
a(S'cup'
p167
g17
F0.9982
tp168
a(S'of'
p169
g9
F0.995
tp170
a(S'flour'
p171
g17
F0.9883
tp172
a(g45
g46
F0.9985
tp173
asI68
(lp174
(g2
g3
F0.9977
tp175
a(S'can'
p176
g6
F0.9998
tp177
a(S'<'
p178
S'~'
p179
F0.9076
tp180
a(S'hold'
p181
g6
F0.9984
tp182
a(S'it'
p183
g3
F0.984
tp184
a(S'>'
p185
g56
F0.4648
tp186
a(g93
g56
F0.5345
tp187
a(g185
g56
F0.9555
tp188
a(g96
g46
F0.8291
tp189
a(g45
g46
F0.9959
tp190
asI71
(lp191
(g178
g179
F0.9347
tp192
a(S'put'
p193
g6
F0.9955
tp194
a(S'it'
p195
g3
F0.9835
tp196
a(S'down'
p197
g43
F0.7113
tp198
a(g185
g56
F0.3988
tp199
a(g93
g56
F0.535
tp200
a(g178
g179
F0.7057
tp201
a(g96
g46
F0.9842
tp202
a(g45
g46
F0.9969
tp203
asI74
(lp204
(g147
g46
F0.9604
tp205
a(S'o)kay'
p206
g61
F0.6531
tp207
a(g63
g46
F0.9979
tp208
asI78
(lp209
(S'yep'
p210
g61
F0.985
tp211
a(S'you'
p212
g3
F0.9978
tp213
a(S'can'
p214
g6
F0.9997
tp215
a(S'hold'
p216
g6
F0.9998
tp217
a(S'it'
p218
g3
F0.9507
tp219
a(g45
g46
F0.9986
tp220
asI81
(lp221
(S'and'
p222
S'&'
p223
F0.9991
tp224
a(S'we'
p225
g3
F0.9979
tp226
a(S'can'
p227
g6
F0.9997
tp228
a(S'make'
p229
g6
F0.9998
tp230
a(S'it'
p231
g3
F0.8298
tp232
a(S'okay'
p233
g36
F0.5009
tp234
a(g63
g46
F0.997
tp235
asI85
(lp236
(S'just'
p237
g24
F0.9991
tp238
a(S'hold'
p239
g6
F0.9991
tp240
a(S'it'
p241
g3
F0.9521
tp242
a(g45
g46
F0.999
tp243
asI88
(lp244
(S'we'
p245
g3
F0.996
tp246
a(S'get'
p247
g6
F0.9999
tp248
a(g165
g14
F0.9832
tp249
a(S'[/]'
p250
g17
F0.2843
tp251
a(g178
g179
F0.8053
tp252
a(g165
g14
F0.9343
tp253
a(S'xxx'
p254
g17
F0.4434
tp255
a(S'[/]'
p256
g46
F0.3203
tp257
a(g185
g56
F0.4513
tp258
a(g93
g56
F0.5345
tp259
a(g185
g56
F0.9597
tp260
a(g96
g46
F0.6916
tp261
a(g45
g46
F0.9952
tp262
asI91
(lp263
(g178
g179
F0.9526
tp264
a(g2
g3
F0.9983
tp265
a(S'could'
p266
g6
F0.9997
tp267
a(g185
g56
F0.4912
tp268
a(g93
g56
F0.535
tp269
a(g178
g179
F0.8293
tp270
a(g96
g46
F0.9802
tp271
a(S'do'
p272
g6
F0.9997
tp273
a(S'it'
p274
g3
F0.9923
tp275
a(S'with'
p276
g9
F0.999
tp277
a(S'my'
p278
g14
F0.9992
tp279
a(S'hands'
p280
g17
F0.999
tp281
a(g61
g46
F0.9985
tp282
asI95
(lp283
(S'oh'
p284
g61
F0.9987
tp285
a(S'yeah'
p286
g61
F0.9997
tp287
a(g63
g46
F0.9973
tp288
asI99
(lp289
(g2
g3
F0.9991
tp290
a(S'did'
p291
g6
F0.9995
tp292
a(S'+/'
p293
g75
F0.3203
tp294
a(g45
g46
F0.9943
tp295
asI103
(lp296
(S'yeah'
p297
g61
F0.9962
tp298
a(S'but'
p299
g223
F0.9917
tp300
a(g178
g179
F0.9306
tp301
a(S"don't>"
p302
g6
F0.9914
tp303
a(g93
g46
F0.9786
tp304
a(g185
g56
F0.6043
tp305
a(g96
g46
F0.7541
tp306
a(g45
g46
F0.9962
tp307
asI106
(lp308
(S'that'
p309
g3
F0.7548
tp310
a(g93
g46
F0.9904
tp311
a(g178
g179
F0.9843
tp312
a(g96
g46
F0.9845
tp313
a(S'+/'
p314
g75
F0.1813
tp315
a(g45
g46
F0.9914
tp316
asI109
(lp317
(S'put'
p318
g6
F0.9896
tp319
a(S'your'
p320
g14
F0.9968
tp321
a(S'hands'
p322
g17
F0.9988
tp323
a(S'in'
p324
g9
F0.9985
tp325
a(S'that'
p326
g3
F0.7912
tp327
a(g147
g46
F0.9931
tp328
a(S'be)cause'
p329
g9
F0.9975
tp330
a(S'you'
p331
g3
F0.9996
tp332
a(S'get'
p333
g6
F0.9999
tp334
a(S'all'
p335
g14
F0.974
tp336
a(S'yucky'
p337
g36
F0.9172
tp338
a(g93
g46
F0.9868
tp339
a(g185
g56
F0.4371
tp340
a(g96
g46
F0.8754
tp341
a(g45
g46
F0.996
tp342
asI115
(lp343
(S'no'
p344
g61
F0.8389
tp345
a(g93
g46
F0.9936
tp346
a(g178
g179
F0.9843
tp347
a(g96
g46
F0.988
tp348
a(g2
g3
F0.99
tp349
a(S'+/'
p350
g6
F0.4283
tp351
a(g45
g46
F0.9971
tp352
asI118
(lp353
(S"that's"
p354
g139
F0.9685
tp355
a(S'oil'
p356
g17
F0.9723
tp357
a(g147
g46
F0.9823
tp358
a(S're)member'
p359
g6
F0.9892
tp360
a(g2
g3
F0.9993
tp361
a(S'told'
p362
g6
F1.0
tp363
a(S'you'
p364
g3
F0.9983
tp365
a(g93
g46
F0.9952
tp366
a(g185
g56
F0.4696
tp367
a(g96
g46
F0.6335
tp368
a(g63
g46
F0.9962
tp369
asI124
(lp370
(S'<<'
p371
g179
F0.9206
tp372
a(g2
g3
F0.9968
tp373
a(g185
g179
F0.4916
tp374
a(g93
g46
F0.9521
tp375
a(g178
g179
F0.9635
tp376
a(g96
g46
F0.9819
tp377
a(S'did'
p378
g6
F0.9989
tp379
a(S'some'
p380
g14
F0.8319
tp381
a(g185
S'G'
p382
F0.339
tp383
a(S'[//]'
p384
g382
F0.441
tp385
a(g178
g179
F0.9473
tp386
a(g2
g3
F0.9981
tp387
a(S'put'
p388
g6
F0.9994
tp389
a(S'some'
p390
g14
F0.8859
tp391
a(g185
g382
F0.339
tp392
a(S'[//]'
p393
g382
F0.441
tp394
a(g178
g179
F0.9473
tp395
a(g2
g3
F0.9986
tp396
a(S'takes'
p397
g6
F0.9996
tp398
a(g185
g56
F0.2643
tp399
a(S'[//]'
p400
g56
F0.5822
tp401
a(g2
g3
F0.9951
tp402
a(S'put'
p403
g6
F0.9997
tp404
a(S'my'
p405
g14
F0.999
tp406
a(S'hand'
p407
g17
F0.9972
tp408
a(S'there'
p409
g24
F0.9377
tp410
a(S'and'
p411
g223
F0.9989
tp412
a(g2
g3
F0.9968
tp413
a(S'+'
p414
g382
F0.3721
tp415
a(S'...'
p416
g179
F0.8083
tp417
asI128
(lp418
(S'oh'
p419
g61
F0.9987
tp420
a(S'yeah'
p421
g61
F0.9997
tp422
a(g63
g46
F0.9973
tp423
asI132
(lp424
(S'right'
p425
g24
F0.7549
tp426
a(S'here'
p427
g24
F0.9874
tp428
a(S'around'
p429
g24
F0.7651
tp430
a(g45
g46
F0.9984
tp431
asI135
(lp432
(S'what'
p433
g3
F0.9835
tp434
a(S'are'
p435
g6
F0.9933
tp436
a(S'we'
p437
g3
F0.9988
tp438
a(S'making'
p439
g6
F0.9973
tp440
a(g63
g46
F0.997
tp441
asI139
(lp442
(S'cornbread'
p443
g17
F0.9915
tp444
a(g45
g46
F0.9983
tp445
asI142
(lp446
(S'right'
p447
g61
F0.7294
tp448
a(g45
g46
F0.9987
tp449
asI145
(lp450
(S'and'
p451
g223
F0.9994
tp452
a(g2
g3
F0.999
tp453
a(S'can'
p454
g6
F0.9999
tp455
a(S'put'
p456
g6
F0.9987
tp457
a(S'that'
p458
g3
F0.6599
tp459
a(S'in'
p460
g9
F0.9724
tp461
a(S'there'
p462
g24
F0.7918
tp463
a(g45
g46
F0.9981
tp464
asI149
(lp465
(S'yeah'
p466
g61
F0.9986
tp467
a(g45
g46
F0.997
tp468
asI152
(lp469
(S'wait'
p470
g6
F0.9922
tp471
a(g165
g14
F0.9943
tp472
a(S'minute'
p473
g17
F0.9672
tp474
a(S'now'
p475
g24
F0.9931
tp476
a(S'wan(t'
p477
g6
F0.992
tp478
a(S')'
p479
g46
F0.9419
tp480
a(g147
g46
F0.9507
tp481
a(S't)a'
p482
g9
F0.7294
tp483
a(S'make'
p484
g6
F0.9564
tp485
a(S'sure'
p486
g36
F0.9679
tp487
a(g45
g46
F0.9983
tp488
asI156
(lp489
(g2
g3
F0.9937
tp490
a(g178
g179
F0.7618
tp491
a(S'being'
p492
g6
F0.9996
tp493
a(S'your'
p494
g14
F0.8942
tp495
a(g185
g382
F0.4
tp496
a(g93
g46
F0.899
tp497
a(g185
g56
F0.5886
tp498
a(g96
g46
F0.8062
tp499
a(g45
g46
F0.9969
tp500
asI159
(lp501
(g178
g179
F0.9526
tp502
a(g2
g3
F0.9945
tp503
a(S'xxx'
p504
g6
F0.4959
tp505
a(S'xxx'
p506
g56
F0.7928
tp507
a(g185
g56
F0.9474
tp508
a(g93
g56
F0.535
tp509
a(g178
g179
F0.7057
tp510
a(g96
g46
F0.9842
tp511
a(g45
g46
F0.9969
tp512
asI162
(lp513
(S'helper'
p514
g17
F0.9834
tp515
a(g45
g46
F0.998
tp516
asI165
(lp517
(S'yeah'
p518
g61
F0.9973
tp519
a(S"you're"
p520
g139
F0.99
tp521
a(S'being'
p522
g6
F0.9996
tp523
a(S'my'
p524
g14
F0.998
tp525
a(S'big'
p526
g36
F0.9883
tp527
a(S'helper'
p528
g17
F0.9962
tp529
a(S'right'
p530
g36
F0.4194
tp531
a(g63
g46
F0.9983
tp532
asI171
(lp533
(S'no'
p534
g61
F0.9847
tp535
a(g61
g46
F0.999
tp536
asI174
(lp537
(g2
g3
F0.9975
tp538
a(S'am'
p539
g6
F0.9984
tp540
a(S'being'
p541
g6
F0.9973
tp542
a(S'your'
p543
g14
F0.9923
tp544
a(S'big'
p545
g36
F0.8823
tp546
a(S'big'
p547
g36
F0.9336
tp548
a(S'Santa'
p549
g75
F0.9992
tp550
a(S'Claus'
p551
g75
F0.9946
tp552
a(S'helper'
p553
g17
F0.9911
tp554
a(g45
g46
F0.9982
tp555
asI180
(lp556
(S'oh'
p557
g61
F0.9987
tp558
a(S'yeah'
p559
g61
F0.9997
tp560
a(g63
g46
F0.9973
tp561
asI184
(lp562
(S'yeah'
p563
g61
F0.9986
tp564
a(g45
g46
F0.997
tp565
asI188
(lp566
(S'you'
p567
g3
F0.9923
tp568
a(S'like'
p569
g6
F0.7314
tp570
a(S'doing'
p571
g6
F0.9988
tp572
a(S'this'
p573
g14
F0.9889
tp574
a(S'stuff'
p575
g17
F0.9974
tp576
a(S'with'
p577
g9
F0.9995
tp578
a(S'Mama'
p579
g75
F0.6689
tp580
a(g63
g46
F0.9969
tp581
asI193
(lp582
(S'yeah'
p583
g61
F0.9986
tp584
a(g45
g46
F0.997
tp585
asI196
(lp586
(S'we'
p587
g3
F0.9968
tp588
a(S'do'
p589
g6
F1.0
tp590
a(S'it'
p591
g3
F0.9772
tp592
a(S'all'
p593
g14
F0.4513
tp594
a(S'the'
p595
g14
F0.9993
tp596
a(S'time'
p597
g17
F0.9985
tp598
a(S"don't"
p599
g6
F0.9998
tp600
a(S'we'
p601
g3
F0.9756
tp602
a(g63
g46
F0.9973
tp603
asI202
(lp604
(S'yeah'
p605
g61
F0.9986
tp606
a(g45
g46
F0.997
tp607
asI205
(lp608
(S'what'
p609
g3
F0.9798
tp610
a(S'else'
p611
g24
F0.5091
tp612
a(S'your'
p613
g14
F0.9751
tp614
a(S'Mama'
p615
g17
F0.9189
tp616
a(S'makes'
p617
g6
F0.965
tp618
a(g63
g46
F0.997
tp619
asI209
(lp620
(S'coffee'
p621
g17
F0.9853
tp622
a(g45
g46
F0.9983
tp623
asI213
(lp624
(S'what'
p625
g3
F0.9798
tp626
a(S'else'
p627
g24
F0.8063
tp628
a(S'do'
p629
g6
F0.9968
tp630
a(g2
g3
F0.9991
tp631
a(S'make'
p632
g6
F0.9975
tp633
a(g63
g46
F0.996
tp634
asI217
(lp635
(S'and'
p636
g223
F0.9984
tp637
a(S"that's"
p638
g139
F0.9965
tp639
a(S'it'
p640
g3
F0.996
tp641
a(g45
g46
F0.999
tp642
asI220
(lp643
(S'oh'
p644
g61
F0.997
tp645
a(g2
g3
F0.9982
tp646
a(S'make'
p647
g6
F0.9991
tp648
a(S'other'
p649
g36
F0.9945
tp650
a(S'things'
p651
g17
F0.9984
tp652
a(g45
g46
F0.9981
tp653
asI224
(lp654
(S'you'
p655
g3
F0.9983
tp656
a(S'know'
p657
g6
F0.9995
tp658
a(S'that'
p659
g3
F0.9262
tp660
a(g45
g46
F0.9988
tp661
asI227
(lp662
(S"don't"
p663
g6
F0.9992
tp664
a(g2
g3
F0.9988
tp665
a(S'make'
p666
g6
F0.9982
tp667
a(S'&-um'
p668
g61
F0.539
tp669
a(S'[///]'
p670
g46
F0.5355
tp671
a(S'meanwhile'
p672
g24
F0.9661
tp673
a(S"there's"
p674
g139
F0.7674
tp675
a(S'your'
p676
g14
F0.9856
tp677
a(S'flour'
p678
g17
F0.9996
tp679
a(g45
g46
F0.9985
tp680
asI232
(lp681
(S"don't"
p682
g6
F0.9992
tp683
a(g2
g3
F0.9988
tp684
a(S'make'
p685
g6
F0.9999
tp686
a(S'you'
p687
g3
F0.9891
tp688
a(S'sometimes'
p689
g24
F0.95
tp690
a(S'oatmeal'
p691
g17
F0.8352
tp692
a(S'cookies'
p693
g17
F0.9994
tp694
a(g63
g46
F0.9977
tp695
asI239
(lp696
(S'no'
p697
g61
F0.5613
tp698
a(S"don't"
p699
g6
F0.9993
tp700
a(S'use'
p701
g6
F0.9993
tp702
a(S'your'
p703
g14
F0.9952
tp704
a(S'hands'
p705
g17
F0.9992
tp706
a(g93
g46
F0.982
tp707
a(g185
g56
F0.5886
tp708
a(g96
g46
F0.8062
tp709
a(g45
g46
F0.9969
tp710
asI242
(lp711
(g178
g179
F0.9171
tp712
a(S'it'
p713
g3
F0.9925
tp714
a(g185
g56
F0.3677
tp715
a(g93
g56
F0.4963
tp716
a(g178
g179
F0.8293
tp717
a(g96
g46
F0.9815
tp718
a(S'[/]'
p719
g6
F0.3212
tp720
a(S'it'
p721
g3
F0.9948
tp722
a(S'smells'
p723
g6
F0.9976
tp724
a(S'spic(y'
p725
g36
F0.9789
tp726
a(g479
g46
F0.9614
tp727
a(g93
g46
F0.9763
tp728
a(g63
g46
F0.982
tp729
a(g96
g46
F0.9518
tp730
a(g45
g46
F0.996
tp731
asI245
(lp732
(S'no'
p733
g61
F0.9847
tp734
a(g61
g46
F0.999
tp735
asI248
(lp736
(S'yeah'
p737
g61
F0.9971
tp738
a(g2
g3
F0.9994
tp739
a(S'know'
p740
g6
F0.9987
tp741
a(g45
g46
F0.9981
tp742
asI251
(lp743
(S'your'
p744
g14
F0.9787
tp745
a(S'hands'
p746
g17
F0.9987
tp747
a(S'make'
p748
g6
F0.9946
tp749
a(S'it'
p750
g3
F0.5857
tp751
a(g165
g14
F0.9949
tp752
a(S'little'
p753
g36
F0.9568
tp754
a(S'spicy'
p755
g36
F0.9775
tp756
a(S'huh'
p757
g61
F0.8789
tp758
a(g63
g46
F0.9982
tp759
asI258
(lp760
(S'zzz'
p761
g61
F0.3756
tp762
a(g45
g46
F0.9972
tp763
asI262
(lp764
(S'huh'
p765
g61
F0.9936
tp766
a(g63
g46
F0.9967
tp767
asI266
(lp768
(g2
g3
F0.9976
tp769
a(S"don't"
p770
g6
F1.0
tp771
a(g223
g223
F0.9889
tp772
a(S'n'
p773
g223
F0.7934
tp774
a(S'+/'
p775
g75
F0.2832
tp776
a(g45
g46
F0.9914
tp777
asI269
(lp778
(S'now'
p779
g24
F0.9942
tp780
a(S'tap'
p781
g6
F0.9907
tp782
a(S'it'
p783
g3
F0.9813
tp784
a(S'on'
p785
g9
F0.9745
tp786
a(S'the'
p787
g14
F0.9992
tp788
a(S'bowl'
p789
g17
F0.9994
tp790
a(g45
g46
F0.9987
tp791
asI273
(lp792
(S'until'
p793
g9
F0.9921
tp794
a(S"it's"
p795
g139
F0.9917
tp796
a(S'all'
p797
g14
F0.5165
tp798
a(S'out'
p799
g17
F0.29
tp800
a(g45
g46
F0.9992
tp801
asI276
(lp802
(S'is'
p803
g6
F0.9993
tp804
a(S'it'
p805
g3
F0.9958
tp806
a(S'all'
p807
g14
F0.5159
tp808
a(S'out'
p809
g43
F0.3398
tp810
a(g63
g46
F0.9977
tp811
asI280
(lp812
(S'yeah'
p813
g61
F0.9986
tp814
a(g45
g46
F0.997
tp815
asI283
(lp816
(S'okay'
p817
g61
F0.9741
tp818
a(g45
g46
F0.9977
tp819
asI286
(lp820
(S'and'
p821
g223
F0.9989
tp822
a(S'you'
p823
g3
F0.9992
tp824
a(S'put'
p825
g6
F0.999
tp826
a(S'the'
p827
g14
F0.9996
tp828
a(S'flour'
p829
g17
F0.9979
tp830
a(S'over'
p831
g9
F0.9477
tp832
a(S'here'
p833
g24
F0.9741
tp834
a(g45
g46
F0.9986
tp835
asI290
(lp836
(S'look'
p837
g6
F0.929
tp838
a(g2
g3
F0.9998
tp839
a(S'did'
p840
g6
F0.9995
tp841
a(S'xxx'
p842
g56
F0.8498
tp843
a(g93
g46
F0.6588
tp844
a(g185
g56
F0.6043
tp845
a(g96
g46
F0.7541
tp846
a(g45
g46
F0.9962
tp847
asI293
(lp848
(g178
g179
F0.9764
tp849
a(S'yeah'
p850
g61
F0.9976
tp851
a(S'but'
p852
g223
F0.9876
tp853
a(S'see'
p854
g6
F0.9068
tp855
a(g185
g56
F0.4624
tp856
a(g93
g56
F0.535
tp857
a(g178
g179
F0.8293
tp858
a(g96
g46
F0.984
tp859
a(g2
g3
F0.9964
tp860
a(S"don't"
p861
g6
F1.0
tp862
a(S'want'
p863
g6
F1.0
tp864
a(S'it'
p865
g3
F0.9738
tp866
a(S'all'
p867
g14
F0.638
tp868
a(S'over'
p869
g9
F0.9634
tp870
a(S'your'
p871
g14
F0.9945
tp872
a(S'clothes'
p873
g17
F0.9992
tp874
a(g93
g46
F0.9883
tp875
a(g61
g46
F0.993
tp876
a(g96
g46
F0.9749
tp877
a(g45
g46
F0.9948
tp878
asI298
(lp879
(S"that's"
p880
g139
F0.9874
tp881
a(S'alright'
p882
g61
F0.5457
tp883
a(g45
g46
F0.9978
tp884
asI301
(lp885
(S"that's"
p886
g139
F0.9974
tp887
a(S'not'
p888
g24
F0.9917
tp889
a(g93
g46
F0.9584
tp890
a(g61
g46
F0.9922
tp891
a(g96
g46
F0.9753
tp892
a(S'alright'
p893
g61
F0.8868
tp894
a(g93
g46
F0.9842
tp895
a(g185
g56
F0.4567
tp896
a(g96
g46
F0.8291
tp897
a(g45
g46
F0.9959
tp898
asI304
(lp899
(g178
g179
F0.9121
tp900
a(S"that's>"
p901
g139
F0.6673
tp902
a(g93
g46
F0.9684
tp903
a(g178
g179
F0.9566
tp904
a(g96
g46
F0.9805
tp905
a(S'alright'
p906
g61
F0.77
tp907
a(S'on'
p908
g9
F0.9932
tp909
a(S'my'
p910
g14
F0.9978
tp911
a(S'pants'
p912
g17
F0.9989
tp913
a(g45
g46
F0.9982
tp914
asI307
(lp915
(S'okay'
p916
g61
F0.976
tp917
a(g2
g3
F0.9989
tp918
a(S'want'
p919
g6
F1.0
tp920
a(S'you'
p921
g3
F0.9987
tp922
a(S'to'
p923
g9
F0.9875
tp924
a(S'put'
p925
g6
F0.9993
tp926
a(S'the'
p927
g14
F0.9997
tp928
a(S'egg'
p929
g17
F0.9914
tp930
a(S'in'
p931
g9
F0.9975
tp932
a(S'it'
p933
g3
F0.9928
tp934
a(g45
g46
F0.999
tp935
asI312
(lp936
(g178
g179
F0.9775
tp937
a(S'(o)kay'
p938
g61
F0.8794
tp939
a(g185
g56
F0.4141
tp940
a(g93
g56
F0.4959
tp941
a(g185
g56
F0.9698
tp942
a(g96
g46
F0.6899
tp943
a(g45
g46
F0.9959
tp944
asI316
(lp945
(S'put'
p946
g6
F0.9811
tp947
a(S'the'
p948
g14
F0.9996
tp949
a(S'egg'
p950
g17
F0.9966
tp951
a(S'inside'
p952
g9
F0.6717
tp953
a(g45
g46
F0.9978
tp954
asI319
(lp955
(S'zzz'
p956
g61
F0.3756
tp957
a(g45
g46
F0.9972
tp958
asI323
(lp959
(g147
g46
F0.9445
tp960
a(S'y)ick'
p961
g61
F0.9766
tp962
a(g45
g46
F0.9963
tp963
asI326
(lp964
(S'ew'
p965
g61
F0.9455
tp966
a(S'yucka'
p967
g61
F0.6285
tp968
a(S'@f'
p969
S'@'
p970
F0.996
tp971
a(g45
g46
F0.9962
tp972
asI329
(lp973
(S'okay'
p974
g61
F0.9284
tp975
a(S'le(t'
p976
g6
F0.411
tp977
a(g479
g46
F0.9925
tp978
a(S'me'
p979
g3
F0.9963
tp980
a(S'get'
p981
g6
F0.9991
tp982
a(S'some'
p983
g14
F0.9851
tp984
a(S'sugar'
p985
g17
F0.9969
tp986
a(g45
g46
F0.9986
tp987
asI332
(lp988
(S'wan(t'
p989
g6
F0.9557
tp990
a(g479
g46
F0.9434
tp991
a(g147
g46
F0.94
tp992
a(S't)a'
p993
g9
F0.3229
tp994
a(S'do'
p995
g6
F0.997
tp996
a(S'the'
p997
g14
F0.9992
tp998
a(S'sugar'
p999
g17
F0.9961
tp1000
a(S'for'
p1001
g9
F0.9999
tp1002
a(S'me'
p1003
g3
F0.9977
tp1004
a(g63
g46
F0.9981
tp1005
asI336
(lp1006
(S'disgusting'
p1007
g36
F0.9135
tp1008
a(g61
g46
F0.9986
tp1009
asI339
(lp1010
(S'gross'
p1011
g36
F0.9071
tp1012
a(g61
g46
F0.9986
tp1013
asI342
(lp1014
(S'really'
p1015
g24
F0.9969
tp1016
a(g63
g46
F0.9957
tp1017
asI346
(lp1018
(S'yeah'
p1019
g61
F0.9986
tp1020
a(g45
g46
F0.997
tp1021
asI349
(lp1022
(S'you'
p1023
g3
F0.998
tp1024
a(S'want'
p1025
g6
F0.998
tp1026
a(g147
g46
F0.9686
tp1027
a(S't)a'
p1028
g9
F0.3229
tp1029
a(S'do'
p1030
g6
F0.997
tp1031
a(S'the'
p1032
g14
F0.9992
tp1033
a(S'sugar'
p1034
g17
F0.9961
tp1035
a(S'for'
p1036
g9
F0.9995
tp1037
a(S'Mama'
p1038
g17
F0.8323
tp1039
a(S'too'
p1040
g24
F0.9441
tp1041
a(g63
g46
F0.9973
tp1042
asI355
(lp1043
(S'yeah'
p1044
g61
F0.9986
tp1045
a(g45
g46
F0.997
tp1046
asI359
(lp1047
(S'now'
p1048
g24
F0.9939
tp1049
a(S'wait'
p1050
g6
F0.9983
tp1051
a(g165
g14
F0.9929
tp1052
a(S'minute'
p1053
g17
F0.974
tp1054
a(g45
g46
F0.9986
tp1055
asI362
(lp1056
(S'le(t'
p1057
g6
F0.4475
tp1058
a(g479
g46
F0.9946
tp1059
a(S'me'
p1060
g3
F0.9967
tp1061
a(S'get'
p1062
g6
F0.9995
tp1063
a(S'my'
p1064
g14
F0.9959
tp1065
a(S'teaspoon'
p1066
g17
F0.9942
tp1067
a(S'(.)'
p1068
g56
F0.3467
tp1069
a(g45
g46
F0.9714
tp1070
asI366
(lp1071
(S'like'
p1072
g9
F0.7739
tp1073
a(S'&-uh'
p1074
g382
F0.6321
tp1075
a(g414
g382
F0.7591
tp1076
a(S'...'
p1077
g179
F0.6127
tp1078
asI369
(lp1079
(g147
g46
F0.9613
tp1080
a(S'o)kay'
p1081
g61
F0.6353
tp1082
a(S'le(t'
p1083
g6
F0.3746
tp1084
a(g479
g46
F0.9955
tp1085
a(S'me'
p1086
g3
F0.9972
tp1087
a(S'see'
p1088
g6
F0.9944
tp1089
a(S'that'
p1090
g14
F0.8631
tp1091
a(S'cup'
p1092
g17
F0.9906
tp1093
a(g45
g46
F0.9983
tp1094
asI372
(lp1095
(S'that'
p1096
g3
F0.8288
tp1097
a(S'was'
p1098
g6
F0.9996
tp1099
a(S'the'
p1100
g14
F0.9998
tp1101
a(S'egg'
p1102
g17
F0.9903
tp1103
a(S'in'
p1104
g9
F0.9959
tp1105
a(S'that'
p1106
g3
F0.5477
tp1107
a(S'right'
p1108
g36
F0.4894
tp1109
a(g63
g46
F0.9983
tp1110
asI377
(lp1111
(S'this'
p1112
g3
F0.9526
tp1113
a(S'is'
p1114
g6
F0.9988
tp1115
a(S'no'
p1116
g61
F0.3641
tp1117
a(g63
g46
F0.9969
tp1118
asI381
(lp1119
(S'huh'
p1120
g61
F0.9936
tp1121
a(g63
g46
F0.9967
tp1122
asI385
(lp1123
(S'no'
p1124
g61
F0.9704
tp1125
a(g45
g46
F0.9989
tp1126
asI388
(lp1127
(S'okay'
p1128
g61
F0.9454
tp1129
a(S'just'
p1130
g24
F0.9991
tp1131
a(S'put'
p1132
g6
F0.9986
tp1133
a(S'it'
p1134
g3
F0.9865
tp1135
a(S'down'
p1136
g43
F0.6812
tp1137
a(g45
g46
F0.9974
tp1138
asI391
(lp1139
(S'alright'
p1140
g61
F0.8594
tp1141
a(S'now'
p1142
g24
F0.9619
tp1143
a(g45
g46
F0.9986
tp1144
asI394
(lp1145
(S'okay'
p1146
g61
F0.9741
tp1147
a(g45
g46
F0.9977
tp1148
asI397
(lp1149
(S'four'
p1150
g33
F0.9105
tp1151
a(S'tablespoons'
p1152
g17
F0.9636
tp1153
a(S'(.)'
p1154
g382
F0.2717
tp1155
a(g45
g46
F0.9919
tp1156
asI400
(lp1157
(S'hold'
p1158
g6
F0.991
tp1159
a(S'this'
p1160
g3
F0.8328
tp1161
a(S'here'
p1162
g24
F0.9217
tp1163
a(g45
g46
F0.9987
tp1164
asI403
(lp1165
(S"sugar's"
p1166
S'S'
p1167
F0.6593
tp1168
a(S'going'
p1169
g6
F0.9946
tp1170
a(S'in'
p1171
g9
F0.7673
tp1172
a(S'there'
p1173
g24
F0.523
tp1174
a(S'(.)'
p1175
g56
F0.255
tp1176
a(g45
g46
F0.9509
tp1177
asI406
(lp1178
(S'you'
p1179
g3
F0.998
tp1180
a(S'wan(t'
p1181
g6
F0.9988
tp1182
a(g479
g46
F0.9323
tp1183
a(g147
g46
F0.9591
tp1184
a(S't)a'
p1185
g9
F0.7294
tp1186
a(S'put'
p1187
g6
F0.8946
tp1188
a(S'two'
p1189
g33
F0.9372
tp1190
a(g93
g46
F0.9808
tp1191
a(g61
g46
F0.9901
tp1192
a(g96
g46
F0.9782
tp1193
a(S'or'
p1194
g223
F0.9949
tp1195
a(S'you'
p1196
g3
F0.9995
tp1197
a(S'wan(t'
p1198
g6
F0.9987
tp1199
a(g479
g46
F0.9419
tp1200
a(g147
g46
F0.9507
tp1201
a(S't)a'
p1202
g9
F0.7294
tp1203
a(S'put'
p1204
g6
F0.8946
tp1205
a(S'four'
p1206
g33
F0.7596
tp1207
a(S'sugars'
p1208
g17
F0.9754
tp1209
a(S'in'
p1210
g9
F0.9958
tp1211
a(S'it'
p1212
g3
F0.9935
tp1213
a(g63
g46
F0.9988
tp1214
asI414
(lp1215
(S'two'
p1216
g33
F0.9627
tp1217
a(g93
g46
F0.9803
tp1218
a(g185
g56
F0.3811
tp1219
a(g96
g46
F0.7604
tp1220
a(g45
g46
F0.9962
tp1221
asI417
(lp1222
(S'how'
p1223
g24
F0.9747
tp1224
a(g93
g46
F0.973
tp1225
a(g178
g179
F0.9843
tp1226
a(g96
g46
F0.9884
tp1227
a(S'many'
p1228
g36
F0.8918
tp1229
a(S'do'
p1230
g6
F0.9756
tp1231
a(S'you'
p1232
g3
F0.9996
tp1233
a(S'want'
p1234
g6
F0.9979
tp1235
a(g63
g46
F0.9979
tp1236
asI421
(lp1237
(S'two'
p1238
g33
F0.9641
tp1239
a(g45
g46
F0.997
tp1240
asI424
(lp1241
(S"you're"
p1242
g139
F0.9894
tp1243
a(S'gonna'
p1244
g6
F0.996
tp1245
a(S'eat'
p1246
g6
F0.9921
tp1247
a(g93
g46
F0.9917
tp1248
a(g61
g46
F0.9901
tp1249
a(g96
g46
F0.982
tp1250
a(S'it'
p1251
g3
F0.9724
tp1252
a(g45
g46
F0.999
tp1253
asI427
(lp1254
(S'now'
p1255
g24
F0.9952
tp1256
a(S'shake'
p1257
g6
F0.9983
tp1258
a(S'it'
p1259
g3
F0.9795
tp1260
a(g45
g46
F0.999
tp1261
asI430
(lp1262
(S'what'
p1263
g3
F0.9962
tp1264
a(S'is'
p1265
g6
F0.9992
tp1266
a(S'that'
p1267
g3
F0.9542
tp1268
a(g63
g46
F0.9985
tp1269
asI434
(lp1270
(S'now'
p1271
g24
F0.9833
tp1272
a(g178
g179
F0.5252
tp1273
a(S'put'
p1274
g6
F0.9948
tp1275
a(S'it'
p1276
g3
F0.9778
tp1277
a(S'in'
p1278
g9
F0.9184
tp1279
a(S'there'
p1280
g24
F0.5285
tp1281
a(g185
g56
F0.5498
tp1282
a(g93
g56
F0.5345
tp1283
a(g185
g56
F0.9577
tp1284
a(g96
g46
F0.795
tp1285
a(g45
g46
F0.9964
tp1286
asI437
(lp1287
(g178
g179
F0.9147
tp1288
a(S'can'
p1289
g6
F0.9973
tp1290
a(g2
g3
F0.9986
tp1291
a(S'just'
p1292
g24
F0.9989
tp1293
a(g185
g56
F0.4779
tp1294
a(g93
g56
F0.535
tp1295
a(g178
g179
F0.8293
tp1296
a(g96
g46
F0.9866
tp1297
a(S'taste'
p1298
g6
F0.9896
tp1299
a(S'it'
p1300
g3
F0.9854
tp1301
a(g63
g46
F0.999
tp1302
asI441
(lp1303
(S'put'
p1304
g6
F0.9914
tp1305
a(S'it'
p1306
g3
F0.9844
tp1307
a(S'in'
p1308
g9
F0.8186
tp1309
a(S'there'
p1310
g24
F0.7722
tp1311
a(g61
g46
F0.9986
tp1312
asI444
(lp1313
(S'put'
p1314
g6
F0.9914
tp1315
a(S'it'
p1316
g3
F0.9844
tp1317
a(S'in'
p1318
g9
F0.8186
tp1319
a(S'there'
p1320
g24
F0.7523
tp1321
a(g45
g46
F0.9982
tp1322
asI447
(lp1323
(S'put'
p1324
g6
F0.9914
tp1325
a(S'it'
p1326
g3
F0.9844
tp1327
a(S'in'
p1328
g9
F0.7947
tp1329
a(S'here'
p1330
g24
F0.8655
tp1331
a(g45
g46
F0.9987
tp1332
asI450
(lp1333
(S'one'
p1334
g33
F0.9466
tp1335
a(g93
g46
F0.9785
tp1336
a(g185
g56
F0.3811
tp1337
a(g96
g46
F0.7604
tp1338
a(g45
g46
F0.9962
tp1339
asI453
(lp1340
(g178
g179
F0.9525
tp1341
a(S'&g'
p1342
g61
F0.2712
tp1343
a(g185
g179
F0.5831
tp1344
a(g93
g46
F0.9521
tp1345
a(g178
g179
F0.9635
tp1346
a(g96
g46
F0.9829
tp1347
a(S'good'
p1348
g36
F0.9922
tp1349
a(g61
g46
F0.9983
tp1350
asI456
(lp1351
(g178
g179
F0.9347
tp1352
a(S'put'
p1353
g6
F0.9928
tp1354
a(S'another'
p1355
g14
F0.953
tp1356
a(g185
g382
F0.3051
tp1357
a(S'[/]'
p1358
g382
F0.2325
tp1359
a(S'put'
p1360
g6
F0.9903
tp1361
a(S'another'
p1362
g14
F0.9911
tp1363
a(S'one'
p1364
g33
F0.9508
tp1365
a(S'in'
p1366
g9
F0.9872
tp1367
a(S'here'
p1368
g24
F0.9268
tp1369
a(g45
g46
F0.9987
tp1370
asI459
(lp1371
(S'make'
p1372
g6
F0.9707
tp1373
a(S'sure'
p1374
g36
F0.9748
tp1375
a(S"it's"
p1376
g139
F0.9944
tp1377
a(g165
g14
F0.9973
tp1378
a(S'whole'
p1379
g36
F0.9876
tp1380
a(S'bunch'
p1381
g17
F0.9916
tp1382
a(g45
g46
F0.9984
tp1383
asI462
(lp1384
(S'can'
p1385
g6
F0.9938
tp1386
a(g2
g3
F0.9979
tp1387
a(g178
g179
F0.9497
tp1388
a(S'just'
p1389
g24
F0.9993
tp1390
a(S'[/]'
p1391
g382
F0.3589
tp1392
a(g185
g382
F0.4487
tp1393
a(g93
g46
F0.899
tp1394
a(g185
g56
F0.4567
tp1395
a(g96
g46
F0.8291
tp1396
a(g45
g46
F0.9959
tp1397
asI465
(lp1398
(g178
g179
F0.9347
tp1399
a(S'put'
p1400
g6
F0.9955
tp1401
a(S'it'
p1402
g3
F0.9863
tp1403
a(g185
g56
F0.4803
tp1404
a(g93
g56
F0.535
tp1405
a(g178
g179
F0.8293
tp1406
a(g96
g46
F0.9495
tp1407
a(S'xxx'
p1408
g56
F0.4631
tp1409
a(g45
g46
F0.9769
tp1410
asI468
(lp1411
(S'put'
p1412
g6
F0.9914
tp1413
a(S'it'
p1414
g3
F0.9844
tp1415
a(S'in'
p1416
g9
F0.8186
tp1417
a(S'there'
p1418
g24
F0.7523
tp1419
a(g45
g46
F0.9982
tp1420
asI471
(lp1421
(S'two'
p1422
g33
F0.9641
tp1423
a(g45
g46
F0.997
tp1424
asI474
(lp1425
(g2
g3
F0.9933
tp1426
a(S'+/'
p1427
g6
F0.4374
tp1428
a(g45
g46
F0.997
tp1429
asI477
(lp1430
(S'two'
p1431
g33
F0.968
tp1432
a(S'more'
p1433
g36
F0.8922
tp1434
a(g61
g46
F0.9987
tp1435
asI480
(lp1436
(S'make'
p1437
g6
F0.9707
tp1438
a(S'sure'
p1439
g36
F0.9748
tp1440
a(S"it's"
p1441
g139
F0.9939
tp1442
a(S'filled'
p1443
g6
F0.8349
tp1444
a(g61
g46
F0.9983
tp1445
asI483
(lp1446
(S'no'
p1447
g61
F0.9704
tp1448
a(g45
g46
F0.9989
tp1449
asI486
(lp1450
(S'make'
p1451
g6
F0.9707
tp1452
a(S'sure'
p1453
g36
F0.9748
tp1454
a(S"it's"
p1455
g139
F0.9936
tp1456
a(S'filled'
p1457
g6
F0.8078
tp1458
a(S'(.)'
p1459
g75
F0.3555
tp1460
a(g45
g46
F0.9915
tp1461
asI489
(lp1462
(g147
g46
F0.9613
tp1463
a(S'o)kay'
p1464
g36
F0.491
tp1465
a(S'dump'
p1466
g6
F0.617
tp1467
a(S'it'
p1468
g3
F0.984
tp1469
a(g45
g46
F0.9989
tp1470
asI492
(lp1471
(S"that's"
p1472
g139
F0.9793
tp1473
a(S'three'
p1474
g33
F0.8484
tp1475
a(g45
g46
F0.9973
tp1476
asI495
(lp1477
(S'one'
p1478
g33
F0.9677
tp1479
a(S'more'
p1480
g36
F0.9016
tp1481
a(g45
g46
F0.9985
tp1482
asI498
(lp1483
(S'are'
p1484
g6
F0.9964
tp1485
a(S'you'
p1486
g3
F0.9996
tp1487
a(S'counting'
p1488
g6
F0.9971
tp1489
a(g63
g46
F0.9984
tp1490
asI502
(lp1491
(S'one'
p1492
g33
F0.8885
tp1493
a(g45
g46
F0.9971
tp1494
asI505
(lp1495
(S'wait'
p1496
g6
F0.9922
tp1497
a(g165
g14
F0.9943
tp1498
a(S'minute'
p1499
g17
F0.9432
tp1500
a(S"you're"
p1501
g139
F0.9953
tp1502
a(S'not'
p1503
g24
F0.9987
tp1504
a(S'counting'
p1505
g6
F0.9997
tp1506
a(S'it'
p1507
g3
F0.9747
tp1508
a(g45
g46
F0.999
tp1509
asI510
(lp1510
(S'okay'
p1511
g61
F0.9064
tp1512
a(S'now'
p1513
g24
F0.9947
tp1514
a(S'put'
p1515
g6
F0.9957
tp1516
a(S'it'
p1517
g3
F0.9814
tp1518
a(S'in'
p1519
g9
F0.5282
tp1520
a(g45
g46
F0.9941
tp1521
asI513
(lp1522
(S"that's"
p1523
g139
F0.9793
tp1524
a(S'four'
p1525
g33
F0.6459
tp1526
a(g45
g46
F0.9972
tp1527
asI516
(lp1528
(S'can'
p1529
g6
F0.9938
tp1530
a(g2
g3
F0.9994
tp1531
a(S'have'
p1532
g6
F1.0
tp1533
a(g165
g14
F0.999
tp1534
a(S'little'
p1535
g36
F0.9886
tp1536
a(S'taste'
p1537
g17
F0.9733
tp1538
a(g63
g46
F0.9969
tp1539
asI520
(lp1540
(g165
g14
F0.9956
tp1541
a(S'little'
p1542
g36
F0.9953
tp1543
a(S'taste'
p1544
g17
F0.9875
tp1545
a(S'of'
p1546
g9
F0.9978
tp1547
a(S'what'
p1548
g3
F0.9917
tp1549
a(g63
g46
F0.9932
tp1550
asI524
(lp1551
(S'flour'
p1552
g17
F0.9844
tp1553
a(g63
g46
F0.9968
tp1554
asI528
(lp1555
(g2
g3
F0.9983
tp1556
a(S'mean'
p1557
g6
F0.9424
tp1558
a(S'sugar'
p1559
g17
F0.9954
tp1560
a(g63
g46
F0.9969
tp1561
asI532
(lp1562
(S'yeah'
p1563
g61
F0.9986
tp1564
a(g45
g46
F0.997
tp1565
asI535
(lp1566
(S"that's"
p1567
g139
F0.9937
tp1568
a(S'too'
p1569
g24
F0.9989
tp1570
a(S'much'
p1571
g36
F0.6354
tp1572
a(S'for'
p1573
g9
F0.9998
tp1574
a(S"Chi's"
p1575
S'Z'
p1576
F0.9068
tp1577
a(S'belly'
p1578
g17
F0.986
tp1579
a(g45
g46
F0.9983
tp1580
asI540
(lp1581
(S'it'
p1582
g3
F0.9943
tp1583
a(S'will'
p1584
g6
F0.9988
tp1585
a(S'help'
p1586
g6
F0.9997
tp1587
a(S'me'
p1588
g3
F0.9973
tp1589
a(g45
g46
F0.9984
tp1590
asI543
(lp1591
(S'it'
p1592
g3
F0.9943
tp1593
a(S'will'
p1594
g6
F0.9987
tp1595
a(S'not'
p1596
g24
F0.9957
tp1597
a(S'help'
p1598
g6
F0.9938
tp1599
a(S'you'
p1600
g3
F0.9979
tp1601
a(g45
g46
F0.9994
tp1602
asI546
(lp1603
(S'okay'
p1604
g61
F0.9224
tp1605
a(g178
g179
F0.6559
tp1606
a(S"that's"
p1607
g139
F0.9875
tp1608
a(S'enough'
p1609
g36
F0.6211
tp1610
a(g185
g56
F0.5592
tp1611
a(g93
g56
F0.5345
tp1612
a(g185
g56
F0.9732
tp1613
a(g96
g46
F0.8062
tp1614
a(g45
g46
F0.9969
tp1615
asI549
(lp1616
(g178
g179
F0.9347
tp1617
a(S'put'
p1618
g6
F0.9955
tp1619
a(S'it'
p1620
g3
F0.9863
tp1621
a(g185
g56
F0.4803
tp1622
a(g93
g56
F0.5345
tp1623
a(g185
g56
F0.9532
tp1624
a(g96
g46
F0.883
tp1625
a(S'down'
p1626
g24
F0.4515
tp1627
a(g45
g46
F0.9986
tp1628
asI552
(lp1629
(S'put'
p1630
g6
F0.9914
tp1631
a(S'it'
p1632
g3
F0.9891
tp1633
a(S'down'
p1634
g43
F0.8061
tp1635
a(g45
g46
F0.9981
tp1636
asI555
(lp1637
(S'put'
p1638
g6
F0.9914
tp1639
a(S'it'
p1640
g3
F0.9891
tp1641
a(S'down'
p1642
g43
F0.8126
tp1643
a(g61
g46
F0.9981
tp1644
asI558
(lp1645
(S"it's"
p1646
g139
F0.9984
tp1647
a(S'not'
p1648
g24
F0.9918
tp1649
a(S'that'
p1650
g24
F0.5216
tp1651
a(S'much'
p1652
g36
F0.8484
tp1653
a(g61
g46
F0.999
tp1654
asI561
(lp1655
(g178
g179
F0.9328
tp1656
a(S"it's"
p1657
g139
F0.9945
tp1658
a(S'[/]'
p1659
g46
F0.2543
tp1660
a(S"it's>"
p1661
g139
F0.9136
tp1662
a(g93
g46
F0.9654
tp1663
a(g178
g179
F0.9635
tp1664
a(g96
g46
F0.9572
tp1665
a(g414
g223
F0.473
tp1666
a(S'...'
p1667
g46
F0.6222
tp1668
asI564
(lp1669
(S'zzz'
p1670
g61
F0.3756
tp1671
a(g45
g46
F0.9972
tp1672
asI568
(lp1673
(S'open'
p1674
g6
F0.9526
tp1675
a(S'up'
p1676
g43
F0.7107
tp1677
a(S'your'
p1678
g14
F0.9952
tp1679
a(S'mouth'
p1680
g17
F0.9994
tp1681
a(S'(.)'
p1682
g56
F0.374
tp1683
a(g45
g46
F0.9509
tp1684
asI571
(lp1685
(S'zzz'
p1686
g61
F0.3756
tp1687
a(g45
g46
F0.9972
tp1688
asI575
(lp1689
(S'come'
p1690
g6
F0.9888
tp1691
a(S'here'
p1692
g24
F0.9774
tp1693
a(g178
g179
F0.8348
tp1694
a(S"I'll>"
p1695
g139
F0.9518
tp1696
a(g93
g46
F0.9478
tp1697
a(g185
g56
F0.4438
tp1698
a(g96
g46
F0.8055
tp1699
a(S'wipe'
p1700
g6
F0.9951
tp1701
a(S'it'
p1702
g3
F0.9658
tp1703
a(g45
g46
F0.9988
tp1704
asI578
(lp1705
(S'zzz'
p1706
g382
F0.409
tp1707
a(g93
g46
F0.9451
tp1708
a(g178
g179
F0.972
tp1709
a(g96
g46
F0.9847
tp1710
a(g45
g46
F0.9962
tp1711
asI582
(lp1712
(S'zzz'
p1713
g61
F0.3756
tp1714
a(g45
g46
F0.9972
tp1715
asI586
(lp1716
(S'okay'
p1717
g61
F0.9224
tp1718
a(g178
g179
F0.6973
tp1719
a(g165
g14
F0.9956
tp1720
a(S'little'
p1721
g36
F0.9891
tp1722
a(g185
g46
F0.2964
tp1723
a(S'[/]'
p1724
g46
F0.31
tp1725
a(g165
g14
F0.996
tp1726
a(S'little'
p1727
g36
F0.9945
tp1728
a(S'sugar'
p1729
g17
F0.9989
tp1730
a(S'is'
p1731
g6
F0.9944
tp1732
a(S'not'
p1733
g24
F0.9973
tp1734
a(S'going'
p1735
g6
F0.9992
tp1736
a(S'to'
p1737
g9
F0.9862
tp1738
a(S'kill'
p1739
g6
F0.9998
tp1740
a(S'you'
p1741
g3
F0.9969
tp1742
a(S'(.)'
p1743
g46
F0.4145
tp1744
a(g45
g46
F0.9944
tp1745
asI591
(lp1746
(S"what's"
p1747
g139
F0.9922
tp1748
a(S'the'
p1749
g14
F0.9981
tp1750
a(S'matter'
p1751
g17
F0.9941
tp1752
a(g63
g46
F0.9982
tp1753
asI595
(lp1754
(S'did'
p1755
g6
F0.9987
tp1756
a(S'it'
p1757
g3
F0.9917
tp1758
a(S'go'
p1759
g6
F0.9983
tp1760
a(S'in'
p1761
g9
F0.9814
tp1762
a(S'your'
p1763
g14
F0.9962
tp1764
a(S'nose'
p1765
g17
F0.9994
tp1766
a(g63
g46
F0.9981
tp1767
asI599
(lp1768
(S'oh'
p1769
g61
F0.9972
tp1770
a(S"I('m"
p1771
g139
F0.9316
tp1772
a(g479
g46
F0.9792
tp1773
a(S'sorry'
p1774
g36
F0.9374
tp1775
a(g45
g46
F0.9979
tp1776
asI602
(lp1777
(g147
g46
F0.9668
tp1778
a(S'are'
p1779
g6
F0.9873
tp1780
a(g479
g46
F0.9859
tp1781
a(S'you'
p1782
g3
F0.9942
tp1783
a(S'acting'
p1784
g6
F0.9997
tp1785
a(S'like'
p1786
g9
F0.8193
tp1787
a(S'baby'
p1788
g17
F0.9906
tp1789
a(S'now'
p1790
g24
F0.9934
tp1791
a(g63
g46
F0.9988
tp1792
asI606
(lp1793
(S'zzz'
p1794
g61
F0.3756
tp1795
a(g45
g46
F0.9972
tp1796
asI610
(lp1797
(S'do'
p1798
g6
F0.9989
tp1799
a(S'it'
p1800
g3
F0.9943
tp1801
a(S'like'
p1802
g6
F0.5519
tp1803
a(S'that'
p1804
g3
F0.9521
tp1805
a(g45
g46
F0.9988
tp1806
asI614
(lp1807
(S'zzz'
p1808
g61
F0.3756
tp1809
a(g45
g46
F0.9972
tp1810
asI618
(lp1811
(S'do'
p1812
g6
F0.9989
tp1813
a(S'it'
p1814
g3
F0.9943
tp1815
a(S'like'
p1816
g9
F0.7735
tp1817
a(g2
g3
F0.9995
tp1818
a(S'said'
p1819
g6
F0.9991
tp1820
a(g45
g46
F0.9967
tp1821
asI621
(lp1822
(S'okay'
p1823
g61
F0.9741
tp1824
a(g45
g46
F0.9977
tp1825
asI624
(lp1826
(S'now'
p1827
g24
F0.9502
tp1828
a(g61
g46
F0.9986
tp1829
asI627
(lp1830
(S'take'
p1831
g6
F0.9935
tp1832
a(S'this'
p1833
g14
F0.9844
tp1834
a(S'one'
p1835
g33
F0.7928
tp1836
a(S'here'
p1837
g24
F0.9232
tp1838
a(g45
g46
F0.9987
tp1839
asI630
(lp1840
(S'okay'
p1841
g61
F0.9741
tp1842
a(g45
g46
F0.9977
tp1843
asI633
(lp1844
(S'move'
p1845
g6
F0.8199
tp1846
a(S'that'
p1847
g3
F0.8088
tp1848
a(S'now'
p1849
g24
F0.9914
tp1850
a(g45
g46
F0.9987
tp1851
asI636
(lp1852
(S'and'
p1853
g223
F0.9987
tp1854
a(S'how'
p1855
g24
F0.9964
tp1856
a(S'many'
p1857
g36
F0.975
tp1858
a(S'(.)'
p1859
g75
F0.289
tp1860
a(g63
g46
F0.9955
tp1861
asI640
(lp1862
(S'four'
p1863
g33
F0.9117
tp1864
a(S'teaspoons'
p1865
g17
F0.9898
tp1866
a(g45
g46
F0.9985
tp1867
asI643
(lp1868
(S'now'
p1869
g24
F0.9939
tp1870
a(S'wait'
p1871
g6
F0.9983
tp1872
a(g165
g14
F0.994
tp1873
a(S'minute'
p1874
g17
F0.9525
tp1875
a(S'now'
p1876
g24
F0.989
tp1877
a(g178
g179
F0.7268
tp1878
a(S'is'
p1879
g6
F0.9992
tp1880
a(S'this'
p1881
g3
F0.791
tp1882
a(g185
g382
F0.3314
tp1883
a(S'[/]'
p1884
g75
F0.3316
tp1885
a(S'is'
p1886
g6
F0.9988
tp1887
a(S'this'
p1888
g3
F0.7058
tp1889
a(g165
g14
F0.9889
tp1890
a(S'teaspoon'
p1891
g17
F0.9975
tp1892
a(g63
g46
F0.9972
tp1893
asI649
(lp1894
(S'okay'
p1895
g61
F0.962
tp1896
a(S"I'm"
p1897
g139
F0.9949
tp1898
a(S'gonna'
p1899
g6
F0.9957
tp1900
a(S'fill'
p1901
g6
F0.9997
tp1902
a(S'it'
p1903
g3
F0.9846
tp1904
a(S'and'
p1905
g223
F0.9941
tp1906
a(S"I'm"
p1907
g139
F0.997
tp1908
a(S'gonna'
p1909
g6
F0.9947
tp1910
a(S'let'
p1911
g6
F0.9998
tp1912
a(S'you'
p1913
g3
F0.993
tp1914
a(S'empty'
p1915
g36
F0.7436
tp1916
a(S'it'
p1917
g3
F0.9289
tp1918
a(g45
g46
F0.9986
tp1919
asI655
(lp1920
(S'now'
p1921
g24
F0.9936
tp1922
a(S"don't"
p1923
g6
F0.9998
tp1924
a(S'put'
p1925
g6
F0.9995
tp1926
a(S'this'
p1927
g3
F0.6966
tp1928
a(S'in'
p1929
g9
F0.956
tp1930
a(S'your'
p1931
g14
F0.9952
tp1932
a(S'mouth'
p1933
g17
F0.9998
tp1934
a(g45
g46
F0.9985
tp1935
asI660
(lp1936
(S'this'
p1937
g3
F0.9526
tp1938
a(S'is'
p1939
g6
F0.9971
tp1940
a(S'yucka'
p1941
g17
F0.1765
tp1942
a(S'@f'
p1943
g970
F0.9923
tp1944
a(g45
g46
F0.9959
tp1945
asI663
(lp1946
(S'yeah'
p1947
g61
F0.9986
tp1948
a(g45
g46
F0.997
tp1949
asI667
(lp1950
(g147
g46
F0.9613
tp1951
a(S'o)kay'
p1952
g61
F0.6375
tp1953
a(S'here'
p1954
g24
F0.9532
tp1955
a(S'you'
p1956
g3
F0.9993
tp1957
a(S'dump'
p1958
g6
F0.9992
tp1959
a(S'it'
p1960
g3
F0.9908
tp1961
a(S'in'
p1962
g9
F0.941
tp1963
a(S'there'
p1964
g24
F0.7867
tp1965
a(g45
g46
F0.9985
tp1966
asI670
(lp1967
(S'one'
p1968
g33
F0.8885
tp1969
a(g45
g46
F0.9971
tp1970
asI674
(lp1971
(S'can'
p1972
g6
F0.999
tp1973
a(S'you'
p1974
g3
F0.9988
tp1975
a(S'count'
p1976
g6
F0.9708
tp1977
a(g63
g46
F0.9979
tp1978
asI679
(lp1979
(S'only'
p1980
g24
F0.7279
tp1981
a(g93
g46
F0.9792
tp1982
a(g63
g46
F0.976
tp1983
a(g96
g46
F0.9666
tp1984
a(S'twice'
p1985
g24
F0.9604
tp1986
a(S'xxx'
p1987
g56
F0.8589
tp1988
a(g93
g46
F0.6588
tp1989
a(g185
g56
F0.4567
tp1990
a(g96
g46
F0.8291
tp1991
a(g45
g46
F0.9959
tp1992
asI683
(lp1993
(g178
g179
F0.9775
tp1994
a(S'(o)kay'
p1995
g61
F0.8794
tp1996
a(g185
g56
F0.4141
tp1997
a(g93
g56
F0.4963
tp1998
a(g178
g179
F0.8293
tp1999
a(g96
g46
F0.9852
tp2000
a(S'count'
p2001
g6
F0.9553
tp2002
a(S'when'
p2003
g24
F0.9926
tp2004
a(S'you'
p2005
g3
F0.9986
tp2006
a(S'put'
p2007
g6
F0.9995
tp2008
a(S'them'
p2009
g3
F0.96
tp2010
a(S'in'
p2011
g9
F0.8174
tp2012
a(g45
g46
F0.9942
tp2013
asI688
(lp2014
(S'two'
p2015
g33
F0.9627
tp2016
a(g93
g46
F0.9803
tp2017
a(g185
g56
F0.3811
tp2018
a(g96
g46
F0.7604
tp2019
a(g45
g46
F0.9962
tp2020
asI692
(lp2021
(S'two'
p2022
g33
F0.9627
tp2023
a(g93
g46
F0.9814
tp2024
a(g178
g179
F0.972
tp2025
a(g96
g46
F0.9847
tp2026
a(g45
g46
F0.9962
tp2027
asI696
(lp2028
(S'tap'
p2029
g6
F0.5574
tp2030
a(S'on'
p2031
g9
F0.9781
tp2032
a(S'the'
p2033
g14
F0.9993
tp2034
a(S'side'
p2035
g17
F0.9683
tp2036
a(S'(.)'
p2037
g56
F0.3071
tp2038
a(S'o(f'
p2039
g56
F0.5535
tp2040
a(g479
g46
F0.7958
tp2041
a(S'the'
p2042
g14
F0.9982
tp2043
a(S'bowl'
p2044
g17
F0.9974
tp2045
a(S'(.)'
p2046
g382
F0.2655
tp2047
a(g45
g46
F0.992
tp2048
asI701
(lp2049
(S'two'
p2050
g33
F0.9592
tp2051
a(S'(.)'
p2052
g17
F0.1918
tp2053
a(g45
g46
F0.9976
tp2054
asI704
(lp2055
(S'another'
p2056
g14
F0.9867
tp2057
a(S'one'
p2058
g33
F0.8056
tp2059
a(g45
g46
F0.9975
tp2060
asI707
(lp2061
(S'three'
p2062
g33
F0.9336
tp2063
a(g45
g46
F0.9969
tp2064
asI710
(lp2065
(S'can'
p2066
g6
F0.9938
tp2067
a(g2
g3
F0.9987
tp2068
a(S'just'
p2069
g24
F0.9993
tp2070
a(S'have'
p2071
g6
F0.9924
tp2072
a(g178
g179
F0.8822
tp2073
a(S'&t'
p2074
g179
F0.311
tp2075
a(g185
g179
F0.2496
tp2076
a(S'[/]'
p2077
g179
F0.1481
tp2078
a(g93
g46
F0.9573
tp2079
a(g185
g56
F0.4205
tp2080
a(g96
g46
F0.7992
tp2081
a(g45
g46
F0.9936
tp2082
asI713
(lp2083
(S'tap'
p2084
g17
F0.8325
tp2085
a(g93
g46
F0.991
tp2086
a(g178
g179
F0.972
tp2087
a(g96
g46
F0.9847
tp2088
a(g45
g46
F0.9962
tp2089
asI716
(lp2090
(S'put'
p2091
g6
F0.9661
tp2092
a(S'that'
p2093
g3
F0.6774
tp2094
a(S'in'
p2095
g9
F0.9397
tp2096
a(S'there'
p2097
g24
F0.7523
tp2098
a(g45
g46
F0.9982
tp2099
asI719
(lp2100
(S"that's"
p2101
g139
F0.9793
tp2102
a(S'four'
p2103
g33
F0.6459
tp2104
a(g45
g46
F0.9972
tp2105
asI723
(lp2106
(S'four'
p2107
g33
F0.9105
tp2108
a(S'teaspoons'
p2109
g17
F0.9885
tp2110
a(S'o(f'
p2111
g9
F0.5192
tp2112
a(g479
g46
F0.9755
tp2113
a(S'what'
p2114
g3
F0.9314
tp2115
a(g63
g46
F0.9932
tp2116
asI727
(lp2117
(g178
g179
F0.9147
tp2118
a(S'can'
p2119
g6
F0.9973
tp2120
a(g2
g3
F0.9986
tp2121
a(S'just'
p2122
g24
F0.9989
tp2123
a(g185
g56
F0.4779
tp2124
a(g93
g56
F0.5345
tp2125
a(g185
g56
F0.9532
tp2126
a(g96
g46
F0.6425
tp2127
a(S'(.)'
p2128
g56
F0.2879
tp2129
a(S'take'
p2130
g6
F0.9859
tp2131
a(S'[///]'
p2132
g46
F0.253
tp2133
a(g45
g46
F0.9938
tp2134
asI730
(lp2135
(g178
g179
F0.9241
tp2136
a(S'do'
p2137
g6
F0.9991
tp2138
a(S'you'
p2139
g3
F0.9997
tp2140
a(S'know'
p2141
g6
F0.9985
tp2142
a(S'what'
p2143
g3
F0.9619
tp2144
a(S'this'
p2145
g3
F0.9795
tp2146
a(S'is'
p2147
g6
F0.9942
tp2148
a(g185
g56
F0.5493
tp2149
a(g93
g56
F0.535
tp2150
a(g178
g179
F0.768
tp2151
a(g96
g46
F0.9751
tp2152
a(g63
g46
F0.9934
tp2153
asI734
(lp2154
(S'what'
p2155
g3
F0.9171
tp2156
a(g63
g46
F0.9924
tp2157
asI738
(lp2158
(S'this'
p2159
g3
F0.9526
tp2160
a(S'is'
p2161
g6
F0.9974
tp2162
a(S'baking'
p2163
g6
F0.9793
tp2164
a(S'powder'
p2165
g17
F0.9921
tp2166
a(g45
g46
F0.9987
tp2167
asI741
(lp2168
(S'yeah'
p2169
g61
F0.9988
tp2170
a(g63
g46
F0.9966
tp2171
asI745
(lp2172
(g178
g179
F0.937
tp2173
a(S'go'
p2174
g6
F0.9788
tp2175
a(S'ahead'
p2176
g24
F0.9515
tp2177
a(g185
g56
F0.6075
tp2178
a(g93
g56
F0.5345
tp2179
a(g185
g56
F0.9749
tp2180
a(g96
g46
F0.542
tp2181
a(g61
g46
F0.9969
tp2182
asI748
(lp2183
(S'can'
p2184
g6
F0.9666
tp2185
a(g93
g46
F0.9805
tp2186
a(g178
g179
F0.9843
tp2187
a(g96
g46
F0.988
tp2188
a(g2
g3
F0.9943
tp2189
a(S'just'
p2190
g24
F0.9982
tp2191
a(S'taste'
p2192
g6
F0.993
tp2193
a(S'some'
p2194
g14
F0.7019
tp2195
a(g147
g46
F0.9836
tp2196
a(S'of'
p2197
g9
F0.8902
tp2198
a(g479
g46
F0.9933
tp2199
a(S'that'
p2200
g3
F0.5117
tp2201
a(g63
g46
F0.9982
tp2202
asI752
(lp2203
(S'what'
p2204
g3
F0.9171
tp2205
a(g63
g46
F0.9924
tp2206
asI756
(lp2207
(g178
g179
F0.936
tp2208
a(S'Chi'
p2209
g75
F0.8407
tp2210
a(g185
g75
F0.3311
tp2211
a(g93
g46
F0.9707
tp2212
a(g185
g56
F0.4438
tp2213
a(g96
g46
F0.8592
tp2214
a(S"you're"
p2215
g139
F0.9876
tp2216
a(S'gonna'
p2217
g6
F0.9969
tp2218
a(S'be'
p2219
g6
F0.9993
tp2220
a(S'eating'
p2221
g6
F0.9824
tp2222
a(S'supper'
p2223
g17
F0.9921
tp2224
a(S'too'
p2225
g24
F0.9528
tp2226
a(g45
g46
F0.9965
tp2227
asI761
(lp2228
(S'this'
p2229
g3
F0.6107
tp2230
a(g93
g46
F0.9896
tp2231
a(g178
g179
F0.972
tp2232
a(g96
g46
F0.9847
tp2233
a(g45
g46
F0.9962
tp2234
asI765
(lp2235
(g2
g3
F0.9962
tp2236
a(S'just'
p2237
g24
F0.9986
tp2238
a(S'want'
p2239
g6
F0.9959
tp2240
a(g147
g46
F0.9774
tp2241
a(S't)a'
p2242
g9
F0.4516
tp2243
a(S'[///]'
p2244
g46
F0.4091
tp2245
a(S'just'
p2246
g24
F0.9949
tp2247
a(S'one'
p2248
g33
F0.9433
tp2249
a(S'okay'
p2250
g61
F0.6782
tp2251
a(g63
g46
F0.9982
tp2252
asI769
(lp2253
(S'just'
p2254
g24
F0.9957
tp2255
a(S'one'
p2256
g33
F0.8958
tp2257
a(g45
g46
F0.9975
tp2258
asI772
(lp2259
(S'yeah'
p2260
g61
F0.9986
tp2261
a(g45
g46
F0.997
tp2262
asI775
(lp2263
(g147
g46
F0.9736
tp2264
a(S'be)cause'
p2265
g9
F0.9977
tp2266
a(S'you'
p2267
g3
F0.9997
tp2268
a(S'never'
p2269
g24
F0.9967
tp2270
a(S'eat'
p2271
g6
F0.9877
tp2272
a(S'supper'
p2273
g17
F0.9358
tp2274
a(S'(.)'
p2275
g56
F0.2572
tp2276
a(g45
g46
F0.9714
tp2277
asI779
(lp2278
(S'what'
p2279
g3
F0.9835
tp2280
a(S'are'
p2281
g6
F0.9978
tp2282
a(S'you'
p2283
g3
F0.9993
tp2284
a(S'having'
p2285
g6
F0.9999
tp2286
a(S'for'
p2287
g9
F0.9973
tp2288
a(S'supper'
p2289
g17
F0.8591
tp2290
a(S'(.)'
p2291
g56
F0.3802
tp2292
a(g63
g46
F0.9768
tp2293
asI784
(lp2294
(S'huh'
p2295
g61
F0.9936
tp2296
a(g63
g46
F0.9967
tp2297
asI788
(lp2298
(S'you'
p2299
g3
F0.9983
tp2300
a(S'know'
p2301
g6
F0.9986
tp2302
a(S'what'
p2303
g3
F0.9853
tp2304
a(S"you're"
p2305
g139
F0.9828
tp2306
a(S'having'
p2307
g6
F0.9948
tp2308
a(g63
g46
F0.9963
tp2309
asI793
(lp2310
(S'yep'
p2311
g61
F0.9989
tp2312
a(g61
g46
F0.997
tp2313
asI796
(lp2314
(S'what'
p2315
g3
F0.9171
tp2316
a(g63
g46
F0.9924
tp2317
asI800
(lp2318
(S'cornbread'
p2319
g17
F0.9915
tp2320
a(g45
g46
F0.9983
tp2321
asI803
(lp2322
(S"that's"
p2323
g139
F0.9974
tp2324
a(S'not'
p2325
g24
F0.9953
tp2326
a(S'for'
p2327
g9
F0.9974
tp2328
a(S'supper'
p2329
g17
F0.8924
tp2330
a(S'(.)'
p2331
g382
F0.2568
tp2332
a(g45
g46
F0.9901
tp2333
asI806
(lp2334
(S'are'
p2335
g6
F0.9964
tp2336
a(S'you'
p2337
g3
F0.9992
tp2338
a(S'having'
p2339
g6
F0.9994
tp2340
a(S'liver'
p2341
g17
F0.9947
tp2342
a(g63
g46
F0.9984
tp2343
asI810
(lp2344
(S'yep'
p2345
g61
F0.9989
tp2346
a(g61
g46
F0.997
tp2347
asI813
(lp2348
(S'ouch'
p2349
g61
F0.9917
tp2350
a(S'(.)'
p2351
g61
F0.4773
tp2352
a(g61
g46
F0.9975
tp2353
asI817
(lp2354
(S'xxx'
p2355
g56
F0.7647
tp2356
a(S'(.)'
p2357
g56
F0.8124
tp2358
a(g45
g46
F0.9705
tp2359
asI819
(lp2360
(S'wait'
p2361
g6
F0.9922
tp2362
a(g165
g14
F0.994
tp2363
a(S'minute'
p2364
g17
F0.9809
tp2365
a(g45
g46
F0.9985
tp2366
asI823
(lp2367
(S'oh'
p2368
g61
F0.9957
tp2369
a(S'well'
p2370
g61
F0.9845
tp2371
a(S'what'
p2372
g3
F0.9945
tp2373
a(S'else'
p2374
g24
F0.8824
tp2375
a(S'do'
p2376
g6
F0.9964
tp2377
a(S'we'
p2378
g3
F0.9992
tp2379
a(S'need'
p2380
g6
F0.9946
tp2381
a(S'(.)'
p2382
g75
F0.3481
tp2383
a(g63
g46
F0.9964
tp2384
asI827
(lp2385
(g165
g14
F0.9956
tp2386
a(S'little'
p2387
g36
F0.9974
tp2388
a(S'dab'
p2389
g17
F0.9968
tp2390
a(S'of'
p2391
g9
F0.9949
tp2392
a(S'salt'
p2393
g17
F0.8751
tp2394
a(g45
g46
F0.9976
tp2395
asI830
(lp2396
(S"don't"
p2397
g6
F0.9992
tp2398
a(S'put'
p2399
g6
F0.9974
tp2400
a(S'too'
p2401
g24
F0.9982
tp2402
a(S'much'
p2403
g36
F0.7525
tp2404
a(g61
g46
F0.999
tp2405
asI833
(lp2406
(S'here'
p2407
g24
F0.9346
tp2408
a(S'you'
p2409
g3
F0.9996
tp2410
a(S'put'
p2411
g6
F0.9985
tp2412
a(S'some'
p2413
g14
F0.9905
tp2414
a(S'salt'
p2415
g17
F0.8985
tp2416
a(S'in'
p2417
g9
F0.9981
tp2418
a(S'it'
p2419
g3
F0.9924
tp2420
a(g45
g46
F0.999
tp2421
asI837
(lp2422
(S'shake'
p2423
g6
F0.9877
tp2424
a(S'the'
p2425
g14
F0.9992
tp2426
a(S'salt'
p2427
g17
F0.9213
tp2428
a(S'(.)'
p2429
g56
F0.2598
tp2430
a(g45
g46
F0.9675
tp2431
asI840
(lp2432
(S'okay'
p2433
g61
F0.9804
tp2434
a(S'that'
p2435
g3
F0.8995
tp2436
a(S'is'
p2437
g6
F0.9983
tp2438
a(g147
g46
F0.9903
tp2439
a(S'e)nough'
p2440
g36
F0.4705
tp2441
a(S'with'
p2442
g9
F0.9981
tp2443
a(S'salt'
p2444
g17
F0.784
tp2445
a(g45
g46
F0.9983
tp2446
asI843
(lp2447
(S'okay'
p2448
g61
F0.9498
tp2449
a(S"we're"
p2450
g139
F0.9611
tp2451
a(S'gonna'
p2452
g6
F0.9942
tp2453
a(S'give'
p2454
g6
F0.9999
tp2455
a(S'you'
p2456
g3
F0.9939
tp2457
a(S'some'
p2458
g14
F0.9922
tp2459
a(S'milk'
p2460
g17
F0.9966
tp2461
a(g45
g46
F0.9987
tp2462
asI848
(lp2463
(S'and'
p2464
g223
F0.9986
tp2465
a(S'can'
p2466
g6
F0.9988
tp2467
a(g2
g3
F0.9991
tp2468
a(S'do'
p2469
g6
F0.9999
tp2470
a(S'that'
p2471
g3
F0.8425
tp2472
a(g63
g46
F0.9982
tp2473
asI852
(lp2474
(S'can'
p2475
g6
F0.999
tp2476
a(S'you'
p2477
g3
F0.9749
tp2478
a(S'mix'
p2479
g6
F0.6812
tp2480
a(S'what'
p2481
g3
F0.9682
tp2482
a(g63
g46
F0.9954
tp2483
asI856
(lp2484
(S'can'
p2485
g6
F0.999
tp2486
a(S'you'
p2487
g3
F0.9749
tp2488
a(S'mix'
p2489
g6
F0.9568
tp2490
a(S'it'
p2491
g3
F0.938
tp2492
a(g63
g46
F0.999
tp2493
asI860
(lp2494
(S'yeah'
p2495
g61
F0.9986
tp2496
a(g45
g46
F0.997
tp2497
asI863
(lp2498
(S'well'
p2499
g24
F0.4918
tp2500
a(S'soon'
p2501
g24
F0.9591
tp2502
a(S'as'
p2503
g9
F0.9362
tp2504
a(g2
g3
F0.9993
tp2505
a(S'put'
p2506
g6
F0.9988
tp2507
a(S'everything'
p2508
g17
F0.9467
tp2509
a(S'all'
p2510
g24
F0.4367
tp2511
a(S'together'
p2512
g24
F0.6723
tp2513
a(S'(.)'
p2514
g382
F0.242
tp2515
a(g45
g46
F0.99
tp2516
asI868
(lp2517
(g147
g46
F0.9604
tp2518
a(S'o)kay'
p2519
g61
F0.6539
tp2520
a(g45
g46
F0.998
tp2521
asI871
(lp2522
(S'put'
p2523
g6
F0.9811
tp2524
a(S'the'
p2525
g14
F0.9995
tp2526
a(S'milk'
p2527
g17
F0.9976
tp2528
a(S'in'
p2529
g9
F0.9944
tp2530
a(S'(.)'
p2531
g75
F0.6599
tp2532
a(g45
g46
F0.9915
tp2533
asI874
(lp2534
(S'you'
p2535
g3
F0.9923
tp2536
a(S'like'
p2537
g6
F0.7416
tp2538
a(S'helping'
p2539
g6
F0.9994
tp2540
a(S'your'
p2541
g14
F0.9937
tp2542
a(S'mother'
p2543
g17
F0.9978
tp2544
a(g63
g46
F0.9977
tp2545
asI878
(lp2546
(S'yep'
p2547
g61
F0.9989
tp2548
a(g61
g46
F0.997
tp2549
asI881
(lp2550
(S'okay'
p2551
g61
F0.9741
tp2552
a(g45
g46
F0.9977
tp2553
asI884
(lp2554
(S'here'
p2555
g24
F0.9505
tp2556
a(S'take'
p2557
g6
F0.9888
tp2558
a(S'this'
p2559
g3
F0.6818
tp2560
a(S'and'
p2561
g223
F0.9973
tp2562
a(S'mix'
p2563
g6
F0.7726
tp2564
a(S'it'
p2565
g3
F0.971
tp2566
a(g45
g46
F0.9989
tp2567
asI887
(lp2568
(S'make'
p2569
g6
F0.9707
tp2570
a(S'sure'
p2571
g36
F0.9259
tp2572
a(S'you'
p2573
g3
F0.9987
tp2574
a(S'do'
p2575
g6
F0.9999
tp2576
a(S'it'
p2577
g3
F0.9767
tp2578
a(S'good'
p2579
g36
F0.9943
tp2580
a(g45
g46
F0.9983
tp2581
asI890
(lp2582
(S"don't"
p2583
g6
F0.9994
tp2584
a(S'drop'
p2585
g6
F0.9995
tp2586
a(S'it'
p2587
g3
F0.9688
tp2588
a(S'on'
p2589
g9
F0.9745
tp2590
a(S'the'
p2591
g14
F0.9994
tp2592
a(S'floor'
p2593
g17
F0.9856
tp2594
a(S'(.)'
p2595
g56
F0.2813
tp2596
a(g45
g46
F0.9714
tp2597
asI893
(lp2598
(S'mix'
p2599
g6
F0.5152
tp2600
a(S'it'
p2601
g3
F0.9508
tp2602
a(S'good'
p2603
g36
F0.9938
tp2604
a(g45
g46
F0.9984
tp2605
asI897
(lp2606
(S'easy'
p2607
g36
F0.8479
tp2608
a(S'easy'
p2609
g36
F0.972
tp2610
a(g45
g46
F0.9985
tp2611
asI900
(lp2612
(S'this'
p2613
g3
F0.6543
tp2614
a(S'how'
p2615
g24
F0.9872
tp2616
a(S'to'
p2617
g9
F0.9659
tp2618
a(S'do'
p2619
g6
F1.0
tp2620
a(S'it'
p2621
g3
F0.9905
tp2622
a(g45
g46
F0.9986
tp2623
asI903
(lp2624
(S'wait'
p2625
g6
F0.9922
tp2626
a(g165
g14
F0.994
tp2627
a(S'minute'
p2628
g17
F0.9809
tp2629
a(g45
g46
F0.9985
tp2630
asI906
(lp2631
(g2
g3
F0.9991
tp2632
a(S'did'
p2633
g6
F0.9999
tp2634
a(g165
g14
F0.9936
tp2635
a(S'scratch'
p2636
g17
F0.9974
tp2637
a(g45
g46
F0.9982
tp2638
asI910
(lp2639
(S'xxx'
p2640
g56
F0.7193
tp2641
a(S'scratch'
p2642
g17
F0.7014
tp2643
a(g63
g46
F0.9971
tp2644
asI914
(lp2645
(S'make'
p2646
g6
F0.9707
tp2647
a(S'sure'
p2648
g36
F0.9259
tp2649
a(S'you'
p2650
g3
F0.9557
tp2651
a(S'mix'
p2652
g6
F0.9719
tp2653
a(S'it'
p2654
g3
F0.9413
tp2655
a(S'good'
p2656
g36
F0.9906
tp2657
a(S'okay'
p2658
g36
F0.5123
tp2659
a(g63
g46
F0.9972
tp2660
asI918
(lp2661
(S'yep'
p2662
g61
F0.9989
tp2663
a(g61
g46
F0.997
tp2664
asI922
(lp2665
(S'mix'
p2666
g6
F0.5152
tp2667
a(S'it'
p2668
g3
F0.9697
tp2669
a(S'very'
p2670
g24
F0.9875
tp2671
a(S'very'
p2672
g24
F0.9775
tp2673
a(S'good'
p2674
g36
F0.9997
tp2675
a(S'(.)'
p2676
g75
F0.2777
tp2677
a(g45
g46
F0.9934
tp2678
asI925
(lp2679
(S'here'
p2680
g24
F0.9599
tp2681
a(S"I'll"
p2682
g139
F0.9786
tp2683
a(S'give'
p2684
g6
F0.9999
tp2685
a(S'you'
p2686
g3
F0.9954
tp2687
a(g165
g14
F0.9968
tp2688
a(S'big'
p2689
g36
F0.9806
tp2690
a(S'spoon'
p2691
g17
F0.9928
tp2692
a(S'and'
p2693
g223
F0.9968
tp2694
a(S'you'
p2695
g3
F0.9995
tp2696
a(S'can'
p2697
g6
F0.9994
tp2698
a(S'mix'
p2699
g6
F0.7396
tp2700
a(S'things'
p2701
g17
F0.9336
tp2702
a(S'better'
p2703
g24
F0.7694
tp2704
a(S'with'
p2705
g9
F0.9996
tp2706
a(g165
g14
F0.9986
tp2707
a(S'bigger'
p2708
g36
F0.9935
tp2709
a(S'spoon'
p2710
g17
F0.9953
tp2711
a(g45
g46
F0.9989
tp2712
asI932
(lp2713
(g223
g223
F0.9981
tp2714
a(g165
g14
F0.6166
tp2715
a(S':'
p2716
g46
F0.6239
tp2717
a(S'h'
p2718
g382
F0.2599
tp2719
a(S'that'
p2720
g9
F0.4765
tp2721
a(S'tastes'
p2722
g6
F0.9571
tp2723
a(S'yucka'
p2724
g382
F0.25
tp2725
a(S'@f'
p2726
g970
F0.9967
tp2727
a(S'like'
p2728
g9
F0.7498
tp2729
a(S'that'
p2730
g3
F0.9344
tp2731
a(g45
g46
F0.9988
tp2732
asI935
(lp2733
(S'mhm'
p2734
g61
F0.9761
tp2735
a(g45
g46
F0.9962
tp2736
asI938
(lp2737
(S'it'
p2738
g3
F0.9788
tp2739
a(S'tastes'
p2740
g6
F0.9956
tp2741
a(S'yucka'
p2742
g382
F0.2855
tp2743
a(S'@f'
p2744
g970
F0.9958
tp2745
a(g45
g46
F0.9959
tp2746
asI941
(lp2747
(S'wait'
p2748
g6
F0.8994
tp2749
a(g147
g46
F0.9895
tp2750
a(g165
g14
F0.7855
tp2751
a(g479
g46
F0.9814
tp2752
a(S'minute'
p2753
g17
F0.6853
tp2754
a(S'now'
p2755
g24
F0.9915
tp2756
a(g45
g46
F0.9985
tp2757
asI944
(lp2758
(S'see'
p2759
g6
F0.973
tp2760
a(S"you're"
p2761
g139
F0.9898
tp2762
a(S'not'
p2763
g24
F0.9982
tp2764
a(S'getting'
p2765
g6
F0.9999
tp2766
a(S'it'
p2767
g3
F0.9841
tp2768
a(S'all'
p2769
g14
F0.4001
tp2770
a(g45
g46
F0.9963
tp2771
asI948
(lp2772
(S'can'
p2773
g6
F0.9938
tp2774
a(g2
g3
F0.9992
tp2775
a(S'do'
p2776
g6
F1.0
tp2777
a(S'it'
p2778
g3
F0.9825
tp2779
a(g63
g46
F0.999
tp2780
asI952
(lp2781
(S'yes'
p2782
g61
F0.9796
tp2783
a(S'honey'
p2784
g17
F0.8603
tp2785
a(g45
g46
F0.9984
tp2786
asI955
(lp2787
(S'wait'
p2788
g6
F0.9922
tp2789
a(g165
g14
F0.994
tp2790
a(S'minute'
p2791
g17
F0.9809
tp2792
a(g45
g46
F0.9985
tp2793
asI958
(lp2794
(S'see'
p2795
g6
F0.9939
tp2796
a(S'it'
p2797
g3
F0.833
tp2798
a(S'all'
p2799
g14
F0.5154
tp2800
a(S'on'
p2801
g9
F0.9956
tp2802
a(S'the'
p2803
g14
F0.9996
tp2804
a(S'sides'
p2805
g17
F0.9972
tp2806
a(g63
g46
F0.9981
tp2807
asI962
(lp2808
(S'xxx'
p2809
g56
F0.6759
tp2810
a(S'give'
p2811
g6
F0.9986
tp2812
a(S'it'
p2813
g3
F0.9875
tp2814
a(S'to'
p2815
g9
F0.9941
tp2816
a(S'you'
p2817
g3
F0.9983
tp2818
a(S'in'
p2819
g9
F0.9664
tp2820
a(S'one'
p2821
g33
F0.9478
tp2822
a(S'second'
p2823
g36
F0.77
tp2824
a(S'you'
p2825
g3
F0.9973
tp2826
a(S'can'
p2827
g6
F0.9994
tp2828
a(S'mix'
p2829
g6
F0.9493
tp2830
a(S'it'
p2831
g3
F0.9618
tp2832
a(g45
g46
F0.9986
tp2833
asI967
(lp2834
(S'le(t'
p2835
g6
F0.4475
tp2836
a(g479
g46
F0.9946
tp2837
a(S'me'
p2838
g3
F0.9972
tp2839
a(S'just'
p2840
g24
F0.9998
tp2841
a(S'get'
p2842
g6
F0.9997
tp2843
a(S'the'
p2844
g14
F0.9995
tp2845
a(S'sides'
p2846
g17
F0.9931
tp2847
a(S'(.)'
p2848
g382
F0.3664
tp2849
a(g45
g46
F0.9932
tp2850
asI970
(lp2851
(S'did'
p2852
g6
F0.9986
tp2853
a(S'you'
p2854
g3
F0.9992
tp2855
a(S'used'
p2856
g6
F0.9861
tp2857
a(S'to'
p2858
g9
F0.9936
tp2859
a(S'make'
p2860
g6
F0.9992
tp2861
a(S'this'
p2862
g14
F0.601
tp2863
a(S'in'
p2864
g9
F0.9713
tp2865
a(S'school'
p2866
g17
F0.9972
tp2867
a(g63
g46
F0.9981
tp2868
asI976
(lp2869
(S'hunhunh'
p2870
g61
F0.4147
tp2871
a(g45
g46
F0.9969
tp2872
asI979
(lp2873
(S'xxx'
p2874
g56
F0.4267
tp2875
a(S'you'
p2876
g3
F0.9983
tp2877
a(S'made'
p2878
g6
F0.9971
tp2879
a(S'cornbread'
p2880
g17
F0.9936
tp2881
a(g61
g46
F0.9991
tp2882
asI982
(lp2883
(S'Miss'
p2884
g75
F0.5793
tp2885
a(S'Rand'
p2886
g75
F0.9996
tp2887
a(S'used'
p2888
g6
F0.949
tp2889
a(S'to'
p2890
g9
F0.9936
tp2891
a(S'make'
p2892
g6
F0.9998
tp2893
a(S'it'
p2894
g3
F0.7965
tp2895
a(g45
g46
F0.9989
tp2896
asI985
(lp2897
(S"don't"
p2898
g6
F0.9999
tp2899
a(S'you'
p2900
g3
F0.9974
tp2901
a(g147
g46
F0.9915
tp2902
a(S're)member'
p2903
g6
F0.9823
tp2904
a(S'Miss'
p2905
g75
F0.7865
tp2906
a(S'Rand'
p2907
g75
F0.9998
tp2908
a(S'making'
p2909
g6
F0.9929
tp2910
a(S'cornbread'
p2911
g17
F0.9987
tp2912
a(S'in'
p2913
g9
F0.9974
tp2914
a(S'school'
p2915
g17
F0.996
tp2916
a(g63
g46
F0.998
tp2917
asI991
(lp2918
(S'she'
p2919
g3
F0.9889
tp2920
a(S'[/]'
p2921
g382
F0.2635
tp2922
a(g178
g179
F0.9569
tp2923
a(S'she'
p2924
g3
F0.9907
tp2925
a(S'[/]'
p2926
g382
F0.2957
tp2927
a(g185
g382
F0.4487
tp2928
a(g93
g46
F0.899
tp2929
a(g185
g56
F0.4567
tp2930
a(g96
g46
F0.8291
tp2931
a(g45
g46
F0.9959
tp2932
asI992
(lp2933
(S'now'
p2934
g24
F0.9839
tp2935
a(g93
g46
F0.9887
tp2936
a(g178
g179
F0.9843
tp2937
a(g96
g46
F0.9916
tp2938
a(S'you'
p2939
g3
F0.998
tp2940
a(S'got'
p2941
g6
F0.9994
tp2942
a(S'ta'
p2943
g9
F0.9696
tp2944
a(S'make'
p2945
g6
F0.9441
tp2946
a(S'sure'
p2947
g36
F0.8652
tp2948
a(S'you'
p2949
g3
F0.9972
tp2950
a(S'go'
p2951
g6
F0.9987
tp2952
a(S'around'
p2953
g24
F0.804
tp2954
a(g45
g46
F0.9979
tp2955
asI997
(lp2956
(S"don't"
p2957
g6
F0.9989
tp2958
a(S'go'
p2959
g6
F0.9996
tp2960
a(S'back'
p2961
g24
F0.9845
tp2962
a(S'and'
p2963
g223
F0.9983
tp2964
a(S'forth'
p2965
g24
F0.6914
tp2966
a(S'(.)'
p2967
g75
F0.2582
tp2968
a(g45
g46
F0.9934
tp2969
asI1000
(lp2970
(S'what'
p2971
g3
F0.9835
tp2972
a(S'are'
p2973
g6
F0.9978
tp2974
a(S'you'
p2975
g3
F0.9994
tp2976
a(S'making'
p2977
g6
F0.9975
tp2978
a(g63
g46
F0.997
tp2979
asI1004
(lp2980
(S'you'
p2981
g3
F0.9954
tp2982
a(S'making'
p2983
g6
F0.9999
tp2984
a(g165
g14
F0.9941
tp2985
a(S'mess'
p2986
g17
F0.9962
tp2987
a(S'or'
p2988
g223
F0.9754
tp2989
a(S'are'
p2990
g6
F0.9987
tp2991
a(S'you'
p2992
g3
F0.9993
tp2993
a(S'making'
p2994
g6
F0.9992
tp2995
a(S'cornbread'
p2996
g17
F0.9991
tp2997
a(g63
g46
F0.9977
tp2998
asI1011
(lp2999
(S'cornbread'
p3000
g17
F0.9915
tp3001
a(g45
g46
F0.9983
tp3002
asI1014
(lp3003
(S'oh'
p3004
g61
F0.9969
tp3005
a(S'(.)'
p3006
g61
F0.4645
tp3007
a(g45
g46
F0.9973
tp3008
asI1017
(lp3009
(S'sleeves'
p3010
g17
F0.8715
tp3011
a(S'sleeves'
p3012
g17
F0.989
tp3013
a(g414
g382
F0.41
tp3014
a(S'...'
p3015
g179
F0.6127
tp3016
asI1021
(lp3017
(S"it's"
p3018
g139
F0.9961
tp3019
a(S'getting'
p3020
g6
F0.9965
tp3021
a(S'there'
p3022
g24
F0.8185
tp3023
a(g45
g46
F0.9982
tp3024
asI1024
(lp3025
(S'is'
p3026
g6
F0.9993
tp3027
a(S'it'
p3028
g3
F0.9987
tp3029
a(S'getting'
p3030
g6
F0.9998
tp3031
a(S'there'
p3032
g24
F0.8948
tp3033
a(g63
g46
F0.9983
tp3034
asI1028
(lp3035
(S'yep'
p3036
g61
F0.9989
tp3037
a(g61
g46
F0.997
tp3038
asI1031
(lp3039
(S'is'
p3040
g6
F0.9993
tp3041
a(S'it'
p3042
g3
F0.9798
tp3043
a(S'hard'
p3044
g36
F0.6291
tp3045
a(S'to'
p3046
g9
F0.9938
tp3047
a(S'do'
p3048
g6
F0.9993
tp3049
a(g63
g46
F0.9966
tp3050
asI1035
(lp3051
(S'yeah'
p3052
g61
F0.9986
tp3053
a(g45
g46
F0.997
tp3054
asI1038
(lp3055
(S'yeah'
p3056
g61
F0.9986
tp3057
a(g45
g46
F0.997
tp3058
asI1042
(lp3059
(S'you'
p3060
g3
F0.9969
tp3061
a(S'can'
p3062
g6
F0.9997
tp3063
a(S'[///]'
p3064
g6
F0.5391
tp3065
a(S'like'
p3066
g9
F0.8932
tp3067
a(S'this'
p3068
g3
F0.9742
tp3069
a(g45
g46
F0.9982
tp3070
asI1045
(lp3071
(S'sideway(s'
p3072
g24
F0.9017
tp3073
a(g479
g46
F0.9818
tp3074
a(S'(.)'
p3075
g75
F0.3207
tp3076
a(g45
g46
F0.9942
tp3077
asI1048
(lp3078
(S"it's"
p3079
g139
F0.9961
tp3080
a(S'blocking'
p3081
g6
F0.9986
tp3082
a(S'it'
p3083
g3
F0.9918
tp3084
a(g45
g46
F0.999
tp3085
asI1051
(lp3086
(S'huh'
p3087
g61
F0.9936
tp3088
a(g63
g46
F0.9967
tp3089
asI1055
(lp3090
(S'these'
p3091
g14
F0.5444
tp3092
a(S'are'
p3093
g6
F0.8927
tp3094
a(S'lumps'
p3095
g17
F0.9629
tp3096
a(S'in'
p3097
g9
F0.9978
tp3098
a(S'it'
p3099
g3
F0.9938
tp3100
a(g61
g46
F0.9989
tp3101
asI1059
(lp3102
(S'yeah'
p3103
g61
F0.9958
tp3104
a(S'well'
p3105
g61
F0.6518
tp3106
a(S'keep'
p3107
g6
F0.921
tp3108
a(S'on'
p3109
g9
F0.8696
tp3110
a(S'stirring'
p3111
g6
F0.9666
tp3112
a(S'it'
p3113
g3
F0.9852
tp3114
a(S'make'
p3115
g6
F0.9967
tp3116
a(S'sure'
p3117
g36
F0.9542
tp3118
a(S'the'
p3119
g14
F0.9993
tp3120
a(S'lumps'
p3121
g17
F0.9936
tp3122
a(S'disappear'
p3123
g6
F0.9238
tp3124
a(S'okay'
p3125
g36
F0.5496
tp3126
a(g63
g46
F0.9965
tp3127
asI1067
(lp3128
(S'why'
p3129
g24
F0.9274
tp3130
a(S'these'
p3131
g14
F0.976
tp3132
a(S'lumps'
p3133
g17
F0.9966
tp3134
a(S'in'
p3135
g9
F0.9978
tp3136
a(S'it'
p3137
g3
F0.9921
tp3138
a(g63
g46
F0.9987
tp3139
asI1071
(lp3140
(S'yeah'
p3141
g61
F0.9986
tp3142
a(g45
g46
F0.997
tp3143
asI1074
(lp3144
(S'why'
p3145
g24
F0.9265
tp3146
a(g93
g46
F0.974
tp3147
a(g61
g46
F0.9842
tp3148
a(g96
g46
F0.95
tp3149
a(S'(.)'
p3150
g56
F0.3812
tp3151
a(g63
g46
F0.9618
tp3152
asI1078
(lp3153
(S'wh(y'
p3154
g24
F0.7761
tp3155
a(g479
g46
F0.9742
tp3156
a(S'+/'
p3157
g75
F0.3229
tp3158
a(g45
g46
F0.9943
tp3159
asI1081
(lp3160
(g147
g46
F0.9736
tp3161
a(S'be)cause'
p3162
g9
F0.9881
tp3163
a(S'sometimes'
p3164
g24
F0.9705
tp3165
a(S'when'
p3166
g24
F0.967
tp3167
a(S'the'
p3168
g14
F0.9991
tp3169
a(S'corn'
p3170
g17
F0.9982
tp3171
a(g178
g179
F0.6851
tp3172
a(S'brea(d)'
p3173
g17
F0.9882
tp3174
a(g185
g382
F0.3964
tp3175
a(S'[/]'
p3176
g382
F0.3247
tp3177
a(g93
g46
F0.9142
tp3178
a(g185
g56
F0.4915
tp3179
a(g96
g46
F0.7758
tp3180
a(g45
g46
F0.9977
tp3181
asI1084
(lp3182
(S'see'
p3183
g6
F0.748
tp3184
a(g93
g46
F0.9878
tp3185
a(g178
g179
F0.9843
tp3186
a(g96
g46
F0.9855
tp3187
a(S'the'
p3188
g14
F0.9985
tp3189
a(S'lump'
p3190
g17
F0.9964
tp3191
a(S'right'
p3192
g24
F0.7057
tp3193
a(S'there'
p3194
g24
F0.9347
tp3195
a(g63
g46
F0.9984
tp3196
asI1088
(lp3197
(S'yes'
p3198
g61
F0.9925
tp3199
a(S'yes'
p3200
g61
F0.9958
tp3201
a(g45
g46
F0.9976
tp3202
asI1092
(lp3203
(S'want'
p3204
g6
F0.9993
tp3205
a(S'me'
p3206
g3
F0.9985
tp3207
a(S'to'
p3208
g9
F0.9296
tp3209
a(S'xxx'
p3210
g56
F0.6167
tp3211
a(g93
g46
F0.6588
tp3212
a(g185
g56
F0.6043
tp3213
a(g96
g46
F0.5753
tp3214
a(g63
g46
F0.996
tp3215
asI1096
(lp3216
(S'okay'
p3217
g61
F0.8969
tp3218
a(S'keep'
p3219
g6
F0.9168
tp3220
a(S'on'
p3221
g9
F0.7442
tp3222
a(S'doing'
p3223
g6
F0.9937
tp3224
a(S'it'
p3225
g3
F0.9926
tp3226
a(g45
g46
F0.9986
tp3227
asI1099
(lp3228
(S'zzz'
p3229
g382
F0.409
tp3230
a(g93
g46
F0.9451
tp3231
a(g178
g179
F0.972
tp3232
a(g96
g46
F0.9847
tp3233
a(g45
g46
F0.9962
tp3234
asI1103
(lp3235
(S'mix'
p3236
g17
F0.5706
tp3237
a(S'it'
p3238
g3
F0.9249
tp3239
a(g61
g46
F0.999
tp3240
asI1106
(lp3241
(S"you're"
p3242
g139
F0.9953
tp3243
a(S'not'
p3244
g24
F0.998
tp3245
a(S'mixing'
p3246
g6
F0.9998
tp3247
a(S'it'
p3248
g3
F0.9699
tp3249
a(g45
g46
F0.9989
tp3250
asI1109
(lp3251
(S'it'
p3252
g3
F0.996
tp3253
a(S'has'
p3254
g6
F0.9989
tp3255
a(S'got'
p3256
g6
F0.9959
tp3257
a(S'ta'
p3258
g9
F0.961
tp3259
a(S'be'
p3260
g6
F0.991
tp3261
a(S'mixed'
p3262
g36
F0.9591
tp3263
a(S'very'
p3264
g24
F0.9868
tp3265
a(S'well'
p3266
g36
F0.5982
tp3267
a(g45
g46
F0.9985
tp3268
asI1114
(lp3269
(S'now'
p3270
g24
F0.9905
tp3271
a(S"that's"
p3272
g139
F0.9812
tp3273
a(S'it'
p3274
g3
F0.9934
tp3275
a(g63
g46
F0.999
tp3276
asI1118
(lp3277
(S'keep'
p3278
g6
F0.9292
tp3279
a(S'on'
p3280
g9
F0.8823
tp3281
a(S'mixing'
p3282
g6
F0.9907
tp3283
a(S'it'
p3284
g3
F0.9666
tp3285
a(S'(.)'
p3286
g46
F0.2761
tp3287
a(g45
g46
F0.9951
tp3288
asI1121
(lp3289
(S'wait'
p3290
g6
F0.8994
tp3291
a(g147
g46
F0.988
tp3292
a(S'un)til'
p3293
g9
F0.994
tp3294
a(g2
g3
F0.9993
tp3295
a(S'get'
p3296
g6
F0.9999
tp3297
a(S'here'
p3298
g24
F0.8345
tp3299
a(g45
g46
F0.9985
tp3300
asI1124
(lp3301
(S'keep'
p3302
g6
F0.9292
tp3303
a(S'on'
p3304
g9
F0.8823
tp3305
a(S'mixing'
p3306
g6
F0.9882
tp3307
a(S'it'
p3308
g3
F0.9699
tp3309
a(g45
g46
F0.9989
tp3310
asI1127
(lp3311
(S'xxx'
p3312
g56
F0.5791
tp3313
a(S'now'
p3314
g24
F0.9868
tp3315
a(g2
g3
F0.999
tp3316
a(S'got'
p3317
g6
F0.9998
tp3318
a(S'ta'
p3319
g9
F0.9696
tp3320
a(S'put'
p3321
g6
F0.9624
tp3322
a(S'some'
p3323
g14
F0.9937
tp3324
a(S'butter'
p3325
g17
F0.9855
tp3326
a(S'on'
p3327
g9
F0.9977
tp3328
a(S'that'
p3329
g3
F0.7025
tp3330
a(g414
g382
F0.3664
tp3331
a(S'...'
p3332
g179
F0.8317
tp3333
asI1132
(lp3334
(S'on'
p3335
g9
F0.9931
tp3336
a(S'the'
p3337
g14
F0.9946
tp3338
a(S'&-uh'
p3339
g382
F0.5635
tp3340
a(g414
g382
F0.7523
tp3341
a(S'...'
p3342
g179
F0.6673
tp3343
asI1135
(lp3344
(S'this'
p3345
g3
F0.8041
tp3346
a(S'here'
p3347
g24
F0.9219
tp3348
a(g45
g46
F0.9986
tp3349
asI1138
(lp3350
(S'on'
p3351
g9
F0.9424
tp3352
a(g178
g179
F0.5914
tp3353
a(S'the'
p3354
g14
F0.9992
tp3355
a(S'little'
p3356
g36
F0.9853
tp3357
a(g185
g46
F0.2964
tp3358
a(S'[//]'
p3359
g46
F0.2462
tp3360
a(S'the'
p3361
g14
F0.9919
tp3362
a(S'&-um'
p3363
g382
F0.6978
tp3364
a(g414
g382
F0.6843
tp3365
a(S'...'
p3366
g179
F0.706
tp3367
asI1141
(lp3368
(S"you're"
p3369
g139
F0.9791
tp3370
a(S'the'
p3371
g14
F0.9955
tp3372
a(S'one'
p3373
g33
F0.8601
tp3374
a(g147
g46
F0.9801
tp3375
a(S"who')s"
p3376
g139
F0.8956
tp3377
a(S'mixing'
p3378
g6
F0.9988
tp3379
a(S'it'
p3380
g3
F0.973
tp3381
a(g45
g46
F0.999
tp3382
asI1146
(lp3383
(S'keep'
p3384
g6
F0.9292
tp3385
a(S'on'
p3386
g9
F0.8823
tp3387
a(S'mixing'
p3388
g6
F0.9907
tp3389
a(S'it'
p3390
g3
F0.9648
tp3391
a(S'then'
p3392
g24
F0.9846
tp3393
a(S'(.)'
p3394
g75
F0.3901
tp3395
a(g45
g46
F0.9934
tp3396
asI1149
(lp3397
(S'this'
p3398
g3
F0.8047
tp3399
a(S'here'
p3400
g24
F0.9049
tp3401
a(S'you'
p3402
g3
F0.9997
tp3403
a(S'done'
p3404
g6
F0.9985
tp3405
a(S'this'
p3406
g14
F0.8195
tp3407
a(S'okay'
p3408
g36
F0.7021
tp3409
a(g63
g46
F0.997
tp3410
asI1154
(lp3411
(S'and'
p3412
g223
F0.9994
tp3413
a(g2
g3
F0.9991
tp3414
a(S'do'
p3415
g6
F1.0
tp3416
a(S'this'
p3417
g14
F0.5879
tp3418
a(S'okay'
p3419
g36
F0.5732
tp3420
a(g63
g46
F0.9965
tp3421
asI1159
(lp3422
(S'do'
p3423
g6
F0.9765
tp3424
a(S'what'
p3425
g3
F0.9913
tp3426
a(g63
g46
F0.9924
tp3427
asI1163
(lp3428
(S'that'
p3429
g3
F0.8245
tp3430
a(g45
g46
F0.9984
tp3431
asI1166
(lp3432
(g2
g3
F0.9985
tp3433
a(S'know'
p3434
g6
F0.9983
tp3435
a(g45
g46
F0.9977
tp3436
asI1170
(lp3437
(S'Mama'
p3438
g17
F0.6166
tp3439
a(S'wants'
p3440
g6
F0.9986
tp3441
a(S'to'
p3442
g9
F0.9871
tp3443
a(S'pour'
p3444
g6
F0.9984
tp3445
a(S'it'
p3446
g3
F0.9881
tp3447
a(S'in'
p3448
g9
F0.9699
tp3449
a(S'this'
p3450
g3
F0.8225
tp3451
a(g45
g46
F0.9986
tp3452
asI1175
(lp3453
(S'okay'
p3454
g61
F0.9573
tp3455
a(S'(.)'
p3456
g75
F0.3587
tp3457
a(g63
g46
F0.9944
tp3458
asI1179
(lp3459
(S'okay'
p3460
g61
F0.9469
tp3461
a(S'you'
p3462
g3
F0.9984
tp3463
a(S'can'
p3464
g6
F0.9997
tp3465
a(S'keep'
p3466
g6
F0.9969
tp3467
a(S'on'
p3468
g9
F0.8779
tp3469
a(S'mixing'
p3470
g6
F0.9892
tp3471
a(S'it'
p3472
g3
F0.973
tp3473
a(g45
g46
F0.999
tp3474
asI1183
(lp3475
(S'make'
p3476
g6
F0.9707
tp3477
a(S'sure'
p3478
g36
F0.9748
tp3479
a(S"it's"
p3480
g139
F0.9963
tp3481
a(S'mixed'
p3482
g36
F0.9723
tp3483
a(S'well'
p3484
g24
F0.4148
tp3485
a(g93
g46
F0.9836
tp3486
a(g61
g46
F0.9901
tp3487
a(g96
g46
F0.9519
tp3488
a(S'(.)'
p3489
g382
F0.2601
tp3490
a(g45
g46
F0.99
tp3491
asI1186
(lp3492
(S"you're"
p3493
g139
F0.9894
tp3494
a(S'gonna'
p3495
g6
F0.995
tp3496
a(S'have'
p3497
g6
F0.9999
tp3498
a(S'some'
p3499
g14
F0.9981
tp3500
a(S'liver'
p3501
g17
F0.9845
tp3502
a(S'and'
p3503
g223
F0.9981
tp3504
a(S'pepper'
p3505
g17
F0.5726
tp3506
a(S'and'
p3507
g223
F0.9985
tp3508
a(S'onions'
p3509
g17
F0.9734
tp3510
a(S'for'
p3511
g9
F0.9997
tp3512
a(S'supper'
p3513
g17
F0.9517
tp3514
a(g63
g46
F0.9958
tp3515
asI1192
(lp3516
(S'yeah'
p3517
g61
F0.9946
tp3518
a(S'with'
p3519
g9
F0.9982
tp3520
a(S'this'
p3521
g3
F0.8903
tp3522
a(g45
g46
F0.9987
tp3523
asI1195
(lp3524
(S'yeah'
p3525
g61
F0.9973
tp3526
a(S'(.)'
p3527
g75
F0.2739
tp3528
a(g45
g46
F0.9933
tp3529
asI1198
(lp3530
(S'with'
p3531
g9
F0.9924
tp3532
a(S'that'
p3533
g3
F0.8796
tp3534
a(g63
g46
F0.9981
tp3535
asI1202
(lp3536
(S'once'
p3537
g24
F0.9457
tp3538
a(S"that's"
p3539
g139
F0.9708
tp3540
a(S'all'
p3541
g14
F0.666
tp3542
a(S'cooked'
p3543
g6
F0.944
tp3544
a(S'then'
p3545
g24
F0.932
tp3546
a(S"you're"
p3547
g139
F0.992
tp3548
a(S'gonna'
p3549
g6
F0.9986
tp3550
a(S'some'
p3551
g14
F0.8511
tp3552
a(S'of'
p3553
g9
F0.9903
tp3554
a(S'that'
p3555
g3
F0.8714
tp3556
a(S'with'
p3557
g9
F0.9988
tp3558
a(S'your'
p3559
g14
F0.9978
tp3560
a(S'liver'
p3561
g17
F0.9977
tp3562
a(S'and'
p3563
g223
F0.9982
tp3564
a(S'peppers'
p3565
g17
F0.9887
tp3566
a(g63
g46
F0.9983
tp3567
asI1210
(lp3568
(S'yeah'
p3569
g61
F0.9986
tp3570
a(g45
g46
F0.997
tp3571
asI1213
(lp3572
(S'and'
p3573
g223
F0.9988
tp3574
a(S'potatoes'
p3575
g17
F0.9957
tp3576
a(g45
g46
F0.9985
tp3577
asI1216
(lp3578
(S'what'
p3579
g3
F0.9931
tp3580
a(S'do'
p3581
g6
F0.9993
tp3582
a(S'you'
p3583
g3
F0.9997
tp3584
a(S'want'
p3585
g6
F0.9997
tp3586
a(S'for'
p3587
g9
F0.999
tp3588
a(g165
g14
F0.9964
tp3589
a(S'vegetable'
p3590
g17
F0.994
tp3591
a(g63
g46
F0.9977
tp3592
asI1221
(lp3593
(S'do'
p3594
g6
F0.9985
tp3595
a(S'you'
p3596
g3
F0.9989
tp3597
a(S'like'
p3598
g6
F0.8017
tp3599
a(S'beets'
p3600
g17
F0.9934
tp3601
a(g63
g46
F0.9981
tp3602
asI1225
(lp3603
(S'yeah'
p3604
g61
F0.9983
tp3605
a(S'that'
p3606
g3
F0.8914
tp3607
a(g93
g46
F0.9875
tp3608
a(g61
g46
F0.9922
tp3609
a(g96
g46
F0.9827
tp3610
a(S'there'
p3611
g24
F0.7392
tp3612
a(g45
g46
F0.998
tp3613
asI1228
(lp3614
(S'yeah'
p3615
g61
F0.9983
tp3616
a(S'that'
p3617
g3
F0.8914
tp3618
a(g93
g46
F0.9875
tp3619
a(g61
g46
F0.9922
tp3620
a(g96
g46
F0.9827
tp3621
a(S'there'
p3622
g24
F0.7804
tp3623
a(g63
g46
F0.998
tp3624
asI1232
(lp3625
(g178
g179
F0.9001
tp3626
a(S'you'
p3627
g3
F0.9982
tp3628
a(S'got'
p3629
g6
F0.9996
tp3630
a(S'ta'
p3631
g9
F0.9718
tp3632
a(S'make'
p3633
g6
F0.9441
tp3634
a(S'sure'
p3635
g36
F0.9278
tp3636
a(S'stir'
p3637
g17
F0.8148
tp3638
a(S'this'
p3639
g3
F0.5844
tp3640
a(g185
g56
F0.4505
tp3641
a(g93
g56
F0.5345
tp3642
a(g185
g56
F0.9597
tp3643
a(g96
g46
F0.6916
tp3644
a(g45
g46
F0.9952
tp3645
asI1235
(lp3646
(g178
g179
F0.9351
tp3647
a(S'watch'
p3648
g6
F0.9973
tp3649
a(S'it'
p3650
g3
F0.9941
tp3651
a(g185
g56
F0.4803
tp3652
a(g93
g56
F0.5345
tp3653
a(g185
g56
F0.9749
tp3654
a(g96
g46
F0.7541
tp3655
a(g45
g46
F0.9962
tp3656
asI1238
(lp3657
(S'zzz'
p3658
g382
F0.409
tp3659
a(g93
g46
F0.9451
tp3660
a(g178
g179
F0.972
tp3661
a(g96
g46
F0.9847
tp3662
a(g45
g46
F0.9962
tp3663
asI1243
(lp3664
(S'why'
p3665
g24
F0.9229
tp3666
a(g45
g46
F0.9955
tp3667
asI1246
(lp3668
(S'you'
p3669
g3
F0.9766
tp3670
a(S'all'
p3671
g14
F0.9341
tp3672
a(S'done'
p3673
g6
F0.8227
tp3674
a(S'doing'
p3675
g6
F0.9992
tp3676
a(S'it'
p3677
g3
F0.9862
tp3678
a(g63
g46
F0.9987
tp3679
asI1250
(lp3680
(S'yeah'
p3681
g61
F0.9986
tp3682
a(g45
g46
F0.997
tp3683
asI1254
(lp3684
(S'was'
p3685
g6
F0.9964
tp3686
a(S'that'
p3687
g14
F0.7721
tp3688
a(S'hard'
p3689
g36
F0.7267
tp3690
a(S'to'
p3691
g9
F0.9948
tp3692
a(S'do'
p3693
g6
F0.9993
tp3694
a(S'or'
p3695
g223
F0.9857
tp3696
a(S'what'
p3697
g3
F0.9842
tp3698
a(g63
g46
F0.9945
tp3699
asI1260
(lp3700
(S'yeah'
p3701
g61
F0.9986
tp3702
a(g45
g46
F0.997
tp3703
asI1264
(lp3704
(S'my'
p3705
g14
F0.9977
tp3706
a(S"feet's"
p3707
g17
F0.5629
tp3708
a(S'sound'
p3709
g6
F0.8695
tp3710
a(S'asleep'
p3711
g24
F0.84
tp3712
a(g45
g46
F0.9987
tp3713
asI1267
(lp3714
(S'oh'
p3715
g61
F0.9975
tp3716
a(S'yeah'
p3717
g61
F0.9991
tp3718
a(S"that's"
p3719
g139
F0.9897
tp3720
a(g147
g46
F0.9895
tp3721
a(S'be)cause'
p3722
g9
F0.9978
tp3723
a(S"you're"
p3724
g139
F0.9823
tp3725
a(S'kneeling'
p3726
g6
F0.9962
tp3727
a(S'on'
p3728
g9
F0.9497
tp3729
a(S'them'
p3730
g14
F0.8412
tp3731
a(S'hon(ey'
p3732
g17
F0.9612
tp3733
a(g479
g46
F0.9905
tp3734
a(g45
g46
F0.9933
tp3735
asI1274
(lp3736
(S'you'
p3737
g3
F0.998
tp3738
a(S'think'
p3739
g6
F0.9999
tp3740
a(S'you'
p3741
g3
F0.9993
tp3742
a(S'can'
p3743
g6
F0.9997
tp3744
a(S'wake'
p3745
g6
F0.9997
tp3746
a(S'them'
p3747
g3
F0.989
tp3748
a(S'up'
p3749
g43
F0.845
tp3750
a(g63
g46
F0.9978
tp3751
asI1279
(lp3752
(S'no'
p3753
g61
F0.9704
tp3754
a(g45
g46
F0.9989
tp3755
asI1282
(lp3756
(S'no'
p3757
g61
F0.9596
tp3758
a(g63
g46
F0.9962
tp3759
asI1286
(lp3760
(S'you'
p3761
g3
F0.9979
tp3762
a(S'been'
p3763
g6
F0.9987
tp3764
a(S'being'
p3765
g6
F0.9997
tp3766
a(g165
g14
F0.9937
tp3767
a(S'very'
p3768
g24
F0.9911
tp3769
a(S'good'
p3770
g36
F0.9999
tp3771
a(S'boy'
p3772
g17
F0.9979
tp3773
a(S'today'
p3774
g17
F0.9929
tp3775
a(g63
g46
F0.9982
tp3776
asI1292
(lp3777
(S'yep'
p3778
g61
F0.9972
tp3779
a(g45
g46
F0.9971
tp3780
asI1297
(lp3781
(g178
g179
F0.9526
tp3782
a(g2
g3
F0.9976
tp3783
a(S'being'
p3784
g6
F0.9997
tp3785
a(g185
g56
F0.5324
tp3786
a(g93
g56
F0.535
tp3787
a(g178
g179
F0.8293
tp3788
a(g96
g46
F0.9284
tp3789
a(g93
g46
F0.9615
tp3790
a(g185
g56
F0.4438
tp3791
a(g96
g46
F0.8554
tp3792
a(S'so'
p3793
g24
F0.7465
tp3794
a(S'patient'
p3795
g36
F0.9323
tp3796
a(g45
g46
F0.9976
tp3797
asI1300
(lp3798
(g178
g179
F0.9307
tp3799
a(S'they'
p3800
g3
F0.9742
tp3801
a(S"didn't>"
p3802
g6
F0.983
tp3803
a(g93
g46
F0.9697
tp3804
a(g178
g179
F0.9635
tp3805
a(g96
g46
F0.9284
tp3806
a(g93
g46
F0.9615
tp3807
a(g185
g56
F0.4438
tp3808
a(g96
g46
F0.7918
tp3809
a(S'have'
p3810
g6
F0.9988
tp3811
a(S'that'
p3812
g14
F0.7997
tp3813
a(S'fire'
p3814
g17
F0.8621
tp3815
a(S'truck'
p3816
g17
F0.9986
tp3817
a(g45
g46
F0.9991
tp3818
asI1304
(lp3819
(S'yeah'
p3820
g61
F0.9951
tp3821
a(g93
g46
F0.9843
tp3822
a(g178
g179
F0.972
tp3823
a(g96
g46
F0.9847
tp3824
a(g45
g46
F0.9962
tp3825
asI1307
(lp3826
(g178
g179
F0.9167
tp3827
a(S'so'
p3828
g9
F0.7678
tp3829
a(S'what'
p3830
g3
F0.9958
tp3831
a(g185
g56
F0.5714
tp3832
a(g93
g56
F0.535
tp3833
a(g178
g179
F0.6902
tp3834
a(g96
g46
F0.9731
tp3835
a(g63
g46
F0.996
tp3836
asI1311
(lp3837
(S'they'
p3838
g3
F0.9897
tp3839
a(S"didn't"
p3840
g6
F0.9999
tp3841
a(g93
g46
F0.9697
tp3842
a(g61
g46
F0.9911
tp3843
a(g96
g46
F0.9608
tp3844
a(g63
g46
F0.995
tp3845
asI1315
(lp3846
(S'oh'
p3847
g61
F0.9903
tp3848
a(S'my'
p3849
g14
F0.8881
tp3850
a(S'god'
p3851
g17
F0.7357
tp3852
a(g45
g46
F0.9977
tp3853
asI1318
(lp3854
(S"you've"
p3855
g139
F0.9605
tp3856
a(S'been'
p3857
g6
F0.9945
tp3858
a(S'waiting'
p3859
g6
F0.9985
tp3860
a(S'so'
p3861
g9
F0.7817
tp3862
a(S'what'
p3863
g3
F0.9908
tp3864
a(S'patiently'
p3865
g24
F0.9611
tp3866
a(g63
g46
F0.998
tp3867
asI1323
(lp3868
(S'for'
p3869
g9
F0.9983
tp3870
a(S'that'
p3871
g14
F0.8863
tp3872
a(S'fire'
p3873
g17
F0.8313
tp3874
a(S'truck'
p3875
g17
F0.9968
tp3876
a(S'+/'
p3877
g46
F0.2914
tp3878
a(g45
g46
F0.9953
tp3879
asI1326
(lp3880
(S'but'
p3881
g223
F0.9946
tp3882
a(S"you've"
p3883
g139
F0.9501
tp3884
a(S'been'
p3885
g6
F0.9926
tp3886
a(S'waiting'
p3887
g6
F0.9986
tp3888
a(S'patiently'
p3889
g24
F0.982
tp3890
a(g63
g46
F0.9976
tp3891
asI1331
(lp3892
(S'well'
p3893
g61
F0.8726
tp3894
a(S'(.)'
p3895
g46
F0.3118
tp3896
a(S'when'
p3897
g24
F0.9898
tp3898
a(g2
g3
F0.9978
tp3899
a(S'get'
p3900
g6
F1.0
tp3901
a(S'some'
p3902
g14
F0.9923
tp3903
a(S'money'
p3904
g17
F0.9749
tp3905
a(S'(.)'
p3906
g56
F0.2928
tp3907
a(g2
g3
F0.9957
tp3908
a(S'can'
p3909
g6
F0.9998
tp3910
a(S'get'
p3911
g6
F1.0
tp3912
a(S'you'
p3913
g3
F0.9988
tp3914
a(S'that'
p3915
g14
F0.9026
tp3916
a(S'big'
p3917
g36
F0.9411
tp3918
a(S'fire'
p3919
g17
F0.9604
tp3920
a(S'that'
p3921
g9
F0.992
tp3922
a(S'you'
p3923
g3
F0.9998
tp3924
a(S'want'
p3925
g6
F0.9985
tp3926
a(g45
g46
F0.9976
tp3927
asI1338
(lp3928
(S'maybe'
p3929
g24
F0.966
tp3930
a(g45
g46
F0.9966
tp3931
asI1342
(lp3932
(S'and'
p3933
g223
F0.9994
tp3934
a(S'it'
p3935
g3
F0.9974
tp3936
a(S'comes'
p3937
g6
F0.9991
tp3938
a(S'apart'
p3939
g24
F0.4189
tp3940
a(S'too'
p3941
g24
F0.9814
tp3942
a(g93
g46
F0.9732
tp3943
a(g185
g56
F0.5886
tp3944
a(g96
g46
F0.8062
tp3945
a(g45
g46
F0.9969
tp3946
asI1345
(lp3947
(g178
g179
F0.9768
tp3948
a(S'oh'
p3949
g61
F0.9986
tp3950
a(S'yeah'
p3951
g61
F0.9984
tp3952
a(g185
g56
F0.5827
tp3953
a(g93
g56
F0.535
tp3954
a(g178
g179
F0.6902
tp3955
a(g96
g46
F0.9731
tp3956
a(g63
g46
F0.996
tp3957
asI1349
(lp3958
(S'it'
p3959
g3
F0.9954
tp3960
a(S'does'
p3961
g6
F0.9984
tp3962
a(g63
g46
F0.9974
tp3963
asI1353
(lp3964
(S'but'
p3965
g223
F0.993
tp3966
a(S'you'
p3967
g3
F0.9993
tp3968
a(S'go'
p3969
g6
F0.9938
tp3970
a(S't_t'
p3971
g56
F0.3435
tp3972
a(S'o'
p3973
g9
F0.8576
tp3974
a(S'send'
p3975
g6
F0.9831
tp3976
a(S'away'
p3977
g24
F0.9525
tp3978
a(S'for'
p3979
g9
F0.9993
tp3980
a(S'it'
p3981
g3
F0.9976
tp3982
a(g45
g46
F0.9988
tp3983
asI1357
(lp3984
(S'yeah'
p3985
g61
F0.9986
tp3986
a(g45
g46
F0.997
tp3987
asI1360
(lp3988
(S'you'
p3989
g3
F0.998
tp3990
a(S'got'
p3991
g6
F0.9993
tp3992
a(S'ta'
p3993
g9
F0.8625
tp3994
a(S'&-um'
p3995
g61
F0.4978
tp3996
a(S'[///]'
p3997
g46
F0.2986
tp3998
a(S'zzz'
p3999
g382
F0.4075
tp4000
a(g61
g46
F0.9948
tp4001
asI1365
(lp4002
(S'did'
p4003
g6
F0.9986
tp4004
a(S'you'
p4005
g3
F0.9985
tp4006
a(S'help'
p4007
g6
F0.9998
tp4008
a(S'me'
p4009
g3
F0.9973
tp4010
a(S'today'
p4011
g17
F0.7451
tp4012
a(S'+/'
p4013
g75
F0.5433
tp4014
a(g63
g46
F0.9949
tp4015
asI1369
(lp4016
(S"what's"
p4017
g139
F0.9931
tp4018
a(S'that'
p4019
g3
F0.5271
tp4020
a(S'flappin'
p4021
g6
F0.9791
tp4022
a(S'@o'
p4023
g970
F0.9966
tp4024
a(g63
g46
F0.996
tp4025
asI1373
(lp4026
(S"what's"
p4027
g139
F0.9931
tp4028
a(S'that'
p4029
g3
F0.638
tp4030
a(S'what'
p4031
g3
F0.9928
tp4032
a(g63
g46
F0.994
tp4033
asI1377
(lp4034
(S'flappin(g'
p4035
g6
F0.7327
tp4036
a(g479
g46
F0.9873
tp4037
a(g61
g46
F0.9962
tp4038
asI1380
(lp4039
(S'flattened'
p4040
g6
F0.7767
tp4041
a(g63
g46
F0.9974
tp4042
asI1384
(lp4043
(S'no'
p4044
g61
F0.7151
tp4045
a(S'like'
p4046
g9
F0.8786
tp4047
a(S'slap'
p4048
g17
F0.7223
tp4049
a(g178
g179
F0.7429
tp4050
a(S'slap'
p4051
g6
F0.5915
tp4052
a(S'slap'
p4053
g17
F0.6365
tp4054
a(g185
g56
F0.3583
tp4055
a(g93
g56
F0.5345
tp4056
a(g185
g56
F0.9577
tp4057
a(g96
g46
F0.795
tp4058
a(g45
g46
F0.9964
tp4059
asI1387
(lp4060
(g178
g179
F0.9768
tp4061
a(S'oh'
p4062
g61
F0.986
tp4063
a(S'you'
p4064
g3
F0.9975
tp4065
a(S'mean'
p4066
g6
F0.9211
tp4067
a(g185
g56
F0.5585
tp4068
a(g93
g56
F0.535
tp4069
a(g178
g179
F0.8293
tp4070
a(g96
g46
F0.9903
tp4071
a(S'slapping'
p4072
g6
F0.9928
tp4073
a(g63
g46
F0.9971
tp4074
asI1391
(lp4075
(S'yeah'
p4076
g61
F0.9986
tp4077
a(g45
g46
F0.997
tp4078
asI1394
(lp4079
(S"it's"
p4080
g139
F0.9923
tp4081
a(S'the'
p4082
g14
F0.993
tp4083
a(S'&-um'
p4084
g382
F0.6968
tp4085
a(S'(.)'
p4086
g382
F0.6744
tp4087
a(S'the'
p4088
g14
F0.9985
tp4089
a(S'stuff'
p4090
g17
F0.9993
tp4091
a(g45
g46
F0.9985
tp4092
asI1397
(lp4093
(S'the'
p4094
g14
F0.9851
tp4095
a(S'&-um'
p4096
g382
F0.3087
tp4097
a(S'cornbread'
p4098
g17
F0.994
tp4099
a(g45
g46
F0.9986
tp4100
asI1400
(lp4101
(S'is'
p4102
g6
F0.9993
tp4103
a(S'it'
p4104
g3
F0.9958
tp4105
a(S'all'
p4106
g14
F0.8895
tp4107
a(S'mixed'
p4108
g36
F0.9669
tp4109
a(S'now'
p4110
g24
F0.9931
tp4111
a(S'or'
p4112
g223
F0.9908
tp4113
a(S'what'
p4114
g3
F0.9842
tp4115
a(g63
g46
F0.9945
tp4116
asI1405
(lp4117
(S'yep'
p4118
g61
F0.9989
tp4119
a(g61
g46
F0.997
tp4120
asI1408
(lp4121
(S'do'
p4122
g6
F0.9985
tp4123
a(S'you'
p4124
g3
F0.9996
tp4125
a(S'think'
p4126
g6
F0.9993
tp4127
a(S"it's"
p4128
g139
F0.9993
tp4129
a(S'ready'
p4130
g36
F0.9839
tp4131
a(S'to'
p4132
g9
F0.9979
tp4133
a(S'go'
p4134
g6
F0.9993
tp4135
a(S'in'
p4136
g9
F0.9897
tp4137
a(S'the'
p4138
g14
F0.9993
tp4139
a(S'oven'
p4140
g17
F0.97
tp4141
a(g63
g46
F0.9987
tp4142
asI1414
(lp4143
(S'yep'
p4144
g61
F0.9972
tp4145
a(g45
g46
F0.9971
tp4146
asI1418
(lp4147
(g2
g3
F0.9982
tp4148
a(S'got'
p4149
g6
F0.9999
tp4150
a(S'my'
p4151
g14
F0.9987
tp4152
a(S'hand'
p4153
g17
F0.9983
tp4154
a(S'in'
p4155
g9
F0.9974
tp4156
a(S'it'
p4157
g3
F0.9937
tp4158
a(g45
g46
F0.9989
tp4159
asI1421
(lp4160
(S"that's"
p4161
g139
F0.9874
tp4162
a(S'alright'
p4163
g61
F0.5457
tp4164
a(g45
g46
F0.9978
tp4165
asI1424
(lp4166
(S'can'
p4167
g6
F0.999
tp4168
a(S'you'
p4169
g3
F0.9985
tp4170
a(S'wipe'
p4171
g6
F0.9995
tp4172
a(S'your'
p4173
g14
F0.9966
tp4174
a(S'hand'
p4175
g17
F0.9989
tp4176
a(g63
g46
F0.9977
tp4177
asI1428
(lp4178
(S'lick'
p4179
g6
F0.9762
tp4180
a(S'it'
p4181
g3
F0.9821
tp4182
a(S'(.)'
p4183
g46
F0.2497
tp4184
a(g45
g46
F0.9962
tp4185
asI1431
(lp4186
(S'lick'
p4187
g6
F0.972
tp4188
a(S'it'
p4189
g3
F0.9828
tp4190
a(g45
g46
F0.9987
tp4191
asI1434
(lp4192
(S'oh'
p4193
g61
F0.9941
tp4194
a(g93
g46
F0.939
tp4195
a(g61
g46
F0.9842
tp4196
a(g96
g46
F0.9857
tp4197
a(S"it's"
p4198
g139
F0.9962
tp4199
a(S'too'
p4200
g24
F0.9964
tp4201
a(S'salty'
p4202
g36
F0.9991
tp4203
a(g45
g46
F0.9986
tp4204
asI1437
(lp4205
(S'too'
p4206
g24
F0.9921
tp4207
a(S'salty'
p4208
g36
F0.999
tp4209
a(g93
g46
F0.9855
tp4210
a(g61
g46
F0.9911
tp4211
a(g96
g46
F0.9608
tp4212
a(g63
g46
F0.995
tp4213
asI1441
(lp4214
(S'maybe'
p4215
g24
F0.9646
tp4216
a(S'you'
p4217
g3
F0.9992
tp4218
a(S'put'
p4219
g6
F0.9898
tp4220
a(S'too'
p4221
g24
F0.9987
tp4222
a(S'much'
p4223
g36
F0.9151
tp4224
a(S'salt'
p4225
g17
F0.9784
tp4226
a(S'in'
p4227
g9
F0.9984
tp4228
a(S'it'
p4229
g3
F0.9935
tp4230
a(g63
g46
F0.9991
tp4231
asI1447
(lp4232
(S'you'
p4233
g3
F0.998
tp4234
a(S'think'
p4235
g6
F0.9987
tp4236
a(S'so'
p4237
g24
F0.9159
tp4238
a(g63
g46
F0.996
tp4239
asI1451
(lp4240
(S'you'
p4241
g3
F0.9859
tp4242
a(g93
g46
F0.9944
tp4243
a(g61
g46
F0.9842
tp4244
a(g96
g46
F0.9766
tp4245
a(S'did'
p4246
g6
F0.9903
tp4247
a(g61
g46
F0.9966
tp4248
asI1454
(lp4249
(g2
g3
F0.9978
tp4250
a(S"didn't"
p4251
g6
F1.0
tp4252
a(S'put'
p4253
g6
F0.9994
tp4254
a(S'the'
p4255
g14
F0.9993
tp4256
a(S'salt'
p4257
g17
F0.9665
tp4258
a(S'in'
p4259
g9
F0.9964
tp4260
a(g2
g3
F0.9987
tp4261
a(S'asked'
p4262
g6
F0.9987
tp4263
a(S'Chi'
p4264
g75
F0.9726
tp4265
a(S'to'
p4266
g9
F0.9632
tp4267
a(S'do'
p4268
g6
F1.0
tp4269
a(S'it'
p4270
g3
F0.9891
tp4271
a(g45
g46
F0.9986
tp4272
asI1459
(lp4273
(S"didn't"
p4274
g6
F0.9985
tp4275
a(g2
g3
F0.999
tp4276
a(S'ask'
p4277
g6
F0.9999
tp4278
a(S'you'
p4279
g3
F0.9988
tp4280
a(S'to'
p4281
g9
F0.9875
tp4282
a(S'put'
p4283
g6
F0.9993
tp4284
a(S'the'
p4285
g14
F0.9993
tp4286
a(S'salt'
p4287
g17
F0.9665
tp4288
a(S'in'
p4289
g9
F0.9978
tp4290
a(S'it'
p4291
g3
F0.9895
tp4292
a(g63
g46
F0.999
tp4293
asI1465
(lp4294
(S'and'
p4295
g223
F0.9989
tp4296
a(S'you'
p4297
g3
F0.9994
tp4298
a(S"did'n(t"
p4299
g6
F0.9996
tp4300
a(g479
g46
F0.9878
tp4301
a(S'[///]'
p4302
g46
F0.4055
tp4303
a(g2
g3
F0.9992
tp4304
a(S'did'
p4305
g6
F0.9992
tp4306
a(g93
g46
F0.9848
tp4307
a(g185
g56
F0.4696
tp4308
a(g96
g46
F0.795
tp4309
a(g45
g46
F0.9964
tp4310
asI1468
(lp4311
(g178
g179
F0.9374
tp4312
a(S'no'
p4313
g61
F0.7814
tp4314
a(S'it'
p4315
g3
F0.9824
tp4316
a(g185
g56
F0.4803
tp4317
a(g93
g56
F0.535
tp4318
a(g178
g179
F0.8293
tp4319
a(g96
g46
F0.9829
tp4320
a(S"ain't"
p4321
g6
F0.9606
tp4322
a(S'salty'
p4323
g36
F0.9862
tp4324
a(g93
g46
F0.9889
tp4325
a(g61
g46
F0.9914
tp4326
a(g96
g46
F0.9615
tp4327
a(g45
g46
F0.9952
tp4328
asI1471
(lp4329
(S"it's"
p4330
g139
F0.9984
tp4331
a(S'not'
p4332
g24
F0.9989
tp4333
a(S'salty'
p4334
g36
F0.983
tp4335
a(g45
g46
F0.9986
tp4336
asI1474
(lp4337
(S'will'
p4338
g6
F0.9979
tp4339
a(S'you'
p4340
g3
F0.9988
tp4341
a(S'put'
p4342
g6
F0.999
tp4343
a(S'all'
p4344
g14
F0.7682
tp4345
a(S'down'
p4346
g24
F0.7238
tp4347
a(S'here'
p4348
g24
F0.9973
tp4349
a(S'and'
p4350
g223
F0.9963
tp4351
a(S'eat'
p4352
g6
F0.9983
tp4353
a(S'it'
p4354
g3
F0.9797
tp4355
a(g63
g46
F0.9988
tp4356
asI1480
(lp4357
(g2
g3
F0.9977
tp4358
a(S'can'
p4359
g6
F0.9999
tp4360
a(S'taste'
p4361
g6
F0.9864
tp4362
a(S'sugar'
p4363
g17
F0.9781
tp4364
a(S'(.)'
p4365
g382
F0.2482
tp4366
a(g45
g46
F0.9901
tp4367
asI1483
(lp4368
(S"that's"
p4369
g139
F0.9949
tp4370
a(S'what'
p4371
g3
F0.9854
tp4372
a(g2
g3
F0.9972
tp4373
a(g93
g46
F0.9699
tp4374
a(g61
g46
F0.9901
tp4375
a(g96
g46
F0.9809
tp4376
a(S'taste'
p4377
g6
F0.8337
tp4378
a(S'(.)'
p4379
g56
F0.261
tp4380
a(g45
g46
F0.9756
tp4381
asI1486
(lp4382
(S'is'
p4383
g6
F0.9981
tp4384
a(S'that'
p4385
g3
F0.8927
tp4386
a(S'what'
p4387
g3
F0.9846
tp4388
a(g2
g3
F0.9968
tp4389
a(S'taste'
p4390
g6
F0.9896
tp4391
a(g63
g46
F0.9955
tp4392
asI1490
(lp4393
(S'sugar'
p4394
g17
F0.9932
tp4395
a(g45
g46
F0.9982
tp4396
asI1493
(lp4397
(g2
g3
F0.9983
tp4398
a(S'was'
p4399
g6
F0.9997
tp4400
a(S'gonna'
p4401
g6
F0.9879
tp4402
a(S'say'
p4403
g6
F0.9976
tp4404
a(S'taste'
p4405
g6
F0.9044
tp4406
a(S'like'
p4407
g9
F0.9269
tp4408
a(S'that'
p4409
g3
F0.896
tp4410
a(g178
g179
F0.7623
tp4411
a(S'and'
p4412
g223
F0.9994
tp4413
a(g2
g3
F0.9983
tp4414
a(g185
g56
F0.3467
tp4415
a(g93
g56
F0.5345
tp4416
a(g185
g56
F0.9532
tp4417
a(g96
g56
F0.5163
tp4418
a(S'xxx'
p4419
g56
F0.973
tp4420
a(g414
g223
F0.467
tp4421
a(S'...'
p4422
g179
F0.5532
tp4423
asI1498
(lp4424
(S'should'
p4425
g6
F0.9943
tp4426
a(g2
g3
F0.9989
tp4427
a(S'go'
p4428
g6
F0.9973
tp4429
a(S'and'
p4430
g223
F0.9783
tp4431
a(S'fix'
p4432
g6
F0.9983
tp4433
a(S'it'
p4434
g3
F0.9784
tp4435
a(g63
g46
F0.9989
tp4436
asI1502
(lp4437
(g178
g179
F0.9768
tp4438
a(S'oh'
p4439
g61
F0.9986
tp4440
a(S'yeah'
p4441
g61
F0.9984
tp4442
a(g185
g56
F0.5827
tp4443
a(g93
g56
F0.535
tp4444
a(g178
g179
F0.6902
tp4445
a(g96
g46
F0.9731
tp4446
a(g63
g46
F0.996
tp4447
asI1508
(lp4448
(S'xxx'
p4449
g56
F0.6482
tp4450
a(S'called'
p4451
g6
F0.9997
tp4452
a(S'me'
p4453
g3
F0.9989
tp4454
a(S'up'
p4455
g43
F0.9317
tp4456
a(S'earlier'
p4457
g24
F0.949
tp4458
a(g45
g46
F0.9971
tp4459
asI1511
(lp4460
(S'why'
p4461
g24
F0.9408
tp4462
a(g63
g46
F0.9946
tp4463
asI1515
(lp4464
(S'he'
p4465
g3
F0.9956
tp4466
a(S'asked'
p4467
g6
F0.9999
tp4468
a(S'me'
p4469
g3
F0.9988
tp4470
a(S'how'
p4471
g24
F0.9981
tp4472
a(S'you'
p4473
g3
F0.9996
tp4474
a(S'were'
p4475
g6
F0.9982
tp4476
a(S'doing'
p4477
g6
F0.9768
tp4478
a(g45
g46
F0.9979
tp4479
asI1520
(lp4480
(g2
g3
F0.9983
tp4481
a(S'said'
p4482
g6
F0.9991
tp4483
a(S"he's"
p4484
g139
F0.9892
tp4485
a(S'laying'
p4486
g6
F0.999
tp4487
a(S'down'
p4488
g43
F0.5906
tp4489
a(S'taking'
p4490
g6
F0.9972
tp4491
a(g165
g14
F0.9975
tp4492
a(S'nap'
p4493
g17
F0.9962
tp4494
a(g45
g46
F0.9983
tp4495
asI1525
(lp4496
(S'he'
p4497
g3
F0.9961
tp4498
a(S'said'
p4499
g6
F0.9991
tp4500
a(S'really'
p4501
g24
F0.994
tp4502
a(S'@q'
p4503
g970
F0.9933
tp4504
a(g63
g46
F0.996
tp4505
asI1528
(lp4506
(g2
g3
F0.9983
tp4507
a(S'said'
p4508
g6
F0.9981
tp4509
a(S'yep'
p4510
g61
F0.9917
tp4511
a(S'@q'
p4512
g970
F0.9901
tp4513
a(g45
g46
F0.9959
tp4514
asI1532
(lp4515
(S'oh'
p4516
g61
F0.99
tp4517
a(S"cornbread's"
p4518
g17
F0.668
tp4519
a(S'in'
p4520
g9
F0.9987
tp4521
a(S'the'
p4522
g14
F0.9992
tp4523
a(S'oven'
p4524
g17
F0.9948
tp4525
a(g2
g3
F0.9948
tp4526
a(S'think'
p4527
g6
F0.9999
tp4528
a(S'we'
p4529
g3
F0.9985
tp4530
a(S'had'
p4531
g6
F0.9999
tp4532
a(g165
g14
F0.9961
tp4533
a(S'good'
p4534
g36
F0.9991
tp4535
a(S'day'
p4536
g17
F0.999
tp4537
a(S'today'
p4538
g17
F0.9955
tp4539
a(S'did'
p4540
g6
F0.9991
tp4541
a(S'you'
p4542
g3
F0.9994
tp4543
a(S'have'
p4544
g6
F0.9998
tp4545
a(g165
g14
F0.9974
tp4546
a(S'good'
p4547
g36
F0.9991
tp4548
a(S'day'
p4549
g17
F0.999
tp4550
a(S'today'
p4551
g17
F0.9954
tp4552
a(S'or'
p4553
g223
F0.9848
tp4554
a(S'what'
p4555
g3
F0.9864
tp4556
a(g63
g46
F0.99
tp4557
asI1542
(lp4558
(S'huh'
p4559
g61
F0.9936
tp4560
a(g63
g46
F0.9967
tp4561
asI1546
(lp4562
(S'did'
p4563
g6
F0.9986
tp4564
a(S'you'
p4565
g3
F0.9993
tp4566
a(S'have'
p4567
g6
F0.9999
tp4568
a(g165
g14
F0.9976
tp4569
a(S'good'
p4570
g36
F0.999
tp4571
a(S'day'
p4572
g17
F0.9984
tp4573
a(g63
g46
F0.9987
tp4574
asI1550
(lp4575
(S'nothing'
p4576
g17
F0.9792
tp4577
a(g61
g46
F0.9984
tp4578
asI1554
(lp4579
(S'nothing'
p4580
g17
F0.986
tp4581
a(g63
g46
F0.9976
tp4582
asI1558
(lp4583
(S'wha(t'
p4584
g3
F0.8878
tp4585
a(g479
g46
F0.8902
tp4586
a(g147
g46
F0.9591
tp4587
a(S'do'
p4588
g6
F0.9889
tp4589
a(g479
g46
F0.9942
tp4590
a(S'you'
p4591
g3
F0.9981
tp4592
a(S'mean'
p4593
g6
F0.9581
tp4594
a(S'nothing'
p4595
g17
F0.9952
tp4596
a(g63
g46
F0.9984
tp4597
asI1562
(lp4598
(S'hey'
p4599
g61
F0.9992
tp4600
a(g61
g46
F0.9964
tp4601
asI1566
(lp4602
(S'why'
p4603
g24
F0.9233
tp4604
a(S'xxx'
p4605
g56
F0.537
tp4606
a(S'not'
p4607
g24
F0.986
tp4608
a(g414
g382
F0.5577
tp4609
a(S'...'
p4610
g179
F0.6673
tp4611
asI1569
(lp4612
(S'huh'
p4613
g61
F0.9936
tp4614
a(g63
g46
F0.9967
tp4615
asI1573
(lp4616
(S'turned'
p4617
g6
F0.9986
tp4618
a(S'up'
p4619
g43
F0.9795
tp4620
a(g63
g46
F0.9973
tp4621
asI1577
(lp4622
(S'what'
p4623
g3
F0.9171
tp4624
a(g63
g46
F0.9924
tp4625
asI1581
(lp4626
(g147
g46
F0.9736
tp4627
a(S'be)cause'
p4628
g9
F0.9967
tp4629
a(g2
g3
F0.9995
tp4630
a(S'turned'
p4631
g6
F0.9999
tp4632
a(S'it'
p4633
g3
F0.9852
tp4634
a(S'down'
p4635
g43
F0.7067
tp4636
a(g93
g46
F0.9846
tp4637
a(g61
g46
F0.9901
tp4638
a(g96
g46
F0.9875
tp4639
a(S'so'
p4640
g9
F0.8574
tp4641
a(S'we'
p4642
g3
F0.9989
tp4643
a(S'can'
p4644
g6
F0.9996
tp4645
a(S'record'
p4646
g6
F0.9876
tp4647
a(S'us'
p4648
g3
F0.9829
tp4649
a(S'talking'
p4650
g6
F0.7022
tp4651
a(g45
g46
F0.9987
tp4652
asI1587
(lp4653
(S'do'
p4654
g6
F0.9985
tp4655
a(S'you'
p4656
g3
F0.9996
tp4657
a(S'think'
p4658
g6
F0.9997
tp4659
a(S'we'
p4660
g3
F0.9991
tp4661
a(S'did'
p4662
g6
F0.9999
tp4663
a(g165
g14
F0.996
tp4664
a(S'good'
p4665
g36
F0.9992
tp4666
a(S'job'
p4667
g17
F0.9945
tp4668
a(g63
g46
F0.9982
tp4669
asI1593
(lp4670
(S'huh'
p4671
g61
F0.9936
tp4672
a(g63
g46
F0.9967
tp4673
asI1597
(lp4674
(g178
g179
F0.931
tp4675
a(S'&c'
p4676
g382
F0.3424
tp4677
a(g185
g382
F0.4773
tp4678
a(S'[/]'
p4679
g382
F0.2297
tp4680
a(S'can'
p4681
g6
F0.9994
tp4682
a(S'you'
p4683
g3
F0.9988
tp4684
a(S'sing'
p4685
g6
F0.9999
tp4686
a(S'this'
p4687
g14
F0.9721
tp4688
a(S'song'
p4689
g17
F0.9994
tp4690
a(g63
g46
F0.9981
tp4691
asI1601
(lp4692
(S'wan(t'
p4693
g6
F0.9557
tp4694
a(g479
g46
F0.9434
tp4695
a(g147
g46
F0.94
tp4696
a(S't)a'
p4697
g9
F0.7873
tp4698
a(S'sing'
p4699
g6
F0.9947
tp4700
a(S'with'
p4701
g9
F0.9955
tp4702
a(S'Mama'
p4703
g75
F0.6689
tp4704
a(g63
g46
F0.9969
tp4705
asI1605
(lp4706
(g178
g179
F0.9147
tp4707
a(S"let's"
p4708
g139
F0.9819
tp4709
a(S'sing'
p4710
g6
F0.9991
tp4711
a(g185
g56
F0.5036
tp4712
a(g93
g56
F0.5345
tp4713
a(g185
g56
F0.9532
tp4714
a(g96
g46
F0.8384
tp4715
a(g165
g14
F0.9928
tp4716
a(S'song'
p4717
g17
F0.9996
tp4718
a(g45
g46
F0.9983
tp4719
asI1608
(lp4720
(S'no'
p4721
g61
F0.8389
tp4722
a(g93
g46
F0.9936
tp4723
a(g178
g179
F0.972
tp4724
a(g96
g46
F0.9847
tp4725
a(g45
g46
F0.9962
tp4726
asI1611
(lp4727
(S'come'
p4728
g6
F0.9849
tp4729
a(S'on'
p4730
g9
F0.4922
tp4731
a(g45
g46
F0.9968
tp4732
asI1614
(lp4733
(S'no'
p4734
g61
F0.9847
tp4735
a(g61
g46
F0.999
tp4736
asI1618
(lp4737
(S'oh'
p4738
g61
F0.9984
tp4739
a(g45
g46
F0.9938
tp4740
asI1623
(lp4741
(S'it'
p4742
g3
F0.996
tp4743
a(S'makes'
p4744
g6
F0.9999
tp4745
a(S'me'
p4746
g3
F0.9985
tp4747
a(S'so'
p4748
g24
F0.9891
tp4749
a(S'sad'
p4750
g36
F0.9934
tp4751
a(S'when'
p4752
g24
F0.9795
tp4753
a(S'you'
p4754
g3
F0.999
tp4755
a(S"don't"
p4756
g6
F1.0
tp4757
a(S'want'
p4758
g6
F0.9999
tp4759
a(S'to'
p4760
g9
F0.9762
tp4761
a(S'do'
p4762
g6
F0.9996
tp4763
a(S'things'
p4764
g17
F0.9689
tp4765
a(S'like'
p4766
g9
F0.8607
tp4767
a(S'that'
p4768
g3
F0.964
tp4769
a(g45
g46
F0.9987
tp4770
asI1632
(lp4771
(S'xxx'
p4772
g56
F0.5822
tp4773
a(g45
g46
F0.9648
tp4774
asI1633
(lp4775
(S'huh'
p4776
g61
F0.9936
tp4777
a(g63
g46
F0.9967
tp4778
asI1637
(lp4779
(S'xxx'
p4780
g56
F0.5822
tp4781
a(g45
g46
F0.9648
tp4782
asI1638
(lp4783
(S"where's"
p4784
g139
F0.9332
tp4785
a(S'my'
p4786
g14
F0.9767
tp4787
a(S'huggings'
p4788
g17
F0.9486
tp4789
a(S'@wp'
p4790
g970
F0.9946
tp4791
a(S'and'
p4792
g223
F0.9991
tp4793
a(S'my'
p4794
g14
F0.9424
tp4795
a(S'kissings'
p4796
g17
F0.899
tp4797
a(S'@wp'
p4798
g970
F0.9947
tp4799
a(g63
g46
F0.9961
tp4800
asI1643
(lp4801
(g2
g3
F0.9982
tp4802
a(S'thought'
p4803
g6
F0.9996
tp4804
a(g2
g3
F0.9985
tp4805
a(S'always'
p4806
g24
F0.9918
tp4807
a(S'get'
p4808
g6
F0.9957
tp4809
a(S'one'
p4810
g33
F0.9649
tp4811
a(S'of'
p4812
g9
F0.9991
tp4813
a(S'those'
p4814
g14
F0.669
tp4815
a(S'every'
p4816
g14
F0.8253
tp4817
a(S'day'
p4818
g17
F0.999
tp4819
a(g45
g46
F0.999
tp4820
asI1648
(lp4821
(S"don't"
p4822
g6
F0.9992
tp4823
a(g2
g3
F0.9987
tp4824
a(S'always'
p4825
g24
F0.9911
tp4826
a(S'get'
p4827
g6
F0.9997
tp4828
a(g165
g14
F0.9961
tp4829
a(S'hug'
p4830
g17
F0.9876
tp4831
a(S'and'
p4832
g223
F0.9987
tp4833
a(g165
g14
F0.9696
tp4834
a(S'kiss'
p4835
g17
F0.9908
tp4836
a(g63
g46
F0.9977
tp4837
asI1654
(lp4838
(S'okay'
p4839
g61
F0.9741
tp4840
a(g45
g46
F0.9977
tp4841
asI1657
(lp4842
(S'now'
p4843
g24
F0.9804
tp4844
a(S'we'
p4845
g3
F0.997
tp4846
a(S'get'
p4847
g6
F0.9999
tp4848
a(S'this'
p4849
g3
F0.5122
tp4850
a(S'(.)'
p4851
g56
F0.4351
tp4852
a(g178
g179
F0.8534
tp4853
a(S'love'
p4854
g6
F0.9687
tp4855
a(S'you'
p4856
g3
F0.9995
tp4857
a(g185
g56
F0.3773
tp4858
a(g93
g56
F0.5345
tp4859
a(g185
g56
F0.9532
tp4860
a(g96
g46
F0.6332
tp4861
a(S'+/'
p4862
g75
F0.2121
tp4863
a(g45
g46
F0.9964
tp4864
asI1661
(lp4865
(g178
g179
F0.897
tp4866
a(S'the'
p4867
g14
F0.9989
tp4868
a(S'stove'
p4869
g17
F0.997
tp4870
a(g185
g56
F0.6944
tp4871
a(g93
g56
F0.535
tp4872
a(g178
g179
F0.6902
tp4873
a(g96
g46
F0.9839
tp4874
a(g45
g46
F0.9962
tp4875
asI1665
(lp4876
(S'love'
p4877
g6
F0.9705
tp4878
a(S'you'
p4879
g3
F0.9995
tp4880
a(S'who'
p4881
g3
F0.9666
tp4882
a(S'will'
p4883
g6
F0.9995
tp4884
a(S'do'
p4885
g6
F0.9989
tp4886
a(S'much'
p4887
g36
F0.6013
tp4888
a(g63
g46
F0.997
tp4889
asI1670
(lp4890
(g165
g14
F0.9202
tp4891
a(S'willy'
p4892
g36
F0.3575
tp4893
a(S'@c'
p4894
g970
F0.9961
tp4895
a(S'wunch'
p4896
g382
F0.2757
tp4897
a(S'@c'
p4898
g970
F0.9933
tp4899
a(g45
g46
F0.9947
tp4900
asI1673
(lp4901
(g165
g14
F0.9362
tp4902
a(S'wilda'
p4903
g75
F0.4242
tp4904
a(S'@f'
p4905
g970
F0.9934
tp4906
a(S'bunch'
p4907
g17
F0.964
tp4908
a(g63
g46
F0.9983
tp4909
asI1677
(lp4910
(S'are'
p4911
g6
F0.971
tp4912
a(g93
g46
F0.967
tp4913
a(g185
g179
F0.3399
tp4914
a(g96
g46
F0.9883
tp4915
a(S'you'
p4916
g3
F0.9905
tp4917
a(S'sure'
p4918
g36
F0.9326
tp4919
a(g63
g46
F0.9974
tp4920
asI1681
(lp4921
(S'yeah'
p4922
g61
F0.9951
tp4923
a(g93
g46
F0.9843
tp4924
a(g178
g179
F0.972
tp4925
a(g96
g46
F0.9847
tp4926
a(g45
g46
F0.9962
tp4927
asI1684
(lp4928
(S'yeah'
p4929
g61
F0.9986
tp4930
a(g45
g46
F0.997
tp4931
asI1687
(lp4932
(S'yeah'
p4933
g61
F0.9986
tp4934
a(g45
g46
F0.997
tp4935
asI1691
(lp4936
(S'you'
p4937
g3
F0.9867
tp4938
a(S'[/]'
p4939
g6
F0.5498
tp4940
a(S'you'
p4941
g3
F0.9992
tp4942
a(S'fakin(g'
p4943
g6
F0.9905
tp4944
a(g479
g46
F0.9954
tp4945
a(S'me'
p4946
g3
F0.9889
tp4947
a(g63
g46
F0.9983
tp4948
asI1696
(lp4949
(S'yeah'
p4950
g61
F0.9986
tp4951
a(g45
g46
F0.997
tp4952
asI1699
(lp4953
(S"you're"
p4954
g139
F0.9903
tp4955
a(S'fakin(g'
p4956
g6
F0.9145
tp4957
a(g479
g46
F0.985
tp4958
a(S'huh'
p4959
g61
F0.9357
tp4960
a(S'(.)'
p4961
g75
F0.3229
tp4962
a(g63
g46
F0.9934
tp4963
asI1703
(lp4964
(S'you'
p4965
g3
F0.9923
tp4966
a(S'sure'
p4967
g36
F0.8354
tp4968
a(S'about'
p4969
g9
F0.993
tp4970
a(S'that'
p4971
g3
F0.5014
tp4972
a(S'you'
p4973
g3
F0.9982
tp4974
a(S'sure'
p4975
g36
F0.8643
tp4976
a(S"you're"
p4977
g139
F0.99
tp4978
a(S'fakin(g'
p4979
g6
F0.8915
tp4980
a(g479
g46
F0.9857
tp4981
a(g63
g46
F0.9964
tp4982
asI1709
(lp4983
(S'umhum'
p4984
g61
F0.2887
tp4985
a(g45
g46
F0.9969
tp4986
asI1712
(lp4987
(S'oh'
p4988
g61
F0.9941
tp4989
a(g93
g46
F0.939
tp4990
a(g61
g46
F0.9842
tp4991
a(g96
g46
F0.9533
tp4992
a(g178
g179
F0.9207
tp4993
a(g2
g3
F0.9987
tp4994
a(S'want'
p4995
g6
F0.9996
tp4996
a(g185
g56
F0.2613
tp4997
a(S'[/]'
p4998
g56
F0.7743
tp4999
a(g178
g179
F0.8503
tp5000
a(g2
g3
F0.9987
tp5001
a(S'want'
p5002
g6
F0.9996
tp5003
a(g185
g56
F0.2613
tp5004
a(S'[/]'
p5005
g56
F0.5822
tp5006
a(g2
g3
F0.9968
tp5007
a(S'want'
p5008
g6
F1.0
tp5009
a(g165
g14
F0.9965
tp5010
a(S'good'
p5011
g36
F0.9997
tp5012
a(S'one'
p5013
g33
F0.8313
tp5014
a(g45
g46
F0.9968
tp5015
asI1715
(lp5016
(g2
g3
F0.9983
tp5017
a(S'want'
p5018
g6
F1.0
tp5019
a(S'my'
p5020
g14
F0.9977
tp5021
a(S'big'
p5022
g36
F0.918
tp5023
a(S'hug'
p5024
g17
F0.9804
tp5025
a(g61
g46
F0.9981
tp5026
asI1718
(lp5027
(S'and'
p5028
g223
F0.9989
tp5029
a(S'my'
p5030
g14
F0.9943
tp5031
a(S'big'
p5032
g36
F0.789
tp5033
a(S'kiss'
p5034
g17
F0.9895
tp5035
a(g61
g46
F0.9991
tp5036
asI1721
(lp5037
(S'how'
p5038
g24
F0.979
tp5039
a(S'can'
p5040
g6
F0.9974
tp5041
a(g2
g3
F0.999
tp5042
a(S'get'
p5043
g6
F1.0
tp5044
a(S'my'
p5045
g14
F0.9969
tp5046
a(S'big'
p5047
g36
F0.9412
tp5048
a(S'kisses'
p5049
g17
F0.9628
tp5050
a(g63
g46
F0.9976
tp5051
asI1726
(lp5052
(g223
g223
F0.9914
tp5053
a(S'aw'
p5054
g61
F0.8621
tp5055
a(S'baby'
p5056
g17
F0.9798
tp5057
a(g93
g46
F0.9856
tp5058
a(g185
g56
F0.5563
tp5059
a(g96
g46
F0.6899
tp5060
a(g45
g46
F0.9959
tp5061
asI1730
(lp5062
(g178
g179
F0.9147
tp5063
a(S'can'
p5064
g6
F0.998
tp5065
a(S'we'
p5066
g3
F0.992
tp5067
a(g185
g56
F0.4397
tp5068
a(g93
g56
F0.535
tp5069
a(g178
g179
F0.8293
tp5070
a(g96
g46
F0.9815
tp5071
a(S'[/]'
p5072
g46
F0.3239
tp5073
a(S'can'
p5074
g6
F0.9986
tp5075
a(S'we'
p5076
g3
F0.9895
tp5077
a(S'go'
p5078
g6
F0.9985
tp5079
a(S'lay'
p5080
g6
F0.8571
tp5081
a(S'down'
p5082
g43
F0.5458
tp5083
a(S'in'
p5084
g9
F0.9946
tp5085
a(S'your'
p5086
g14
F0.9903
tp5087
a(S'bed'
p5088
g17
F0.9966
tp5089
a(g63
g46
F0.9976
tp5090
asI1736
(lp5091
(S'but'
p5092
g223
F0.9925
tp5093
a(S'what'
p5094
g3
F0.9966
tp5095
a(S'am'
p5096
g6
F0.9577
tp5097
a(g2
g3
F0.9991
tp5098
a(S'doing'
p5099
g6
F0.9998
tp5100
a(g63
g46
F0.9962
tp5101
asI1740
(lp5102
(S'oh'
p5103
g61
F0.9959
tp5104
a(S"here's"
p5105
g139
F0.9213
tp5106
a(S'that'
p5107
g3
F0.8826
tp5108
a(g45
g46
F0.9988
tp5109
asI1743
(lp5110
(S'what'
p5111
g3
F0.9888
tp5112
a(S'am'
p5113
g6
F0.9619
tp5114
a(g2
g3
F0.9994
tp5115
a(S'doing'
p5116
g6
F0.9996
tp5117
a(g63
g46
F0.9974
tp5118
asI1747
(lp5119
(S'can'
p5120
g6
F0.999
tp5121
a(S'you'
p5122
g3
F0.9986
tp5123
a(S'tell'
p5124
g6
F0.9976
tp5125
a(S'what'
p5126
g3
F0.9933
tp5127
a(S"I'm"
p5128
g139
F0.9931
tp5129
a(S'doing'
p5130
g6
F0.991
tp5131
a(g63
g46
F0.9968
tp5132
asI1752
(lp5133
(S'cooking'
p5134
g6
F0.747
tp5135
a(g45
g46
F0.9957
tp5136
asI1755
(lp5137
(S'yeah'
p5138
g61
F0.9986
tp5139
a(g45
g46
F0.997
tp5140
asI1758
(lp5141
(S'and'
p5142
g223
F0.9988
tp5143
a(S'what'
p5144
g3
F0.9988
tp5145
a(S'did'
p5146
g6
F0.9963
tp5147
a(S'we'
p5148
g3
F0.9982
tp5149
a(S'make'
p5150
g6
F0.9899
tp5151
a(g63
g46
F0.996
tp5152
asI1762
(lp5153
(S'cornbread'
p5154
g17
F0.9915
tp5155
a(g45
g46
F0.9983
tp5156
asI1765
(lp5157
(S'and'
p5158
g223
F0.9988
tp5159
a(S'what'
p5160
g3
F0.9926
tp5161
a(S'else'
p5162
g24
F0.9142
tp5163
a(S'am'
p5164
g6
F0.8943
tp5165
a(g178
g179
F0.8598
tp5166
a(g2
g3
F0.9936
tp5167
a(S'xxx'
p5168
g56
F0.4241
tp5169
a(g185
g56
F0.9474
tp5170
a(g93
g56
F0.5345
tp5171
a(g185
g56
F0.9532
tp5172
a(g96
g46
F0.7544
tp5173
a(S'+/'
p5174
g75
F0.1868
tp5175
a(g45
g46
F0.9918
tp5176
asI1768
(lp5177
(S'cooking'
p5178
g6
F0.7882
tp5179
a(g93
g46
F0.9707
tp5180
a(g178
g179
F0.9843
tp5181
a(g96
g46
F0.9847
tp5182
a(S'supper'
p5183
g17
F0.9694
tp5184
a(g61
g46
F0.9987
tp5185
asI1771
(lp5186
(S'yeah'
p5187
g61
F0.9994
tp5188
a(g61
g46
F0.9967
tp5189
asI1774
(lp5190
(S'you'
p5191
g3
F0.9969
tp5192
a(S'can'
p5193
g6
F0.9998
tp5194
a(S'put'
p5195
g6
F0.9996
tp5196
a(S'it'
p5197
g3
F0.9778
tp5198
a(S'in'
p5199
g9
F0.967
tp5200
a(S'this'
p5201
g3
F0.7299
tp5202
a(S'in'
p5203
g9
F0.9378
tp5204
a(S'that'
p5205
g3
F0.9327
tp5206
a(g45
g46
F0.999
tp5207
asI1779
(lp5208
(S"it's"
p5209
g139
F0.9963
tp5210
a(S'in'
p5211
g9
F0.9971
tp5212
a(S'the'
p5213
g14
F0.9991
tp5214
a(S'oven'
p5215
g17
F0.9958
tp5216
a(g45
g46
F0.999
tp5217
asI1782
(lp5218
(S'come'
p5219
g6
F0.9897
tp5220
a(S'on'
p5221
g9
F0.7298
tp5222
a(S'babe'
p5223
g17
F0.9796
tp5224
a(g45
g46
F0.9988
tp5225
asI1785
(lp5226
(S'can'
p5227
g6
F0.9766
tp5228
a(S'&-um'
p5229
g61
F0.647
tp5230
a(g2
g3
F0.9989
tp5231
a(S'have'
p5232
g6
F0.9987
tp5233
a(S'xxx'
p5234
g17
F0.4489
tp5235
a(g45
g46
F0.9978
tp5236
asI1788
(lp5237
(S'what'
p5238
g3
F0.9171
tp5239
a(g63
g46
F0.9924
tp5240
asI1792
(lp5241
(S'cheesies'
p5242
g75
F0.1893
tp5243
a(S'@f'
p5244
g970
F0.9924
tp5245
a(g63
g46
F0.9945
tp5246
asI1796
(lp5247
(S'yeah'
p5248
g61
F0.9986
tp5249
a(g45
g46
F0.997
tp5250
asI1799
(lp5251
(g147
g46
F0.9531
tp5252
a(S're)member'
p5253
g6
F0.9948
tp5254
a(S"you're"
p5255
g139
F0.9878
tp5256
a(S'eating'
p5257
g6
F0.99
tp5258
a(S'supper'
p5259
g17
F0.9775
tp5260
a(S'and'
p5261
g223
F0.9959
tp5262
a(S'you'
p5263
g3
F0.9985
tp5264
a(S"won't"
p5265
g6
F0.9956
tp5266
a(S'eat'
p5267
g6
F0.9933
tp5268
a(S'supper'
p5269
g17
F0.9563
tp5270
a(S'if'
p5271
g9
F0.9998
tp5272
a(S'you'
p5273
g3
F0.9997
tp5274
a(S'eat'
p5275
g6
F0.9996
tp5276
a(S'all'
p5277
g14
F0.6894
tp5278
a(S'that'
p5279
g14
F0.8379
tp5280
a(S'kind'
p5281
g17
F0.9803
tp5282
a(S'of'
p5283
g9
F0.9979
tp5284
a(S'garbage'
p5285
g17
F0.9879
tp5286
a(g45
g46
F0.9987
tp5287
asI1806
(lp5288
(S'no'
p5289
g61
F0.7432
tp5290
a(S'just'
p5291
g24
F0.9808
tp5292
a(S'one'
p5293
g33
F0.9257
tp5294
a(g45
g46
F0.9976
tp5295
asI1809
(lp5296
(S'just'
p5297
g24
F0.9957
tp5298
a(S'one'
p5299
g33
F0.8601
tp5300
a(g63
g46
F0.9957
tp5301
asI1813
(lp5302
(S'are'
p5303
g6
F0.9964
tp5304
a(S'you'
p5305
g3
F0.9984
tp5306
a(S'sure'
p5307
g36
F0.7571
tp5308
a(S'just'
p5309
g24
F0.9976
tp5310
a(S'one'
p5311
g33
F0.9054
tp5312
a(g63
g46
F0.9959
tp5313
asI1817
(lp5314
(S'can'
p5315
g6
F0.999
tp5316
a(S'you'
p5317
g3
F0.9987
tp5318
a(S'just'
p5319
g24
F0.9997
tp5320
a(S'eat'
p5321
g6
F0.9788
tp5322
a(S'one'
p5323
g33
F0.8744
tp5324
a(g63
g46
F0.9959
tp5325
asI1821
(lp5326
(g2
g3
F0.9976
tp5327
a(S"don't"
p5328
g6
F1.0
tp5329
a(S'think'
p5330
g6
F0.9996
tp5331
a(S'so'
p5332
g24
F0.6248
tp5333
a(S'(.)'
p5334
g382
F0.3655
tp5335
a(g45
g46
F0.9901
tp5336
asI1824
(lp5337
(S'well'
p5338
g61
F0.9502
tp5339
a(S'that'
p5340
g3
F0.9326
tp5341
a(S'should'
p5342
g6
F0.9993
tp5343
a(S'be'
p5344
g6
F0.9999
tp5345
a(S'it'
p5346
g3
F0.9828
tp5347
a(g45
g46
F0.9986
tp5348
asI1827
(lp5349
(g2
g3
F0.9983
tp5350
a(S'guess'
p5351
g6
F0.9998
tp5352
a(S"that's"
p5353
g139
F0.9891
tp5354
a(S'all'
p5355
g14
F0.5907
tp5356
a(S'she'
p5357
g3
F0.9962
tp5358
a(S'needs'
p5359
g6
F0.9887
tp5360
a(S'is'
p5361
g6
F0.9905
tp5362
a(S'(.)'
p5363
g46
F0.2879
tp5364
a(S'us'
p5365
g3
F0.9749
tp5366
a(S'doing'
p5367
g6
F0.9983
tp5368
a(S'cooking'
p5369
g6
F0.7671
tp5370
a(S'and'
p5371
g223
F0.9982
tp5372
a(S'everything'
p5373
g17
F0.993
tp5374
a(g45
g46
F0.9991
tp5375
asI1833
(lp5376
(S'huh'
p5377
g61
F0.9936
tp5378
a(g63
g46
F0.9967
tp5379
asI1837
(lp5380
(S'okay'
p5381
g61
F0.9732
tp5382
a(g63
g46
F0.9976
tp5383
asI1841
(lp5384
(S'zzz'
p5385
g61
F0.3756
tp5386
a(g45
g46
F0.9972
tp5387
as.