(dp0
I2048
(lp1
(S'Pluto'
p2
S'^'
p3
F0.9763
tp4
a(S'.'
p5
S','
p6
F0.9953
tp7
asI2051
(lp8
(S'<'
p9
S'~'
p10
F0.9613
tp11
a(S'Pluto'
p12
g3
F0.9822
tp13
a(S'>'
p14
S'E'
p15
F0.3355
tp16
a(S'['
p17
g15
F0.4959
tp18
a(g14
g15
F0.9698
tp19
a(S']'
p20
g6
F0.6899
tp21
a(g5
g6
F0.9959
tp22
asI2054
(lp23
(S'xxx'
p24
g15
F0.8981
tp25
a(g17
g6
F0.6622
tp26
a(g9
g10
F0.972
tp27
a(g20
g6
F0.9847
tp28
a(g5
g6
F0.9962
tp29
asI2055
(lp30
(S'Chip_n_Dale'
p31
S'N'
p32
F0.9055
tp33
a(g5
g6
F0.9983
tp34
asI2732
(lp35
(S'Matthew'
p36
g3
F0.9968
tp37
a(S'did'
p38
S'V'
p39
F0.9791
tp40
a(S'(.)'
p41
g3
F0.3611
tp42
a(S'?'
p43
g6
F0.9951
tp44
asI2058
(lp45
(S'<<'
p46
g10
F0.8893
tp47
a(S'Plu(to)'
p48
g3
F0.8291
tp49
a(g14
S'G'
p50
F0.2889
tp51
a(S'[//]'
p52
g50
F0.3878
tp53
a(S'Pluto'
p54
g3
F0.9795
tp55
a(g14
g15
F0.4211
tp56
a(g17
g15
F0.535
tp57
a(g9
g10
F0.7916
tp58
a(g20
g6
F0.9861
tp59
a(g5
g6
F0.9959
tp60
asI2062
(lp61
(S'Three'
p62
S'$'
p63
F0.8417
tp64
a(S'Little'
p65
S'A'
p66
F0.9939
tp67
a(S'Pigs'
p68
g32
F0.9801
tp69
a(S'(.)'
p70
g15
F0.4067
tp71
a(g43
g6
F0.9747
tp72
asI3001
(lp73
(S'alright'
p74
S'!'
p75
F0.9199
tp76
a(S"we'll"
p77
S'L'
p78
F0.983
tp79
a(S'just'
p80
S'R'
p81
F0.9995
tp82
a(S'leave'
p83
g39
F0.9994
tp84
a(S'it'
p85
S'O'
p86
F0.9931
tp87
a(S'there'
p88
g81
F0.9451
tp89
a(g5
g6
F0.998
tp90
asI18
(lp91
(S'what'
p92
g86
F0.9931
tp93
a(S'does'
p94
g39
F0.9993
tp95
a(S'the'
p96
S'D'
p97
F0.9994
tp98
a(S'message'
p99
g32
F0.9957
tp100
a(S'mean'
p101
g39
F0.9017
tp102
a(S'on'
p103
S'P'
p104
F0.982
tp105
a(S'this'
p106
g86
F0.769
tp107
a(g43
g6
F0.9984
tp108
asI2605
(lp109
(S'oh'
p110
g75
F0.9984
tp111
a(g5
g6
F0.9938
tp112
asI2069
(lp113
(g9
g10
F0.9324
tp114
a(S'Three'
p115
g63
F0.7606
tp116
a(S'Little'
p117
g66
F0.9145
tp118
a(g14
g15
F0.3994
tp119
a(g17
g15
F0.535
tp120
a(g9
g10
F0.8293
tp121
a(g20
g6
F0.9817
tp122
a(S'Pigs'
p123
g32
F0.9033
tp124
a(g5
g6
F0.9988
tp125
asI2072
(lp126
(S'Cinderella'
p127
g32
F0.4991
tp128
a(g5
g6
F0.9987
tp129
asI26
(lp130
(S'Mommy'
p131
g32
F0.711
tp132
a(g43
g6
F0.9974
tp133
asI2075
(lp134
(g9
g10
F0.9118
tp135
a(S'Cinderella'
p136
g3
F0.5141
tp137
a(g14
g15
F0.419
tp138
a(g17
g15
F0.4959
tp139
a(g14
g15
F0.9698
tp140
a(g20
g6
F0.6899
tp141
a(g5
g6
F0.9959
tp142
asI30
(lp143
(S'what'
p144
g86
F0.9962
tp145
a(S'is'
p146
g39
F0.9994
tp147
a(S'that'
p148
g86
F0.8444
tp149
a(S'smell'
p150
g39
F0.9002
tp151
a(S'thing'
p152
g32
F0.9789
tp153
a(g43
g6
F0.9942
tp154
asI2081
(lp155
(g9
g10
F0.9383
tp156
a(S'Goofy'
p157
g66
F0.8569
tp158
a(g14
g15
F0.432
tp159
a(g17
g15
F0.4959
tp160
a(g14
g15
F0.9698
tp161
a(g20
g6
F0.6899
tp162
a(g5
g6
F0.9959
tp163
asI34
(lp164
(S'hot'
p165
g66
F0.964
tp166
a(S'dog'
p167
g32
F0.9996
tp168
a(g5
g6
F0.9985
tp169
asI2084
(lp170
(g9
g10
F0.9164
tp171
a(S'Snow'
p172
g3
F0.7701
tp173
a(S'White'
p174
g3
F0.8032
tp175
a(g14
g3
F0.354
tp176
a(g17
g6
F0.9654
tp177
a(g9
g10
F0.9461
tp178
a(g20
g6
F0.9839
tp179
a(g5
g6
F0.9962
tp180
asI38
(lp181
(S"that's"
p182
g78
F0.9768
tp183
a(S'your'
p184
g97
F0.9729
tp185
a(S'hot'
p186
g66
F0.9702
tp187
a(S'dogs'
p188
g32
F0.9985
tp189
a(S'an(d'
p190
S'&'
p191
F0.9466
tp192
a(S')'
p193
g6
F0.9721
tp194
a(S'hamburgers'
p195
g32
F0.9713
tp196
a(g5
g6
F0.9987
tp197
asI2087
(lp198
(S'Snow'
p199
g32
F0.4876
tp200
a(g9
g10
F0.3675
tp201
a(S'White'
p202
g3
F0.4757
tp203
a(g14
g3
F0.354
tp204
a(g17
g6
F0.9644
tp205
a(g14
g15
F0.6043
tp206
a(g20
g6
F0.7541
tp207
a(g5
g6
F0.9962
tp208
asI2090
(lp209
(g9
g10
F0.9383
tp210
a(S'Goofy'
p211
g66
F0.8569
tp212
a(g14
g15
F0.432
tp213
a(g17
g15
F0.4963
tp214
a(g9
g10
F0.7259
tp215
a(g20
g6
F0.9666
tp216
a(g43
g6
F0.9959
tp217
asI44
(lp218
(S'Mom'
p219
g32
F0.7966
tp220
a(S'can'
p221
g39
F0.9969
tp222
a(g9
g10
F0.898
tp223
a(S'we'
p224
g86
F0.9955
tp225
a(S'play'
p226
g39
F0.995
tp227
a(g14
g15
F0.4756
tp228
a(g17
g15
F0.5345
tp229
a(g14
g15
F0.9532
tp230
a(g20
g6
F0.8186
tp231
a(S'ball'
p232
g32
F0.9459
tp233
a(S'outside'
p234
g66
F0.4339
tp235
a(g43
g6
F0.9957
tp236
asI2093
(lp237
(S'&-um'
p238
g75
F0.8298
tp239
a(S'Dumbo'
p240
g3
F0.9863
tp241
a(g17
g6
F0.9629
tp242
a(g75
g6
F0.9911
tp243
a(g20
g6
F0.978
tp244
a(g5
g6
F0.995
tp245
asI47
(lp246
(g9
g10
F0.9298
tp247
a(S'cookin(g)'
p248
g39
F0.6946
tp249
a(g14
g15
F0.5692
tp250
a(g17
g15
F0.4963
tp251
a(g9
g10
F0.7259
tp252
a(g20
g6
F0.9803
tp253
a(g5
g6
F0.9959
tp254
asI2096
(lp255
(S'Dumbo'
p256
g3
F0.9465
tp257
a(S'(.)'
p258
g3
F0.4305
tp259
a(g5
g6
F0.9933
tp260
asI50
(lp261
(S'gonna'
p262
g39
F0.988
tp263
a(S'be'
p264
g39
F0.9994
tp265
a(S'eating'
p266
g39
F0.9883
tp267
a(S'now'
p268
g81
F0.9904
tp269
a(g5
g6
F0.9986
tp270
asI2739
(lp271
(S'oh'
p272
g75
F0.9886
tp273
a(S'tell'
p274
g39
F0.9936
tp275
a(S'me'
p276
g86
F0.9981
tp277
a(S'a'
p278
g97
F0.992
tp279
a(S'story'
p280
g32
F0.997
tp281
a(S'about'
p282
g104
F0.9929
tp283
a(S'school'
p284
g32
F0.9889
tp285
a(S'(.)'
p286
g50
F0.2596
tp287
a(g5
g6
F0.9932
tp288
asI2100
(lp289
(S'an(d'
p290
g191
F0.8847
tp291
a(g193
g6
F0.9745
tp292
a(S'Mickey'
p293
g3
F0.9947
tp294
a(g75
g6
F0.9936
tp295
asI55
(lp296
(S'come'
p297
g39
F0.9849
tp298
a(S'on'
p299
g104
F0.4922
tp300
a(g5
g6
F0.9968
tp301
asI3219
(lp302
(g9
g10
F0.8923
tp303
a(S'(a)round'
p304
g104
F0.7613
tp305
a(S'it'
p306
g86
F0.9967
tp307
a(S'like'
p308
g104
F0.7214
tp309
a(g14
g15
F0.3717
tp310
a(g17
g15
F0.535
tp311
a(g9
g10
F0.8293
tp312
a(g20
g6
F0.9284
tp313
a(g17
g6
F0.9615
tp314
a(g14
g15
F0.4438
tp315
a(g20
g6
F0.853
tp316
a(S'that'
p317
g86
F0.723
tp318
a(g5
g6
F0.9984
tp319
asI58
(lp320
(S"it's"
p321
g78
F0.9924
tp322
a(g9
g10
F0.7386
tp323
a(S'eating'
p324
g39
F0.9967
tp325
a(S'time'
p326
g32
F0.996
tp327
a(g14
g15
F0.5998
tp328
a(g17
g15
F0.5345
tp329
a(g14
g15
F0.9732
tp330
a(g20
g6
F0.8062
tp331
a(g5
g6
F0.9969
tp332
asI62
(lp333
(g9
g10
F0.9093
tp334
a(S'where'
p335
g81
F0.9284
tp336
a(S'are'
p337
g39
F0.9716
tp338
a(S'we'
p339
g86
F0.9987
tp340
a(S'goin(g'
p341
g39
F0.9905
tp342
a(g193
g6
F0.9938
tp343
a(S'to'
p344
g104
F0.9793
tp345
a(g14
g15
F0.3347
tp346
a(g17
g15
F0.535
tp347
a(g9
g10
F0.8293
tp348
a(g20
g6
F0.9868
tp349
a(S'eat'
p350
g39
F0.9705
tp351
a(S'(.)'
p352
g3
F0.4116
tp353
a(g43
g6
F0.9972
tp354
asI2114
(lp355
(g9
g10
F0.9775
tp356
a(S'(o)kay'
p357
g75
F0.9365
tp358
a(S"I'm"
p359
g78
F0.9948
tp360
a(S'through'
p361
g104
F0.9295
tp362
a(g14
g15
F0.3495
tp363
a(g17
g15
F0.535
tp364
a(g9
g10
F0.7057
tp365
a(g20
g6
F0.9842
tp366
a(g5
g6
F0.9969
tp367
asI67
(lp368
(S'are'
p369
g39
F0.987
tp370
a(S'we'
p371
g86
F0.9991
tp372
a(S'gonna'
p373
g39
F0.9997
tp374
a(S'eat'
p375
g39
F0.9991
tp376
a(S'outside'
p377
g81
F0.4352
tp378
a(S'or'
p379
g191
F0.9827
tp380
a(S'in'
p381
g104
F0.9675
tp382
a(S'(.)'
p383
g3
F0.6531
tp384
a(g43
g6
F0.9964
tp385
asI2117
(lp386
(S'milk'
p387
g32
F0.9903
tp388
a(g5
g6
F0.9983
tp389
asI71
(lp390
(S'shoot'
p391
g32
F0.8994
tp392
a(g5
g6
F0.9985
tp393
asI2120
(lp394
(S'I'
p395
g86
F0.9983
tp396
a(S'have'
p397
g39
F0.9999
tp398
a(S'some'
p399
g97
F0.9953
tp400
a(S'milk'
p401
g32
F0.9882
tp402
a(S'Mommy'
p403
g32
F0.9529
tp404
a(g5
g6
F0.9983
tp405
asI74
(lp406
(g395
g86
F0.9974
tp407
a(S'hear'
p408
g39
F0.9992
tp409
a(S'that'
p410
g97
F0.8717
tp411
a(S'noise'
p412
g32
F0.9981
tp413
a(g5
g6
F0.9989
tp414
asI2123
(lp415
(S'where'
p416
g81
F0.9806
tp417
a(S'you'
p418
g86
F0.9995
tp419
a(S'goin(g'
p420
g39
F0.9863
tp421
a(g193
g6
F0.995
tp422
a(S'to'
p423
g104
F0.9872
tp424
a(S'school'
p425
g32
F0.7649
tp426
a(S'next'
p427
g66
F0.7963
tp428
a(S'year'
p429
g32
F0.9836
tp430
a(g43
g6
F0.9983
tp431
asI79
(lp432
(g9
g10
F0.9115
tp433
a(S"that's"
p434
g78
F0.9859
tp435
a(S'me'
p436
g86
F0.9989
tp437
a(g14
g15
F0.5269
tp438
a(g17
g15
F0.5345
tp439
a(g14
g15
F0.9749
tp440
a(g20
g6
F0.7541
tp441
a(g5
g6
F0.9962
tp442
asI2128
(lp443
(S'xxx'
p444
g15
F0.5822
tp445
a(g5
g6
F0.9648
tp446
asI2129
(lp447
(S'huh'
p448
g75
F0.9936
tp449
a(g43
g6
F0.9967
tp450
asI82
(lp451
(S'zzz'
p452
g50
F0.409
tp453
a(g17
g6
F0.9451
tp454
a(g9
g10
F0.972
tp455
a(g20
g6
F0.9847
tp456
a(g5
g6
F0.9962
tp457
asI85
(lp458
(S'then'
p459
g81
F0.9607
tp460
a(S'me'
p461
g86
F0.9987
tp462
a(g5
g6
F0.9983
tp463
asI90
(lp464
(S'xxx'
p465
g15
F0.8981
tp466
a(g17
g6
F0.661
tp467
a(g14
g15
F0.3811
tp468
a(g20
g6
F0.7604
tp469
a(g5
g6
F0.9962
tp470
asI91
(lp471
(g9
g10
F0.9127
tp472
a(S'then'
p473
g81
F0.9473
tp474
a(S'me'
p475
g86
F0.9992
tp476
a(g14
g15
F0.5269
tp477
a(g17
g6
F0.7297
tp478
a(S'<][>'
p479
g15
F0.4283
tp480
a(g20
g6
F0.8588
tp481
a(g5
g6
F0.9962
tp482
asI94
(lp483
(g9
g10
F0.9347
tp484
a(S'put'
p485
g39
F0.9955
tp486
a(S'it'
p487
g86
F0.9731
tp488
a(S'near'
p489
g104
F0.9566
tp490
a(S'Tanya'
p491
g3
F0.9979
tp492
a(g14
g15
F0.3974
tp493
a(g17
g15
F0.535
tp494
a(g9
g10
F0.8293
tp495
a(g20
g6
F0.9745
tp496
a(S'where'
p497
g81
F0.9633
tp498
a(S'she'
p499
g86
F0.9982
tp500
a(S'sits'
p501
g39
F0.9874
tp502
a(g5
g6
F0.9975
tp503
asI98
(lp504
(S'then'
p505
g81
F0.9607
tp506
a(S'me'
p507
g86
F0.9987
tp508
a(g5
g6
F0.9983
tp509
asI101
(lp510
(S'('
p511
g6
F0.9613
tp512
a(S'o)kay'
p513
g75
F0.5403
tp514
a(S'go'
p515
g39
F0.9738
tp516
a(S'back'
p517
g81
F0.944
tp518
a(g9
g10
F0.7007
tp519
a(S'there'
p520
g81
F0.8692
tp521
a(S'an(d'
p522
g191
F0.9446
tp523
a(g193
g6
F0.9787
tp524
a(S'sit'
p525
g39
F0.9129
tp526
a(g14
g15
F0.4779
tp527
a(g17
g15
F0.5345
tp528
a(g14
g15
F0.9607
tp529
a(g20
g6
F0.7758
tp530
a(g5
g6
F0.9977
tp531
asI104
(lp532
(S'xxx'
p533
g15
F0.8981
tp534
a(g17
g6
F0.6622
tp535
a(g9
g10
F0.972
tp536
a(g20
g6
F0.9847
tp537
a(g5
g6
F0.9962
tp538
asI105
(lp539
(S'wait'
p540
g39
F0.8994
tp541
a(g511
g6
F0.988
tp542
a(S'un)til'
p543
g104
F0.994
tp544
a(g395
g86
F0.9993
tp545
a(S'put'
p546
g39
F0.9997
tp547
a(S'my'
p548
g97
F0.9983
tp549
a(S'pony'
p550
g32
F0.9986
tp551
a(S'away'
p552
g81
F0.9658
tp553
a(g5
g6
F0.9984
tp554
asI2892
(lp555
(S'but'
p556
g191
F0.9965
tp557
a(g395
g86
F0.9982
tp558
a(g9
g10
F0.9633
tp559
a(S'wan(t'
p560
g39
F0.9769
tp561
a(g193
g6
F0.9419
tp562
a(g511
g6
F0.9507
tp563
a(S't)a'
p564
g104
F0.7294
tp565
a(S'put'
p566
g39
F0.9908
tp567
a(S'it'
p568
g86
F0.9876
tp569
a(S'[='
p570
g15
F0.8438
tp571
a(S'tape'
p572
g32
F0.9852
tp573
a(S'recorder]'
p574
g32
F0.9954
tp575
a(g14
g15
F0.6104
tp576
a(g17
g15
F0.5345
tp577
a(g14
g15
F0.9532
tp578
a(g20
g6
F0.8842
tp579
a(S'on'
p580
g104
F0.8604
tp581
a(g5
g6
F0.998
tp582
asI109
(lp583
(S'Tanya'
p584
g3
F0.9914
tp585
a(S"don't"
p586
g39
F0.9994
tp587
a(S'took'
p588
g39
F1.0
tp589
a(g278
g97
F0.9973
tp590
a(S'ball'
p591
g32
F0.999
tp592
a(g5
g6
F0.9977
tp593
asI2742
(lp594
(S'what'
p595
g86
F0.9864
tp596
a(S'happened'
p597
g39
F0.9809
tp598
a(g43
g6
F0.9974
tp599
asI112
(lp600
(S'xxx'
p601
g15
F0.6671
tp602
a(S'chair'
p603
g32
F0.991
tp604
a(g5
g6
F0.9989
tp605
asI2162
(lp606
(S'say'
p607
g39
F0.9533
tp608
a(g395
g86
F0.9991
tp609
a(S"don't"
p610
g39
F1.0
tp611
a(S'know'
p612
g39
F0.9995
tp613
a(S'yet'
p614
g81
F0.9513
tp615
a(S'(.)'
p616
g15
F0.2914
tp617
a(g5
g6
F0.9632
tp618
asI116
(lp619
(S'it'
p620
g86
F0.9943
tp621
a(S'should'
p622
g39
F0.9994
tp623
a(S'be'
p624
g39
F0.9998
tp625
a(S'around'
p626
g104
F0.9358
tp627
a(S'the'
p628
g97
F0.9995
tp629
a(S'bottom'
p630
g32
F0.9409
tp631
a(S'of'
p632
g104
F0.9984
tp633
a(S'that'
p634
g86
F0.9478
tp635
a(g5
g6
F0.999
tp636
asI2165
(lp637
(S'Jane'
p638
g3
F0.9943
tp639
a(g43
g6
F0.9951
tp640
asI2169
(lp641
(S'Jane'
p642
g3
F0.9943
tp643
a(g43
g6
F0.9951
tp644
asI122
(lp645
(S'John'
p646
g3
F0.9989
tp647
a(g17
g6
F0.9795
tp648
a(g43
g6
F0.976
tp649
a(g20
g6
F0.8986
tp650
a(S'hey'
p651
g75
F0.9982
tp652
a(g75
g6
F0.9964
tp653
asI125
(lp654
(S'stop'
p655
g39
F0.5845
tp656
a(g75
g6
F0.9969
tp657
asI128
(lp658
(S'get'
p659
g39
F0.9983
tp660
a(S'out'
p661
S'T'
p662
F0.6351
tp663
a(S'o(f'
p664
g32
F0.2824
tp665
a(g193
g6
F0.9923
tp666
a(S'the'
p667
g97
F0.9987
tp668
a(S'way'
p669
g32
F0.9878
tp670
a(g5
g6
F0.9984
tp671
asI131
(lp672
(S'xxx'
p673
g15
F0.6842
tp674
a(S'sittin(g'
p675
g39
F0.8885
tp676
a(g193
g6
F0.994
tp677
a(S'there'
p678
g81
F0.7176
tp679
a(g5
g6
F0.9982
tp680
asI134
(lp681
(S'shut'
p682
g39
F0.9879
tp683
a(S'it'
p684
g86
F0.9918
tp685
a(S'off'
p686
g662
F0.9042
tp687
a(S'whenever'
p688
g81
F0.9942
tp689
a(S'you'
p690
g86
F0.9996
tp691
a(S'want'
p692
g39
F0.9981
tp693
a(g5
g6
F0.9976
tp694
asI139
(lp695
(S'know'
p696
g39
F0.9511
tp697
a(S'what'
p698
g86
F0.9881
tp699
a(g43
g6
F0.9924
tp700
asI142
(lp701
(g395
g86
F0.9937
tp702
a(g9
g10
F0.7978
tp703
a(S'wan(t'
p704
g39
F0.9739
tp705
a(g193
g6
F0.9512
tp706
a(g511
g6
F0.9507
tp707
a(S't)a'
p708
g104
F0.7009
tp709
a(S'sit'
p710
g39
F0.9791
tp711
a(S'right'
p712
g81
F0.9017
tp713
a(S'here'
p714
g81
F0.9766
tp715
a(g14
g15
F0.5738
tp716
a(g17
g15
F0.5345
tp717
a(g14
g15
F0.9607
tp718
a(g20
g6
F0.7758
tp719
a(g5
g6
F0.9977
tp720
asI2193
(lp721
(S'xxx'
p722
g15
F0.8981
tp723
a(g17
g6
F0.661
tp724
a(g14
g15
F0.3811
tp725
a(g20
g6
F0.7604
tp726
a(g5
g6
F0.9962
tp727
asI146
(lp728
(g9
g10
F0.9094
tp729
a(S'Honey'
p730
g32
F0.5594
tp731
a(S'sit'
p732
g39
F0.9535
tp733
a(S'back'
p734
g81
F0.7351
tp735
a(S'there'
p736
g81
F0.6904
tp737
a(S"we're"
p738
g78
F0.9045
tp739
a(S'gonna'
p740
g39
F0.9816
tp741
a(g14
g15
F0.4663
tp742
a(g17
g15
F0.535
tp743
a(g9
g10
F0.8293
tp744
a(g20
g6
F0.9862
tp745
a(S'give'
p746
g39
F0.9993
tp747
a(S'you'
p748
g86
F0.9968
tp749
a(S'your'
p750
g97
F0.9908
tp751
a(S'supper'
p752
g32
F0.9983
tp753
a(g5
g6
F0.999
tp754
asI2197
(lp755
(g9
g10
F0.9147
tp756
a(S'gonna'
p757
g39
F0.9939
tp758
a(S'have'
p759
g39
F0.999
tp760
a(g14
g15
F0.5521
tp761
a(g17
g15
F0.5345
tp762
a(g14
g15
F0.9532
tp763
a(g20
g6
F0.6889
tp764
a(S'Rhoda'
p765
g3
F0.9974
tp766
a(g43
g6
F0.9973
tp767
asI151
(lp768
(g511
g6
F0.9613
tp769
a(S'o)kay'
p770
g66
F0.5037
tp771
a(S'Johnny'
p772
g3
F0.999
tp773
a(S'sit'
p774
g39
F0.9702
tp775
a(S'there'
p776
g81
F0.9138
tp777
a(g5
g6
F0.9976
tp778
asI2201
(lp779
(g9
g10
F0.9409
tp780
a(S'Rho(da)'
p781
g3
F0.9443
tp782
a(g14
g3
F0.3082
tp783
a(g17
g6
F0.9714
tp784
a(g9
g10
F0.948
tp785
a(g20
g6
F0.9803
tp786
a(g5
g6
F0.9959
tp787
asI154
(lp788
(S"Tanya's"
p789
S'Z'
p790
F0.7234
tp791
a(S'there'
p792
g81
F0.7537
tp793
a(g5
g6
F0.9981
tp794
asI2415
(lp795
(g9
g10
F0.9355
tp796
a(S'tell'
p797
g39
F0.9951
tp798
a(S'her'
p799
g86
F0.8839
tp800
a(g14
g15
F0.4495
tp801
a(g17
g15
F0.535
tp802
a(g9
g10
F0.8293
tp803
a(g20
g6
F0.9815
tp804
a(S'[/]'
p805
g6
F0.2883
tp806
a(S'tell'
p807
g39
F0.9958
tp808
a(S'her'
p809
g86
F0.8071
tp810
a(S'your'
p811
g97
F0.9892
tp812
a(S'nickname'
p813
g32
F0.9997
tp814
a(g5
g6
F0.9981
tp815
asI2204
(lp816
(S'yep'
p817
g75
F0.9897
tp818
a(g17
g6
F0.984
tp819
a(g14
g15
F0.3811
tp820
a(g20
g6
F0.7604
tp821
a(g5
g6
F0.9962
tp822
asI157
(lp823
(S'you'
p824
g86
F0.998
tp825
a(S'want'
p826
g39
F0.9999
tp827
a(g278
g97
F0.9982
tp828
a(S'hot'
p829
g66
F0.9902
tp830
a(S'dog'
p831
g32
F0.9995
tp832
a(S'or'
p833
g191
F0.992
tp834
a(S'hamburger'
p835
g32
F0.9842
tp836
a(S'(.)'
p837
g50
F0.3085
tp838
a(g5
g6
F0.9932
tp839
asI2207
(lp840
(g9
g10
F0.9511
tp841
a(S'Rhoda'
p842
g3
F0.9942
tp843
a(g14
g3
F0.3094
tp844
a(g17
g6
F0.9714
tp845
a(g9
g10
F0.9635
tp846
a(g20
g6
F0.9864
tp847
a(S'an(d'
p848
g191
F0.9508
tp849
a(g193
g6
F0.9786
tp850
a(S'Mary'
p851
g3
F0.9957
tp852
a(g5
g6
F0.9946
tp853
asI160
(lp854
(S'hamburger'
p855
g32
F0.984
tp856
a(g5
g6
F0.9983
tp857
asI2210
(lp858
(g395
g86
F0.9983
tp859
a(S'have'
p860
g39
F0.9994
tp861
a(S'Rhoda'
p862
g3
F0.9995
tp863
a(S'an(d'
p864
g191
F0.8274
tp865
a(g193
g6
F0.9766
tp866
a(S'Mary'
p867
g3
F0.998
tp868
a(S'(.)'
p869
g3
F0.8047
tp870
a(g5
g6
F0.9938
tp871
asI164
(lp872
(S'Tanya'
p873
g3
F0.9893
tp874
a(g43
g6
F0.9956
tp875
asI2213
(lp876
(S'you'
p877
g86
F0.9923
tp878
a(S'like'
p879
g39
F0.6755
tp880
a(S'Head'
p881
g32
F0.9837
tp882
a(S'Start'
p883
g39
F0.8926
tp884
a(g43
g6
F0.998
tp885
asI168
(lp886
(g9
g10
F0.9526
tp887
a(g395
g86
F0.9988
tp888
a(S'want'
p889
g39
F1.0
tp890
a(g278
g97
F0.9777
tp891
a(g14
g15
F0.282
tp892
a(g17
g15
F0.5345
tp893
a(g14
g15
F0.9732
tp894
a(g20
g6
F0.8062
tp895
a(g5
g6
F0.9969
tp896
asI2217
(lp897
(S"what's"
p898
g78
F0.9911
tp899
a(S'that'
p900
g86
F0.7339
tp901
a(g43
g6
F0.9981
tp902
asI171
(lp903
(S'mm'
p904
g75
F0.2906
tp905
a(g17
g6
F0.9607
tp906
a(g9
g10
F0.972
tp907
a(g20
g6
F0.9847
tp908
a(g5
g6
F0.9962
tp909
asI2221
(lp910
(S'huh'
p911
g75
F0.9936
tp912
a(g43
g6
F0.9967
tp913
asI174
(lp914
(g9
g10
F0.9362
tp915
a(S'hot'
p916
g66
F0.9857
tp917
a(S'dog'
p918
g32
F0.9994
tp919
a(g14
g15
F0.6532
tp920
a(g17
g15
F0.5345
tp921
a(g14
g15
F0.9749
tp922
a(g20
g6
F0.7541
tp923
a(g5
g6
F0.9962
tp924
asI177
(lp925
(g9
g10
F0.9362
tp926
a(S'hot'
p927
g66
F0.9857
tp928
a(S'dog'
p929
g32
F0.9994
tp930
a(g14
g15
F0.6532
tp931
a(g17
g6
F0.7297
tp932
a(S'<][>'
p933
g15
F0.4283
tp934
a(g20
g6
F0.8588
tp935
a(g5
g6
F0.9962
tp936
asI180
(lp937
(g9
g10
F0.9116
tp938
a(S"I'll"
p939
g78
F0.9814
tp940
a(S'have'
p941
g39
F0.9999
tp942
a(g278
g97
F0.9783
tp943
a(g14
g15
F0.282
tp944
a(g17
g15
F0.535
tp945
a(g9
g10
F0.8293
tp946
a(g20
g6
F0.9837
tp947
a(S'hot'
p948
g66
F0.9887
tp949
a(S'dog'
p950
g32
F0.999
tp951
a(g395
g86
F0.9925
tp952
a(S'mean'
p953
g39
F0.9721
tp954
a(g5
g6
F0.9971
tp955
asI2078
(lp956
(g9
g10
F0.9511
tp957
a(S'Tanya'
p958
g3
F0.9962
tp959
a(g511
g6
F0.971
tp960
a(S're)member'
p961
g39
F0.9564
tp962
a(g14
g15
F0.5587
tp963
a(g17
g15
F0.535
tp964
a(g9
g10
F0.7057
tp965
a(g20
g6
F0.9842
tp966
a(g5
g6
F0.9969
tp967
asI2232
(lp968
(S'oh'
p969
g75
F0.9941
tp970
a(g17
g6
F0.9747
tp971
a(g9
g10
F0.972
tp972
a(g20
g6
F0.9847
tp973
a(g5
g6
F0.9962
tp974
asI186
(lp975
(S'please'
p976
g39
F0.8368
tp977
a(g5
g6
F0.9977
tp978
asI2235
(lp979
(S'wow'
p980
g75
F0.9849
tp981
a(g17
g6
F0.9801
tp982
a(g9
g10
F0.972
tp983
a(g20
g6
F0.9847
tp984
a(g5
g6
F0.9962
tp985
asI189
(lp986
(S'please'
p987
g39
F0.8849
tp988
a(g17
g6
F0.9879
tp989
a(g14
g15
F0.3811
tp990
a(g20
g6
F0.7604
tp991
a(g5
g6
F0.9962
tp992
asI2238
(lp993
(g9
g10
F0.9197
tp994
a(g278
g97
F0.9921
tp995
a(S'lot'
p996
g32
F0.9886
tp997
a(S'of'
p998
g104
F0.9967
tp999
a(S'things'
p1000
g32
F0.9917
tp1001
a(g14
g15
F0.5783
tp1002
a(g17
g15
F0.5345
tp1003
a(g14
g15
F0.9555
tp1004
a(g20
g6
F0.6839
tp1005
a(g43
g6
F0.9957
tp1006
asI192
(lp1007
(g9
g10
F0.9526
tp1008
a(g395
g86
F0.9988
tp1009
a(S'want'
p1010
g39
F1.0
tp1011
a(g278
g97
F0.9777
tp1012
a(g14
g15
F0.282
tp1013
a(g17
g15
F0.535
tp1014
a(g9
g10
F0.7057
tp1015
a(g20
g6
F0.9842
tp1016
a(g5
g6
F0.9969
tp1017
asI3104
(lp1018
(S'oh'
p1019
g75
F0.9969
tp1020
a(S'(.)'
p1021
g75
F0.4645
tp1022
a(g5
g6
F0.9973
tp1023
asI2242
(lp1024
(g9
g10
F0.9262
tp1025
a(S"they're>"
p1026
g78
F0.4765
tp1027
a(g17
g6
F0.9634
tp1028
a(g14
g15
F0.4857
tp1029
a(g20
g6
F0.8456
tp1030
a(S'gonna'
p1031
g39
F0.9973
tp1032
a(S'hear'
p1033
g39
F0.9977
tp1034
a(S'that'
p1035
g86
F0.599
tp1036
a(S'xxx'
p1037
g15
F0.4719
tp1038
a(S'+'
p1039
g191
F0.4275
tp1040
a(S'...'
p1041
g6
F0.5884
tp1042
asI195
(lp1043
(S'hot'
p1044
g66
F0.971
tp1045
a(S'dog'
p1046
g32
F0.9996
tp1047
a(g17
g6
F0.9808
tp1048
a(g14
g15
F0.5453
tp1049
a(g20
g6
F0.7789
tp1050
a(g5
g6
F0.995
tp1051
asI2688
(lp1052
(S'what'
p1053
g86
F0.9835
tp1054
a(S'are'
p1055
g39
F0.9978
tp1056
a(S'you'
p1057
g86
F0.9961
tp1058
a(g278
g97
F0.989
tp1059
a(S'good'
p1060
g66
F0.9988
tp1061
a(S'girl'
p1062
g32
F0.9988
tp1063
a(S'or'
p1064
g191
F0.9924
tp1065
a(S'bad'
p1066
g66
F0.9896
tp1067
a(S'girl'
p1068
g32
F0.9934
tp1069
a(S'(.)'
p1070
g15
F0.3643
tp1071
a(g5
g6
F0.9707
tp1072
asI198
(lp1073
(S'please'
p1074
g39
F0.8849
tp1075
a(g17
g6
F0.9884
tp1076
a(g9
g10
F0.972
tp1077
a(g20
g6
F0.974
tp1078
a(g43
g6
F0.9963
tp1079
asI202
(lp1080
(S'please'
p1081
g39
F0.8368
tp1082
a(g5
g6
F0.9977
tp1083
asI2251
(lp1084
(S'you'
p1085
g86
F0.998
tp1086
a(S'got'
p1087
g39
F0.9998
tp1088
a(S'another'
p1089
g97
F0.9905
tp1090
a(S'one'
p1091
g63
F0.7999
tp1092
a(g5
g6
F0.9977
tp1093
asI205
(lp1094
(S'please'
p1095
g39
F0.7885
tp1096
a(g43
g6
F0.9975
tp1097
asI2254
(lp1098
(S'Tanya'
p1099
g3
F0.984
tp1100
a(S'(.)'
p1101
g3
F0.7325
tp1102
a(g5
g6
F0.9933
tp1103
asI209
(lp1104
(S'thank'
p1105
g39
F0.9661
tp1106
a(S'you'
p1107
g86
F0.999
tp1108
a(g17
g6
F0.9933
tp1109
a(g14
g15
F0.5453
tp1110
a(g20
g6
F0.7789
tp1111
a(g5
g6
F0.995
tp1112
asI212
(lp1113
(S'please'
p1114
g39
F0.8849
tp1115
a(g17
g6
F0.9884
tp1116
a(g9
g10
F0.972
tp1117
a(g20
g6
F0.974
tp1118
a(g43
g6
F0.9963
tp1119
asI2263
(lp1120
(g511
g6
F0.9628
tp1121
a(S"i)t's"
p1122
g78
F0.9959
tp1123
a(g278
g97
F0.9899
tp1124
a(S'good'
p1125
g66
F0.9993
tp1126
a(S'school'
p1127
g32
F0.9989
tp1128
a(S'huh'
p1129
g75
F0.9117
tp1130
a(g43
g6
F0.9978
tp1131
asI217
(lp1132
(g9
g10
F0.9112
tp1133
a(S'Mommy'
p1134
g32
F0.5708
tp1135
a(g14
g50
F0.4522
tp1136
a(g17
g6
F0.9218
tp1137
a(g14
g15
F0.5563
tp1138
a(g20
g6
F0.6899
tp1139
a(g5
g6
F0.9959
tp1140
asI2267
(lp1141
(S'yeah'
p1142
g75
F0.9951
tp1143
a(g17
g6
F0.9838
tp1144
a(g14
g15
F0.3811
tp1145
a(g20
g6
F0.7604
tp1146
a(g5
g6
F0.9962
tp1147
asI220
(lp1148
(g9
g10
F0.9335
tp1149
a(S'Ma'
p1150
g3
F0.2689
tp1151
a(S'thank'
p1152
g39
F0.9748
tp1153
a(S'you'
p1154
g86
F0.9993
tp1155
a(g14
g15
F0.3773
tp1156
a(g17
g15
F0.535
tp1157
a(g9
g10
F0.7057
tp1158
a(g20
g6
F0.9842
tp1159
a(g5
g6
F0.9969
tp1160
asI2270
(lp1161
(g9
g10
F0.9401
tp1162
a(S'wha(t'
p1163
g86
F0.9248
tp1164
a(g193
g6
F0.9707
tp1165
a(S'do'
p1166
g39
F0.999
tp1167
a(S'you'
p1168
g86
F0.9997
tp1169
a(S'do'
p1170
g39
F0.9994
tp1171
a(g14
g15
F0.6345
tp1172
a(g17
g15
F0.535
tp1173
a(g9
g10
F0.8293
tp1174
a(g20
g6
F0.9927
tp1175
a(S'when'
p1176
g81
F0.9828
tp1177
a(S'you'
p1178
g86
F0.9985
tp1179
a(S'go'
p1180
g39
F0.9986
tp1181
a(S'to'
p1182
g104
F0.985
tp1183
a(S'school'
p1184
g32
F0.9723
tp1185
a(g43
g6
F0.9985
tp1186
asI223
(lp1187
(S'zzz'
p1188
g75
F0.3756
tp1189
a(g5
g6
F0.9972
tp1190
asI227
(lp1191
(g9
g10
F0.9112
tp1192
a(S'Mommy'
p1193
g32
F0.5708
tp1194
a(g14
g50
F0.4522
tp1195
a(g17
g6
F0.9218
tp1196
a(g14
g15
F0.5563
tp1197
a(g20
g15
F0.5168
tp1198
a(g75
g6
F0.9723
tp1199
asI2276
(lp1200
(S'go'
p1201
g39
F0.9724
tp1202
a(S'on'
p1203
g104
F0.9742
tp1204
a(S'field'
p1205
g32
F0.7861
tp1206
a(S'trips'
p1207
g32
F0.9962
tp1208
a(g43
g6
F0.9984
tp1209
asI231
(lp1210
(g9
g10
F0.9138
tp1211
a(S'thank'
p1212
g39
F0.9794
tp1213
a(S'you'
p1214
g86
F0.9994
tp1215
a(g14
g15
F0.3835
tp1216
a(g17
g15
F0.535
tp1217
a(g9
g10
F0.6902
tp1218
a(g20
g6
F0.9839
tp1219
a(g5
g6
F0.9962
tp1220
asI2280
(lp1221
(S'paint'
p1222
g32
F0.6213
tp1223
a(g5
g6
F0.9986
tp1224
asI2940
(lp1225
(S'somebody'
p1226
g32
F0.9637
tp1227
a(S'near(ly'
p1228
g81
F0.9958
tp1229
a(g193
g6
F0.9865
tp1230
a(S'punched'
p1231
g39
F0.9972
tp1232
a(S'my'
p1233
g97
F0.9976
tp1234
a(S'Mommy'
p1235
g32
F0.9278
tp1236
a(S'in'
p1237
g104
F0.9988
tp1238
a(S'the'
p1239
g97
F0.9996
tp1240
a(S'face'
p1241
g32
F0.9991
tp1242
a(g5
g6
F0.9983
tp1243
asI234
(lp1244
(S'thank'
p1245
g39
F0.9661
tp1246
a(S'you'
p1247
g86
F0.999
tp1248
a(g17
g6
F0.9933
tp1249
a(g14
g15
F0.5453
tp1250
a(g20
g6
F0.7789
tp1251
a(g5
g6
F0.995
tp1252
asI2284
(lp1253
(S'paint'
p1254
g32
F0.5685
tp1255
a(g17
g6
F0.9902
tp1256
a(g14
g15
F0.3811
tp1257
a(g20
g6
F0.5836
tp1258
a(g43
g6
F0.9963
tp1259
asI239
(lp1260
(S'zzz'
p1261
g50
F0.409
tp1262
a(g17
g6
F0.9451
tp1263
a(g9
g10
F0.972
tp1264
a(g20
g6
F0.9847
tp1265
a(g5
g6
F0.9962
tp1266
asI2288
(lp1267
(S'paint'
p1268
g32
F0.5685
tp1269
a(g17
g6
F0.9909
tp1270
a(g9
g10
F0.972
tp1271
a(g20
g6
F0.974
tp1272
a(g43
g6
F0.9963
tp1273
asI243
(lp1274
(S'do'
p1275
g39
F0.9985
tp1276
a(S'you'
p1277
g86
F0.9996
tp1278
a(S'want'
p1279
g39
F0.9994
tp1280
a(S'ketchup'
p1281
g32
F0.9834
tp1282
a(g17
g6
F0.984
tp1283
a(g14
g15
F0.6043
tp1284
a(g20
g6
F0.5753
tp1285
a(g43
g6
F0.996
tp1286
asI2292
(lp1287
(S'an(d'
p1288
g191
F0.8847
tp1289
a(g193
g6
F0.974
tp1290
a(S'what'
p1291
g86
F0.9825
tp1292
a(S'else'
p1293
g81
F0.9168
tp1294
a(g43
g6
F0.998
tp1295
asI247
(lp1296
(S'zzz'
p1297
g50
F0.409
tp1298
a(g17
g6
F0.9451
tp1299
a(g9
g10
F0.972
tp1300
a(g20
g6
F0.9847
tp1301
a(g5
g6
F0.9962
tp1302
asI2296
(lp1303
(S'color'
p1304
g32
F0.9683
tp1305
a(g43
g6
F0.9976
tp1306
asI250
(lp1307
(S'zzz'
p1308
g50
F0.409
tp1309
a(g17
g6
F0.9395
tp1310
a(g14
g15
F0.3811
tp1311
a(g20
g6
F0.7604
tp1312
a(g5
g6
F0.9962
tp1313
asI2736
(lp1314
(S'at'
p1315
g104
F0.9909
tp1316
a(S'home'
p1317
g32
F0.9809
tp1318
a(g5
g6
F0.9988
tp1319
asI2300
(lp1320
(S'color'
p1321
g32
F0.9772
tp1322
a(g5
g6
F0.998
tp1323
asI254
(lp1324
(S'yes'
p1325
g75
F0.9832
tp1326
a(g17
g6
F0.9851
tp1327
a(g9
g10
F0.9843
tp1328
a(g20
g6
F0.9723
tp1329
a(S'(.)'
p1330
g15
F0.2781
tp1331
a(g5
g6
F0.9509
tp1332
asI2303
(lp1333
(S'what'
p1334
g86
F0.9757
tp1335
a(S'else'
p1336
g81
F0.7845
tp1337
a(g5
g6
F0.9977
tp1338
asI257
(lp1339
(S'xxx'
p1340
g15
F0.7647
tp1341
a(S'(.)'
p1342
g15
F0.8124
tp1343
a(g5
g6
F0.9705
tp1344
asI2306
(lp1345
(S'd(o'
p1346
g39
F0.5104
tp1347
a(g193
g6
F0.9605
tp1348
a(g9
g10
F0.954
tp1349
a(S'you'
p1350
g86
F0.9973
tp1351
a(S'make'
p1352
g39
F0.9935
tp1353
a(g14
g6
F0.2471
tp1354
a(S'[/]'
p1355
g6
F0.3313
tp1356
a(S'you'
p1357
g86
F0.9981
tp1358
a(S'make'
p1359
g39
F0.9964
tp1360
a(S'things'
p1361
g32
F0.9964
tp1362
a(g43
g6
F0.9984
tp1363
asI259
(lp1364
(S'wha(t'
p1365
g86
F0.8878
tp1366
a(g193
g6
F0.9755
tp1367
a(S'd(o'
p1368
g39
F0.704
tp1369
a(g193
g6
F0.9942
tp1370
a(S'you'
p1371
g86
F0.9981
tp1372
a(S'want'
p1373
g39
F0.9996
tp1374
a(S'Tanya'
p1375
g3
F0.9968
tp1376
a(S'ketchup'
p1377
g32
F0.8507
tp1378
a(g43
g6
F0.9979
tp1379
asI2310
(lp1380
(S'xxx'
p1381
g15
F0.8981
tp1382
a(g17
g6
F0.661
tp1383
a(g14
g15
F0.3811
tp1384
a(g20
g6
F0.7604
tp1385
a(g5
g6
F0.9962
tp1386
asI263
(lp1387
(S'nope'
p1388
g75
F0.9942
tp1389
a(g5
g6
F0.9975
tp1390
asI266
(lp1391
(S'zzz'
p1392
g75
F0.3756
tp1393
a(g5
g6
F0.9972
tp1394
asI2315
(lp1395
(S'papers'
p1396
g32
F0.9688
tp1397
a(g17
g6
F0.9858
tp1398
a(g14
g15
F0.3811
tp1399
a(g20
g6
F0.5836
tp1400
a(g43
g6
F0.9963
tp1401
asI2873
(lp1402
(S"somebody's"
p1403
g78
F0.8363
tp1404
a(S'goin(g'
p1405
g39
F0.4922
tp1406
a(g193
g6
F0.9521
tp1407
a(g511
g6
F0.9713
tp1408
a(S'ta'
p1409
g104
F0.7669
tp1410
a(g193
g6
F0.9927
tp1411
a(S's(teal'
p1412
g39
F0.7099
tp1413
a(g193
g6
F0.9937
tp1414
a(S'take'
p1415
g39
F0.9933
tp1416
a(S'that'
p1417
g97
F0.807
tp1418
a(S'shovel'
p1419
g32
F0.9637
tp1420
a(S'an(d'
p1421
g191
F0.8376
tp1422
a(g193
g6
F0.9789
tp1423
a(g5
g6
F0.9976
tp1424
asI270
(lp1425
(g9
g10
F0.9359
tp1426
a(S'want'
p1427
g39
F0.9924
tp1428
a(S'ketchup'
p1429
g32
F0.933
tp1430
a(S'Michele'
p1431
g3
F0.995
tp1432
a(g14
g50
F0.2873
tp1433
a(g17
g6
F0.899
tp1434
a(g14
g15
F0.5886
tp1435
a(g20
g6
F0.6496
tp1436
a(g43
g6
F0.9965
tp1437
asI2319
(lp1438
(S'numbers'
p1439
g32
F0.9681
tp1440
a(g17
g6
F0.9923
tp1441
a(S'<][>'
p1442
g15
F0.2489
tp1443
a(g20
g6
F0.7381
tp1444
a(g43
g6
F0.9963
tp1445
asI273
(lp1446
(g9
g10
F0.9526
tp1447
a(g395
g86
F0.9988
tp1448
a(S'want'
p1449
g39
F1.0
tp1450
a(S'some'
p1451
g97
F0.8751
tp1452
a(g14
g15
F0.3701
tp1453
a(g17
g15
F0.535
tp1454
a(g9
g10
F0.7057
tp1455
a(g20
g6
F0.9842
tp1456
a(g5
g6
F0.9969
tp1457
asI2869
(lp1458
(g9
g10
F0.9112
tp1459
a(S'Mommy'
p1460
g32
F0.5708
tp1461
a(g14
g50
F0.4522
tp1462
a(g17
g6
F0.9261
tp1463
a(g9
g10
F0.9635
tp1464
a(g20
g6
F0.9848
tp1465
a(S'see'
p1466
g39
F0.9249
tp1467
a(g43
g6
F0.9975
tp1468
asI2323
(lp1469
(S'xxx'
p1470
g15
F0.8981
tp1471
a(g17
g6
F0.6622
tp1472
a(g9
g10
F0.9843
tp1473
a(g20
g6
F0.9894
tp1474
a(S'play'
p1475
g39
F0.956
tp1476
a(g5
g6
F0.9978
tp1477
asI276
(lp1478
(S'ketchup'
p1479
g32
F0.9201
tp1480
a(S'please'
p1481
g39
F0.9226
tp1482
a(g17
g6
F0.9833
tp1483
a(g14
g15
F0.5453
tp1484
a(g20
g6
F0.7789
tp1485
a(g5
g6
F0.995
tp1486
asI2326
(lp1487
(S'you'
p1488
g86
F0.997
tp1489
a(S'write'
p1490
g39
F0.9997
tp1491
a(S'your'
p1492
g97
F0.9957
tp1493
a(S'name'
p1494
g32
F0.9998
tp1495
a(g43
g6
F0.9983
tp1496
asI280
(lp1497
(g9
g10
F0.9526
tp1498
a(g395
g86
F0.9988
tp1499
a(S'want'
p1500
g39
F0.9996
tp1501
a(g14
g15
F0.5804
tp1502
a(g17
g15
F0.535
tp1503
a(g9
g10
F0.8293
tp1504
a(g20
g6
F0.9834
tp1505
a(S'ketchup'
p1506
g32
F0.9845
tp1507
a(g5
g6
F0.9989
tp1508
asI2330
(lp1509
(S'mhm'
p1510
g75
F0.9761
tp1511
a(g5
g6
F0.9962
tp1512
asI283
(lp1513
(S'zzz'
p1514
g75
F0.3756
tp1515
a(g5
g6
F0.9972
tp1516
asI2333
(lp1517
(S'yeah'
p1518
g75
F0.9986
tp1519
a(g5
g6
F0.997
tp1520
asI286
(lp1521
(S'zzz'
p1522
g50
F0.409
tp1523
a(g17
g6
F0.9395
tp1524
a(g14
g15
F0.3811
tp1525
a(g20
g6
F0.7604
tp1526
a(g5
g6
F0.9962
tp1527
asI2336
(lp1528
(g9
g10
F0.9094
tp1529
a(S'an(d'
p1530
g191
F0.9355
tp1531
a(g193
g6
F0.9774
tp1532
a(g395
g86
F0.9907
tp1533
a(g14
g15
F0.3467
tp1534
a(g17
g15
F0.5345
tp1535
a(g14
g15
F0.9532
tp1536
a(g20
g6
F0.5946
tp1537
a(g1039
g191
F0.4772
tp1538
a(S'...'
p1539
g6
F0.5782
tp1540
asI290
(lp1541
(S'xxx'
p1542
g15
F0.8981
tp1543
a(g17
g6
F0.6622
tp1544
a(g9
g10
F0.972
tp1545
a(g20
g6
F0.9847
tp1546
a(g5
g6
F0.9962
tp1547
asI291
(lp1548
(S'please'
p1549
g39
F0.8849
tp1550
a(g17
g6
F0.9879
tp1551
a(g14
g15
F0.3811
tp1552
a(g20
g6
F0.7604
tp1553
a(g5
g6
F0.9962
tp1554
asI2340
(lp1555
(S'what'
p1556
g86
F0.9738
tp1557
a(g17
g6
F0.9703
tp1558
a(g9
g10
F0.9843
tp1559
a(g20
g6
F0.9909
tp1560
a(S'else'
p1561
g81
F0.8356
tp1562
a(g5
g6
F0.997
tp1563
asI295
(lp1564
(S'zzz'
p1565
g50
F0.409
tp1566
a(g17
g6
F0.9451
tp1567
a(g9
g10
F0.972
tp1568
a(g20
g6
F0.9847
tp1569
a(g5
g6
F0.9962
tp1570
asI298
(lp1571
(S'zzz'
p1572
g50
F0.409
tp1573
a(g17
g6
F0.9395
tp1574
a(g14
g15
F0.3811
tp1575
a(g20
g6
F0.7604
tp1576
a(g5
g6
F0.9962
tp1577
asI2349
(lp1578
(S'play'
p1579
g39
F0.7609
tp1580
a(g5
g6
F0.9979
tp1581
asI302
(lp1582
(S'please'
p1583
g39
F0.8849
tp1584
a(g17
g6
F0.9884
tp1585
a(g9
g10
F0.972
tp1586
a(g20
g6
F0.9847
tp1587
a(g5
g6
F0.9962
tp1588
asI2352
(lp1589
(S'play'
p1590
g39
F0.9227
tp1591
a(S'ground'
p1592
g32
F0.7081
tp1593
a(g5
g6
F0.999
tp1594
asI305
(lp1595
(S'please'
p1596
g39
F0.8368
tp1597
a(g5
g6
F0.9977
tp1598
asI2355
(lp1599
(S'play'
p1600
g39
F0.9282
tp1601
a(S'ground'
p1602
g32
F0.7331
tp1603
a(g17
g6
F0.9866
tp1604
a(g14
g15
F0.5453
tp1605
a(g20
g6
F0.7789
tp1606
a(g5
g6
F0.995
tp1607
asI308
(lp1608
(S'please'
p1609
g39
F0.8917
tp1610
a(S'(.)'
p1611
g3
F0.3637
tp1612
a(g5
g6
F0.9933
tp1613
asI2358
(lp1614
(S'field'
p1615
g32
F0.8019
tp1616
a(g17
g6
F0.9895
tp1617
a(g9
g10
F0.972
tp1618
a(g20
g6
F0.9847
tp1619
a(g5
g6
F0.9962
tp1620
asI311
(lp1621
(S'oh'
p1622
g75
F0.9941
tp1623
a(g17
g6
F0.939
tp1624
a(g75
g6
F0.9842
tp1625
a(g20
g6
F0.9826
tp1626
a(g395
g86
F0.9974
tp1627
a(S'got'
p1628
g39
F0.9999
tp1629
a(g278
g97
F0.9977
tp1630
a(S'lot'
p1631
g32
F0.9636
tp1632
a(g17
g6
F0.9865
tp1633
a(g75
g6
F0.9904
tp1634
a(g20
g6
F0.9774
tp1635
a(g5
g6
F0.9936
tp1636
asI2361
(lp1637
(S'make'
p1638
g39
F0.6893
tp1639
a(g17
g6
F0.9871
tp1640
a(g14
g10
F0.3399
tp1641
a(g20
g6
F0.9574
tp1642
a(S'(.)'
p1643
g15
F0.2781
tp1644
a(g5
g6
F0.9509
tp1645
asI314
(lp1646
(S'yep'
p1647
g75
F0.9972
tp1648
a(g5
g6
F0.9971
tp1649
asI2783
(lp1650
(S'know'
p1651
g39
F0.9912
tp1652
a(S'if'
p1653
g104
F0.997
tp1654
a(g395
g86
F0.9998
tp1655
a(S'did'
p1656
g39
F0.9983
tp1657
a(g43
g6
F0.9977
tp1658
asI2364
(lp1659
(S'puzzles'
p1660
g32
F0.9823
tp1661
a(g17
g6
F0.9835
tp1662
a(g9
g10
F0.972
tp1663
a(g20
g6
F0.974
tp1664
a(g43
g6
F0.9963
tp1665
asI317
(lp1666
(g511
g6
F0.9426
tp1667
a(S'y)um'
p1668
g75
F0.9697
tp1669
a(g5
g6
F0.9975
tp1670
asI320
(lp1671
(S'ketchup'
p1672
g32
F0.8978
tp1673
a(S'for'
p1674
g104
F0.9996
tp1675
a(S'Johnny'
p1676
g3
F0.9992
tp1677
a(g5
g6
F0.9954
tp1678
asI2371
(lp1679
(S'zzz'
p1680
g50
F0.409
tp1681
a(g17
g6
F0.9451
tp1682
a(g9
g10
F0.972
tp1683
a(g20
g6
F0.9847
tp1684
a(g5
g6
F0.9962
tp1685
asI324
(lp1686
(S'there'
p1687
S'X'
p1688
F0.8572
tp1689
a(S'is'
p1690
g39
F0.9981
tp1691
a(S'no'
p1692
g97
F0.5781
tp1693
a(S'more'
p1694
g32
F0.5752
tp1695
a(g5
g6
F0.999
tp1696
asI2374
(lp1697
(S'zzz'
p1698
g50
F0.409
tp1699
a(g17
g6
F0.9395
tp1700
a(g14
g15
F0.3811
tp1701
a(g20
g6
F0.7604
tp1702
a(g5
g6
F0.9962
tp1703
asI328
(lp1704
(S'sorry'
p1705
g66
F0.6822
tp1706
a(S'(.)'
p1707
g3
F0.3626
tp1708
a(g5
g6
F0.9933
tp1709
asI3216
(lp1710
(S'just'
p1711
g81
F0.9962
tp1712
a(S'kind'
p1713
g32
F0.5143
tp1714
a(S'of'
p1715
g104
F0.9956
tp1716
a(S'have_to'
p1717
g39
F0.9346
tp1718
a(S'go'
p1719
g39
F0.995
tp1720
a(g5
g6
F0.9973
tp1721
asI331
(lp1722
(S'they'
p1723
g86
F0.9926
tp1724
a(S'have'
p1725
g39
F0.9993
tp1726
a(S'more'
p1727
g66
F0.4892
tp1728
a(S'up'
p1729
g104
F0.489
tp1730
a(S'in'
p1731
g104
F0.9821
tp1732
a(S'that'
p1733
g97
F0.9264
tp1734
a(S'machine'
p1735
g32
F0.995
tp1736
a(g17
g6
F0.9875
tp1737
a(g14
g15
F0.4696
tp1738
a(g20
g6
F0.795
tp1739
a(g5
g6
F0.9964
tp1740
asI2383
(lp1741
(S'yeah'
p1742
g75
F0.9986
tp1743
a(g5
g6
F0.997
tp1744
asI336
(lp1745
(g9
g10
F0.9314
tp1746
a(S"we're"
p1747
g78
F0.9424
tp1748
a(S'gonna'
p1749
g39
F0.984
tp1750
a(g14
g15
F0.4976
tp1751
a(g17
g15
F0.535
tp1752
a(g9
g10
F0.8293
tp1753
a(g20
g6
F0.985
tp1754
a(S'be'
p1755
g39
F0.993
tp1756
a(S'at'
p1757
g104
F0.9984
tp1758
a(S"Jennifer's"
p1759
g790
F0.4678
tp1760
a(S'tomorrow'
p1761
g32
F0.9859
tp1762
a(g5
g6
F0.9937
tp1763
asI2386
(lp1764
(S'xxx'
p1765
g15
F0.5822
tp1766
a(g5
g6
F0.9648
tp1767
asI2387
(lp1768
(S'an(d'
p1769
g191
F0.8847
tp1770
a(g193
g6
F0.9841
tp1771
a(S'she'
p1772
g86
F0.9962
tp1773
a(S'takes'
p1774
g39
F0.9983
tp1775
a(S'walks'
p1776
g39
F0.9679
tp1777
a(g5
g6
F0.9977
tp1778
asI341
(lp1779
(S'night'
p1780
g32
F0.8989
tp1781
a(g17
g6
F0.989
tp1782
a(g14
g15
F0.3811
tp1783
a(g20
g6
F0.7604
tp1784
a(g5
g6
F0.9962
tp1785
asI2390
(lp1786
(S'huh'
p1787
g75
F0.9936
tp1788
a(g43
g6
F0.9967
tp1789
asI345
(lp1790
(S'yeah'
p1791
g75
F0.9951
tp1792
a(g17
g6
F0.9843
tp1793
a(g9
g10
F0.972
tp1794
a(g20
g6
F0.9661
tp1795
a(g75
g6
F0.997
tp1796
asI2394
(lp1797
(S'we'
p1798
g86
F0.9955
tp1799
a(S'go'
p1800
g39
F0.9984
tp1801
a(S'on'
p1802
g104
F0.9842
tp1803
a(S'the'
p1804
g97
F0.9993
tp1805
a(S'school'
p1806
g32
F0.9938
tp1807
a(S'bus'
p1808
g32
F0.9955
tp1809
a(g5
g6
F0.9989
tp1810
asI349
(lp1811
(S'wow'
p1812
g75
F0.9986
tp1813
a(g75
g6
F0.9956
tp1814
asI352
(lp1815
(S'what'
p1816
g86
F0.9931
tp1817
a(S'do'
p1818
g39
F0.9993
tp1819
a(S'you'
p1820
g86
F0.9997
tp1821
a(S'do'
p1822
g39
F0.9999
tp1823
a(S'you'
p1824
g86
F0.9988
tp1825
a(g9
g10
F0.7527
tp1826
a(S'do'
p1827
g39
F0.9971
tp1828
a(S'there'
p1829
g81
F0.6892
tp1830
a(g14
g15
F0.5498
tp1831
a(g17
g15
F0.5345
tp1832
a(g14
g15
F0.9597
tp1833
a(g20
g6
F0.4989
tp1834
a(g43
g6
F0.9952
tp1835
asI2401
(lp1836
(S'you'
p1837
g86
F0.9963
tp1838
a(S'ride'
p1839
g39
F0.994
tp1840
a(S'on'
p1841
g104
F0.9462
tp1842
a(S'the'
p1843
g97
F0.9993
tp1844
a(S'school'
p1845
g32
F0.9938
tp1846
a(S'bus'
p1847
g32
F0.993
tp1848
a(g43
g6
F0.9986
tp1849
asI355
(lp1850
(S'yeah'
p1851
g75
F0.9951
tp1852
a(g17
g6
F0.9843
tp1853
a(g9
g10
F0.9843
tp1854
a(g20
g6
F0.9458
tp1855
a(g17
g6
F0.9721
tp1856
a(g43
g6
F0.982
tp1857
a(g20
g6
F0.9134
tp1858
a(g5
g6
F0.9962
tp1859
asI2405
(lp1860
(S'yeah'
p1861
g75
F0.9986
tp1862
a(g5
g6
F0.997
tp1863
asI358
(lp1864
(S'an(d'
p1865
g191
F0.8847
tp1866
a(g193
g6
F0.9804
tp1867
a(S'[///]'
p1868
g6
F0.4413
tp1869
a(S'when'
p1870
g81
F0.9942
tp1871
a(S'Mommy'
p1872
g3
F0.565
tp1873
a(g43
g6
F0.9958
tp1874
asI2408
(lp1875
(S'mm'
p1876
g75
F0.5842
tp1877
a(g5
g6
F0.9932
tp1878
asI361
(lp1879
(S'when'
p1880
g81
F0.9862
tp1881
a(S'Daddy'
p1882
g32
F0.6369
tp1883
a(S'babysitted'
p1884
g50
F0.3031
tp1885
a(S'@n'
p1886
S'@'
p1887
F0.9966
tp1888
a(S'on'
p1889
g104
F0.9935
tp1890
a(S'he'
p1891
g86
F0.9946
tp1892
a(S'(.)'
p1893
g50
F0.4044
tp1894
a(S'Johnny'
p1895
g3
F0.9987
tp1896
a(S'and'
p1897
g191
F0.9986
tp1898
a(S'&-uh'
p1899
g75
F0.303
tp1900
a(S'Mom'
p1901
g32
F0.7888
tp1902
a(g5
g6
F0.9974
tp1903
asI2411
(lp1904
(g9
g10
F0.9001
tp1905
a(S'you'
p1906
g86
F0.9928
tp1907
a(S'like'
p1908
g39
F0.8805
tp1909
a(S'that'
p1910
g86
F0.9151
tp1911
a(g14
g15
F0.4384
tp1912
a(g17
g15
F0.5345
tp1913
a(g14
g15
F0.9732
tp1914
a(g20
g6
F0.6496
tp1915
a(g43
g6
F0.9965
tp1916
asI367
(lp1917
(S'an(d'
p1918
g191
F0.8847
tp1919
a(g193
g6
F0.982
tp1920
a(S'tell'
p1921
g39
F0.9972
tp1922
a(S'me'
p1923
g86
F0.9992
tp1924
a(S'what'
p1925
g86
F0.8851
tp1926
a(S'you'
p1927
g86
F0.9996
tp1928
a(S'do'
p1929
g39
F0.9997
tp1930
a(S'at'
p1931
g104
F0.9928
tp1932
a(S"Jennifer's"
p1933
g3
F0.4673
tp1934
a(g5
g6
F0.9917
tp1935
asI2418
(lp1936
(S'xxx'
p1937
g15
F0.5822
tp1938
a(g5
g6
F0.9648
tp1939
asI2419
(lp1940
(S'what'
p1941
g86
F0.9923
tp1942
a(S'was'
p1943
g39
F0.9994
tp1944
a(S'your'
p1945
g97
F0.9939
tp1946
a(S'school'
p1947
g32
F0.9981
tp1948
a(S'bus'
p1949
g32
F0.9657
tp1950
a(S"driver's"
p1951
S'S'
p1952
F0.6345
tp1953
a(S'name'
p1954
g32
F0.998
tp1955
a(g5
g6
F0.9985
tp1956
asI372
(lp1957
(S'<<'
p1958
g10
F0.8979
tp1959
a(S'let'
p1960
g39
F0.9923
tp1961
a(S'Tanya'
p1962
g3
F0.9964
tp1963
a(g14
g3
F0.2587
tp1964
a(S'[/]'
p1965
g3
F0.7442
tp1966
a(S'let'
p1967
g39
F0.9745
tp1968
a(S'Tanya'
p1969
g3
F0.9949
tp1970
a(g14
g15
F0.3974
tp1971
a(g17
g15
F0.5345
tp1972
a(g14
g15
F0.9532
tp1973
a(g20
g6
F0.7712
tp1974
a(S'tell'
p1975
g39
F0.9985
tp1976
a(S'me'
p1977
g86
F0.9989
tp1978
a(g5
g6
F0.9991
tp1979
asI2110
(lp1980
(S'zzz'
p1981
g50
F0.409
tp1982
a(g17
g6
F0.9395
tp1983
a(g14
g15
F0.3811
tp1984
a(g20
g6
F0.7604
tp1985
a(g5
g6
F0.9962
tp1986
asI375
(lp1987
(g9
g10
F0.925
tp1988
a(S'we'
p1989
g86
F0.9961
tp1990
a(S'went'
p1991
g39
F0.9992
tp1992
a(S'upstairs'
p1993
g81
F0.3552
tp1994
a(g14
g15
F0.6469
tp1995
a(g17
g15
F0.535
tp1996
a(g9
g10
F0.7057
tp1997
a(g20
g6
F0.9842
tp1998
a(g5
g6
F0.9969
tp1999
asI2425
(lp2000
(S'hm'
p2001
g75
F0.9811
tp2002
a(S':'
p2003
g6
F0.891
tp2004
a(g43
g6
F0.9885
tp2005
asI378
(lp2006
(S'an(d'
p2007
g191
F0.8847
tp2008
a(g193
g6
F0.9742
tp2009
a(S'wha(t'
p2010
g86
F0.8784
tp2011
a(g193
g6
F0.9824
tp2012
a(S'do'
p2013
g39
F0.9991
tp2014
a(S'you'
p2015
g86
F0.9997
tp2016
a(S'do'
p2017
g39
F0.9989
tp2018
a(g5
g6
F0.9973
tp2019
asI381
(lp2020
(S'we'
p2021
g86
F0.9962
tp2022
a(S'went'
p2023
g39
F0.9983
tp2024
a(S'upstairs'
p2025
g32
F0.5346
tp2026
a(g5
g6
F0.9983
tp2027
asI384
(lp2028
(S'we'
p2029
g86
F0.9867
tp2030
a(S'sleep'
p2031
g39
F0.9583
tp2032
a(S'on'
p2033
g104
F0.98
tp2034
a(S'the'
p2035
g97
F0.9994
tp2036
a(S'floor'
p2037
g32
F0.9983
tp2038
a(g5
g6
F0.9986
tp2039
asI2435
(lp2040
(g9
g10
F0.9409
tp2041
a(S'Lilly'
p2042
g3
F0.9983
tp2043
a(S'Ann'
p2044
g3
F0.9964
tp2045
a(g14
g15
F0.2996
tp2046
a(g17
g15
F0.5345
tp2047
a(g14
g15
F0.9749
tp2048
a(g20
g6
F0.5753
tp2049
a(g43
g6
F0.996
tp2050
asI388
(lp2051
(S'an(d'
p2052
g191
F0.8847
tp2053
a(g193
g6
F0.974
tp2054
a(S'what'
p2055
g86
F0.9825
tp2056
a(S'else'
p2057
g81
F0.9168
tp2058
a(g43
g6
F0.998
tp2059
asI2439
(lp2060
(g9
g10
F0.9409
tp2061
a(S'Lilly'
p2062
g3
F0.9983
tp2063
a(S'Ann'
p2064
g3
F0.9964
tp2065
a(g14
g15
F0.2996
tp2066
a(g17
g15
F0.535
tp2067
a(g9
g10
F0.6902
tp2068
a(g20
g6
F0.9731
tp2069
a(g43
g6
F0.996
tp2070
asI392
(lp2071
(S'we'
p2072
g86
F0.9962
tp2073
a(S'went'
p2074
g39
F0.9994
tp2075
a(S'in'
p2076
g104
F0.967
tp2077
a(S'the'
p2078
g97
F0.9992
tp2079
a(S'pool'
p2080
g32
F0.9993
tp2081
a(g5
g6
F0.9986
tp2082
asI395
(lp2083
(S'yeah'
p2084
g75
F0.9986
tp2085
a(g5
g6
F0.997
tp2086
asI2853
(lp2087
(g9
g10
F0.9185
tp2088
a(S"le(t)'s"
p2089
g78
F0.9896
tp2090
a(S'see'
p2091
g39
F0.9955
tp2092
a(g14
g15
F0.4844
tp2093
a(g17
g15
F0.5345
tp2094
a(g14
g15
F0.9749
tp2095
a(g20
g6
F0.7541
tp2096
a(g5
g6
F0.9962
tp2097
asI398
(lp2098
(S'hey'
p2099
g75
F0.998
tp2100
a(g5
g6
F0.9968
tp2101
asI401
(lp2102
(g9
g10
F0.8939
tp2103
a(S'in'
p2104
g104
F0.9949
tp2105
a(S'the'
p2106
g97
F0.9908
tp2107
a(g14
g15
F0.2223
tp2108
a(g17
g15
F0.5345
tp2109
a(g14
g15
F0.9532
tp2110
a(g20
g6
F0.7408
tp2111
a(S'pool'
p2112
g32
F0.9933
tp2113
a(g5
g6
F0.9991
tp2114
asI2450
(lp2115
(S'yep'
p2116
g75
F0.9972
tp2117
a(g5
g6
F0.9971
tp2118
asI404
(lp2119
(g9
g10
F0.9369
tp2120
a(S'knock'
p2121
g39
F0.9891
tp2122
a(S'it'
p2123
g86
F0.9895
tp2124
a(S'off'
p2125
g662
F0.8185
tp2126
a(g14
g15
F0.4509
tp2127
a(g17
g15
F0.535
tp2128
a(g9
g10
F0.7057
tp2129
a(g20
g6
F0.9842
tp2130
a(g5
g6
F0.9969
tp2131
asI2453
(lp2132
(S'one'
p2133
g63
F0.958
tp2134
a(S'two'
p2135
g63
F0.9083
tp2136
a(S'three'
p2137
g63
F0.8504
tp2138
a(g5
g6
F0.9976
tp2139
asI407
(lp2140
(S'hey'
p2141
g75
F0.998
tp2142
a(g5
g6
F0.9968
tp2143
asI2457
(lp2144
(S'you'
p2145
g86
F0.998
tp2146
a(S'want'
p2147
g39
F0.9989
tp2148
a(S'milk'
p2149
g32
F0.9948
tp2150
a(g43
g6
F0.9974
tp2151
asI410
(lp2152
(S'xxx'
p2153
g15
F0.5911
tp2154
a(S'at'
p2155
g104
F0.9994
tp2156
a(S'the'
p2157
g97
F0.9992
tp2158
a(S'pool'
p2159
g32
F0.9986
tp2160
a(g43
g6
F0.9989
tp2161
asI2799
(lp2162
(g9
g10
F0.9511
tp2163
a(S'Tanya'
p2164
g3
F0.9952
tp2165
a(S'tell'
p2166
g39
F0.7524
tp2167
a(g511
g6
F0.9933
tp2168
a(S'h)er'
p2169
g32
F0.3202
tp2170
a(g14
g15
F0.4422
tp2171
a(g17
g15
F0.535
tp2172
a(g9
g10
F0.8293
tp2173
a(g20
g6
F0.9815
tp2174
a(S'[//]'
p2175
g6
F0.2883
tp2176
a(S'tell'
p2177
g39
F0.8273
tp2178
a(g511
g6
F0.9918
tp2179
a(S'h)er'
p2180
g39
F0.8373
tp2181
a(S'you'
p2182
g86
F0.9988
tp2183
a(S'put'
p2184
g39
F0.9989
tp2185
a(S'the'
p2186
g97
F0.9995
tp2187
a(S'sprinkler'
p2188
g32
F0.9957
tp2189
a(S'on'
p2190
g104
F0.9772
tp2191
a(g5
g6
F0.9969
tp2192
asI413
(lp2193
(S'zzz'
p2194
g75
F0.3756
tp2195
a(g5
g6
F0.9972
tp2196
asI2103
(lp2197
(S'mm'
p2198
g75
F0.5842
tp2199
a(g5
g6
F0.9932
tp2200
asI417
(lp2201
(S'you'
p2202
g86
F0.9963
tp2203
a(S'go'
p2204
g39
F0.9985
tp2205
a(S'in'
p2206
g104
F0.9811
tp2207
a(S'the'
p2208
g97
F0.9992
tp2209
a(S'pool'
p2210
g32
F0.9977
tp2211
a(g43
g6
F0.9983
tp2212
asI2468
(lp2213
(S'water'
p2214
g32
F0.9754
tp2215
a(S'please'
p2216
g39
F0.9427
tp2217
a(g5
g6
F0.9979
tp2218
asI421
(lp2219
(g9
g10
F0.925
tp2220
a(S'we'
p2221
g86
F0.9961
tp2222
a(S'go'
p2223
g39
F0.9989
tp2224
a(S'upstairs'
p2225
g81
F0.5539
tp2226
a(g14
g15
F0.6469
tp2227
a(g17
g15
F0.5345
tp2228
a(g14
g15
F0.9732
tp2229
a(g20
g6
F0.8062
tp2230
a(g5
g6
F0.9969
tp2231
asI2471
(lp2232
(S'please'
p2233
g39
F0.8917
tp2234
a(S'(.)'
p2235
g3
F0.3637
tp2236
a(g5
g6
F0.9933
tp2237
asI424
(lp2238
(S'zzz'
p2239
g50
F0.409
tp2240
a(g17
g6
F0.9451
tp2241
a(g9
g10
F0.972
tp2242
a(g20
g6
F0.9847
tp2243
a(g5
g6
F0.9962
tp2244
asI2474
(lp2245
(S'hi'
p2246
g75
F0.9526
tp2247
a(S'Mom'
p2248
g32
F0.8157
tp2249
a(g5
g6
F0.9984
tp2250
asI428
(lp2251
(S'zzz'
p2252
g50
F0.409
tp2253
a(g17
g6
F0.9395
tp2254
a(g14
g15
F0.3811
tp2255
a(g20
g6
F0.7604
tp2256
a(g5
g6
F0.9962
tp2257
asI2477
(lp2258
(S'xxx'
p2259
g15
F0.8981
tp2260
a(g17
g6
F0.661
tp2261
a(g14
g15
F0.3811
tp2262
a(g20
g6
F0.7604
tp2263
a(g5
g6
F0.9962
tp2264
asI2478
(lp2265
(g9
g10
F0.9112
tp2266
a(S'Mama'
p2267
g32
F0.6887
tp2268
a(g14
g50
F0.4522
tp2269
a(g17
g6
F0.9261
tp2270
a(g9
g10
F0.948
tp2271
a(g20
g6
F0.9666
tp2272
a(g43
g6
F0.9959
tp2273
asI2461
(lp2274
(S'water'
p2275
g32
F0.9854
tp2276
a(g5
g6
F0.9983
tp2277
asI432
(lp2278
(g9
g10
F0.9001
tp2279
a(S'you'
p2280
g86
F0.9967
tp2281
a(S'go'
p2282
g39
F0.999
tp2283
a(S'in'
p2284
g104
F0.9888
tp2285
a(S'the'
p2286
g97
F0.9992
tp2287
a(S'pool'
p2288
g32
F0.9977
tp2289
a(S'an(d'
p2290
g191
F0.9437
tp2291
a(g193
g6
F0.9817
tp2292
a(S'the'
p2293
g97
F0.9828
tp2294
a(g14
g15
F0.2024
tp2295
a(g17
g15
F0.535
tp2296
a(g9
g10
F0.8293
tp2297
a(g20
g6
F0.9837
tp2298
a(S'hot'
p2299
g66
F0.9877
tp2300
a(S'tub'
p2301
g32
F0.9982
tp2302
a(g43
g6
F0.9982
tp2303
asI2482
(lp2304
(S'zzz'
p2305
g75
F0.3756
tp2306
a(g5
g6
F0.9972
tp2307
asI437
(lp2308
(S'yeah'
p2309
g75
F0.9951
tp2310
a(g17
g6
F0.9838
tp2311
a(g14
g15
F0.3811
tp2312
a(g20
g6
F0.5836
tp2313
a(g43
g6
F0.9963
tp2314
asI2486
(lp2315
(S'zzz'
p2316
g75
F0.3756
tp2317
a(g5
g6
F0.9972
tp2318
asI440
(lp2319
(g9
g10
F0.9362
tp2320
a(S'hot'
p2321
g66
F0.9848
tp2322
a(S'tub'
p2323
g32
F0.9976
tp2324
a(g14
g15
F0.6512
tp2325
a(g17
g15
F0.5345
tp2326
a(g14
g15
F0.9749
tp2327
a(g20
g6
F0.5753
tp2328
a(g43
g6
F0.996
tp2329
asI2490
(lp2330
(S'zzz'
p2331
g75
F0.3756
tp2332
a(g5
g6
F0.9972
tp2333
asI443
(lp2334
(g9
g10
F0.9774
tp2335
a(S'hey'
p2336
g75
F0.9951
tp2337
a(S'Ma'
p2338
g3
F0.331
tp2339
a(S'we'
p2340
g86
F0.9688
tp2341
a(S'sleep'
p2342
g39
F0.8761
tp2343
a(g14
g15
F0.5351
tp2344
a(g17
g15
F0.535
tp2345
a(g9
g10
F0.8293
tp2346
a(g20
g6
F0.9874
tp2347
a(S'downstairs'
p2348
g32
F0.8566
tp2349
a(g17
g6
F0.9853
tp2350
a(g75
g6
F0.985
tp2351
a(g20
g6
F0.9709
tp2352
a(g5
g6
F0.9977
tp2353
asI446
(lp2354
(S'zzz'
p2355
g75
F0.3756
tp2356
a(g5
g6
F0.9972
tp2357
asI2495
(lp2358
(S'xxx'
p2359
g15
F0.8981
tp2360
a(g17
g6
F0.661
tp2361
a(g14
g15
F0.3811
tp2362
a(g20
g6
F0.7604
tp2363
a(g5
g6
F0.9962
tp2364
asI2496
(lp2365
(g9
g10
F0.9768
tp2366
a(S'oh'
p2367
g75
F0.9958
tp2368
a(S'Tanya'
p2369
g3
F0.994
tp2370
a(S"you're>"
p2371
g78
F0.8966
tp2372
a(g17
g6
F0.9745
tp2373
a(g9
g10
F0.9635
tp2374
a(g20
g6
F0.9893
tp2375
a(S'almost'
p2376
g81
F0.9574
tp2377
a(S'all'
p2378
g97
F0.6941
tp2379
a(S'done'
p2380
g39
F0.8592
tp2381
a(S'with'
p2382
g104
F0.9992
tp2383
a(S'your'
p2384
g97
F0.9953
tp2385
a(S'supper'
p2386
g32
F0.9979
tp2387
a(g5
g6
F0.9992
tp2388
asI2464
(lp2389
(S'please'
p2390
g39
F0.7885
tp2391
a(g43
g6
F0.9975
tp2392
asI450
(lp2393
(S'downstairs'
p2394
g32
F0.8223
tp2395
a(g17
g6
F0.9833
tp2396
a(g9
g10
F0.9843
tp2397
a(g20
g6
F0.9458
tp2398
a(g17
g6
F0.9615
tp2399
a(g14
g15
F0.6043
tp2400
a(g20
g6
F0.5753
tp2401
a(g43
g6
F0.996
tp2402
asI3147
(lp2403
(S'huh'
p2404
g75
F0.9936
tp2405
a(g43
g6
F0.9967
tp2406
asI453
(lp2407
(S'no'
p2408
g75
F0.8465
tp2409
a(S'we'
p2410
g86
F0.9721
tp2411
a(S'sleep'
p2412
g39
F0.9822
tp2413
a(S'down'
p2414
g662
F0.4224
tp2415
a(S'cellar'
p2416
g32
F0.9923
tp2417
a(g5
g6
F0.9981
tp2418
asI456
(lp2419
(S'zzz'
p2420
g75
F0.3756
tp2421
a(g5
g6
F0.9972
tp2422
asI2507
(lp2423
(S'couple'
p2424
g32
F0.7797
tp2425
a(S'more'
p2426
g66
F0.711
tp2427
a(g5
g6
F0.9985
tp2428
asI460
(lp2429
(S'everybody'
p2430
g32
F0.9087
tp2431
a(g9
g10
F0.4425
tp2432
a(S'can'
p2433
g39
F0.9962
tp2434
a(S'start'
p2435
g39
F0.999
tp2436
a(S'eating'
p2437
g39
F0.9883
tp2438
a(g14
g15
F0.4977
tp2439
a(g17
g15
F0.5345
tp2440
a(g14
g15
F0.9555
tp2441
a(g20
g6
F0.8291
tp2442
a(g5
g6
F0.9959
tp2443
asI2510
(lp2444
(S'zzz'
p2445
g75
F0.3756
tp2446
a(g5
g6
F0.9972
tp2447
asI463
(lp2448
(S'zzz'
p2449
g50
F0.409
tp2450
a(g17
g6
F0.9727
tp2451
a(S'<][>'
p2452
g15
F0.2489
tp2453
a(g20
g6
F0.862
tp2454
a(g5
g6
F0.9962
tp2455
asI2514
(lp2456
(S'good'
p2457
g66
F0.967
tp2458
a(g5
g6
F0.998
tp2459
asI467
(lp2460
(S'now'
p2461
g81
F0.9839
tp2462
a(g17
g6
F0.9947
tp2463
a(S'<][>'
p2464
g15
F0.2489
tp2465
a(g20
g6
F0.862
tp2466
a(g5
g6
F0.9962
tp2467
asI2517
(lp2468
(S'Mom'
p2469
g32
F0.7757
tp2470
a(S'look'
p2471
g39
F0.9239
tp2472
a(g17
g6
F0.9792
tp2473
a(g14
g15
F0.5453
tp2474
a(g20
g6
F0.7789
tp2475
a(g5
g6
F0.995
tp2476
asI470
(lp2477
(S'they'
p2478
g86
F0.9815
tp2479
a(g17
g6
F0.9739
tp2480
a(g9
g10
F0.9843
tp2481
a(g20
g6
F0.9884
tp2482
a(S'sleep'
p2483
g39
F0.9208
tp2484
a(S'down'
p2485
g662
F0.5139
tp2486
a(g5
g6
F0.9979
tp2487
asI2520
(lp2488
(S'couple'
p2489
g32
F0.8991
tp2490
a(g17
g6
F0.9847
tp2491
a(g9
g10
F0.9843
tp2492
a(g20
g6
F0.9773
tp2493
a(S'more'
p2494
g66
F0.6733
tp2495
a(g5
g6
F0.9982
tp2496
asI473
(lp2497
(S'cellar'
p2498
g32
F0.9721
tp2499
a(g17
g6
F0.9853
tp2500
a(g14
g15
F0.3811
tp2501
a(g20
g6
F0.7604
tp2502
a(g5
g6
F0.9962
tp2503
asI2523
(lp2504
(S"I'm"
p2505
g78
F0.9967
tp2506
a(S'done'
p2507
g39
F0.6688
tp2508
a(g5
g6
F0.9988
tp2509
asI477
(lp2510
(S'zzz'
p2511
g50
F0.409
tp2512
a(g17
g6
F0.9727
tp2513
a(S'<][>'
p2514
g15
F0.2489
tp2515
a(g20
g6
F0.862
tp2516
a(g5
g6
F0.9962
tp2517
asI2526
(lp2518
(S'open'
p2519
g39
F0.4634
tp2520
a(S'(.)'
p2521
g3
F0.698
tp2522
a(g5
g6
F0.9933
tp2523
asI481
(lp2524
(g9
g10
F0.9373
tp2525
a(S'start'
p2526
g39
F0.9844
tp2527
a(S'eating'
p2528
g39
F0.989
tp2529
a(g14
g15
F0.5248
tp2530
a(g17
g15
F0.535
tp2531
a(g9
g10
F0.8293
tp2532
a(g20
g6
F0.979
tp2533
a(S'Johnny'
p2534
g3
F0.998
tp2535
a(g5
g6
F0.9967
tp2536
asI2530
(lp2537
(S"it's"
p2538
g78
F0.9954
tp2539
a(S'gonna'
p2540
g39
F0.99
tp2541
a(S'cry'
p2542
g39
F0.9673
tp2543
a(g17
g6
F0.987
tp2544
a(g43
g6
F0.9841
tp2545
a(g20
g6
F0.9242
tp2546
a(S'in'
p2547
g104
F0.9852
tp2548
a(S'your'
p2549
g97
F0.9963
tp2550
a(S'mouth'
p2551
g32
F0.9995
tp2552
a(g278
g97
F0.9756
tp2553
a(S'lot'
p2554
g32
F0.7104
tp2555
a(S'quicker'
p2556
g66
F0.9011
tp2557
a(S'(.)'
p2558
g32
F0.28
tp2559
a(g5
g6
F0.9988
tp2560
asI484
(lp2561
(S'here'
p2562
g81
F0.9075
tp2563
a(g17
g6
F0.9892
tp2564
a(g14
g10
F0.3399
tp2565
a(g20
g6
F0.9883
tp2566
a(S'you'
p2567
g86
F0.9956
tp2568
a(S'go'
p2569
g39
F0.9903
tp2570
a(g5
g6
F0.9977
tp2571
asI487
(lp2572
(S'zzz'
p2573
g50
F0.409
tp2574
a(g17
g6
F0.9451
tp2575
a(g9
g10
F0.972
tp2576
a(g20
g6
F0.9847
tp2577
a(g5
g6
F0.9962
tp2578
asI2537
(lp2579
(S"you're"
p2580
g78
F0.9929
tp2581
a(S'done'
p2582
g39
F0.715
tp2583
a(g43
g6
F0.9986
tp2584
asI491
(lp2585
(S'we'
p2586
g86
F0.9912
tp2587
a(S'[/]'
p2588
g39
F0.4032
tp2589
a(S'we'
p2590
g86
F0.9987
tp2591
a(S'can'
p2592
g39
F0.9995
tp2593
a(g9
g10
F0.7836
tp2594
a(S'Mommy'
p2595
g3
F0.4782
tp2596
a(S'ask'
p2597
g39
F0.8723
tp2598
a(g511
g6
F0.9893
tp2599
a(S'A)manda'
p2600
g3
F0.6699
tp2601
a(g14
g3
F0.2879
tp2602
a(S'[//]'
p2603
g3
F0.7846
tp2604
a(S'Mommy'
p2605
g3
F0.9418
tp2606
a(S'ask'
p2607
g39
F0.8723
tp2608
a(g511
g6
F0.9893
tp2609
a(S'A)manda'
p2610
g3
F0.756
tp2611
a(S'if'
p2612
g104
F0.9981
tp2613
a(S'she'
p2614
g86
F0.999
tp2615
a(S'can'
p2616
g39
F0.9991
tp2617
a(S'come'
p2618
g39
F0.9995
tp2619
a(S'see'
p2620
g39
F0.9982
tp2621
a(S'us'
p2622
g86
F0.8885
tp2623
a(g5
g6
F0.9979
tp2624
asI2541
(lp2625
(S'd(o'
p2626
g39
F0.5104
tp2627
a(g193
g6
F0.9929
tp2628
a(S'you'
p2629
g86
F0.9981
tp2630
a(S'wan(t'
p2631
g39
F0.9987
tp2632
a(g193
g6
F0.9928
tp2633
a(S'another'
p2634
g97
F0.9585
tp2635
a(S'one'
p2636
g63
F0.8357
tp2637
a(g43
g6
F0.9968
tp2638
asI496
(lp2639
(S'oh'
p2640
g75
F0.9987
tp2641
a(S'yeah'
p2642
g75
F0.9997
tp2643
a(g43
g6
F0.9973
tp2644
asI500
(lp2645
(S'okay'
p2646
g75
F0.9044
tp2647
a(S'start'
p2648
g39
F0.9531
tp2649
a(S'eating'
p2650
g39
F0.9902
tp2651
a(S'(.)'
p2652
g3
F0.2452
tp2653
a(g5
g6
F0.9943
tp2654
asI503
(lp2655
(S"it's"
p2656
g78
F0.9887
tp2657
a(S'hot'
p2658
g66
F0.9916
tp2659
a(g5
g6
F0.9985
tp2660
asI506
(lp2661
(S'ow'
p2662
g75
F0.9684
tp2663
a(g5
g6
F0.9969
tp2664
asI509
(lp2665
(S'ow'
p2666
g75
F0.9684
tp2667
a(g5
g6
F0.9969
tp2668
asI2133
(lp2669
(S'where'
p2670
g81
F0.9806
tp2671
a(S'you'
p2672
g86
F0.9994
tp2673
a(S'gonna'
p2674
g39
F0.9995
tp2675
a(S'go'
p2676
g39
F0.9992
tp2677
a(S'to'
p2678
g104
F0.9871
tp2679
a(S'school'
p2680
g32
F0.7649
tp2681
a(S'next'
p2682
g66
F0.7299
tp2683
a(S'year'
p2684
g32
F0.9551
tp2685
a(S'(.)'
p2686
g50
F0.2514
tp2687
a(g5
g6
F0.99
tp2688
asI512
(lp2689
(S'ow'
p2690
g75
F0.879
tp2691
a(g17
g6
F0.9833
tp2692
a(g14
g15
F0.3811
tp2693
a(g20
g6
F0.7604
tp2694
a(g5
g6
F0.9962
tp2695
asI515
(lp2696
(S'ow'
p2697
g75
F0.879
tp2698
a(g17
g6
F0.9838
tp2699
a(g9
g10
F0.972
tp2700
a(g20
g6
F0.9847
tp2701
a(g5
g6
F0.9962
tp2702
asI2564
(lp2703
(S'hm'
p2704
g75
F0.9699
tp2705
a(g2003
g6
F0.7686
tp2706
a(g17
g6
F0.8714
tp2707
a(g9
g10
F0.9215
tp2708
a(g20
g6
F0.9743
tp2709
a(g43
g6
F0.995
tp2710
asI518
(lp2711
(S'ow'
p2712
g75
F0.9684
tp2713
a(g5
g6
F0.9969
tp2714
asI2568
(lp2715
(S'd(o'
p2716
g39
F0.5104
tp2717
a(g193
g6
F0.9929
tp2718
a(S'you'
p2719
g86
F0.9973
tp2720
a(S'play'
p2721
g39
F0.9841
tp2722
a(g43
g6
F0.9981
tp2723
asI521
(lp2724
(S'no'
p2725
g75
F0.9704
tp2726
a(g5
g6
F0.9989
tp2727
asI524
(lp2728
(g9
g10
F0.9387
tp2729
a(S'le(t'
p2730
g39
F0.6796
tp2731
a(g193
g6
F0.9925
tp2732
a(S'me'
p2733
g86
F0.9967
tp2734
a(S'see'
p2735
g39
F0.9665
tp2736
a(g14
g15
F0.4624
tp2737
a(g17
g15
F0.5345
tp2738
a(g14
g15
F0.9555
tp2739
a(g20
g6
F0.8291
tp2740
a(g5
g6
F0.9959
tp2741
asI527
(lp2742
(S'ow'
p2743
g75
F0.879
tp2744
a(g17
g6
F0.9838
tp2745
a(g9
g10
F0.972
tp2746
a(g20
g6
F0.9847
tp2747
a(g5
g6
F0.9962
tp2748
asI2576
(lp2749
(S'in'
p2750
g104
F0.9543
tp2751
a(g278
g97
F0.982
tp2752
a(S'play'
p2753
g32
F0.7336
tp2754
a(S'room'
p2755
g32
F0.9954
tp2756
a(S'(.)'
p2757
g50
F0.3823
tp2758
a(g43
g6
F0.988
tp2759
asI3160
(lp2760
(S'back'
p2761
g81
F0.5457
tp2762
a(g5
g6
F0.9983
tp2763
asI530
(lp2764
(S'would'
p2765
g39
F0.9987
tp2766
a(S'you'
p2767
g86
F0.9984
tp2768
a(S'get'
p2769
g39
F0.9999
tp2770
a(S'the'
p2771
g97
F0.9989
tp2772
a(S'relish'
p2773
g32
F0.9907
tp2774
a(S'please'
p2775
g39
F0.9763
tp2776
a(S'(.)'
p2777
g3
F0.4341
tp2778
a(g43
g6
F0.995
tp2779
asI2580
(lp2780
(g9
g10
F0.925
tp2781
a(S'we'
p2782
g86
F0.9957
tp2783
a(S'pick'
p2784
g39
F0.994
tp2785
a(g14
g6
F0.3264
tp2786
a(S'[/]'
p2787
g6
F0.3467
tp2788
a(S'we'
p2789
g86
F0.9908
tp2790
a(S'+/'
p2791
g39
F0.2278
tp2792
a(g5
g6
F0.9973
tp2793
asI533
(lp2794
(S'Mama'
p2795
g32
F0.7713
tp2796
a(g9
g10
F0.4687
tp2797
a(g395
g86
F0.9986
tp2798
a(S'got'
p2799
g39
F0.9992
tp2800
a(g14
g15
F0.3025
tp2801
a(S'[//]'
p2802
g15
F0.5822
tp2803
a(g395
g86
F0.9958
tp2804
a(S"can't"
p2805
g39
F0.9999
tp2806
a(S'have'
p2807
g39
F0.9995
tp2808
a(S'ketchup'
p2809
g32
F0.9923
tp2810
a(g5
g6
F0.9987
tp2811
asI2583
(lp2812
(S'we'
p2813
g86
F0.9953
tp2814
a(S'read'
p2815
g39
F0.9973
tp2816
a(S'books'
p2817
g32
F0.9646
tp2818
a(g5
g6
F0.9987
tp2819
asI536
(lp2820
(S'oh'
p2821
g75
F0.9961
tp2822
a(S'alright'
p2823
g75
F0.9843
tp2824
a(S'just'
p2825
g81
F0.9993
tp2826
a(S'you'
p2827
g86
F0.9982
tp2828
a(S'eat'
p2829
g39
F0.9998
tp2830
a(S'it'
p2831
g86
F0.9201
tp2832
a(S'plain'
p2833
g66
F0.7701
tp2834
a(S'then'
p2835
g81
F0.9919
tp2836
a(g5
g6
F0.9973
tp2837
asI2586
(lp2838
(S'huh'
p2839
g75
F0.9936
tp2840
a(g43
g6
F0.9967
tp2841
asI2882
(lp2842
(S"don't"
p2843
g39
F0.9987
tp2844
a(S'worry'
p2845
g39
F0.9998
tp2846
a(S'about'
p2847
g104
F0.987
tp2848
a(S'it'
p2849
g86
F0.9987
tp2850
a(g5
g6
F0.9989
tp2851
asI541
(lp2852
(g395
g86
F0.9983
tp2853
a(S'want'
p2854
g39
F1.0
tp2855
a(S'some'
p2856
g97
F0.9434
tp2857
a(S'o(f'
p2858
g32
F0.3209
tp2859
a(g193
g6
F0.9938
tp2860
a(S'that'
p2861
g86
F0.774
tp2862
a(S'on'
p2863
g104
F0.9741
tp2864
a(S'please'
p2865
g39
F0.5881
tp2866
a(g5
g6
F0.9985
tp2867
asI2592
(lp2868
(S'read'
p2869
g39
F0.8086
tp2870
a(g17
g6
F0.989
tp2871
a(g9
g10
F0.9843
tp2872
a(g20
g6
F0.9837
tp2873
a(S'books'
p2874
g32
F0.9091
tp2875
a(g43
g6
F0.9981
tp2876
asI545
(lp2877
(S'you'
p2878
g86
F0.9923
tp2879
a(S'like'
p2880
g39
F0.7193
tp2881
a(S'this'
p2882
g86
F0.9677
tp2883
a(g43
g6
F0.9984
tp2884
asI2139
(lp2885
(g395
g86
F0.9976
tp2886
a(S"don't"
p2887
g39
F1.0
tp2888
a(S'know'
p2889
g39
F0.9986
tp2890
a(g5
g6
F0.9981
tp2891
asI549
(lp2892
(S'yep'
p2893
g75
F0.9972
tp2894
a(g5
g6
F0.9971
tp2895
asI2598
(lp2896
(S'play'
p2897
g39
F0.9075
tp2898
a(S'games'
p2899
g32
F0.9953
tp2900
a(g43
g6
F0.9979
tp2901
asI552
(lp2902
(S'no'
p2903
g75
F0.825
tp2904
a(S"that's"
p2905
g78
F0.9926
tp2906
a(S'gonna'
p2907
g39
F0.9922
tp2908
a(S'be'
p2909
g39
F0.9998
tp2910
a(S'the'
p2911
g97
F0.998
tp2912
a(S'same'
p2913
g66
F0.9962
tp2914
a(S'thing'
p2915
g32
F0.9963
tp2916
a(S'Michele'
p2917
g3
F0.9985
tp2918
a(g5
g6
F0.9967
tp2919
asI2602
(lp2920
(g9
g10
F0.9407
tp2921
a(S'n(o)'
p2922
g75
F0.5454
tp2923
a(g14
g15
F0.2593
tp2924
a(S'[/]'
p2925
g15
F0.4307
tp2926
a(S'no'
p2927
g75
F0.4679
tp2928
a(S'xxx'
p2929
g32
F0.772
tp2930
a(g5
g6
F0.9982
tp2931
asI557
(lp2932
(S"it's"
p2933
g78
F0.9954
tp2934
a(S'gonna'
p2935
g39
F0.9929
tp2936
a(S'be'
p2937
g39
F0.9992
tp2938
a(S'too'
p2939
g81
F0.9997
tp2940
a(S'much'
p2941
g66
F0.696
tp2942
a(S'for'
p2943
g104
F0.9998
tp2944
a(S'you'
p2945
g86
F0.9992
tp2946
a(g17
g6
F0.9952
tp2947
a(g14
g15
F0.4438
tp2948
a(g20
g6
F0.5773
tp2949
a(g1039
g191
F0.4652
tp2950
a(S'...'
p2951
g10
F0.5944
tp2952
asI2608
(lp2953
(S"what's"
p2954
g78
F0.9925
tp2955
a(S'your'
p2956
g97
F0.9806
tp2957
a(S'favorite'
p2958
g66
F0.9189
tp2959
a(S'thing'
p2960
g32
F0.978
tp2961
a(S'you'
p2962
g86
F0.9958
tp2963
a(S'got'
p2964
g39
F0.9995
tp2965
a(S'for'
p2966
g104
F0.9971
tp2967
a(S'your'
p2968
g97
F0.9962
tp2969
a(S'birthday'
p2970
g32
F0.9986
tp2971
a(S'(.)'
p2972
g50
F0.3501
tp2973
a(g43
g6
F0.9898
tp2974
asI562
(lp2975
(S'yyy'
p2976
g81
F0.4571
tp2977
a(g17
g6
F0.9541
tp2978
a(g9
g10
F0.972
tp2979
a(g20
g6
F0.9847
tp2980
a(g5
g6
F0.9962
tp2981
asI564
(lp2982
(g9
g10
F0.9199
tp2983
a(S'me'
p2984
g86
F0.9977
tp2985
a(g14
g50
F0.3072
tp2986
a(S'[/]'
p2987
g50
F0.2927
tp2988
a(g17
g6
F0.9142
tp2989
a(g14
g15
F0.6043
tp2990
a(g20
g6
F0.7541
tp2991
a(g5
g6
F0.9962
tp2992
asI565
(lp2993
(g9
g10
F0.9328
tp2994
a(S"it's"
p2995
g78
F0.9955
tp2996
a(S'gonna'
p2997
g39
F0.9935
tp2998
a(S'be'
p2999
g39
F0.9985
tp3000
a(g14
g15
F0.4711
tp3001
a(g17
g15
F0.535
tp3002
a(g9
g10
F0.8293
tp3003
a(g20
g6
F0.9918
tp3004
a(S'too'
p3005
g81
F0.9984
tp3006
a(S'much'
p3007
g66
F0.6845
tp3008
a(S'for'
p3009
g104
F0.9918
tp3010
a(g5
g6
F0.9939
tp3011
asI2614
(lp3012
(S'you'
p3013
g86
F0.9896
tp3014
a(g9
g10
F0.5697
tp3015
a(S'have'
p3016
g39
F0.9989
tp3017
a(g278
g97
F0.9993
tp3018
a(S'favorite'
p3019
g66
F0.9888
tp3020
a(S'thing'
p3021
g32
F0.9984
tp3022
a(g14
g15
F0.7853
tp3023
a(g17
g15
F0.5345
tp3024
a(g14
g15
F0.9577
tp3025
a(g20
g6
F0.6335
tp3026
a(g43
g6
F0.9962
tp3027
asI569
(lp3028
(g9
g10
F0.9031
tp3029
a(S'your'
p3030
g97
F0.7164
tp3031
a(S'xxx'
p3032
g32
F0.5012
tp3033
a(g14
g15
F0.4475
tp3034
a(g17
g15
F0.5345
tp3035
a(g14
g15
F0.9749
tp3036
a(g20
g6
F0.7541
tp3037
a(g5
g6
F0.9962
tp3038
asI2618
(lp3039
(g9
g10
F0.9303
tp3040
a(S'Cookie'
p3041
g32
F0.8968
tp3042
a(S'Monster'
p3043
g32
F0.8223
tp3044
a(g14
g15
F0.5766
tp3045
a(g17
g15
F0.535
tp3046
a(g9
g10
F0.6902
tp3047
a(g20
g6
F0.9731
tp3048
a(g43
g6
F0.996
tp3049
asI572
(lp3050
(g9
g10
F0.9199
tp3051
a(S'me'
p3052
g86
F0.9891
tp3053
a(g278
g97
F0.8977
tp3054
a(g14
g15
F0.3094
tp3055
a(g17
g15
F0.535
tp3056
a(g9
g10
F0.8293
tp3057
a(g20
g6
F0.9886
tp3058
a(S'little'
p3059
g66
F0.9818
tp3060
a(g5
g6
F0.9988
tp3061
asI2622
(lp3062
(S'Cookie'
p3063
g32
F0.964
tp3064
a(S'Monster'
p3065
g32
F0.8363
tp3066
a(g43
g6
F0.9945
tp3067
asI575
(lp3068
(S'just'
p3069
g81
F0.9981
tp3070
a(g278
g97
F0.9919
tp3071
a(S'little'
p3072
g66
F0.9969
tp3073
a(S'bit'
p3074
g32
F0.9488
tp3075
a(g43
g6
F0.9966
tp3076
asI578
(lp3077
(S'yeah'
p3078
g75
F0.9986
tp3079
a(g5
g6
F0.997
tp3080
asI2627
(lp3081
(S'oh'
p3082
g75
F0.9881
tp3083
a(S'your'
p3084
g97
F0.865
tp3085
a(S'Cookie'
p3086
g32
F0.9831
tp3087
a(S'Monster'
p3088
g3
F0.5068
tp3089
a(S'wagon'
p3090
g32
F0.9159
tp3091
a(g43
g6
F0.9977
tp3092
asI581
(lp3093
(S'like'
p3094
g104
F0.7814
tp3095
a(S'that'
p3096
g86
F0.6437
tp3097
a(S'much'
p3098
g66
F0.7664
tp3099
a(g5
g6
F0.9986
tp3100
asI584
(lp3101
(S'Tanya'
p3102
g3
F0.9841
tp3103
a(S'what'
p3104
g86
F0.9956
tp3105
a(S'did'
p3106
g39
F0.9993
tp3107
a(S'you'
p3108
g86
F0.9993
tp3109
a(S'do'
p3110
g39
F0.9997
tp3111
a(S'today'
p3112
g32
F0.9804
tp3113
a(g43
g6
F0.9977
tp3114
asI589
(lp3115
(S'what'
p3116
g86
F0.9171
tp3117
a(g43
g6
F0.9924
tp3118
asI593
(lp3119
(S'what'
p3120
g86
F0.9965
tp3121
a(S'did'
p3122
g39
F0.9994
tp3123
a(S'you'
p3124
g86
F0.9994
tp3125
a(S'do'
p3126
g39
F0.9991
tp3127
a(S'today'
p3128
g32
F0.9716
tp3129
a(g43
g6
F0.9972
tp3130
asI597
(lp3131
(S'at'
p3132
g104
F0.9917
tp3133
a(S'Jennifer'
p3134
g3
F0.9994
tp3135
a(S'house'
p3136
g32
F0.826
tp3137
a(g43
g6
F0.9986
tp3138
asI2648
(lp3139
(S'Disney'
p3140
g32
F0.5743
tp3141
a(S'(.)'
p3142
g50
F0.459
tp3143
a(g43
g6
F0.987
tp3144
asI601
(lp3145
(S'no'
p3146
g75
F0.8389
tp3147
a(g17
g6
F0.9933
tp3148
a(g14
g15
F0.3811
tp3149
a(g20
g6
F0.7604
tp3150
a(g5
g6
F0.9962
tp3151
asI2652
(lp3152
(S'yeah'
p3153
g75
F0.9951
tp3154
a(g17
g6
F0.9838
tp3155
a(g14
g15
F0.3811
tp3156
a(g20
g6
F0.7604
tp3157
a(g5
g6
F0.9962
tp3158
asI605
(lp3159
(S'no'
p3160
g75
F0.8389
tp3161
a(g17
g6
F0.9936
tp3162
a(g9
g10
F0.972
tp3163
a(g20
g6
F0.9847
tp3164
a(g5
g6
F0.9962
tp3165
asI2149
(lp3166
(S"who's"
p3167
g78
F0.9513
tp3168
a(S'your'
p3169
g97
F0.9813
tp3170
a(S'teacher'
p3171
g32
F0.9984
tp3172
a(g5
g6
F0.9985
tp3173
asI608
(lp3174
(S'here'
p3175
g81
F0.8674
tp3176
a(g5
g6
F0.9983
tp3177
asI2832
(lp3178
(S'later'
p3179
g81
F0.768
tp3180
a(g17
g6
F0.9816
tp3181
a(g9
g10
F0.972
tp3182
a(g20
g6
F0.974
tp3183
a(g43
g6
F0.9963
tp3184
asI2066
(lp3185
(S'oh'
p3186
g75
F0.9942
tp3187
a(g9
g10
F0.8325
tp3188
a(S'(re)member'
p3189
g39
F0.9621
tp3190
a(g14
g6
F0.2841
tp3191
a(S'[/]'
p3192
g3
F0.1617
tp3193
a(g17
g6
F0.9762
tp3194
a(g14
g15
F0.5886
tp3195
a(g20
g6
F0.8062
tp3196
a(g5
g6
F0.9969
tp3197
asI611
(lp3198
(g511
g6
F0.9422
tp3199
a(S'di)d'
p3200
g39
F0.9924
tp3201
a(S'you'
p3202
g86
F0.999
tp3203
a(S'go'
p3204
g39
F0.9985
tp3205
a(S'in'
p3206
g104
F0.9827
tp3207
a(S'your'
p3208
g97
F0.9915
tp3209
a(S'sprinkler'
p3210
g32
F0.9989
tp3211
a(g43
g6
F0.9983
tp3212
asI2661
(lp3213
(S'Mommy'
p3214
g32
F0.8032
tp3215
a(g395
g86
F0.9728
tp3216
a(g9
g10
F0.9633
tp3217
a(S'want'
p3218
g39
F0.9975
tp3219
a(S'that'
p3220
g86
F0.7079
tp3221
a(g14
g15
F0.4384
tp3222
a(g17
g15
F0.5345
tp3223
a(g14
g15
F0.9555
tp3224
a(g20
g6
F0.8291
tp3225
a(g5
g6
F0.9959
tp3226
asI616
(lp3227
(S'yeah'
p3228
g75
F0.9986
tp3229
a(g5
g6
F0.997
tp3230
asI2667
(lp3231
(S'sit'
p3232
g39
F0.9825
tp3233
a(S'down'
p3234
g662
F0.8648
tp3235
a(g5
g6
F0.9978
tp3236
asI620
(lp3237
(S'an(d'
p3238
g191
F0.8847
tp3239
a(g193
g6
F0.974
tp3240
a(S'what'
p3241
g86
F0.9772
tp3242
a(S'else'
p3243
g81
F0.8977
tp3244
a(S'did'
p3245
g39
F0.9992
tp3246
a(S'you'
p3247
g86
F0.9989
tp3248
a(S'play'
p3249
g39
F0.9988
tp3250
a(S'with'
p3251
g104
F0.9893
tp3252
a(S'down'
p3253
g66
F0.6454
tp3254
a(S'cellar'
p3255
g32
F0.9976
tp3256
a(g5
g6
F0.9987
tp3257
asI2670
(lp3258
(S'zzz'
p3259
g50
F0.3535
tp3260
a(S"you're"
p3261
g78
F0.9727
tp3262
a(S'all'
p3263
g97
F0.7605
tp3264
a(S'done'
p3265
g66
F0.4158
tp3266
a(g17
g6
F0.9925
tp3267
a(g75
g6
F0.9901
tp3268
a(g20
g6
F0.9549
tp3269
a(S'(.)'
p3270
g15
F0.3075
tp3271
a(g43
g6
F0.9799
tp3272
asI625
(lp3273
(S'with'
p3274
g104
F0.9879
tp3275
a(S'bats'
p3276
g32
F0.9935
tp3277
a(g5
g6
F0.9986
tp3278
asI2675
(lp3279
(S'good'
p3280
g66
F0.9939
tp3281
a(S'boy'
p3282
g32
F0.9984
tp3283
a(g5
g6
F0.9982
tp3284
asI628
(lp3285
(S'pony'
p3286
g32
F0.9405
tp3287
a(S'pony'
p3288
g32
F0.9907
tp3289
a(S'pony'
p3290
g32
F0.9981
tp3291
a(g17
g6
F0.9869
tp3292
a(g14
g15
F0.5563
tp3293
a(g20
g6
F0.6899
tp3294
a(g5
g6
F0.9959
tp3295
asI2544
(lp3296
(S'oh'
p3297
g75
F0.9878
tp3298
a(S'you'
p3299
g86
F0.9961
tp3300
a(S'ate'
p3301
g39
F0.998
tp3302
a(g9
g10
F0.7364
tp3303
a(S'another'
p3304
g97
F0.9215
tp3305
a(S'huh'
p3306
g75
F0.5059
tp3307
a(g14
g15
F0.556
tp3308
a(g17
g15
F0.5345
tp3309
a(g14
g15
F0.9577
tp3310
a(g20
g6
F0.6335
tp3311
a(g43
g6
F0.9962
tp3312
asI2678
(lp3313
(S'zzz'
p3314
g50
F0.5434
tp3315
a(S'(.)'
p3316
g50
F0.453
tp3317
a(g5
g6
F0.9899
tp3318
asI631
(lp3319
(g9
g10
F0.9094
tp3320
a(S'an(d'
p3321
g191
F0.9355
tp3322
a(g193
g6
F0.9799
tp3323
a(S'with'
p3324
g104
F0.9839
tp3325
a(S'ponies'
p3326
g32
F0.9733
tp3327
a(g14
g15
F0.5784
tp3328
a(g17
g15
F0.535
tp3329
a(g9
g10
F0.7916
tp3330
a(g20
g6
F0.9773
tp3331
a(g43
g6
F0.9957
tp3332
asI2682
(lp3333
(S'are'
p3334
g39
F0.9964
tp3335
a(S'you'
p3336
g86
F0.9949
tp3337
a(g278
g97
F0.9881
tp3338
a(S'good'
p3339
g66
F0.999
tp3340
a(S'girl'
p3341
g32
F0.9956
tp3342
a(S'Tanya'
p3343
g3
F0.9894
tp3344
a(S'an(d'
p3345
g191
F0.8381
tp3346
a(g193
g6
F0.9861
tp3347
a(g278
g97
F0.9875
tp3348
a(S'bad'
p3349
g66
F0.9957
tp3350
a(S'girl'
p3351
g32
F0.9967
tp3352
a(S'sometimes'
p3353
g81
F0.9781
tp3354
a(g43
g6
F0.9967
tp3355
asI635
(lp3356
(g9
g10
F0.9094
tp3357
a(S'an(d)'
p3358
g191
F0.9531
tp3359
a(g14
g15
F0.3773
tp3360
a(g17
g15
F0.4959
tp3361
a(g14
g15
F0.9532
tp3362
a(g20
g6
F0.7914
tp3363
a(S'did'
p3364
g39
F0.9996
tp3365
a(S'you'
p3366
g86
F0.9989
tp3367
a(S'play'
p3368
g39
F0.9973
tp3369
a(S'house'
p3370
g32
F0.8849
tp3371
a(S'(.)'
p3372
g15
F0.3238
tp3373
a(g43
g6
F0.9592
tp3374
asI640
(lp3375
(g9
g10
F0.9094
tp3376
a(S'an(d'
p3377
g191
F0.9355
tp3378
a(g193
g6
F0.9701
tp3379
a(S'ponies'
p3380
g32
F0.9661
tp3381
a(g14
g15
F0.5784
tp3382
a(g17
g6
F0.7297
tp3383
a(S'<][>'
p3384
g15
F0.3942
tp3385
a(g20
g6
F0.8888
tp3386
a(g5
g6
F0.9969
tp3387
asI643
(lp3388
(S'yeah'
p3389
g75
F0.9951
tp3390
a(g17
g6
F0.9843
tp3391
a(g9
g10
F0.972
tp3392
a(g20
g6
F0.9847
tp3393
a(g5
g6
F0.9962
tp3394
asI646
(lp3395
(S'you'
p3396
g86
F0.9896
tp3397
a(g9
g10
F0.5089
tp3398
a(S'play'
p3399
g39
F0.9763
tp3400
a(S'house'
p3401
g32
F0.969
tp3402
a(g14
g15
F0.5411
tp3403
a(g17
g15
F0.5345
tp3404
a(g14
g15
F0.9732
tp3405
a(g20
g6
F0.6496
tp3406
a(g43
g6
F0.9965
tp3407
asI649
(lp3408
(S'<&-'
p3409
g10
F0.2985
tp3410
a(S'uh'
p3411
g75
F0.8966
tp3412
a(S'no'
p3413
g75
F0.7943
tp3414
a(g14
g15
F0.4467
tp3415
a(g17
g15
F0.535
tp3416
a(g9
g10
F0.6902
tp3417
a(g20
g6
F0.9839
tp3418
a(g5
g6
F0.9962
tp3419
asI2698
(lp3420
(S'do'
p3421
g39
F0.9985
tp3422
a(S'you'
p3423
g86
F0.9997
tp3424
a(S'know'
p3425
g39
F0.998
tp3426
a(S'(.)'
p3427
g3
F0.2933
tp3428
a(g43
g6
F0.9955
tp3429
asI652
(lp3430
(S'yep'
p3431
g75
F0.9972
tp3432
a(g5
g6
F0.9971
tp3433
asI2702
(lp3434
(S'y(ou'
p3435
g86
F0.774
tp3436
a(g193
g6
F0.9937
tp3437
a(S"don't"
p3438
g39
F0.9995
tp3439
a(S'know'
p3440
g39
F0.9988
tp3441
a(S'(.)'
p3442
g3
F0.3171
tp3443
a(g43
g6
F0.9934
tp3444
asI655
(lp3445
(S'no'
p3446
g75
F0.9596
tp3447
a(g43
g6
F0.9962
tp3448
asI658
(lp3449
(S'no'
p3450
g75
F0.7985
tp3451
a(S'you'
p3452
g86
F0.9966
tp3453
a(S"didn't"
p3454
g39
F0.9999
tp3455
a(g5
g6
F0.9977
tp3456
asI662
(lp3457
(S'did'
p3458
g39
F0.9986
tp3459
a(S'you'
p3460
g86
F0.9985
tp3461
a(S'read'
p3462
g39
F0.9996
tp3463
a(S'any'
p3464
g97
F0.9917
tp3465
a(S'books'
p3466
g32
F0.983
tp3467
a(g43
g6
F0.9981
tp3468
asI2713
(lp3469
(g511
g6
F0.9271
tp3470
a(S'i)s'
p3471
g39
F0.5049
tp3472
a(S'that'
p3473
g86
F0.6337
tp3474
a(S'right'
p3475
g66
F0.4983
tp3476
a(S'(.)'
p3477
g3
F0.3105
tp3478
a(g43
g6
F0.9934
tp3479
asI666
(lp3480
(S'no'
p3481
g75
F0.9704
tp3482
a(g5
g6
F0.9989
tp3483
asI669
(lp3484
(S'mm'
p3485
g75
F0.4155
tp3486
a(g395
g86
F0.9994
tp3487
a(S'did'
p3488
g39
F0.9995
tp3489
a(S'(.)'
p3490
g3
F0.3583
tp3491
a(g5
g6
F0.9943
tp3492
asI2501
(lp3493
(S'look'
p3494
g39
F0.9135
tp3495
a(S'at'
p3496
g104
F0.996
tp3497
a(S'that'
p3498
g86
F0.9311
tp3499
a(g75
g6
F0.9989
tp3500
asI672
(lp3501
(g395
g86
F0.9991
tp3502
a(S'did'
p3503
g39
F0.9989
tp3504
a(g5
g6
F0.9974
tp3505
asI675
(lp3506
(S'an(d'
p3507
g191
F0.8847
tp3508
a(g193
g6
F0.9879
tp3509
a(S'me'
p3510
g86
F0.9927
tp3511
a(g5
g6
F0.9985
tp3512
asI2724
(lp3513
(g9
g10
F0.9199
tp3514
a(S'me'
p3515
g86
F0.9967
tp3516
a(S'too'
p3517
g81
F0.9906
tp3518
a(g14
g15
F0.517
tp3519
a(g17
g15
F0.535
tp3520
a(g9
g10
F0.6902
tp3521
a(g20
g6
F0.9839
tp3522
a(g5
g6
F0.9962
tp3523
asI678
(lp3524
(S'get'
p3525
g39
F0.9983
tp3526
a(S'out'
p3527
g104
F0.7165
tp3528
a(S'of'
p3529
g104
F0.9585
tp3530
a(S'here'
p3531
g81
F0.911
tp3532
a(g5
g6
F0.9987
tp3533
asI3185
(lp3534
(S'you'
p3535
g86
F0.9968
tp3536
a(S'gonna'
p3537
g39
F0.9994
tp3538
a(S'go'
p3539
g39
F0.9993
tp3540
a(S'in'
p3541
g104
F0.9888
tp3542
a(S'the'
p3543
g97
F0.9991
tp3544
a(S'sprinkler'
p3545
g32
F0.9958
tp3546
a(g43
g6
F0.9981
tp3547
asI681
(lp3548
(g395
g86
F0.9971
tp3549
a(S'read'
p3550
g39
F0.9975
tp3551
a(g511
g6
F0.989
tp3552
a(S'th)em'
p3553
g86
F0.6201
tp3554
a(S'to'
p3555
g104
F0.9639
tp3556
a(g511
g6
F0.9593
tp3557
a(S'h)er'
p3558
g32
F0.4326
tp3559
a(g5
g6
F0.9987
tp3560
asI684
(lp3561
(S'zzz'
p3562
g75
F0.3756
tp3563
a(g5
g6
F0.9972
tp3564
asI688
(lp3565
(S'you'
p3566
g86
F0.9984
tp3567
a(S'did'
p3568
g39
F0.9954
tp3569
a(g43
g6
F0.9973
tp3570
asI2504
(lp3571
(S'one'
p3572
g63
F0.9744
tp3573
a(S'more'
p3574
g66
F0.7731
tp3575
a(S'to'
p3576
g104
F0.9953
tp3577
a(S'go'
p3578
g39
F0.99
tp3579
a(g5
g6
F0.9979
tp3580
asI691
(lp3581
(S'you'
p3582
g86
F0.9963
tp3583
a(S'read'
p3584
g39
F0.9921
tp3585
a(g511
g6
F0.989
tp3586
a(S'th)em'
p3587
g86
F0.6201
tp3588
a(S'to'
p3589
g104
F0.9639
tp3590
a(g511
g6
F0.9593
tp3591
a(S'h)er'
p3592
g66
F0.4188
tp3593
a(g43
g6
F0.9964
tp3594
asI694
(lp3595
(S'Mommy'
p3596
g32
F0.655
tp3597
a(g9
g10
F0.3921
tp3598
a(S'is'
p3599
g39
F0.9993
tp3600
a(S'this'
p3601
g86
F0.7634
tp3602
a(g14
g50
F0.3314
tp3603
a(S'[/]'
p3604
g3
F0.3316
tp3605
a(S'is'
p3606
g39
F0.9988
tp3607
a(S'this'
p3608
g86
F0.865
tp3609
a(S'from'
p3610
g104
F0.9989
tp3611
a(S'the'
p3612
g97
F0.9986
tp3613
a(S'stove'
p3614
g32
F0.9973
tp3615
a(S'or'
p3616
g191
F0.9862
tp3617
a(S'are'
p3618
g39
F0.9979
tp3619
a(S'these'
p3620
g86
F0.7461
tp3621
a(S'like'
p3622
g104
F0.7389
tp3623
a(S'burned'
p3624
g39
F0.5988
tp3625
a(g43
g6
F0.9974
tp3626
asI2746
(lp3627
(S'wha(t'
p3628
g86
F0.8878
tp3629
a(g193
g6
F0.9788
tp3630
a(S'do'
p3631
g39
F0.9992
tp3632
a(S'you'
p3633
g86
F0.9996
tp3634
a(S'wan(t'
p3635
g39
F0.9987
tp3636
a(g193
g6
F0.9939
tp3637
a(S'out'
p3638
g104
F0.659
tp3639
a(S'there'
p3640
g81
F0.8727
tp3641
a(g5
g6
F0.9985
tp3642
asI699
(lp3643
(S'no'
p3644
g75
F0.825
tp3645
a(S"that's"
p3646
g78
F0.9941
tp3647
a(S'from'
p3648
g104
F0.9987
tp3649
a(S'the'
p3650
g97
F0.9988
tp3651
a(S'grill'
p3652
g32
F0.9537
tp3653
a(g5
g6
F0.9981
tp3654
asI702
(lp3655
(S'oh'
p3656
g75
F0.9984
tp3657
a(g5
g6
F0.9938
tp3658
asI705
(lp3659
(S"that's"
p3660
g78
F0.9974
tp3661
a(S'not'
p3662
g81
F0.9957
tp3663
a(S'burned'
p3664
g39
F0.9625
tp3665
a(S"it's"
p3666
g78
F0.9795
tp3667
a(S'the'
p3668
g97
F0.9934
tp3669
a(S'(.)'
p3670
g3
F0.6429
tp3671
a(S'somethin(g'
p3672
g32
F0.9751
tp3673
a(g193
g6
F0.9929
tp3674
a(S'from'
p3675
g104
F0.9992
tp3676
a(S'the'
p3677
g97
F0.9987
tp3678
a(S'grill'
p3679
g32
F0.9683
tp3680
a(g5
g6
F0.9977
tp3681
asI2755
(lp3682
(S'why'
p3683
g81
F0.8805
tp3684
a(S'did'
p3685
g39
F0.9846
tp3686
a(S'Matthew'
p3687
g3
F0.9992
tp3688
a(S'used'
p3689
g39
F0.9225
tp3690
a(S'to'
p3691
g104
F0.9924
tp3692
a(S'sit'
p3693
g39
F0.9987
tp3694
a(S'in'
p3695
g104
F0.9457
tp3696
a(S'the'
p3697
g97
F0.9988
tp3698
a(S'corner'
p3699
g32
F0.9991
tp3700
a(g5
g6
F0.9982
tp3701
asI3024
(lp3702
(g9
g10
F0.9261
tp3703
a(S'Mom'
p3704
g32
F0.7463
tp3705
a(S"that's>"
p3706
g78
F0.5296
tp3707
a(g17
g6
F0.9817
tp3708
a(g9
g10
F0.9635
tp3709
a(g20
g6
F0.9853
tp3710
a(S'stayin(g'
p3711
g39
F0.9473
tp3712
a(g193
g6
F0.9939
tp3713
a(S'on'
p3714
g104
F0.9485
tp3715
a(S'xxx'
p3716
g32
F0.3153
tp3717
a(g5
g6
F0.9984
tp3718
asI711
(lp3719
(S'you'
p3720
g86
F0.9923
tp3721
a(S'like'
p3722
g39
F0.8792
tp3723
a(S'it'
p3724
g86
F0.998
tp3725
a(S'(.)'
p3726
g15
F0.2987
tp3727
a(g43
g6
F0.9747
tp3728
asI2760
(lp3729
(g511
g6
F0.9736
tp3730
a(S'be)cause'
p3731
g104
F0.9986
tp3732
a(S'he'
p3733
g86
F0.9991
tp3734
a(S'said'
p3735
g39
F0.9978
tp3736
a(S'bad'
p3737
g66
F0.9896
tp3738
a(S'word'
p3739
g32
F0.9756
tp3740
a(g5
g6
F0.999
tp3741
asI3237
(lp3742
(S'say'
p3743
g39
F0.8393
tp3744
a(S'bye'
p3745
g75
F0.9093
tp3746
a(S'bye'
p3747
g75
F0.9516
tp3748
a(g5
g6
F0.9984
tp3749
asI714
(lp3750
(S'you'
p3751
g86
F0.9923
tp3752
a(S'like'
p3753
g39
F0.8792
tp3754
a(S'it'
p3755
g86
F0.998
tp3756
a(S'Michele'
p3757
g3
F0.9995
tp3758
a(g43
g6
F0.9963
tp3759
asI2763
(lp3760
(S'oh'
p3761
g75
F0.9933
tp3762
a(S'an(d'
p3763
g191
F0.8886
tp3764
a(g193
g6
F0.9864
tp3765
a(S"you're"
p3766
g78
F0.9952
tp3767
a(S'not'
p3768
g81
F0.9988
tp3769
a(S's(up)posed'
p3770
g39
F0.7485
tp3771
a(S'to'
p3772
g104
F0.9929
tp3773
a(S'say'
p3774
g39
F0.9977
tp3775
a(S'bad'
p3776
g66
F0.996
tp3777
a(S'words'
p3778
g32
F0.9738
tp3779
a(S'right'
p3780
g81
F0.6272
tp3781
a(g43
g6
F0.9979
tp3782
asI717
(lp3783
(g511
g6
F0.9437
tp3784
a(S'y)um'
p3785
g75
F0.9306
tp3786
a(S'(.)'
p3787
g75
F0.3107
tp3788
a(g75
g6
F0.998
tp3789
asI720
(lp3790
(g511
g6
F0.9426
tp3791
a(S'y)um'
p3792
g75
F0.9885
tp3793
a(g75
g6
F0.9973
tp3794
asI2446
(lp3795
(S'can'
p3796
g39
F0.9938
tp3797
a(g395
g86
F0.9994
tp3798
a(S'have'
p3799
g39
F1.0
tp3800
a(g278
g97
F0.9954
tp3801
a(S'drink'
p3802
g32
F0.9923
tp3803
a(g43
g6
F0.9951
tp3804
asI723
(lp3805
(S'you'
p3806
g86
F0.9923
tp3807
a(S'like'
p3808
g39
F0.8792
tp3809
a(S'it'
p3810
g86
F0.9991
tp3811
a(S"don't"
p3812
g39
F1.0
tp3813
a(S'you'
p3814
g86
F0.9979
tp3815
a(g9
g10
F0.8847
tp3816
a(S'Tanya'
p3817
g3
F0.9893
tp3818
a(g14
g15
F0.3974
tp3819
a(g17
g15
F0.5345
tp3820
a(g14
g15
F0.949
tp3821
a(g20
g6
F0.6387
tp3822
a(g43
g6
F0.9934
tp3823
asI2775
(lp3824
(S'no'
p3825
g75
F0.9704
tp3826
a(g5
g6
F0.9989
tp3827
asI728
(lp3828
(S'zzz'
p3829
g50
F0.409
tp3830
a(g17
g6
F0.9451
tp3831
a(g9
g10
F0.972
tp3832
a(g20
g6
F0.9847
tp3833
a(g5
g6
F0.9962
tp3834
asI2778
(lp3835
(S'no'
p3836
g75
F0.9704
tp3837
a(g5
g6
F0.9989
tp3838
asI732
(lp3839
(S'no'
p3840
g75
F0.8389
tp3841
a(g17
g6
F0.9933
tp3842
a(g14
g15
F0.3811
tp3843
a(g20
g6
F0.7604
tp3844
a(g5
g6
F0.9962
tp3845
asI735
(lp3846
(S'zzz'
p3847
g50
F0.409
tp3848
a(g17
g6
F0.9451
tp3849
a(g9
g10
F0.972
tp3850
a(g20
g6
F0.9847
tp3851
a(g5
g6
F0.9962
tp3852
asI2343
(lp3853
(S"let's"
p3854
g78
F0.9813
tp3855
a(S'see'
p3856
g39
F0.9958
tp3857
a(S'what'
p3858
g86
F0.9647
tp3859
a(S'else'
p3860
g81
F0.87
tp3861
a(g5
g6
F0.9978
tp3862
asI739
(lp3863
(S'Mommy'
p3864
g32
F0.7911
tp3865
a(g5
g6
F0.9983
tp3866
asI3269
(lp3867
(S'say'
p3868
g39
F0.8111
tp3869
a(S'bye'
p3870
g75
F0.9531
tp3871
a(g5
g6
F0.9981
tp3872
asI742
(lp3873
(g395
g86
F0.994
tp3874
a(S'like'
p3875
g39
F0.8268
tp3876
a(S'pepper'
p3877
g32
F0.8983
tp3878
a(g5
g6
F0.998
tp3879
asI2792
(lp3880
(S'huh'
p3881
g75
F0.9793
tp3882
a(S'Tanya'
p3883
g3
F0.9958
tp3884
a(g43
g6
F0.9958
tp3885
asI745
(lp3886
(S'start'
p3887
g39
F0.9666
tp3888
a(S'eatin(g'
p3889
g39
F0.8985
tp3890
a(g193
g6
F0.9934
tp3891
a(S"they're"
p3892
g78
F0.9725
tp3893
a(S'not'
p3894
g81
F0.9972
tp3895
a(g9
g10
F0.8479
tp3896
a(S'gon(t)a'
p3897
g39
F0.92
tp3898
a(S'[:'
p3899
g15
F0.7938
tp3900
a(S'going'
p3901
g39
F0.9979
tp3902
a(S'to'
p3903
g104
F0.898
tp3904
a(g20
g6
F0.9401
tp3905
a(S'xxx'
p3906
g15
F0.7706
tp3907
a(g14
g15
F0.9474
tp3908
a(g17
g15
F0.5345
tp3909
a(g14
g15
F0.9539
tp3910
a(g20
g6
F0.8524
tp3911
a(g5
g6
F0.9948
tp3912
asI2796
(lp3913
(g9
g10
F0.9526
tp3914
a(g395
g86
F0.9945
tp3915
a(S'xxx'
p3916
g39
F0.788
tp3917
a(S'[/]'
p3918
g6
F0.3467
tp3919
a(g14
g15
F0.4513
tp3920
a(g17
g15
F0.5345
tp3921
a(g14
g15
F0.9732
tp3922
a(g20
g6
F0.8062
tp3923
a(g5
g6
F0.9969
tp3924
asI749
(lp3925
(g9
g10
F0.9365
tp3926
a(S'come'
p3927
g39
F0.9941
tp3928
a(S'on'
p3929
g104
F0.6856
tp3930
a(g14
g15
F0.302
tp3931
a(g17
g15
F0.5345
tp3932
a(g14
g15
F0.9749
tp3933
a(g20
g6
F0.7541
tp3934
a(g5
g6
F0.9962
tp3935
asI2173
(lp3936
(S'no'
p3937
g75
F0.8389
tp3938
a(g17
g6
F0.9933
tp3939
a(g14
g15
F0.3811
tp3940
a(g20
g6
F0.7604
tp3941
a(g5
g6
F0.9962
tp3942
asI752
(lp3943
(g9
g10
F0.9526
tp3944
a(g395
g86
F0.9987
tp3945
a(S'do'
p3946
g39
F0.9998
tp3947
a(S'Mama'
p3948
g32
F0.4827
tp3949
a(g14
g50
F0.4592
tp3950
a(g17
g6
F0.9049
tp3951
a(g9
g10
F0.9475
tp3952
a(g20
g6
F0.9842
tp3953
a(g5
g6
F0.9969
tp3954
asI755
(lp3955
(g395
g86
F0.9981
tp3956
a(S'do'
p3957
g39
F0.9997
tp3958
a(g5
g6
F0.9971
tp3959
asI2804
(lp3960
(S'Mom'
p3961
g32
F0.9056
tp3962
a(S'is'
p3963
g39
F0.9982
tp3964
a(S'the'
p3965
g97
F0.9993
tp3966
a(S'sprinkler'
p3967
g32
F0.9978
tp3968
a(S'still'
p3969
g81
F0.9947
tp3970
a(S'on'
p3971
g104
F0.5084
tp3972
a(g43
g6
F0.9969
tp3973
asI758
(lp3974
(S'okay'
p3975
g75
F0.9469
tp3976
a(S'you'
p3977
g86
F0.999
tp3978
a(S'do'
p3979
g39
F0.9991
tp3980
a(g43
g6
F0.9974
tp3981
asI2809
(lp3982
(S'you'
p3983
g86
F0.998
tp3984
a(S'want'
p3985
g39
F1.0
tp3986
a(S'me'
p3987
g86
F0.9983
tp3988
a(S'to'
p3989
g104
F0.9853
tp3990
a(S'put'
p3991
g39
F0.9993
tp3992
a(S'the'
p3993
g97
F0.9995
tp3994
a(S'sprinkler'
p3995
g32
F0.9971
tp3996
a(S'on'
p3997
g104
F0.9818
tp3998
a(g43
g6
F0.9975
tp3999
asI762
(lp4000
(S'yeah'
p4001
g75
F0.9951
tp4002
a(g17
g6
F0.9838
tp4003
a(g14
g15
F0.3811
tp4004
a(g20
g6
F0.7604
tp4005
a(g5
g6
F0.9962
tp4006
asI765
(lp4007
(S'xxx'
p4008
g15
F0.8981
tp4009
a(g17
g6
F0.6622
tp4010
a(g9
g10
F0.9843
tp4011
a(g20
g6
F0.9845
tp4012
a(S'time'
p4013
g32
F0.7196
tp4014
a(S'you'
p4015
g86
F0.9955
tp4016
a(S"can't"
p4017
g39
F0.9999
tp4018
a(S'eat'
p4019
g39
F0.999
tp4020
a(S'something'
p4021
g32
F0.9977
tp4022
a(g5
g6
F0.9982
tp4023
asI2815
(lp4024
(S'yeah'
p4025
g75
F0.9986
tp4026
a(g5
g6
F0.997
tp4027
asI768
(lp4028
(S'xxx'
p4029
g15
F0.8981
tp4030
a(g17
g6
F0.661
tp4031
a(g14
g15
F0.3811
tp4032
a(g20
g6
F0.7604
tp4033
a(g5
g6
F0.9962
tp4034
asI769
(lp4035
(g9
g10
F0.9031
tp4036
a(S'your'
p4037
g97
F0.9725
tp4038
a(S"supper's"
p4039
g32
F0.9885
tp4040
a(S'here'
p4041
g81
F0.9616
tp4042
a(g14
g15
F0.5738
tp4043
a(g17
g15
F0.535
tp4044
a(g9
g10
F0.7057
tp4045
a(g20
g6
F0.9842
tp4046
a(g5
g6
F0.9969
tp4047
asI2818
(lp4048
(S'yeah'
p4049
g75
F0.9986
tp4050
a(g5
g6
F0.997
tp4051
asI2859
(lp4052
(S'mhm'
p4053
g75
F0.9761
tp4054
a(g5
g6
F0.9962
tp4055
asI772
(lp4056
(S'holy'
p4057
g66
F0.5809
tp4058
a(S'shit'
p4059
g32
F0.9911
tp4060
a(g5
g6
F0.9986
tp4061
asI2821
(lp4062
(g511
g6
F0.9736
tp4063
a(S'be)cause'
p4064
g104
F0.9967
tp4065
a(g395
g86
F0.9996
tp4066
a(S'wan(t'
p4067
g39
F0.9995
tp4068
a(g193
g6
F0.9419
tp4069
a(g511
g6
F0.9507
tp4070
a(S't)a'
p4071
g104
F0.7816
tp4072
a(S'get'
p4073
g39
F0.9925
tp4074
a(S'wet'
p4075
g66
F0.9608
tp4076
a(g5
g6
F0.9986
tp4077
asI2194
(lp4078
(g9
g10
F0.9116
tp4079
a(S"I'll"
p4080
g78
F0.9814
tp4081
a(S'have'
p4082
g39
F0.9992
tp4083
a(S'Rhoda'
p4084
g3
F0.998
tp4085
a(g14
g15
F0.3974
tp4086
a(g17
g15
F0.535
tp4087
a(g9
g10
F0.7057
tp4088
a(g20
g6
F0.9842
tp4089
a(g5
g6
F0.9969
tp4090
asI775
(lp4091
(S'oh'
p4092
g75
F0.9951
tp4093
a(S"they'll"
p4094
g78
F0.9768
tp4095
a(S'probably'
p4096
g81
F0.9989
tp4097
a(S'hear'
p4098
g39
F0.9891
tp4099
a(S'you'
p4100
g86
F0.9974
tp4101
a(g5
g6
F0.9994
tp4102
asI2825
(lp4103
(S'you'
p4104
g86
F0.998
tp4105
a(S'want'
p4106
g39
F0.999
tp4107
a(S'dessert'
p4108
g32
F0.9356
tp4109
a(S'now'
p4110
g81
F0.9935
tp4111
a(S'or'
p4112
g191
F0.9899
tp4113
a(S'later'
p4114
g81
F0.8256
tp4115
a(g43
g6
F0.9978
tp4116
asI2828
(lp4117
(S'later'
p4118
g81
F0.7833
tp4119
a(g5
g6
F0.9973
tp4120
asI781
(lp4121
(S'no'
p4122
g75
F0.5613
tp4123
a(S"don't"
p4124
g39
F0.998
tp4125
a(g9
g10
F0.8725
tp4126
a(S'put'
p4127
g39
F0.9797
tp4128
a(S'that'
p4129
g86
F0.7172
tp4130
a(g14
g15
F0.4384
tp4131
a(g17
g15
F0.5345
tp4132
a(g14
g15
F0.9532
tp4133
a(g20
g6
F0.8429
tp4134
a(S'near'
p4135
g104
F0.9865
tp4136
a(S'me'
p4137
g86
F0.9978
tp4138
a(g5
g6
F0.9975
tp4139
asI2831
(lp4140
(S'xxx'
p4141
g15
F0.8981
tp4142
a(g17
g6
F0.661
tp4143
a(g14
g15
F0.3811
tp4144
a(g20
g6
F0.7604
tp4145
a(g5
g6
F0.9962
tp4146
asI784
(lp4147
(S'good'
p4148
g66
F0.9701
tp4149
a(g17
g6
F0.9878
tp4150
a(g9
g10
F0.972
tp4151
a(g20
g6
F0.974
tp4152
a(g43
g6
F0.9963
tp4153
asI787
(lp4154
(S'zzz'
p4155
g75
F0.3756
tp4156
a(g5
g6
F0.9972
tp4157
asI2836
(lp4158
(S'Mommy'
p4159
g32
F0.655
tp4160
a(g9
g10
F0.4011
tp4161
a(S'take'
p4162
g39
F0.9986
tp4163
a(S'it'
p4164
g86
F0.9002
tp4165
a(S'away'
p4166
g81
F0.9612
tp4167
a(g14
g15
F0.5189
tp4168
a(g17
g15
F0.535
tp4169
a(g9
g10
F0.7916
tp4170
a(g20
g6
F0.9861
tp4171
a(g5
g6
F0.9959
tp4172
asI791
(lp4173
(S'Ma'
p4174
g97
F0.4363
tp4175
a(S'what'
p4176
g86
F0.9964
tp4177
a(S'is'
p4178
g39
F0.9994
tp4179
a(S'that'
p4180
g97
F0.8268
tp4181
a(S'stuff'
p4182
g32
F0.9986
tp4183
a(g17
g6
F0.9849
tp4184
a(g9
g10
F0.9635
tp4185
a(g20
g6
F0.9284
tp4186
a(g17
g6
F0.9615
tp4187
a(g14
g15
F0.4205
tp4188
a(g20
g6
F0.6387
tp4189
a(g43
g6
F0.9934
tp4190
asI3095
(lp4191
(g395
g86
F0.9976
tp4192
a(S'have_to'
p4193
g39
F0.9997
tp4194
a(S'fix'
p4195
g39
F0.9986
tp4196
a(S'this'
p4197
g97
F0.6232
tp4198
a(S'(.)'
p4199
g3
F0.3809
tp4200
a(g5
g6
F0.9915
tp4201
asI2841
(lp4202
(g9
g10
F0.9775
tp4203
a(S'okay'
p4204
g75
F0.941
tp4205
a(S"we're"
p4206
g78
F0.9298
tp4207
a(S'all'
p4208
g97
F0.7371
tp4209
a(S'done'
p4210
g39
F0.5298
tp4211
a(g14
g15
F0.4844
tp4212
a(g17
g15
F0.5345
tp4213
a(g14
g15
F0.9555
tp4214
a(g20
g6
F0.8291
tp4215
a(g5
g6
F0.9959
tp4216
asI794
(lp4217
(S'xxx'
p4218
g15
F0.8981
tp4219
a(g17
g6
F0.661
tp4220
a(g14
g15
F0.3811
tp4221
a(g20
g6
F0.7604
tp4222
a(g5
g6
F0.9962
tp4223
asI795
(lp4224
(g9
g10
F0.9302
tp4225
a(S'stickin(g)'
p4226
g39
F0.6508
tp4227
a(g14
g15
F0.4046
tp4228
a(g17
g15
F0.4963
tp4229
a(g9
g10
F0.8293
tp4230
a(g20
g6
F0.989
tp4231
a(S'inside'
p4232
g104
F0.3377
tp4233
a(g17
g6
F0.9876
tp4234
a(g43
g6
F0.9868
tp4235
a(g20
g6
F0.8084
tp4236
a(g43
g6
F0.9962
tp4237
asI2844
(lp4238
(g9
g10
F0.9526
tp4239
a(g395
g86
F0.9983
tp4240
a(S"can't"
p4241
g39
F0.9999
tp4242
a(S'get'
p4243
g39
F1.0
tp4244
a(S'out'
p4245
g662
F0.8597
tp4246
a(g14
g15
F0.4303
tp4247
a(g17
g15
F0.535
tp4248
a(g9
g10
F0.7916
tp4249
a(g20
g6
F0.9861
tp4250
a(g5
g6
F0.9959
tp4251
asI798
(lp4252
(S'zzz'
p4253
g75
F0.3756
tp4254
a(g5
g6
F0.9972
tp4255
asI2847
(lp4256
(g9
g10
F0.9127
tp4257
a(S'then'
p4258
g81
F0.9473
tp4259
a(S'me'
p4260
g86
F0.9992
tp4261
a(g14
g15
F0.5269
tp4262
a(g17
g15
F0.5345
tp4263
a(g14
g15
F0.9749
tp4264
a(g20
g6
F0.7541
tp4265
a(g5
g6
F0.9962
tp4266
asI802
(lp4267
(g395
g86
F0.9937
tp4268
a(g9
g10
F0.7317
tp4269
a(S'already'
p4270
g81
F0.9916
tp4271
a(S'xxx'
p4272
g15
F0.4093
tp4273
a(S'or'
p4274
g191
F0.9855
tp4275
a(g14
g15
F0.5083
tp4276
a(g17
g15
F0.5345
tp4277
a(g14
g15
F0.9532
tp4278
a(g20
g6
F0.6323
tp4279
a(g1039
g50
F0.4771
tp4280
a(S'...'
p4281
g10
F0.6984
tp4282
asI2182
(lp4283
(S"you'll"
p4284
g78
F0.9814
tp4285
a(S'have'
p4286
g39
F0.9998
tp4287
a(g278
g97
F0.9986
tp4288
a(S'different'
p4289
g66
F0.9993
tp4290
a(S'one'
p4291
g63
F0.9193
tp4292
a(S'this'
p4293
g97
F0.9764
tp4294
a(S'year'
p4295
g32
F0.9843
tp4296
a(g5
g6
F0.9986
tp4297
asI807
(lp4298
(S'xxx'
p4299
g15
F0.8981
tp4300
a(g17
g6
F0.6622
tp4301
a(g9
g10
F0.9843
tp4302
a(g20
g6
F0.984
tp4303
a(S'man'
p4304
g32
F0.598
tp4305
a(g43
g6
F0.9972
tp4306
asI2856
(lp4307
(g9
g10
F0.9064
tp4308
a(S'is'
p4309
g39
F0.999
tp4310
a(S'in'
p4311
g104
F0.902
tp4312
a(S'here'
p4313
g81
F0.8871
tp4314
a(g14
g15
F0.5738
tp4315
a(g17
g15
F0.535
tp4316
a(g9
g10
F0.7057
tp4317
a(g20
g6
F0.9741
tp4318
a(g43
g6
F0.9965
tp4319
asI811
(lp4320
(S'zzz'
p4321
g75
F0.3756
tp4322
a(g5
g6
F0.9972
tp4323
asI2862
(lp4324
(S'you'
p4325
g86
F0.998
tp4326
a(S'got'
p4327
g39
F0.9912
tp4328
a(S'one'
p4329
g63
F0.8051
tp4330
a(g5
g6
F0.9976
tp4331
asI815
(lp4332
(S'Tanya'
p4333
g3
F0.9816
tp4334
a(S'how'
p4335
g81
F0.9937
tp4336
a(S'high'
p4337
g66
F0.7758
tp4338
a(S'can'
p4339
g39
F0.942
tp4340
a(S'you'
p4341
g86
F0.9986
tp4342
a(S'count'
p4343
g39
F0.9995
tp4344
a(S'up'
p4345
g662
F0.9358
tp4346
a(S'to'
p4347
g104
F0.993
tp4348
a(S'(.)'
p4349
g3
F0.3772
tp4350
a(g43
g6
F0.9944
tp4351
asI2866
(lp4352
(S'now'
p4353
g81
F0.9913
tp4354
a(S'you'
p4355
g86
F0.9994
tp4356
a(S'got'
p4357
g39
F0.9992
tp4358
a(S'[/]'
p4359
g3
F0.2293
tp4360
a(g17
g6
F0.9762
tp4361
a(g14
g15
F0.6043
tp4362
a(g20
g6
F0.7541
tp4363
a(g5
g6
F0.9962
tp4364
asI821
(lp4365
(S'can'
p4366
g39
F0.999
tp4367
a(S'you'
p4368
g86
F0.9988
tp4369
a(S'count'
p4370
g39
F0.9708
tp4371
a(g43
g6
F0.9979
tp4372
asI825
(lp4373
(S'alright'
p4374
g75
F0.9213
tp4375
a(S'please'
p4376
g39
F0.9865
tp4377
a(S'do'
p4378
g39
F0.9998
tp4379
a(S'it'
p4380
g86
F0.9909
tp4381
a(g5
g6
F0.9989
tp4382
asI2346
(lp4383
(S'play'
p4384
g39
F0.7609
tp4385
a(g5
g6
F0.9979
tp4386
asI828
(lp4387
(S'one'
p4388
g63
F0.958
tp4389
a(S'three'
p4390
g63
F0.8757
tp4391
a(S'four'
p4392
g63
F0.6243
tp4393
a(g17
g6
F0.9793
tp4394
a(g14
g15
F0.5563
tp4395
a(g20
g6
F0.6899
tp4396
a(g5
g6
F0.9959
tp4397
asI2878
(lp4398
(S'an(d'
p4399
g191
F0.8847
tp4400
a(g193
g6
F0.9848
tp4401
a(S"we're"
p4402
g78
F0.9147
tp4403
a(g9
g10
F0.8396
tp4404
a(S'gonna'
p4405
g39
F0.9952
tp4406
a(S'bring'
p4407
g39
F1.0
tp4408
a(S'it'
p4409
g86
F0.9889
tp4410
a(g14
g15
F0.4648
tp4411
a(g17
g15
F0.535
tp4412
a(g9
g10
F0.8293
tp4413
a(g20
g6
F0.989
tp4414
a(S'in'
p4415
g104
F0.8152
tp4416
a(g5
g6
F0.9942
tp4417
asI831
(lp4418
(S'two'
p4419
g63
F0.9627
tp4420
a(g17
g6
F0.9814
tp4421
a(g9
g10
F0.972
tp4422
a(g20
g6
F0.9847
tp4423
a(g5
g6
F0.9962
tp4424
asI834
(lp4425
(S'you'
p4426
g86
F0.998
tp4427
a(S'forgot'
p4428
g39
F0.9982
tp4429
a(S'five'
p4430
g63
F0.4644
tp4431
a(g17
g6
F0.9824
tp4432
a(g14
g15
F0.5563
tp4433
a(g20
g6
F0.6899
tp4434
a(g5
g6
F0.9959
tp4435
asI2187
(lp4436
(g9
g10
F0.9511
tp4437
a(S'Rhoda'
p4438
g3
F0.998
tp4439
a(S'an(d'
p4440
g191
F0.7613
tp4441
a(g193
g6
F0.9814
tp4442
a(S'Mary'
p4443
g3
F0.9979
tp4444
a(S'xxx'
p4445
g15
F0.5639
tp4446
a(g14
g15
F0.9474
tp4447
a(g17
g15
F0.5345
tp4448
a(g14
g15
F0.9577
tp4449
a(g20
g6
F0.795
tp4450
a(g5
g6
F0.9964
tp4451
asI837
(lp4452
(S'nope'
p4453
g75
F0.981
tp4454
a(g17
g6
F0.9867
tp4455
a(g9
g10
F0.972
tp4456
a(g20
g6
F0.9847
tp4457
a(g5
g6
F0.9962
tp4458
asI840
(lp4459
(S'you'
p4460
g86
F0.998
tp4461
a(S'skipped'
p4462
g39
F0.9983
tp4463
a(S'two'
p4464
g63
F0.9103
tp4465
a(S'(.)'
p4466
g3
F0.207
tp4467
a(g5
g6
F0.9943
tp4468
asI843
(lp4469
(S'one'
p4470
g63
F0.8885
tp4471
a(g5
g6
F0.9971
tp4472
asI2142
(lp4473
(S'Head'
p4474
g32
F0.9816
tp4475
a(S'Start'
p4476
g39
F0.9367
tp4477
a(g43
g6
F0.9973
tp4478
asI846
(lp4479
(S'start'
p4480
g39
F0.9418
tp4481
a(S'again'
p4482
g81
F0.9739
tp4483
a(g5
g6
F0.9976
tp4484
asI2895
(lp4485
(g9
g10
F0.9314
tp4486
a(S"we're"
p4487
g78
F0.9424
tp4488
a(S'gonna'
p4489
g39
F0.9905
tp4490
a(S'go'
p4491
g39
F0.9997
tp4492
a(S'out'
p4493
g662
F0.3672
tp4494
a(S'now'
p4495
g81
F0.9926
tp4496
a(g14
g15
F0.5636
tp4497
a(g17
g15
F0.535
tp4498
a(g9
g10
F0.7815
tp4499
a(g20
g6
F0.9822
tp4500
a(g5
g6
F0.9964
tp4501
asI849
(lp4502
(S'one'
p4503
g63
F0.8885
tp4504
a(g5
g6
F0.9971
tp4505
asI2898
(lp4506
(S'it'
p4507
g86
F0.9974
tp4508
a(S'is'
p4509
g39
F0.9994
tp4510
a(g5
g6
F0.9976
tp4511
asI852
(lp4512
(S'one'
p4513
g63
F0.8885
tp4514
a(g5
g6
F0.9971
tp4515
asI2190
(lp4516
(g9
g10
F0.9215
tp4517
a(S"won't"
p4518
g39
F0.9629
tp4519
a(S'have'
p4520
g39
F0.9994
tp4521
a(S'Jane'
p4522
g3
F0.997
tp4523
a(S'this'
p4524
g97
F0.9843
tp4525
a(S'year'
p4526
g32
F0.9837
tp4527
a(g14
g15
F0.5753
tp4528
a(g17
g15
F0.535
tp4529
a(g9
g10
F0.7815
tp4530
a(g20
g6
F0.9822
tp4531
a(g5
g6
F0.9964
tp4532
asI855
(lp4533
(S'zzz'
p4534
g75
F0.3756
tp4535
a(g5
g6
F0.9972
tp4536
asI2905
(lp4537
(S'no'
p4538
g75
F0.7417
tp4539
a(g9
g10
F0.5928
tp4540
a(g395
g86
F0.9986
tp4541
a(S'want'
p4542
g39
F1.0
tp4543
a(S'it'
p4544
g86
F0.9947
tp4545
a(S'outside'
p4546
g104
F0.2726
tp4547
a(g14
g15
F0.4064
tp4548
a(g17
g15
F0.5345
tp4549
a(g14
g15
F0.9577
tp4550
a(g20
g6
F0.795
tp4551
a(g5
g6
F0.9964
tp4552
asI858
(lp4553
(S'zzz'
p4554
g50
F0.409
tp4555
a(g17
g6
F0.9395
tp4556
a(g14
g15
F0.3811
tp4557
a(g20
g6
F0.7604
tp4558
a(g5
g6
F0.9962
tp4559
asI2908
(lp4560
(g9
g10
F0.9314
tp4561
a(S"we're"
p4562
g78
F0.9424
tp4563
a(S'gonna'
p4564
g39
F0.9935
tp4565
a(S'bring'
p4566
g39
F1.0
tp4567
a(S'it'
p4568
g86
F0.9881
tp4569
a(S'outside'
p4570
g104
F0.2726
tp4571
a(g14
g15
F0.4064
tp4572
a(g17
g15
F0.535
tp4573
a(g9
g10
F0.7815
tp4574
a(g20
g6
F0.9822
tp4575
a(g5
g6
F0.9964
tp4576
asI862
(lp4577
(S'one'
p4578
g63
F0.9466
tp4579
a(g17
g6
F0.9909
tp4580
a(S'<][>'
p4581
g15
F0.2489
tp4582
a(g20
g6
F0.862
tp4583
a(g5
g6
F0.9962
tp4584
asI2912
(lp4585
(S'bring'
p4586
g39
F0.9996
tp4587
a(S'it'
p4588
g86
F0.9889
tp4589
a(S'outside'
p4590
g81
F0.4855
tp4591
a(S'an(d'
p4592
g191
F0.9182
tp4593
a(g193
g6
F0.9911
tp4594
a(S'when'
p4595
g81
F0.9847
tp4596
a(S'you'
p4597
g86
F0.9985
tp4598
a(S'go'
p4599
g39
F0.9987
tp4600
a(S'in'
p4601
g104
F0.9897
tp4602
a(S'the'
p4603
g97
F0.999
tp4604
a(S'sprinkler'
p4605
g32
F0.9991
tp4606
a(g5
g6
F0.9972
tp4607
asI865
(lp4608
(S'two'
p4609
g63
F0.9627
tp4610
a(g17
g6
F0.9814
tp4611
a(g9
g10
F0.972
tp4612
a(g20
g6
F0.9847
tp4613
a(g5
g6
F0.9962
tp4614
asI868
(lp4615
(S'two'
p4616
g63
F0.9627
tp4617
a(g17
g6
F0.9803
tp4618
a(g14
g15
F0.3811
tp4619
a(g20
g6
F0.7604
tp4620
a(g5
g6
F0.9962
tp4621
asI2917
(lp4622
(S'but'
p4623
g191
F0.993
tp4624
a(S'you'
p4625
g86
F0.9994
tp4626
a(S"can't"
p4627
g39
F0.9999
tp4628
a(S'get'
p4629
g39
F0.9999
tp4630
a(S'that'
p4631
g97
F0.7847
tp4632
a(S'wet'
p4633
g66
F0.8691
tp4634
a(g5
g6
F0.9985
tp4635
asI871
(lp4636
(S'zzz'
p4637
g50
F0.409
tp4638
a(g17
g6
F0.9451
tp4639
a(g9
g10
F0.972
tp4640
a(g20
g6
F0.9847
tp4641
a(g5
g6
F0.9962
tp4642
asI2921
(lp4643
(S'nope'
p4644
g75
F0.9942
tp4645
a(g5
g6
F0.9975
tp4646
asI874
(lp4647
(S'three'
p4648
g63
F0.9333
tp4649
a(g17
g6
F0.9805
tp4650
a(g14
g15
F0.3811
tp4651
a(g20
g6
F0.7604
tp4652
a(g5
g6
F0.9962
tp4653
asI2924
(lp4654
(S'no'
p4655
g75
F0.9704
tp4656
a(g5
g6
F0.9989
tp4657
asI877
(lp4658
(S'three'
p4659
g63
F0.9333
tp4660
a(g17
g6
F0.9816
tp4661
a(g9
g10
F0.972
tp4662
a(g20
g6
F0.9847
tp4663
a(g5
g6
F0.9962
tp4664
asI2927
(lp4665
(S'Mom'
p4666
g32
F0.9095
tp4667
a(g5
g6
F0.9981
tp4668
asI880
(lp4669
(S'go'
p4670
g39
F0.8431
tp4671
a(g511
g6
F0.9891
tp4672
a(S'a)head'
p4673
g66
F0.5884
tp4674
a(g5
g6
F0.9986
tp4675
asI2930
(lp4676
(S'xxx'
p4677
g15
F0.5822
tp4678
a(g5
g6
F0.9648
tp4679
asI2931
(lp4680
(S'wait'
p4681
g39
F0.9922
tp4682
a(g278
g97
F0.9943
tp4683
a(S'minute'
p4684
g32
F0.9279
tp4685
a(S'Michele'
p4686
g3
F0.9983
tp4687
a(g5
g6
F0.9953
tp4688
asI884
(lp4689
(S'<<'
p4690
g10
F0.9206
tp4691
a(g395
g86
F0.9988
tp4692
a(S'wan(t'
p4693
g39
F0.9995
tp4694
a(g193
g6
F0.9512
tp4695
a(g511
g6
F0.9507
tp4696
a(S't)a'
p4697
g104
F0.3061
tp4698
a(g14
g15
F0.4949
tp4699
a(g17
g15
F0.5345
tp4700
a(g14
g15
F0.9532
tp4701
a(g20
g6
F0.819
tp4702
a(S'see'
p4703
g39
F0.969
tp4704
a(g14
g6
F0.2431
tp4705
a(S'[//]'
p4706
g6
F0.3357
tp4707
a(g395
g86
F0.9985
tp4708
a(S'wan(t'
p4709
g39
F0.9995
tp4710
a(g193
g6
F0.9419
tp4711
a(g511
g6
F0.9507
tp4712
a(S't)a'
p4713
g104
F0.5473
tp4714
a(S'have'
p4715
g39
F0.9988
tp4716
a(S'her'
p4717
g86
F0.765
tp4718
a(S'do'
p4719
g39
F0.9993
tp4720
a(S'it'
p4721
g86
F0.9904
tp4722
a(S'(.)'
p4723
g6
F0.1808
tp4724
a(g5
g6
F0.9942
tp4725
asI2934
(lp4726
(g9
g10
F0.913
tp4727
a(S"don't"
p4728
g39
F0.9997
tp4729
a(S'put'
p4730
g39
F0.9957
tp4731
a(g14
g6
F0.3018
tp4732
a(S'[///]'
p4733
g50
F0.243
tp4734
a(S'my'
p4735
g97
F0.9131
tp4736
a(S'xxx'
p4737
g32
F0.408
tp4738
a(S'you'
p4739
g86
F0.9907
tp4740
a(S'share'
p4741
g39
F0.9991
tp4742
a(S'your'
p4743
g97
F0.9842
tp4744
a(S'pan'
p4745
g32
F0.9462
tp4746
a(g5
g6
F0.9967
tp4747
asI889
(lp4748
(S'four'
p4749
g63
F0.8123
tp4750
a(g17
g6
F0.9763
tp4751
a(g9
g10
F0.972
tp4752
a(g20
g6
F0.9847
tp4753
a(g5
g6
F0.9962
tp4754
asI892
(lp4755
(S"don't"
p4756
g39
F0.9973
tp4757
a(g5
g6
F0.9965
tp4758
asI897
(lp4759
(S'go'
p4760
g39
F0.8431
tp4761
a(g511
g6
F0.9912
tp4762
a(S'a)head'
p4763
g66
F0.7182
tp4764
a(S'Tanya'
p4765
g3
F0.9867
tp4766
a(g5
g6
F0.9956
tp4767
asI2946
(lp4768
(S'hey'
p4769
g75
F0.9967
tp4770
a(S'(.)'
p4771
g3
F0.282
tp4772
a(g5
g6
F0.9933
tp4773
asI902
(lp4774
(S'six'
p4775
g63
F0.6372
tp4776
a(g5
g6
F0.9967
tp4777
asI905
(lp4778
(S'you'
p4779
g86
F0.9963
tp4780
a(S'skip'
p4781
g39
F0.9642
tp4782
a(S'five'
p4783
g63
F0.3472
tp4784
a(g43
g6
F0.9956
tp4785
asI2720
(lp4786
(S'all'
p4787
g97
F0.6529
tp4788
a(g17
g6
F0.9736
tp4789
a(g14
g10
F0.3399
tp4790
a(g20
g6
F0.9877
tp4791
a(S'done'
p4792
g39
F0.9675
tp4793
a(g5
g6
F0.9986
tp4794
asI909
(lp4795
(S'five'
p4796
g63
F0.6687
tp4797
a(g5
g6
F0.9967
tp4798
asI913
(lp4799
(S'six'
p4800
g63
F0.6372
tp4801
a(g5
g6
F0.9967
tp4802
asI916
(lp4803
(S'go'
p4804
g39
F0.8431
tp4805
a(g511
g6
F0.9891
tp4806
a(S'a)head'
p4807
g66
F0.5884
tp4808
a(g5
g6
F0.9986
tp4809
asI919
(lp4810
(S'six'
p4811
g63
F0.6372
tp4812
a(g5
g6
F0.9967
tp4813
asI922
(lp4814
(S'go'
p4815
g39
F0.8431
tp4816
a(g511
g6
F0.9891
tp4817
a(S'a)head'
p4818
g66
F0.5884
tp4819
a(g5
g6
F0.9986
tp4820
asI2972
(lp4821
(g9
g10
F0.9345
tp4822
a(S'say'
p4823
g39
F0.9278
tp4824
a(S'bye'
p4825
g75
F0.8391
tp4826
a(g14
g15
F0.549
tp4827
a(g17
g15
F0.5345
tp4828
a(g14
g15
F0.9749
tp4829
a(g20
g6
F0.7541
tp4830
a(g5
g6
F0.9962
tp4831
asI925
(lp4832
(S'seven'
p4833
g63
F0.8717
tp4834
a(S'eight'
p4835
g63
F0.7532
tp4836
a(S'nine'
p4837
g66
F0.3958
tp4838
a(S'ten'
p4839
g63
F0.6789
tp4840
a(S'eleven'
p4841
g63
F0.8342
tp4842
a(S'[/]'
p4843
g32
F0.4371
tp4844
a(g17
g6
F0.9809
tp4845
a(g14
g15
F0.4567
tp4846
a(g20
g6
F0.8291
tp4847
a(g5
g6
F0.9959
tp4848
asI2885
(lp4849
(S"we're"
p4850
g78
F0.9568
tp4851
a(S'gonna'
p4852
g39
F0.9897
tp4853
a(S'go'
p4854
g39
F0.9998
tp4855
a(S'out'
p4856
g662
F0.3624
tp4857
a(S'now'
p4858
g81
F0.9953
tp4859
a(g5
g6
F0.9982
tp4860
asI929
(lp4861
(S'talk'
p4862
g39
F0.7949
tp4863
a(g9
g10
F0.5795
tp4864
a(g278
g97
F0.9956
tp4865
a(S'little'
p4866
g66
F0.9583
tp4867
a(S'louder'
p4868
g66
F0.9743
tp4869
a(g14
g15
F0.5027
tp4870
a(g17
g15
F0.535
tp4871
a(g9
g10
F0.7916
tp4872
a(g20
g6
F0.9861
tp4873
a(g5
g6
F0.9959
tp4874
asI2978
(lp4875
(g9
g10
F0.9526
tp4876
a(g395
g86
F0.9988
tp4877
a(S'wan(t'
p4878
g39
F0.9995
tp4879
a(g193
g6
F0.9512
tp4880
a(g511
g6
F0.9507
tp4881
a(S't)a'
p4882
g104
F0.5013
tp4883
a(S'say'
p4884
g39
F0.8983
tp4885
a(g14
g15
F0.5548
tp4886
a(g17
g15
F0.535
tp4887
a(g9
g10
F0.768
tp4888
a(g20
g6
F0.985
tp4889
a(g5
g6
F0.9936
tp4890
asI932
(lp4891
(S'what'
p4892
g86
F0.9171
tp4893
a(g43
g6
F0.9924
tp4894
asI2981
(lp4895
(S'on'
p4896
g104
F0.8561
tp4897
a(g17
g6
F0.9859
tp4898
a(g14
g15
F0.3811
tp4899
a(g20
g6
F0.7604
tp4900
a(g5
g6
F0.9962
tp4901
asI936
(lp4902
(S'talk'
p4903
g39
F0.9836
tp4904
a(g278
g97
F0.9958
tp4905
a(S'little'
p4906
g66
F0.9394
tp4907
a(S'louder'
p4908
g66
F0.9833
tp4909
a(S'(.)'
p4910
g32
F0.2213
tp4911
a(g5
g6
F0.9974
tp4912
asI2985
(lp4913
(g9
g10
F0.9765
tp4914
a(S'bye'
p4915
g75
F0.9078
tp4916
a(S'bye'
p4917
g75
F0.9135
tp4918
a(g14
g15
F0.549
tp4919
a(g17
g15
F0.5345
tp4920
a(g14
g15
F0.9749
tp4921
a(g20
g6
F0.7541
tp4922
a(g5
g6
F0.9962
tp4923
asI939
(lp4924
(S'one'
p4925
g63
F0.9496
tp4926
a(S'three'
p4927
g63
F0.8871
tp4928
a(g5
g6
F0.9973
tp4929
asI2988
(lp4930
(g9
g10
F0.9001
tp4931
a(S'you'
p4932
g86
F0.9983
tp4933
a(S'want'
p4934
g39
F1.0
tp4935
a(S'it'
p4936
g86
F0.9939
tp4937
a(g14
g15
F0.4648
tp4938
a(g17
g15
F0.535
tp4939
a(g9
g10
F0.8293
tp4940
a(g20
g6
F0.9883
tp4941
a(S'on'
p4942
g104
F0.8759
tp4943
a(g43
g6
F0.997
tp4944
asI943
(lp4945
(S'nope'
p4946
g75
F0.9942
tp4947
a(g5
g6
F0.9975
tp4948
asI2992
(lp4949
(S'yeah'
p4950
g75
F0.9986
tp4951
a(g5
g6
F0.997
tp4952
asI2888
(lp4953
(S'leave'
p4954
g39
F0.981
tp4955
a(S'that'
p4956
g86
F0.7368
tp4957
a(S'alone'
p4958
g81
F0.4847
tp4959
a(g75
g6
F0.9985
tp4960
asI946
(lp4961
(S'one'
p4962
g63
F0.8885
tp4963
a(g5
g6
F0.9971
tp4964
asI2995
(lp4965
(g9
g10
F0.9347
tp4966
a(S'put'
p4967
g39
F0.9955
tp4968
a(S'it'
p4969
g86
F0.978
tp4970
a(S'xxx'
p4971
g39
F0.4514
tp4972
a(S'say'
p4973
g39
F0.934
tp4974
a(S'bye'
p4975
g75
F0.8282
tp4976
a(S'bye'
p4977
g75
F0.9164
tp4978
a(g14
g15
F0.528
tp4979
a(g17
g15
F0.5345
tp4980
a(g14
g15
F0.949
tp4981
a(g20
g6
F0.7992
tp4982
a(g5
g6
F0.9936
tp4983
asI949
(lp4984
(S'one'
p4985
g63
F0.8885
tp4986
a(g5
g6
F0.9971
tp4987
asI2998
(lp4988
(S'no'
p4989
g75
F0.8389
tp4990
a(g17
g6
F0.9936
tp4991
a(g9
g10
F0.972
tp4992
a(g20
g6
F0.9847
tp4993
a(g5
g6
F0.9962
tp4994
asI952
(lp4995
(S'two'
p4996
g63
F0.9641
tp4997
a(g5
g6
F0.997
tp4998
asI2548
(lp4999
(S'no'
p5000
g75
F0.8389
tp5001
a(g17
g6
F0.9936
tp5002
a(g9
g10
F0.9843
tp5003
a(g20
g6
F0.9723
tp5004
a(S'(.)'
p5005
g15
F0.2781
tp5006
a(g5
g6
F0.9509
tp5007
asI2964
(lp5008
(S'say'
p5009
g39
F0.8111
tp5010
a(S'bye'
p5011
g75
F0.9531
tp5012
a(g5
g6
F0.9981
tp5013
asI956
(lp5014
(S'two'
p5015
g63
F0.9641
tp5016
a(g5
g6
F0.997
tp5017
asI3005
(lp5018
(S'you'
p5019
g86
F0.997
tp5020
a(S"didn't"
p5021
g39
F1.0
tp5022
a(S'put'
p5023
g39
F0.9997
tp5024
a(S'it'
p5025
g86
F0.9628
tp5026
a(S'on'
p5027
g104
F0.7053
tp5028
a(g17
g6
F0.9847
tp5029
a(g14
g15
F0.5886
tp5030
a(g20
g6
F0.8062
tp5031
a(g5
g6
F0.9969
tp5032
asI959
(lp5033
(S'talk'
p5034
g39
F0.9836
tp5035
a(g278
g97
F0.9958
tp5036
a(S'little'
p5037
g66
F0.9649
tp5038
a(S'louder'
p5039
g66
F0.9604
tp5040
a(g5
g6
F0.9987
tp5041
asI3009
(lp5042
(g9
g10
F0.9345
tp5043
a(S'say'
p5044
g39
F0.9278
tp5045
a(S'bye'
p5046
g75
F0.8184
tp5047
a(S'bye'
p5048
g75
F0.9203
tp5049
a(g14
g15
F0.528
tp5050
a(g17
g6
F0.7297
tp5051
a(S'<][>'
p5052
g15
F0.3942
tp5053
a(g20
g6
F0.8888
tp5054
a(g5
g6
F0.9969
tp5055
asI962
(lp5056
(S'what'
p5057
g86
F0.9511
tp5058
a(S'(.)'
p5059
g15
F0.3151
tp5060
a(g43
g6
F0.9749
tp5061
asI2891
(lp5062
(S'xxx'
p5063
g15
F0.8981
tp5064
a(g17
g6
F0.6622
tp5065
a(g9
g10
F0.972
tp5066
a(g20
g6
F0.9847
tp5067
a(g5
g6
F0.9962
tp5068
asI3012
(lp5069
(g9
g10
F0.9765
tp5070
a(S'bye'
p5071
g75
F0.9078
tp5072
a(S'bye'
p5073
g75
F0.9135
tp5074
a(g14
g15
F0.549
tp5075
a(g17
g15
F0.535
tp5076
a(g9
g10
F0.6902
tp5077
a(g20
g6
F0.9839
tp5078
a(g5
g6
F0.9962
tp5079
asI2146
(lp5080
(S'Head'
p5081
g32
F0.9816
tp5082
a(S'Start'
p5083
g39
F0.9444
tp5084
a(g5
g6
F0.9973
tp5085
asI966
(lp5086
(S'talk'
p5087
g39
F0.9025
tp5088
a(S'[/]'
p5089
g6
F0.3064
tp5090
a(S'talk'
p5091
g39
F0.688
tp5092
a(g17
g6
F0.9905
tp5093
a(g14
g15
F0.5563
tp5094
a(g20
g6
F0.6899
tp5095
a(g5
g6
F0.9959
tp5096
asI3015
(lp5097
(S'you'
p5098
g86
F0.998
tp5099
a(S'say'
p5100
g39
F0.995
tp5101
a(S'bye'
p5102
g75
F0.8141
tp5103
a(S'Tanya'
p5104
g3
F0.9979
tp5105
a(g5
g6
F0.9956
tp5106
asI969
(lp5107
(S'what'
p5108
g86
F0.9738
tp5109
a(g17
g6
F0.9703
tp5110
a(g9
g10
F0.972
tp5111
a(g20
g6
F0.974
tp5112
a(g43
g6
F0.9963
tp5113
asI3018
(lp5114
(S'say'
p5115
g39
F0.8393
tp5116
a(S'bye'
p5117
g75
F0.8816
tp5118
a(S'bye'
p5119
g75
F0.9293
tp5120
a(S'(.)'
p5121
g3
F0.3618
tp5122
a(g5
g6
F0.9943
tp5123
asI2551
(lp5124
(S'ow'
p5125
g75
F0.9135
tp5126
a(S'(.)'
p5127
g75
F0.2774
tp5128
a(g5
g6
F0.9973
tp5129
asI972
(lp5130
(g278
g97
F0.9956
tp5131
a(S'little'
p5132
g66
F0.9859
tp5133
a(S'louder'
p5134
g66
F0.9483
tp5135
a(g5
g6
F0.9986
tp5136
asI3021
(lp5137
(S"you're"
p5138
g78
F0.9953
tp5139
a(S'not'
p5140
g81
F0.9973
tp5141
a(S'leavin(g'
p5142
g39
F0.9705
tp5143
a(g193
g6
F0.9738
tp5144
a(S'xxx'
p5145
g15
F0.8488
tp5146
a(g17
g6
F0.6588
tp5147
a(g14
g15
F0.5886
tp5148
a(g20
g6
F0.8062
tp5149
a(g5
g6
F0.9969
tp5150
asI976
(lp5151
(S'alright'
p5152
g75
F0.9793
tp5153
a(g5
g6
F0.9973
tp5154
asI979
(lp5155
(S'why'
p5156
g81
F0.9446
tp5157
a(S"don't"
p5158
g39
F0.9999
tp5159
a(S'you'
p5160
g86
F0.9985
tp5161
a(S'do'
p5162
g39
F0.9999
tp5163
a(S'your'
p5164
g97
F0.9629
tp5165
a(S'A_B_Cs'
p5166
g32
F0.7618
tp5167
a(g5
g6
F0.9991
tp5168
asI3028
(lp5169
(S'Tanya'
p5170
g3
F0.9801
tp5171
a(g75
g6
F0.991
tp5172
asI983
(lp5173
(S'can'
p5174
g39
F0.999
tp5175
a(S'you'
p5176
g86
F0.9994
tp5177
a(S'say'
p5178
g39
F0.9998
tp5179
a(S'your'
p5180
g97
F0.9605
tp5181
a(S'A_B_Cs'
p5182
g32
F0.6434
tp5183
a(S'for'
p5184
g104
F0.9998
tp5185
a(S'me'
p5186
g86
F0.9973
tp5187
a(g43
g6
F0.9984
tp5188
asI3034
(lp5189
(g395
g86
F0.9983
tp5190
a(S'wan(t'
p5191
g39
F0.9996
tp5192
a(g193
g6
F0.9323
tp5193
a(g511
g6
F0.9591
tp5194
a(S't)a'
p5195
g104
F0.7294
tp5196
a(S'put'
p5197
g39
F0.9744
tp5198
a(S'this'
p5199
g86
F0.783
tp5200
a(S'on'
p5201
g104
F0.6481
tp5202
a(g5
g6
F0.998
tp5203
asI988
(lp5204
(g511
g6
F0.9644
tp5205
a(S"I')m"
p5206
g78
F0.9894
tp5207
a(S'gonna'
p5208
g39
F0.9952
tp5209
a(S'do'
p5210
g39
F1.0
tp5211
a(S'it'
p5212
g86
F0.9761
tp5213
a(S'fast'
p5214
g66
F0.7486
tp5215
a(g5
g6
F0.9985
tp5216
asI2554
(lp5217
(S'wait'
p5218
g39
F0.9068
tp5219
a(g17
g6
F0.9883
tp5220
a(g43
g6
F0.976
tp5221
a(g20
g6
F0.811
tp5222
a(S'(.)'
p5223
g15
F0.2781
tp5224
a(g5
g6
F0.9509
tp5225
asI3038
(lp5226
(S'no'
p5227
g75
F0.703
tp5228
a(S'Michele'
p5229
g3
F0.9907
tp5230
a(g5
g6
F0.9946
tp5231
asI991
(lp5232
(S'go'
p5233
g39
F0.8431
tp5234
a(g511
g6
F0.9912
tp5235
a(S'a)head'
p5236
g66
F0.7242
tp5237
a(S'(.)'
p5238
g32
F0.3129
tp5239
a(g5
g6
F0.998
tp5240
asI3041
(lp5241
(S"let's"
p5242
g78
F0.9812
tp5243
a(S'see'
p5244
g39
F0.9876
tp5245
a(g5
g6
F0.9974
tp5246
asI994
(lp5247
(S'sing'
p5248
g39
F0.9992
tp5249
a(S'it'
p5250
g86
F0.9894
tp5251
a(g5
g6
F0.9987
tp5252
asI3044
(lp5253
(g395
g86
F0.9982
tp5254
a(S'think'
p5255
g39
F0.9996
tp5256
a(S"it'll"
p5257
g78
F0.9989
tp5258
a(S'be'
p5259
g39
F0.9983
tp5260
a(S'alright'
p5261
g81
F0.8493
tp5262
a(S'though'
p5263
g104
F0.8753
tp5264
a(S'xxx'
p5265
g15
F0.6323
tp5266
a(S'(.)'
p5267
g15
F0.8106
tp5268
a(g5
g6
F0.9756
tp5269
asI997
(lp5270
(g9
g10
F0.9197
tp5271
a(g278
g97
F0.94
tp5272
a(S'@l'
p5273
g1887
F0.9923
tp5274
a(S'b'
p5275
g39
F0.4611
tp5276
a(S'@l'
p5277
g1887
F0.9965
tp5278
a(S'c'
p5279
g50
F0.5669
tp5280
a(S'@l'
p5281
g1887
F0.9954
tp5282
a(g14
g10
F0.4082
tp5283
a(g17
g6
F0.9383
tp5284
a(g14
g15
F0.4205
tp5285
a(g20
g6
F0.7992
tp5286
a(g5
g6
F0.9936
tp5287
asI1000
(lp5288
(S'what'
p5289
g86
F0.9738
tp5290
a(g17
g6
F0.9703
tp5291
a(g9
g10
F0.972
tp5292
a(g20
g6
F0.974
tp5293
a(g43
g6
F0.9963
tp5294
asI1004
(lp5295
(S'sing'
p5296
g39
F0.9993
tp5297
a(S'your'
p5298
g97
F0.9872
tp5299
a(S'A_B_Cs'
p5300
g32
F0.8612
tp5301
a(g5
g6
F0.9992
tp5302
asI3054
(lp5303
(g9
g10
F0.9261
tp5304
a(S'Mom'
p5305
g32
F0.8235
tp5306
a(S'put'
p5307
g39
F0.9971
tp5308
a(S'it'
p5309
g86
F0.9863
tp5310
a(g14
g6
F0.3718
tp5311
a(S'[/]'
p5312
g3
F0.1617
tp5313
a(g17
g6
F0.9762
tp5314
a(g14
g15
F0.4567
tp5315
a(g20
g6
F0.8291
tp5316
a(g5
g6
F0.9959
tp5317
asI1007
(lp5318
(g9
g10
F0.9112
tp5319
a(S'Dad'
p5320
g32
F0.6527
tp5321
a(S'wants'
p5322
g39
F0.9984
tp5323
a(S'to'
p5324
g104
F0.9944
tp5325
a(S'hear'
p5326
g39
F0.9863
tp5327
a(g14
g15
F0.4762
tp5328
a(g17
g15
F0.5345
tp5329
a(g14
g15
F0.9532
tp5330
a(g20
g6
F0.9247
tp5331
a(S'you'
p5332
g86
F0.9723
tp5333
a(g5
g6
F0.9996
tp5334
asI3092
(lp5335
(S'okay'
p5336
g75
F0.8923
tp5337
a(S'wait'
p5338
g39
F0.9904
tp5339
a(g278
g97
F0.9929
tp5340
a(S'minute'
p5341
g32
F0.974
tp5342
a(g5
g6
F0.9986
tp5343
asI1010
(lp5344
(g395
g86
F0.9937
tp5345
a(g9
g10
F0.777
tp5346
a(S'can'
p5347
g39
F0.9976
tp5348
a(S'do'
p5349
g39
F1.0
tp5350
a(S'it'
p5351
g86
F0.9786
tp5352
a(S'fast'
p5353
g66
F0.7951
tp5354
a(g14
g15
F0.5324
tp5355
a(g17
g15
F0.535
tp5356
a(g9
g10
F0.7815
tp5357
a(g20
g6
F0.9822
tp5358
a(g5
g6
F0.9964
tp5359
asI1013
(lp5360
(g9
g10
F0.9112
tp5361
a(S'Dad'
p5362
g32
F0.6527
tp5363
a(S'wants'
p5364
g39
F0.9984
tp5365
a(S'to'
p5366
g104
F0.9944
tp5367
a(S'hear'
p5368
g39
F0.9993
tp5369
a(S'you'
p5370
g86
F0.9986
tp5371
a(g14
g15
F0.3773
tp5372
a(g17
g15
F0.5345
tp5373
a(g14
g15
F0.9577
tp5374
a(g20
g6
F0.795
tp5375
a(g5
g6
F0.9964
tp5376
asI1016
(lp5377
(g9
g10
F0.9359
tp5378
a(S'wan(t'
p5379
g39
F0.978
tp5380
a(g193
g6
F0.9935
tp5381
a(S'me'
p5382
g86
F0.9981
tp5383
a(S'do'
p5384
g39
F0.9993
tp5385
a(S'it'
p5386
g86
F0.9786
tp5387
a(S'fast'
p5388
g66
F0.7951
tp5389
a(g14
g15
F0.5324
tp5390
a(g17
g15
F0.535
tp5391
a(g9
g10
F0.768
tp5392
a(g20
g6
F0.9751
tp5393
a(g43
g6
F0.9934
tp5394
asI3065
(lp5395
(g9
g10
F0.9775
tp5396
a(S'(o)kay'
p5397
g75
F0.8794
tp5398
a(g14
g15
F0.4141
tp5399
a(g17
g15
F0.4963
tp5400
a(g9
g10
F0.7259
tp5401
a(g20
g6
F0.9666
tp5402
a(g43
g6
F0.9959
tp5403
asI2557
(lp5404
(S'what'
p5405
g86
F0.9798
tp5406
a(S'else'
p5407
g81
F0.8063
tp5408
a(S'do'
p5409
g39
F0.9991
tp5410
a(S'you'
p5411
g86
F0.9996
tp5412
a(S'do'
p5413
g39
F0.9997
tp5414
a(S'at'
p5415
g104
F0.9929
tp5416
a(S"Jennifer's"
p5417
g790
F0.5049
tp5418
a(S'besides'
p5419
g104
F0.3853
tp5420
a(S'do'
p5421
g39
F0.9885
tp5422
a(S'[//]'
p5423
g6
F0.2896
tp5424
a(g9
g10
F0.9212
tp5425
a(S'go'
p5426
g39
F0.991
tp5427
a(S'in'
p5428
g104
F0.9897
tp5429
a(S'the'
p5430
g97
F0.9992
tp5431
a(S'pool'
p5432
g32
F0.9987
tp5433
a(g14
g15
F0.5481
tp5434
a(g17
g15
F0.5345
tp5435
a(g14
g15
F0.9532
tp5436
a(g20
g6
F0.7352
tp5437
a(S'Tanya'
p5438
g3
F0.9962
tp5439
a(g5
g6
F0.9917
tp5440
asI1020
(lp5441
(S'yep'
p5442
g75
F0.9972
tp5443
a(g5
g6
F0.9971
tp5444
asI3069
(lp5445
(S"that's"
p5446
g78
F0.9971
tp5447
a(S'on'
p5448
g104
F0.7335
tp5449
a(g5
g6
F0.9968
tp5450
asI1023
(lp5451
(g511
g6
F0.9604
tp5452
a(S'o)kay'
p5453
g75
F0.6539
tp5454
a(g5
g6
F0.998
tp5455
asI3072
(lp5456
(S'no'
p5457
g97
F0.4724
tp5458
a(S'put'
p5459
g39
F0.7516
tp5460
a(S'it'
p5461
g86
F0.9812
tp5462
a(g9
g10
F0.6284
tp5463
a(S'on'
p5464
g104
F0.8994
tp5465
a(g17
g6
F0.9857
tp5466
a(g75
g6
F0.9901
tp5467
a(g20
g6
F0.9363
tp5468
a(g14
g15
F0.5377
tp5469
a(g17
g15
F0.5345
tp5470
a(g14
g15
F0.9597
tp5471
a(g20
g6
F0.6916
tp5472
a(g5
g6
F0.9952
tp5473
asI1027
(lp5474
(S'go'
p5475
g39
F0.8431
tp5476
a(g511
g6
F0.9891
tp5477
a(S'a)head'
p5478
g66
F0.5884
tp5479
a(g5
g6
F0.9986
tp5480
asI3076
(lp5481
(g9
g10
F0.9363
tp5482
a(S'try'
p5483
g39
F0.9796
tp5484
a(S'to'
p5485
g104
F0.9869
tp5486
a(S'untangle'
p5487
g39
F0.8572
tp5488
a(g14
g15
F0.5151
tp5489
a(g17
g15
F0.535
tp5490
a(g9
g10
F0.7057
tp5491
a(g20
g6
F0.9842
tp5492
a(g5
g6
F0.9969
tp5493
asI1030
(lp5494
(S'one'
p5495
g63
F0.958
tp5496
a(S'three'
p5497
g63
F0.8757
tp5498
a(S'four'
p5499
g63
F0.6295
tp5500
a(S'five'
p5501
g63
F0.4783
tp5502
a(S'six'
p5503
g63
F0.4682
tp5504
a(g9
g10
F0.8516
tp5505
a(S'seven'
p5506
g63
F0.8681
tp5507
a(S'eight'
p5508
g63
F0.7424
tp5509
a(g14
g15
F0.4755
tp5510
a(g17
g15
F0.5345
tp5511
a(g14
g15
F0.9532
tp5512
a(g20
g15
F0.6954
tp5513
a(S'nine'
p5514
g66
F0.4073
tp5515
a(S'ten'
p5516
g63
F0.6839
tp5517
a(S'eleven'
p5518
g63
F0.8106
tp5519
a(S'thirteen'
p5520
g63
F0.4866
tp5521
a(g5
g6
F0.9973
tp5522
asI3079
(lp5523
(S'oh'
p5524
g75
F0.9908
tp5525
a(S'shit'
p5526
g75
F0.5539
tp5527
a(g75
g6
F0.9985
tp5528
asI3082
(lp5529
(S'oh'
p5530
g75
F0.9933
tp5531
a(S'shoot'
p5532
g32
F0.8279
tp5533
a(g5
g6
F0.9986
tp5534
asI1036
(lp5535
(S'twelve'
p5536
g63
F0.7735
tp5537
a(g17
g6
F0.9799
tp5538
a(g9
g10
F0.972
tp5539
a(g20
g6
F0.9847
tp5540
a(g5
g6
F0.9962
tp5541
asI3085
(lp5542
(S'oh'
p5543
g75
F0.997
tp5544
a(g395
g86
F0.9987
tp5545
a(S'think'
p5546
g39
F0.9998
tp5547
a(g395
g86
F0.9979
tp5548
a(S'just'
p5549
g81
F0.9993
tp5550
a(g1039
g50
F0.4893
tp5551
a(S'...'
p5552
g10
F0.6739
tp5553
asI2694
(lp5554
(S'huh'
p5555
g75
F0.9936
tp5556
a(g43
g6
F0.9967
tp5557
asI1040
(lp5558
(S'no'
p5559
g75
F0.8389
tp5560
a(g17
g6
F0.9933
tp5561
a(g14
g15
F0.3811
tp5562
a(g20
g6
F0.7604
tp5563
a(g5
g6
F0.9962
tp5564
asI3089
(lp5565
(S'shoot'
p5566
g32
F0.8994
tp5567
a(g5
g6
F0.9985
tp5568
asI1044
(lp5569
(S'no'
p5570
g75
F0.8389
tp5571
a(g17
g6
F0.9936
tp5572
a(g9
g10
F0.972
tp5573
a(g20
g6
F0.9847
tp5574
a(g5
g6
F0.9962
tp5575
asI1047
(lp5576
(S"it's"
p5577
g78
F0.9866
tp5578
a(S'twelve'
p5579
g66
F0.5505
tp5580
a(S'thirteen'
p5581
g32
F0.614
tp5582
a(g5
g6
F0.9987
tp5583
asI3098
(lp5584
(S'no'
p5585
g75
F0.8567
tp5586
a(g395
g86
F0.9976
tp5587
a(S'think'
p5588
g39
F1.0
tp5589
a(S'it'
p5590
g86
F0.9958
tp5591
a(S'was'
p5592
g39
F0.9988
tp5593
a(S'alright'
p5594
g81
F0.6701
tp5595
a(g5
g6
F0.997
tp5596
asI1051
(lp5597
(S'thirteen'
p5598
g63
F0.6198
tp5599
a(g43
g6
F0.9954
tp5600
asI3101
(lp5601
(S'it'
p5602
g86
F0.991
tp5603
a(S'just'
p5604
g81
F0.9991
tp5605
a(S'made'
p5606
g39
F0.9996
tp5607
a(S'it'
p5608
g86
F0.9862
tp5609
a(g5
g6
F0.9989
tp5610
asI1056
(lp5611
(S'get'
p5612
g39
F0.9983
tp5613
a(S'out'
p5614
g662
F0.6351
tp5615
a(S'o(f'
p5616
g32
F0.2824
tp5617
a(g193
g6
F0.9949
tp5618
a(S'there'
p5619
g81
F0.4719
tp5620
a(S'get'
p5621
g39
F0.999
tp5622
a(S'out'
p5623
g662
F0.6463
tp5624
a(S'o(f'
p5625
g104
F0.3374
tp5626
a(g193
g6
F0.9875
tp5627
a(S'there'
p5628
g81
F0.5063
tp5629
a(S'(.)'
p5630
g15
F0.2158
tp5631
a(g5
g6
F0.9491
tp5632
asI3108
(lp5633
(S'think'
p5634
g39
F0.9857
tp5635
a(g395
g86
F0.9983
tp5636
a(S'just'
p5637
g81
F0.9992
tp5638
a(S'made'
p5639
g39
F0.9992
tp5640
a(S'it'
p5641
g86
F0.9855
tp5642
a(g5
g6
F0.9986
tp5643
asI1061
(lp5644
(S'c(o)me'
p5645
g39
F0.8261
tp5646
a(S'on'
p5647
g104
F0.9472
tp5648
a(S'eat'
p5649
g39
F0.9312
tp5650
a(S'your'
p5651
g97
F0.994
tp5652
a(S'supper'
p5653
g32
F0.9976
tp5654
a(g5
g6
F0.9982
tp5655
asI2225
(lp5656
(g9
g10
F0.9346
tp5657
a(S'did'
p5658
g39
F0.9831
tp5659
a(S'Head'
p5660
g32
F0.8556
tp5661
a(S'Start'
p5662
g39
F0.9698
tp5663
a(g14
g15
F0.456
tp5664
a(g17
g15
F0.5345
tp5665
a(g14
g15
F0.9532
tp5666
a(g20
g6
F0.8189
tp5667
a(S'teach'
p5668
g39
F0.9989
tp5669
a(S'you'
p5670
g86
F0.9973
tp5671
a(g5
g6
F0.9996
tp5672
asI3112
(lp5673
(S'not'
p5674
g81
F0.992
tp5675
a(S'gonna'
p5676
g39
F0.9961
tp5677
a(S'get'
p5678
g39
F0.9992
tp5679
a(S'tape'
p5680
g32
F0.9839
tp5681
a(S'recorder'
p5682
g32
F0.9983
tp5683
a(g17
g6
F0.9846
tp5684
a(g43
g6
F0.9841
tp5685
a(g20
g6
F0.7118
tp5686
a(S'xxx'
p5687
g15
F0.4727
tp5688
a(S'wet'
p5689
g66
F0.9531
tp5690
a(S'(.)'
p5691
g15
F0.2583
tp5692
a(g43
g6
F0.9592
tp5693
asI1065
(lp5694
(S'okay'
p5695
g75
F0.8969
tp5696
a(S'keep'
p5697
g39
F0.8974
tp5698
a(S'eating'
p5699
g39
F0.9899
tp5700
a(S'(.)'
p5701
g3
F0.2452
tp5702
a(g5
g6
F0.9943
tp5703
asI3115
(lp5704
(S'no'
p5705
g75
F0.8449
tp5706
a(S"I'm"
p5707
g78
F0.9977
tp5708
a(S'not'
p5709
g81
F0.9978
tp5710
a(S'puttin(g'
p5711
g39
F0.9629
tp5712
a(g193
g6
F0.995
tp5713
a(S'it'
p5714
g86
F0.9892
tp5715
a(S'up'
p5716
g662
F0.9714
tp5717
a(S'very'
p5718
g81
F0.9924
tp5719
a(S'high'
p5720
g66
F0.9802
tp5721
a(g5
g6
F0.9979
tp5722
asI1069
(lp5723
(S'that'
p5724
g97
F0.6421
tp5725
a(S'good'
p5726
g66
F0.9938
tp5727
a(S'(.)'
p5728
g32
F0.2547
tp5729
a(g43
g6
F0.9966
tp5730
asI3120
(lp5731
(S'right'
p5732
g81
F0.8071
tp5733
a(S'now'
p5734
g81
F0.9962
tp5735
a(S'okay'
p5736
g75
F0.6512
tp5737
a(g43
g6
F0.9983
tp5738
asI1075
(lp5739
(S'you'
p5740
g86
F0.9968
tp5741
a(S'gonna'
p5742
g39
F0.9994
tp5743
a(S'go'
p5744
g39
F0.9993
tp5745
a(S'to'
p5746
g104
F0.9884
tp5747
a(S"Daddy's"
p5748
g790
F0.9661
tp5749
a(S'game'
p5750
g32
F0.9964
tp5751
a(S'tonight'
p5752
g32
F0.641
tp5753
a(g43
g6
F0.9985
tp5754
asI3127
(lp5755
(S'oh'
p5756
g75
F0.9984
tp5757
a(g5
g6
F0.9938
tp5758
asI1082
(lp5759
(S'no'
p5760
g75
F0.9704
tp5761
a(g5
g6
F0.9989
tp5762
asI3131
(lp5763
(g395
g86
F0.9976
tp5764
a(S"can't"
p5765
g39
F1.0
tp5766
a(S'do'
p5767
g39
F1.0
tp5768
a(S'it'
p5769
g86
F0.9921
tp5770
a(S'right'
p5771
g81
F0.9392
tp5772
a(S'now'
p5773
g81
F0.9909
tp5774
a(S'Michele'
p5775
g3
F0.9997
tp5776
a(g5
g6
F0.995
tp5777
asI1086
(lp5778
(S'no'
p5779
g75
F0.9704
tp5780
a(g5
g6
F0.9989
tp5781
asI2229
(lp5782
(g9
g10
F0.9346
tp5783
a(S'did'
p5784
g39
F0.9831
tp5785
a(S'Head'
p5786
g32
F0.8556
tp5787
a(S'Start'
p5788
g39
F0.9698
tp5789
a(g14
g15
F0.456
tp5790
a(g17
g15
F0.5345
tp5791
a(g14
g15
F0.9532
tp5792
a(g20
g6
F0.8189
tp5793
a(S'teach'
p5794
g39
F0.9989
tp5795
a(S'you'
p5796
g86
F0.9973
tp5797
a(g5
g6
F0.9996
tp5798
asI3136
(lp5799
(S'alright'
p5800
g75
F0.9793
tp5801
a(g5
g6
F0.9973
tp5802
asI1089
(lp5803
(S'why'
p5804
g81
F0.9408
tp5805
a(g43
g6
F0.9946
tp5806
asI3139
(lp5807
(S"won't"
p5808
g39
F0.9176
tp5809
a(S'go'
p5810
g39
F0.9981
tp5811
a(S'right'
p5812
g81
F0.8166
tp5813
a(g5
g6
F0.9987
tp5814
asI1093
(lp5815
(S'stay'
p5816
g39
F0.6931
tp5817
a(g9
g10
F0.509
tp5818
a(S'with'
p5819
g104
F0.9658
tp5820
a(g511
g6
F0.9865
tp5821
a(S'A)manda'
p5822
g3
F0.6699
tp5823
a(g14
g3
F0.3029
tp5824
a(g17
g6
F0.9644
tp5825
a(g14
g15
F0.4567
tp5826
a(g20
g6
F0.8291
tp5827
a(g5
g6
F0.9959
tp5828
asI3142
(lp5829
(S'can'
p5830
g39
F0.999
tp5831
a(S'you'
p5832
g86
F0.9985
tp5833
a(S'push'
p5834
g39
F0.999
tp5835
a(S'it'
p5836
g86
F0.9894
tp5837
a(S'up'
p5838
g662
F0.968
tp5839
a(S'near'
p5840
g104
F0.9736
tp5841
a(S'where'
p5842
g81
F0.8425
tp5843
a(S'the'
p5844
g97
F0.9984
tp5845
a(S'pail'
p5846
g32
F0.9981
tp5847
a(S'is'
p5848
g39
F0.9961
tp5849
a(g43
g6
F0.9975
tp5850
asI1096
(lp5851
(g9
g10
F0.8841
tp5852
a(S'because'
p5853
g104
F0.9982
tp5854
a(S'it'
p5855
g86
F0.9988
tp5856
a(g14
g15
F0.4803
tp5857
a(g17
g15
F0.535
tp5858
a(g9
g10
F0.8293
tp5859
a(g20
g6
F0.9829
tp5860
a(S"ain't"
p5861
g39
F0.9911
tp5862
a(S'no'
p5863
g97
F0.9455
tp5864
a(S'park'
p5865
g32
F0.996
tp5866
a(g5
g6
F0.9987
tp5867
asI2572
(lp5868
(S'can'
p5869
g39
F0.9938
tp5870
a(g395
g86
F0.9991
tp5871
a(S'talk'
p5872
g39
F0.993
tp5873
a(g43
g6
F0.9979
tp5874
asI1099
(lp5875
(g511
g6
F0.9736
tp5876
a(S'be)cause'
p5877
g104
F0.9964
tp5878
a(S'it'
p5879
g86
F0.9984
tp5880
a(g9
g10
F0.7242
tp5881
a(S"isn't"
p5882
g39
F0.9992
tp5883
a(g278
g97
F0.9979
tp5884
a(S'park'
p5885
g32
F0.9607
tp5886
a(g14
g15
F0.6171
tp5887
a(g17
g15
F0.5345
tp5888
a(g14
g15
F0.949
tp5889
a(g20
g6
F0.6387
tp5890
a(g43
g6
F0.9934
tp5891
asI1102
(lp5892
(g9
g10
F0.9526
tp5893
a(g395
g86
F0.9989
tp5894
a(S'hate'
p5895
g39
F1.0
tp5896
a(S'it'
p5897
g86
F0.9784
tp5898
a(S'when'
p5899
g81
F0.9803
tp5900
a(S'it'
p5901
g86
F0.9956
tp5902
a(g14
g15
F0.4648
tp5903
a(g17
g15
F0.535
tp5904
a(g9
g10
F0.8293
tp5905
a(g20
g6
F0.9829
tp5906
a(S"ain't"
p5907
g39
F0.9899
tp5908
a(g278
g97
F0.9963
tp5909
a(S'park'
p5910
g32
F0.8511
tp5911
a(S'(.)'
p5912
g6
F0.2827
tp5913
a(g5
g6
F0.9958
tp5914
asI3155
(lp5915
(S'push'
p5916
g39
F0.9709
tp5917
a(S'it'
p5918
g86
F0.9924
tp5919
a(S'up'
p5920
g662
F0.9711
tp5921
a(S'for'
p5922
g104
F0.9994
tp5923
a(S'me'
p5924
g86
F0.9992
tp5925
a(S'where'
p5926
g81
F0.9865
tp5927
a(S'the'
p5928
g97
F0.9984
tp5929
a(S'pail'
p5930
g32
F0.9963
tp5931
a(S'is'
p5932
g39
F0.9955
tp5933
a(g5
g6
F0.9978
tp5934
asI1108
(lp5935
(S'ouch'
p5936
g75
F0.996
tp5937
a(g5
g6
F0.9962
tp5938
asI2901
(lp5939
(g9
g10
F0.9314
tp5940
a(S"we're"
p5941
g78
F0.9424
tp5942
a(S'gonna'
p5943
g39
F0.9935
tp5944
a(S'bring'
p5945
g39
F1.0
tp5946
a(S'it'
p5947
g86
F0.9881
tp5948
a(S'outside'
p5949
g104
F0.2726
tp5950
a(g14
g15
F0.4064
tp5951
a(g17
g15
F0.535
tp5952
a(g9
g10
F0.7815
tp5953
a(g20
g6
F0.9822
tp5954
a(g5
g6
F0.9964
tp5955
asI1111
(lp5956
(S'xxx'
p5957
g15
F0.5822
tp5958
a(g5
g6
F0.9648
tp5959
asI1112
(lp5960
(S'xxx'
p5961
g15
F0.5822
tp5962
a(g5
g6
F0.9648
tp5963
asI1113
(lp5964
(S'next'
p5965
g66
F0.5043
tp5966
a(S'to'
p5967
g104
F0.9997
tp5968
a(S'the'
p5969
g97
F0.9989
tp5970
a(S'stove'
p5971
g32
F0.9972
tp5972
a(g17
g6
F0.9874
tp5973
a(g43
g6
F0.982
tp5974
a(g20
g6
F0.9134
tp5975
a(g5
g6
F0.9962
tp5976
asI3163
(lp5977
(S'can'
p5978
g39
F0.999
tp5979
a(S'you'
p5980
g86
F0.9985
tp5981
a(S'push'
p5982
g39
F0.999
tp5983
a(S'it'
p5984
g86
F0.987
tp5985
a(S'back'
p5986
g81
F0.4952
tp5987
a(g278
g97
F0.9957
tp5988
a(S'little'
p5989
g66
F0.9885
tp5990
a(g43
g6
F0.9974
tp5991
asI1116
(lp5992
(S'xxx'
p5993
g15
F0.5822
tp5994
a(g5
g6
F0.9648
tp5995
asI1117
(lp5996
(S'hm'
p5997
g75
F0.9699
tp5998
a(g2003
g6
F0.7686
tp5999
a(g17
g6
F0.9123
tp6000
a(g43
g6
F0.9842
tp6001
a(g20
g6
F0.8574
tp6002
a(g43
g6
F0.995
tp6003
asI3167
(lp6004
(S'like'
p6005
g104
F0.911
tp6006
a(g395
g86
F0.9997
tp6007
a(S'had'
p6008
g39
F1.0
tp6009
a(S'it'
p6010
g86
F0.9878
tp6011
a(S'before'
p6012
g104
F0.8636
tp6013
a(S'(.)'
p6014
g3
F0.4828
tp6015
a(g43
g6
F0.9948
tp6016
asI1120
(lp6017
(S'hm'
p6018
g75
F0.9811
tp6019
a(g2003
g6
F0.891
tp6020
a(g43
g6
F0.9885
tp6021
asI3170
(lp6022
(S"that's"
p6023
g78
F0.9858
tp6024
a(S'it'
p6025
g86
F0.9942
tp6026
a(S'(.)'
p6027
g6
F0.2497
tp6028
a(g5
g6
F0.9962
tp6029
asI1123
(lp6030
(S'zzz'
p6031
g50
F0.409
tp6032
a(g17
g6
F0.9395
tp6033
a(g14
g15
F0.3811
tp6034
a(g20
g6
F0.7604
tp6035
a(g5
g6
F0.9962
tp6036
asI3173
(lp6037
(g9
g10
F0.9363
tp6038
a(S'try'
p6039
g39
F0.9888
tp6040
a(S'right'
p6041
g81
F0.8489
tp6042
a(S'there'
p6043
g81
F0.7513
tp6044
a(g14
g15
F0.5498
tp6045
a(g17
g15
F0.5345
tp6046
a(g14
g15
F0.9732
tp6047
a(g20
g6
F0.8062
tp6048
a(g5
g6
F0.9969
tp6049
asI1127
(lp6050
(g9
g10
F0.9511
tp6051
a(S'Tanya'
p6052
g3
F0.9728
tp6053
a(S'you'
p6054
g86
F0.998
tp6055
a(S'gonna'
p6056
g39
F0.9994
tp6057
a(S'go'
p6058
g39
F0.9992
tp6059
a(S'to'
p6060
g104
F0.9759
tp6061
a(g14
g15
F0.3347
tp6062
a(g17
g15
F0.535
tp6063
a(g9
g10
F0.8293
tp6064
a(g20
g6
F0.9814
tp6065
a(S'school'
p6066
g32
F0.981
tp6067
a(S'pretty'
p6068
g81
F0.9644
tp6069
a(S'soon'
p6070
g81
F0.9619
tp6071
a(g43
g6
F0.9988
tp6072
asI3176
(lp6073
(g9
g10
F0.9125
tp6074
a(S'here'
p6075
g81
F0.8945
tp6076
a(g17
g6
F0.9904
tp6077
a(g43
g6
F0.9878
tp6078
a(g20
g6
F0.7796
tp6079
a(g14
g15
F0.5377
tp6080
a(g17
g15
F0.535
tp6081
a(g9
g10
F0.7916
tp6082
a(g20
g6
F0.9773
tp6083
a(g43
g6
F0.9957
tp6084
asI3179
(lp6085
(S'yeah'
p6086
g75
F0.9925
tp6087
a(S"let's"
p6088
g78
F0.9922
tp6089
a(S'try'
p6090
g39
F0.9987
tp6091
a(S'that'
p6092
g86
F0.8101
tp6093
a(g5
g6
F0.9988
tp6094
asI1133
(lp6095
(g9
g10
F0.9347
tp6096
a(S'put'
p6097
g39
F0.9876
tp6098
a(S'this'
p6099
g86
F0.8226
tp6100
a(S'down'
p6101
g662
F0.7731
tp6102
a(g14
g15
F0.3988
tp6103
a(g17
g15
F0.535
tp6104
a(g9
g10
F0.8293
tp6105
a(g20
g6
F0.9284
tp6106
a(g17
g6
F0.9615
tp6107
a(g14
g15
F0.4205
tp6108
a(g20
g6
F0.7992
tp6109
a(g5
g6
F0.9936
tp6110
asI3182
(lp6111
(g511
g6
F0.9613
tp6112
a(S'o)kay'
p6113
g75
F0.571
tp6114
a(S'Tanya'
p6115
g3
F0.999
tp6116
a(S'come'
p6117
g39
F0.9867
tp6118
a(S'on'
p6119
g662
F0.5203
tp6120
a(g5
g6
F0.9969
tp6121
asI1137
(lp6122
(S'hm'
p6123
g75
F0.9811
tp6124
a(g2003
g6
F0.891
tp6125
a(g43
g6
F0.9885
tp6126
asI1141
(lp6127
(S'what'
p6128
g86
F0.9171
tp6129
a(g43
g6
F0.9924
tp6130
asI3190
(lp6131
(S'come'
p6132
g39
F0.9849
tp6133
a(S'on'
p6134
g104
F0.4922
tp6135
a(g5
g6
F0.9968
tp6136
asI3193
(lp6137
(S'oh'
p6138
g75
F0.9984
tp6139
a(g5
g6
F0.9938
tp6140
asI1147
(lp6141
(S'huh'
p6142
g75
F0.9936
tp6143
a(g43
g6
F0.9967
tp6144
asI3196
(lp6145
(S'okay'
p6146
g75
F0.9183
tp6147
a(S"we'll"
p6148
g78
F0.9739
tp6149
a(S'leave'
p6150
g39
F0.9998
tp6151
a(S'it'
p6152
g86
F0.9888
tp6153
a(S'right'
p6154
g81
F0.807
tp6155
a(S'there'
p6156
g81
F0.9195
tp6157
a(g5
g6
F0.998
tp6158
asI1151
(lp6159
(S'your'
p6160
g97
F0.9627
tp6161
a(S'Dad'
p6162
g32
F0.9556
tp6163
a(S'had'
p6164
g39
F0.9969
tp6165
a(S'wanted'
p6166
g39
F0.9931
tp6167
a(S'you'
p6168
g86
F0.9982
tp6169
a(S'to'
p6170
g104
F0.9764
tp6171
a(S'say'
p6172
g39
F0.9878
tp6173
a(g17
g6
F0.9875
tp6174
a(g43
g6
F0.9841
tp6175
a(g20
g6
F0.9291
tp6176
a(S'some(th)in(g'
p6177
g32
F0.9872
tp6178
a(g193
g6
F0.9923
tp6179
a(S'for'
p6180
g104
F0.9889
tp6181
a(S'after'
p6182
g104
F0.5906
tp6183
a(S'dinner'
p6184
g32
F0.9881
tp6185
a(g5
g6
F0.999
tp6186
asI3200
(lp6187
(S"that's"
p6188
g78
F0.9913
tp6189
a(S'okay'
p6190
g66
F0.8814
tp6191
a(g5
g6
F0.9978
tp6192
asI3203
(lp6193
(S'long'
p6194
g66
F0.9507
tp6195
a(S'as'
p6196
g104
F0.9788
tp6197
a(S"it's"
p6198
g78
F0.9961
tp6199
a(S'down'
p6200
g81
F0.5929
tp6201
a(g5
g6
F0.9984
tp6202
asI1157
(lp6203
(S"it's"
p6204
g78
F0.9961
tp6205
a(S'getting'
p6206
g39
F0.9959
tp6207
a(S'too'
p6208
g81
F0.998
tp6209
a(S'long'
p6210
g66
F0.9824
tp6211
a(g5
g6
F0.9987
tp6212
asI3207
(lp6213
(S"that's"
p6214
g78
F0.9974
tp6215
a(S'not'
p6216
g81
F0.9907
tp6217
a(S'that'
p6218
g97
F0.4244
tp6219
a(S'high'
p6220
g32
F0.6015
tp6221
a(S'so'
p6222
g104
F0.6484
tp6223
a(S"it'll"
p6224
g78
F0.9982
tp6225
a(S'be'
p6226
g39
F0.9976
tp6227
a(S'alright'
p6228
g81
F0.621
tp6229
a(g5
g6
F0.9978
tp6230
asI1160
(lp6231
(g395
g86
F0.9976
tp6232
a(S"don't"
p6233
g39
F1.0
tp6234
a(S'know'
p6235
g39
F0.9995
tp6236
a(S'how'
p6237
g81
F0.9988
tp6238
a(S'long'
p6239
g66
F0.9601
tp6240
a(S'it'
p6241
g86
F0.9868
tp6242
a(S'takes'
p6243
g39
F0.9985
tp6244
a(S'xxx'
p6245
g15
F0.7992
tp6246
a(g17
g6
F0.6588
tp6247
a(g14
g15
F0.4205
tp6248
a(g20
g6
F0.7992
tp6249
a(g5
g6
F0.9936
tp6250
asI3212
(lp6251
(S'okay'
p6252
g75
F0.9732
tp6253
a(g43
g6
F0.9976
tp6254
asI3266
(lp6255
(S'say'
p6256
g39
F0.8393
tp6257
a(S'bye'
p6258
g75
F0.9196
tp6259
a(S'(.)'
p6260
g3
F0.3869
tp6261
a(g5
g6
F0.9942
tp6262
asI1166
(lp6263
(S'xxx'
p6264
g15
F0.8981
tp6265
a(g17
g6
F0.6622
tp6266
a(g9
g10
F0.972
tp6267
a(g20
g6
F0.9847
tp6268
a(g5
g6
F0.9962
tp6269
asI1167
(lp6270
(S'xxx'
p6271
g15
F0.8981
tp6272
a(g17
g6
F0.661
tp6273
a(g14
g15
F0.3811
tp6274
a(g20
g6
F0.5836
tp6275
a(g43
g6
F0.9963
tp6276
asI1168
(lp6277
(S'what'
p6278
g86
F0.9738
tp6279
a(g17
g6
F0.9703
tp6280
a(g9
g10
F0.972
tp6281
a(g20
g6
F0.974
tp6282
a(g43
g6
F0.9963
tp6283
asI1171
(lp6284
(S'xxx'
p6285
g15
F0.7103
tp6286
a(g43
g6
F0.9715
tp6287
asI1172
(lp6288
(S"I'm"
p6289
g78
F0.9973
tp6290
a(S'talkin(g'
p6291
g39
F0.8053
tp6292
a(g193
g6
F0.9912
tp6293
a(S'to'
p6294
g104
F0.9822
tp6295
a(S'Daddy'
p6296
g32
F0.6047
tp6297
a(g5
g6
F0.9983
tp6298
asI3222
(lp6299
(S'go'
p6300
g39
F0.8431
tp6301
a(g511
g6
F0.9912
tp6302
a(S'a)head'
p6303
g66
F0.8299
tp6304
a(S'Tan'
p6305
g32
F0.6532
tp6306
a(g17
g6
F0.987
tp6307
a(g14
g15
F0.6043
tp6308
a(g20
g6
F0.7541
tp6309
a(g5
g6
F0.9962
tp6310
asI1175
(lp6311
(S'oh'
p6312
g75
F0.9984
tp6313
a(g5
g6
F0.9938
tp6314
asI2835
(lp6315
(S'xxx'
p6316
g15
F0.8981
tp6317
a(g17
g6
F0.661
tp6318
a(g14
g15
F0.3811
tp6319
a(g20
g6
F0.7604
tp6320
a(g5
g6
F0.9962
tp6321
asI3225
(lp6322
(g9
g10
F0.9277
tp6323
a(S'its'
p6324
g78
F0.9892
tp6325
a(S'too'
p6326
g81
F0.9977
tp6327
a(S'high'
p6328
g66
F0.9432
tp6329
a(g14
g15
F0.38
tp6330
a(g17
g15
F0.535
tp6331
a(g9
g10
F0.7057
tp6332
a(g20
g6
F0.9842
tp6333
a(g5
g6
F0.9969
tp6334
asI1178
(lp6335
(S'he'
p6336
g86
F0.9959
tp6337
a(S'has'
p6338
g39
F0.9998
tp6339
a(S'to'
p6340
g104
F0.9933
tp6341
a(S'ask'
p6342
g39
F0.9917
tp6343
a(g17
g6
F0.9883
tp6344
a(g14
g15
F0.4438
tp6345
a(g20
g6
F0.9095
tp6346
a(S'her'
p6347
g97
F0.5318
tp6348
a(S'some'
p6349
g97
F0.9591
tp6350
a(S'questions'
p6351
g32
F0.9976
tp6352
a(S'or'
p6353
g191
F0.9919
tp6354
a(S'somethin(g'
p6355
g32
F0.9973
tp6356
a(g193
g6
F0.9895
tp6357
a(g5
g6
F0.9976
tp6358
asI3229
(lp6359
(S'gonna'
p6360
g39
F0.9802
tp6361
a(S'go'
p6362
g39
F0.9992
tp6363
a(S'in'
p6364
g104
F0.9811
tp6365
a(S'the'
p6366
g97
F0.9991
tp6367
a(S'sprinkler'
p6368
g32
F0.9978
tp6369
a(g17
g6
F0.9814
tp6370
a(g14
g15
F0.5886
tp6371
a(g20
g6
F0.6496
tp6372
a(g43
g6
F0.9965
tp6373
asI1183
(lp6374
(S'zzz'
p6375
g50
F0.409
tp6376
a(g17
g6
F0.9451
tp6377
a(g9
g10
F0.972
tp6378
a(g20
g6
F0.9847
tp6379
a(g5
g6
F0.9962
tp6380
asI3233
(lp6381
(g9
g10
F0.9325
tp6382
a(S"it's>"
p6383
g78
F0.9178
tp6384
a(g17
g6
F0.9542
tp6385
a(g9
g10
F0.9566
tp6386
a(g20
g6
F0.9918
tp6387
a(S'too'
p6388
g81
F0.9888
tp6389
a(S'high'
p6390
g66
F0.955
tp6391
a(g5
g6
F0.9978
tp6392
asI1187
(lp6393
(S'Tanya'
p6394
g3
F0.9809
tp6395
a(g9
g10
F0.4844
tp6396
a(S'count'
p6397
g39
F0.9303
tp6398
a(S'to'
p6399
g104
F0.9559
tp6400
a(g14
g50
F0.3683
tp6401
a(S'[/]'
p6402
g50
F0.2423
tp6403
a(S'count'
p6404
g39
F0.9316
tp6405
a(S'to'
p6406
g104
F0.9726
tp6407
a(S'ten'
p6408
g63
F0.8537
tp6409
a(g5
g6
F0.9972
tp6410
asI2246
(lp6411
(g9
g10
F0.9112
tp6412
a(S'Dad'
p6413
g32
F0.464
tp6414
a(S'you'
p6415
g86
F0.9964
tp6416
a(S'got'
p6417
g39
F0.9999
tp6418
a(S'me'
p6419
g86
F0.9991
tp6420
a(g14
g15
F0.5031
tp6421
a(g17
g15
F0.535
tp6422
a(g9
g10
F0.7916
tp6423
a(g20
g6
F0.9861
tp6424
a(g5
g6
F0.9959
tp6425
asI1190
(lp6426
(g395
g86
F0.9976
tp6427
a(S"can't"
p6428
g39
F0.9999
tp6429
a(g5
g6
F0.9971
tp6430
asI3240
(lp6431
(S'Tanya'
p6432
g3
F0.9918
tp6433
a(S'watch'
p6434
g39
F0.9942
tp6435
a(S'this'
p6436
g86
F0.5323
tp6437
a(S'xxx'
p6438
g15
F0.7714
tp6439
a(g17
g6
F0.6588
tp6440
a(g14
g15
F0.6043
tp6441
a(g20
g6
F0.7541
tp6442
a(g5
g6
F0.9962
tp6443
asI1193
(lp6444
(S'you'
p6445
g86
F0.9953
tp6446
a(S'can'
p6447
g39
F0.9991
tp6448
a(g5
g6
F0.9972
tp6449
asI3243
(lp6450
(g9
g10
F0.9347
tp6451
a(S'put'
p6452
g39
F0.9955
tp6453
a(S'it'
p6454
g86
F0.9619
tp6455
a(S'on'
p6456
g104
F0.687
tp6457
a(g17
g6
F0.9857
tp6458
a(g75
g6
F0.9901
tp6459
a(g20
g6
F0.9363
tp6460
a(g14
g15
F0.5377
tp6461
a(g17
g15
F0.535
tp6462
a(g9
g10
F0.8293
tp6463
a(g20
g6
F0.984
tp6464
a(g395
g86
F0.9974
tp6465
a(S'wan(t'
p6466
g39
F0.9995
tp6467
a(g193
g6
F0.9419
tp6468
a(g511
g6
F0.9507
tp6469
a(S't)a'
p6470
g104
F0.4513
tp6471
a(S'say'
p6472
g39
F0.8761
tp6473
a(g5
g6
F0.9983
tp6474
asI1196
(lp6475
(S'tell'
p6476
g39
F0.8888
tp6477
a(S'Daddy'
p6478
g32
F0.9141
tp6479
a(g5
g6
F0.9986
tp6480
asI3246
(lp6481
(g9
g10
F0.9765
tp6482
a(S'bye'
p6483
g75
F0.9078
tp6484
a(S'bye'
p6485
g75
F0.9135
tp6486
a(g14
g15
F0.549
tp6487
a(g17
g15
F0.5345
tp6488
a(g14
g15
F0.9749
tp6489
a(g20
g6
F0.7541
tp6490
a(g5
g6
F0.9962
tp6491
asI1199
(lp6492
(g9
g10
F0.9112
tp6493
a(S'Daddy'
p6494
g32
F0.7522
tp6495
a(S'wants'
p6496
g39
F0.9944
tp6497
a(g14
g15
F0.5742
tp6498
a(g17
g15
F0.5345
tp6499
a(g14
g15
F0.9532
tp6500
a(g20
g6
F0.8218
tp6501
a(S'to'
p6502
g104
F0.9931
tp6503
a(S'listen'
p6504
g39
F0.9987
tp6505
a(g5
g6
F0.9981
tp6506
asI3249
(lp6507
(g9
g10
F0.9171
tp6508
a(S'it'
p6509
g86
F0.9979
tp6510
a(S'is'
p6511
g39
F0.9997
tp6512
a(S'on'
p6513
g104
F0.9488
tp6514
a(g14
g15
F0.279
tp6515
a(g17
g15
F0.535
tp6516
a(g9
g10
F0.8293
tp6517
a(g20
g6
F0.9284
tp6518
a(g17
g6
F0.9615
tp6519
a(g14
g15
F0.4205
tp6520
a(g20
g6
F0.7992
tp6521
a(g5
g6
F0.9936
tp6522
asI1202
(lp6523
(g9
g10
F0.9372
tp6524
a(S'count'
p6525
g39
F0.9406
tp6526
a(S'to'
p6527
g104
F0.9606
tp6528
a(S'ten'
p6529
g63
F0.8015
tp6530
a(g14
g15
F0.469
tp6531
a(g17
g15
F0.535
tp6532
a(g9
g10
F0.7057
tp6533
a(g20
g6
F0.9842
tp6534
a(g5
g6
F0.9969
tp6535
asI3252
(lp6536
(S'say'
p6537
g39
F0.8831
tp6538
a(S'alright'
p6539
g75
F0.8114
tp6540
a(S'say'
p6541
g39
F0.8629
tp6542
a(S'bye'
p6543
g75
F0.6843
tp6544
a(S'now'
p6545
g81
F0.9838
tp6546
a(g5
g6
F0.9982
tp6547
asI1205
(lp6548
(S'huh'
p6549
g75
F0.9936
tp6550
a(g43
g6
F0.9967
tp6551
asI3255
(lp6552
(S'say'
p6553
g39
F0.8393
tp6554
a(S'bye'
p6555
g75
F0.9138
tp6556
a(g17
g6
F0.984
tp6557
a(g9
g10
F0.9215
tp6558
a(g20
g6
F0.9845
tp6559
a(g5
g6
F0.995
tp6560
asI1209
(lp6561
(g9
g10
F0.9387
tp6562
a(S'le(t'
p6563
g39
F0.6796
tp6564
a(g193
g6
F0.9925
tp6565
a(S'me'
p6566
g86
F0.9967
tp6567
a(S'hear'
p6568
g39
F0.976
tp6569
a(S'you'
p6570
g86
F0.9985
tp6571
a(S'count'
p6572
g39
F0.9888
tp6573
a(g14
g15
F0.4797
tp6574
a(g17
g15
F0.5345
tp6575
a(g14
g15
F0.949
tp6576
a(g20
g6
F0.7992
tp6577
a(g5
g6
F0.9936
tp6578
asI3258
(lp6579
(g9
g10
F0.9001
tp6580
a(S'you'
p6581
g86
F0.9972
tp6582
a(S'have_to'
p6583
g39
F0.9992
tp6584
a(S'say'
p6585
g39
F0.9897
tp6586
a(S'bye'
p6587
g75
F0.843
tp6588
a(g14
g15
F0.528
tp6589
a(g17
g15
F0.535
tp6590
a(g9
g10
F0.8293
tp6591
a(g20
g6
F0.9284
tp6592
a(g17
g6
F0.9615
tp6593
a(g14
g15
F0.4829
tp6594
a(g20
g6
F0.6916
tp6595
a(g5
g6
F0.9952
tp6596
asI1212
(lp6597
(g9
g10
F0.9112
tp6598
a(S'Daddy'
p6599
g32
F0.7522
tp6600
a(S'wants'
p6601
g39
F0.9984
tp6602
a(S'to'
p6603
g104
F0.9824
tp6604
a(g14
g15
F0.3347
tp6605
a(g17
g15
F0.535
tp6606
a(g9
g10
F0.8293
tp6607
a(g20
g6
F0.9862
tp6608
a(S'hear'
p6609
g39
F0.9927
tp6610
a(S'you'
p6611
g86
F0.9968
tp6612
a(g5
g6
F0.9996
tp6613
asI3261
(lp6614
(S"I'll"
p6615
g78
F0.9863
tp6616
a(S'let'
p6617
g39
F0.9998
tp6618
a(S'you'
p6619
g86
F0.9996
tp6620
a(S'hear'
p6621
g39
F0.999
tp6622
a(S'it'
p6623
g86
F0.9856
tp6624
a(S'in'
p6625
g104
F0.9073
tp6626
a(g278
g97
F0.996
tp6627
a(S'minute'
p6628
g32
F0.9583
tp6629
a(g5
g6
F0.9988
tp6630
asI1215
(lp6631
(S'count'
p6632
g39
F0.9221
tp6633
a(S'to'
p6634
g104
F0.9749
tp6635
a(S'ten'
p6636
g63
F0.8158
tp6637
a(S'(.)'
p6638
g50
F0.2062
tp6639
a(g5
g6
F0.9925
tp6640
asI1218
(lp6641
(g9
g10
F0.9094
tp6642
a(S'an(d'
p6643
g191
F0.9355
tp6644
a(g193
g6
F0.9769
tp6645
a(S'slow'
p6646
g66
F0.9773
tp6647
a(g14
g15
F0.5065
tp6648
a(g17
g15
F0.5345
tp6649
a(g14
g15
F0.9532
tp6650
a(g20
g6
F0.7509
tp6651
a(S'[//]'
p6652
g6
F0.2749
tp6653
a(S'slow'
p6654
g66
F0.8479
tp6655
a(S'down'
p6656
g81
F0.43
tp6657
a(S'when'
p6658
g81
F0.9931
tp6659
a(S'you'
p6660
g86
F0.9984
tp6661
a(S'count'
p6662
g39
F0.9761
tp6663
a(g5
g6
F0.998
tp6664
asI1221
(lp6665
(S'zzz'
p6666
g50
F0.409
tp6667
a(g17
g6
F0.9451
tp6668
a(g9
g10
F0.972
tp6669
a(g20
g6
F0.9847
tp6670
a(g5
g6
F0.9962
tp6671
asI1224
(lp6672
(S"don't"
p6673
g39
F0.999
tp6674
a(S'wan(t'
p6675
g39
F0.9995
tp6676
a(g193
g6
F0.9323
tp6677
a(g511
g6
F0.9591
tp6678
a(S't)a'
p6679
g104
F0.3021
tp6680
a(S'do'
p6681
g39
F0.999
tp6682
a(S'it'
p6683
g86
F0.9916
tp6684
a(g5
g6
F0.999
tp6685
asI3275
(lp6686
(S'no'
p6687
g97
F0.8194
tp6688
a(S'first'
p6689
g66
F0.7307
tp6690
a(S'put'
p6691
g39
F0.853
tp6692
a(S'it'
p6693
g86
F0.9628
tp6694
a(S'on'
p6695
g104
F0.8154
tp6696
a(S'(.)'
p6697
g3
F0.696
tp6698
a(g5
g6
F0.9934
tp6699
asI1228
(lp6700
(S'alright'
p6701
g75
F0.9793
tp6702
a(g5
g6
F0.9973
tp6703
asI3278
(lp6704
(S'no'
p6705
g97
F0.4724
tp6706
a(S'put'
p6707
g39
F0.7516
tp6708
a(S'it'
p6709
g86
F0.9688
tp6710
a(S'on'
p6711
g104
F0.6757
tp6712
a(g5
g6
F0.9974
tp6713
asI1231
(lp6714
(S'one'
p6715
g63
F0.9467
tp6716
a(S'one'
p6717
g63
F0.9396
tp6718
a(g1039
g191
F0.4735
tp6719
a(S'...'
p6720
g6
F0.675
tp6721
asI1234
(lp6722
(S'one'
p6723
g63
F0.8885
tp6724
a(g5
g6
F0.9971
tp6725
asI2595
(lp6726
(S'what'
p6727
g86
F0.9757
tp6728
a(S'else'
p6729
g81
F0.7845
tp6730
a(g5
g6
F0.9977
tp6731
asI1238
(lp6732
(S'two'
p6733
g63
F0.962
tp6734
a(g1039
g191
F0.5323
tp6735
a(S'...'
p6736
g10
F0.5924
tp6737
asI2937
(lp6738
(S'xxx'
p6739
g15
F0.4267
tp6740
a(S'you'
p6741
g86
F0.9977
tp6742
a(S"didn't"
p6743
g39
F0.9999
tp6744
a(g5
g6
F0.9977
tp6745
asI1241
(lp6746
(S'speak'
p6747
g39
F0.9781
tp6748
a(S'louder'
p6749
g66
F0.9893
tp6750
a(g5
g6
F0.9985
tp6751
asI2769
(lp6752
(S'you'
p6753
g86
F0.9968
tp6754
a(S"don't"
p6755
g39
F1.0
tp6756
a(S'say'
p6757
g39
F0.9984
tp6758
a(S'bad'
p6759
g66
F0.9966
tp6760
a(S'words'
p6761
g32
F0.988
tp6762
a(S'do'
p6763
g39
F0.998
tp6764
a(S'you'
p6765
g86
F0.9962
tp6766
a(g43
g6
F0.9994
tp6767
asI1245
(lp6768
(S'speak'
p6769
g39
F0.996
tp6770
a(S'up'
p6771
g662
F0.9303
tp6772
a(g278
g97
F0.9985
tp6773
a(S'little'
p6774
g66
F0.9581
tp6775
a(S'louder'
p6776
g66
F0.9578
tp6777
a(g5
g6
F0.9982
tp6778
asI1248
(lp6779
(S'three'
p6780
g63
F0.9336
tp6781
a(g5
g6
F0.9969
tp6782
asI1251
(lp6783
(g395
g86
F0.9976
tp6784
a(S"can't"
p6785
g39
F1.0
tp6786
a(S'hear'
p6787
g39
F0.9879
tp6788
a(g17
g6
F0.9894
tp6789
a(g14
g15
F0.5563
tp6790
a(g20
g6
F0.6899
tp6791
a(g5
g6
F0.9959
tp6792
asI1254
(lp6793
(S'three'
p6794
g63
F0.9333
tp6795
a(g17
g6
F0.9816
tp6796
a(g9
g10
F0.972
tp6797
a(g20
g6
F0.9847
tp6798
a(g5
g6
F0.9962
tp6799
asI2257
(lp6800
(S'did'
p6801
g39
F0.9676
tp6802
a(S'Head'
p6803
g32
F0.8617
tp6804
a(S'Start'
p6805
g39
F0.983
tp6806
a(S'teach'
p6807
g39
F0.9973
tp6808
a(S'you'
p6809
g86
F0.9955
tp6810
a(g278
g97
F0.9941
tp6811
a(S'lot'
p6812
g32
F0.9682
tp6813
a(S'o(f'
p6814
g104
F0.6273
tp6815
a(g193
g6
F0.9773
tp6816
a(S'things'
p6817
g32
F0.9324
tp6818
a(S'(.)'
p6819
g15
F0.3616
tp6820
a(g43
g6
F0.9592
tp6821
asI1257
(lp6822
(S'four'
p6823
g63
F0.8064
tp6824
a(g5
g6
F0.9969
tp6825
asI1261
(lp6826
(S'speak'
p6827
g39
F0.9667
tp6828
a(S'loud'
p6829
g66
F0.9461
tp6830
a(S'like'
p6831
g104
F0.9904
tp6832
a(S'you'
p6833
g86
F0.9997
tp6834
a(S'always'
p6835
g81
F0.9904
tp6836
a(S'do'
p6837
g39
F0.9978
tp6838
a(g5
g6
F0.9971
tp6839
asI1265
(lp6840
(S'three'
p6841
g63
F0.9336
tp6842
a(g5
g6
F0.9969
tp6843
asI3283
(lp6844
(S'okay'
p6845
g75
F0.9741
tp6846
a(g5
g6
F0.9977
tp6847
asI1269
(lp6848
(S'three'
p6849
g63
F0.9336
tp6850
a(g5
g6
F0.9969
tp6851
asI2429
(lp6852
(S'what'
p6853
g86
F0.9923
tp6854
a(S'was'
p6855
g39
F0.9994
tp6856
a(S'your'
p6857
g97
F0.9483
tp6858
a(g9
g10
F0.7939
tp6859
a(S'b(us)'
p6860
g32
F0.803
tp6861
a(g14
g6
F0.3454
tp6862
a(S'[//]'
p6863
g6
F0.2174
tp6864
a(S'school'
p6865
g32
F0.9712
tp6866
a(S'bus'
p6867
g32
F0.9657
tp6868
a(S"driver's"
p6869
g1952
F0.636
tp6870
a(S'name'
p6871
g32
F0.994
tp6872
a(S'(.)'
p6873
g15
F0.3015
tp6874
a(g5
g6
F0.9653
tp6875
asI1272
(lp6876
(S'four'
p6877
g63
F0.8064
tp6878
a(g5
g6
F0.9969
tp6879
asI1275
(lp6880
(S'five'
p6881
g63
F0.6687
tp6882
a(g5
g6
F0.9967
tp6883
asI1278
(lp6884
(S'five'
p6885
g63
F0.6687
tp6886
a(g5
g6
F0.9967
tp6887
asI1281
(lp6888
(S'go'
p6889
g39
F0.8431
tp6890
a(g511
g6
F0.9912
tp6891
a(S'a)head'
p6892
g66
F0.8244
tp6893
a(S'six'
p6894
g32
F0.5062
tp6895
a(g17
g6
F0.9823
tp6896
a(g14
g15
F0.6043
tp6897
a(g20
g6
F0.7541
tp6898
a(g5
g6
F0.9962
tp6899
asI1284
(lp6900
(S'six'
p6901
g63
F0.6118
tp6902
a(g17
g6
F0.9799
tp6903
a(g9
g10
F0.972
tp6904
a(g20
g6
F0.9847
tp6905
a(g5
g6
F0.9962
tp6906
asI1287
(lp6907
(S'seven'
p6908
g63
F0.8716
tp6909
a(g17
g6
F0.9804
tp6910
a(g14
g15
F0.3811
tp6911
a(g20
g6
F0.7604
tp6912
a(g5
g6
F0.9962
tp6913
asI1290
(lp6914
(S'seven'
p6915
g63
F0.8716
tp6916
a(g17
g6
F0.9816
tp6917
a(g9
g10
F0.9843
tp6918
a(g20
g6
F0.9458
tp6919
a(g17
g6
F0.9615
tp6920
a(g14
g15
F0.4438
tp6921
a(g20
g15
F0.5464
tp6922
a(S'eight'
p6923
g63
F0.6046
tp6924
a(S'nine'
p6925
g32
F0.74
tp6926
a(g5
g6
F0.9982
tp6927
asI1293
(lp6928
(S'go'
p6929
g39
F0.8431
tp6930
a(g511
g6
F0.9891
tp6931
a(S'a)head'
p6932
g66
F0.5884
tp6933
a(g5
g6
F0.9986
tp6934
asI2157
(lp6935
(S"who's"
p6936
g78
F0.9513
tp6937
a(S'your'
p6938
g97
F0.9832
tp6939
a(S'teacher'
p6940
g32
F0.9931
tp6941
a(S'gonna'
p6942
g39
F0.9913
tp6943
a(S'be'
p6944
g39
F0.9984
tp6945
a(g43
g6
F0.9971
tp6946
asI1296
(lp6947
(S'ten'
p6948
g63
F0.8337
tp6949
a(g17
g6
F0.9786
tp6950
a(g14
g10
F0.3399
tp6951
a(g20
g6
F0.9389
tp6952
a(g1039
g191
F0.4932
tp6953
a(S'...'
p6954
g6
F0.5547
tp6955
asI1299
(lp6956
(g9
g10
F0.9112
tp6957
a(S'Mommy'
p6958
g32
F0.5708
tp6959
a(g14
g50
F0.4522
tp6960
a(g17
g6
F0.9261
tp6961
a(g9
g10
F0.948
tp6962
a(g20
g6
F0.9803
tp6963
a(g5
g6
F0.9959
tp6964
asI1302
(lp6965
(S'Mommy'
p6966
g32
F0.7911
tp6967
a(g5
g6
F0.9983
tp6968
asI1306
(lp6969
(S'eleven'
p6970
g63
F0.8543
tp6971
a(g17
g6
F0.9804
tp6972
a(g14
g10
F0.3399
tp6973
a(g20
g6
F0.8879
tp6974
a(S'twelve'
p6975
g63
F0.714
tp6976
a(g5
g6
F0.9966
tp6977
asI1309
(lp6978
(S'eleven'
p6979
g63
F0.8543
tp6980
a(g17
g6
F0.9814
tp6981
a(g9
g10
F0.972
tp6982
a(g20
g6
F0.9847
tp6983
a(g5
g6
F0.9962
tp6984
asI2750
(lp6985
(S'why'
p6986
g81
F0.8805
tp6987
a(S'did'
p6988
g39
F0.9846
tp6989
a(S'Matthew'
p6990
g3
F0.9992
tp6991
a(S'used'
p6992
g39
F0.9225
tp6993
a(S'to'
p6994
g104
F0.9924
tp6995
a(S'sit'
p6996
g39
F0.9987
tp6997
a(S'in'
p6998
g104
F0.9457
tp6999
a(S'the'
p7000
g97
F0.9991
tp7001
a(S'corner'
p7002
g32
F0.9925
tp7003
a(S'(.)'
p7004
g50
F0.2938
tp7005
a(g5
g6
F0.992
tp7006
asI1313
(lp7007
(S'twelve'
p7008
g63
F0.7926
tp7009
a(g5
g6
F0.9967
tp7010
asI1316
(lp7011
(S'thirteen'
p7012
g63
F0.6912
tp7013
a(g5
g6
F0.9975
tp7014
asI2950
(lp7015
(S'no'
p7016
g75
F0.9704
tp7017
a(g5
g6
F0.9989
tp7018
asI1319
(lp7019
(S'thirteen'
p7020
g63
F0.6668
tp7021
a(g17
g6
F0.9845
tp7022
a(g14
g15
F0.3811
tp7023
a(g20
g6
F0.7604
tp7024
a(g5
g6
F0.9962
tp7025
asI1323
(lp7026
(g9
g10
F0.9314
tp7027
a(S'thirteen'
p7028
g63
F0.5162
tp7029
a(g14
g15
F0.3699
tp7030
a(g17
g15
F0.4963
tp7031
a(g9
g10
F0.8293
tp7032
a(g20
g6
F0.9632
tp7033
a(S'(.)'
p7034
g15
F0.2904
tp7035
a(g5
g6
F0.9714
tp7036
asI1327
(lp7037
(S'say'
p7038
g39
F0.9934
tp7039
a(S'your'
p7040
g97
F0.9565
tp7041
a(S'A_B_Cs'
p7042
g32
F0.5809
tp7043
a(S'(.)'
p7044
g50
F0.2482
tp7045
a(g5
g6
F0.9925
tp7046
asI1330
(lp7047
(g5279
g50
F0.5344
tp7048
a(S'@l'
p7049
g1887
F0.9951
tp7050
a(g5
g6
F0.9949
tp7051
asI1334
(lp7052
(g278
g97
F0.9207
tp7053
a(S'@l'
p7054
g1887
F0.9629
tp7055
a(g5
g6
F0.9949
tp7056
asI2953
(lp7057
(S"don't"
p7058
g39
F0.9989
tp7059
a(S'say'
p7060
g39
F0.9997
tp7061
a(S'that'
p7062
g86
F0.9195
tp7063
a(g5
g6
F0.9988
tp7064
asI1337
(lp7065
(g278
g97
F0.9207
tp7066
a(S'@l'
p7067
g1887
F0.9629
tp7068
a(g5
g6
F0.9949
tp7069
asI1340
(lp7070
(g278
g97
F0.9207
tp7071
a(S'@l'
p7072
g1887
F0.9629
tp7073
a(g5
g6
F0.9949
tp7074
asI1344
(lp7075
(S'right'
p7076
g75
F0.7294
tp7077
a(g5
g6
F0.9987
tp7078
asI1347
(lp7079
(S'can'
p7080
g39
F0.999
tp7081
a(S'you'
p7082
g86
F0.9987
tp7083
a(S'sing'
p7084
g39
F0.9987
tp7085
a(g511
g6
F0.9921
tp7086
a(S'th)em'
p7087
g86
F0.5918
tp7088
a(g43
g6
F0.997
tp7089
asI1351
(lp7090
(S'you'
p7091
g86
F0.9867
tp7092
a(S'[//]'
p7093
g6
F0.526
tp7094
a(S'let'
p7095
g39
F0.9987
tp7096
a(S'us'
p7097
g86
F0.9936
tp7098
a(S'hear'
p7099
g39
F0.8915
tp7100
a(S'how'
p7101
g81
F0.9903
tp7102
a(S'you'
p7103
g86
F0.9997
tp7104
a(S'can'
p7105
g39
F0.9997
tp7106
a(S'sing'
p7107
g39
F0.9988
tp7108
a(g17
g6
F0.9888
tp7109
a(g9
g10
F0.9506
tp7110
a(g20
g6
F0.9737
tp7111
a(g5
g6
F0.9952
tp7112
asI1355
(lp7113
(S'what'
p7114
g86
F0.9738
tp7115
a(g17
g6
F0.9703
tp7116
a(g9
g10
F0.972
tp7117
a(g20
g6
F0.974
tp7118
a(g43
g6
F0.9963
tp7119
asI2957
(lp7120
(g511
g6
F0.9459
tp7121
a(S'h)ey'
p7122
g75
F0.9255
tp7123
a(S'xxx'
p7124
g15
F0.4124
tp7125
a(S'away'
p7126
g81
F0.9559
tp7127
a(g5
g6
F0.9981
tp7128
asI1360
(lp7129
(g9
g10
F0.9031
tp7130
a(S'your'
p7131
g97
F0.9233
tp7132
a(S'A_B_Cs'
p7133
g32
F0.7424
tp7134
a(g14
g15
F0.4485
tp7135
a(g17
g15
F0.5345
tp7136
a(g14
g15
F0.9749
tp7137
a(g20
g6
F0.7541
tp7138
a(g5
g6
F0.9962
tp7139
asI1363
(lp7140
(S'zzz'
p7141
g50
F0.409
tp7142
a(g17
g6
F0.9451
tp7143
a(g9
g10
F0.972
tp7144
a(g20
g6
F0.9847
tp7145
a(g5
g6
F0.9962
tp7146
asI1367
(lp7147
(g9
g10
F0.9197
tp7148
a(g278
g97
F0.94
tp7149
a(S'@l'
p7150
g1887
F0.9923
tp7151
a(g5275
g39
F0.4611
tp7152
a(S'@l'
p7153
g1887
F0.9965
tp7154
a(g5279
g50
F0.5669
tp7155
a(S'@l'
p7156
g1887
F0.9954
tp7157
a(g14
g10
F0.4082
tp7158
a(g17
g6
F0.9383
tp7159
a(g14
g15
F0.4205
tp7160
a(g20
g6
F0.7992
tp7161
a(g5
g6
F0.9936
tp7162
asI1371
(lp7163
(g9
g10
F0.9112
tp7164
a(S'Mommy'
p7165
g32
F0.5708
tp7166
a(g14
g50
F0.4522
tp7167
a(g17
g6
F0.9261
tp7168
a(g9
g10
F0.948
tp7169
a(g20
g6
F0.9803
tp7170
a(g5
g6
F0.9959
tp7171
asI1375
(lp7172
(S'no'
p7173
g75
F0.8389
tp7174
a(g17
g6
F0.9933
tp7175
a(g14
g15
F0.3811
tp7176
a(g20
g6
F0.7604
tp7177
a(g5
g6
F0.9962
tp7178
asI1378
(lp7179
(S'xxx'
p7180
g15
F0.8981
tp7181
a(g17
g6
F0.6622
tp7182
a(g9
g10
F0.972
tp7183
a(g20
g6
F0.9847
tp7184
a(g5
g6
F0.9962
tp7185
asI1379
(lp7186
(S'xxx'
p7187
g15
F0.8981
tp7188
a(g17
g6
F0.661
tp7189
a(g14
g15
F0.3811
tp7190
a(g20
g6
F0.7604
tp7191
a(g5
g6
F0.9962
tp7192
asI1380
(lp7193
(g9
g10
F0.9347
tp7194
a(S'take'
p7195
g39
F0.9985
tp7196
a(S'your'
p7197
g97
F0.9971
tp7198
a(S'finger'
p7199
g32
F0.9989
tp7200
a(S'out'
p7201
g104
F0.9491
tp7202
a(S'o(f)'
p7203
g104
F0.4664
tp7204
a(g14
g15
F0.4202
tp7205
a(g17
g15
F0.535
tp7206
a(g9
g10
F0.8293
tp7207
a(g20
g6
F0.9284
tp7208
a(g17
g6
F0.9615
tp7209
a(g14
g15
F0.4438
tp7210
a(g20
g6
F0.8052
tp7211
a(S'your'
p7212
g97
F0.9805
tp7213
a(S'mouth'
p7214
g32
F0.9998
tp7215
a(S'here'
p7216
g81
F0.9659
tp7217
a(g5
g6
F0.9981
tp7218
asI2961
(lp7219
(S'say'
p7220
g39
F0.8393
tp7221
a(S'bye'
p7222
g75
F0.8816
tp7223
a(S'bye'
p7224
g75
F0.8121
tp7225
a(S'for'
p7226
g104
F0.9956
tp7227
a(S'now'
p7228
g81
F0.9708
tp7229
a(S'(.)'
p7230
g15
F0.2874
tp7231
a(g5
g6
F0.9632
tp7232
asI1385
(lp7233
(g9
g10
F0.9424
tp7234
a(S'd'
p7235
g50
F0.5218
tp7236
a(S'@l'
p7237
g1887
F0.9935
tp7238
a(S'e'
p7239
g50
F0.5768
tp7240
a(S'@l'
p7241
g1887
F0.9942
tp7242
a(g14
g10
F0.4082
tp7243
a(g17
g6
F0.9396
tp7244
a(g9
g10
F0.9531
tp7245
a(g20
g6
F0.9861
tp7246
a(g5
g6
F0.9959
tp7247
asI1389
(lp7248
(S'loud'
p7249
g66
F0.927
tp7250
a(g5
g6
F0.9982
tp7251
asI1392
(lp7252
(g9
g10
F0.9359
tp7253
a(S'loud'
p7254
g66
F0.977
tp7255
a(S'Tanya'
p7256
g3
F0.9832
tp7257
a(g278
g97
F0.9128
tp7258
a(S'@l'
p7259
g1887
F0.9866
tp7260
a(g14
g10
F0.4082
tp7261
a(g17
g6
F0.9383
tp7262
a(g14
g15
F0.4567
tp7263
a(g20
g6
F0.8291
tp7264
a(g5
g6
F0.9959
tp7265
asI1395
(lp7266
(g9
g10
F0.9197
tp7267
a(g278
g97
F0.94
tp7268
a(S'@l'
p7269
g1887
F0.9923
tp7270
a(g5275
g39
F0.4611
tp7271
a(S'@l'
p7272
g1887
F0.997
tp7273
a(g14
g10
F0.4082
tp7274
a(g17
g6
F0.9396
tp7275
a(g9
g10
F0.9635
tp7276
a(g20
g6
F0.9539
tp7277
a(g5279
g50
F0.6528
tp7278
a(S'@l'
p7279
g1887
F0.9941
tp7280
a(g7235
g50
F0.612
tp7281
a(S'@l'
p7282
g1887
F0.9941
tp7283
a(S'f'
p7284
g50
F0.594
tp7285
a(S'@l'
p7286
g1887
F0.9939
tp7287
a(S'g'
p7288
g50
F0.5561
tp7289
a(S'@l'
p7290
g1887
F0.9958
tp7291
a(S'(.)'
p7292
g50
F0.3525
tp7293
a(S'h'
p7294
g50
F0.9463
tp7295
a(S'@l'
p7296
g1887
F0.9978
tp7297
a(S'i'
p7298
g86
F0.9468
tp7299
a(S'@l'
p7300
g1887
F0.9938
tp7301
a(S'j'
p7302
g50
F0.6075
tp7303
a(S'@l'
p7304
g1887
F0.9948
tp7305
a(S'k'
p7306
g50
F0.5096
tp7307
a(S'@l'
p7308
g1887
F0.9954
tp7309
a(S'l'
p7310
g50
F0.6023
tp7311
a(S'@l'
p7312
g1887
F0.9926
tp7313
a(S'o'
p7314
g104
F0.5114
tp7315
a(S'@l'
p7316
g1887
F0.9948
tp7317
a(S'p'
p7318
g50
F0.5762
tp7319
a(S'@l'
p7320
g1887
F0.9951
tp7321
a(S'(.)'
p7322
g3
F0.206
tp7323
a(g5
g6
F0.9934
tp7324
asI1401
(lp7325
(S'q'
p7326
g50
F0.7102
tp7327
a(S'@l'
p7328
g1887
F0.9976
tp7329
a(S'r'
p7330
g39
F0.5162
tp7331
a(S'@l'
p7332
g1887
F0.9964
tp7333
a(g1039
g191
F0.5603
tp7334
a(S'...'
p7335
g6
F0.5547
tp7336
asI1404
(lp7337
(g7326
g50
F0.7102
tp7338
a(S'@l'
p7339
g1887
F0.9976
tp7340
a(g7330
g39
F0.5162
tp7341
a(S'@l'
p7342
g1887
F0.9968
tp7343
a(S's'
p7344
g50
F0.8873
tp7345
a(S'@l'
p7346
g1887
F0.9904
tp7347
a(g5
g6
F0.9956
tp7348
asI1407
(lp7349
(S't'
p7350
g50
F0.7223
tp7351
a(S'@l'
p7352
g1887
F0.996
tp7353
a(S'u'
p7354
g86
F0.9898
tp7355
a(S'@l'
p7356
g1887
F0.996
tp7357
a(S'v'
p7358
g50
F0.4642
tp7359
a(S'@l'
p7360
g1887
F0.9934
tp7361
a(g5
g6
F0.9956
tp7362
asI1410
(lp7363
(g395
g86
F0.9984
tp7364
a(S'hate'
p7365
g39
F1.0
tp7366
a(S'you'
p7367
g86
F0.9965
tp7368
a(g5
g6
F0.9996
tp7369
asI1414
(lp7370
(S'shut'
p7371
g39
F0.9803
tp7372
a(S'up'
p7373
g662
F0.9775
tp7374
a(g75
g6
F0.9975
tp7375
asI1418
(lp7376
(S'zzz'
p7377
g50
F0.409
tp7378
a(g17
g6
F0.9395
tp7379
a(g14
g15
F0.3811
tp7380
a(g20
g6
F0.7604
tp7381
a(g5
g6
F0.9962
tp7382
asI2967
(lp7383
(S'no'
p7384
g75
F0.9704
tp7385
a(g5
g6
F0.9989
tp7386
asI1422
(lp7387
(S"doesn't"
p7388
g39
F0.9866
tp7389
a(S'know'
p7390
g39
F0.9972
tp7391
a(g511
g6
F0.9899
tp7392
a(S'th)em'
p7393
g86
F0.6419
tp7394
a(g5
g6
F0.9978
tp7395
asI1425
(lp7396
(S'zzz'
p7397
g75
F0.3756
tp7398
a(g5
g6
F0.9972
tp7399
asI1430
(lp7400
(S'you'
p7401
g86
F0.998
tp7402
a(S'got'
p7403
g39
F0.9964
tp7404
a(g511
g6
F0.9191
tp7405
a(S't)a'
p7406
g104
F0.4121
tp7407
a(S'open'
p7408
g39
F0.9537
tp7409
a(S'your'
p7410
g97
F0.9932
tp7411
a(S'mouth'
p7412
g32
F0.9998
tp7413
a(g5
g6
F0.9985
tp7414
asI1433
(lp7415
(S'open'
p7416
g39
F0.9556
tp7417
a(S'your'
p7418
g97
F0.9944
tp7419
a(S'mouth'
p7420
g32
F0.9997
tp7421
a(S'an(d'
p7422
g191
F0.9441
tp7423
a(g193
g6
F0.9803
tp7424
a(S'say'
p7425
g39
F0.9974
tp7426
a(S'it'
p7427
g86
F0.9498
tp7428
a(S'louder'
p7429
g66
F0.9759
tp7430
a(g5
g6
F0.9988
tp7431
asI1437
(lp7432
(g278
g97
F0.9228
tp7433
a(S'@l'
p7434
g1887
F0.9886
tp7435
a(S'go'
p7436
g39
F0.9139
tp7437
a(g511
g6
F0.9921
tp7438
a(S'a)head'
p7439
g66
F0.6272
tp7440
a(S'(.)'
p7441
g32
F0.2543
tp7442
a(g5
g6
F0.9979
tp7443
asI1440
(lp7444
(S"we're"
p7445
g78
F0.9719
tp7446
a(S'only'
p7447
g81
F0.8527
tp7448
a(S'listenin(g'
p7449
g39
F0.9758
tp7450
a(g193
g6
F0.9951
tp7451
a(S'to'
p7452
g104
F0.9964
tp7453
a(S'you'
p7454
g86
F0.9984
tp7455
a(S"that's"
p7456
g78
F0.9512
tp7457
a(S'all'
p7458
g97
F0.3356
tp7459
a(g5
g6
F0.9973
tp7460
asI1446
(lp7461
(g278
g97
F0.9228
tp7462
a(S'@l'
p7463
g1887
F0.9933
tp7464
a(g5275
g39
F0.4433
tp7465
a(S'@l'
p7466
g1887
F0.9962
tp7467
a(g1039
g191
F0.5603
tp7468
a(S'...'
p7469
g6
F0.5547
tp7470
asI1450
(lp7471
(g5279
g50
F0.5344
tp7472
a(S'@l'
p7473
g1887
F0.9951
tp7474
a(g5
g6
F0.9949
tp7475
asI1455
(lp7476
(g9
g10
F0.9363
tp7477
a(S'open'
p7478
g39
F0.9713
tp7479
a(S'your'
p7480
g97
F0.8734
tp7481
a(g14
g50
F0.3734
tp7482
a(g17
g6
F0.899
tp7483
a(g14
g15
F0.4438
tp7484
a(g20
g6
F0.7135
tp7485
a(S'mouth'
p7486
g32
F0.9968
tp7487
a(g5
g6
F0.9987
tp7488
asI2632
(lp7489
(S'do'
p7490
g39
F0.9985
tp7491
a(S'you'
p7492
g86
F0.9993
tp7493
a(S'watch'
p7494
g39
F0.9976
tp7495
a(S'Sesame'
p7496
g3
F0.619
tp7497
a(S'Street'
p7498
g3
F0.9718
tp7499
a(S'Tanya'
p7500
g3
F0.9998
tp7501
a(g43
g6
F0.9961
tp7502
asI1458
(lp7503
(g9
g10
F0.9145
tp7504
a(g7239
g50
F0.5158
tp7505
a(S'@l'
p7506
g1887
F0.9945
tp7507
a(g14
g15
F0.4216
tp7508
a(g17
g15
F0.535
tp7509
a(g9
g10
F0.6902
tp7510
a(g20
g6
F0.9839
tp7511
a(g5
g6
F0.9962
tp7512
asI1462
(lp7513
(g7239
g50
F0.5765
tp7514
a(S'@l'
p7515
g1887
F0.9941
tp7516
a(g5
g6
F0.9949
tp7517
asI1466
(lp7518
(g9
g10
F0.9282
tp7519
a(g7284
g50
F0.4971
tp7520
a(S'@l'
p7521
g1887
F0.9942
tp7522
a(g7288
g50
F0.52
tp7523
a(S'@l'
p7524
g1887
F0.996
tp7525
a(g14
g10
F0.4082
tp7526
a(g17
g6
F0.9383
tp7527
a(g14
g15
F0.4567
tp7528
a(g20
g6
F0.8291
tp7529
a(g5
g6
F0.9959
tp7530
asI2975
(lp7531
(g9
g10
F0.9347
tp7532
a(S'put'
p7533
g39
F0.9955
tp7534
a(S'it'
p7535
g86
F0.9863
tp7536
a(g14
g15
F0.4803
tp7537
a(g17
g6
F0.7297
tp7538
a(S'<][>'
p7539
g15
F0.4283
tp7540
a(g20
g6
F0.8588
tp7541
a(g5
g6
F0.9962
tp7542
asI1470
(lp7543
(g9
g10
F0.9526
tp7544
a(g395
g86
F0.9983
tp7545
a(S"can't"
p7546
g39
F1.0
tp7547
a(S'hear'
p7548
g39
F0.9991
tp7549
a(S'you'
p7550
g86
F0.9986
tp7551
a(g14
g15
F0.3773
tp7552
a(g17
g15
F0.535
tp7553
a(g9
g10
F0.7916
tp7554
a(g20
g6
F0.9861
tp7555
a(g5
g6
F0.9959
tp7556
asI1473
(lp7557
(S'yell'
p7558
g39
F0.9717
tp7559
a(S'it'
p7560
g86
F0.9952
tp7561
a(S'out'
p7562
g662
F0.9589
tp7563
a(g5
g6
F0.9982
tp7564
asI1476
(lp7565
(g278
g97
F0.9228
tp7566
a(S'@l'
p7567
g1887
F0.9923
tp7568
a(S'(.)'
p7569
g50
F0.212
tp7570
a(g5
g6
F0.9919
tp7571
asI1480
(lp7572
(S'yell'
p7573
g39
F0.9717
tp7574
a(S'it'
p7575
g86
F0.9952
tp7576
a(S'out'
p7577
g662
F0.9589
tp7578
a(g5
g6
F0.9982
tp7579
asI1483
(lp7580
(S'what'
p7581
g86
F0.9171
tp7582
a(g43
g6
F0.9924
tp7583
asI2637
(lp7584
(S'hm'
p7585
g75
F0.9811
tp7586
a(g2003
g6
F0.891
tp7587
a(g43
g6
F0.9885
tp7588
asI1488
(lp7589
(g395
g86
F0.9937
tp7590
a(g9
g10
F0.7777
tp7591
a(S"can't"
p7592
g39
F0.9985
tp7593
a(S'hear'
p7594
g39
F0.9991
tp7595
a(S'you'
p7596
g86
F0.9986
tp7597
a(g14
g15
F0.3773
tp7598
a(g17
g15
F0.5345
tp7599
a(g14
g15
F0.9555
tp7600
a(g20
g6
F0.8291
tp7601
a(g5
g6
F0.9959
tp7602
asI1492
(lp7603
(g9
g10
F0.9755
tp7604
a(S'alright'
p7605
g75
F0.9376
tp7606
a(S"we'll"
p7607
g78
F0.9701
tp7608
a(S'say'
p7609
g39
F0.9998
tp7610
a(S'it'
p7611
g86
F0.9946
tp7612
a(g14
g15
F0.4648
tp7613
a(g17
g15
F0.535
tp7614
a(g9
g10
F0.8293
tp7615
a(g20
g6
F0.994
tp7616
a(S'together'
p7617
g81
F0.8399
tp7618
a(g5
g6
F0.9982
tp7619
asI1495
(lp7620
(g278
g97
F0.9228
tp7621
a(S'@l'
p7622
g1887
F0.9886
tp7623
a(g1039
g191
F0.4527
tp7624
a(S'...'
p7625
g6
F0.675
tp7626
asI1498
(lp7627
(g278
g97
F0.9207
tp7628
a(S'@l'
p7629
g1887
F0.9629
tp7630
a(g5
g6
F0.9949
tp7631
asI1501
(lp7632
(g5275
g39
F0.2822
tp7633
a(S'@l'
p7634
g1887
F0.994
tp7635
a(g5
g6
F0.9949
tp7636
asI1504
(lp7637
(g5279
g50
F0.5344
tp7638
a(S'@l'
p7639
g1887
F0.9951
tp7640
a(g5
g6
F0.9949
tp7641
asI1507
(lp7642
(g5275
g39
F0.2822
tp7643
a(S'@l'
p7644
g1887
F0.994
tp7645
a(g5
g6
F0.9949
tp7646
asI1510
(lp7647
(g5275
g39
F0.2822
tp7648
a(S'@l'
p7649
g1887
F0.994
tp7650
a(g5
g6
F0.9949
tp7651
asI2641
(lp7652
(S'do'
p7653
g39
F0.9985
tp7654
a(S'you'
p7655
g86
F0.9993
tp7656
a(S'watch'
p7657
g39
F0.9976
tp7658
a(S'Sesame'
p7659
g3
F0.5644
tp7660
a(S'Street'
p7661
g3
F0.9637
tp7662
a(g43
g6
F0.9939
tp7663
asI1513
(lp7664
(g5279
g50
F0.5344
tp7665
a(S'@l'
p7666
g1887
F0.9951
tp7667
a(g5
g6
F0.9949
tp7668
asI1516
(lp7669
(g5279
g50
F0.5344
tp7670
a(S'@l'
p7671
g1887
F0.9951
tp7672
a(g5
g6
F0.9949
tp7673
asI1519
(lp7674
(g7235
g50
F0.5219
tp7675
a(S'@l'
p7676
g1887
F0.9947
tp7677
a(g5
g6
F0.9949
tp7678
asI1522
(lp7679
(g7235
g50
F0.5219
tp7680
a(S'@l'
p7681
g1887
F0.9947
tp7682
a(g5
g6
F0.9949
tp7683
asI1525
(lp7684
(g7239
g50
F0.5765
tp7685
a(S'@l'
p7686
g1887
F0.9941
tp7687
a(g5
g6
F0.9949
tp7688
asI1528
(lp7689
(g7239
g50
F0.5765
tp7690
a(S'@l'
p7691
g1887
F0.9941
tp7692
a(g5
g6
F0.9949
tp7693
asI1531
(lp7694
(g7284
g50
F0.5681
tp7695
a(S'@l'
p7696
g1887
F0.9951
tp7697
a(g5
g6
F0.9949
tp7698
asI1534
(lp7699
(g7284
g50
F0.5681
tp7700
a(S'@l'
p7701
g1887
F0.9951
tp7702
a(g5
g6
F0.9949
tp7703
asI2645
(lp7704
(S'what'
p7705
g86
F0.9757
tp7706
a(S'else'
p7707
g81
F0.7845
tp7708
a(g5
g6
F0.9977
tp7709
asI1537
(lp7710
(g7288
g50
F0.4979
tp7711
a(S'@l'
p7712
g1887
F0.9955
tp7713
a(g5
g6
F0.9949
tp7714
asI1540
(lp7715
(g7288
g50
F0.4979
tp7716
a(S'@l'
p7717
g1887
F0.9955
tp7718
a(g5
g6
F0.9949
tp7719
asI1543
(lp7720
(g7294
g50
F0.558
tp7721
a(S'@l'
p7722
g1887
F0.9952
tp7723
a(g5
g6
F0.9949
tp7724
asI1546
(lp7725
(g7294
g50
F0.558
tp7726
a(S'@l'
p7727
g1887
F0.9952
tp7728
a(g5
g6
F0.9949
tp7729
asI1549
(lp7730
(g7298
g86
F0.9348
tp7731
a(S'@l'
p7732
g1887
F0.9937
tp7733
a(S'(.)'
p7734
g50
F0.2591
tp7735
a(S'louder'
p7736
g66
F0.9775
tp7737
a(g5
g6
F0.9987
tp7738
asI1552
(lp7739
(S'huh'
p7740
g75
F0.9936
tp7741
a(g43
g6
F0.9967
tp7742
asI2397
(lp7743
(S'wha(t'
p7744
g86
F0.8878
tp7745
a(g193
g6
F0.8902
tp7746
a(g511
g6
F0.9521
tp7747
a(S'di)d'
p7748
g39
F0.9924
tp7749
a(S'you'
p7750
g86
F0.9995
tp7751
a(S'say'
p7752
g39
F0.9917
tp7753
a(g43
g6
F0.9975
tp7754
asI1556
(lp7755
(g7298
g86
F0.9415
tp7756
a(S'@l'
p7757
g1887
F0.9906
tp7758
a(g5
g6
F0.9949
tp7759
asI1560
(lp7760
(g7298
g86
F0.9415
tp7761
a(S'@l'
p7762
g1887
F0.9906
tp7763
a(g5
g6
F0.9949
tp7764
asI1563
(lp7765
(g7302
g50
F0.5252
tp7766
a(S'@l'
p7767
g1887
F0.9955
tp7768
a(g5
g6
F0.9949
tp7769
asI1566
(lp7770
(g7302
g50
F0.5252
tp7771
a(S'@l'
p7772
g1887
F0.9955
tp7773
a(g5
g6
F0.9949
tp7774
asI1569
(lp7775
(g7306
g50
F0.4398
tp7776
a(S'@l'
p7777
g1887
F0.9955
tp7778
a(g5
g6
F0.9949
tp7779
asI1572
(lp7780
(g7306
g50
F0.4398
tp7781
a(S'@l'
p7782
g1887
F0.9955
tp7783
a(g5
g6
F0.9949
tp7784
asI1575
(lp7785
(g7310
g50
F0.5662
tp7786
a(S'@l'
p7787
g1887
F0.9953
tp7788
a(g5
g6
F0.9949
tp7789
asI1578
(lp7790
(g7310
g50
F0.5662
tp7791
a(S'@l'
p7792
g1887
F0.9953
tp7793
a(g5
g6
F0.9949
tp7794
asI2311
(lp7795
(g9
g10
F0.9385
tp7796
a(S'what'
p7797
g86
F0.9923
tp7798
a(S'can'
p7799
g39
F0.9997
tp7800
a(S'you'
p7801
g86
F0.9986
tp7802
a(S'write'
p7803
g39
F0.992
tp7804
a(g14
g15
F0.4672
tp7805
a(g17
g15
F0.535
tp7806
a(g9
g10
F0.7916
tp7807
a(g20
g6
F0.9773
tp7808
a(g43
g6
F0.9957
tp7809
asI1581
(lp7810
(S'm'
p7811
g50
F0.4603
tp7812
a(S'@l'
p7813
g1887
F0.992
tp7814
a(g5
g6
F0.9949
tp7815
asI1584
(lp7816
(g7811
g50
F0.4603
tp7817
a(S'@l'
p7818
g1887
F0.992
tp7819
a(g5
g6
F0.9949
tp7820
asI1587
(lp7821
(S'n'
p7822
g191
F0.8005
tp7823
a(S'@l'
p7824
g1887
F0.9947
tp7825
a(g5
g6
F0.9949
tp7826
asI1590
(lp7827
(g7822
g191
F0.8005
tp7828
a(S'@l'
p7829
g1887
F0.9947
tp7830
a(g5
g6
F0.9949
tp7831
asI1593
(lp7832
(g7314
g75
F0.3876
tp7833
a(S'@l'
p7834
g1887
F0.9939
tp7835
a(g5
g6
F0.9949
tp7836
asI2655
(lp7837
(S'xxx'
p7838
g15
F0.8981
tp7839
a(g17
g6
F0.6622
tp7840
a(g9
g10
F0.9843
tp7841
a(g20
g6
F0.9556
tp7842
a(S'xxx'
p7843
g15
F0.4106
tp7844
a(S'there'
p7845
g81
F0.6031
tp7846
a(S'(.)'
p7847
g15
F0.25
tp7848
a(g5
g6
F0.9714
tp7849
asI1596
(lp7850
(g7314
g75
F0.3876
tp7851
a(S'@l'
p7852
g1887
F0.9939
tp7853
a(g5
g6
F0.9949
tp7854
asI1599
(lp7855
(g7318
g50
F0.5163
tp7856
a(S'@l'
p7857
g1887
F0.9954
tp7858
a(g5
g6
F0.9949
tp7859
asI1602
(lp7860
(g7318
g50
F0.5163
tp7861
a(S'@l'
p7862
g1887
F0.9954
tp7863
a(g5
g6
F0.9949
tp7864
asI1605
(lp7865
(g7326
g50
F0.6551
tp7866
a(S'@l'
p7867
g1887
F0.9943
tp7868
a(g5
g6
F0.9949
tp7869
asI1608
(lp7870
(g7326
g50
F0.6551
tp7871
a(S'@l'
p7872
g1887
F0.9943
tp7873
a(g5
g6
F0.9949
tp7874
asI1611
(lp7875
(g7330
g50
F0.3865
tp7876
a(S'@l'
p7877
g1887
F0.9939
tp7878
a(g5
g6
F0.9949
tp7879
asI2658
(lp7880
(S'mm'
p7881
g75
F0.4155
tp7882
a(g395
g86
F0.9989
tp7883
a(S'want'
p7884
g39
F0.9999
tp7885
a(S'that'
p7886
g86
F0.8137
tp7887
a(g5
g6
F0.9988
tp7888
asI1614
(lp7889
(g7330
g50
F0.3865
tp7890
a(S'@l'
p7891
g1887
F0.9939
tp7892
a(g5
g6
F0.9949
tp7893
asI1617
(lp7894
(g7344
g50
F0.8871
tp7895
a(S'@l'
p7896
g1887
F0.9926
tp7897
a(g5
g6
F0.9949
tp7898
asI1620
(lp7899
(g7344
g50
F0.8871
tp7900
a(S'@l'
p7901
g1887
F0.9926
tp7902
a(g5
g6
F0.9949
tp7903
asI1623
(lp7904
(g7350
g50
F0.6689
tp7905
a(S'@l'
p7906
g1887
F0.9952
tp7907
a(g5
g6
F0.9949
tp7908
asI1626
(lp7909
(g7350
g50
F0.6689
tp7910
a(S'@l'
p7911
g1887
F0.9952
tp7912
a(g5
g6
F0.9949
tp7913
asI2850
(lp7914
(g9
g10
F0.933
tp7915
a(S'another'
p7916
g97
F0.9425
tp7917
a(S'fly'
p7918
g32
F0.7657
tp7919
a(g14
g15
F0.3978
tp7920
a(g17
g15
F0.535
tp7921
a(g9
g10
F0.6902
tp7922
a(g20
g6
F0.9839
tp7923
a(g5
g6
F0.9962
tp7924
asI1629
(lp7925
(g7354
g86
F0.9853
tp7926
a(S'@l'
p7927
g1887
F0.9925
tp7928
a(g5
g6
F0.9949
tp7929
asI1632
(lp7930
(g7354
g86
F0.9853
tp7931
a(S'@l'
p7932
g1887
F0.9925
tp7933
a(g5
g6
F0.9949
tp7934
asI3123
(lp7935
(S'zzz'
p7936
g50
F0.4201
tp7937
a(S'oh'
p7938
g75
F0.9853
tp7939
a(g17
g6
F0.9424
tp7940
a(g75
g6
F0.9922
tp7941
a(g20
g6
F0.9771
tp7942
a(g395
g86
F0.9986
tp7943
a(S'did'
p7944
g39
F0.999
tp7945
a(g5
g6
F0.9977
tp7946
asI1635
(lp7947
(g7358
g50
F0.4315
tp7948
a(S'@l'
p7949
g1887
F0.9949
tp7950
a(g5
g6
F0.9949
tp7951
asI1638
(lp7952
(g7358
g50
F0.4315
tp7953
a(S'@l'
p7954
g1887
F0.9949
tp7955
a(g5
g6
F0.9949
tp7956
asI1641
(lp7957
(S'w'
p7958
g104
F0.5004
tp7959
a(S'@l'
p7960
g1887
F0.9934
tp7961
a(g5
g6
F0.9949
tp7962
asI1644
(lp7963
(g7958
g104
F0.5004
tp7964
a(S'@l'
p7965
g1887
F0.9934
tp7966
a(g5
g6
F0.9949
tp7967
asI1647
(lp7968
(S'x'
p7969
g50
F0.4607
tp7970
a(S'@l'
p7971
g1887
F0.9948
tp7972
a(g5
g6
F0.9949
tp7973
asI2664
(lp7974
(g9
g10
F0.9001
tp7975
a(S'you'
p7976
g86
F0.9983
tp7977
a(S'want'
p7978
g39
F0.9991
tp7979
a(g14
g15
F0.5804
tp7980
a(g17
g15
F0.535
tp7981
a(g9
g10
F0.8293
tp7982
a(g20
g6
F0.9881
tp7983
a(S'that'
p7984
g86
F0.6382
tp7985
a(g43
g6
F0.9987
tp7986
asI1650
(lp7987
(g7969
g50
F0.4607
tp7988
a(S'@l'
p7989
g1887
F0.9948
tp7990
a(g5
g6
F0.9949
tp7991
asI1653
(lp7992
(S'y'
p7993
g81
F0.4421
tp7994
a(S'@l'
p7995
g1887
F0.9956
tp7996
a(g5
g6
F0.9949
tp7997
asI1656
(lp7998
(g7993
g81
F0.4421
tp7999
a(S'@l'
p8000
g1887
F0.9956
tp8001
a(g5
g6
F0.9949
tp8002
asI1659
(lp8003
(S'z'
p8004
g3
F0.4055
tp8005
a(S'@l'
p8006
g1887
F0.9888
tp8007
a(g5
g6
F0.9949
tp8008
asI1662
(lp8009
(g8004
g3
F0.4055
tp8010
a(S'@l'
p8011
g1887
F0.9888
tp8012
a(g5
g6
F0.9949
tp8013
asI1665
(lp8014
(S'now'
p8015
g81
F0.9913
tp8016
a(S'you'
p8017
g86
F0.9994
tp8018
a(S'say'
p8019
g39
F0.9998
tp8020
a(S'it'
p8021
g86
F0.9878
tp8022
a(S'by'
p8023
g104
F0.9915
tp8024
a(S'yourself'
p8025
g86
F0.9933
tp8026
a(g5
g6
F0.9983
tp8027
asI1668
(lp8028
(S'sing'
p8029
g39
F0.9995
tp8030
a(S'it'
p8031
g86
F0.9882
tp8032
a(S'(.)'
p8033
g6
F0.2497
tp8034
a(g5
g6
F0.9962
tp8035
asI1671
(lp8036
(g395
g86
F0.9976
tp8037
a(S"don't"
p8038
g39
F1.0
tp8039
a(S'wan(t'
p8040
g39
F0.9994
tp8041
a(g193
g6
F0.9512
tp8042
a(g511
g6
F0.9524
tp8043
a(S't)o'
p8044
g32
F0.3486
tp8045
a(g5
g6
F0.9984
tp8046
asI1675
(lp8047
(S'she'
p8048
g86
F0.9954
tp8049
a(S'already'
p8050
g81
F0.9969
tp8051
a(S'did'
p8052
g39
F0.9943
tp8053
a(g5
g6
F0.9978
tp8054
asI1679
(lp8055
(S'&-um'
p8056
g75
F0.9267
tp8057
a(S'how'
p8058
g81
F0.9841
tp8059
a(S'old'
p8060
g66
F0.9958
tp8061
a(S'are'
p8062
g39
F0.8728
tp8063
a(S'you'
p8064
g86
F0.9971
tp8065
a(S'(.)'
p8066
g6
F0.2865
tp8067
a(g5
g6
F0.996
tp8068
asI1682
(lp8069
(S'say'
p8070
g39
F0.9945
tp8071
a(S'it'
p8072
g86
F0.985
tp8073
a(g5
g6
F0.9987
tp8074
asI1685
(lp8075
(S'four'
p8076
g63
F0.7591
tp8077
a(g43
g6
F0.9957
tp8078
asI1690
(lp8079
(S'four'
p8080
g63
F0.8064
tp8081
a(g5
g6
F0.9969
tp8082
asI2443
(lp8083
(S'mhm'
p8084
g75
F0.9761
tp8085
a(g5
g6
F0.9962
tp8086
asI1693
(lp8087
(S'years'
p8088
g32
F0.7054
tp8089
a(S'old'
p8090
g66
F0.9941
tp8091
a(S'(.)'
p8092
g3
F0.2507
tp8093
a(g5
g6
F0.9942
tp8094
asI1696
(lp8095
(S'where'
p8096
g81
F0.9688
tp8097
a(g511
g6
F0.9603
tp8098
a(S'di)d'
p8099
g39
F0.8581
tp8100
a(g9
g10
F0.73
tp8101
a(S'you'
p8102
g86
F0.9987
tp8103
a(S'have'
p8104
g39
F0.9999
tp8105
a(S'your'
p8106
g97
F0.9039
tp8107
a(g14
g50
F0.4
tp8108
a(g17
g6
F0.899
tp8109
a(g14
g15
F0.4438
tp8110
a(g20
g6
F0.7687
tp8111
a(S'birthday'
p8112
g32
F0.9927
tp8113
a(S'party'
p8114
g32
F0.9938
tp8115
a(g43
g6
F0.9985
tp8116
asI1701
(lp8117
(g9
g10
F0.9223
tp8118
a(S'years'
p8119
g32
F0.7804
tp8120
a(S'old'
p8121
g66
F0.9811
tp8122
a(g14
g15
F0.4673
tp8123
a(g17
g15
F0.535
tp8124
a(g9
g10
F0.6902
tp8125
a(g20
g6
F0.9839
tp8126
a(g5
g6
F0.9962
tp8127
asI1704
(lp8128
(S"McDonald's"
p8129
g3
F0.4503
tp8130
a(S'(.)'
p8131
g3
F0.7039
tp8132
a(g5
g6
F0.9933
tp8133
asI1708
(lp8134
(S'and'
p8135
g191
F0.998
tp8136
a(S'xxx'
p8137
g32
F0.3507
tp8138
a(g5
g6
F0.9981
tp8139
asI2589
(lp8140
(S'we'
p8141
g86
F0.9953
tp8142
a(S'read'
p8143
g39
F0.9983
tp8144
a(S'books'
p8145
g32
F0.9414
tp8146
a(g17
g6
F0.9885
tp8147
a(g14
g15
F0.5563
tp8148
a(g20
g6
F0.6899
tp8149
a(g5
g6
F0.9959
tp8150
asI1712
(lp8151
(S'wha(t'
p8152
g86
F0.8878
tp8153
a(g193
g6
F0.8902
tp8154
a(g511
g6
F0.9521
tp8155
a(S'di)d'
p8156
g39
F0.9924
tp8157
a(S'you'
p8158
g86
F0.9992
tp8159
a(S'see'
p8160
g39
F0.9981
tp8161
a(S'at'
p8162
g104
F0.9975
tp8163
a(S"McDonald's"
p8164
g3
F0.8242
tp8165
a(S'(.)'
p8166
g3
F0.6508
tp8167
a(g43
g6
F0.9944
tp8168
asI1717
(lp8169
(S'wha(t'
p8170
g86
F0.8878
tp8171
a(g193
g6
F0.9766
tp8172
a(S'di(d'
p8173
g39
F0.7592
tp8174
a(g193
g6
F0.9942
tp8175
a(S'you'
p8176
g86
F0.9967
tp8177
a(S'see'
p8178
g39
F0.9981
tp8179
a(S'at'
p8180
g104
F0.998
tp8181
a(S"McDonald's"
p8182
g3
F0.8
tp8183
a(g5
g6
F0.9976
tp8184
asI1721
(lp8185
(S'pop'
p8186
g32
F0.9414
tp8187
a(g5
g6
F0.9978
tp8188
asI1724
(lp8189
(g511
g6
F0.9599
tp8190
a(S'a)n(d'
p8191
g191
F0.9113
tp8192
a(g193
g6
F0.9667
tp8193
a(S'what'
p8194
g86
F0.9744
tp8195
a(S'else'
p8196
g81
F0.9169
tp8197
a(g5
g6
F0.997
tp8198
asI1727
(lp8199
(S'where'
p8200
g81
F0.9688
tp8201
a(g511
g6
F0.9603
tp8202
a(S'di)d'
p8203
g39
F0.9742
tp8204
a(S'they'
p8205
g86
F0.9886
tp8206
a(S'bring'
p8207
g39
F1.0
tp8208
a(S'you'
p8209
g86
F0.9968
tp8210
a(S'(.)'
p8211
g6
F0.2373
tp8212
a(g43
g6
F0.9954
tp8213
asI1731
(lp8214
(S'in'
p8215
g104
F0.9915
tp8216
a(S'the'
p8217
g97
F0.9919
tp8218
a(g1039
g50
F0.5618
tp8219
a(S'...'
p8220
g10
F0.6127
tp8221
asI1734
(lp8222
(S'what'
p8223
g86
F0.9171
tp8224
a(g43
g6
F0.9924
tp8225
asI1738
(lp8226
(S'where'
p8227
g81
F0.9688
tp8228
a(g511
g6
F0.9603
tp8229
a(S'di)d'
p8230
g39
F0.9742
tp8231
a(S'they'
p8232
g86
F0.9886
tp8233
a(S'bring'
p8234
g39
F1.0
tp8235
a(S'you'
p8236
g86
F0.9981
tp8237
a(g9
g10
F0.6015
tp8238
a(S'in'
p8239
g104
F0.9949
tp8240
a(S'the'
p8241
g97
F0.9913
tp8242
a(g14
g50
F0.2983
tp8243
a(S'[/]'
p8244
g50
F0.2588
tp8245
a(S'in'
p8246
g104
F0.9937
tp8247
a(S'the'
p8248
g97
F0.9989
tp8249
a(S"McDonald's"
p8250
g32
F0.5417
tp8251
a(g43
g6
F0.9971
tp8252
asI1744
(lp8253
(S'what'
p8254
g86
F0.9733
tp8255
a(g511
g6
F0.9599
tp8256
a(S'di)d'
p8257
g39
F0.9935
tp8258
a(S'you'
p8259
g86
F0.9991
tp8260
a(S'see'
p8261
g39
F0.9943
tp8262
a(g43
g6
F0.9968
tp8263
asI1748
(lp8264
(S'the'
p8265
g97
F0.9984
tp8266
a(S'freezer'
p8267
g32
F0.9774
tp8268
a(g43
g6
F0.9984
tp8269
asI1752
(lp8270
(S'xxx'
p8271
g15
F0.5822
tp8272
a(g5
g6
F0.9648
tp8273
asI1753
(lp8274
(S'xxx'
p8275
g15
F0.8981
tp8276
a(g17
g6
F0.661
tp8277
a(g14
g15
F0.3811
tp8278
a(g20
g6
F0.7604
tp8279
a(g5
g6
F0.9962
tp8280
asI1755
(lp8281
(g9
g10
F0.9094
tp8282
a(S'an(d'
p8283
g191
F0.9355
tp8284
a(g193
g6
F0.9669
tp8285
a(S'wha(t'
p8286
g86
F0.8698
tp8287
a(g193
g6
F0.8848
tp8288
a(g511
g6
F0.9622
tp8289
a(S'di)d'
p8290
g39
F0.9716
tp8291
a(S'they'
p8292
g86
F0.9964
tp8293
a(S'have'
p8294
g39
F0.9997
tp8295
a(S'in'
p8296
g104
F0.991
tp8297
a(S'the'
p8298
g97
F0.9993
tp8299
a(S'freezer'
p8300
g32
F0.9795
tp8301
a(g14
g15
F0.548
tp8302
a(g17
g15
F0.535
tp8303
a(g9
g10
F0.7668
tp8304
a(g20
g6
F0.9884
tp8305
a(g5
g6
F0.9948
tp8306
asI1761
(lp8307
(S'my'
p8308
g97
F0.9932
tp8309
a(S'cake'
p8310
g32
F0.9987
tp8311
a(g5
g6
F0.9985
tp8312
asI1764
(lp8313
(S'your'
p8314
g97
F0.9492
tp8315
a(S'cake'
p8316
g32
F0.9991
tp8317
a(g5
g6
F0.9985
tp8318
asI1767
(lp8319
(S'oh'
p8320
g75
F0.9969
tp8321
a(S'(.)'
p8322
g75
F0.4645
tp8323
a(g5
g6
F0.9973
tp8324
asI1771
(lp8325
(g9
g10
F0.9094
tp8326
a(S'an(d'
p8327
g191
F0.9355
tp8328
a(g193
g6
F0.9667
tp8329
a(S'what'
p8330
g86
F0.9794
tp8331
a(g14
g15
F0.5341
tp8332
a(g17
g15
F0.5345
tp8333
a(g14
g15
F0.9532
tp8334
a(g20
g6
F0.7914
tp8335
a(S'did'
p8336
g39
F0.9996
tp8337
a(S'you'
p8338
g86
F0.9988
tp8339
a(S'get'
p8340
g39
F0.9997
tp8341
a(S'for'
p8342
g104
F0.9991
tp8343
a(S'your'
p8344
g97
F0.9962
tp8345
a(S'birthday'
p8346
g32
F0.9982
tp8347
a(S'(.)'
p8348
g15
F0.3587
tp8349
a(g43
g6
F0.9831
tp8350
asI1777
(lp8351
(g9
g10
F0.9112
tp8352
a(S'Mommy'
p8353
g32
F0.5708
tp8354
a(g14
g50
F0.4522
tp8355
a(g17
g6
F0.9261
tp8356
a(g9
g10
F0.948
tp8357
a(g20
g6
F0.9666
tp8358
a(g43
g6
F0.9959
tp8359
asI1780
(lp8360
(S'Mommy'
p8361
g32
F0.711
tp8362
a(g43
g6
F0.9974
tp8363
asI2153
(lp8364
(S'what'
p8365
g86
F0.9511
tp8366
a(S'(.)'
p8367
g15
F0.3151
tp8368
a(g43
g6
F0.9749
tp8369
asI2787
(lp8370
(g9
g10
F0.9526
tp8371
a(g395
g86
F0.9988
tp8372
a(S'mean'
p8373
g39
F0.979
tp8374
a(g17
g6
F0.9906
tp8375
a(g43
g6
F0.9841
tp8376
a(g20
g6
F0.898
tp8377
a(S'sit'
p8378
g39
F0.9894
tp8379
a(S'in'
p8380
g104
F0.8005
tp8381
a(g278
g97
F0.9969
tp8382
a(S'corner'
p8383
g32
F0.9983
tp8384
a(g14
g15
F0.6734
tp8385
a(g17
g15
F0.5345
tp8386
a(g14
g15
F0.9519
tp8387
a(g20
g6
F0.8754
tp8388
a(g5
g6
F0.996
tp8389
asI1784
(lp8390
(g9
g10
F0.9355
tp8391
a(S'(re)member'
p8392
g39
F0.9626
tp8393
a(g14
g15
F0.4575
tp8394
a(g17
g15
F0.4959
tp8395
a(g14
g15
F0.9698
tp8396
a(g20
g6
F0.4947
tp8397
a(g43
g6
F0.9959
tp8398
asI1788
(lp8399
(S'xxx'
p8400
g15
F0.8981
tp8401
a(g17
g6
F0.6622
tp8402
a(g9
g10
F0.972
tp8403
a(g20
g6
F0.9847
tp8404
a(g5
g6
F0.9962
tp8405
asI1789
(lp8406
(g9
g10
F0.9112
tp8407
a(S'Mommy'
p8408
g32
F0.5708
tp8409
a(g14
g50
F0.4522
tp8410
a(g17
g6
F0.9218
tp8411
a(g14
g15
F0.5563
tp8412
a(g20
g6
F0.4947
tp8413
a(g43
g6
F0.9959
tp8414
asI1793
(lp8415
(S'what'
p8416
g86
F0.9738
tp8417
a(g17
g6
F0.9858
tp8418
a(S'<][>'
p8419
g15
F0.2489
tp8420
a(g20
g6
F0.7381
tp8421
a(g43
g6
F0.9963
tp8422
asI1796
(lp8423
(S'kind'
p8424
g32
F0.6798
tp8425
a(g17
g6
F0.9932
tp8426
a(S'<][>'
p8427
g15
F0.2489
tp8428
a(g20
g6
F0.862
tp8429
a(g5
g6
F0.9962
tp8430
asI1799
(lp8431
(g9
g10
F0.9726
tp8432
a(S'yep'
p8433
g75
F0.9937
tp8434
a(g17
g6
F0.9831
tp8435
a(g43
g6
F0.9878
tp8436
a(g20
g6
F0.7796
tp8437
a(g14
g15
F0.5377
tp8438
a(g17
g15
F0.535
tp8439
a(g9
g10
F0.7916
tp8440
a(g20
g6
F0.9861
tp8441
a(g5
g6
F0.9959
tp8442
asI1802
(lp8443
(S'brownies'
p8444
g32
F0.9381
tp8445
a(g5
g6
F0.9985
tp8446
asI3031
(lp8447
(S'leave'
p8448
g39
F0.9956
tp8449
a(S'it'
p8450
g86
F0.9946
tp8451
a(S'alone'
p8452
g81
F0.5379
tp8453
a(g5
g6
F0.9981
tp8454
asI1805
(lp8455
(g511
g6
F0.9422
tp8456
a(S'di)d'
p8457
g39
F0.9924
tp8458
a(S'you'
p8459
g86
F0.9991
tp8460
a(S'get'
p8461
g39
F0.9999
tp8462
a(g278
g97
F0.9975
tp8463
a(S'Cookie'
p8464
g32
F0.9808
tp8465
a(S'Monster'
p8466
g3
F0.5956
tp8467
a(S'wagon'
p8468
g32
F0.9305
tp8469
a(g43
g6
F0.9984
tp8470
asI1810
(lp8471
(S'yeah'
p8472
g75
F0.9986
tp8473
a(g5
g6
F0.997
tp8474
asI2106
(lp8475
(S'okay'
p8476
g75
F0.9498
tp8477
a(S"we're"
p8478
g78
F0.9611
tp8479
a(S'gonna'
p8480
g39
F0.9942
tp8481
a(S'finish'
p8482
g39
F0.9976
tp8483
a(S'eating'
p8484
g39
F0.9925
tp8485
a(S'now'
p8486
g81
F0.9917
tp8487
a(S'(.)'
p8488
g15
F0.2568
tp8489
a(g5
g6
F0.9714
tp8490
asI1813
(lp8491
(S'you'
p8492
g86
F0.998
tp8493
a(S'say'
p8494
g39
F0.9998
tp8495
a(S'it'
p8496
g86
F0.9863
tp8497
a(S'(.)'
p8498
g6
F0.2714
tp8499
a(g5
g6
F0.9962
tp8500
asI1816
(lp8501
(S'and'
p8502
g191
F0.9994
tp8503
a(S'it'
p8504
g86
F0.9954
tp8505
a(S'+/'
p8506
g6
F0.281
tp8507
a(g5
g6
F0.9965
tp8508
asI1819
(lp8509
(S'Mom'
p8510
g32
F0.9095
tp8511
a(g5
g6
F0.9981
tp8512
asI1822
(lp8513
(S'hm'
p8514
g75
F0.9811
tp8515
a(g2003
g6
F0.936
tp8516
a(g5
g6
F0.9898
tp8517
asI1825
(lp8518
(S'tell'
p8519
g39
F0.7032
tp8520
a(g511
g6
F0.9921
tp8521
a(S'h)er'
p8522
g39
F0.3896
tp8523
a(S'going'
p8524
g39
F0.9984
tp8525
a(S'in'
p8526
g104
F0.5801
tp8527
a(g17
g6
F0.9772
tp8528
a(g75
g6
F0.9901
tp8529
a(g20
g6
F0.9663
tp8530
a(S'the'
p8531
g97
F0.9986
tp8532
a(S'freezer'
p8533
g32
F0.9822
tp8534
a(S'too'
p8535
g81
F0.9618
tp8536
a(g5
g6
F0.9956
tp8537
asI1829
(lp8538
(S'yeah'
p8539
g75
F0.9986
tp8540
a(g5
g6
F0.997
tp8541
asI1832
(lp8542
(S'did'
p8543
g39
F0.9986
tp8544
a(S'you'
p8545
g86
F0.9984
tp8546
a(S'go'
p8547
g39
F0.999
tp8548
a(S'in'
p8549
g104
F0.9888
tp8550
a(S'the'
p8551
g97
F0.9993
tp8552
a(S'freezer'
p8553
g32
F0.9138
tp8554
a(S'(.)'
p8555
g15
F0.4056
tp8556
a(g43
g6
F0.9768
tp8557
asI1836
(lp8558
(g511
g6
F0.9422
tp8559
a(S'di)d'
p8560
g39
F0.9924
tp8561
a(S'you'
p8562
g86
F0.9991
tp8563
a(S'get'
p8564
g39
F1.0
tp8565
a(S'your'
p8566
g97
F0.9937
tp8567
a(S'cake'
p8568
g32
F0.9977
tp8569
a(g43
g6
F0.9976
tp8570
asI1840
(lp8571
(S'Michele'
p8572
g3
F0.9992
tp8573
a(S'did'
p8574
g39
F0.9654
tp8575
a(g5
g6
F0.9974
tp8576
asI1843
(lp8577
(S'Michele'
p8578
g3
F0.9992
tp8579
a(S'did'
p8580
g39
F0.9578
tp8581
a(g43
g6
F0.9973
tp8582
asI1847
(lp8583
(g9
g10
F0.9001
tp8584
a(S'you'
p8585
g86
F0.9991
tp8586
a(S'did'
p8587
g39
F0.9987
tp8588
a(g14
g15
F0.5754
tp8589
a(g17
g15
F0.5345
tp8590
a(g14
g15
F0.9532
tp8591
a(g20
g6
F0.8213
tp8592
a(S'too'
p8593
g81
F0.9784
tp8594
a(g5
g6
F0.9977
tp8595
asI1850
(lp8596
(S'xxx'
p8597
g15
F0.8981
tp8598
a(g17
g6
F0.6622
tp8599
a(g9
g10
F0.972
tp8600
a(g20
g6
F0.9847
tp8601
a(g5
g6
F0.9962
tp8602
asI1851
(lp8603
(S'not'
p8604
g81
F0.9816
tp8605
a(g9
g10
F0.6229
tp8606
a(S'just'
p8607
g81
F0.9987
tp8608
a(S'Michele'
p8609
g3
F0.9984
tp8610
a(g14
g50
F0.2873
tp8611
a(g17
g6
F0.899
tp8612
a(g14
g15
F0.5886
tp8613
a(g20
g6
F0.8062
tp8614
a(g5
g6
F0.9969
tp8615
asI1856
(lp8616
(g9
g10
F0.9352
tp8617
a(S'know'
p8618
g39
F0.9846
tp8619
a(S'what'
p8620
g86
F0.9959
tp8621
a(g14
g15
F0.5714
tp8622
a(g17
g15
F0.535
tp8623
a(g9
g10
F0.8293
tp8624
a(g20
g6
F0.983
tp8625
a(S'Mom'
p8626
g32
F0.8251
tp8627
a(g43
g6
F0.9985
tp8628
asI1859
(lp8629
(S'once'
p8630
g81
F0.9125
tp8631
a(g9
g10
F0.6193
tp8632
a(g395
g86
F0.9984
tp8633
a(S'went'
p8634
g39
F0.9993
tp8635
a(S'i(n)'
p8636
g104
F0.6717
tp8637
a(g14
g50
F0.3235
tp8638
a(S'[//]'
p8639
g6
F0.3154
tp8640
a(S'when'
p8641
g81
F0.9924
tp8642
a(g395
g86
F0.9985
tp8643
a(S'went'
p8644
g39
F0.9997
tp8645
a(S'in'
p8646
g104
F0.9276
tp8647
a(S'there'
p8648
g81
F0.6797
tp8649
a(g395
g86
F0.9988
tp8650
a(S'was'
p8651
g39
F0.9999
tp8652
a(S'by'
p8653
g104
F0.9758
tp8654
a(S'myself'
p8655
g86
F0.9952
tp8656
a(g5
g6
F0.9978
tp8657
asI1864
(lp8658
(S'oh'
p8659
g75
F0.9975
tp8660
a(S'yeah'
p8661
g75
F0.9994
tp8662
a(S'(.)'
p8663
g3
F0.3803
tp8664
a(g5
g6
F0.9942
tp8665
asI2176
(lp8666
(S'had'
p8667
g39
F0.9504
tp8668
a(g17
g6
F0.9849
tp8669
a(g9
g10
F0.9843
tp8670
a(g20
g6
F0.9811
tp8671
a(S'Jane'
p8672
g3
F0.9924
tp8673
a(S'last'
p8674
g66
F0.9898
tp8675
a(S'year'
p8676
g32
F0.9942
tp8677
a(g5
g6
F0.9986
tp8678
asI1868
(lp8679
(S'Ma'
p8680
g97
F0.3333
tp8681
a(g395
g86
F0.9972
tp8682
a(S"can't"
p8683
g39
F0.9999
tp8684
a(S'get'
p8685
g39
F0.9999
tp8686
a(S'any'
p8687
g97
F0.9937
tp8688
a(S'beer'
p8689
g32
F0.9989
tp8690
a(g17
g6
F0.9877
tp8691
a(g43
g6
F0.9858
tp8692
a(g20
g6
F0.921
tp8693
a(g5
g6
F0.9959
tp8694
asI1871
(lp8695
(S'mm'
p8696
g75
F0.2906
tp8697
a(g17
g6
F0.9596
tp8698
a(g14
g15
F0.3811
tp8699
a(g20
g6
F0.7604
tp8700
a(g5
g6
F0.9962
tp8701
asI2790
(lp8702
(S'xxx'
p8703
g15
F0.8981
tp8704
a(g17
g6
F0.6622
tp8705
a(g9
g10
F0.9843
tp8706
a(g20
g6
F0.9723
tp8707
a(S'(.)'
p8708
g15
F0.2781
tp8709
a(g5
g6
F0.9509
tp8710
asI1874
(lp8711
(S'mm'
p8712
g75
F0.2906
tp8713
a(g17
g6
F0.9816
tp8714
a(S'<][>'
p8715
g15
F0.2489
tp8716
a(g20
g6
F0.862
tp8717
a(g5
g6
F0.9962
tp8718
asI1877
(lp8719
(S'what'
p8720
g86
F0.9738
tp8721
a(g17
g6
F0.9703
tp8722
a(g9
g10
F0.9843
tp8723
a(g20
g6
F0.9723
tp8724
a(S'(.)'
p8725
g15
F0.3812
tp8726
a(g43
g6
F0.9618
tp8727
asI1880
(lp8728
(S'Tanya'
p8729
g3
F0.9506
tp8730
a(S'you'
p8731
g86
F0.9984
tp8732
a(S'wan(t'
p8733
g39
F0.9987
tp8734
a(g193
g6
F0.9512
tp8735
a(g511
g6
F0.9507
tp8736
a(S't)a'
p8737
g32
F0.2848
tp8738
a(g191
g191
F0.991
tp8739
a(g7344
g50
F0.3441
tp8740
a(S'tell'
p8741
g39
F0.9862
tp8742
a(g278
g97
F0.9974
tp8743
a(S'story'
p8744
g32
F0.9992
tp8745
a(g511
g6
F0.9913
tp8746
a(S'a)bout'
p8747
g104
F0.8724
tp8748
a(S'school'
p8749
g32
F0.9971
tp8750
a(S'or'
p8751
g191
F0.9934
tp8752
a(S'somethin(g'
p8753
g32
F0.9966
tp8754
a(g193
g6
F0.9766
tp8755
a(S'(.)'
p8756
g50
F0.3549
tp8757
a(g43
g6
F0.9885
tp8758
asI1886
(lp8759
(S'wan(t'
p8760
g39
F0.9557
tp8761
a(g193
g6
F0.9434
tp8762
a(g511
g6
F0.94
tp8763
a(S't)a'
p8764
g104
F0.7327
tp8765
a(S'tell'
p8766
g39
F0.9182
tp8767
a(S'Daddy'
p8768
g32
F0.7772
tp8769
a(g278
g97
F0.9879
tp8770
a(S'story'
p8771
g32
F0.997
tp8772
a(S'about'
p8773
g104
F0.9929
tp8774
a(S'school'
p8775
g32
F0.9973
tp8776
a(S'or'
p8777
g191
F0.9934
tp8778
a(S'somethin(g'
p8779
g32
F0.9973
tp8780
a(g193
g6
F0.9793
tp8781
a(g43
g6
F0.9981
tp8782
asI1892
(lp8783
(S'hey'
p8784
g75
F0.998
tp8785
a(g5
g6
F0.9968
tp8786
asI1895
(lp8787
(S'maybe'
p8788
g81
F0.9387
tp8789
a(S'we'
p8790
g86
F0.9984
tp8791
a(S'should'
p8792
g39
F0.9994
tp8793
a(S'speed'
p8794
g39
F0.9678
tp8795
a(S'it'
p8796
g86
F0.9896
tp8797
a(S'along'
p8798
g104
F0.6918
tp8799
a(S'(.)'
p8800
g3
F0.5078
tp8801
a(g5
g6
F0.9938
tp8802
asI1899
(lp8803
(S'that'
p8804
g86
F0.5202
tp8805
a(S'mine'
p8806
g86
F0.9086
tp8807
a(g5
g6
F0.9971
tp8808
asI2706
(lp8809
(S'good'
p8810
g66
F0.9946
tp8811
a(S'girl'
p8812
g32
F0.9921
tp8813
a(S'most'
p8814
g81
F0.8558
tp8815
a(S'o(f'
p8816
g104
F0.4345
tp8817
a(g193
g6
F0.9842
tp8818
a(S'the'
p8819
g97
F0.9986
tp8820
a(S'time'
p8821
g32
F0.9972
tp8822
a(S'an(d'
p8823
g191
F0.9511
tp8824
a(g193
g6
F0.9861
tp8825
a(g278
g97
F0.9875
tp8826
a(S'bad'
p8827
g66
F0.9957
tp8828
a(S'girl'
p8829
g32
F0.9912
tp8830
a(g278
g97
F0.9877
tp8831
a(S'little'
p8832
g66
F0.9968
tp8833
a(S'bit'
p8834
g32
F0.9675
tp8835
a(S'o(f'
p8836
g104
F0.628
tp8837
a(g193
g6
F0.9842
tp8838
a(S'the'
p8839
g97
F0.9986
tp8840
a(S'time'
p8841
g32
F0.9995
tp8842
a(g5
g6
F0.9974
tp8843
asI1903
(lp8844
(S'how'
p8845
g81
F0.9627
tp8846
a(S'was'
p8847
g39
F0.9989
tp8848
a(S'your'
p8849
g97
F0.9955
tp8850
a(S'supper'
p8851
g32
F0.9975
tp8852
a(g43
g6
F0.998
tp8853
asI3048
(lp8854
(S'see'
p8855
g39
F0.9732
tp8856
a(S'its'
p8857
g78
F0.9816
tp8858
a(S'on'
p8859
g104
F0.9402
tp8860
a(S"it's"
p8861
g78
F0.9749
tp8862
a(S'workin(g'
p8863
g39
F0.8621
tp8864
a(g193
g6
F0.9946
tp8865
a(S"don't"
p8866
g39
F0.999
tp8867
a(S'touch'
p8868
g39
F0.9981
tp8869
a(S'it'
p8870
g86
F0.9855
tp8871
a(g5
g6
F0.9988
tp8872
asI1907
(lp8873
(S'yeah'
p8874
g75
F0.9986
tp8875
a(g5
g6
F0.997
tp8876
asI1910
(lp8877
(S'your'
p8878
g97
F0.9588
tp8879
a(S'supper'
p8880
g32
F0.9929
tp8881
a(S'good'
p8882
g66
F0.9822
tp8883
a(S'(.)'
p8884
g15
F0.2455
tp8885
a(g43
g6
F0.9747
tp8886
asI1914
(lp8887
(S'gonna'
p8888
g39
F0.985
tp8889
a(S'eat'
p8890
g39
F0.9998
tp8891
a(S'it'
p8892
g86
F0.9743
tp8893
a(S'all'
p8894
g97
F0.4611
tp8895
a(g43
g6
F0.9958
tp8896
asI1918
(lp8897
(S'where'
p8898
g81
F0.9806
tp8899
a(S'you'
p8900
g86
F0.9995
tp8901
a(S'goin(g'
p8902
g39
F0.9863
tp8903
a(g193
g6
F0.9955
tp8904
a(S'next'
p8905
g66
F0.9716
tp8906
a(S'year'
p8907
g32
F0.9925
tp8908
a(g5
g6
F0.9984
tp8909
asI2368
(lp8910
(g9
g10
F0.9257
tp8911
a(S'things'
p8912
g32
F0.9841
tp8913
a(g395
g86
F0.9954
tp8914
a(S'want'
p8915
g39
F0.9996
tp8916
a(g14
g15
F0.5597
tp8917
a(g17
g15
F0.5345
tp8918
a(g14
g15
F0.9732
tp8919
a(g20
g6
F0.8062
tp8920
a(g5
g6
F0.9969
tp8921
asI1922
(lp8922
(S'camp'
p8923
g3
F0.6015
tp8924
a(S'Florida'
p8925
g3
F0.9994
tp8926
a(g5
g6
F0.9954
tp8927
asI1926
(lp8928
(S'where'
p8929
g81
F0.9821
tp8930
a(g43
g6
F0.9953
tp8931
asI1930
(lp8932
(S'Florida'
p8933
g3
F0.9882
tp8934
a(g5
g6
F0.995
tp8935
asI1934
(lp8936
(S'what'
p8937
g86
F0.9835
tp8938
a(S'are'
p8939
g39
F0.9978
tp8940
a(S'you'
p8941
g86
F0.9995
tp8942
a(S'gonna'
p8943
g39
F0.9993
tp8944
a(S'see'
p8945
g39
F0.9944
tp8946
a(g43
g6
F0.9968
tp8947
asI1938
(lp8948
(S'Mickey'
p8949
g3
F0.9949
tp8950
a(S'Mouse'
p8951
g3
F0.9117
tp8952
a(S'an(d'
p8953
g191
F0.8389
tp8954
a(g193
g6
F0.9761
tp8955
a(S'Donald'
p8956
g3
F0.9994
tp8957
a(g5
g6
F0.9931
tp8958
asI1942
(lp8959
(S'oh'
p8960
g75
F0.9961
tp8961
a(S'wow'
p8962
g75
F0.998
tp8963
a(S'(.)'
p8964
g3
F0.4041
tp8965
a(g5
g6
F0.9942
tp8966
asI1946
(lp8967
(S'what'
p8968
g86
F0.9835
tp8969
a(S'are'
p8970
g39
F0.9978
tp8971
a(S'you'
p8972
g86
F0.9995
tp8973
a(S'gonna'
p8974
g39
F0.9998
tp8975
a(S'do'
p8976
g39
F0.9997
tp8977
a(S'there'
p8978
g81
F0.7147
tp8979
a(S'(.)'
p8980
g15
F0.3575
tp8981
a(g43
g6
F0.9768
tp8982
asI3055
(lp8983
(g9
g10
F0.9261
tp8984
a(S'Mom'
p8985
g32
F0.7968
tp8986
a(S'try'
p8987
g39
F0.9597
tp8988
a(g14
g15
F0.4891
tp8989
a(g17
g15
F0.535
tp8990
a(g9
g10
F0.6902
tp8991
a(g20
g6
F0.9839
tp8992
a(g5
g6
F0.9962
tp8993
asI1950
(lp8994
(S'gonna'
p8995
g39
F0.9802
tp8996
a(S'go'
p8997
g39
F0.9992
tp8998
a(S'to'
p8999
g104
F0.9976
tp9000
a(S'the'
p9001
g97
F0.999
tp9002
a(S'beach'
p9003
g32
F0.9057
tp9004
a(g43
g6
F0.9983
tp9005
asI1954
(lp9006
(S'yeah'
p9007
g75
F0.9986
tp9008
a(g5
g6
F0.997
tp9009
asI2179
(lp9010
(S'yeah'
p9011
g75
F0.9958
tp9012
a(S'Jane'
p9013
g3
F0.9978
tp9014
a(g5
g6
F0.9946
tp9015
asI1957
(lp9016
(S'yeah'
p9017
g75
F0.9988
tp9018
a(g43
g6
F0.9966
tp9019
asI1961
(lp9020
(S'yep'
p9021
g75
F0.9972
tp9022
a(g5
g6
F0.9971
tp9023
asI1964
(lp9024
(S"you've"
p9025
g78
F0.9578
tp9026
a(S'go'
p9027
g39
F0.966
tp9028
a(S't_t'
p9029
g15
F0.275
tp9030
a(g7314
g104
F0.7048
tp9031
a(S'answer'
p9032
g32
F0.4877
tp9033
a(S'(.)'
p9034
g15
F0.2941
tp9035
a(g5
g6
F0.9632
tp9036
asI3058
(lp9037
(S'to'
p9038
g104
F0.9935
tp9039
a(S'untangle'
p9040
g39
F0.9921
tp9041
a(S'it'
p9042
g86
F0.9885
tp9043
a(g5
g6
F0.999
tp9044
asI2717
(lp9045
(S"I'm"
p9046
g78
F0.9967
tp9047
a(S'done'
p9048
g39
F0.6688
tp9049
a(g5
g6
F0.9988
tp9050
asI1968
(lp9051
(g9
g10
F0.9534
tp9052
a(S"who's"
p9053
g78
F0.9742
tp9054
a(S'i(n)'
p9055
g104
F0.464
tp9056
a(g14
g50
F0.2859
tp9057
a(S'[/]'
p9058
g50
F0.2732
tp9059
a(S"who's"
p9060
g78
F0.9729
tp9061
a(S'in'
p9062
g104
F0.9943
tp9063
a(S'Florida'
p9064
g3
F0.9985
tp9065
a(g5
g6
F0.9969
tp9066
asI1972
(lp9067
(S'hm'
p9068
g75
F0.9811
tp9069
a(g2003
g6
F0.891
tp9070
a(g43
g6
F0.9885
tp9071
asI1976
(lp9072
(S"who's"
p9073
g78
F0.9784
tp9074
a(S'in'
p9075
g104
F0.9932
tp9076
a(S'Florida'
p9077
g3
F0.9985
tp9078
a(S'(.)'
p9079
g3
F0.5087
tp9080
a(g5
g6
F0.9943
tp9081
asI1980
(lp9082
(S'get'
p9083
g39
F0.9973
tp9084
a(S'the'
p9085
g97
F0.9994
tp9086
a(S'fork'
p9087
g32
F0.9955
tp9088
a(S'out'
p9089
g104
F0.9144
tp9090
a(S'o(f'
p9091
g3
F0.2633
tp9092
a(g193
g6
F0.9886
tp9093
a(S'your'
p9094
g97
F0.9802
tp9095
a(S'mouth'
p9096
g32
F0.9997
tp9097
a(S'an(d'
p9098
g191
F0.9472
tp9099
a(g193
g6
F0.9835
tp9100
a(S'talk'
p9101
g39
F0.6327
tp9102
a(g5
g6
F0.9969
tp9103
asI3061
(lp9104
(S'zzz'
p9105
g50
F0.409
tp9106
a(g17
g6
F0.9727
tp9107
a(S'<][>'
p9108
g15
F0.2489
tp9109
a(g20
g6
F0.862
tp9110
a(g5
g6
F0.9962
tp9111
asI3150
(lp9112
(S'go'
p9113
g39
F0.9718
tp9114
a(S'push'
p9115
g39
F0.9682
tp9116
a(S'it'
p9117
g86
F0.9895
tp9118
a(S'up'
p9119
g662
F0.9712
tp9120
a(S'near'
p9121
g104
F0.9736
tp9122
a(S'where'
p9123
g81
F0.8425
tp9124
a(S'the'
p9125
g97
F0.9984
tp9126
a(S'pail'
p9127
g32
F0.9963
tp9128
a(S'is'
p9129
g39
F0.9943
tp9130
a(g43
g6
F0.9975
tp9131
asI1985
(lp9132
(S"who's"
p9133
g78
F0.9784
tp9134
a(S'in'
p9135
g104
F0.9914
tp9136
a(S'Florida'
p9137
g3
F0.998
tp9138
a(g5
g6
F0.996
tp9139
asI2379
(lp9140
(S'makes'
p9141
g39
F0.9679
tp9142
a(S'puzzles'
p9143
g32
F0.992
tp9144
a(g43
g6
F0.9979
tp9145
asI1989
(lp9146
(S'say'
p9147
g39
F0.9956
tp9148
a(S'it'
p9149
g86
F0.9568
tp9150
a(S'loud'
p9151
g66
F0.9689
tp9152
a(g5
g6
F0.9986
tp9153
asI1992
(lp9154
(S'what'
p9155
g86
F0.9171
tp9156
a(g43
g6
F0.9924
tp9157
asI1996
(lp9158
(S"who's"
p9159
g78
F0.9784
tp9160
a(S'in'
p9161
g104
F0.9932
tp9162
a(S'Florida'
p9163
g3
F0.9985
tp9164
a(S'(.)'
p9165
g3
F0.482
tp9166
a(g43
g6
F0.9955
tp9167
asI2000
(lp9168
(g395
g86
F0.9976
tp9169
a(S"don't"
p9170
g39
F1.0
tp9171
a(S'know'
p9172
g39
F0.9986
tp9173
a(g5
g6
F0.9981
tp9174
asI2003
(lp9175
(S'who'
p9176
g86
F0.965
tp9177
a(S'you'
p9178
g86
F0.9985
tp9179
a(S'gonna'
p9180
g39
F0.9995
tp9181
a(S'go'
p9182
g39
F0.9975
tp9183
a(S'see'
p9184
g39
F0.8562
tp9185
a(g5
g6
F0.9971
tp9186
asI2007
(lp9187
(S'Mickey'
p9188
g3
F0.9907
tp9189
a(g1039
g50
F0.5122
tp9190
a(S'...'
p9191
g10
F0.8309
tp9192
asI2010
(lp9193
(S'Mickey'
p9194
g3
F0.9896
tp9195
a(S'an(d'
p9196
g191
F0.8706
tp9197
a(g193
g6
F0.9751
tp9198
a(S'Donald'
p9199
g3
F0.9993
tp9200
a(g5
g6
F0.9953
tp9201
asI3272
(lp9202
(S'uhuh'
p9203
g75
F0.9667
tp9204
a(g17
g6
F0.9796
tp9205
a(g9
g10
F0.972
tp9206
a(g20
g6
F0.9847
tp9207
a(g5
g6
F0.9962
tp9208
asI2013
(lp9209
(S'who'
p9210
g86
F0.9878
tp9211
a(S'else'
p9212
g81
F0.8572
tp9213
a(g5
g6
F0.9977
tp9214
asI2017
(lp9215
(S'Minnie'
p9216
g3
F0.9926
tp9217
a(S'Mouse'
p9218
g3
F0.7826
tp9219
a(g5
g6
F0.9972
tp9220
asI2020
(lp9221
(S'who'
p9222
g86
F0.9878
tp9223
a(S'else'
p9224
g81
F0.8572
tp9225
a(g5
g6
F0.9977
tp9226
asI2024
(lp9227
(S'Donald'
p9228
g3
F0.9965
tp9229
a(g5
g6
F0.9946
tp9230
asI2027
(lp9231
(S'who'
p9232
g86
F0.9566
tp9233
a(g43
g6
F0.9951
tp9234
asI2031
(lp9235
(S'Goofy'
p9236
g66
F0.8344
tp9237
a(g5
g6
F0.998
tp9238
asI2034
(lp9239
(S'Goofy'
p9240
g66
F0.8344
tp9241
a(g5
g6
F0.998
tp9242
asI2037
(lp9243
(S'yeah'
p9244
g75
F0.9988
tp9245
a(g43
g6
F0.9966
tp9246
asI2729
(lp9247
(S'Matthew'
p9248
g3
F0.9959
tp9249
a(S'sit'
p9250
g39
F0.9844
tp9251
a(S'in'
p9252
g104
F0.9022
tp9253
a(S'the'
p9254
g97
F0.999
tp9255
a(S'corner'
p9256
g32
F0.9979
tp9257
a(g5
g6
F0.9977
tp9258
asI2041
(lp9259
(S'who'
p9260
g86
F0.9878
tp9261
a(S'else'
p9262
g81
F0.902
tp9263
a(g43
g6
F0.9976
tp9264
asI2045
(lp9265
(S'Pluto'
p9266
g3
F0.9763
tp9267
a(g5
g6
F0.9953
tp9268
as.