(dp0
I2048
(lp1
(S'0'
p2
S'$'
p3
F0.9876
tp4
a(S'.'
p5
S','
p6
F0.9949
tp7
asI2050
(lp8
(S'now'
p9
S'R'
p10
F0.9942
tp11
a(S'stir'
p12
S'V'
p13
F0.9848
tp14
a(S'it'
p15
S'O'
p16
F0.9936
tp17
a(S'around'
p18
g10
F0.4465
tp19
a(g5
g6
F0.9984
tp20
asI2053
(lp21
(S'stir'
p22
g13
F0.9099
tp23
a(S'it'
p24
g16
F0.9942
tp25
a(S'around'
p26
S'P'
p27
F0.4772
tp28
a(S'(.)'
p29
S'^'
p30
F0.4444
tp31
a(g5
g6
F0.9943
tp32
asI2056
(lp33
(S'('
p34
g6
F0.9604
tp35
a(S'o)kay'
p36
S'!'
p37
F0.6539
tp38
a(g5
g6
F0.998
tp39
asI2059
(lp40
(S'now'
p41
g10
F0.9686
tp42
a(S'the'
p43
S'D'
p44
F0.9991
tp45
a(S'milk'
p46
S'N'
p47
F0.9964
tp48
a(S'goes'
p49
g13
F0.9659
tp50
a(S'in'
p51
S'T'
p52
F0.7541
tp53
a(g5
g6
F0.9951
tp54
asI2062
(lp55
(S'take'
p56
g13
F0.9952
tp57
a(S'the'
p58
g44
F0.9996
tp59
a(S'milk'
p60
g47
F0.9956
tp61
a(S'an(d'
p62
S'&'
p63
F0.9119
tp64
a(S')'
p65
g6
F0.9828
tp66
a(S'pour'
p67
g13
F0.9308
tp68
a(S'some'
p69
g44
F0.7846
tp70
a(S'in'
p71
g27
F0.7759
tp72
a(g5
g6
F0.9969
tp73
asI16
(lp74
(S'<'
p75
S'~'
p76
F0.8878
tp77
a(S'now'
p78
g10
F0.9802
tp79
a(S'>'
p80
S'E'
p81
F0.4812
tp82
a(S'['
p83
g81
F0.4959
tp84
a(g80
g81
F0.9698
tp85
a(S']'
p86
g6
F0.6899
tp87
a(g5
g6
F0.9959
tp88
asI2065
(lp89
(S'take'
p90
g13
F0.9952
tp91
a(S'the'
p92
g44
F0.9996
tp93
a(S'pitcher'
p94
g47
F0.9916
tp95
a(S'an(d'
p96
g63
F0.9353
tp97
a(g65
g6
F0.9828
tp98
a(S'pour'
p99
g13
F0.9737
tp100
a(S'it'
p101
g16
F0.9881
tp102
a(S'in'
p103
g27
F0.7138
tp104
a(g5
g6
F0.9969
tp105
asI19
(lp106
(S'okay'
p107
g37
F0.9276
tp108
a(g83
g6
F0.9883
tp109
a(g75
g76
F0.972
tp110
a(g86
g6
F0.9847
tp111
a(g5
g6
F0.9962
tp112
asI2068
(lp113
(g2
g3
F0.9876
tp114
a(g5
g6
F0.9949
tp115
asI22
(lp116
(S'Tanya'
p117
g30
F0.9948
tp118
a(S'do'
p119
g13
F0.9993
tp120
a(S'you'
p121
g16
F0.9997
tp122
a(S'wan(t'
p123
g13
F0.9987
tp124
a(g65
g6
F0.9419
tp125
a(g34
g6
F0.9507
tp126
a(S't)a'
p127
g27
F0.6091
tp128
a(S'look'
p129
g13
F0.8513
tp130
a(S'and'
p131
g63
F0.9945
tp132
a(S'see'
p133
g13
F0.9688
tp134
a(g75
g76
F0.8457
tp135
a(S'wh(at)'
p136
g16
F0.52
tp137
a(g80
S'G'
p138
F0.3172
tp139
a(S'[//]'
p140
g138
F0.2714
tp141
a(S'what'
p142
g16
F0.9966
tp143
a(S'is'
p144
g13
F0.9986
tp145
a(S'on'
p146
g27
F0.8805
tp147
a(S'here'
p148
g10
F0.9603
tp149
a(g5
g6
F0.9986
tp150
asI2073
(lp151
(S'now'
p152
g10
F0.9942
tp153
a(S'stir'
p154
g13
F0.9848
tp155
a(S'it'
p156
g16
F0.9921
tp157
a(S'around'
p158
g10
F0.4521
tp159
a(S'again'
p160
g10
F0.9965
tp161
a(S'to'
p162
g27
F0.9917
tp163
a(S'mix'
p164
g13
F0.95
tp165
a(S'it'
p166
g16
F0.9839
tp167
a(S'together'
p168
g10
F0.9394
tp169
a(S'(.)'
p170
g138
F0.3093
tp171
a(g5
g6
F0.992
tp172
asI27
(lp173
(S'I'
p174
g16
F0.9976
tp175
a(S"don't"
p176
g13
F1.0
tp177
a(S'know'
p178
g13
F0.9991
tp179
a(S'quite'
p180
g10
F0.9134
tp181
a(S'what'
p182
g16
F0.9799
tp183
a(S'we'
p184
g16
F0.9986
tp185
a(S'have'
p186
g13
F0.9997
tp187
a(S'in'
p188
g27
F0.9561
tp189
a(S'here'
p190
g10
F0.9686
tp191
a(S'and'
p192
g63
F0.9977
tp193
a(S'you'
p194
g16
F0.9995
tp195
a(S'can'
p196
g13
F0.9996
tp197
a(S'+'
p198
g63
F0.3756
tp199
a(S'...'
p200
g6
F0.7159
tp201
asI2078
(lp202
(g2
g3
F0.9876
tp203
a(g5
g6
F0.9949
tp204
asI2080
(lp205
(S'oh'
p206
g37
F0.9947
tp207
a(S'good'
p208
S'A'
p209
F0.9903
tp210
a(g5
g6
F0.9981
tp211
asI33
(lp212
(S'oh'
p213
g37
F0.9987
tp214
a(S'yeah'
p215
g37
F0.9996
tp216
a(g5
g6
F0.9975
tp217
asI36
(lp218
(S'play'
p219
g13
F0.9654
tp220
a(S'with'
p221
g27
F0.9987
tp222
a(S'her'
p223
g16
F0.788
tp224
a(S'maybe'
p225
g10
F0.9931
tp226
a(g5
g6
F0.9973
tp227
asI39
(lp228
(S'you'
p229
g16
F0.998
tp230
a(S'wan(t'
p231
g13
F0.9988
tp232
a(g65
g6
F0.9323
tp233
a(g34
g6
F0.9591
tp234
a(S't)a'
p235
g27
F0.7295
tp236
a(S'see'
p237
g13
F0.961
tp238
a(S'what'
p239
g16
F0.9551
tp240
a(g75
g76
F0.8498
tp241
a(S'game'
p242
g47
F0.7318
tp243
a(S'you'
p244
g16
F0.9955
tp245
a(S'wan(t'
p246
g13
F0.9987
tp247
a(g65
g6
F0.9419
tp248
a(g34
g6
F0.9507
tp249
a(S't)a'
p250
g27
F0.7742
tp251
a(S'play'
p252
g13
F0.8808
tp253
a(g80
g81
F0.4756
tp254
a(g83
g81
F0.5345
tp255
a(g80
g81
F0.9336
tp256
a(g86
g6
F0.6374
tp257
a(S'?'
p258
g6
F0.9948
tp259
asI2093
(lp260
(S'Mama'
p261
g47
F0.8594
tp262
a(g5
g6
F0.9983
tp263
asI46
(lp264
(g75
g76
F0.9147
tp265
a(S'could'
p266
g13
F0.9958
tp267
a(S'spread'
p268
g13
F0.9995
tp269
a(S'them'
p270
g16
F0.9838
tp271
a(S'out'
p272
g52
F0.6351
tp273
a(g80
g81
F0.4303
tp274
a(g83
g81
F0.535
tp275
a(g75
g76
F0.8293
tp276
a(g86
g6
F0.9284
tp277
a(g83
g6
F0.9615
tp278
a(g80
g81
F0.4438
tp279
a(g86
g6
F0.8376
tp280
a(S'on'
p281
g27
F0.9946
tp282
a(S'the'
p283
g44
F0.9994
tp284
a(S'floor'
p285
g47
F0.9916
tp286
a(S'and'
p287
g63
F0.9966
tp288
a(S'you'
p289
g16
F0.9995
tp290
a(S'can'
p291
g13
F0.9994
tp292
a(S'dump'
p293
g13
F0.9984
tp294
a(S'the'
p295
g44
F0.9996
tp296
a(S'whole'
p297
g209
F0.8009
tp298
a(g83
g6
F0.989
tp299
a(g75
g76
F0.9704
tp300
a(g86
g6
F0.9759
tp301
a(g5
g6
F0.9952
tp302
asI2096
(lp303
(S'zzz'
p304
g138
F0.4006
tp305
a(S'you'
p306
g16
F0.9862
tp307
a(g5
g6
F0.9995
tp308
asI52
(lp309
(g75
g76
F0.8868
tp310
a(S'bag'
p311
g47
F0.9167
tp312
a(S'out'
p313
g27
F0.6888
tp314
a(g80
g81
F0.4144
tp315
a(g83
g81
F0.5345
tp316
a(g80
g81
F0.9749
tp317
a(g86
g6
F0.7541
tp318
a(g5
g6
F0.9962
tp319
asI2101
(lp320
(S'alright'
p321
g37
F0.7728
tp322
a(S'now'
p323
g10
F0.9854
tp324
a(S'you'
p325
g16
F0.9992
tp326
a(S'can'
p327
g13
F0.9994
tp328
a(S'drink'
p329
g13
F0.9995
tp330
a(S'it'
p331
g16
F0.9836
tp332
a(g5
g6
F0.9989
tp333
asI55
(lp334
(g75
g76
F0.8939
tp335
a(S'in'
p336
g27
F0.9641
tp337
a(S'here'
p338
g10
F0.8494
tp339
a(g83
g6
F0.9936
tp340
a(g258
g6
F0.9841
tp341
a(g86
g6
F0.7796
tp342
a(g80
g81
F0.5377
tp343
a(g83
g81
F0.535
tp344
a(g75
g76
F0.7815
tp345
a(g86
g6
F0.9705
tp346
a(g258
g6
F0.9962
tp347
asI2105
(lp348
(S'drink'
p349
g13
F0.9752
tp350
a(S'it'
p351
g16
F0.9929
tp352
a(S'up'
p353
g52
F0.9804
tp354
a(S'(.)'
p355
g30
F0.3762
tp356
a(g5
g6
F0.9943
tp357
asI58
(lp358
(S'know'
p359
g13
F0.9631
tp360
a(S'what'
p361
g16
F0.9794
tp362
a(S'you'
p363
g16
F0.999
tp364
a(S'like'
p365
g13
F0.5137
tp366
a(g258
g6
F0.997
tp367
asI61
(lp368
(S'puzzles'
p369
g47
F0.9891
tp370
a(g5
g6
F0.9982
tp371
asI64
(lp372
(S"it's"
p373
S'L'
p374
F0.9957
tp375
a(S'got'
p376
g13
F0.9936
tp377
a(S'any'
p378
g44
F0.997
tp379
a(S'puzzles'
p380
g47
F0.9981
tp381
a(S'huh'
p382
g37
F0.943
tp383
a(g258
g6
F0.9974
tp384
asI2113
(lp385
(S'you'
p386
g16
F0.9968
tp387
a(S'gonna'
p388
g13
F0.9997
tp389
a(S'give'
p390
g13
F0.9999
tp391
a(S'yours'
p392
g16
F0.939
tp393
a(S'to'
p394
g27
F0.9974
tp395
a(S'the'
p396
g44
F0.9991
tp397
a(S'animals'
p398
g47
F0.9867
tp399
a(g258
g6
F0.9983
tp400
asI67
(lp401
(S"there's"
p402
g374
F0.8076
tp403
a(S'a'
p404
g44
F0.9977
tp405
a(S'puzzle'
p406
g47
F0.9975
tp407
a(S'in'
p408
g27
F0.9926
tp409
a(S'here'
p410
g10
F0.9437
tp411
a(g174
g16
F0.9997
tp412
a(S'think'
p413
g13
F0.9989
tp414
a(g5
g6
F0.9975
tp415
asI2118
(lp416
(S'zzz'
p417
g37
F0.3756
tp418
a(g5
g6
F0.9972
tp419
asI72
(lp420
(S'mm'
p421
g37
F0.5842
tp422
a(g5
g6
F0.9932
tp423
asI2122
(lp424
(S'zzz'
p425
g138
F0.409
tp426
a(g83
g6
F0.9395
tp427
a(g80
g81
F0.3811
tp428
a(g86
g6
F0.7604
tp429
a(g5
g6
F0.9962
tp430
asI76
(lp431
(S'what'
p432
g16
F0.9962
tp433
a(S'is'
p434
g13
F0.9994
tp435
a(S'that'
p436
g16
F0.8934
tp437
a(S'(.)'
p438
g81
F0.2726
tp439
a(g258
g6
F0.9747
tp440
asI2126
(lp441
(g75
g76
F0.9121
tp442
a(S"that's>"
p443
g374
F0.6673
tp444
a(g83
g6
F0.9665
tp445
a(g80
g81
F0.5453
tp446
a(g86
g6
F0.7789
tp447
a(g5
g6
F0.995
tp448
asI80
(lp449
(S'tell'
p450
g13
F0.9902
tp451
a(S'her'
p452
g16
F0.8404
tp453
a(S'what'
p454
g16
F0.9539
tp455
a(S"you're"
p456
g374
F0.9805
tp457
a(S'gon(t)a'
p458
g13
F0.9457
tp459
a(S'@d'
p460
S'@'
p461
F0.9952
tp462
a(S'have'
p463
g13
F0.9927
tp464
a(S'on'
p465
g27
F0.9783
tp466
a(S'Sunday'
p467
g30
F0.9749
tp468
a(S"you're"
p469
g374
F0.9881
tp470
a(S'gon(t)a'
p471
g13
F0.9457
tp472
a(S'@d'
p473
g461
F0.9952
tp474
a(S'have'
p475
g13
F0.9985
tp476
a(g404
g44
F0.9989
tp477
a(S'birthday'
p478
g47
F0.9979
tp479
a(S'party'
p480
g47
F0.9896
tp481
a(S'an(d'
p482
g63
F0.9054
tp483
a(g65
g6
F0.9811
tp484
a(S'tell'
p485
g13
F0.9946
tp486
a(S'her'
p487
g16
F0.896
tp488
a(S'where'
p489
g10
F0.9861
tp490
a(S"you're"
p491
g374
F0.983
tp492
a(S'gonna'
p493
g13
F0.9904
tp494
a(g75
g76
F0.8425
tp495
a(S'have'
p496
g13
F0.9995
tp497
a(S'it'
p498
g16
F0.9941
tp499
a(g80
g81
F0.4648
tp500
a(g83
g81
F0.5345
tp501
a(g80
g81
F0.9453
tp502
a(g86
g6
F0.7862
tp503
a(g5
g6
F0.9958
tp504
asI2129
(lp505
(g75
g76
F0.94
tp506
a(S'sweet'
p507
g209
F0.9943
tp508
a(S'huh'
p509
g37
F0.7849
tp510
a(g80
g81
F0.5799
tp511
a(g83
g81
F0.5345
tp512
a(g80
g81
F0.9749
tp513
a(g86
g6
F0.7541
tp514
a(g5
g6
F0.9962
tp515
asI2132
(lp516
(S'xxx'
p517
g81
F0.8981
tp518
a(g83
g6
F0.6622
tp519
a(g75
g76
F0.9843
tp520
a(g86
g6
F0.952
tp521
a(S'xxx'
p522
g81
F0.5406
tp523
a(g5
g6
F0.9527
tp524
asI2133
(lp525
(S"she's"
p526
g374
F0.9834
tp527
a(S'usin(g'
p528
g13
F0.8172
tp529
a(g65
g6
F0.988
tp530
a(S'the'
p531
g44
F0.9982
tp532
a(S'animals'
p533
g47
F0.9954
tp534
a(g5
g6
F0.9981
tp535
asI2137
(lp536
(S'zzz'
p537
g138
F0.409
tp538
a(g83
g6
F0.9395
tp539
a(g80
g81
F0.3811
tp540
a(g86
g6
F0.7604
tp541
a(g5
g6
F0.9962
tp542
asI90
(lp543
(S'zzz['
p544
g138
F0.4306
tp545
a(g75
g76
F0.9386
tp546
a(g86
g6
F0.9799
tp547
a(g5
g6
F0.9963
tp548
asI94
(lp549
(S'oh'
p550
g37
F0.9941
tp551
a(g83
g6
F0.9741
tp552
a(g80
g81
F0.3811
tp553
a(g86
g6
F0.7604
tp554
a(g5
g6
F0.9962
tp555
asI98
(lp556
(g75
g76
F0.9181
tp557
a(S"McDonald's>"
p558
g30
F0.5995
tp559
a(g83
g6
F0.982
tp560
a(g75
g76
F0.9566
tp561
a(g86
g6
F0.9284
tp562
a(g83
g6
F0.9615
tp563
a(g80
g81
F0.4438
tp564
a(g86
g81
F0.6649
tp565
a(g83
g6
F0.5504
tp566
a(g75
g76
F0.939
tp567
a(g86
g6
F0.985
tp568
a(g5
g6
F0.9936
tp569
asI101
(lp570
(S"McDonald's"
p571
g47
F0.6011
tp572
a(g37
g6
F0.9987
tp573
asI2150
(lp574
(S'did'
p575
g13
F0.9935
tp576
a(S'they'
p577
g16
F0.9954
tp578
a(S'have'
p579
g13
F0.9995
tp580
a(S'enough'
p581
g47
F0.373
tp582
a(S'(.)'
p583
g81
F0.3219
tp584
a(g258
g6
F0.9618
tp585
asI104
(lp586
(g75
g76
F0.9768
tp587
a(S'oh'
p588
g37
F0.9966
tp589
a(g83
g6
F0.9424
tp590
a(g37
g6
F0.9922
tp591
a(g86
g6
F0.9853
tp592
a(S'how'
p593
g10
F0.9963
tp594
a(S'nice'
p595
g209
F0.9982
tp596
a(g80
g81
F0.5417
tp597
a(g83
g81
F0.5345
tp598
a(g80
g81
F0.949
tp599
a(g86
g6
F0.7992
tp600
a(g5
g6
F0.9936
tp601
asI2154
(lp602
(S'do'
p603
g13
F0.9945
tp604
a(S'they'
p605
g16
F0.9965
tp606
a(S'want'
p607
g13
F0.9999
tp608
a(S'some'
p609
g44
F0.9727
tp610
a(S'cold'
p611
g209
F0.9953
tp612
a(S'drink'
p613
g47
F0.9869
tp614
a(g258
g6
F0.9958
tp615
asI108
(lp616
(g75
g76
F0.9262
tp617
a(S"you're"
p618
g374
F0.9856
tp619
a(S'gonna'
p620
g13
F0.9954
tp621
a(S'have'
p622
g13
F0.9999
tp623
a(g404
g44
F0.9989
tp624
a(S'birthday'
p625
g47
F0.9979
tp626
a(S'party'
p627
g47
F0.9928
tp628
a(g80
g81
F0.5145
tp629
a(g83
g81
F0.535
tp630
a(g75
g76
F0.8293
tp631
a(g86
g6
F0.9284
tp632
a(g83
g6
F0.9615
tp633
a(g80
g81
F0.4438
tp634
a(g86
g6
F0.8377
tp635
a(S'at'
p636
g27
F0.9974
tp637
a(S"McDonald's"
p638
g30
F0.7753
tp639
a(g83
g6
F0.9855
tp640
a(g75
g76
F0.9447
tp641
a(g86
g6
F0.9829
tp642
a(g5
g6
F0.9948
tp643
asI2158
(lp644
(g2
g3
F0.9876
tp645
a(g5
g6
F0.9949
tp646
asI2160
(lp647
(S'oh'
p648
g37
F0.9965
tp649
a(S'okay'
p650
g37
F0.9442
tp651
a(S'give'
p652
g13
F0.8324
tp653
a(g34
g6
F0.9925
tp654
a(S'th)em'
p655
g16
F0.4269
tp656
a(g404
g44
F0.9925
tp657
a(S'cold'
p658
g209
F0.9913
tp659
a(S'drink'
p660
g47
F0.9422
tp661
a(S'(.)'
p662
g47
F0.3429
tp663
a(g5
g6
F0.9976
tp664
asI113
(lp665
(S'oh'
p666
g37
F0.9878
tp667
a(S'you'
p668
g16
F0.9961
tp669
a(S'wan(t'
p670
g13
F0.9987
tp671
a(g65
g6
F0.9512
tp672
a(g34
g6
F0.9507
tp673
a(S't)a'
p674
g27
F0.7742
tp675
a(S'play'
p676
g13
F0.9665
tp677
a(S'with'
p678
g27
F0.9994
tp679
a(S'the'
p680
g44
F0.9996
tp681
a(S'tea'
p682
g47
F0.9745
tp683
a(S'set'
p684
g47
F0.7942
tp685
a(S'(.)'
p686
g138
F0.276
tp687
a(g258
g6
F0.9868
tp688
asI2163
(lp689
(g2
g3
F0.9876
tp690
a(g5
g6
F0.9949
tp691
asI2165
(lp692
(S'okay'
p693
g37
F0.8974
tp694
a(S'let'
p695
g13
F0.9963
tp696
a(S'them'
p697
g16
F0.8234
tp698
a(S'drink'
p699
g13
F0.9367
tp700
a(S'that'
p701
g16
F0.8193
tp702
a(g5
g6
F0.9984
tp703
asI118
(lp704
(S'you'
p705
g16
F0.9966
tp706
a(S'see'
p707
g13
F0.9991
tp708
a(S'that'
p709
g16
F0.3831
tp710
a(g258
g6
F0.9985
tp711
asI2409
(lp712
(S'or'
p713
g63
F0.9928
tp714
a(S'we'
p715
g16
F0.9978
tp716
a(S'can'
p717
g13
F0.9998
tp718
a(S'use'
p719
g13
F0.9969
tp720
a(S'this'
p721
g44
F0.952
tp722
a(S'one'
p723
g3
F0.8747
tp724
a(g5
g6
F0.9974
tp725
asI2168
(lp726
(S'now'
p727
g10
F0.9913
tp728
a(S'you'
p729
g16
F0.9987
tp730
a(S'go'
p731
g13
F0.9938
tp732
a(S't_t'
p733
g81
F0.3435
tp734
a(S'o'
p735
g27
F0.7304
tp736
a(S'drink'
p737
g13
F0.9279
tp738
a(S'some'
p739
g44
F0.4019
tp740
a(g5
g6
F0.9977
tp741
asI121
(lp742
(g75
g76
F0.9768
tp743
a(S'oh'
p744
g37
F0.997
tp745
a(S"here's>"
p746
g10
F0.4957
tp747
a(g83
g6
F0.981
tp748
a(g75
g76
F0.9635
tp749
a(g86
g6
F0.9284
tp750
a(g83
g6
F0.9615
tp751
a(g80
g81
F0.4438
tp752
a(g86
g6
F0.8384
tp753
a(g404
g44
F0.9932
tp754
a(S'puzzle'
p755
g47
F0.9979
tp756
a(g83
g6
F0.9814
tp757
a(g80
g81
F0.4371
tp758
a(g86
g6
F0.8754
tp759
a(g5
g6
F0.996
tp760
asI2171
(lp761
(S'oh'
p762
g37
F0.9969
tp763
a(S"it's"
p764
g374
F0.9968
tp765
a(S'good'
p766
g209
F0.997
tp767
a(S'huh'
p768
g37
F0.7802
tp769
a(g258
g6
F0.998
tp770
asI126
(lp771
(S'mhm'
p772
g37
F0.9046
tp773
a(g83
g6
F0.9796
tp774
a(g75
g76
F0.972
tp775
a(g86
g6
F0.9847
tp776
a(g5
g6
F0.9962
tp777
asI129
(lp778
(S'wait'
p779
g13
F0.9752
tp780
a(S'now'
p781
g10
F0.9848
tp782
a(g5
g6
F0.9986
tp783
asI2483
(lp784
(S'zzz'
p785
g37
F0.3756
tp786
a(g5
g6
F0.9972
tp787
asI133
(lp788
(S'let'
p789
g13
F0.9975
tp790
a(S'me'
p791
g16
F0.9994
tp792
a(S'get'
p793
g13
F0.9991
tp794
a(S'the'
p795
g44
F0.9995
tp796
a(S'pieces'
p797
g47
F0.9967
tp798
a(S'out'
p799
g27
F0.8679
tp800
a(S'(.)'
p801
g30
F0.5451
tp802
a(g5
g6
F0.9938
tp803
asI136
(lp804
(S'here'
p805
g10
F0.8732
tp806
a(S'are'
p807
g13
F0.8584
tp808
a(S'two'
p809
g3
F0.7272
tp810
a(g5
g6
F0.9976
tp811
asI2185
(lp812
(g75
g76
F0.9365
tp813
a(S'some'
p814
g44
F0.8926
tp815
a(S'more'
p816
g209
F0.7231
tp817
a(S'wet'
p818
g209
F0.8906
tp819
a(g80
g81
F0.5065
tp820
a(g83
g81
F0.5345
tp821
a(g80
g81
F0.9732
tp822
a(g86
g6
F0.8062
tp823
a(g5
g6
F0.9969
tp824
asI140
(lp825
(S'oh'
p826
g37
F0.9898
tp827
a(S'Johnny'
p828
g30
F0.9974
tp829
a(S'you'
p830
g16
F0.9985
tp831
a(S'wan(t'
p832
g13
F0.9987
tp833
a(g65
g6
F0.9419
tp834
a(g34
g6
F0.9507
tp835
a(S't)a'
p836
g27
F0.606
tp837
a(S'go'
p838
g13
F0.9935
tp839
a(S'out'
p840
g52
F0.5277
tp841
a(g258
g6
F0.9975
tp842
asI143
(lp843
(S'yeah'
p844
g37
F0.9986
tp845
a(g5
g6
F0.997
tp846
asI2194
(lp847
(g75
g76
F0.8709
tp848
a(S'that'
p849
g16
F0.8245
tp850
a(S'was'
p851
g13
F0.9988
tp852
a(S'good'
p853
g209
F0.9973
tp854
a(g80
g81
F0.4598
tp855
a(g83
g81
F0.535
tp856
a(g75
g76
F0.8293
tp857
a(g86
g6
F0.9284
tp858
a(g83
g6
F0.9615
tp859
a(g80
g81
F0.4438
tp860
a(g86
g6
F0.7875
tp861
a(S'tea'
p862
g47
F0.9585
tp863
a(g258
g6
F0.9963
tp864
asI147
(lp865
(S"let's"
p866
g374
F0.9813
tp867
a(S'see'
p868
g13
F0.9958
tp869
a(S'what'
p870
g16
F0.9202
tp871
a(S'we'
p872
g16
F0.9983
tp873
a(S'got'
p874
g13
F0.9996
tp875
a(S'here'
p876
g10
F0.9181
tp877
a(g5
g6
F0.9985
tp878
asI2197
(lp879
(S'now'
p880
g10
F0.9913
tp881
a(S'you'
p882
g16
F0.9994
tp883
a(S'wan(t'
p884
g13
F0.9987
tp885
a(g65
g6
F0.9512
tp886
a(g34
g6
F0.9507
tp887
a(S't)a'
p888
g27
F0.6999
tp889
a(S'talk'
p890
g13
F0.8779
tp891
a(S'on'
p892
g27
F0.991
tp893
a(S'the'
p894
g44
F0.9995
tp895
a(S'phone'
p896
g47
F0.9981
tp897
a(S'for'
p898
g27
F0.9998
tp899
a(g404
g44
F0.9967
tp900
a(S'minute'
p901
g47
F0.9517
tp902
a(g258
g6
F0.9989
tp903
asI152
(lp904
(S'did'
p905
g13
F0.9986
tp906
a(S'you'
p907
g16
F0.9986
tp908
a(S'see'
p909
g13
F0.9995
tp910
a(S'the'
p911
g44
F0.9971
tp912
a(S'xxx'
p913
g47
F0.5945
tp914
a(g258
g6
F0.9971
tp915
asI2202
(lp916
(S'yeah'
p917
g37
F0.9986
tp918
a(g5
g6
F0.997
tp919
asI155
(lp920
(S'oh'
p921
g37
F0.9939
tp922
a(g404
g44
F0.9877
tp923
a(S'phone'
p924
g47
F0.9997
tp925
a(g5
g6
F0.9982
tp926
asI2205
(lp927
(S'okay'
p928
g37
F0.9483
tp929
a(S'well'
p930
g37
F0.6246
tp931
a(S"we'll"
p932
g374
F0.9668
tp933
a(S'put'
p934
g13
F0.9985
tp935
a(S'these'
p936
g44
F0.7393
tp937
a(g75
g76
F0.7634
tp938
a(S'in'
p939
g27
F0.9949
tp940
a(S'the'
p941
g44
F0.9913
tp942
a(g80
g138
F0.2983
tp943
a(S'[//]'
p944
g138
F0.2588
tp945
a(S'in'
p946
g27
F0.9245
tp947
a(S'to'
p948
g27
F0.9727
tp949
a(S'be'
p950
g13
F0.9993
tp951
a(S'washed'
p952
g13
F0.6447
tp953
a(g5
g6
F0.9981
tp954
asI159
(lp955
(S'do'
p956
g13
F0.9985
tp957
a(S'you'
p958
g16
F0.9989
tp959
a(S'like'
p960
g13
F0.942
tp961
a(S'to'
p962
g27
F0.9865
tp963
a(S'talk'
p964
g13
F0.9952
tp965
a(S'on'
p966
g27
F0.991
tp967
a(S'the'
p968
g44
F0.9995
tp969
a(S'phone'
p970
g47
F0.9963
tp971
a(S'(.)'
p972
g81
F0.4714
tp973
a(g258
g6
F0.9751
tp974
asI2210
(lp975
(S'wan(t'
p976
g13
F0.9557
tp977
a(g65
g6
F0.9434
tp978
a(g34
g6
F0.94
tp979
a(S't)a'
p980
g27
F0.7469
tp981
a(S'put'
p982
g13
F0.9752
tp983
a(S'these'
p984
g44
F0.5265
tp985
a(S'in'
p986
g27
F0.8908
tp987
a(S'to'
p988
g27
F0.9727
tp989
a(S'be'
p990
g13
F0.9994
tp991
a(S'washed'
p992
g13
F0.6926
tp993
a(S'(.)'
p994
g81
F0.2638
tp995
a(g258
g6
F0.9592
tp996
asI164
(lp997
(S'do'
p998
g13
F0.9985
tp999
a(S'you'
p1000
g16
F0.9996
tp1001
a(S'wan(t'
p1002
g13
F0.9987
tp1003
a(g65
g6
F0.9512
tp1004
a(g34
g6
F0.9507
tp1005
a(S't)a'
p1006
g27
F0.7029
tp1007
a(S'try'
p1008
g13
F0.9719
tp1009
a(S'that'
p1010
g16
F0.7061
tp1011
a(g258
g6
F0.9987
tp1012
asI167
(lp1013
(g2
g3
F0.9876
tp1014
a(g5
g6
F0.9949
tp1015
asI169
(lp1016
(S'okay'
p1017
g37
F0.9317
tp1018
a(S'who'
p1019
g16
F0.9795
tp1020
a(S'you'
p1021
g16
F0.9987
tp1022
a(S'gonna'
p1023
g13
F0.9996
tp1024
a(S'call'
p1025
g13
F0.9988
tp1026
a(S'up'
p1027
g52
F0.9679
tp1028
a(g258
g6
F0.9977
tp1029
asI172
(lp1030
(S'Mommy'
p1031
g47
F0.7911
tp1032
a(g5
g6
F0.9983
tp1033
asI175
(lp1034
(S'call'
p1035
g13
F0.9564
tp1036
a(S'up'
p1037
g52
F0.9367
tp1038
a(S'Daddy'
p1039
g47
F0.9147
tp1040
a(S'at'
p1041
g27
F0.9994
tp1042
a(S'work'
p1043
g47
F0.9815
tp1044
a(g5
g6
F0.998
tp1045
asI2224
(lp1046
(S'put'
p1047
g13
F0.9811
tp1048
a(S'the'
p1049
g44
F0.9995
tp1050
a(S'spoons'
p1051
g47
F0.9437
tp1052
a(S'on'
p1053
g27
F0.9882
tp1054
a(S'top'
p1055
g47
F0.5158
tp1056
a(g5
g6
F0.9987
tp1057
asI178
(lp1058
(S'can'
p1059
g13
F0.999
tp1060
a(S'you'
p1061
g16
F0.9985
tp1062
a(S'call'
p1063
g13
F0.9784
tp1064
a(S'Dad'
p1065
g47
F0.761
tp1066
a(g258
g6
F0.9984
tp1067
asI2227
(lp1068
(S'put'
p1069
g13
F0.6457
tp1070
a(g34
g6
F0.991
tp1071
a(S'th)em'
p1072
g16
F0.4875
tp1073
a(S'all'
p1074
g44
F0.5506
tp1075
a(S'together'
p1076
g10
F0.7415
tp1077
a(g5
g6
F0.9974
tp1078
asI181
(lp1079
(g2
g3
F0.9876
tp1080
a(g5
g6
F0.9949
tp1081
asI2230
(lp1082
(S'an(d'
p1083
g63
F0.8847
tp1084
a(g65
g6
F0.9904
tp1085
a(S"we'll"
p1086
g374
F0.9301
tp1087
a(S'wash'
p1088
g13
F0.8131
tp1089
a(g34
g6
F0.984
tp1090
a(S'th)em'
p1091
g16
F0.6484
tp1092
a(S'(.)'
p1093
g81
F0.281
tp1094
a(g5
g6
F0.9714
tp1095
asI183
(lp1096
(S'do'
p1097
g13
F0.9985
tp1098
a(S'you'
p1099
g16
F0.9996
tp1100
a(S'wan(t'
p1101
g13
F0.9987
tp1102
a(g65
g6
F0.9512
tp1103
a(g34
g6
F0.9507
tp1104
a(S't)a'
p1105
g27
F0.7134
tp1106
a(S'p(l)ay'
p1107
g13
F0.5658
tp1108
a(S'with'
p1109
g27
F0.9993
tp1110
a(S'the'
p1111
g44
F0.9996
tp1112
a(S'tea'
p1113
g47
F0.9745
tp1114
a(S'set'
p1115
g47
F0.7942
tp1116
a(S'(.)'
p1117
g138
F0.276
tp1118
a(g258
g6
F0.9868
tp1119
asI2233
(lp1120
(S'those'
p1121
g16
F0.6322
tp1122
a(S'are'
p1123
g13
F0.9977
tp1124
a(S'in'
p1125
g27
F0.9912
tp1126
a(S'the'
p1127
g44
F0.9982
tp1128
a(S'wash'
p1129
g47
F0.9918
tp1130
a(g5
g6
F0.9975
tp1131
asI188
(lp1132
(g75
g76
F0.9128
tp1133
a(S'would'
p1134
g13
F0.9994
tp1135
a(S'you'
p1136
g16
F0.9947
tp1137
a(S'like'
p1138
g13
F0.6571
tp1139
a(g80
g81
F0.4533
tp1140
a(g83
g81
F0.535
tp1141
a(g75
g76
F0.8293
tp1142
a(g86
g6
F0.9284
tp1143
a(g83
g6
F0.9615
tp1144
a(g80
g81
F0.4438
tp1145
a(g86
g6
F0.8218
tp1146
a(S'to'
p1147
g27
F0.995
tp1148
a(S'play'
p1149
g13
F0.9982
tp1150
a(S'with'
p1151
g27
F0.9972
tp1152
a(S'that'
p1153
g16
F0.8151
tp1154
a(g83
g6
F0.9889
tp1155
a(g80
g81
F0.4196
tp1156
a(g86
g6
F0.723
tp1157
a(g258
g6
F0.9957
tp1158
asI2239
(lp1159
(S'an(d'
p1160
g63
F0.8847
tp1161
a(g65
g6
F0.985
tp1162
a(S'put'
p1163
g13
F0.9886
tp1164
a(S'the'
p1165
g44
F0.9997
tp1166
a(S'cups'
p1167
g47
F0.9929
tp1168
a(S'all'
p1169
g10
F0.651
tp1170
a(S'together'
p1171
g10
F0.642
tp1172
a(g5
g6
F0.9981
tp1173
asI192
(lp1174
(S'no'
p1175
g37
F0.8389
tp1176
a(g83
g6
F0.9936
tp1177
a(g75
g76
F0.972
tp1178
a(g86
g6
F0.9847
tp1179
a(g5
g6
F0.9962
tp1180
asI2242
(lp1181
(S'beautiful'
p1182
g209
F0.979
tp1183
a(g83
g6
F0.9913
tp1184
a(g258
g6
F0.976
tp1185
a(g86
g6
F0.811
tp1186
a(S'(.)'
p1187
g81
F0.2781
tp1188
a(g5
g6
F0.9509
tp1189
asI196
(lp1190
(S'Mom'
p1191
g47
F0.9095
tp1192
a(g5
g6
F0.9981
tp1193
asI2246
(lp1194
(S'there'
p1195
g10
F0.665
tp1196
a(g5
g6
F0.9976
tp1197
asI199
(lp1198
(S'Mommy'
p1199
g47
F0.7586
tp1200
a(g37
g6
F0.9986
tp1201
asI202
(lp1202
(S'okay'
p1203
g37
F0.9369
tp1204
a(S'John'
p1205
g30
F0.9996
tp1206
a(g5
g6
F0.9946
tp1207
asI2253
(lp1208
(g34
g6
F0.9613
tp1209
a(S'o)kay'
p1210
g37
F0.6089
tp1211
a(g75
g76
F0.8985
tp1212
a(S'now'
p1213
g10
F0.9969
tp1214
a(S"we'll"
p1215
g374
F0.9329
tp1216
a(S'talk'
p1217
g13
F0.9963
tp1218
a(S'on'
p1219
g27
F0.991
tp1220
a(S'the'
p1221
g44
F0.9995
tp1222
a(S'phones'
p1223
g47
F0.9973
tp1224
a(g80
g81
F0.6286
tp1225
a(g83
g81
F0.5345
tp1226
a(g80
g81
F0.9607
tp1227
a(g86
g6
F0.7758
tp1228
a(g5
g6
F0.9977
tp1229
asI207
(lp1230
(S'zzz'
p1231
g138
F0.5434
tp1232
a(S'(.)'
p1233
g138
F0.453
tp1234
a(g5
g6
F0.9899
tp1235
asI2258
(lp1236
(S'xxx'
p1237
g81
F0.8981
tp1238
a(g83
g6
F0.6622
tp1239
a(g75
g76
F0.972
tp1240
a(g86
g6
F0.9847
tp1241
a(g5
g6
F0.9962
tp1242
asI211
(lp1243
(S"that's"
p1244
g374
F0.9694
tp1245
a(S'the'
p1246
g44
F0.9984
tp1247
a(S'part'
p1248
g47
F0.9987
tp1249
a(S'to'
p1250
g27
F0.9991
tp1251
a(g404
g44
F0.9951
tp1252
a(S'puzzle'
p1253
g47
F0.99
tp1254
a(S'(.)'
p1255
g81
F0.3905
tp1256
a(g5
g6
F0.9714
tp1257
asI2262
(lp1258
(S'hey'
p1259
g37
F0.9937
tp1260
a(g83
g6
F0.9761
tp1261
a(g37
g6
F0.9842
tp1262
a(g86
g6
F0.9836
tp1263
a(S'let'
p1264
g13
F0.9992
tp1265
a(S'me'
p1266
g16
F0.9998
tp1267
a(S'have'
p1268
g13
F0.9988
tp1269
a(S'this'
p1270
g44
F0.9053
tp1271
a(S'end'
p1272
g47
F0.9942
tp1273
a(g5
g6
F0.9989
tp1274
asI215
(lp1275
(S'oh'
p1276
g37
F0.9887
tp1277
a(S'let'
p1278
g13
F0.9975
tp1279
a(S'me'
p1280
g16
F0.9993
tp1281
a(S'xxx'
p1282
g81
F0.4429
tp1283
a(S'dump'
p1284
g13
F0.9501
tp1285
a(S'this'
p1286
g16
F0.7434
tp1287
a(S'an(d'
p1288
g63
F0.923
tp1289
a(g65
g6
F0.9842
tp1290
a(S'find'
p1291
g13
F0.9975
tp1292
a(S'the'
p1293
g44
F0.9996
tp1294
a(S'puzzle'
p1295
g47
F0.9851
tp1296
a(S'pieces'
p1297
g47
F0.9508
tp1298
a(S'in'
p1299
g27
F0.9969
tp1300
a(S'it'
p1301
g16
F0.9944
tp1302
a(g5
g6
F0.9988
tp1303
asI2084
(lp1304
(S'now'
p1305
g10
F0.9913
tp1306
a(S'you'
p1307
g16
F0.9991
tp1308
a(S'can'
p1309
g13
F0.9995
tp1310
a(S'drink'
p1311
g13
F0.9982
tp1312
a(S'it'
p1313
g16
F0.9814
tp1314
a(g5
g6
F0.9986
tp1315
asI221
(lp1316
(S'okay'
p1317
g37
F0.9741
tp1318
a(g5
g6
F0.9977
tp1319
asI224
(lp1320
(S'we'
p1321
g16
F0.9954
tp1322
a(S'pick'
p1323
g13
F0.9997
tp1324
a(S'up'
p1325
g52
F0.9811
tp1326
a(S'all'
p1327
g44
F0.4929
tp1328
a(S'the'
p1329
g44
F0.9991
tp1330
a(S'puzzle'
p1331
g47
F0.9851
tp1332
a(S'pieces'
p1333
g47
F0.9752
tp1334
a(S'an(d'
p1335
g63
F0.9468
tp1336
a(g65
g6
F0.9894
tp1337
a(S'you'
p1338
g16
F0.9981
tp1339
a(S'wan(t'
p1340
g13
F0.9987
tp1341
a(g65
g6
F0.9419
tp1342
a(g34
g6
F0.9507
tp1343
a(S't)a'
p1344
g27
F0.3021
tp1345
a(S'do'
p1346
g13
F0.9977
tp1347
a(S'that'
p1348
g44
F0.7416
tp1349
a(S'one'
p1350
g3
F0.9286
tp1351
a(S'okay'
p1352
g37
F0.5263
tp1353
a(S'(.)'
p1354
g30
F0.4731
tp1355
a(g258
g6
F0.9929
tp1356
asI2275
(lp1357
(S'first'
p1358
g209
F0.7907
tp1359
a(g83
g6
F0.9899
tp1360
a(g75
g76
F0.9843
tp1361
a(g86
g6
F0.9916
tp1362
a(S'you'
p1363
g16
F0.9918
tp1364
a(S'an(d'
p1365
g63
F0.8519
tp1366
a(g65
g6
F0.9766
tp1367
a(S'Johnny'
p1368
g30
F0.9995
tp1369
a(S'wan(t'
p1370
g13
F0.9741
tp1371
a(g65
g6
F0.9419
tp1372
a(g34
g6
F0.9507
tp1373
a(S't)a'
p1374
g27
F0.6999
tp1375
a(S'talk'
p1376
g13
F0.9769
tp1377
a(g404
g44
F0.9955
tp1378
a(S'second'
p1379
g209
F0.9153
tp1380
a(S'an(d'
p1381
g63
F0.8927
tp1382
a(g65
g6
F0.9899
tp1383
a(S'then'
p1384
g10
F0.9537
tp1385
a(S'me'
p1386
g16
F0.9984
tp1387
a(S'an(d'
p1388
g63
F0.8474
tp1389
a(g65
g6
F0.9812
tp1390
a(S'you'
p1391
g16
F0.9671
tp1392
a(g258
g6
F0.9989
tp1393
asI231
(lp1394
(S'okay'
p1395
g37
F0.9741
tp1396
a(g5
g6
F0.9977
tp1397
asI2281
(lp1398
(g2
g3
F0.9876
tp1399
a(g5
g6
F0.9949
tp1400
asI234
(lp1401
(S'pick'
p1402
g13
F0.9936
tp1403
a(S'up'
p1404
g52
F0.9655
tp1405
a(S'all'
p1406
g44
F0.5163
tp1407
a(S'the'
p1408
g44
F0.999
tp1409
a(S'puzzle'
p1410
g47
F0.9812
tp1411
a(S'pieces'
p1412
g47
F0.9904
tp1413
a(g5
g6
F0.9984
tp1414
asI2087
(lp1415
(S"I'm"
p1416
g374
F0.9951
tp1417
a(S'gonna'
p1418
g13
F0.9948
tp1419
a(S'put'
p1420
g13
F0.9994
tp1421
a(S'my'
p1422
g44
F0.9977
tp1423
a(S'sugar'
p1424
g47
F0.9986
tp1425
a(S'an(d'
p1426
g63
F0.8962
tp1427
a(g65
g6
F0.9796
tp1428
a(S'milk'
p1429
g47
F0.9674
tp1430
a(g198
g138
F0.4074
tp1431
a(S'...'
p1432
g76
F0.706
tp1433
asI238
(lp1434
(S'zzz'
p1435
g37
F0.3756
tp1436
a(g5
g6
F0.9972
tp1437
asI2287
(lp1438
(S'alright'
p1439
g37
F0.8709
tp1440
a(S'ring'
p1441
g13
F0.7982
tp1442
a(S'the'
p1443
g44
F0.9991
tp1444
a(S'phone'
p1445
g47
F0.9997
tp1446
a(g5
g6
F0.9982
tp1447
asI242
(lp1448
(S'Mama'
p1449
g47
F0.815
tp1450
a(g37
g6
F0.9986
tp1451
asI245
(lp1452
(S'yeah'
p1453
g37
F0.9986
tp1454
a(g5
g6
F0.997
tp1455
asI2295
(lp1456
(g75
g76
F0.9001
tp1457
a(S'you'
p1458
g16
F0.9967
tp1459
a(S'go'
p1460
g13
F0.9938
tp1461
a(S't_t'
p1462
g81
F0.3435
tp1463
a(g735
g27
F0.3607
tp1464
a(g80
g138
F0.387
tp1465
a(S'[//]'
p1466
g138
F0.2659
tp1467
a(S'someone'
p1468
g47
F0.9623
tp1469
a(S'go'
p1470
g13
F0.9839
tp1471
a(S't_t'
p1472
g81
F0.3248
tp1473
a(g735
g27
F0.6921
tp1474
a(S'answer'
p1475
g13
F0.9054
tp1476
a(S'it'
p1477
g16
F0.9772
tp1478
a(S'hello'
p1479
g37
F0.8768
tp1480
a(g5
g6
F0.9977
tp1481
asI250
(lp1482
(S'Mommy'
p1483
g47
F0.7586
tp1484
a(g37
g6
F0.9986
tp1485
asI253
(lp1486
(S'try'
p1487
g13
F0.9822
tp1488
a(S'that'
p1489
g16
F0.5554
tp1490
a(S'(.)'
p1491
g30
F0.2076
tp1492
a(g5
g6
F0.9942
tp1493
asI257
(lp1494
(S'pick'
p1495
g13
F0.7512
tp1496
a(g34
g6
F0.9919
tp1497
a(S'th)em'
p1498
g16
F0.4875
tp1499
a(S'all'
p1500
g44
F0.68
tp1501
a(S'up'
p1502
g52
F0.6023
tp1503
a(g5
g6
F0.9974
tp1504
asI260
(lp1505
(S'can'
p1506
g13
F0.999
tp1507
a(S'you'
p1508
g16
F0.9986
tp1509
a(S'pick'
p1510
g13
F0.9996
tp1511
a(S'all'
p1512
g44
F0.4999
tp1513
a(S'the'
p1514
g44
F0.9991
tp1515
a(S'puzzle'
p1516
g47
F0.9851
tp1517
a(S'pieces'
p1518
g47
F0.8725
tp1519
a(S'out'
p1520
g27
F0.8762
tp1521
a(S'(.)'
p1522
g30
F0.3972
tp1523
a(g258
g6
F0.9944
tp1524
asI2311
(lp1525
(S'hi'
p1526
g37
F0.9908
tp1527
a(g5
g6
F0.997
tp1528
asI266
(lp1529
(S'oh'
p1530
g37
F0.9941
tp1531
a(g83
g6
F0.939
tp1532
a(g37
g6
F0.9842
tp1533
a(g86
g6
F0.9872
tp1534
a(S'just'
p1535
g10
F0.9977
tp1536
a(g404
g44
F0.9902
tp1537
a(S'moment'
p1538
g47
F0.9957
tp1539
a(g5
g6
F0.9984
tp1540
asI269
(lp1541
(S'zzz'
p1542
g37
F0.3756
tp1543
a(g5
g6
F0.9972
tp1544
asI273
(lp1545
(g174
g16
F0.9983
tp1546
a(S'was'
p1547
g13
F0.9999
tp1548
a(S'wishin(g'
p1549
g13
F0.7538
tp1550
a(g65
g6
F0.9931
tp1551
a(S'[///]'
p1552
g6
F0.3237
tp1553
a(S'see'
p1554
g13
F0.9774
tp1555
a(S'what'
p1556
g16
F0.9099
tp1557
a(g174
g16
F0.9995
tp1558
a(S'was'
p1559
g13
F0.9999
tp1560
a(S'plannin(g'
p1561
g13
F0.6485
tp1562
a(g65
g6
F0.9898
tp1563
a(S'on'
p1564
g27
F0.9804
tp1565
a(S'that'
p1566
g16
F0.6318
tp1567
a(S'(.)'
p1568
g138
F0.315
tp1569
a(S'my'
p1570
g44
F0.9941
tp1571
a(S'husband'
p1572
g47
F0.9929
tp1573
a(S"wasn't"
p1574
g13
F0.963
tp1575
a(S'supposed'
p1576
g209
F0.9609
tp1577
a(S'to'
p1578
g27
F0.9979
tp1579
a(S'be'
p1580
g13
F0.9989
tp1581
a(S'workin(g'
p1582
g13
F0.8656
tp1583
a(g65
g6
F0.995
tp1584
a(S'like'
p1585
g27
F0.8388
tp1586
a(S'this'
p1587
g44
F0.93
tp1588
a(S'afternoon'
p1589
g47
F0.999
tp1590
a(g5
g6
F0.9981
tp1591
asI2322
(lp1592
(g75
g76
F0.9409
tp1593
a(S'Papa'
p1594
g30
F0.9748
tp1595
a(g80
g30
F0.3082
tp1596
a(g83
g6
F0.9714
tp1597
a(g75
g76
F0.948
tp1598
a(g86
g6
F0.9803
tp1599
a(g5
g6
F0.9959
tp1600
asI2325
(lp1601
(S'alright'
p1602
g37
F0.9161
tp1603
a(S'Papa'
p1604
g30
F0.9684
tp1605
a(S'you'
p1606
g16
F0.9972
tp1607
a(S'make'
p1608
g13
F0.9972
tp1609
a(S'pretend'
p1610
g13
F0.9762
tp1611
a(S"you're"
p1612
g374
F0.9728
tp1613
a(S'talkin(g'
p1614
g13
F0.8174
tp1615
a(g65
g6
F0.993
tp1616
a(S'to'
p1617
g27
F0.9872
tp1618
a(S'Papa'
p1619
g30
F0.9883
tp1620
a(S'then'
p1621
g10
F0.9831
tp1622
a(g5
g6
F0.9944
tp1623
asI281
(lp1624
(S'usually'
p1625
g10
F0.9821
tp1626
a(S'his'
p1627
g44
F0.9978
tp1628
a(S'job'
p1629
g47
F0.992
tp1630
a(S"he'll"
p1631
g374
F0.9175
tp1632
a(S'get'
p1633
g13
F0.9999
tp1634
a(S'out'
p1635
g52
F0.8714
tp1636
a(S'like'
p1637
g27
F0.8491
tp1638
a(S'about'
p1639
g27
F0.9174
tp1640
a(S'one'
p1641
g3
F0.9698
tp1642
a(S'of'
p1643
g27
F0.9994
tp1644
a(S'the'
p1645
g44
F0.9992
tp1646
a(S'clock'
p1647
g47
F0.998
tp1648
a(g5
g6
F0.9987
tp1649
asI2331
(lp1650
(S'hi'
p1651
g37
F0.9538
tp1652
a(S'Papa'
p1653
g30
F0.9875
tp1654
a(S'what'
p1655
g16
F0.9795
tp1656
a(S'are'
p1657
g13
F0.9974
tp1658
a(S'you'
p1659
g16
F0.9994
tp1660
a(S'doin(g'
p1661
g13
F0.9974
tp1662
a(g65
g6
F0.9948
tp1663
a(S'you'
p1664
g16
F0.997
tp1665
a(S'have_to'
p1666
g13
F0.9995
tp1667
a(S'do'
p1668
g13
F0.9999
tp1669
a(S'it'
p1670
g16
F0.9727
tp1671
a(S'you'
p1672
g16
F0.9954
tp1673
a(g75
g76
F0.7527
tp1674
a(S'do'
p1675
g13
F0.9994
tp1676
a(S'it'
p1677
g16
F0.9966
tp1678
a(g80
g81
F0.4648
tp1679
a(g83
g81
F0.5345
tp1680
a(g80
g81
F0.9336
tp1681
a(g86
g6
F0.7976
tp1682
a(g5
g6
F0.9948
tp1683
asI286
(lp1684
(S'mhm'
p1685
g37
F0.9761
tp1686
a(g5
g6
F0.9962
tp1687
asI289
(lp1688
(S'it'
p1689
g16
F0.9919
tp1690
a(S'ended'
p1691
g13
F0.9999
tp1692
a(S'up'
p1693
g52
F0.9639
tp1694
a(S'he'
p1695
g16
F0.9974
tp1696
a(S'had'
p1697
g13
F0.9998
tp1698
a(S'to'
p1699
g27
F0.9862
tp1700
a(S'work'
p1701
g13
F0.8593
tp1702
a(S'because'
p1703
g27
F0.998
tp1704
a(S'they'
p1705
g16
F0.996
tp1706
a(S'have_to'
p1707
g13
F0.9996
tp1708
a(S'do'
p1709
g13
F0.9983
tp1710
a(S'inspection'
p1711
g47
F0.98
tp1712
a(S'and'
p1713
g63
F0.9986
tp1714
a(S'everything'
p1715
g47
F0.9827
tp1716
a(g75
g76
F0.6659
tp1717
a(S'so'
p1718
g10
F0.5372
tp1719
a(g80
g81
F0.4188
tp1720
a(g83
g81
F0.535
tp1721
a(g75
g76
F0.8293
tp1722
a(g86
g6
F0.9284
tp1723
a(g83
g6
F0.9615
tp1724
a(g80
g81
F0.4438
tp1725
a(g86
g6
F0.9092
tp1726
a(S'it'
p1727
g16
F0.9911
tp1728
a(S'happened'
p1729
g13
F0.9998
tp1730
a(S'that'
p1731
g27
F0.8566
tp1732
a(S'he'
p1733
g16
F0.9985
tp1734
a(S'would'
p1735
g13
F0.9995
tp1736
a(S'work'
p1737
g13
F0.5442
tp1738
a(g34
g6
F0.9885
tp1739
a(S'be)cause'
p1740
g27
F0.9964
tp1741
a(g174
g16
F0.9996
tp1742
a(S'figured'
p1743
g13
F0.9998
tp1744
a(S'he'
p1745
g16
F0.998
tp1746
a(S'could'
p1747
g13
F0.9997
tp1748
a(S'take'
p1749
g13
F0.9909
tp1750
a(S'care'
p1751
g47
F0.8957
tp1752
a(S'of'
p1753
g27
F0.9981
tp1754
a(S'them'
p1755
g16
F0.9491
tp1756
a(g83
g6
F0.9856
tp1757
a(g80
g81
F0.4438
tp1758
a(g86
g6
F0.7961
tp1759
a(g5
g6
F0.996
tp1760
asI2340
(lp1761
(S'no'
p1762
g37
F0.9704
tp1763
a(g5
g6
F0.9989
tp1764
asI2525
(lp1765
(S'can'
p1766
g13
F0.9938
tp1767
a(g174
g16
F0.999
tp1768
a(S'speak'
p1769
g13
F0.9988
tp1770
a(g75
g76
F0.6687
tp1771
a(S'to'
p1772
g27
F0.9921
tp1773
a(S'Tan'
p1774
g30
F0.908
tp1775
a(g80
g81
F0.3399
tp1776
a(g83
g81
F0.5345
tp1777
a(g80
g81
F0.9532
tp1778
a(g86
g6
F0.908
tp1779
a(S'ya'
p1780
g37
F0.8607
tp1781
a(g258
g6
F0.9979
tp1782
asI2343
(lp1783
(g75
g76
F0.9769
tp1784
a(S'hi'
p1785
g37
F0.9702
tp1786
a(S'Papa'
p1787
g30
F0.9893
tp1788
a(g80
g81
F0.2996
tp1789
a(g83
g6
F0.7297
tp1790
a(S'<][>'
p1791
g81
F0.4283
tp1792
a(g86
g6
F0.8588
tp1793
a(g5
g6
F0.9962
tp1794
asI2346
(lp1795
(S'you'
p1796
g16
F0.9983
tp1797
a(S'know'
p1798
g13
F0.9988
tp1799
a(S'how'
p1800
g10
F0.9927
tp1801
a(S'to'
p1802
g27
F0.9952
tp1803
a(S'talk'
p1804
g13
F0.9996
tp1805
a(S'you'
p1806
g16
F0.9992
tp1807
a(S'talk'
p1808
g13
F0.978
tp1809
a(g5
g6
F0.9981
tp1810
asI2349
(lp1811
(S'you'
p1812
g16
F0.9963
tp1813
a(S'talk'
p1814
g13
F0.9973
tp1815
a(S'on'
p1816
g27
F0.9832
tp1817
a(S'the'
p1818
g44
F0.9995
tp1819
a(S'phone'
p1820
g47
F0.9987
tp1821
a(S'like'
p1822
g27
F0.9611
tp1823
a(S'you'
p1824
g16
F0.9997
tp1825
a(S'really'
p1826
g10
F0.9969
tp1827
a(g5
g6
F0.9974
tp1828
asI302
(lp1829
(S'oh'
p1830
g37
F0.9941
tp1831
a(g83
g6
F0.9747
tp1832
a(g75
g76
F0.972
tp1833
a(g86
g6
F0.9847
tp1834
a(g5
g6
F0.9962
tp1835
asI306
(lp1836
(g174
g16
F0.9983
tp1837
a(S'mean'
p1838
g13
F0.995
tp1839
a(S'if'
p1840
g27
F0.9916
tp1841
a(S"it's"
p1842
g374
F0.9984
tp1843
a(S'only'
p1844
g10
F0.9597
tp1845
a(S'once'
p1846
g10
F0.9844
tp1847
a(S'in'
p1848
g27
F0.9664
tp1849
a(S'awhile'
p1850
g10
F0.9339
tp1851
a(S'that'
p1852
g27
F0.9164
tp1853
a(S'you'
p1854
g16
F0.9996
tp1855
a(S'have_to'
p1856
g13
F0.9993
tp1857
a(S'meet'
p1858
g13
F0.9951
tp1859
a(S'an(d'
p1860
g63
F0.8472
tp1861
a(g65
g6
F0.987
tp1862
a(S'everything'
p1863
g47
F0.9588
tp1864
a(S'(.)'
p1865
g81
F0.2798
tp1866
a(S'he'
p1867
g16
F0.9952
tp1868
a(S'could'
p1869
g13
F0.999
tp1870
a(g34
g6
F0.9616
tp1871
a(S'h)a(ve'
p1872
g13
F0.6858
tp1873
a(g65
g6
F0.9921
tp1874
a(S'taken'
p1875
g13
F0.9926
tp1876
a(S'care'
p1877
g47
F0.7236
tp1878
a(S'of'
p1879
g27
F0.998
tp1880
a(S'him'
p1881
g16
F0.9955
tp1882
a(S'say'
p1883
g13
F0.9654
tp1884
a(g75
g76
F0.6889
tp1885
a(S'while'
p1886
g27
F0.899
tp1887
a(g174
g16
F0.9995
tp1888
a(S'could'
p1889
g13
F0.9996
tp1890
a(g80
g81
F0.452
tp1891
a(g83
g81
F0.535
tp1892
a(g75
g76
F0.8293
tp1893
a(g86
g6
F0.9284
tp1894
a(g83
g6
F0.9615
tp1895
a(g80
g81
F0.4438
tp1896
a(g86
g6
F0.7893
tp1897
a(S'do'
p1898
g13
F0.9992
tp1899
a(S'this'
p1900
g16
F0.7208
tp1901
a(S'you'
p1902
g16
F0.9996
tp1903
a(S'know'
p1904
g13
F0.9959
tp1905
a(g83
g6
F0.9861
tp1906
a(g80
g81
F0.4438
tp1907
a(g86
g6
F0.7961
tp1908
a(g5
g6
F0.996
tp1909
asI2355
(lp1910
(S'hey'
p1911
g37
F0.9937
tp1912
a(g83
g6
F0.9841
tp1913
a(g75
g76
F0.972
tp1914
a(g86
g6
F0.9661
tp1915
a(g37
g6
F0.997
tp1916
asI2358
(lp1917
(S'do'
p1918
g13
F0.9696
tp1919
a(g83
g6
F0.9809
tp1920
a(g80
g81
F0.3811
tp1921
a(g86
g6
F0.7604
tp1922
a(g5
g6
F0.9962
tp1923
asI2361
(lp1924
(S'gimme'
p1925
g374
F0.581
tp1926
a(g83
g6
F0.9689
tp1927
a(g75
g76
F0.972
tp1928
a(g86
g6
F0.9847
tp1929
a(g5
g6
F0.9962
tp1930
asI2364
(lp1931
(S'alright'
p1932
g37
F0.9793
tp1933
a(g5
g6
F0.9973
tp1934
asI318
(lp1935
(S'mhm'
p1936
g37
F0.9046
tp1937
a(g83
g6
F0.9796
tp1938
a(g75
g76
F0.972
tp1939
a(g86
g6
F0.9847
tp1940
a(g5
g6
F0.9962
tp1941
asI2368
(lp1942
(S'you'
p1943
g16
F0.9966
tp1944
a(S'take'
p1945
g13
F0.9998
tp1946
a(S'the'
p1947
g44
F0.9998
tp1948
a(S'other'
p1949
g209
F0.9973
tp1950
a(S'one'
p1951
g3
F0.9629
tp1952
a(S'Johnny'
p1953
g30
F0.999
tp1954
a(S'has'
p1955
g13
F0.9827
tp1956
a(g5
g6
F0.9978
tp1957
asI321
(lp1958
(S'right'
p1959
g37
F0.7294
tp1960
a(g5
g6
F0.9987
tp1961
asI324
(lp1962
(S'an(d'
p1963
g63
F0.8847
tp1964
a(g65
g6
F0.952
tp1965
a(g75
g76
F0.9757
tp1966
a(g174
g16
F0.9965
tp1967
a(S'really'
p1968
g10
F0.9969
tp1969
a(S"don't>"
p1970
g13
F0.9997
tp1971
a(S'[//]'
p1972
g13
F0.3624
tp1973
a(g174
g16
F0.9992
tp1974
a(S"didn't"
p1975
g13
F1.0
tp1976
a(S'feel'
p1977
g13
F0.9993
tp1978
a(S'+/'
p1979
g30
F0.2092
tp1980
a(g5
g6
F0.9902
tp1981
asI2373
(lp1982
(S'alright'
p1983
g37
F0.9736
tp1984
a(S"I'm"
p1985
g374
F0.996
tp1986
a(S'gonna'
p1987
g13
F0.9962
tp1988
a(S'call'
p1989
g13
F0.9882
tp1990
a(S'Tanya'
p1991
g30
F0.9937
tp1992
a(S'up'
p1993
g52
F0.844
tp1994
a(g5
g6
F0.9978
tp1995
asI327
(lp1996
(S'oh'
p1997
g37
F0.9969
tp1998
a(S"it's"
p1999
g374
F0.996
tp2000
a(S'o(kay'
p2001
g209
F0.71
tp2002
a(g65
g6
F0.9902
tp2003
a(g5
g6
F0.9961
tp2004
asI330
(lp2005
(S"he's"
p2006
g374
F0.9958
tp2007
a(S'not'
p2008
g10
F0.9966
tp2009
a(S'being'
p2010
g13
F0.9996
tp2011
a(S'you'
p2012
g16
F0.9997
tp2013
a(S'know'
p2014
g13
F0.9986
tp2015
a(g198
g63
F0.4259
tp2016
a(S'...'
p2017
g6
F0.6147
tp2018
asI333
(lp2019
(S'huh'
p2020
g37
F0.9936
tp2021
a(g258
g6
F0.9967
tp2022
asI336
(lp2023
(S'yeah'
p2024
g37
F0.9986
tp2025
a(g5
g6
F0.997
tp2026
asI339
(lp2027
(g75
g76
F0.9315
tp2028
a(S"he's"
p2029
g374
F0.9956
tp2030
a(S'not'
p2031
g10
F0.9966
tp2032
a(g80
g138
F0.456
tp2033
a(S'[///]'
p2034
g138
F0.2724
tp2035
a(g5
g6
F0.9917
tp2036
asI340
(lp2037
(g75
g76
F0.9001
tp2038
a(S'you'
p2039
g16
F0.9985
tp2040
a(S'know'
p2041
g13
F0.9978
tp2042
a(g80
g81
F0.5556
tp2043
a(g83
g81
F0.535
tp2044
a(g75
g76
F0.6902
tp2045
a(g86
g6
F0.9839
tp2046
a(g5
g6
F0.9962
tp2047
asI2390
(lp2048
(S'then'
p2049
g10
F0.9765
tp2050
a(g83
g6
F0.9737
tp2051
a(g75
g76
F0.9843
tp2052
a(g86
g6
F0.992
tp2053
a(S'me'
p2054
g16
F0.9924
tp2055
a(S'(.)'
p2056
g81
F0.2564
tp2057
a(g5
g6
F0.9632
tp2058
asI344
(lp2059
(g75
g76
F0.9216
tp2060
a(S"I'm>"
p2061
g374
F0.9852
tp2062
a(S'[//]'
p2063
g6
F0.2421
tp2064
a(S"I'll"
p2065
g374
F0.9906
tp2066
a(S'just'
p2067
g10
F0.9994
tp2068
a(S'let'
p2069
g13
F0.9997
tp2070
a(S'him'
p2071
g16
F0.9955
tp2072
a(S'go'
p2073
g13
F0.9971
tp2074
a(S'out'
p2075
g52
F0.5188
tp2076
a(g5
g6
F0.998
tp2077
asI2393
(lp2078
(S'then'
p2079
g10
F0.9607
tp2080
a(S'me'
p2081
g16
F0.9987
tp2082
a(g5
g6
F0.9983
tp2083
asI347
(lp2084
(S'zzz'
p2085
g37
F0.3756
tp2086
a(g5
g6
F0.9972
tp2087
asI2396
(lp2088
(S'alright'
p2089
g37
F0.7714
tp2090
a(S'here'
p2091
g10
F0.8313
tp2092
a(S'(.)'
p2093
g6
F0.2226
tp2094
a(g5
g6
F0.9962
tp2095
asI351
(lp2096
(g174
g16
F0.9976
tp2097
a(S"don't"
p2098
g13
F1.0
tp2099
a(S'know'
p2100
g13
F0.9993
tp2101
a(S'who'
p2102
g16
F0.9974
tp2103
a(S'left'
p2104
g13
F0.9987
tp2105
a(S'their'
p2106
g44
F0.903
tp2107
a(g198
g138
F0.4791
tp2108
a(S'...'
p2109
g76
F0.7147
tp2110
asI2401
(lp2111
(S'here'
p2112
g10
F0.8674
tp2113
a(g5
g6
F0.9983
tp2114
asI355
(lp2115
(g75
g76
F0.9116
tp2116
a(S"I'll"
p2117
g374
F0.9848
tp2118
a(S'let'
p2119
g13
F0.9954
tp2120
a(g80
g81
F0.5009
tp2121
a(g83
g81
F0.535
tp2122
a(g75
g76
F0.8293
tp2123
a(g86
g6
F0.9284
tp2124
a(g83
g6
F0.9615
tp2125
a(g80
g81
F0.4438
tp2126
a(g86
g6
F0.9143
tp2127
a(S'him'
p2128
g16
F0.9767
tp2129
a(S'go'
p2130
g13
F0.9979
tp2131
a(S'out'
p2132
g27
F0.4772
tp2133
a(g404
g44
F0.998
tp2134
a(S'little'
p2135
g209
F0.9709
tp2136
a(S'while'
p2137
g47
F0.6519
tp2138
a(g83
g6
F0.9884
tp2139
a(g80
g138
F0.4135
tp2140
a(g86
g6
F0.9567
tp2141
a(g5
g6
F0.9948
tp2142
asI2405
(lp2143
(S'you'
p2144
g16
F0.998
tp2145
a(S'say'
p2146
g13
F0.9931
tp2147
a(S'hello'
p2148
g37
F0.9704
tp2149
a(g5
g6
F0.9978
tp2150
asI361
(lp2151
(S'zzz'
p2152
g138
F0.409
tp2153
a(g83
g6
F0.9451
tp2154
a(g75
g76
F0.9843
tp2155
a(g86
g6
F0.9458
tp2156
a(g83
g6
F0.9615
tp2157
a(g80
g81
F0.6043
tp2158
a(g86
g6
F0.7541
tp2159
a(g5
g6
F0.9962
tp2160
asI2412
(lp2161
(S'hello'
p2162
g37
F0.9898
tp2163
a(S'Tanya'
p2164
g30
F0.9951
tp2165
a(S'(.)'
p2166
g30
F0.7783
tp2167
a(g258
g6
F0.9951
tp2168
asI365
(lp2169
(S'wait'
p2170
g13
F0.9922
tp2171
a(g404
g44
F0.9943
tp2172
a(S'minute'
p2173
g47
F0.937
tp2174
a(S"I'll"
p2175
g374
F0.9818
tp2176
a(S'come'
p2177
g13
F0.9985
tp2178
a(S'get'
p2179
g13
F0.9995
tp2180
a(S'you'
p2181
g16
F0.9993
tp2182
a(S'but'
p2183
g63
F0.977
tp2184
a(S'no'
p2185
g10
F0.8101
tp2186
a(S'more'
p2187
g209
F0.5527
tp2188
a(S'biting'
p2189
g13
F0.8904
tp2190
a(S'again'
p2191
g10
F0.9627
tp2192
a(g5
g6
F0.997
tp2193
asI2109
(lp2194
(S'take'
p2195
g13
F0.9914
tp2196
a(S'some'
p2197
g44
F0.5759
tp2198
a(g5
g6
F0.9974
tp2199
asI2418
(lp2200
(g75
g76
F0.9365
tp2201
a(S'come'
p2202
g13
F0.9941
tp2203
a(S'on'
p2204
g27
F0.8214
tp2205
a(S'talk'
p2206
g47
F0.8046
tp2207
a(g80
g81
F0.3583
tp2208
a(g83
g81
F0.5345
tp2209
a(g80
g81
F0.9732
tp2210
a(g86
g6
F0.8062
tp2211
a(g5
g6
F0.9969
tp2212
asI371
(lp2213
(S'Mommy'
p2214
g47
F0.7586
tp2215
a(g37
g6
F0.9986
tp2216
asI2421
(lp2217
(S'zzz'
p2218
g37
F0.3756
tp2219
a(g5
g6
F0.9972
tp2220
asI374
(lp2221
(S'you'
p2222
g16
F0.9963
tp2223
a(S'go'
p2224
g13
F0.9899
tp2225
a(S't_t'
p2226
g81
F0.275
tp2227
a(g735
g27
F0.8846
tp2228
a(S'learn'
p2229
g13
F0.9884
tp2230
a(S'not'
p2231
g10
F0.9979
tp2232
a(S'to'
p2233
g27
F0.9691
tp2234
a(S'do'
p2235
g13
F0.9999
tp2236
a(S'that'
p2237
g16
F0.9108
tp2238
a(g5
g6
F0.9987
tp2239
asI2425
(lp2240
(S'say'
p2241
g13
F0.9234
tp2242
a(S'+/'
p2243
g30
F0.2279
tp2244
a(g5
g6
F0.9934
tp2245
asI378
(lp2246
(S'Mama'
p2247
g47
F0.815
tp2248
a(g37
g6
F0.9986
tp2249
asI2428
(lp2250
(S'hi'
p2251
g37
F0.9908
tp2252
a(g5
g6
F0.997
tp2253
asI382
(lp2254
(S'no'
p2255
g37
F0.825
tp2256
a(S"that's"
p2257
g374
F0.9951
tp2258
a(S'what'
p2259
g16
F0.9842
tp2260
a(g174
g16
F0.9992
tp2261
a(S'wanted'
p2262
g13
F0.9987
tp2263
a(S'to'
p2264
g27
F0.9915
tp2265
a(S'try'
p2266
g13
F0.9983
tp2267
a(S'to'
p2268
g27
F0.9841
tp2269
a(S'plan'
p2270
g13
F0.9293
tp2271
a(S'on'
p2272
g27
F0.943
tp2273
a(S'doin(g'
p2274
g13
F0.4997
tp2275
a(g65
g6
F0.9936
tp2276
a(S'like'
p2277
g27
F0.5818
tp2278
a(S'if'
p2279
g27
F0.996
tp2280
a(S'you'
p2281
g16
F0.9998
tp2282
a(S'know'
p2283
g13
F0.9994
tp2284
a(S'whatever'
p2285
g44
F0.8573
tp2286
a(S'meetings'
p2287
g47
F0.9736
tp2288
a(S'you'
p2289
g16
F0.997
tp2290
a(S'do'
p2291
g13
F0.9992
tp2292
a(S'schedule'
p2293
g47
F0.9246
tp2294
a(S'is'
p2295
g13
F0.9937
tp2296
a(S'try'
p2297
g13
F0.9425
tp2298
a(S'to'
p2299
g27
F0.9921
tp2300
a(S'tell'
p2301
g13
F0.9998
tp2302
a(S'him'
p2303
g16
F0.9908
tp2304
a(S'you'
p2305
g16
F0.999
tp2306
a(S'know'
p2307
g13
F0.9997
tp2308
a(S'this'
p2309
g44
F0.93
tp2310
a(S'date'
p2311
g47
F0.9966
tp2312
a(g174
g16
F0.9921
tp2313
a(S'have'
p2314
g13
F0.9993
tp2315
a(g75
g76
F0.782
tp2316
a(S'one'
p2317
g3
F0.9509
tp2318
a(S'so'
p2319
g27
F0.8156
tp2320
a(g80
g138
F0.4386
tp2321
a(g83
g6
F0.899
tp2322
a(g80
g81
F0.4386
tp2323
a(g86
g6
F0.7961
tp2324
a(g5
g6
F0.996
tp2325
asI2431
(lp2326
(S'alright'
p2327
g37
F0.8763
tp2328
a(S'let'
p2329
g13
F0.9978
tp2330
a(S'me'
p2331
g16
F0.9994
tp2332
a(S'talk'
p2333
g13
F0.9869
tp2334
a(S'to'
p2335
g27
F0.9915
tp2336
a(S'Tanya'
p2337
g30
F0.998
tp2338
a(S'for'
p2339
g27
F0.9986
tp2340
a(g404
g44
F0.9962
tp2341
a(S'minute'
p2342
g47
F0.9751
tp2343
a(g5
g6
F0.9984
tp2344
asI2437
(lp2345
(S'oo'
p2346
g37
F0.9974
tp2347
a(g5
g6
F0.9962
tp2348
asI2440
(lp2349
(S'then'
p2350
g10
F0.9662
tp2351
a(S'you'
p2352
g16
F0.9994
tp2353
a(S'can'
p2354
g13
F0.9997
tp2355
a(S'have'
p2356
g13
F0.9999
tp2357
a(S'it'
p2358
g16
F0.9863
tp2359
a(g5
g6
F0.9986
tp2360
asI395
(lp2361
(S'mhm'
p2362
g37
F0.9046
tp2363
a(g83
g6
F0.9796
tp2364
a(g75
g76
F0.972
tp2365
a(g86
g6
F0.9847
tp2366
a(g5
g6
F0.9962
tp2367
asI2444
(lp2368
(S'wait'
p2369
g13
F0.9826
tp2370
a(S'one'
p2371
g3
F0.9429
tp2372
a(S'minute'
p2373
g47
F0.979
tp2374
a(g5
g6
F0.9985
tp2375
asI398
(lp2376
(S'just'
p2377
g10
F0.9992
tp2378
a(S'you'
p2379
g16
F0.9992
tp2380
a(S'know'
p2381
g13
F0.9985
tp2382
a(S'try'
p2383
g13
F0.9643
tp2384
a(S'to'
p2385
g27
F0.9953
tp2386
a(S'get'
p2387
g13
F0.9997
tp2388
a(S'home'
p2389
g47
F0.7644
tp2390
a(S'early'
p2391
g209
F0.606
tp2392
a(S'an(d'
p2393
g63
F0.8718
tp2394
a(g65
g6
F0.9842
tp2395
a(S'take'
p2396
g13
F0.9684
tp2397
a(S'care'
p2398
g47
F0.8957
tp2399
a(S'of'
p2400
g27
F0.998
tp2401
a(S'him'
p2402
g16
F0.984
tp2403
a(S'you'
p2404
g16
F0.999
tp2405
a(S'know'
p2406
g13
F0.9983
tp2407
a(S'just'
p2408
g10
F0.9993
tp2409
a(S'for'
p2410
g27
F0.9993
tp2411
a(S'an'
p2412
g44
F0.9936
tp2413
a(S'hou(r'
p2414
g47
F0.994
tp2415
a(g65
g6
F0.9841
tp2416
a(g5
g6
F0.9955
tp2417
asI2448
(lp2418
(S'Tanya'
p2419
g30
F0.9857
tp2420
a(S"I'm"
p2421
g374
F0.9845
tp2422
a(S'gonna'
p2423
g13
F0.9962
tp2424
a(S'call'
p2425
g13
F0.9989
tp2426
a(S'you'
p2427
g16
F0.9993
tp2428
a(S'up'
p2429
g52
F0.572
tp2430
a(S'come'
p2431
g13
F0.9747
tp2432
a(S'on'
p2433
g27
F0.6065
tp2434
a(g5
g6
F0.998
tp2435
asI405
(lp2436
(S'what'
p2437
g16
F0.9931
tp2438
a(S'does'
p2439
g13
F0.9997
tp2440
a(S'it'
p2441
g16
F0.9954
tp2442
a(S'take'
p2443
g13
F0.9995
tp2444
a(S'an'
p2445
g44
F0.9954
tp2446
a(S'hour'
p2447
g47
F0.9977
tp2448
a(S'or'
p2449
g63
F0.9902
tp2450
a(S'so'
p2451
g10
F0.8854
tp2452
a(g258
g6
F0.9963
tp2453
asI2454
(lp2454
(S'oh'
p2455
g37
F0.9907
tp2456
a(S"don't"
p2457
g13
F0.9991
tp2458
a(S'miss'
p2459
g13
F0.9998
tp2460
a(S'your'
p2461
g44
F0.9698
tp2462
a(S'important'
p2463
g209
F0.9574
tp2464
a(g75
g76
F0.8095
tp2465
a(S'phone'
p2466
g47
F0.9833
tp2467
a(S'call'
p2468
g13
F0.5277
tp2469
a(g80
g81
F0.4802
tp2470
a(g83
g81
F0.5345
tp2471
a(g80
g81
F0.9597
tp2472
a(g86
g6
F0.6916
tp2473
a(g5
g6
F0.9952
tp2474
asI410
(lp2475
(S'what'
p2476
g16
F0.9931
tp2477
a(S'do'
p2478
g13
F0.9993
tp2479
a(S'you'
p2480
g16
F0.9997
tp2481
a(S'say'
p2482
g13
F0.9857
tp2483
a(g258
g6
F0.9977
tp2484
asI2459
(lp2485
(g75
g76
F0.9365
tp2486
a(S'come'
p2487
g13
F0.9941
tp2488
a(S'on'
p2489
g27
F0.6856
tp2490
a(g80
g81
F0.302
tp2491
a(g83
g81
F0.535
tp2492
a(g75
g76
F0.6902
tp2493
a(g86
g6
F0.9839
tp2494
a(g5
g6
F0.9962
tp2495
asI413
(lp2496
(S'like'
p2497
g27
F0.8636
tp2498
a(S'an'
p2499
g44
F0.9863
tp2500
a(S'hour'
p2501
g47
F0.9963
tp2502
a(S"isn't"
p2503
g13
F0.9991
tp2504
a(S'it'
p2505
g16
F0.9925
tp2506
a(g258
g6
F0.9987
tp2507
asI2462
(lp2508
(S'zzz'
p2509
g37
F0.3756
tp2510
a(g5
g6
F0.9972
tp2511
asI416
(lp2512
(S'an'
p2513
g44
F0.9789
tp2514
a(S'hour'
p2515
g47
F0.9946
tp2516
a(S'and'
p2517
g63
F0.9991
tp2518
a(g404
g44
F0.9954
tp2519
a(S'half'
p2520
g47
F0.3842
tp2521
a(S'yeah'
p2522
g37
F0.9771
tp2523
a(g5
g6
F0.9975
tp2524
asI2466
(lp2525
(S'hi'
p2526
g37
F0.9823
tp2527
a(S'Tanya'
p2528
g30
F0.9953
tp2529
a(g258
g6
F0.9958
tp2530
asI419
(lp2531
(S'okay'
p2532
g37
F0.9276
tp2533
a(g83
g6
F0.9879
tp2534
a(g80
g81
F0.3811
tp2535
a(g86
g6
F0.7604
tp2536
a(g5
g6
F0.9962
tp2537
asI2469
(lp2538
(S'let'
p2539
g13
F0.9611
tp2540
a(S'Tanya'
p2541
g30
F0.9983
tp2542
a(S'have'
p2543
g13
F0.9993
tp2544
a(S'it'
p2545
g16
F0.9855
tp2546
a(g5
g6
F0.9989
tp2547
asI422
(lp2548
(S'yeah'
p2549
g37
F0.9951
tp2550
a(g83
g6
F0.9843
tp2551
a(g75
g76
F0.972
tp2552
a(g86
g6
F0.9847
tp2553
a(g5
g6
F0.9962
tp2554
asI425
(lp2555
(g75
g76
F0.8945
tp2556
a(S'about'
p2557
g27
F0.9895
tp2558
a(S'an'
p2559
g44
F0.9927
tp2560
a(S'hour'
p2561
g47
F0.9941
tp2562
a(S'and'
p2563
g63
F0.9991
tp2564
a(g404
g44
F0.9953
tp2565
a(S'half'
p2566
g47
F0.6359
tp2567
a(S'or'
p2568
g63
F0.9938
tp2569
a(S'something'
p2570
g47
F0.995
tp2571
a(S'yeah'
p2572
g37
F0.9711
tp2573
a(g80
g81
F0.5564
tp2574
a(g83
g81
F0.535
tp2575
a(g75
g76
F0.8293
tp2576
a(g86
g6
F0.9284
tp2577
a(g83
g6
F0.9615
tp2578
a(g80
g81
F0.4393
tp2579
a(g86
g6
F0.7578
tp2580
a(g5
g6
F0.9971
tp2581
asI2477
(lp2582
(S'what'
p2583
g16
F0.9738
tp2584
a(g83
g6
F0.9688
tp2585
a(g80
g81
F0.3811
tp2586
a(g86
g6
F0.5836
tp2587
a(g258
g6
F0.9963
tp2588
asI430
(lp2589
(g75
g76
F0.9185
tp2590
a(S"I'd"
p2591
g374
F0.9817
tp2592
a(S'like'
p2593
g13
F0.8963
tp2594
a(S'her'
p2595
g16
F0.944
tp2596
a(S'to'
p2597
g27
F0.9804
tp2598
a(S'maybe'
p2599
g10
F0.9187
tp2600
a(S'tell'
p2601
g13
F0.9968
tp2602
a(S'me'
p2603
g16
F0.9991
tp2604
a(S's(omething'
p2605
g47
F0.9675
tp2606
a(g65
g6
F0.989
tp2607
a(S'[///]'
p2608
g6
F0.4959
tp2609
a(S'maybe'
p2610
g10
F0.9803
tp2611
a(S"she'll"
p2612
g374
F0.5218
tp2613
a(S'get'
p2614
g13
F0.9997
tp2615
a(S'used'
p2616
g13
F0.8361
tp2617
a(S'to'
p2618
g27
F0.9946
tp2619
a(S'me'
p2620
g16
F0.9988
tp2621
a(S'and'
p2622
g63
F0.9905
tp2623
a(S'then'
p2624
g10
F0.9803
tp2625
a(g80
g138
F0.3522
tp2626
a(S'[/]'
p2627
g138
F0.3247
tp2628
a(g83
g6
F0.922
tp2629
a(g75
g76
F0.9704
tp2630
a(g86
g6
F0.9759
tp2631
a(g5
g6
F0.9952
tp2632
asI431
(lp2633
(S'yeah'
p2634
g37
F0.9951
tp2635
a(g83
g6
F0.9838
tp2636
a(g80
g81
F0.3811
tp2637
a(g86
g6
F0.7604
tp2638
a(g5
g6
F0.9962
tp2639
asI2480
(lp2640
(S'you'
p2641
g16
F0.9859
tp2642
a(g83
g6
F0.9955
tp2643
a(g75
g76
F0.9843
tp2644
a(g86
g6
F0.9867
tp2645
a(S'know'
p2646
g13
F0.9884
tp2647
a(S'who'
p2648
g16
F0.9782
tp2649
a(S'this'
p2650
g16
F0.9563
tp2651
a(S'is'
p2652
g13
F0.9935
tp2653
a(g258
g6
F0.9977
tp2654
asI435
(lp2655
(g75
g76
F0.9345
tp2656
a(S'say'
p2657
g13
F0.9888
tp2658
a(S'something'
p2659
g47
F0.9799
tp2660
a(g80
g81
F0.5977
tp2661
a(g83
g81
F0.535
tp2662
a(g75
g76
F0.8293
tp2663
a(g86
g6
F0.9284
tp2664
a(g83
g6
F0.9615
tp2665
a(g80
g81
F0.4438
tp2666
a(g86
g6
F0.8241
tp2667
a(S'interesting'
p2668
g13
F0.6516
tp2669
a(S'you'
p2670
g16
F0.999
tp2671
a(S'can'
p2672
g13
F0.9995
tp2673
a(S'get'
p2674
g13
F0.9988
tp2675
a(g83
g6
F0.9755
tp2676
a(g75
g76
F0.9592
tp2677
a(g86
g6
F0.9763
tp2678
a(g5
g6
F0.9971
tp2679
asI439
(lp2680
(S'right'
p2681
g37
F0.5567
tp2682
a(g83
g6
F0.9927
tp2683
a(g80
g81
F0.3811
tp2684
a(g86
g6
F0.7604
tp2685
a(g5
g6
F0.9962
tp2686
asI442
(lp2687
(g75
g76
F0.9248
tp2688
a(S'her'
p2689
g16
F0.8341
tp2690
a(S'to'
p2691
g27
F0.9771
tp2692
a(g80
g81
F0.3678
tp2693
a(g83
g81
F0.535
tp2694
a(g75
g76
F0.8293
tp2695
a(g86
g6
F0.9284
tp2696
a(g83
g6
F0.9615
tp2697
a(g80
g81
F0.4438
tp2698
a(g86
g6
F0.7917
tp2699
a(S'say'
p2700
g13
F0.983
tp2701
a(S'[/]'
p2702
g30
F0.267
tp2703
a(g83
g6
F0.9774
tp2704
a(g75
g76
F0.9531
tp2705
a(g86
g6
F0.9834
tp2706
a(g5
g6
F0.9972
tp2707
asI2491
(lp2708
(S'zzz'
p2709
g37
F0.3756
tp2710
a(g5
g6
F0.9972
tp2711
asI445
(lp2712
(S'yeah'
p2713
g37
F0.9986
tp2714
a(g5
g6
F0.997
tp2715
asI2495
(lp2716
(S'this'
p2717
g16
F0.9526
tp2718
a(S'is'
p2719
g13
F0.9912
tp2720
a(S'Mom'
p2721
g47
F0.8995
tp2722
a(g5
g6
F0.9984
tp2723
asI448
(lp2724
(S'maybe'
p2725
g10
F0.9127
tp2726
a(g404
g44
F0.9955
tp2727
a(S'memory'
p2728
g47
F0.9953
tp2729
a(g404
g44
F0.9832
tp2730
a(S'special'
p2731
g209
F0.9923
tp2732
a(S'time'
p2733
g47
F0.9989
tp2734
a(g75
g76
F0.7468
tp2735
a(S'or'
p2736
g63
F0.995
tp2737
a(S'something'
p2738
g47
F0.9957
tp2739
a(g80
g81
F0.5703
tp2740
a(g83
g81
F0.5345
tp2741
a(g80
g81
F0.9607
tp2742
a(g86
g6
F0.7758
tp2743
a(g5
g6
F0.9977
tp2744
asI2498
(lp2745
(S'alright'
p2746
g37
F0.866
tp2747
a(S'come'
p2748
g13
F0.9897
tp2749
a(S'on'
p2750
g27
F0.8444
tp2751
a(S'pick'
p2752
g13
F0.894
tp2753
a(S'the'
p2754
g44
F0.9995
tp2755
a(S'phone'
p2756
g47
F0.9987
tp2757
a(S'up'
p2758
g52
F0.552
tp2759
a(g5
g6
F0.998
tp2760
asI453
(lp2761
(S'right'
p2762
g37
F0.5567
tp2763
a(g83
g6
F0.993
tp2764
a(g75
g76
F0.972
tp2765
a(g86
g6
F0.9847
tp2766
a(g5
g6
F0.9962
tp2767
asI2504
(lp2768
(S'pick'
p2769
g13
F0.9949
tp2770
a(S'it'
p2771
g16
F0.9934
tp2772
a(S'up'
p2773
g52
F0.9853
tp2774
a(g37
g6
F0.9979
tp2775
asI457
(lp2776
(S'okay'
p2777
g37
F0.8784
tp2778
a(S'Johnny'
p2779
g30
F0.9994
tp2780
a(S"it's"
p2781
g374
F0.9978
tp2782
a(S'not'
p2783
g10
F0.9991
tp2784
a(S'okay'
p2785
g209
F0.6025
tp2786
a(S'to'
p2787
g27
F0.997
tp2788
a(S'bite'
p2789
g13
F0.9883
tp2790
a(g174
g16
F0.9992
tp2791
a(S"don't"
p2792
g13
F1.0
tp2793
a(S'want'
p2794
g13
F1.0
tp2795
a(S'you'
p2796
g16
F0.9989
tp2797
a(S'to'
p2798
g27
F0.8974
tp2799
a(S'do'
p2800
g13
F0.9999
tp2801
a(S'that'
p2802
g16
F0.8596
tp2803
a(S'again'
p2804
g10
F0.9954
tp2805
a(S'okay'
p2806
g37
F0.5305
tp2807
a(g258
g6
F0.9976
tp2808
asI2507
(lp2809
(S'pick'
p2810
g13
F0.9949
tp2811
a(S'it'
p2812
g16
F0.9928
tp2813
a(S'up'
p2814
g52
F0.9804
tp2815
a(S'(.)'
p2816
g30
F0.3167
tp2817
a(g37
g6
F0.989
tp2818
asI2510
(lp2819
(S'pick'
p2820
g13
F0.9949
tp2821
a(S'it'
p2822
g16
F0.9928
tp2823
a(S'up'
p2824
g52
F0.9298
tp2825
a(S'you'
p2826
g16
F0.998
tp2827
a(S'go'
p2828
g13
F0.992
tp2829
a(S't_t'
p2830
g81
F0.3248
tp2831
a(g735
g27
F0.7075
tp2832
a(S'say'
p2833
g13
F0.8959
tp2834
a(S'hello'
p2835
g37
F0.9862
tp2836
a(S'(.)'
p2837
g30
F0.3978
tp2838
a(g5
g6
F0.9942
tp2839
asI464
(lp2840
(g34
g6
F0.9422
tp2841
a(S'di)d'
p2842
g13
F0.9924
tp2843
a(S'you'
p2844
g16
F0.9992
tp2845
a(S'hear'
p2846
g13
F0.998
tp2847
a(S'me'
p2848
g16
F0.9958
tp2849
a(g258
g6
F0.998
tp2850
asI2513
(lp2851
(S'Tanya'
p2852
g30
F0.9506
tp2853
a(S'you'
p2854
g16
F0.997
tp2855
a(S'go'
p2856
g13
F0.9938
tp2857
a(S't_t'
p2858
g81
F0.3435
tp2859
a(g735
g27
F0.7075
tp2860
a(S'say'
p2861
g13
F0.8825
tp2862
a(S'hello'
p2863
g37
F0.9774
tp2864
a(g5
g6
F0.9977
tp2865
asI467
(lp2866
(S"it's"
p2867
g374
F0.9984
tp2868
a(S'not'
p2869
g10
F0.9984
tp2870
a(S'okay'
p2871
g209
F0.5342
tp2872
a(S'to'
p2873
g27
F0.9892
tp2874
a(S'do'
p2875
g13
F0.9999
tp2876
a(S'that'
p2877
g16
F0.9203
tp2878
a(g5
g6
F0.9987
tp2879
asI2516
(lp2880
(S'hello'
p2881
g37
F0.9937
tp2882
a(g258
g6
F0.9965
tp2883
asI470
(lp2884
(S'whoops_a_daisy'
p2885
g37
F0.9914
tp2886
a(g5
g6
F0.9976
tp2887
asI2519
(lp2888
(S'hi'
p2889
g37
F0.9908
tp2890
a(g5
g6
F0.997
tp2891
asI474
(lp2892
(S'whoops_a_daisy'
p2893
g37
F0.9914
tp2894
a(g5
g6
F0.9976
tp2895
asI477
(lp2896
(S'zzz'
p2897
g138
F0.409
tp2898
a(g83
g6
F0.9395
tp2899
a(g80
g81
F0.3811
tp2900
a(g86
g6
F0.7604
tp2901
a(g5
g6
F0.9962
tp2902
asI2528
(lp2903
(S'hi'
p2904
g37
F0.9698
tp2905
a(g83
g6
F0.9839
tp2906
a(g75
g76
F0.972
tp2907
a(g86
g6
F0.9847
tp2908
a(g5
g6
F0.9962
tp2909
asI481
(lp2910
(g75
g76
F0.9117
tp2911
a(S"I'm"
p2912
g374
F0.9973
tp2913
a(S'trippin(g'
p2914
g13
F0.9871
tp2915
a(g65
g6
F0.9981
tp2916
a(S'over'
p2917
g27
F0.8001
tp2918
a(S'what'
p2919
g16
F0.9949
tp2920
a(S'she'
p2921
g16
F0.9994
tp2922
a(S'did'
p2923
g13
F0.9974
tp2924
a(g80
g81
F0.5556
tp2925
a(g83
g81
F0.535
tp2926
a(g75
g76
F0.7713
tp2927
a(g86
g6
F0.9737
tp2928
a(g5
g6
F0.9952
tp2929
asI2531
(lp2930
(S'what'
p2931
g16
F0.9835
tp2932
a(S'are'
p2933
g13
F0.9978
tp2934
a(S'you'
p2935
g16
F0.9994
tp2936
a(S'doin(g'
p2937
g13
F0.9973
tp2938
a(g65
g6
F0.9877
tp2939
a(S'Tanya'
p2940
g30
F0.9984
tp2941
a(g258
g6
F0.9961
tp2942
asI486
(lp2943
(S'Michele'
p2944
g30
F0.9995
tp2945
a(S"didn't"
p2946
g13
F0.9993
tp2947
a(S'put'
p2948
g13
F0.9995
tp2949
a(S'her'
p2950
g44
F0.9825
tp2951
a(S'things'
p2952
g47
F0.9992
tp2953
a(S'back'
p2954
g10
F0.9041
tp2955
a(S'away'
p2956
g10
F0.9821
tp2957
a(S'did'
p2958
g13
F0.997
tp2959
a(S'she'
p2960
g16
F0.9938
tp2961
a(S'(.)'
p2962
g138
F0.4344
tp2963
a(g258
g6
F0.9898
tp2964
asI2537
(lp2965
(S'hi'
p2966
g37
F0.9908
tp2967
a(g5
g6
F0.997
tp2968
asI491
(lp2969
(S'like'
p2970
g27
F0.9455
tp2971
a(S'she'
p2972
g16
F0.9995
tp2973
a(S'was'
p2974
g13
F0.999
tp2975
a(S's(up)posed'
p2976
g209
F0.9478
tp2977
a(g83
g6
F0.9903
tp2978
a(g37
g6
F0.9901
tp2979
a(g86
g6
F0.977
tp2980
a(S'to'
p2981
g27
F0.9275
tp2982
a(g5
g6
F0.9959
tp2983
asI2541
(lp2984
(S'what'
p2985
g16
F0.9835
tp2986
a(S'are'
p2987
g13
F0.9978
tp2988
a(S'you'
p2989
g16
F0.9994
tp2990
a(S'doin(g'
p2991
g13
F0.9973
tp2992
a(g65
g6
F0.9945
tp2993
a(S'right'
p2994
g10
F0.7905
tp2995
a(S'now'
p2996
g10
F0.9916
tp2997
a(S'(.)'
p2998
g81
F0.2867
tp2999
a(g258
g6
F0.9799
tp3000
asI494
(lp3001
(S'zzz'
p3002
g37
F0.3756
tp3003
a(g5
g6
F0.9972
tp3004
asI2545
(lp3005
(S'are'
p3006
g13
F0.9964
tp3007
a(S'you'
p3008
g16
F0.9991
tp3009
a(S'keepin(g'
p3010
g13
F0.9944
tp3011
a(g65
g6
F0.9906
tp3012
a(S'busy'
p3013
g209
F0.9797
tp3014
a(g258
g6
F0.9962
tp3015
asI498
(lp3016
(g174
g16
F0.9971
tp3017
a(S'try'
p3018
g13
F0.9995
tp3019
a(S'to'
p3020
g27
F0.9885
tp3021
a(S'teach'
p3022
g13
F0.9915
tp3023
a(g34
g6
F0.9909
tp3024
a(S'th)em'
p3025
g16
F0.6528
tp3026
a(S'to'
p3027
g27
F0.9938
tp3028
a(S'pick'
p3029
g13
F0.9998
tp3030
a(S'them'
p3031
g16
F0.9831
tp3032
a(S'up'
p3033
g52
F0.9226
tp3034
a(S'but'
p3035
g63
F0.9887
tp3036
a(S'they'
p3037
g16
F0.994
tp3038
a(S"don't"
p3039
g13
F1.0
tp3040
a(g75
g76
F0.7208
tp3041
a(S'always'
p3042
g10
F0.9916
tp3043
a(S'do'
p3044
g13
F0.9998
tp3045
a(S'it'
p3046
g16
F0.9911
tp3047
a(S'huh'
p3048
g37
F0.7652
tp3049
a(g80
g81
F0.556
tp3050
a(g83
g81
F0.5345
tp3051
a(g80
g81
F0.9437
tp3052
a(g86
g6
F0.6226
tp3053
a(g258
g6
F0.9932
tp3054
asI2548
(lp3055
(S'are'
p3056
g13
F0.9964
tp3057
a(S'you'
p3058
g16
F0.9992
tp3059
a(S'having'
p3060
g13
F0.9997
tp3061
a(S'fun'
p3062
g47
F0.7495
tp3063
a(g258
g6
F0.9985
tp3064
asI2473
(lp3065
(S'Tanya'
p3066
g30
F0.9893
tp3067
a(g258
g6
F0.9956
tp3068
asI505
(lp3069
(g75
g76
F0.9768
tp3070
a(S'oh'
p3071
g37
F0.9977
tp3072
a(S"it's"
p3073
g374
F0.9957
tp3074
a(S'hard'
p3075
g209
F0.9478
tp3076
a(g80
g81
F0.4784
tp3077
a(g83
g81
F0.535
tp3078
a(g75
g76
F0.8293
tp3079
a(g86
g6
F0.9791
tp3080
a(S'yeah'
p3081
g37
F0.9959
tp3082
a(g5
g6
F0.9976
tp3083
asI2554
(lp3084
(S'what'
p3085
g16
F0.9738
tp3086
a(g83
g6
F0.9703
tp3087
a(g75
g76
F0.9843
tp3088
a(g86
g6
F0.9914
tp3089
a(S'are'
p3090
g13
F0.9988
tp3091
a(S'you'
p3092
g16
F0.9994
tp3093
a(S'doin(g'
p3094
g13
F0.9974
tp3095
a(g65
g6
F0.9845
tp3096
a(S'(.)'
p3097
g81
F0.2934
tp3098
a(g258
g6
F0.9751
tp3099
asI508
(lp3100
(S'zzz'
p3101
g37
F0.3756
tp3102
a(g5
g6
F0.9972
tp3103
asI2557
(lp3104
(S'can'
p3105
g13
F0.999
tp3106
a(S'you'
p3107
g16
F0.9986
tp3108
a(S'tell'
p3109
g13
F0.9998
tp3110
a(S'me'
p3111
g16
F0.9992
tp3112
a(S'what'
p3113
g16
F0.7184
tp3114
a(S'animals'
p3115
g47
F0.922
tp3116
a(S'you'
p3117
g16
F0.9973
tp3118
a(S'saw'
p3119
g13
F0.999
tp3120
a(S'at'
p3121
g27
F0.9985
tp3122
a(S'the'
p3123
g44
F0.9993
tp3124
a(S'zoo'
p3125
g47
F0.7994
tp3126
a(S'(.)'
p3127
g81
F0.3652
tp3128
a(g258
g6
F0.9721
tp3129
asI512
(lp3130
(S'zzz'
p3131
g37
F0.3756
tp3132
a(g5
g6
F0.9972
tp3133
asI2562
(lp3134
(S'what'
p3135
g16
F0.9923
tp3136
a(S'was'
p3137
g13
F0.9995
tp3138
a(S'it'
p3139
g16
F0.9911
tp3140
a(g258
g6
F0.999
tp3141
asI516
(lp3142
(S'they'
p3143
g16
F0.9927
tp3144
a(S'wan(t'
p3145
g13
F0.9989
tp3146
a(g65
g6
F0.9323
tp3147
a(g34
g6
F0.9591
tp3148
a(S't)a'
p3149
g27
F0.606
tp3150
a(S'go'
p3151
g13
F0.995
tp3152
a(S'out'
p3153
g27
F0.5649
tp3154
a(S'they'
p3155
g16
F0.9957
tp3156
a(S'just'
p3157
g10
F0.9998
tp3158
a(S'gone'
p3159
g13
F0.9928
tp3160
a(S'out'
p3161
g52
F0.906
tp3162
a(g5
g6
F0.9969
tp3163
asI2565
(lp3164
(S"you're"
p3165
g374
F0.9953
tp3166
a(S'not'
p3167
g10
F0.9973
tp3168
a(S'gonna'
p3169
g13
F0.9971
tp3170
a(S'say'
p3171
g13
F0.9849
tp3172
a(g258
g6
F0.9977
tp3173
asI2568
(lp3174
(S'are'
p3175
g13
F0.9964
tp3176
a(S'you'
p3177
g16
F0.9995
tp3178
a(S'goin(g'
p3179
g13
F0.9863
tp3180
a(g65
g6
F0.995
tp3181
a(S'to'
p3182
g27
F0.9872
tp3183
a(S'school'
p3184
g47
F0.597
tp3185
a(S'this'
p3186
g44
F0.9785
tp3187
a(S'year'
p3188
g47
F0.9418
tp3189
a(S'(.)'
p3190
g81
F0.3304
tp3191
a(g258
g6
F0.9751
tp3192
asI521
(lp3193
(S'yep'
p3194
g37
F0.9972
tp3195
a(g5
g6
F0.9971
tp3196
asI524
(lp3197
(g75
g76
F0.9307
tp3198
a(S'they'
p3199
g16
F0.9862
tp3200
a(S'get'
p3201
g13
F0.9993
tp3202
a(g80
g81
F0.2298
tp3203
a(S'[//]'
p3204
g81
F0.5822
tp3205
a(g174
g16
F0.9921
tp3206
a(S'clean'
p3207
g13
F0.9839
tp3208
a(S'my'
p3209
g44
F0.9979
tp3210
a(S'closet'
p3211
g47
F0.9914
tp3212
a(S'every'
p3213
g44
F0.4448
tp3214
a(S'once'
p3215
g10
F0.9183
tp3216
a(S'in'
p3217
g27
F0.9664
tp3218
a(S'awhile'
p3219
g10
F0.9717
tp3220
a(S'then'
p3221
g10
F0.9733
tp3222
a(S'they'
p3223
g16
F0.9922
tp3224
a(S'get'
p3225
g13
F1.0
tp3226
a(S'it'
p3227
g16
F0.9979
tp3228
a(S'torn'
p3229
g13
F0.9564
tp3230
a(S'apart'
p3231
g10
F0.5658
tp3232
a(S'again'
p3233
g10
F0.9913
tp3234
a(g5
g6
F0.9956
tp3235
asI2576
(lp3236
(S'have'
p3237
g13
F0.9991
tp3238
a(S'you'
p3239
g16
F0.9994
tp3240
a(S'been'
p3241
g13
F0.9978
tp3242
a(S'goin(g'
p3243
g13
F0.9617
tp3244
a(g65
g6
F0.9938
tp3245
a(S'to'
p3246
g27
F0.9982
tp3247
a(S'the'
p3248
g44
F0.999
tp3249
a(S'beach'
p3250
g47
F0.9254
tp3251
a(g404
g44
F0.9684
tp3252
a(S'lot'
p3253
g47
F0.8897
tp3254
a(g258
g6
F0.998
tp3255
asI532
(lp3256
(g75
g76
F0.9768
tp3257
a(S'oh'
p3258
g37
F0.9986
tp3259
a(S'yeah'
p3260
g37
F0.9984
tp3261
a(g80
g81
F0.5827
tp3262
a(g83
g81
F0.5345
tp3263
a(g80
g81
F0.9749
tp3264
a(g86
g6
F0.7541
tp3265
a(g5
g6
F0.9962
tp3266
asI2581
(lp3267
(S'what'
p3268
g16
F0.9798
tp3269
a(S'else'
p3270
g10
F0.8625
tp3271
a(S'have'
p3272
g13
F0.9993
tp3273
a(S'you'
p3274
g16
F0.9993
tp3275
a(S'been'
p3276
g13
F0.9982
tp3277
a(S'doin(g'
p3278
g13
F0.9891
tp3279
a(g65
g6
F0.9796
tp3280
a(g258
g6
F0.9966
tp3281
asI535
(lp3282
(g75
g76
F0.9001
tp3283
a(S'you'
p3284
g16
F0.9985
tp3285
a(S'know'
p3286
g13
F0.9996
tp3287
a(S'they'
p3288
g16
F0.9962
tp3289
a(S'wan(t)'
p3290
g13
F0.9987
tp3291
a(g80
g81
F0.5591
tp3292
a(g83
g81
F0.535
tp3293
a(g75
g76
F0.8293
tp3294
a(g86
g6
F0.9284
tp3295
a(g83
g6
F0.9615
tp3296
a(g80
g81
F0.4438
tp3297
a(g86
g81
F0.6993
tp3298
a(g34
g81
F0.636
tp3299
a(S't)a'
p3300
g27
F0.815
tp3301
a(S'take'
p3302
g13
F0.989
tp3303
a(S'out'
p3304
g52
F0.9836
tp3305
a(S'whatever'
p3306
g37
F0.4883
tp3307
a(S'they'
p3308
g16
F0.9963
tp3309
a(S'wan(t'
p3310
g13
F0.9988
tp3311
a(g65
g6
F0.9419
tp3312
a(g34
g6
F0.9507
tp3313
a(S't)a'
p3314
g27
F0.7742
tp3315
a(S'play'
p3316
g13
F0.9665
tp3317
a(S'with'
p3318
g27
F0.9986
tp3319
a(S'they'
p3320
g16
F0.9909
tp3321
a(S'just'
p3322
g10
F0.9999
tp3323
a(S'drag'
p3324
g13
F0.9996
tp3325
a(S'it'
p3326
g16
F0.9938
tp3327
a(S'out'
p3328
g52
F0.7598
tp3329
a(S'now'
p3330
g10
F0.991
tp3331
a(S"everything's"
p3332
g374
F0.7791
tp3333
a(S'all'
p3334
g44
F0.5229
tp3335
a(S'over'
p3336
g27
F0.9756
tp3337
a(S'the'
p3338
g44
F0.9995
tp3339
a(S'place'
p3340
g47
F0.9969
tp3341
a(S'in'
p3342
g27
F0.9953
tp3343
a(S'there'
p3344
g10
F0.6333
tp3345
a(g83
g6
F0.9847
tp3346
a(g75
g76
F0.9635
tp3347
a(g86
g6
F0.9827
tp3348
a(g5
g6
F0.996
tp3349
asI2586
(lp3350
(S'Mommy'
p3351
g47
F0.7911
tp3352
a(g5
g6
F0.9983
tp3353
asI2589
(lp3354
(S'yeah'
p3355
g37
F0.9986
tp3356
a(g5
g6
F0.997
tp3357
asI2592
(lp3358
(S'Mom'
p3359
g47
F0.9095
tp3360
a(g5
g6
F0.9981
tp3361
asI545
(lp3362
(S'yep'
p3363
g37
F0.9972
tp3364
a(g5
g6
F0.9971
tp3365
asI2595
(lp3366
(S'talk'
p3367
g13
F0.9201
tp3368
a(S'on'
p3369
g27
F0.9912
tp3370
a(S'the'
p3371
g44
F0.9994
tp3372
a(S'phone'
p3373
g47
F0.9997
tp3374
a(g5
g6
F0.9982
tp3375
asI548
(lp3376
(S'xxx'
p3377
g81
F0.7647
tp3378
a(S'(.)'
p3379
g81
F0.8124
tp3380
a(g5
g6
F0.9705
tp3381
asI550
(lp3382
(S'yeah'
p3383
g37
F0.993
tp3384
a(S'there'
p3385
S'X'
p3386
F0.7883
tp3387
a(S'is'
p3388
g13
F0.9984
tp3389
a(g404
g44
F0.9987
tp3390
a(S'little'
p3391
g209
F0.9968
tp3392
a(S'bit'
p3393
g47
F0.9809
tp3394
a(S'of'
p3395
g27
F0.9985
tp3396
a(g404
g44
F0.9979
tp3397
a(S'breeze'
p3398
g47
F0.9959
tp3399
a(S'today'
p3400
g47
F0.9803
tp3401
a(S'anyway'
p3402
g10
F0.9895
tp3403
a(g5
g6
F0.9963
tp3404
asI2602
(lp3405
(S'yeah'
p3406
g37
F0.9951
tp3407
a(g83
g6
F0.9843
tp3408
a(g75
g76
F0.972
tp3409
a(g86
g6
F0.974
tp3410
a(g258
g6
F0.9963
tp3411
asI555
(lp3412
(S'it'
p3413
g16
F0.9956
tp3414
a(S'was'
p3415
g13
F0.9989
tp3416
a(S'so'
p3417
g10
F0.9903
tp3418
a(S'hot'
p3419
g209
F0.9777
tp3420
a(S'for'
p3421
g27
F0.9973
tp3422
a(S'awhile'
p3423
g10
F0.9642
tp3424
a(S'there'
p3425
g10
F0.9528
tp3426
a(g5
g6
F0.9981
tp3427
asI2605
(lp3428
(S'yeah'
p3429
g37
F0.9988
tp3430
a(g258
g6
F0.9966
tp3431
asI559
(lp3432
(S'yeah'
p3433
g37
F0.9903
tp3434
a(S'it'
p3435
g16
F0.9979
tp3436
a(S'was'
p3437
g13
F0.9987
tp3438
a(S'(.)'
p3439
g30
F0.224
tp3440
a(g5
g6
F0.9943
tp3441
asI2608
(lp3442
(g2
g3
F0.9876
tp3443
a(g5
g6
F0.9949
tp3444
asI2610
(lp3445
(S'oh'
p3446
g37
F0.9878
tp3447
a(S'you'
p3448
g16
F0.9961
tp3449
a(S'wan(t'
p3450
g13
F0.9987
tp3451
a(g65
g6
F0.9512
tp3452
a(g34
g6
F0.9507
tp3453
a(S't)a'
p3454
g27
F0.5013
tp3455
a(S'say'
p3456
g13
F0.8648
tp3457
a(S'bye'
p3458
g37
F0.6212
tp3459
a(S'now'
p3460
g10
F0.9867
tp3461
a(S'(.)'
p3462
g138
F0.2954
tp3463
a(g258
g6
F0.9898
tp3464
asI563
(lp3465
(S'do'
p3466
g13
F0.9985
tp3467
a(S'you'
p3468
g16
F0.9997
tp3469
a(S'know'
p3470
g13
F0.9989
tp3471
a(S'what'
p3472
g16
F0.9874
tp3473
a(S'her'
p3474
g44
F0.9381
tp3475
a(S'name'
p3476
g47
F0.9998
tp3477
a(S'is'
p3478
g13
F0.9968
tp3479
a(S'Mich(ele'
p3480
g30
F0.9946
tp3481
a(g65
g6
F0.9877
tp3482
a(S'[//]'
p3483
g138
F0.4403
tp3484
a(S'Tanya'
p3485
g30
F0.9935
tp3486
a(g258
g6
F0.9941
tp3487
asI2142
(lp3488
(S'zzz'
p3489
g138
F0.409
tp3490
a(g83
g6
F0.9451
tp3491
a(g75
g76
F0.972
tp3492
a(g86
g6
F0.9847
tp3493
a(g5
g6
F0.9962
tp3494
asI568
(lp3495
(S'do'
p3496
g13
F0.9985
tp3497
a(S'you'
p3498
g16
F0.9997
tp3499
a(S'know'
p3500
g13
F0.9989
tp3501
a(S'what'
p3502
g16
F0.9874
tp3503
a(S'her'
p3504
g44
F0.9381
tp3505
a(S'name'
p3506
g47
F0.9995
tp3507
a(S'was'
p3508
g13
F0.9771
tp3509
a(g258
g6
F0.9971
tp3510
asI2619
(lp3511
(S"she's"
p3512
g374
F0.9887
tp3513
a(S'really'
p3514
g10
F0.9997
tp3515
a(S'funny'
p3516
g209
F0.998
tp3517
a(S'she'
p3518
g16
F0.9909
tp3519
a(S'usually'
p3520
g10
F0.9995
tp3521
a(S'plays'
p3522
g13
F0.9979
tp3523
a(g404
g44
F0.9978
tp3524
a(S'lot'
p3525
g47
F0.7205
tp3526
a(S'more'
p3527
g209
F0.6894
tp3528
a(S'than'
p3529
g27
F0.9968
tp3530
a(S'that'
p3531
g16
F0.9336
tp3532
a(g75
g76
F0.8106
tp3533
a(S'an(d'
p3534
g63
F0.9354
tp3535
a(g65
g6
F0.9933
tp3536
a(S'now'
p3537
g10
F0.9933
tp3538
a(S'when'
p3539
g10
F0.9944
tp3540
a(S'you'
p3541
g16
F0.9987
tp3542
a(S'really'
p3543
g10
F0.996
tp3544
a(g80
g81
F0.5127
tp3545
a(g83
g81
F0.5345
tp3546
a(g80
g81
F0.9532
tp3547
a(g86
g6
F0.7918
tp3548
a(S'want'
p3549
g13
F0.9996
tp3550
a(S'her'
p3551
g16
F0.8573
tp3552
a(S'to'
p3553
g27
F0.9952
tp3554
a(S'play'
p3555
g13
F0.9989
tp3556
a(S'she'
p3557
g16
F0.9978
tp3558
a(S'just'
p3559
g10
F0.9998
tp3560
a(S'does'
p3561
g13
F0.9993
tp3562
a(g198
g63
F0.3902
tp3563
a(S'...'
p3564
g76
F0.5152
tp3565
asI572
(lp3566
(S'no'
p3567
g37
F0.9704
tp3568
a(g5
g6
F0.9989
tp3569
asI575
(lp3570
(g75
g76
F0.9343
tp3571
a(S'ask'
p3572
g13
F0.9975
tp3573
a(S'her'
p3574
g16
F0.7043
tp3575
a(g80
g138
F0.2867
tp3576
a(S'[/]'
p3577
g138
F0.2271
tp3578
a(S'ask'
p3579
g13
F0.9967
tp3580
a(S'her'
p3581
g16
F0.6222
tp3582
a(S'what'
p3583
g16
F0.9586
tp3584
a(S'her'
p3585
g44
F0.9381
tp3586
a(S'name'
p3587
g47
F0.9996
tp3588
a(S'is'
p3589
g13
F0.9911
tp3590
a(g5
g6
F0.9966
tp3591
asI578
(lp3592
(S"she's"
p3593
g374
F0.9669
tp3594
a(g75
g76
F0.6541
tp3595
a(g404
g44
F0.9956
tp3596
a(S'little'
p3597
g209
F0.9891
tp3598
a(g80
g81
F0.4875
tp3599
a(g83
g81
F0.5345
tp3600
a(g80
g81
F0.9532
tp3601
a(g86
g6
F0.884
tp3602
a(S'shy'
p3603
g209
F0.9519
tp3604
a(S'at'
p3605
g27
F0.9984
tp3606
a(S'first'
p3607
g209
F0.933
tp3608
a(S'but'
p3609
g63
F0.9888
tp3610
a(S'once'
p3611
g10
F0.9809
tp3612
a(S'she'
p3613
g16
F0.9978
tp3614
a(S'gets'
p3615
g13
F0.9998
tp3616
a(S'used'
p3617
g13
F0.8623
tp3618
a(S'to'
p3619
g27
F0.9963
tp3620
a(S'you'
p3621
g16
F0.9984
tp3622
a(S"she'll"
p3623
g13
F0.954
tp3624
a(S'be'
p3625
g13
F0.9979
tp3626
a(S'fine'
p3627
g209
F0.9407
tp3628
a(g5
g6
F0.9983
tp3629
asI2630
(lp3630
(S'oh'
p3631
g37
F0.9941
tp3632
a(g83
g6
F0.9747
tp3633
a(g75
g76
F0.972
tp3634
a(g86
g6
F0.9847
tp3635
a(g5
g6
F0.9962
tp3636
asI585
(lp3637
(S'zzz'
p3638
g138
F0.409
tp3639
a(g83
g6
F0.9451
tp3640
a(g75
g76
F0.972
tp3641
a(g86
g6
F0.9847
tp3642
a(g5
g6
F0.9962
tp3643
asI2634
(lp3644
(S'zzz'
p3645
g37
F0.3756
tp3646
a(g5
g6
F0.9972
tp3647
asI2487
(lp3648
(S'zzz'
p3649
g37
F0.3756
tp3650
a(g5
g6
F0.9972
tp3651
asI589
(lp3652
(g75
g76
F0.8848
tp3653
a(S'(be)cause'
p3654
g27
F0.985
tp3655
a(g80
g76
F0.3102
tp3656
a(g83
g6
F0.9512
tp3657
a(g80
g81
F0.5563
tp3658
a(g86
g6
F0.6899
tp3659
a(g5
g6
F0.9959
tp3660
asI2638
(lp3661
(g174
g16
F0.9976
tp3662
a(S"don't"
p3663
g13
F1.0
tp3664
a(S'know'
p3665
g13
F0.9995
tp3666
a(S"it's"
p3667
g374
F0.9977
tp3668
a(S'funny'
p3669
g209
F0.9992
tp3670
a(g83
g6
F0.988
tp3671
a(g80
g81
F0.5886
tp3672
a(g86
g6
F0.8062
tp3673
a(g5
g6
F0.9969
tp3674
asI592
(lp3675
(S'yeah'
p3676
g37
F0.9951
tp3677
a(g83
g6
F0.9843
tp3678
a(g75
g76
F0.972
tp3679
a(g86
g6
F0.974
tp3680
a(g258
g6
F0.9963
tp3681
asI2641
(lp3682
(g75
g76
F0.9102
tp3683
a(S"wouldn't>"
p3684
g13
F0.6494
tp3685
a(g83
g6
F0.9538
tp3686
a(g75
g76
F0.9566
tp3687
a(g86
g6
F0.9888
tp3688
a(S'you'
p3689
g16
F0.9983
tp3690
a(S'know'
p3691
g13
F0.9998
tp3692
a(S'it'
p3693
g16
F0.9922
tp3694
a(g5
g6
F0.9991
tp3695
asI595
(lp3696
(S'she'
p3697
g16
F0.9972
tp3698
a(S'was'
p3699
g13
F0.9996
tp3700
a(S'in'
p3701
g27
F0.9638
tp3702
a(S'the'
p3703
g44
F0.9996
tp3704
a(S'Head'
p3705
g47
F0.9788
tp3706
a(S'Start'
p3707
g13
F0.9468
tp3708
a(S'program'
p3709
g47
F0.9173
tp3710
a(S'last'
p3711
g209
F0.9832
tp3712
a(S'year'
p3713
g47
F0.9905
tp3714
a(S'an(d'
p3715
g63
F0.9386
tp3716
a(g65
g6
F0.9817
tp3717
a(S'the'
p3718
g44
F0.999
tp3719
a(S'first'
p3720
g209
F0.9005
tp3721
a(S'few'
p3722
g209
F0.8262
tp3723
a(S'times'
p3724
g47
F0.9959
tp3725
a(S'that'
p3726
g27
F0.9893
tp3727
a(S'she'
p3728
g16
F0.9986
tp3729
a(S'came'
p3730
g13
F0.998
tp3731
a(S'she'
p3732
g16
F0.8944
tp3733
a(S'kind'
p3734
g47
F0.725
tp3735
a(S'o(f'
p3736
g27
F0.6273
tp3737
a(g65
g6
F0.9881
tp3738
a(S"didn't"
p3739
g13
F0.9989
tp3740
a(S'really'
p3741
g10
F0.9952
tp3742
a(g75
g76
F0.7639
tp3743
a(S'do'
p3744
g13
F0.998
tp3745
a(S'any(thing)'
p3746
g47
F0.9313
tp3747
a(g80
g81
F0.5697
tp3748
a(g83
g81
F0.5345
tp3749
a(g80
g81
F0.9532
tp3750
a(g86
g6
F0.7509
tp3751
a(S'[//]'
p3752
g6
F0.2137
tp3753
a(S'do'
p3754
g13
F0.9928
tp3755
a(S'much'
p3756
g209
F0.5366
tp3757
a(S'of'
p3758
g27
F0.9936
tp3759
a(S'anything'
p3760
g47
F0.9969
tp3761
a(S'an(d'
p3762
g63
F0.9361
tp3763
a(g65
g6
F0.9899
tp3764
a(S'then'
p3765
g10
F0.9647
tp3766
a(g75
g76
F0.7327
tp3767
a(S'after'
p3768
g27
F0.9629
tp3769
a(S'that'
p3770
g16
F0.9795
tp3771
a(g80
g81
F0.4384
tp3772
a(g83
g81
F0.535
tp3773
a(g75
g76
F0.8293
tp3774
a(g86
g6
F0.9284
tp3775
a(g83
g6
F0.9615
tp3776
a(g80
g81
F0.4438
tp3777
a(g86
g6
F0.8456
tp3778
a(S"she'd"
p3779
g13
F0.8667
tp3780
a(S'get'
p3781
g13
F0.9996
tp3782
a(S'used'
p3783
g13
F0.8361
tp3784
a(S'to'
p3785
g27
F0.9949
tp3786
a(S'her'
p3787
g16
F0.8159
tp3788
a(S'an(d'
p3789
g63
F0.8475
tp3790
a(g65
g6
F0.9899
tp3791
a(S'then'
p3792
g10
F0.9351
tp3793
a(S'she'
p3794
g16
F0.9952
tp3795
a(S'[/]'
p3796
g6
F0.3256
tp3797
a(S'she'
p3798
g16
F0.9977
tp3799
a(S'was'
p3800
g13
F0.9962
tp3801
a(S'fine'
p3802
g209
F0.9507
tp3803
a(g5
g6
F0.9985
tp3804
asI2644
(lp3805
(S'well'
p3806
g37
F0.8721
tp3807
a(g75
g76
F0.6206
tp3808
a(S'we'
p3809
g16
F0.9974
tp3810
a(S'can'
p3811
g13
F0.9995
tp3812
a(g80
g138
F0.2841
tp3813
a(S'[//]'
p3814
g138
F0.3163
tp3815
a(S'actually'
p3816
g10
F0.9963
tp3817
a(g83
g6
F0.9737
tp3818
a(g80
g81
F0.4438
tp3819
a(g86
g6
F0.7766
tp3820
a(g174
g16
F0.9966
tp3821
a(S'can'
p3822
g13
F0.9999
tp3823
a(S'stop'
p3824
g13
F0.9995
tp3825
a(S'the'
p3826
g44
F0.9995
tp3827
a(S'tape'
p3828
g47
F0.9964
tp3829
a(S'and'
p3830
g63
F0.9983
tp3831
a(S'&-uh'
p3832
g37
F0.5279
tp3833
a(S"I'll"
p3834
g374
F0.9874
tp3835
a(S'give'
p3836
g13
F0.9999
tp3837
a(S'you'
p3838
g16
F0.9968
tp3839
a(S'your'
p3840
g44
F0.6757
tp3841
a(g5
g6
F0.9935
tp3842
asI2650
(lp3843
(S'but'
p3844
g63
F0.988
tp3845
a(g83
g6
F0.9706
tp3846
a(g75
g76
F0.972
tp3847
a(g86
g6
F0.9847
tp3848
a(g5
g6
F0.9962
tp3849
asI2653
(lp3850
(S'interview'
p3851
g47
F0.9734
tp3852
a(g83
g6
F0.9841
tp3853
a(g80
g81
F0.3811
tp3854
a(g86
g6
F0.7604
tp3855
a(g5
g6
F0.9962
tp3856
asI611
(lp3857
(S'mhm'
p3858
g37
F0.9046
tp3859
a(g83
g6
F0.9796
tp3860
a(g75
g76
F0.972
tp3861
a(g86
g6
F0.9847
tp3862
a(g5
g6
F0.9962
tp3863
asI614
(lp3864
(S'fine'
p3865
g209
F0.9315
tp3866
a(S'yeah'
p3867
g37
F0.9599
tp3868
a(g5
g6
F0.9975
tp3869
asI617
(lp3870
(S'can'
p3871
g13
F0.999
tp3872
a(S'you'
p3873
g16
F0.9986
tp3874
a(S'tell'
p3875
g13
F0.9997
tp3876
a(S'her'
p3877
g16
F0.8173
tp3878
a(S'what'
p3879
g16
F0.9792
tp3880
a(g75
g76
F0.8307
tp3881
a(S'your'
p3882
g44
F0.9851
tp3883
a(S'name'
p3884
g47
F0.9997
tp3885
a(g80
g81
F0.6217
tp3886
a(g83
g81
F0.535
tp3887
a(g75
g76
F0.8293
tp3888
a(g86
g6
F0.9284
tp3889
a(g83
g6
F0.9615
tp3890
a(g80
g81
F0.4438
tp3891
a(g86
g6
F0.8445
tp3892
a(S'is'
p3893
g13
F0.9974
tp3894
a(g258
g6
F0.9966
tp3895
asI622
(lp3896
(S'maybe'
p3897
g10
F0.963
tp3898
a(S'[/]'
p3899
g6
F0.4753
tp3900
a(S'maybe'
p3901
g10
F0.981
tp3902
a(S"she'll"
p3903
g374
F0.6131
tp3904
a(S'even'
p3905
g10
F0.9947
tp3906
a(g83
g6
F0.9736
tp3907
a(g75
g76
F0.9475
tp3908
a(g86
g6
F0.9842
tp3909
a(g5
g6
F0.9969
tp3910
asI625
(lp3911
(g75
g76
F0.9511
tp3912
a(S'Tanya'
p3913
g30
F0.9886
tp3914
a(g80
g30
F0.3094
tp3915
a(g83
g6
F0.9707
tp3916
a(g80
g81
F0.5563
tp3917
a(g86
g6
F0.6899
tp3918
a(g5
g6
F0.9959
tp3919
asI628
(lp3920
(g75
g76
F0.9351
tp3921
a(S'play'
p3922
g13
F0.9843
tp3923
a(S'with'
p3924
g27
F0.9986
tp3925
a(S'you'
p3926
g16
F0.999
tp3927
a(g80
g81
F0.3773
tp3928
a(g83
g81
F0.535
tp3929
a(g75
g76
F0.7057
tp3930
a(g86
g6
F0.9842
tp3931
a(g5
g6
F0.9969
tp3932
asI631
(lp3933
(S'Tanya'
p3934
g30
F0.9849
tp3935
a(S'yeah'
p3936
g37
F0.9888
tp3937
a(g83
g6
F0.9769
tp3938
a(g80
g81
F0.5453
tp3939
a(g86
g6
F0.7789
tp3940
a(g5
g6
F0.995
tp3941
asI635
(lp3942
(S'uhuh'
p3943
g37
F0.9667
tp3944
a(g83
g6
F0.9796
tp3945
a(g75
g76
F0.972
tp3946
a(g86
g6
F0.9847
tp3947
a(g5
g6
F0.9962
tp3948
asI638
(lp3949
(S'want'
p3950
g13
F0.9993
tp3951
a(S'me'
p3952
g16
F0.9985
tp3953
a(S'to'
p3954
g27
F0.9673
tp3955
a(S'help'
p3956
g13
F0.9989
tp3957
a(S'you'
p3958
g16
F0.9962
tp3959
a(g258
g6
F0.9993
tp3960
asI641
(lp3961
(S'she'
p3962
g16
F0.9971
tp3963
a(S'does'
p3964
g13
F0.9997
tp3965
a(S'seem'
p3966
g13
F0.9264
tp3967
a(S'to'
p3968
g27
F0.9741
tp3969
a(S'like'
p3970
g13
F0.9249
tp3971
a(S'puzzles'
p3972
g47
F0.9423
tp3973
a(g404
g44
F0.9576
tp3974
a(S'lot'
p3975
g47
F0.9389
tp3976
a(S'so'
p3977
g10
F0.6161
tp3978
a(g5
g6
F0.996
tp3979
asI646
(lp3980
(S'mm'
p3981
g37
F0.2906
tp3982
a(g83
g6
F0.9596
tp3983
a(g80
g81
F0.3811
tp3984
a(g86
g6
F0.7604
tp3985
a(g5
g6
F0.9962
tp3986
asI649
(lp3987
(g75
g76
F0.9227
tp3988
a(S'she'
p3989
g16
F0.9971
tp3990
a(S'might'
p3991
g13
F0.9949
tp3992
a(g80
g81
F0.4912
tp3993
a(g83
g81
F0.5345
tp3994
a(g80
g81
F0.9532
tp3995
a(g86
g6
F0.7893
tp3996
a(S'do'
p3997
g13
F0.9975
tp3998
a(S'[/]'
p3999
g30
F0.3271
tp4000
a(S'do'
p4001
g13
F0.9983
tp4002
a(S'that'
p4003
g16
F0.8679
tp4004
a(g83
g6
F0.9946
tp4005
a(S'<][>'
p4006
g81
F0.2885
tp4007
a(g86
g6
F0.9319
tp4008
a(g5
g6
F0.996
tp4009
asI652
(lp4010
(g75
g76
F0.97
tp4011
a(S'xxx'
p4012
g81
F0.3424
tp4013
a(S'that'
p4014
g16
F0.6557
tp4015
a(g80
g81
F0.464
tp4016
a(g83
g81
F0.535
tp4017
a(g75
g76
F0.6902
tp4018
a(g86
g6
F0.9839
tp4019
a(g5
g6
F0.9962
tp4020
asI2613
(lp4021
(S'okay'
p4022
g37
F0.911
tp4023
a(S'bye'
p4024
g37
F0.9376
tp4025
a(S'bye'
p4026
g37
F0.9516
tp4027
a(g5
g6
F0.9984
tp4028
asI655
(lp4029
(S'xxx'
p4030
g81
F0.5822
tp4031
a(g5
g6
F0.9648
tp4032
asI657
(lp4033
(S'you'
p4034
g16
F0.998
tp4035
a(S'need'
p4036
g13
F0.9972
tp4037
a(S'help'
p4038
g47
F0.6029
tp4039
a(g258
g6
F0.9979
tp4040
asI660
(lp4041
(g2
g3
F0.9876
tp4042
a(g5
g6
F0.9949
tp4043
asI662
(lp4044
(S'yep'
p4045
g37
F0.9972
tp4046
a(g5
g6
F0.9971
tp4047
asI665
(lp4048
(S'xxx'
p4049
g81
F0.7647
tp4050
a(S'(.)'
p4051
g81
F0.8124
tp4052
a(g5
g6
F0.9705
tp4053
asI666
(lp4054
(S'is'
p4055
g13
F0.9983
tp4056
a(S'this'
p4057
g16
F0.8734
tp4058
a(S'just'
p4059
g10
F0.9989
tp4060
a(S'make'
p4061
g13
F0.9995
tp4062
a(S'your'
p4063
g44
F0.9958
tp4064
a(S'own'
p4065
g209
F0.773
tp4066
a(S'thing'
p4067
g47
F0.9978
tp4068
a(S'an(d'
p4069
g63
F0.9366
tp4070
a(g65
g6
F0.9865
tp4071
a(S'this'
p4072
g16
F0.7933
tp4073
a(S'makes'
p4074
g13
F0.998
tp4075
a(S'all'
p4076
g44
F0.9666
tp4077
a(S'different'
p4078
g209
F0.9977
tp4079
a(S'things'
p4080
g47
F0.9992
tp4081
a(S'or'
p4082
g63
F0.9851
tp4083
a(S'what'
p4084
g16
F0.9927
tp4085
a(g198
g138
F0.447
tp4086
a(S'...'
p4087
g76
F0.6882
tp4088
asI2501
(lp4089
(S'it'
p4090
g16
F0.9925
tp4091
a(S'already'
p4092
g10
F0.9952
tp4093
a(S'rang'
p4094
g13
F0.9641
tp4095
a(S'Tee'
p4096
g30
F0.6331
tp4097
a(g5
g6
F0.9962
tp4098
asI674
(lp4099
(g75
g76
F0.9526
tp4100
a(g174
g16
F0.9988
tp4101
a(S'think'
p4102
g13
F0.9991
tp4103
a(g83
g6
F0.9878
tp4104
a(g80
g81
F0.4438
tp4105
a(g86
g6
F0.6591
tp4106
a(S'what'
p4107
g16
F0.7592
tp4108
a(S'one'
p4109
g3
F0.7962
tp4110
a(g80
g81
F0.3412
tp4111
a(S'[//]'
p4112
g81
F0.538
tp4113
a(g258
g6
F0.9748
tp4114
asI675
(lp4115
(S'yyy'
p4116
g10
F0.4571
tp4117
a(g83
g6
F0.9541
tp4118
a(g75
g76
F0.972
tp4119
a(g86
g6
F0.9847
tp4120
a(g5
g6
F0.9962
tp4121
asI677
(lp4122
(g174
g16
F0.9982
tp4123
a(S'think'
p4124
g13
F0.9999
tp4125
a(S'this'
p4126
g16
F0.9878
tp4127
a(S'is'
p4128
g13
F0.9987
tp4129
a(S'the'
p4130
g44
F0.9884
tp4131
a(g75
g76
F0.8322
tp4132
a(S'parrot'
p4133
g47
F0.6705
tp4134
a(S'one'
p4135
g3
F0.9332
tp4136
a(g80
g81
F0.6304
tp4137
a(g83
g81
F0.5345
tp4138
a(g80
g81
F0.9597
tp4139
a(g86
g6
F0.6916
tp4140
a(g5
g6
F0.9952
tp4141
asI681
(lp4142
(S'zzz'
p4143
g138
F0.409
tp4144
a(g83
g6
F0.9451
tp4145
a(g75
g76
F0.972
tp4146
a(g86
g6
F0.9847
tp4147
a(g5
g6
F0.9962
tp4148
asI685
(lp4149
(S'oh'
p4150
g37
F0.9987
tp4151
a(S'yeah'
p4152
g37
F0.9996
tp4153
a(g5
g6
F0.9975
tp4154
asI689
(lp4155
(S'an(d'
p4156
g63
F0.8847
tp4157
a(g65
g6
F0.9902
tp4158
a(S'then'
p4159
g10
F0.959
tp4160
a(g198
g138
F0.4633
tp4161
a(S'...'
p4162
g76
F0.6673
tp4163
asI692
(lp4164
(S'oh'
p4165
g37
F0.9975
tp4166
a(S'yeah'
p4167
g37
F0.9993
tp4168
a(S'she'
p4169
g16
F0.9984
tp4170
a(S'should'
p4171
g13
F0.9994
tp4172
a(S'be'
p4173
g13
F0.9995
tp4174
a(S'able'
p4175
g209
F0.9684
tp4176
a(S'to'
p4177
g27
F0.9943
tp4178
a(S'do'
p4179
g13
F0.9999
tp4180
a(S'this'
p4181
g44
F0.9438
tp4182
a(S'one'
p4183
g3
F0.901
tp4184
a(S'since'
p4185
g27
F0.9976
tp4186
a(S"you're"
p4187
g374
F0.9768
tp4188
a(S'under'
p4189
g27
F0.8278
tp4190
a(S'eight'
p4191
g3
F0.7863
tp4192
a(g5
g6
F0.9975
tp4193
asI702
(lp4194
(S'oh'
p4195
g37
F0.9903
tp4196
a(S"let's"
p4197
g374
F0.9907
tp4198
a(S'see'
p4199
g13
F0.9938
tp4200
a(S'(.)'
p4201
g30
F0.4281
tp4202
a(g5
g6
F0.9943
tp4203
asI705
(lp4204
(S'oh'
p4205
g37
F0.9932
tp4206
a(S'Tanya'
p4207
g30
F0.9988
tp4208
a(S'think'
p4209
g13
F0.9978
tp4210
a(S'this'
p4211
g44
F0.8856
tp4212
a(S'one'
p4213
g3
F0.7993
tp4214
a(S'goes'
p4215
g13
F0.9559
tp4216
a(S'here'
p4217
g10
F0.97
tp4218
a(S'(.)'
p4219
g81
F0.2837
tp4220
a(g258
g6
F0.9799
tp4221
asI710
(lp4222
(S'yeah'
p4223
g37
F0.9973
tp4224
a(S'(.)'
p4225
g30
F0.2739
tp4226
a(g5
g6
F0.9933
tp4227
asI713
(lp4228
(S'oh'
p4229
g37
F0.9968
tp4230
a(S'how'
p4231
g10
F0.9229
tp4232
a(g34
g6
F0.9778
tp4233
a(S'a)bout'
p4234
g27
F0.9704
tp4235
a(S'this'
p4236
g16
F0.9324
tp4237
a(S'here'
p4238
g10
F0.9536
tp4239
a(S'(.)'
p4240
g6
F0.2229
tp4241
a(g5
g6
F0.996
tp4242
asI716
(lp4243
(S'that'
p4244
g16
F0.8288
tp4245
a(S'was'
p4246
g13
F0.9981
tp4247
a(S'hard'
p4248
g209
F0.6307
tp4249
a(S'for'
p4250
g27
F0.9999
tp4251
a(S'me'
p4252
g16
F0.9984
tp4253
a(g83
g6
F0.9888
tp4254
a(g37
g6
F0.9901
tp4255
a(g86
g6
F0.9728
tp4256
a(S'to'
p4257
g27
F0.9516
tp4258
a(S'do'
p4259
g13
F0.9993
tp4260
a(g5
g6
F0.9975
tp4261
asI720
(lp4262
(S'yeah'
p4263
g37
F0.9986
tp4264
a(g5
g6
F0.997
tp4265
asI723
(lp4266
(S'lots_of'
p4267
g47
F0.4051
tp4268
a(S'funny'
p4269
g209
F0.9955
tp4270
a(S'shaped'
p4271
g209
F0.9598
tp4272
a(S'pieces'
p4273
g47
F0.999
tp4274
a(g5
g6
F0.9986
tp4275
asI726
(lp4276
(S'hm'
p4277
g37
F0.9699
tp4278
a(S':'
p4279
g6
F0.8848
tp4280
a(S'(.)'
p4281
g81
F0.385
tp4282
a(g5
g6
F0.9648
tp4283
asI730
(lp4284
(S"let's"
p4285
g374
F0.9812
tp4286
a(S'see'
p4287
g13
F0.9876
tp4288
a(g5
g6
F0.9974
tp4289
asI734
(lp4290
(S'oh'
p4291
g37
F0.9901
tp4292
a(S'here'
p4293
g10
F0.7149
tp4294
a(S'Tanya'
p4295
g30
F0.9775
tp4296
a(g174
g16
F0.9928
tp4297
a(S'found'
p4298
g13
F0.9997
tp4299
a(g198
g63
F0.4663
tp4300
a(S'...'
p4301
g6
F0.6147
tp4302
asI738
(lp4303
(S'that'
p4304
g16
F0.6972
tp4305
a(S'goes'
p4306
g13
F0.9983
tp4307
a(S'there'
p4308
g10
F0.6412
tp4309
a(S'(.)'
p4310
g81
F0.2568
tp4311
a(g5
g6
F0.9675
tp4312
asI742
(lp4313
(S'how'
p4314
g10
F0.9744
tp4315
a(g34
g6
F0.9809
tp4316
a(S'a)bout'
p4317
g27
F0.6961
tp4318
a(g198
g138
F0.4946
tp4319
a(S'...'
p4320
g76
F0.6673
tp4321
asI746
(lp4322
(S'hm'
p4323
g37
F0.9811
tp4324
a(g4279
g6
F0.936
tp4325
a(g5
g6
F0.9898
tp4326
asI750
(lp4327
(S'xxx'
p4328
g81
F0.7647
tp4329
a(S'(.)'
p4330
g81
F0.8124
tp4331
a(g5
g6
F0.9705
tp4332
asI2378
(lp4333
(S'wait'
p4334
g13
F0.9922
tp4335
a(g404
g44
F0.9943
tp4336
a(S'minute'
p4337
g47
F0.9717
tp4338
a(S'let'
p4339
g13
F0.9581
tp4340
a(S'Tanya'
p4341
g30
F0.9983
tp4342
a(S'do'
p4343
g13
F0.9995
tp4344
a(S'it'
p4345
g16
F0.9762
tp4346
a(g404
g44
F0.9921
tp4347
a(S'minute'
p4348
g47
F0.9751
tp4349
a(g5
g6
F0.9984
tp4350
asI752
(lp4351
(S"let's"
p4352
g374
F0.9813
tp4353
a(S'see'
p4354
g13
F0.9968
tp4355
a(S'where'
p4356
g10
F0.9778
tp4357
a(S'this'
p4358
g16
F0.7988
tp4359
a(S'fits'
p4360
g13
F0.9626
tp4361
a(S'(.)'
p4362
g30
F0.4059
tp4363
a(g5
g6
F0.9934
tp4364
asI755
(lp4365
(S'that'
p4366
g16
F0.4264
tp4367
a(S'fit'
p4368
g13
F0.9578
tp4369
a(S'here'
p4370
g10
F0.9418
tp4371
a(S'(.)'
p4372
g81
F0.3593
tp4373
a(g258
g6
F0.9747
tp4374
asI2174
(lp4375
(S'Johnny'
p4376
g30
F0.9981
tp4377
a(S'drinkin(g'
p4378
g13
F0.674
tp4379
a(g65
g6
F0.987
tp4380
a(S'some'
p4381
g44
F0.3813
tp4382
a(g258
g6
F0.9971
tp4383
asI759
(lp4384
(S"here're"
p4385
g10
F0.6897
tp4386
a(S'some'
p4387
g44
F0.99
tp4388
a(S'pieces'
p4389
g47
F0.9859
tp4390
a(S'(.)'
p4391
g138
F0.364
tp4392
a(g5
g6
F0.9925
tp4393
asI763
(lp4394
(S'oh'
p4395
g37
F0.9975
tp4396
a(S'yeah'
p4397
g37
F0.9989
tp4398
a(S'an(d'
p4399
g63
F0.8885
tp4400
a(g65
g6
F0.989
tp4401
a(S'some'
p4402
g44
F0.7834
tp4403
a(S'of'
p4404
g27
F0.9961
tp4405
a(S"those'll"
p4406
g44
F0.7524
tp4407
a(S'go'
p4408
g13
F0.8553
tp4409
a(S'here'
p4410
g10
F0.998
tp4411
a(S'(.)'
p4412
g138
F0.2272
tp4413
a(g5
g6
F0.992
tp4414
asI769
(lp4415
(S'okay'
p4416
g37
F0.9741
tp4417
a(g5
g6
F0.9977
tp4418
asI774
(lp4419
(S'oh'
p4420
g37
F0.9886
tp4421
a(S'see'
p4422
g13
F0.892
tp4423
a(S'does'
p4424
g13
F0.9969
tp4425
a(S'that'
p4426
g16
F0.7611
tp4427
a(S'look'
p4428
g13
F0.9949
tp4429
a(S'right'
p4430
g10
F0.5954
tp4431
a(g258
g6
F0.9986
tp4432
asI2177
(lp4433
(S'oh'
p4434
g37
F0.9942
tp4435
a(S"that's"
p4436
g374
F0.9955
tp4437
a(S'good'
p4438
g209
F0.9973
tp4439
a(g5
g6
F0.9984
tp4440
asI777
(lp4441
(S'mm'
p4442
g37
F0.2906
tp4443
a(g83
g6
F0.9596
tp4444
a(g80
g81
F0.3811
tp4445
a(g86
g6
F0.7604
tp4446
a(g5
g6
F0.9962
tp4447
asI780
(lp4448
(g75
g76
F0.9094
tp4449
a(S'an(d)'
p4450
g63
F0.9531
tp4451
a(g80
g81
F0.3773
tp4452
a(g83
g81
F0.4963
tp4453
a(g75
g76
F0.8293
tp4454
a(g86
g6
F0.987
tp4455
a(S'that'
p4456
g44
F0.7655
tp4457
a(S'piece'
p4458
g47
F0.9859
tp4459
a(S'goes'
p4460
g13
F0.9919
tp4461
a(S'there'
p4462
g10
F0.9153
tp4463
a(g5
g6
F0.9983
tp4464
asI783
(lp4465
(g75
g76
F0.9001
tp4466
a(S'you'
p4467
g16
F0.9982
tp4468
a(S'got'
p4469
g13
F0.9985
tp4470
a(g80
g81
F0.6081
tp4471
a(g83
g81
F0.5345
tp4472
a(g80
g81
F0.9532
tp4473
a(g86
g6
F0.8218
tp4474
a(S'to'
p4475
g27
F0.9942
tp4476
a(S'find'
p4477
g13
F0.9998
tp4478
a(g404
g44
F0.9975
tp4479
a(S'piece'
p4480
g47
F0.9942
tp4481
a(S'like'
p4482
g27
F0.9368
tp4483
a(S'that'
p4484
g16
F0.9547
tp4485
a(g5
g6
F0.9992
tp4486
asI788
(lp4487
(g75
g76
F0.9115
tp4488
a(S"that's"
p4489
g374
F0.9913
tp4490
a(S'good'
p4491
g209
F0.9978
tp4492
a(g80
g81
F0.4865
tp4493
a(g83
g81
F0.535
tp4494
a(g75
g76
F0.8293
tp4495
a(g86
g6
F0.9716
tp4496
a(S'(.)'
p4497
g138
F0.2714
tp4498
a(g5
g6
F0.9932
tp4499
asI791
(lp4500
(S'mm'
p4501
g37
F0.5842
tp4502
a(g5
g6
F0.9932
tp4503
asI794
(lp4504
(S'not'
p4505
g10
F0.999
tp4506
a(S'bad'
p4507
g209
F0.9845
tp4508
a(g5
g6
F0.9977
tp4509
asI797
(lp4510
(S'hm'
p4511
g37
F0.9811
tp4512
a(g4279
g6
F0.936
tp4513
a(g5
g6
F0.9898
tp4514
asI2181
(lp4515
(S'zzz'
p4516
g37
F0.3756
tp4517
a(g5
g6
F0.9972
tp4518
asI800
(lp4519
(S'xxx'
p4520
g81
F0.6042
tp4521
a(S'that'
p4522
g16
F0.5509
tp4523
a(S'goes'
p4524
g13
F0.9991
tp4525
a(S'around'
p4526
g52
F0.4409
tp4527
a(S'(.)'
p4528
g30
F0.4035
tp4529
a(g5
g6
F0.9915
tp4530
asI803
(lp4531
(S'oh'
p4532
g37
F0.9975
tp4533
a(S'yeah'
p4534
g37
F0.9986
tp4535
a(S'this'
p4536
g16
F0.92
tp4537
a(S'goes'
p4538
g13
F0.974
tp4539
a(S'first'
p4540
g10
F0.5278
tp4541
a(g5
g6
F0.9978
tp4542
asI806
(lp4543
(S'this'
p4544
g44
F0.505
tp4545
a(S'go'
p4546
g13
F0.6384
tp4547
a(S'first'
p4548
g10
F0.9611
tp4549
a(S'here'
p4550
g10
F0.9847
tp4551
a(g258
g6
F0.9987
tp4552
asI809
(lp4553
(S'mm'
p4554
g37
F0.5842
tp4555
a(g5
g6
F0.9932
tp4556
asI2415
(lp4557
(S'are'
p4558
g13
F0.9964
tp4559
a(S'you'
p4560
g16
F0.9991
tp4561
a(S'there'
p4562
g10
F0.8059
tp4563
a(S'(.)'
p4564
g81
F0.361
tp4565
a(g258
g6
F0.9747
tp4566
asI812
(lp4567
(S'that'
p4568
g16
F0.5757
tp4569
a(S'go'
p4570
g13
F0.9947
tp4571
a(S'there'
p4572
g10
F0.9871
tp4573
a(g258
g6
F0.9981
tp4574
asI815
(lp4575
(S'an(d'
p4576
g63
F0.8847
tp4577
a(g65
g6
F0.9902
tp4578
a(S'then'
p4579
g10
F0.9562
tp4580
a(S'that'
p4581
g16
F0.454
tp4582
a(S'(.)'
p4583
g81
F0.2729
tp4584
a(g258
g6
F0.9618
tp4585
asI818
(lp4586
(S'yep'
p4587
g37
F0.9943
tp4588
a(S'(.)'
p4589
g37
F0.2811
tp4590
a(g5
g6
F0.9973
tp4591
asI821
(lp4592
(S'oh'
p4593
g37
F0.9886
tp4594
a(S'see'
p4595
g13
F0.892
tp4596
a(S'does'
p4597
g13
F0.9969
tp4598
a(S'that'
p4599
g16
F0.7239
tp4600
a(S'go'
p4601
g13
F0.9973
tp4602
a(S'in'
p4603
g27
F0.949
tp4604
a(S'there'
p4605
g10
F0.8388
tp4606
a(g258
g6
F0.9981
tp4607
asI824
(lp4608
(S'that'
p4609
g16
F0.6972
tp4610
a(S'goes'
p4611
g13
F0.9985
tp4612
a(S'in'
p4613
g27
F0.5266
tp4614
a(S'there'
p4615
g10
F0.7523
tp4616
a(g5
g6
F0.9982
tp4617
asI827
(lp4618
(S'how'
p4619
g10
F0.9744
tp4620
a(g34
g6
F0.9809
tp4621
a(S'a)bout'
p4622
g27
F0.9187
tp4623
a(S'that'
p4624
g44
F0.8011
tp4625
a(S'little'
p4626
g209
F0.9742
tp4627
a(S'orange'
p4628
g209
F0.9105
tp4629
a(S'piece'
p4630
g47
F0.9951
tp4631
a(S'right'
p4632
g10
F0.6482
tp4633
a(S'in'
p4634
g27
F0.9932
tp4635
a(S'there'
p4636
g10
F0.8519
tp4637
a(g258
g6
F0.9982
tp4638
asI832
(lp4639
(S'here'
p4640
g10
F0.9257
tp4641
a(g174
g16
F0.9997
tp4642
a(S'think'
p4643
g13
F0.9999
tp4644
a(S'that'
p4645
g16
F0.7202
tp4646
a(S'goes'
p4647
g13
F0.9983
tp4648
a(S'there'
p4649
g10
F0.7599
tp4650
a(S'Tanya'
p4651
g30
F0.9959
tp4652
a(g5
g6
F0.9954
tp4653
asI836
(lp4654
(g75
g76
F0.9359
tp4655
a(S'wan(t'
p4656
g13
F0.978
tp4657
a(g65
g6
F0.9323
tp4658
a(g34
g6
F0.9591
tp4659
a(S't)a'
p4660
g27
F0.3061
tp4661
a(g80
g138
F0.3336
tp4662
a(S'[/]'
p4663
g138
F0.2569
tp4664
a(S'wan(t'
p4665
g13
F0.9735
tp4666
a(g65
g6
F0.9419
tp4667
a(g34
g6
F0.9507
tp4668
a(S't)a'
p4669
g27
F0.7029
tp4670
a(S'try'
p4671
g13
F0.9772
tp4672
a(S'that'
p4673
g16
F0.7116
tp4674
a(S'again'
p4675
g10
F0.9848
tp4676
a(S'(.)'
p4677
g81
F0.3109
tp4678
a(g258
g6
F0.9831
tp4679
asI839
(lp4680
(S'that'
p4681
g16
F0.7305
tp4682
a(S"don't"
p4683
g13
F0.9999
tp4684
a(S'go'
p4685
g13
F0.9996
tp4686
a(S'there'
p4687
g10
F0.9891
tp4688
a(g5
g6
F0.9982
tp4689
asI2188
(lp4690
(g75
g76
F0.8709
tp4691
a(S'that'
p4692
g16
F0.8245
tp4693
a(S'was'
p4694
g13
F0.9988
tp4695
a(S'good'
p4696
g209
F0.9987
tp4697
a(S'tea'
p4698
g47
F0.9919
tp4699
a(g80
g81
F0.499
tp4700
a(g83
g81
F0.535
tp4701
a(g75
g76
F0.8293
tp4702
a(g86
g6
F0.983
tp4703
a(S'huh'
p4704
g37
F0.9754
tp4705
a(g258
g6
F0.998
tp4706
asI842
(lp4707
(S'what'
p4708
g16
F0.9962
tp4709
a(S'is'
p4710
g13
F0.9998
tp4711
a(S'it'
p4712
g16
F0.9978
tp4713
a(S'(.)'
p4714
g81
F0.2987
tp4715
a(g258
g6
F0.9747
tp4716
asI845
(lp4717
(S'how'
p4718
g10
F0.9744
tp4719
a(g34
g6
F0.9809
tp4720
a(S'a)bout'
p4721
g27
F0.9607
tp4722
a(S'this'
p4723
g16
F0.9216
tp4724
a(S'here'
p4725
g10
F0.9576
tp4726
a(S'(.)'
p4727
g81
F0.3995
tp4728
a(g258
g6
F0.9711
tp4729
asI848
(lp4730
(S'xxx'
p4731
g81
F0.4516
tp4732
a(S'it'
p4733
g16
F0.9877
tp4734
a(S"doesn't"
p4735
g13
F0.9989
tp4736
a(S'go'
p4737
g13
F0.9985
tp4738
a(S'here'
p4739
g10
F0.9973
tp4740
a(S'(.)'
p4741
g81
F0.2491
tp4742
a(g5
g6
F0.9632
tp4743
asI851
(lp4744
(S'no'
p4745
g37
F0.8168
tp4746
a(S'(.)'
p4747
g47
F0.5347
tp4748
a(g5
g6
F0.9976
tp4749
asI854
(lp4750
(S"let's"
p4751
g374
F0.9813
tp4752
a(S'see'
p4753
g13
F0.9904
tp4754
a(S'(.)'
p4755
g30
F0.4573
tp4756
a(g5
g6
F0.9942
tp4757
asI857
(lp4758
(S'oh'
p4759
g37
F0.9909
tp4760
a(S'this'
p4761
g44
F0.8179
tp4762
a(S'orange'
p4763
g209
F0.6052
tp4764
a(g5
g6
F0.9982
tp4765
asI2191
(lp4766
(g75
g76
F0.9365
tp4767
a(S'some'
p4768
g44
F0.8926
tp4769
a(S'more'
p4770
g209
F0.9289
tp4771
a(g80
g81
F0.5663
tp4772
a(g83
g81
F0.5345
tp4773
a(g80
g81
F0.9749
tp4774
a(g86
g6
F0.7541
tp4775
a(g5
g6
F0.9962
tp4776
asI860
(lp4777
(S'oh'
p4778
g37
F0.997
tp4779
a(g174
g16
F0.9988
tp4780
a(S'know'
p4781
g13
F0.9999
tp4782
a(S'that'
p4783
g44
F0.6337
tp4784
a(S'other'
p4785
g209
F0.9969
tp4786
a(S'one'
p4787
g3
F0.9715
tp4788
a(S'(.)'
p4789
g81
F0.2912
tp4790
a(g5
g6
F0.9714
tp4791
asI864
(lp4792
(S'here'
p4793
g10
F0.8706
tp4794
a(S'(.)'
p4795
g6
F0.1957
tp4796
a(g5
g6
F0.9955
tp4797
asI867
(lp4798
(S"here's"
p4799
g374
F0.9386
tp4800
a(g404
g44
F0.9518
tp4801
a(S'missing'
p4802
g209
F0.601
tp4803
a(S'piece'
p4804
g47
F0.9995
tp4805
a(g5
g6
F0.998
tp4806
asI2534
(lp4807
(S'hi'
p4808
g37
F0.9424
tp4809
a(S'Mommy'
p4810
g47
F0.5584
tp4811
a(g5
g6
F0.9986
tp4812
asI871
(lp4813
(S'oh'
p4814
g37
F0.9969
tp4815
a(S'(.)'
p4816
g37
F0.4645
tp4817
a(g5
g6
F0.9973
tp4818
asI874
(lp4819
(S'oh'
p4820
g37
F0.9955
tp4821
a(S'there'
p4822
g10
F0.5101
tp4823
a(g5
g6
F0.9981
tp4824
asI877
(lp4825
(S'that'
p4826
g16
F0.6972
tp4827
a(S'goes'
p4828
g13
F0.9983
tp4829
a(S'there'
p4830
g10
F0.6682
tp4831
a(S'huh'
p4832
g37
F0.9341
tp4833
a(g258
g6
F0.998
tp4834
asI880
(lp4835
(S'xxx'
p4836
g81
F0.8981
tp4837
a(g83
g6
F0.661
tp4838
a(g80
g81
F0.3811
tp4839
a(g86
g6
F0.7604
tp4840
a(g5
g6
F0.9962
tp4841
asI882
(lp4842
(g75
g76
F0.9478
tp4843
a(S'there'
p4844
g3386
F0.5973
tp4845
a(S'we'
p4846
g16
F0.996
tp4847
a(S'go'
p4848
g13
F0.9957
tp4849
a(g80
g81
F0.3977
tp4850
a(g83
g81
F0.535
tp4851
a(g75
g76
F0.7057
tp4852
a(g86
g6
F0.9842
tp4853
a(g5
g6
F0.9969
tp4854
asI886
(lp4855
(S'mm'
p4856
g37
F0.5842
tp4857
a(g5
g6
F0.9932
tp4858
asI890
(lp4859
(S'how'
p4860
g10
F0.9957
tp4861
a(S'about'
p4862
g27
F0.9417
tp4863
a(S'xxx'
p4864
g81
F0.4102
tp4865
a(S'(.)'
p4866
g81
F0.9053
tp4867
a(g258
g6
F0.9747
tp4868
asI894
(lp4869
(S'you'
p4870
g16
F0.998
tp4871
a(S'got'
p4872
g13
F0.9998
tp4873
a(g404
g44
F0.9981
tp4874
a(S'bus'
p4875
g47
F0.983
tp4876
a(S'Johnny'
p4877
g30
F0.9956
tp4878
a(g258
g6
F0.9946
tp4879
asI898
(lp4880
(g75
g76
F0.9094
tp4881
a(S'an(d'
p4882
g63
F0.9355
tp4883
a(g65
g6
F0.9817
tp4884
a(g404
g44
F0.9937
tp4885
a(S'phone'
p4886
g47
F0.9993
tp4887
a(g80
g81
F0.7244
tp4888
a(g83
g81
F0.5345
tp4889
a(g80
g81
F0.9532
tp4890
a(g86
g6
F0.6924
tp4891
a(S'(.)'
p4892
g138
F0.3668
tp4893
a(g258
g6
F0.9898
tp4894
asI902
(lp4895
(S'zzz'
p4896
g138
F0.409
tp4897
a(g83
g6
F0.9451
tp4898
a(g75
g76
F0.972
tp4899
a(g86
g6
F0.9847
tp4900
a(g5
g6
F0.9962
tp4901
asI906
(lp4902
(g2
g3
F0.9876
tp4903
a(g5
g6
F0.9949
tp4904
asI908
(lp4905
(S'talk'
p4906
g13
F0.9201
tp4907
a(S'on'
p4908
g27
F0.9912
tp4909
a(S'the'
p4910
g44
F0.9994
tp4911
a(S'phone'
p4912
g47
F0.999
tp4913
a(g258
g6
F0.9984
tp4914
asI911
(lp4915
(S'you'
p4916
g16
F0.9983
tp4917
a(S'know'
p4918
g13
F0.9988
tp4919
a(S'how'
p4920
g10
F0.9927
tp4921
a(S'to'
p4922
g27
F0.9757
tp4923
a(S'do'
p4924
g13
F1.0
tp4925
a(S'it'
p4926
g16
F0.9913
tp4927
a(S'(.)'
p4928
g6
F0.2563
tp4929
a(g5
g6
F0.996
tp4930
asI915
(lp4931
(S'think'
p4932
g13
F0.9927
tp4933
a(S'we'
p4934
g16
F0.9974
tp4935
a(S'try'
p4936
g13
F0.9992
tp4937
a(S'that'
p4938
g16
F0.445
tp4939
a(S'(.)'
p4940
g81
F0.2729
tp4941
a(g258
g6
F0.9618
tp4942
asI919
(lp4943
(S'Tanya'
p4944
g30
F0.9794
tp4945
a(S'here'
p4946
g10
F0.9484
tp4947
a(S'try'
p4948
g13
F0.9732
tp4949
a(S'that'
p4950
g44
F0.5921
tp4951
a(S'one'
p4952
g3
F0.839
tp4953
a(g5
g6
F0.9968
tp4954
asI922
(lp4955
(S'what'
p4956
g16
F0.7764
tp4957
a(S'one'
p4958
g3
F0.8417
tp4959
a(g258
g6
F0.9957
tp4960
asI925
(lp4961
(S'black'
p4962
g209
F0.9175
tp4963
a(S'piece'
p4964
g47
F0.9949
tp4965
a(S'(.)'
p4966
g138
F0.2752
tp4967
a(g5
g6
F0.9919
tp4968
asI928
(lp4969
(g174
g16
F0.9983
tp4970
a(S'want'
p4971
g13
F1.0
tp4972
a(S'this'
p4973
g16
F0.9198
tp4974
a(g5
g6
F0.9987
tp4975
asI933
(lp4976
(S'then'
p4977
g10
F0.9654
tp4978
a(S'get'
p4979
g13
F0.9987
tp4980
a(S'the'
p4981
g44
F0.9996
tp4982
a(S'other'
p4983
g209
F0.9966
tp4984
a(S'one'
p4985
g3
F0.9437
tp4986
a(g5
g6
F0.9968
tp4987
asI936
(lp4988
(S'xxx'
p4989
g81
F0.8981
tp4990
a(g83
g6
F0.661
tp4991
a(g80
g81
F0.3811
tp4992
a(g86
g6
F0.7604
tp4993
a(g5
g6
F0.9962
tp4994
asI937
(lp4995
(S'xxx'
p4996
g81
F0.8981
tp4997
a(g83
g6
F0.8619
tp4998
a(S'<][>'
p4999
g81
F0.2489
tp5000
a(g86
g6
F0.862
tp5001
a(g5
g6
F0.9962
tp5002
asI938
(lp5003
(g75
g76
F0.9117
tp5004
a(S"I'm"
p5005
g374
F0.9953
tp5006
a(S'gettin(g'
p5007
g13
F0.9691
tp5008
a(g65
g6
F0.9524
tp5009
a(g34
g6
F0.9807
tp5010
a(S'th)em'
p5011
g13
F0.2711
tp5012
a(S'both'
p5013
g16
F0.5473
tp5014
a(g80
g81
F0.4506
tp5015
a(g83
g81
F0.535
tp5016
a(g75
g76
F0.8293
tp5017
a(g86
g6
F0.9716
tp5018
a(S'(.)'
p5019
g138
F0.2586
tp5020
a(g5
g6
F0.9891
tp5021
asI941
(lp5022
(S"I'm"
p5023
g374
F0.9834
tp5024
a(g83
g6
F0.9665
tp5025
a(g37
g6
F0.9842
tp5026
a(g86
g6
F0.9885
tp5027
a(S'playing'
p5028
g13
F0.9995
tp5029
a(S'with'
p5030
g27
F0.9975
tp5031
a(S'that'
p5032
g16
F0.508
tp5033
a(S'(.)'
p5034
g30
F0.2116
tp5035
a(g5
g6
F0.9959
tp5036
asI944
(lp5037
(S'xxx'
p5038
g81
F0.5822
tp5039
a(g5
g6
F0.9648
tp5040
asI946
(lp5041
(g34
g6
F0.9422
tp5042
a(S'di)d'
p5043
g13
F0.9924
tp5044
a(S'you'
p5045
g16
F0.9992
tp5046
a(S'find'
p5047
g13
F0.9979
tp5048
a(S'one'
p5049
g3
F0.9053
tp5050
a(S'(.)'
p5051
g81
F0.4581
tp5052
a(g258
g6
F0.9711
tp5053
asI949
(lp5054
(S'here'
p5055
g10
F0.8123
tp5056
a(S'the'
p5057
g44
F0.9982
tp5058
a(S'black'
p5059
g209
F0.9783
tp5060
a(S'one'
p5061
g3
F0.7989
tp5062
a(g5
g6
F0.9977
tp5063
asI952
(lp5064
(S'mm'
p5065
g37
F0.3992
tp5066
a(S'how'
p5067
g10
F0.9549
tp5068
a(g34
g6
F0.9778
tp5069
a(S'a)bout'
p5070
g27
F0.9389
tp5071
a(S'that'
p5072
g16
F0.9485
tp5073
a(S'here'
p5074
g10
F0.9838
tp5075
a(g258
g6
F0.9985
tp5076
asI955
(lp5077
(S'zzz'
p5078
g37
F0.3756
tp5079
a(g5
g6
F0.9972
tp5080
asI959
(lp5081
(S'well'
p5082
g37
F0.9502
tp5083
a(S'that'
p5084
g44
F0.3996
tp5085
a(S'one'
p5086
g3
F0.7593
tp5087
a(S'was'
p5088
g13
F0.9866
tp5089
a(S'right'
p5090
g10
F0.7399
tp5091
a(S'(.)'
p5092
g30
F0.4324
tp5093
a(g5
g6
F0.9934
tp5094
asI962
(lp5095
(g174
g16
F0.9982
tp5096
a(S'think'
p5097
g13
F0.9999
tp5098
a(S'that'
p5099
g44
F0.4328
tp5100
a(S'one'
p5101
g3
F0.8071
tp5102
a(S'was'
p5103
g13
F0.9739
tp5104
a(S'okay'
p5105
g209
F0.7545
tp5106
a(g5
g6
F0.9978
tp5107
asI2146
(lp5108
(S'zzz'
p5109
g138
F0.5434
tp5110
a(S'(.)'
p5111
g138
F0.453
tp5112
a(g5
g6
F0.9899
tp5113
asI966
(lp5114
(S'you'
p5115
g16
F0.998
tp5116
a(S'took'
p5117
g13
F0.9998
tp5118
a(S'that'
p5119
g44
F0.6448
tp5120
a(S'black'
p5121
g209
F0.9363
tp5122
a(S'piece'
p5123
g47
F0.9949
tp5124
a(S'out'
p5125
g27
F0.5857
tp5126
a(g258
g6
F0.9972
tp5127
asI969
(lp5128
(S'just'
p5129
g10
F0.9992
tp5130
a(S'stretches'
p5131
g13
F0.9993
tp5132
a(S'out'
p5133
g27
F0.6182
tp5134
a(S'of'
p5135
g27
F0.9667
tp5136
a(S'shape'
p5137
g47
F0.9747
tp5138
a(g5
g6
F0.9971
tp5139
asI2551
(lp5140
(S'fun'
p5141
g47
F0.7059
tp5142
a(g83
g6
F0.9843
tp5143
a(g80
g81
F0.3811
tp5144
a(g86
g6
F0.7604
tp5145
a(g5
g6
F0.9962
tp5146
asI972
(lp5147
(S"that's"
p5148
g374
F0.9937
tp5149
a(S'too'
p5150
g10
F0.9979
tp5151
a(S'bad'
p5152
g209
F0.9948
tp5153
a(g5
g6
F0.9981
tp5154
asI975
(lp5155
(S'oh'
p5156
g37
F0.9975
tp5157
a(S'yeah'
p5158
g37
F0.9991
tp5159
a(g83
g6
F0.9769
tp5160
a(g80
g81
F0.4857
tp5161
a(g86
g6
F0.6188
tp5162
a(S'(.)'
p5163
g81
F0.3182
tp5164
a(g5
g6
F0.9632
tp5165
asI979
(lp5166
(g75
g76
F0.9001
tp5167
a(S'you'
p5168
g16
F0.9985
tp5169
a(S'know'
p5170
g13
F0.9978
tp5171
a(g80
g81
F0.5556
tp5172
a(g83
g81
F0.535
tp5173
a(g75
g76
F0.6902
tp5174
a(g86
g6
F0.9839
tp5175
a(g5
g6
F0.9962
tp5176
asI982
(lp5177
(S'Mom'
p5178
g47
F0.9095
tp5179
a(g5
g6
F0.9981
tp5180
asI2283
(lp5181
(g75
g76
F0.9775
tp5182
a(S'okay'
p5183
g37
F0.8622
tp5184
a(S'talk'
p5185
g13
F0.8878
tp5186
a(S'to'
p5187
g27
F0.9907
tp5188
a(g80
g81
F0.3347
tp5189
a(g83
g81
F0.5345
tp5190
a(g80
g81
F0.9532
tp5191
a(g86
g6
F0.7415
tp5192
a(S'Johnny'
p5193
g30
F0.9941
tp5194
a(S'then'
p5195
g10
F0.9868
tp5196
a(g5
g6
F0.9968
tp5197
asI986
(lp5198
(S'what'
p5199
g16
F0.9171
tp5200
a(g258
g6
F0.9924
tp5201
asI2215
(lp5202
(S'okay'
p5203
g37
F0.9183
tp5204
a(S"we'll"
p5205
g374
F0.9738
tp5206
a(S'put'
p5207
g13
F0.9987
tp5208
a(S'those'
p5209
g44
F0.5376
tp5210
a(g75
g76
F0.7611
tp5211
a(S'in'
p5212
g27
F0.9949
tp5213
a(S'the'
p5214
g44
F0.9993
tp5215
a(S'dish'
p5216
g47
F0.9983
tp5217
a(g80
g81
F0.3522
tp5218
a(S'[//]'
p5219
g81
F0.7743
tp5220
a(g75
g76
F0.762
tp5221
a(S'in'
p5222
g27
F0.9949
tp5223
a(S'the'
p5224
g44
F0.9913
tp5225
a(g80
g138
F0.2983
tp5226
a(S'[//]'
p5227
g138
F0.3689
tp5228
a(S'to'
p5229
g27
F0.9915
tp5230
a(S'be'
p5231
g13
F0.9994
tp5232
a(S'washed'
p5233
g13
F0.6443
tp5234
a(g5
g6
F0.9981
tp5235
asI991
(lp5236
(S'you'
p5237
g16
F0.9963
tp5238
a(S'go'
p5239
g13
F0.9899
tp5240
a(S't_t'
p5241
g81
F0.275
tp5242
a(g735
g27
F0.5278
tp5243
a(S'do'
p5244
g13
F0.9981
tp5245
a(S'the'
p5246
g44
F0.9991
tp5247
a(S'black'
p5248
g209
F0.9345
tp5249
a(S'piece'
p5250
g47
F0.9987
tp5251
a(g5
g6
F0.9983
tp5252
asI994
(lp5253
(S'that'
p5254
g16
F0.8288
tp5255
a(S'was'
p5256
g13
F0.9991
tp5257
a(S'right'
p5258
g10
F0.5661
tp5259
a(S'(.)'
p5260
g30
F0.3556
tp5261
a(g5
g6
F0.9943
tp5262
asI999
(lp5263
(S'okay'
p5264
g37
F0.8855
tp5265
a(S"let's"
p5266
g374
F0.9927
tp5267
a(S'see'
p5268
g13
F0.9938
tp5269
a(S'(.)'
p5270
g30
F0.4281
tp5271
a(g5
g6
F0.9943
tp5272
asI1003
(lp5273
(S'or'
p5274
g63
F0.9851
tp5275
a(g75
g76
F0.6975
tp5276
a(S'maybe'
p5277
g10
F0.9659
tp5278
a(S'she'
p5279
g16
F0.9968
tp5280
a(g80
g138
F0.4031
tp5281
a(S'[/]'
p5282
g6
F0.2907
tp5283
a(S'maybe'
p5284
g10
F0.9701
tp5285
a(S'she'
p5286
g16
F0.9979
tp5287
a(S'can'
p5288
g13
F0.9994
tp5289
a(S'help'
p5290
g13
F0.9998
tp5291
a(S'me'
p5292
g16
F0.9984
tp5293
a(S'with'
p5294
g27
F0.9992
tp5295
a(S'the'
p5296
g44
F0.9995
tp5297
a(S'pu(zzle'
p5298
g47
F0.9941
tp5299
a(g65
g6
F0.9874
tp5300
a(S'[///]'
p5301
g6
F0.4055
tp5302
a(g174
g16
F0.9978
tp5303
a(S"don't"
p5304
g13
F1.0
tp5305
a(S'know'
p5306
g13
F0.9999
tp5307
a(S'if'
p5308
g27
F0.9969
tp5309
a(g174
g16
F0.9993
tp5310
a(S'can'
p5311
g13
F0.9999
tp5312
a(S'figure'
p5313
g13
F0.9986
tp5314
a(S'out'
p5315
g52
F0.9237
tp5316
a(S'anymore'
p5317
g10
F0.9653
tp5318
a(S'of'
p5319
g27
F0.9976
tp5320
a(S'it'
p5321
g16
F0.997
tp5322
a(g5
g6
F0.9987
tp5323
asI1012
(lp5324
(S"let's"
p5325
g374
F0.9812
tp5326
a(S'see'
p5327
g13
F0.9876
tp5328
a(g5
g6
F0.9974
tp5329
asI1016
(lp5330
(S'figure'
p5331
g13
F0.7945
tp5332
a(S'anymore'
p5333
g10
F0.9945
tp5334
a(S'out'
p5335
g27
F0.5345
tp5336
a(S'(.)'
p5337
g30
F0.4779
tp5338
a(g5
g6
F0.9943
tp5339
asI1022
(lp5340
(S'zzz'
p5341
g37
F0.3756
tp5342
a(g5
g6
F0.9972
tp5343
asI1026
(lp5344
(S'telephone'
p5345
g47
F0.9245
tp5346
a(g5
g6
F0.9968
tp5347
asI1029
(lp5348
(g75
g76
F0.9147
tp5349
a(S'could'
p5350
g13
F0.995
tp5351
a(S'have'
p5352
g13
F0.9997
tp5353
a(g404
g44
F0.9986
tp5354
a(S'conversation'
p5355
g47
F0.9997
tp5356
a(g80
g81
F0.5323
tp5357
a(g83
g81
F0.535
tp5358
a(g75
g76
F0.8293
tp5359
a(g86
g6
F0.9284
tp5360
a(g83
g6
F0.9615
tp5361
a(g80
g81
F0.4438
tp5362
a(g86
g6
F0.8379
tp5363
a(S'with'
p5364
g27
F0.9985
tp5365
a(S'each'
p5366
g44
F0.9931
tp5367
a(S'other'
p5368
g209
F0.9246
tp5369
a(S'too'
p5370
g10
F0.978
tp5371
a(g5
g6
F0.9961
tp5372
asI2220
(lp5373
(S'zzz'
p5374
g37
F0.3756
tp5375
a(g5
g6
F0.9972
tp5376
asI1035
(lp5377
(S'mine'
p5378
g16
F0.8022
tp5379
a(g5
g6
F0.9966
tp5380
asI1038
(lp5381
(S'six'
p5382
g3
F0.6372
tp5383
a(g5
g6
F0.9967
tp5384
asI1041
(lp5385
(S'Mo(m'
p5386
g47
F0.6988
tp5387
a(g65
g6
F0.9908
tp5388
a(g5
g6
F0.9958
tp5389
asI1044
(lp5390
(S'zzz'
p5391
g37
F0.3756
tp5392
a(g5
g6
F0.9972
tp5393
asI1048
(lp5394
(S'Mom'
p5395
g47
F0.7189
tp5396
a(S"who's"
p5397
g374
F0.9739
tp5398
a(S'got'
p5399
g13
F0.9987
tp5400
a(S'it'
p5401
g16
F0.9676
tp5402
a(g258
g6
F0.999
tp5403
asI1052
(lp5404
(S'mine'
p5405
g16
F0.9086
tp5406
a(S'(.)'
p5407
g81
F0.3111
tp5408
a(g5
g6
F0.9705
tp5409
asI1055
(lp5410
(S'zzz'
p5411
g138
F0.5434
tp5412
a(S'(.)'
p5413
g138
F0.453
tp5414
a(g5
g6
F0.9899
tp5415
asI1059
(lp5416
(S'one'
p5417
g3
F0.9677
tp5418
a(S'more'
p5419
g209
F0.9016
tp5420
a(g5
g6
F0.9985
tp5421
asI1062
(lp5422
(S'can'
p5423
g13
F0.999
tp5424
a(S'you'
p5425
g16
F0.9987
tp5426
a(S'try'
p5427
g13
F0.9994
tp5428
a(S'that'
p5429
g44
F0.5953
tp5430
a(S'one'
p5431
g3
F0.8905
tp5432
a(S'(.)'
p5433
g81
F0.4581
tp5434
a(g258
g6
F0.9711
tp5435
asI1066
(lp5436
(S'here'
p5437
g10
F0.8674
tp5438
a(g5
g6
F0.9983
tp5439
asI1069
(lp5440
(S'zzz'
p5441
g37
F0.3756
tp5442
a(g5
g6
F0.9972
tp5443
asI1073
(lp5444
(S'zzz'
p5445
g37
F0.3756
tp5446
a(g5
g6
F0.9972
tp5447
asI1077
(lp5448
(S'zzz'
p5449
g37
F0.3756
tp5450
a(g5
g6
F0.9972
tp5451
asI1081
(lp5452
(S'xxx'
p5453
g81
F0.7647
tp5454
a(S'(.)'
p5455
g81
F0.8124
tp5456
a(g5
g6
F0.9705
tp5457
asI1083
(lp5458
(S'you'
p5459
g16
F0.9923
tp5460
a(S'like'
p5461
g13
F0.8526
tp5462
a(S'that'
p5463
g44
F0.6878
tp5464
a(S'puzzle'
p5465
g47
F0.9837
tp5466
a(S'Tanya'
p5467
g30
F0.9792
tp5468
a(S'(.)'
p5469
g30
F0.7934
tp5470
a(g258
g6
F0.9948
tp5471
asI1086
(lp5472
(S'no'
p5473
g37
F0.9704
tp5474
a(g5
g6
F0.9989
tp5475
asI1089
(lp5476
(S'that'
p5477
g27
F0.6793
tp5478
a(S'all'
p5479
g44
F0.5919
tp5480
a(S'you'
p5481
g16
F0.999
tp5482
a(S'know'
p5483
g13
F0.996
tp5484
a(S'(.)'
p5485
g30
F0.3171
tp5486
a(g258
g6
F0.9934
tp5487
asI1092
(lp5488
(g2
g3
F0.9876
tp5489
a(g5
g6
F0.9949
tp5490
asI1094
(lp5491
(S'we'
p5492
g16
F0.9973
tp5493
a(S'have'
p5494
g13
F0.9987
tp5495
a(S'plenty'
p5496
g47
F0.9895
tp5497
a(S'of'
p5498
g27
F0.9961
tp5499
a(S'blocks'
p5500
g47
F0.8663
tp5501
a(S'here'
p5502
g10
F0.9606
tp5503
a(S'(.)'
p5504
g6
F0.2229
tp5505
a(g5
g6
F0.996
tp5506
asI1097
(lp5507
(S'what'
p5508
g16
F0.9171
tp5509
a(g258
g6
F0.9924
tp5510
asI1101
(lp5511
(S'we'
p5512
g16
F0.9973
tp5513
a(S'have'
p5514
g13
F0.9998
tp5515
a(S'some'
p5516
g44
F0.996
tp5517
a(S'tea'
p5518
g47
F0.9453
tp5519
a(S'cups'
p5520
g47
F0.9987
tp5521
a(S'and'
p5522
g63
F0.9981
tp5523
a(S'spoons'
p5524
g47
F0.8793
tp5525
a(g75
g76
F0.6538
tp5526
a(S'and'
p5527
g63
F0.9996
tp5528
a(g404
g44
F0.9936
tp5529
a(S'pitcher'
p5530
g47
F0.9976
tp5531
a(g80
g81
F0.628
tp5532
a(g83
g81
F0.5345
tp5533
a(g80
g81
F0.9625
tp5534
a(g86
g6
F0.7995
tp5535
a(g5
g6
F0.9972
tp5536
asI1107
(lp5537
(g75
g76
F0.9359
tp5538
a(S'wan(t'
p5539
g13
F0.978
tp5540
a(g65
g6
F0.9323
tp5541
a(g34
g6
F0.9591
tp5542
a(S't)a'
p5543
g27
F0.7742
tp5544
a(S'play'
p5545
g13
F0.9665
tp5546
a(S'with'
p5547
g27
F0.9991
tp5548
a(S'those'
p5549
g16
F0.5377
tp5550
a(g80
g81
F0.4541
tp5551
a(g83
g81
F0.535
tp5552
a(g75
g76
F0.7713
tp5553
a(g86
g6
F0.9569
tp5554
a(g258
g6
F0.9952
tp5555
asI1110
(lp5556
(S'we'
p5557
g16
F0.9973
tp5558
a(S'have'
p5559
g13
F0.9999
tp5560
a(g404
g44
F0.9983
tp5561
a(S'dinosaur'
p5562
g47
F0.9977
tp5563
a(S'(.)'
p5564
g81
F0.33
tp5565
a(g5
g6
F0.9509
tp5566
asI1113
(lp5567
(S'are'
p5568
g13
F0.9964
tp5569
a(S'you'
p5570
g16
F0.9992
tp5571
a(S'getting'
p5572
g13
F1.0
tp5573
a(S'your'
p5574
g44
F0.9931
tp5575
a(S'own'
p5576
g209
F0.5164
tp5577
a(S'toy'
p5578
g47
F0.9619
tp5579
a(S'(.)'
p5580
g81
F0.4607
tp5581
a(g258
g6
F0.9768
tp5582
asI1117
(lp5583
(S'zzz'
p5584
g37
F0.3756
tp5585
a(g5
g6
F0.9972
tp5586
asI1121
(lp5587
(S'zzz'
p5588
g37
F0.3756
tp5589
a(g5
g6
F0.9972
tp5590
asI1125
(lp5591
(g34
g6
F0.9613
tp5592
a(S'o)kay'
p5593
g37
F0.6209
tp5594
a(S"that's"
p5595
g374
F0.9899
tp5596
a(S'it'
p5597
g16
F0.9954
tp5598
a(S'on'
p5599
g27
F0.9274
tp5600
a(S'that'
p5601
g44
F0.7798
tp5602
a(S'one'
p5603
g3
F0.8857
tp5604
a(S'huh'
p5605
g37
F0.8805
tp5606
a(S'(.)'
p5607
g81
F0.2592
tp5608
a(g258
g6
F0.9751
tp5609
asI2236
(lp5610
(S"we'll"
p5611
g374
F0.9695
tp5612
a(S'talk'
p5613
g13
F0.9967
tp5614
a(S'on'
p5615
g27
F0.9832
tp5616
a(S'the'
p5617
g44
F0.9995
tp5618
a(S'phone'
p5619
g47
F0.9957
tp5620
a(S'(.)'
p5621
g81
F0.4514
tp5622
a(g5
g6
F0.9632
tp5623
asI1130
(lp5624
(S'oh'
p5625
g37
F0.9936
tp5626
a(S'look'
p5627
g13
F0.913
tp5628
a(S'at'
p5629
g27
F0.9935
tp5630
a(S'that'
p5631
g16
F0.9224
tp5632
a(g5
g6
F0.9988
tp5633
asI1133
(lp5634
(S'Chutes'
p5635
g47
F0.4398
tp5636
a(S'an(d'
p5637
g63
F0.8903
tp5638
a(g65
g6
F0.9732
tp5639
a(S'[///]'
p5640
g6
F0.3933
tp5641
a(S'oops_a_daisy'
p5642
g37
F0.9849
tp5643
a(g5
g6
F0.9962
tp5644
asI1137
(lp5645
(S'awoh'
p5646
g37
F0.4558
tp5647
a(g5
g6
F0.9969
tp5648
asI1141
(lp5649
(S'Chutes'
p5650
g47
F0.4398
tp5651
a(S'an(d'
p5652
g63
F0.8903
tp5653
a(g65
g6
F0.9776
tp5654
a(S'Ladders'
p5655
g30
F0.5168
tp5656
a(g5
g6
F0.9977
tp5657
asI1144
(lp5658
(S'okay'
p5659
g37
F0.9741
tp5660
a(g5
g6
F0.9977
tp5661
asI1147
(lp5662
(S'do'
p5663
g13
F0.9985
tp5664
a(S'you'
p5665
g16
F0.9993
tp5666
a(S'play'
p5667
g13
F0.9989
tp5668
a(S'with'
p5669
g27
F0.9972
tp5670
a(S'that'
p5671
g16
F0.8627
tp5672
a(S'with'
p5673
g27
F0.9988
tp5674
a(S'your'
p5675
g44
F0.9963
tp5676
a(S'mom'
p5677
g47
F0.9849
tp5678
a(g404
g44
F0.9706
tp5679
a(S'lot'
p5680
g47
F0.7597
tp5681
a(S'Tanya'
p5682
g30
F0.9874
tp5683
a(g258
g6
F0.9941
tp5684
asI1152
(lp5685
(S'Chutes'
p5686
g47
F0.4398
tp5687
a(S'an(d'
p5688
g63
F0.8903
tp5689
a(g65
g6
F0.9776
tp5690
a(S'Ladders'
p5691
g30
F0.615
tp5692
a(g258
g6
F0.9982
tp5693
asI1155
(lp5694
(S'no'
p5695
g37
F0.8168
tp5696
a(S'(.)'
p5697
g47
F0.5347
tp5698
a(g5
g6
F0.9976
tp5699
asI1158
(lp5700
(g2
g3
F0.9876
tp5701
a(g5
g6
F0.9949
tp5702
asI1160
(lp5703
(S'do'
p5704
g13
F0.9985
tp5705
a(S'you'
p5706
g16
F0.9992
tp5707
a(S'ever'
p5708
g10
F0.9881
tp5709
a(S'talk'
p5710
g13
F0.9949
tp5711
a(S'on'
p5712
g27
F0.991
tp5713
a(S'the'
p5714
g44
F0.9995
tp5715
a(S'phone'
p5716
g47
F0.9984
tp5717
a(S'with'
p5718
g27
F0.9998
tp5719
a(S'your'
p5720
g44
F0.996
tp5721
a(S'mom'
p5722
g47
F0.9923
tp5723
a(g258
g6
F0.9984
tp5724
asI1165
(lp5725
(S'like'
p5726
g13
F0.3873
tp5727
a(S'on'
p5728
g27
F0.9838
tp5729
a(S'these'
p5730
g44
F0.9837
tp5731
a(S'special'
p5732
g209
F0.9807
tp5733
a(S'kinds'
p5734
g47
F0.9955
tp5735
a(S'of'
p5736
g27
F0.9964
tp5737
a(S'phones'
p5738
g47
F0.9837
tp5739
a(g258
g6
F0.9984
tp5740
asI1170
(lp5741
(S'nah'
p5742
g37
F0.9666
tp5743
a(g83
g6
F0.9837
tp5744
a(g80
g81
F0.3811
tp5745
a(g86
g6
F0.7604
tp5746
a(g5
g6
F0.9962
tp5747
asI1173
(lp5748
(g75
g76
F0.9359
tp5749
a(S'wan(t'
p5750
g13
F0.978
tp5751
a(g65
g6
F0.9323
tp5752
a(g34
g6
F0.9591
tp5753
a(S't)a'
p5754
g27
F0.3061
tp5755
a(g80
g81
F0.4949
tp5756
a(g83
g81
F0.535
tp5757
a(g75
g76
F0.8293
tp5758
a(g86
g6
F0.9854
tp5759
a(S'talk'
p5760
g13
F0.9638
tp5761
a(S'on'
p5762
g27
F0.991
tp5763
a(S'the'
p5764
g44
F0.9995
tp5765
a(S'phone'
p5766
g47
F0.9985
tp5767
a(g258
g6
F0.999
tp5768
asI1176
(lp5769
(S'Tanya'
p5770
g30
F0.9933
tp5771
a(S'look'
p5772
g13
F0.9505
tp5773
a(S'at'
p5774
g27
F0.9987
tp5775
a(S'these'
p5776
g16
F0.5438
tp5777
a(g5
g6
F0.9987
tp5778
asI1179
(lp5779
(S'we'
p5780
g16
F0.9973
tp5781
a(S'have'
p5782
g13
F0.996
tp5783
a(S'one'
p5784
g3
F0.9007
tp5785
a(S'phone'
p5786
g47
F0.9975
tp5787
a(S'for'
p5788
g27
F0.9993
tp5789
a(g75
g76
F0.9091
tp5790
a(S'each'
p5791
g44
F0.6051
tp5792
a(g80
g81
F0.3623
tp5793
a(g83
g81
F0.5345
tp5794
a(g80
g81
F0.9532
tp5795
a(g86
g6
F0.8371
tp5796
a(S'of'
p5797
g27
F0.9926
tp5798
a(S'you'
p5799
g16
F0.9988
tp5800
a(g5
g6
F0.9997
tp5801
asI1184
(lp5802
(S'oh'
p5803
g37
F0.9941
tp5804
a(g83
g6
F0.9747
tp5805
a(g75
g76
F0.972
tp5806
a(g86
g6
F0.9847
tp5807
a(g5
g6
F0.9962
tp5808
asI1187
(lp5809
(S'see'
p5810
g13
F0.9659
tp5811
a(S'that'
p5812
g27
F0.4516
tp5813
a(g258
g6
F0.9973
tp5814
asI1190
(lp5815
(S'xxx'
p5816
g81
F0.5822
tp5817
a(g5
g6
F0.9648
tp5818
asI1191
(lp5819
(S'cars'
p5820
g47
F0.9621
tp5821
a(S'Tanya'
p5822
g30
F0.975
tp5823
a(g258
g6
F0.9958
tp5824
asI2290
(lp5825
(S'an(d'
p5826
g63
F0.8847
tp5827
a(g65
g6
F0.9897
tp5828
a(S'you'
p5829
g16
F0.9886
tp5830
a(S'answer'
p5831
g13
F0.9967
tp5832
a(S'it'
p5833
g16
F0.9796
tp5834
a(S'hello'
p5835
g37
F0.886
tp5836
a(g5
g6
F0.9975
tp5837
asI1194
(lp5838
(S'want'
p5839
g13
F0.9988
tp5840
a(S'your'
p5841
g44
F0.9708
tp5842
a(S'Sesame'
p5843
g47
F0.6744
tp5844
a(S'Street'
p5845
g47
F0.8748
tp5846
a(S'cars'
p5847
g47
F0.9989
tp5848
a(g258
g6
F0.998
tp5849
asI1198
(lp5850
(S'we'
p5851
g16
F0.9973
tp5852
a(S'have'
p5853
g13
F0.9998
tp5854
a(S'some'
p5855
g44
F0.9208
tp5856
a(g198
g138
F0.455
tp5857
a(S'...'
p5858
g76
F0.6673
tp5859
asI1201
(lp5860
(g2
g3
F0.9876
tp5861
a(g5
g6
F0.9949
tp5862
asI1203
(lp5863
(S'Tanya'
p5864
g30
F0.987
tp5865
a(S'why'
p5866
g10
F0.948
tp5867
a(S"don't"
p5868
g13
F0.9999
tp5869
a(S'you'
p5870
g16
F0.9981
tp5871
a(S'and'
p5872
g63
F0.9928
tp5873
a(S'your'
p5874
g44
F0.9359
tp5875
a(S'mom'
p5876
g47
F0.9947
tp5877
a(S'play'
p5878
g13
F0.9956
tp5879
a(S'with'
p5880
g27
F0.9989
tp5881
a(S'some'
p5882
g44
F0.9096
tp5883
a(S'of'
p5884
g27
F0.9979
tp5885
a(S'the'
p5886
g44
F0.9996
tp5887
a(S'toys'
p5888
g47
F0.9963
tp5889
a(S'we'
p5890
g16
F0.988
tp5891
a(S'brought'
p5892
g13
F0.9984
tp5893
a(S'here'
p5894
g10
F0.9712
tp5895
a(g5
g6
F0.9981
tp5896
asI1210
(lp5897
(S'that'
p5898
g16
F0.7298
tp5899
a(S'might'
p5900
g13
F0.997
tp5901
a(S'be'
p5902
g13
F0.9993
tp5903
a(S'really'
p5904
g10
F0.9931
tp5905
a(S'fun'
p5906
g209
F0.8735
tp5907
a(g5
g6
F0.9976
tp5908
asI1213
(lp5909
(S"you've"
p5910
g374
F0.9737
tp5911
a(S'never'
p5912
g10
F0.9933
tp5913
a(S'seen'
p5914
g13
F0.9986
tp5915
a(S'these'
p5916
g44
F0.9914
tp5917
a(S'toys'
p5918
g47
F0.9975
tp5919
a(S'before'
p5920
g27
F0.9691
tp5921
a(S'(.)'
p5922
g30
F0.4535
tp5923
a(g5
g6
F0.9938
tp5924
asI1218
(lp5925
(S'huh'
p5926
g37
F0.9821
tp5927
a(S'(.)'
p5928
g37
F0.256
tp5929
a(g258
g6
F0.9967
tp5930
asI1221
(lp5931
(g34
g6
F0.9613
tp5932
a(S'o)kay'
p5933
g37
F0.5307
tp5934
a(S'Tanya'
p5935
g30
F0.9987
tp5936
a(g258
g6
F0.9964
tp5937
asI1224
(lp5938
(S'have'
p5939
g13
F0.9991
tp5940
a(S'you'
p5941
g16
F0.9993
tp5942
a(S'seen'
p5943
g13
F0.9997
tp5944
a(S'that'
p5945
g44
F0.8521
tp5946
a(S'baby'
p5947
g47
F0.9947
tp5948
a(S'bottle'
p5949
g47
F0.9722
tp5950
a(S'before'
p5951
g27
F0.8948
tp5952
a(g258
g6
F0.9933
tp5953
asI1228
(lp5954
(S'no'
p5955
g37
F0.9704
tp5956
a(g5
g6
F0.9989
tp5957
asI1231
(lp5958
(S'see'
p5959
g13
F0.8655
tp5960
a(S'look'
p5961
g13
F0.794
tp5962
a(S'(.)'
p5963
g30
F0.2786
tp5964
a(g5
g6
F0.9942
tp5965
asI1234
(lp5966
(S"it's"
p5967
g374
F0.9969
tp5968
a(S'right'
p5969
g209
F0.4916
tp5970
a(S'over'
p5971
g27
F0.9444
tp5972
a(S'there'
p5973
g10
F0.8881
tp5974
a(S'by'
p5975
g27
F0.9995
tp5976
a(S'the'
p5977
g44
F0.9988
tp5978
a(S'blocks'
p5979
g47
F0.9146
tp5980
a(S'(.)'
p5981
g138
F0.2622
tp5982
a(g5
g6
F0.9932
tp5983
asI1239
(lp5984
(g174
g16
F0.9974
tp5985
a(S'wonder'
p5986
g13
F0.9904
tp5987
a(S'how'
p5988
g10
F0.9876
tp5989
a(S'that'
p5990
g44
F0.7074
tp5991
a(S'game'
p5992
g47
F0.9927
tp5993
a(S'works'
p5994
g47
F0.5144
tp5995
a(g5
g6
F0.9988
tp5996
asI1242
(lp5997
(S'how'
p5998
g10
F0.975
tp5999
a(S'does'
p6000
g13
F0.9991
tp6001
a(S'that'
p6002
g44
F0.8328
tp6003
a(S'game'
p6004
g47
F0.9925
tp6005
a(S'work'
p6006
g47
F0.9713
tp6007
a(g258
g6
F0.9965
tp6008
asI1246
(lp6009
(S'excuse'
p6010
g13
F0.9751
tp6011
a(S'me'
p6012
g16
F0.9977
tp6013
a(S"I'm"
p6014
g374
F0.9944
tp6015
a(S'still'
p6016
g10
F0.9899
tp6017
a(S'gettin(g'
p6018
g13
F0.9855
tp6019
a(g65
g6
F0.9942
tp6020
a(S'over'
p6021
g27
F0.48
tp6022
a(g83
g6
F0.9833
tp6023
a(g80
g81
F0.4438
tp6024
a(g86
g6
F0.7915
tp6025
a(S'my'
p6026
g44
F0.9975
tp6027
a(S'head'
p6028
g47
F0.9857
tp6029
a(S'cold'
p6030
g209
F0.9333
tp6031
a(S'here'
p6032
g10
F0.9141
tp6033
a(g5
g6
F0.9986
tp6034
asI1252
(lp6035
(S'oh'
p6036
g37
F0.9941
tp6037
a(g83
g6
F0.9747
tp6038
a(g75
g76
F0.972
tp6039
a(g86
g6
F0.9847
tp6040
a(g5
g6
F0.9962
tp6041
asI2598
(lp6042
(g75
g76
F0.9112
tp6043
a(S'Mommy'
p6044
g47
F0.5708
tp6045
a(g80
g138
F0.4522
tp6046
a(g83
g6
F0.9218
tp6047
a(g80
g81
F0.5563
tp6048
a(g86
g6
F0.4947
tp6049
a(g258
g6
F0.9959
tp6050
asI1255
(lp6051
(S'okay'
p6052
g37
F0.9741
tp6053
a(g5
g6
F0.9977
tp6054
asI1259
(lp6055
(S'zzz'
p6056
g37
F0.3756
tp6057
a(g5
g6
F0.9972
tp6058
asI1263
(lp6059
(S'maybe'
p6060
g10
F0.9731
tp6061
a(S'when'
p6062
g10
F0.9656
tp6063
a(S'your'
p6064
g44
F0.9771
tp6065
a(S'mom'
p6066
g47
F0.9945
tp6067
a(S'comes'
p6068
g13
F0.9989
tp6069
a(S'back'
p6070
g10
F0.477
tp6071
a(S'you'
p6072
g16
F0.998
tp6073
a(S'can'
p6074
g13
F0.9997
tp6075
a(S'build'
p6076
g13
F0.9997
tp6077
a(S'something'
p6078
g47
F0.9901
tp6079
a(S'with'
p6080
g27
F0.9998
tp6081
a(S'her'
p6082
g44
F0.5275
tp6083
a(S'huh'
p6084
g37
F0.5658
tp6085
a(S'(.)'
p6086
g30
F0.3387
tp6087
a(g258
g6
F0.9949
tp6088
asI2259
(lp6089
(S"these'll"
p6090
g44
F0.7866
tp6091
a(S'be'
p6092
g13
F0.9035
tp6093
a(S'in'
p6094
g27
F0.9841
tp6095
a(S'the'
p6096
g44
F0.9982
tp6097
a(S'wash'
p6098
g47
F0.9918
tp6099
a(g5
g6
F0.9975
tp6100
asI1269
(lp6101
(g2
g3
F0.9876
tp6102
a(g5
g6
F0.9949
tp6103
asI1271
(lp6104
(S'okay'
p6105
g37
F0.9741
tp6106
a(g5
g6
F0.9977
tp6107
asI2286
(lp6108
(S'xxx'
p6109
g81
F0.8981
tp6110
a(g83
g6
F0.6622
tp6111
a(g75
g76
F0.9843
tp6112
a(g86
g6
F0.952
tp6113
a(S'xxx'
p6114
g81
F0.5406
tp6115
a(g5
g6
F0.9527
tp6116
asI1274
(lp6117
(S"I'll"
p6118
g374
F0.9867
tp6119
a(S'talk'
p6120
g13
F0.9976
tp6121
a(S'with'
p6122
g27
F0.9964
tp6123
a(S'Dad'
p6124
g47
F0.6789
tp6125
a(g5
g6
F0.9988
tp6126
asI1277
(lp6127
(S'do'
p6128
g13
F0.9985
tp6129
a(S'you'
p6130
g16
F0.9996
tp6131
a(S'wan(t'
p6132
g13
F0.9987
tp6133
a(g65
g6
F0.9958
tp6134
a(S'us'
p6135
g16
F0.9204
tp6136
a(S't(o'
p6137
g27
F0.4871
tp6138
a(g65
g6
F0.9812
tp6139
a(S'talk'
p6140
g13
F0.9446
tp6141
a(S'on'
p6142
g27
F0.991
tp6143
a(S'the'
p6144
g44
F0.9994
tp6145
a(S'phone'
p6146
g47
F0.9988
tp6147
a(g258
g6
F0.997
tp6148
asI1282
(lp6149
(S'do'
p6150
g13
F0.9985
tp6151
a(S'you'
p6152
g16
F0.9996
tp6153
a(S'wan(t'
p6154
g13
F0.9987
tp6155
a(g65
g6
F0.9958
tp6156
a(S'us'
p6157
g16
F0.9276
tp6158
a(S'to'
p6159
g27
F0.9708
tp6160
a(S'do'
p6161
g13
F0.9999
tp6162
a(S'that'
p6163
g44
F0.7482
tp6164
a(S'next'
p6165
g209
F0.7533
tp6166
a(g258
g6
F0.9977
tp6167
asI1287
(lp6168
(S'or'
p6169
g63
F0.9928
tp6170
a(S'we'
p6171
g16
F0.9978
tp6172
a(S'should'
p6173
g13
F0.9993
tp6174
a(S'&-uh'
p6175
g138
F0.5143
tp6176
a(g198
g138
F0.6636
tp6177
a(S'...'
p6178
g76
F0.7255
tp6179
asI1290
(lp6180
(S'you'
p6181
g16
F0.9969
tp6182
a(S'can'
p6183
g13
F0.9998
tp6184
a(S'play'
p6185
g13
F0.9997
tp6186
a(S'any'
p6187
g44
F0.9445
tp6188
a(S'[/]'
p6189
g6
F0.4178
tp6190
a(S'any'
p6191
g44
F0.8899
tp6192
a(S'[//]'
p6193
g47
F0.4124
tp6194
a(g83
g6
F0.9809
tp6195
a(g80
g81
F0.4696
tp6196
a(g86
g6
F0.795
tp6197
a(g5
g6
F0.9964
tp6198
asI1293
(lp6199
(g75
g76
F0.8901
tp6200
a(S'with'
p6201
g27
F0.9932
tp6202
a(S'blocks'
p6203
g47
F0.8703
tp6204
a(g80
g81
F0.6303
tp6205
a(g83
g81
F0.535
tp6206
a(g75
g76
F0.6902
tp6207
a(g86
g6
F0.9839
tp6208
a(g5
g6
F0.9962
tp6209
asI1296
(lp6210
(g75
g76
F0.8901
tp6211
a(S'with'
p6212
g27
F0.999
tp6213
a(S'any'
p6214
g44
F0.9575
tp6215
a(g80
g81
F0.4028
tp6216
a(g83
g81
F0.5345
tp6217
a(g80
g81
F0.9532
tp6218
a(g86
g6
F0.8371
tp6219
a(S'of'
p6220
g27
F0.9954
tp6221
a(S'the'
p6222
g44
F0.9996
tp6223
a(S'toys'
p6224
g47
F0.9963
tp6225
a(S'we'
p6226
g16
F0.988
tp6227
a(S'brought'
p6228
g13
F0.9993
tp6229
a(S'with'
p6230
g27
F0.9701
tp6231
a(g5
g6
F0.9975
tp6232
asI1301
(lp6233
(g75
g76
F0.9241
tp6234
a(S'do'
p6235
g13
F0.9991
tp6236
a(S'you'
p6237
g16
F0.9997
tp6238
a(S'wan(t'
p6239
g13
F0.9987
tp6240
a(g65
g6
F0.9419
tp6241
a(g34
g6
F0.9507
tp6242
a(S't)a'
p6243
g27
F0.3061
tp6244
a(g80
g138
F0.3336
tp6245
a(S'[/]'
p6246
g138
F0.3247
tp6247
a(g83
g6
F0.922
tp6248
a(g75
g76
F0.9506
tp6249
a(g86
g6
F0.9737
tp6250
a(g5
g6
F0.9952
tp6251
asI1302
(lp6252
(g75
g76
F0.9031
tp6253
a(S'your'
p6254
g44
F0.9682
tp6255
a(S'mom'
p6256
g47
F0.9942
tp6257
a(g80
g81
F0.6281
tp6258
a(g83
g81
F0.5345
tp6259
a(g80
g81
F0.9749
tp6260
a(g86
g6
F0.7541
tp6261
a(g5
g6
F0.9962
tp6262
asI2265
(lp6263
(S'zzz'
p6264
g37
F0.3756
tp6265
a(g5
g6
F0.9972
tp6266
asI1305
(lp6267
(g75
g76
F0.9241
tp6268
a(S'do'
p6269
g13
F0.9991
tp6270
a(S'you'
p6271
g16
F0.9997
tp6272
a(S'wan(t'
p6273
g13
F0.9987
tp6274
a(g65
g6
F0.9419
tp6275
a(g34
g6
F0.9507
tp6276
a(S't)a'
p6277
g27
F0.3061
tp6278
a(g80
g81
F0.4949
tp6279
a(g83
g81
F0.535
tp6280
a(g75
g76
F0.8293
tp6281
a(g86
g6
F0.9862
tp6282
a(S'make'
p6283
g13
F0.9953
tp6284
a(g404
g44
F0.9974
tp6285
a(S'house'
p6286
g47
F0.992
tp6287
a(S'or'
p6288
g63
F0.9927
tp6289
a(S'somethin(g'
p6290
g47
F0.9966
tp6291
a(g65
g6
F0.9926
tp6292
a(S'with'
p6293
g27
F0.9991
tp6294
a(S'the'
p6295
g44
F0.9993
tp6296
a(S'blocks'
p6297
g47
F0.9606
tp6298
a(S'then'
p6299
g10
F0.9917
tp6300
a(g258
g6
F0.9963
tp6301
asI1310
(lp6302
(S'wan(t'
p6303
g13
F0.9557
tp6304
a(g65
g6
F0.9434
tp6305
a(g34
g6
F0.94
tp6306
a(S't)a'
p6307
g27
F0.7888
tp6308
a(S'play'
p6309
g13
F0.9665
tp6310
a(S'with'
p6311
g27
F0.9994
tp6312
a(S'the'
p6313
g44
F0.9993
tp6314
a(S'blocks'
p6315
g47
F0.9579
tp6316
a(S'for'
p6317
g27
F0.9974
tp6318
a(S'awhile'
p6319
g10
F0.9395
tp6320
a(g258
g6
F0.9985
tp6321
asI1315
(lp6322
(S'or'
p6323
g63
F0.9924
tp6324
a(S'you'
p6325
g16
F0.9992
tp6326
a(S'wan(t)a'
p6327
g13
F0.9993
tp6328
a(S'@d'
p6329
g461
F0.9966
tp6330
a(g34
g6
F0.9375
tp6331
a(S't)a'
p6332
g27
F0.3021
tp6333
a(S'do'
p6334
g13
F0.997
tp6335
a(S'the'
p6336
g44
F0.999
tp6337
a(S'bus'
p6338
g47
F0.997
tp6339
a(g5
g6
F0.9989
tp6340
asI1318
(lp6341
(S'play'
p6342
g13
F0.9654
tp6343
a(S'with'
p6344
g27
F0.9989
tp6345
a(S'this'
p6346
g16
F0.5913
tp6347
a(S'[='
p6348
g81
F0.8821
tp6349
a(S'bus'
p6350
g47
F0.9565
tp6351
a(g86
g6
F0.9939
tp6352
a(g5
g6
F0.9959
tp6353
asI1321
(lp6354
(S'that'
p6355
g16
F0.4597
tp6356
a(S'(.)'
p6357
g138
F0.1857
tp6358
a(g5
g6
F0.9899
tp6359
asI1324
(lp6360
(S'oh'
p6361
g37
F0.9878
tp6362
a(S'you'
p6363
g16
F0.9966
tp6364
a(S'know'
p6365
g13
F0.9989
tp6366
a(S'what'
p6367
g16
F0.9804
tp6368
a(g174
g16
F0.9995
tp6369
a(S'know'
p6370
g13
F0.9995
tp6371
a(S'what'
p6372
g16
F0.9785
tp6373
a(S'you'
p6374
g16
F0.9991
tp6375
a(S'like'
p6376
g13
F0.7446
tp6377
a(g5
g6
F0.9973
tp6378
asI2269
(lp6379
(S'stop'
p6380
g13
F0.9419
tp6381
a(S'that'
p6382
g16
F0.9134
tp6383
a(g5
g6
F0.9986
tp6384
asI1329
(lp6385
(S'you'
p6386
g16
F0.998
tp6387
a(S'wan(t'
p6388
g13
F0.9988
tp6389
a(g65
g6
F0.9323
tp6390
a(g34
g6
F0.9591
tp6391
a(S't)a'
p6392
g27
F0.7743
tp6393
a(S'write'
p6394
g13
F0.9152
tp6395
a(S'for'
p6396
g27
F0.9896
tp6397
a(S'awhile'
p6398
g10
F0.9334
tp6399
a(S'on'
p6400
g27
F0.9977
tp6401
a(S'the'
p6402
g44
F0.9994
tp6403
a(S'paper'
p6404
g47
F0.9893
tp6405
a(S'an(d'
p6406
g63
F0.9337
tp6407
a(g65
g6
F0.981
tp6408
a(S'show'
p6409
g13
F0.7964
tp6410
a(S'her'
p6411
g16
F0.6692
tp6412
a(S'how'
p6413
g10
F0.9962
tp6414
a(S'you'
p6415
g16
F0.9997
tp6416
a(S'can'
p6417
g13
F0.9997
tp6418
a(S'make'
p6419
g13
F0.9998
tp6420
a(S'it'
p6421
g16
F0.7181
tp6422
a(g258
g6
F0.998
tp6423
asI1336
(lp6424
(S'zzz'
p6425
g138
F0.409
tp6426
a(g83
g6
F0.9395
tp6427
a(g80
g81
F0.3811
tp6428
a(g86
g6
F0.7604
tp6429
a(g5
g6
F0.9962
tp6430
asI1340
(lp6431
(S'yeah'
p6432
g37
F0.9951
tp6433
a(g83
g6
F0.9843
tp6434
a(g75
g76
F0.972
tp6435
a(g86
g6
F0.9847
tp6436
a(g5
g6
F0.9962
tp6437
asI1343
(lp6438
(S'mm'
p6439
g37
F0.5842
tp6440
a(g5
g6
F0.9932
tp6441
asI2272
(lp6442
(S'hey'
p6443
g37
F0.9937
tp6444
a(g83
g6
F0.9836
tp6445
a(g80
g81
F0.3811
tp6446
a(g86
g6
F0.551
tp6447
a(g37
g6
F0.997
tp6448
asI1346
(lp6449
(S'okay'
p6450
g37
F0.9741
tp6451
a(g5
g6
F0.9977
tp6452
asI1349
(lp6453
(g2
g3
F0.9876
tp6454
a(g5
g6
F0.9949
tp6455
asI1351
(lp6456
(S'do'
p6457
g13
F0.9985
tp6458
a(S'you'
p6459
g16
F0.9996
tp6460
a(S'wan(t'
p6461
g13
F0.9987
tp6462
a(g65
g6
F0.9512
tp6463
a(g34
g6
F0.9507
tp6464
a(S't)a'
p6465
g27
F0.6499
tp6466
a(S'use'
p6467
g13
F0.9192
tp6468
a(g404
g44
F0.9974
tp6469
a(S'pen'
p6470
g47
F0.9921
tp6471
a(g258
g6
F0.9982
tp6472
asI1354
(lp6473
(S'no'
p6474
g37
F0.7985
tp6475
a(S'you'
p6476
g16
F0.9961
tp6477
a(S'write'
p6478
g13
F0.9997
tp6479
a(S'your'
p6480
g44
F0.7747
tp6481
a(S'for'
p6482
g27
F0.9683
tp6483
a(S'awhile'
p6484
g10
F0.9127
tp6485
a(g5
g6
F0.9983
tp6486
asI1357
(lp6487
(S'write'
p6488
g13
F0.9889
tp6489
a(S'your'
p6490
g44
F0.8286
tp6491
a(S'an(d'
p6492
g63
F0.5415
tp6493
a(g65
g6
F0.9847
tp6494
a(S'show'
p6495
g13
F0.7964
tp6496
a(S'her'
p6497
g16
F0.6692
tp6498
a(S'how'
p6499
g10
F0.9962
tp6500
a(S'you'
p6501
g16
F0.9997
tp6502
a(S'can'
p6503
g13
F0.9997
tp6504
a(S'write'
p6505
g13
F0.9936
tp6506
a(g5
g6
F0.9983
tp6507
asI2616
(lp6508
(S'bye'
p6509
g37
F0.9728
tp6510
a(g5
g6
F0.9977
tp6511
asI1362
(lp6512
(S'fill'
p6513
g13
F0.9922
tp6514
a(S'up'
p6515
g52
F0.9642
tp6516
a(S'the'
p6517
g44
F0.9995
tp6518
a(S'bus'
p6519
g47
F0.9752
tp6520
a(S'an(d'
p6521
g63
F0.9437
tp6522
a(g65
g6
F0.9899
tp6523
a(S'then'
p6524
g10
F0.9647
tp6525
a(g75
g76
F0.831
tp6526
a(S'get'
p6527
g13
F0.9994
tp6528
a(S'your'
p6529
g44
F0.8943
tp6530
a(g80
g138
F0.5657
tp6531
a(S'[//]'
p6532
g138
F0.2338
tp6533
a(S'write'
p6534
g13
F0.9939
tp6535
a(S'your'
p6536
g44
F0.9438
tp6537
a(S'(.)'
p6538
g47
F0.4201
tp6539
a(g5
g6
F0.9985
tp6540
asI1367
(lp6541
(S'an(d'
p6542
g63
F0.8847
tp6543
a(g65
g6
F0.9902
tp6544
a(S'then'
p6545
g10
F0.9658
tp6546
a(S'you'
p6547
g16
F0.9995
tp6548
a(S'wan(t'
p6549
g13
F0.9987
tp6550
a(g65
g6
F0.9419
tp6551
a(g34
g6
F0.9507
tp6552
a(S't)a'
p6553
g27
F0.6999
tp6554
a(S'talk'
p6555
g13
F0.8779
tp6556
a(S'on'
p6557
g27
F0.991
tp6558
a(S'the'
p6559
g44
F0.9995
tp6560
a(S'phone'
p6561
g47
F0.997
tp6562
a(S'(.)'
p6563
g81
F0.4474
tp6564
a(g258
g6
F0.9863
tp6565
asI1372
(lp6566
(S'yeah'
p6567
g37
F0.9986
tp6568
a(g5
g6
F0.997
tp6569
asI1375
(lp6570
(S'alright'
p6571
g37
F0.9364
tp6572
a(S'then'
p6573
g10
F0.9793
tp6574
a(S"we'll"
p6575
g374
F0.975
tp6576
a(S'talk'
p6577
g13
F0.9965
tp6578
a(S'on'
p6579
g27
F0.991
tp6580
a(S'the'
p6581
g44
F0.9995
tp6582
a(S'phone'
p6583
g47
F0.9993
tp6584
a(S'after'
p6585
g27
F0.8983
tp6586
a(g5
g6
F0.9968
tp6587
asI1380
(lp6588
(S'hey'
p6589
g37
F0.9935
tp6590
a(g75
g76
F0.7568
tp6591
a(S'no'
p6592
g44
F0.8985
tp6593
a(S'way'
p6594
g47
F0.9977
tp6595
a(g80
g81
F0.5833
tp6596
a(g83
g81
F0.535
tp6597
a(g75
g76
F0.8293
tp6598
a(g86
g6
F0.9284
tp6599
a(g83
g6
F0.9615
tp6600
a(g80
g81
F0.4438
tp6601
a(g86
g6
F0.647
tp6602
a(S'(.)'
p6603
g138
F0.2586
tp6604
a(g5
g6
F0.9891
tp6605
asI1385
(lp6606
(S'okay'
p6607
g37
F0.9496
tp6608
a(S'here'
p6609
g10
F0.9254
tp6610
a(g5
g6
F0.9986
tp6611
asI1388
(lp6612
(g174
g16
F0.9983
tp6613
a(S'want'
p6614
g13
F1.0
tp6615
a(S'you'
p6616
g16
F0.9989
tp6617
a(S'to'
p6618
g27
F0.9027
tp6619
a(S'do'
p6620
g13
F0.9999
tp6621
a(S'that'
p6622
g16
F0.6446
tp6623
a(S'right'
p6624
g10
F0.6777
tp6625
a(S'there'
p6626
g10
F0.9213
tp6627
a(g5
g6
F0.9985
tp6628
asI1393
(lp6629
(S'you'
p6630
g16
F0.9968
tp6631
a(S'gon(t)'
p6632
g13
F0.9964
tp6633
a(S'@d'
p6634
g461
F0.9964
tp6635
a(g34
g6
F0.9501
tp6636
a(S't)a'
p6637
g27
F0.7743
tp6638
a(S'write'
p6639
g13
F0.9902
tp6640
a(S'your'
p6641
g44
F0.7076
tp6642
a(g258
g6
F0.9838
tp6643
asI1397
(lp6644
(g2
g3
F0.9876
tp6645
a(g5
g6
F0.9949
tp6646
asI1399
(lp6647
(S'now'
p6648
g10
F0.9776
tp6649
a(g5
g6
F0.9983
tp6650
asI1402
(lp6651
(S'mm'
p6652
g37
F0.5842
tp6653
a(g5
g6
F0.9932
tp6654
asI1405
(lp6655
(S"that's"
p6656
g374
F0.9694
tp6657
a(S'the'
p6658
g44
F0.9762
tp6659
a(S'only'
p6660
g209
F0.9462
tp6661
a(S'letter'
p6662
g47
F0.9768
tp6663
a(S'she'
p6664
g16
F0.9916
tp6665
a(S'knows'
p6666
g13
F0.9981
tp6667
a(g75
g76
F0.7051
tp6668
a(S'how'
p6669
g10
F0.9949
tp6670
a(S'to'
p6671
g27
F0.9964
tp6672
a(S'write'
p6673
g13
F0.9965
tp6674
a(g174
g16
F0.9995
tp6675
a(S'think'
p6676
g13
F0.9995
tp6677
a(g80
g81
F0.5459
tp6678
a(g83
g81
F0.5345
tp6679
a(g80
g81
F0.9539
tp6680
a(g86
g6
F0.8524
tp6681
a(g5
g6
F0.9948
tp6682
asI1411
(lp6683
(S'zzz'
p6684
g138
F0.409
tp6685
a(g83
g6
F0.9451
tp6686
a(g75
g76
F0.972
tp6687
a(g86
g6
F0.9847
tp6688
a(g5
g6
F0.9962
tp6689
asI1415
(lp6690
(S'that'
p6691
g16
F0.9115
tp6692
a(S'is'
p6693
g13
F0.9986
tp6694
a(S'great'
p6695
g209
F0.997
tp6696
a(g37
g6
F0.9987
tp6697
asI1418
(lp6698
(S'and'
p6699
g63
F0.9989
tp6700
a(S'you'
p6701
g16
F0.9996
tp6702
a(S'said'
p6703
g13
F0.9997
tp6704
a(S"you're"
p6705
g374
F0.9772
tp6706
a(S'four'
p6707
g3
F0.6941
tp6708
a(S'Tanya'
p6709
g30
F0.9971
tp6710
a(g258
g6
F0.9961
tp6711
asI1422
(lp6712
(S'oh'
p6713
g37
F0.9984
tp6714
a(g5
g6
F0.9938
tp6715
asI1426
(lp6716
(S'incredible'
p6717
g209
F0.9739
tp6718
a(g83
g6
F0.9892
tp6719
a(g80
g81
F0.3811
tp6720
a(g86
g6
F0.551
tp6721
a(g37
g6
F0.997
tp6722
asI1429
(lp6723
(g75
g76
F0.9764
tp6724
a(S'yeah'
p6725
g37
F0.9906
tp6726
a(S'do'
p6727
g13
F0.9978
tp6728
a(g404
g44
F0.9978
tp6729
a(S'paper'
p6730
g47
F0.9977
tp6731
a(g80
g81
F0.6101
tp6732
a(g83
g81
F0.535
tp6733
a(g75
g76
F0.8293
tp6734
a(g86
g6
F0.9861
tp6735
a(S'for'
p6736
g27
F0.999
tp6737
a(S'her'
p6738
g16
F0.7979
tp6739
a(S'an(d'
p6740
g63
F0.8475
tp6741
a(g65
g6
F0.9834
tp6742
a(S'she'
p6743
g16
F0.9952
tp6744
a(S'can'
p6745
g13
F0.9991
tp6746
a(S'keep'
p6747
g13
F0.9997
tp6748
a(S'it'
p6749
g16
F0.9866
tp6750
a(g5
g6
F0.9992
tp6751
asI2298
(lp6752
(S'hello'
p6753
g37
F0.9884
tp6754
a(S'Ma'
p6755
g30
F0.2822
tp6756
a(g75
g76
F0.963
tp6757
a(S'bye'
p6758
g37
F0.867
tp6759
a(S'bye'
p6760
g37
F0.9164
tp6761
a(g80
g81
F0.528
tp6762
a(g83
g81
F0.5345
tp6763
a(g80
g81
F0.9555
tp6764
a(g86
g6
F0.8291
tp6765
a(g5
g6
F0.9959
tp6766
asI1434
(lp6767
(g75
g76
F0.9241
tp6768
a(S'do'
p6769
g13
F0.9983
tp6770
a(g404
g44
F0.9976
tp6771
a(S'paper'
p6772
g47
F0.9949
tp6773
a(S'for'
p6774
g27
F0.9998
tp6775
a(S'her'
p6776
g16
F0.7705
tp6777
a(g80
g81
F0.4188
tp6778
a(g83
g81
F0.5345
tp6779
a(g80
g81
F0.9577
tp6780
a(g86
g6
F0.795
tp6781
a(g5
g6
F0.9964
tp6782
asI1437
(lp6783
(g75
g76
F0.9768
tp6784
a(S'oh'
p6785
g37
F0.9967
tp6786
a(S"I'd"
p6787
g374
F0.9812
tp6788
a(S'love'
p6789
g13
F0.9982
tp6790
a(S'it'
p6791
g16
F0.9973
tp6792
a(g80
g81
F0.4648
tp6793
a(g83
g81
F0.535
tp6794
a(g75
g76
F0.7916
tp6795
a(g86
g6
F0.9861
tp6796
a(g5
g6
F0.9959
tp6797
asI1440
(lp6798
(S'you'
p6799
g16
F0.9968
tp6800
a(S'could'
p6801
g13
F0.9996
tp6802
a(S'write'
p6803
g13
F0.9974
tp6804
a(g404
g44
F0.9985
tp6805
a(S'little'
p6806
g209
F0.997
tp6807
a(S'letter'
p6808
g47
F0.9924
tp6809
a(S'yeah'
p6810
g37
F0.9717
tp6811
a(g5
g6
F0.9977
tp6812
asI1444
(lp6813
(g2
g3
F0.9876
tp6814
a(g5
g6
F0.9949
tp6815
asI1446
(lp6816
(S'oh'
p6817
g37
F0.9968
tp6818
a(S'how'
p6819
g10
F0.9921
tp6820
a(S'nice'
p6821
g209
F0.9971
tp6822
a(g5
g6
F0.9987
tp6823
asI1450
(lp6824
(S'see'
p6825
g13
F0.8788
tp6826
a(S'Mommy'
p6827
g47
F0.6458
tp6828
a(g5
g6
F0.9986
tp6829
asI1453
(lp6830
(S'hm'
p6831
g37
F0.9699
tp6832
a(g4279
g6
F0.8848
tp6833
a(S'(.)'
p6834
g81
F0.385
tp6835
a(g5
g6
F0.9648
tp6836
asI1456
(lp6837
(S'zzz'
p6838
g37
F0.3756
tp6839
a(g5
g6
F0.9972
tp6840
asI1460
(lp6841
(S'wha(t'
p6842
g16
F0.8878
tp6843
a(g65
g6
F0.9788
tp6844
a(S'do'
p6845
g13
F0.9834
tp6846
a(g83
g6
F0.9884
tp6847
a(g258
g6
F0.9841
tp6848
a(g86
g6
F0.9323
tp6849
a(S'you'
p6850
g16
F0.9975
tp6851
a(S'do'
p6852
g13
F0.9991
tp6853
a(g5
g6
F0.9979
tp6854
asI1464
(lp6855
(S'yeah'
p6856
g37
F0.9988
tp6857
a(g258
g6
F0.9966
tp6858
asI1467
(lp6859
(S'you'
p6860
g16
F0.998
tp6861
a(S'wan(t'
p6862
g13
F0.9988
tp6863
a(g65
g6
F0.9323
tp6864
a(g34
g6
F0.9591
tp6865
a(S't)a'
p6866
g47
F0.3001
tp6867
a(g34
g6
F0.9865
tp6868
a(S'ju)s(t'
p6869
g10
F0.8646
tp6870
a(g65
g6
F0.9835
tp6871
a(S'keep'
p6872
g13
F0.9686
tp6873
a(S'writing'
p6874
g13
F0.9259
tp6875
a(g75
g76
F0.583
tp6876
a(S'for'
p6877
g27
F0.999
tp6878
a(g404
g44
F0.9968
tp6879
a(S'minute'
p6880
g47
F0.9521
tp6881
a(g80
g81
F0.6055
tp6882
a(g83
g81
F0.5345
tp6883
a(g80
g81
F0.9487
tp6884
a(g86
g6
F0.723
tp6885
a(g258
g6
F0.9957
tp6886
asI2572
(lp6887
(S'&-uh'
p6888
g37
F0.8664
tp6889
a(S'are'
p6890
g13
F0.9963
tp6891
a(S'you'
p6892
g16
F0.9993
tp6893
a(S'havin(g'
p6894
g13
F0.9961
tp6895
a(g65
g6
F0.987
tp6896
a(S'fun'
p6897
g209
F0.6574
tp6898
a(S'this'
p6899
g44
F0.9528
tp6900
a(S'summer'
p6901
g47
F0.9908
tp6902
a(g258
g6
F0.9974
tp6903
asI2293
(lp6904
(g2
g3
F0.9876
tp6905
a(g5
g6
F0.9949
tp6906
asI1472
(lp6907
(g75
g76
F0.9015
tp6908
a(S'when'
p6909
g10
F0.9805
tp6910
a(g174
g16
F0.9971
tp6911
a(g80
g13
F0.2842
tp6912
a(S'[/]'
p6913
g6
F0.5234
tp6914
a(S'when'
p6915
g10
F0.9924
tp6916
a(g174
g16
F0.9988
tp6917
a(S'have'
p6918
g13
F0.9999
tp6919
a(g404
g44
F0.9855
tp6920
a(S'[/]'
p6921
g47
F0.4626
tp6922
a(g83
g6
F0.9821
tp6923
a(g75
g76
F0.9625
tp6924
a(g86
g6
F0.9804
tp6925
a(g5
g6
F0.9977
tp6926
asI1475
(lp6927
(S"don't"
p6928
g13
F0.9992
tp6929
a(S'write'
p6930
g13
F0.999
tp6931
a(S'on'
p6932
g27
F0.9023
tp6933
a(S'yourself'
p6934
g16
F0.9933
tp6935
a(g5
g6
F0.9985
tp6936
asI1478
(lp6937
(S'huh'
p6938
g37
F0.9724
tp6939
a(g83
g6
F0.9852
tp6940
a(g80
g81
F0.3811
tp6941
a(g86
g6
F0.5836
tp6942
a(g258
g6
F0.9963
tp6943
asI1481
(lp6944
(g75
g76
F0.9236
tp6945
a(S'wh(en)'
p6946
g16
F0.4756
tp6947
a(g80
g138
F0.3116
tp6948
a(S'[/]'
p6949
g6
F0.3722
tp6950
a(S'when'
p6951
g10
F0.9924
tp6952
a(g174
g16
F0.9988
tp6953
a(S'have'
p6954
g13
F0.9999
tp6955
a(g404
g44
F0.9324
tp6956
a(g83
g6
F0.9737
tp6957
a(g75
g76
F0.939
tp6958
a(g86
g6
F0.985
tp6959
a(g5
g6
F0.9936
tp6960
asI1484
(lp6961
(S'yeah'
p6962
g37
F0.9951
tp6963
a(g83
g6
F0.9838
tp6964
a(g80
g81
F0.3811
tp6965
a(g86
g6
F0.7604
tp6966
a(g5
g6
F0.9962
tp6967
asI1487
(lp6968
(S'puzzle'
p6969
g47
F0.962
tp6970
a(g83
g6
F0.9825
tp6971
a(g75
g76
F0.9843
tp6972
a(g86
g6
F0.988
tp6973
a(g174
g16
F0.9974
tp6974
a(S'have'
p6975
g13
F1.0
tp6976
a(S'My'
p6977
g44
F0.9987
tp6978
a(S'Little'
p6979
g209
F0.9887
tp6980
a(S'Pony'
p6981
g47
F0.9934
tp6982
a(g258
g6
F0.998
tp6983
asI1490
(lp6984
(S'oh'
p6985
g37
F0.9975
tp6986
a(S'yeah'
p6987
g37
F0.9994
tp6988
a(S'(.)'
p6989
g30
F0.3803
tp6990
a(g5
g6
F0.9942
tp6991
asI1493
(lp6992
(g2
g3
F0.9876
tp6993
a(g5
g6
F0.9949
tp6994
asI1495
(lp6995
(S'oh'
p6996
g37
F0.9979
tp6997
a(S'very'
p6998
g10
F0.9828
tp6999
a(S'nice'
p7000
g209
F0.9997
tp7001
a(g5
g6
F0.9987
tp7002
asI1498
(lp7003
(S'do'
p7004
g13
F0.9985
tp7005
a(S'you'
p7006
g16
F0.9996
tp7007
a(S'wan(t'
p7008
g13
F0.9987
tp7009
a(g65
g6
F0.9512
tp7010
a(g34
g6
F0.9507
tp7011
a(S't)a'
p7012
g27
F0.3021
tp7013
a(S'do'
p7014
g13
F0.994
tp7015
a(S'more'
p7016
g209
F0.5491
tp7017
a(g258
g6
F0.9977
tp7018
asI1501
(lp7019
(g2
g3
F0.9876
tp7020
a(g5
g6
F0.9949
tp7021
asI1503
(lp7022
(S'zzz'
p7023
g37
F0.3756
tp7024
a(g5
g6
F0.9972
tp7025
asI1507
(lp7026
(S"that's"
p7027
g374
F0.9846
tp7028
a(S'all'
p7029
g44
F0.5542
tp7030
a(S'you'
p7031
g16
F0.9965
tp7032
a(g75
g76
F0.74
tp7033
a(S'want'
p7034
g13
F0.9631
tp7035
a(g34
g6
F0.9765
tp7036
a(S'i)s'
p7037
g138
F0.2321
tp7038
a(g80
g138
F0.4847
tp7039
a(g83
g6
F0.899
tp7040
a(g80
g81
F0.4205
tp7041
a(g86
g6
F0.7992
tp7042
a(g5
g6
F0.9936
tp7043
asI1511
(lp7044
(S'zzz'
p7045
g138
F0.409
tp7046
a(g83
g6
F0.9451
tp7047
a(g75
g76
F0.9843
tp7048
a(g86
g6
F0.9723
tp7049
a(S'(.)'
p7050
g81
F0.2781
tp7051
a(g5
g6
F0.9509
tp7052
asI1515
(lp7053
(S'alright'
p7054
g37
F0.9527
tp7055
a(S'she'
p7056
g16
F0.9982
tp7057
a(S'can'
p7058
g13
F0.9991
tp7059
a(S'keep'
p7060
g13
F0.999
tp7061
a(S'that'
p7062
g16
F0.6507
tp7063
a(S'if'
p7064
g27
F0.9979
tp7065
a(S'she'
p7066
g16
F0.9993
tp7067
a(S'wants'
p7068
g13
F0.9994
tp7069
a(S'okay'
p7070
g37
F0.6565
tp7071
a(g83
g6
F0.9871
tp7072
a(g80
g81
F0.4829
tp7073
a(g86
g6
F0.4989
tp7074
a(g258
g6
F0.9952
tp7075
asI2301
(lp7076
(S'zzz'
p7077
g138
F0.409
tp7078
a(g83
g6
F0.9451
tp7079
a(g75
g76
F0.9843
tp7080
a(g86
g6
F0.9458
tp7081
a(g83
g6
F0.9615
tp7082
a(g80
g81
F0.6043
tp7083
a(g86
g6
F0.7541
tp7084
a(g5
g6
F0.9962
tp7085
asI1520
(lp7086
(g2
g3
F0.9876
tp7087
a(g5
g6
F0.9949
tp7088
asI1522
(lp7089
(S'oh'
p7090
g37
F0.9941
tp7091
a(g83
g6
F0.9747
tp7092
a(g75
g76
F0.9843
tp7093
a(g86
g6
F0.984
tp7094
a(S'do'
p7095
g13
F0.995
tp7096
a(g5
g6
F0.9964
tp7097
asI1526
(lp7098
(S'thank'
p7099
g13
F0.9631
tp7100
a(S'you'
p7101
g16
F0.9987
tp7102
a(g5
g6
F0.9995
tp7103
asI1529
(lp7104
(S"that's"
p7105
g374
F0.9768
tp7106
a(S'your'
p7107
g44
F0.689
tp7108
a(S'an(d'
p7109
g63
F0.5415
tp7110
a(g65
g6
F0.9946
tp7111
a(S'now'
p7112
g10
F0.9905
tp7113
a(S'you'
p7114
g16
F0.9995
tp7115
a(S'wan(t'
p7116
g13
F0.9987
tp7117
a(g65
g6
F0.9419
tp7118
a(g34
g6
F0.9507
tp7119
a(S't)a'
p7120
g27
F0.7742
tp7121
a(S'build'
p7122
g13
F0.9961
tp7123
a(g404
g44
F0.9979
tp7124
a(S'house'
p7125
g47
F0.9706
tp7126
a(S'(.)'
p7127
g81
F0.3055
tp7128
a(g258
g6
F0.9754
tp7129
asI1534
(lp7130
(S'gonna'
p7131
g13
F0.985
tp7132
a(S'build'
p7133
g13
F0.9998
tp7134
a(g404
g44
F0.998
tp7135
a(S'house'
p7136
g47
F0.9907
tp7137
a(S'or'
p7138
g63
F0.9904
tp7139
a(S"we'll"
p7140
g374
F0.9579
tp7141
a(S'have'
p7142
g13
F0.9999
tp7143
a(g404
g44
F0.9981
tp7144
a(S'tea'
p7145
g47
F0.9919
tp7146
a(S'party'
p7147
g47
F0.9838
tp7148
a(S'which'
p7149
g44
F0.9838
tp7150
a(S'one'
p7151
g3
F0.8703
tp7152
a(g258
g6
F0.9961
tp7153
asI1540
(lp7154
(S'huh'
p7155
g37
F0.9821
tp7156
a(S'(.)'
p7157
g37
F0.256
tp7158
a(g258
g6
F0.9967
tp7159
asI2305
(lp7160
(S'go'
p7161
g13
F0.8431
tp7162
a(g34
g6
F0.9912
tp7163
a(S'a)head'
p7164
g209
F0.6449
tp7165
a(S'Tanya'
p7166
g30
F0.988
tp7167
a(S'(.)'
p7168
g30
F0.7928
tp7169
a(g5
g6
F0.9915
tp7170
asI1544
(lp7171
(g34
g6
F0.9599
tp7172
a(S'a)n(d'
p7173
g63
F0.9113
tp7174
a(g65
g6
F0.9667
tp7175
a(S'what'
p7176
g16
F0.9771
tp7177
a(S'are'
p7178
g13
F0.9976
tp7179
a(S'you'
p7180
g16
F0.9994
tp7181
a(S'doin(g'
p7182
g13
F0.9974
tp7183
a(g65
g6
F0.9845
tp7184
a(S'(.)'
p7185
g81
F0.2934
tp7186
a(g258
g6
F0.9751
tp7187
asI1548
(lp7188
(S"you're"
p7189
g374
F0.9943
tp7190
a(S'lookin(g'
p7191
g13
F0.6858
tp7192
a(g65
g6
F0.9932
tp7193
a(S'for'
p7194
g27
F0.9938
tp7195
a(S'attention'
p7196
g47
F0.987
tp7197
a(S'huh'
p7198
g37
F0.9033
tp7199
a(g83
g6
F0.9845
tp7200
a(g80
g81
F0.4567
tp7201
a(g86
g6
F0.6839
tp7202
a(g258
g6
F0.9957
tp7203
asI1553
(lp7204
(S'zzz'
p7205
g138
F0.409
tp7206
a(g83
g6
F0.9451
tp7207
a(g75
g76
F0.972
tp7208
a(g86
g6
F0.9847
tp7209
a(g5
g6
F0.9962
tp7210
asI1557
(lp7211
(S'zzz'
p7212
g37
F0.3756
tp7213
a(g5
g6
F0.9972
tp7214
asI1561
(lp7215
(S'here'
p7216
g10
F0.8196
tp7217
a(S'wha(t'
p7218
g16
F0.9817
tp7219
a(g65
g6
F0.9707
tp7220
a(S'do'
p7221
g13
F0.999
tp7222
a(S'you'
p7223
g16
F0.9997
tp7224
a(S'wan(t'
p7225
g13
F0.9987
tp7226
a(g65
g6
F0.9419
tp7227
a(g34
g6
F0.9507
tp7228
a(S't)a'
p7229
g27
F0.6999
tp7230
a(S'talk'
p7231
g13
F0.8779
tp7232
a(S'on'
p7233
g27
F0.991
tp7234
a(S'the'
p7235
g44
F0.9995
tp7236
a(S'phone'
p7237
g47
F0.9963
tp7238
a(S'(.)'
p7239
g81
F0.4566
tp7240
a(g258
g6
F0.9754
tp7241
asI1566
(lp7242
(S'go'
p7243
g13
F0.8431
tp7244
a(g34
g6
F0.9912
tp7245
a(S'a)head'
p7246
g209
F0.7242
tp7247
a(S'(.)'
p7248
g47
F0.3129
tp7249
a(g5
g6
F0.998
tp7250
asI1569
(lp7251
(S'you'
p7252
g16
F0.998
tp7253
a(S'wan(t'
p7254
g13
F0.9988
tp7255
a(g65
g6
F0.9323
tp7256
a(g34
g6
F0.9591
tp7257
a(S't)a'
p7258
g27
F0.7743
tp7259
a(S'write'
p7260
g13
F0.9163
tp7261
a(S'one'
p7262
g3
F0.9553
tp7263
a(S'minute'
p7264
g47
F0.9337
tp7265
a(g258
g6
F0.9982
tp7266
asI1572
(lp7267
(S'you'
p7268
g16
F0.9969
tp7269
a(S'can'
p7270
g13
F0.9998
tp7271
a(S'write'
p7272
g13
F0.9972
tp7273
a(S'one'
p7274
g3
F0.9599
tp7275
a(S'minute'
p7276
g47
F0.8492
tp7277
a(S'(.)'
p7278
g81
F0.3627
tp7279
a(g5
g6
F0.9632
tp7280
asI1575
(lp7281
(S'now'
p7282
g10
F0.9628
tp7283
a(S'what'
p7284
g16
F0.9921
tp7285
a(S'are'
p7286
g13
F0.9982
tp7287
a(S'you'
p7288
g16
F0.9994
tp7289
a(S'gonna'
p7290
g13
F0.9995
tp7291
a(S'have'
p7292
g13
F0.9989
tp7293
a(S'are'
p7294
g13
F0.9853
tp7295
a(S'you'
p7296
g16
F0.9995
tp7297
a(S'gonna'
p7298
g13
F0.9995
tp7299
a(S'have'
p7300
g13
F0.9999
tp7301
a(g404
g44
F0.9981
tp7302
a(S'tea'
p7303
g47
F0.9926
tp7304
a(S'party'
p7305
g47
F0.9978
tp7306
a(g258
g6
F0.9985
tp7307
asI1581
(lp7308
(g2
g3
F0.9876
tp7309
a(g5
g6
F0.9949
tp7310
asI1583
(lp7311
(S'alright'
p7312
g37
F0.8615
tp7313
a(S'get'
p7314
g13
F0.9976
tp7315
a(S'the'
p7316
g44
F0.9994
tp7317
a(S'animals'
p7318
g47
F0.9918
tp7319
a(S'up'
p7320
g27
F0.4893
tp7321
a(S'there'
p7322
g10
F0.8606
tp7323
a(g5
g6
F0.998
tp7324
asI1586
(lp7325
(S'you'
p7326
g16
F0.9969
tp7327
a(S'can'
p7328
g13
F0.9998
tp7329
a(S'let'
p7330
g13
F0.9999
tp7331
a(S'them'
p7332
g16
F0.9724
tp7333
a(S'come'
p7334
g13
F0.9972
tp7335
a(S'too'
p7336
g10
F0.9949
tp7337
a(g5
g6
F0.997
tp7338
asI1589
(lp7339
(S'you'
p7340
g16
F0.998
tp7341
a(S'wan(t'
p7342
g13
F0.9988
tp7343
a(g65
g6
F0.9323
tp7344
a(g34
g6
F0.9591
tp7345
a(S't)a'
p7346
g27
F0.722
tp7347
a(S'let'
p7348
g13
F0.9917
tp7349
a(S'the'
p7350
g44
F0.9993
tp7351
a(S'animals'
p7352
g47
F0.9923
tp7353
a(S'that'
p7354
g27
F0.9247
tp7355
a(S'come'
p7356
g13
F0.986
tp7357
a(S'an(d'
p7358
g63
F0.8636
tp7359
a(g65
g6
F0.9804
tp7360
a(S'have'
p7361
g13
F0.9683
tp7362
a(S'tea'
p7363
g47
F0.9832
tp7364
a(g258
g6
F0.9965
tp7365
asI1594
(lp7366
(S'oh'
p7367
g37
F0.9878
tp7368
a(S'you'
p7369
g16
F0.9934
tp7370
a(S'gonna'
p7371
g13
F0.9998
tp7372
a(S'do'
p7373
g13
F0.9993
tp7374
a(S'blocks'
p7375
g47
F0.7861
tp7376
a(g258
g6
F0.9975
tp7377
asI1597
(lp7378
(g174
g16
F0.9982
tp7379
a(S'thought'
p7380
g13
F0.9999
tp7381
a(S'you'
p7382
g16
F0.9989
tp7383
a(S'were'
p7384
g13
F0.9982
tp7385
a(S'doin(g'
p7386
g13
F0.9189
tp7387
a(g65
g6
F0.993
tp7388
a(g404
g44
F0.9921
tp7389
a(S'tea'
p7390
g47
F0.9911
tp7391
a(S'party'
p7392
g47
F0.9987
tp7393
a(g5
g6
F0.9985
tp7394
asI1602
(lp7395
(S'zzz'
p7396
g37
F0.3756
tp7397
a(g5
g6
F0.9972
tp7398
asI2070
(lp7399
(S'okay'
p7400
g37
F0.9741
tp7401
a(g5
g6
F0.9977
tp7402
asI1606
(lp7403
(S'tell'
p7404
g13
F0.9948
tp7405
a(S'us'
p7406
g16
F0.992
tp7407
a(S'what'
p7408
g16
F0.956
tp7409
a(S"you're"
p7410
g374
F0.9804
tp7411
a(S'gonna'
p7412
g13
F0.9974
tp7413
a(S'make'
p7414
g13
F0.9845
tp7415
a(g5
g6
F0.9977
tp7416
asI1610
(lp7417
(S'can'
p7418
g13
F0.999
tp7419
a(S'you'
p7420
g16
F0.9986
tp7421
a(S'tell'
p7422
g13
F0.9997
tp7423
a(S'her'
p7424
g16
F0.8173
tp7425
a(S'what'
p7426
g16
F0.9508
tp7427
a(S"you're"
p7428
g374
F0.9785
tp7429
a(S'gonna'
p7430
g13
F0.9945
tp7431
a(S'make'
p7432
g13
F0.9842
tp7433
a(g258
g6
F0.997
tp7434
asI1615
(lp7435
(S'what'
p7436
g16
F0.9835
tp7437
a(S'are'
p7438
g13
F0.9978
tp7439
a(S'you'
p7440
g16
F0.9995
tp7441
a(S'gonna'
p7442
g13
F0.9996
tp7443
a(S'make'
p7444
g13
F0.9975
tp7445
a(S'(.)'
p7446
g30
F0.3427
tp7447
a(g258
g6
F0.9948
tp7448
asI1618
(lp7449
(S'can'
p7450
g13
F0.999
tp7451
a(S'you'
p7452
g16
F0.9986
tp7453
a(S'tell'
p7454
g13
F0.9997
tp7455
a(S'her'
p7456
g16
F0.8173
tp7457
a(S'what'
p7458
g16
F0.9508
tp7459
a(S"you're"
p7460
g374
F0.9785
tp7461
a(S'gonna'
p7462
g13
F0.9945
tp7463
a(S'make'
p7464
g13
F0.9842
tp7465
a(g258
g6
F0.997
tp7466
asI1623
(lp7467
(S'xxx'
p7468
g81
F0.5822
tp7469
a(g5
g6
F0.9648
tp7470
asI1624
(lp7471
(S'huh'
p7472
g37
F0.9936
tp7473
a(g258
g6
F0.9967
tp7474
asI1627
(lp7475
(g404
g44
F0.9939
tp7476
a(S'shield'
p7477
g47
F0.9948
tp7478
a(g83
g6
F0.9897
tp7479
a(g258
g6
F0.9842
tp7480
a(g86
g6
F0.9156
tp7481
a(g5
g6
F0.995
tp7482
asI1630
(lp7483
(S'what'
p7484
g16
F0.9171
tp7485
a(g258
g6
F0.9924
tp7486
asI1633
(lp7487
(g75
g76
F0.9385
tp7488
a(S'what'
p7489
g16
F0.9866
tp7490
a(S'are'
p7491
g13
F0.9982
tp7492
a(S'you'
p7493
g16
F0.9994
tp7494
a(S'gonna'
p7495
g13
F0.9996
tp7496
a(S'make'
p7497
g13
F0.9922
tp7498
a(g80
g81
F0.4561
tp7499
a(g83
g81
F0.5345
tp7500
a(g80
g81
F0.9577
tp7501
a(g86
g6
F0.6335
tp7502
a(g258
g6
F0.9962
tp7503
asI1636
(lp7504
(g75
g76
F0.9197
tp7505
a(g404
g44
F0.9787
tp7506
a(S'fort'
p7507
g47
F0.8951
tp7508
a(g80
g81
F0.5036
tp7509
a(g83
g81
F0.535
tp7510
a(g75
g76
F0.6902
tp7511
a(g86
g6
F0.9839
tp7512
a(g5
g6
F0.9962
tp7513
asI1639
(lp7514
(S'what'
p7515
g16
F0.9835
tp7516
a(S'are'
p7517
g13
F0.9978
tp7518
a(S'you'
p7519
g16
F0.9995
tp7520
a(S'gonna'
p7521
g13
F0.9993
tp7522
a(S'make'
p7523
g13
F0.9914
tp7524
a(g5
g6
F0.9972
tp7525
asI1642
(lp7526
(S"it's"
p7527
g374
F0.9955
tp7528
a(g404
g44
F0.9875
tp7529
a(S'fort'
p7530
g47
F0.9438
tp7531
a(g5
g6
F0.9975
tp7532
asI1645
(lp7533
(S'what'
p7534
g16
F0.9835
tp7535
a(S'are'
p7536
g13
F0.9978
tp7537
a(S'you'
p7538
g16
F0.9995
tp7539
a(S'gonna'
p7540
g13
F0.9993
tp7541
a(S'make'
p7542
g13
F0.9914
tp7543
a(g5
g6
F0.9972
tp7544
asI1648
(lp7545
(S'fort'
p7546
g47
F0.4311
tp7547
a(g5
g6
F0.9968
tp7548
asI1651
(lp7549
(S'fort'
p7550
g30
F0.4525
tp7551
a(g258
g6
F0.994
tp7552
asI1654
(lp7553
(S'oh'
p7554
g37
F0.9939
tp7555
a(g404
g44
F0.9354
tp7556
a(S'fort'
p7557
g47
F0.9438
tp7558
a(g5
g6
F0.9975
tp7559
asI1657
(lp7560
(S'oh'
p7561
g37
F0.9939
tp7562
a(g404
g44
F0.9422
tp7563
a(S'fort'
p7564
g47
F0.8246
tp7565
a(S'okay'
p7566
g37
F0.7508
tp7567
a(S"let's"
p7568
g374
F0.9921
tp7569
a(S'see'
p7570
g13
F0.9971
tp7571
a(S'how'
p7572
g10
F0.989
tp7573
a(S'you'
p7574
g16
F0.9998
tp7575
a(S'do'
p7576
g13
F0.9999
tp7577
a(S'it'
p7578
g16
F0.9884
tp7579
a(g5
g6
F0.999
tp7580
asI1662
(lp7581
(S'you'
p7582
g16
F0.998
tp7583
a(S'want'
p7584
g13
F0.9996
tp7585
a(S'help'
p7586
g13
F0.6451
tp7587
a(S'or'
p7588
g63
F0.9811
tp7589
a(S'you'
p7590
g16
F0.9995
tp7591
a(S'wan(t'
p7592
g13
F0.9987
tp7593
a(g65
g6
F0.9419
tp7594
a(g34
g6
F0.9507
tp7595
a(S't)a'
p7596
g27
F0.3021
tp7597
a(S'do'
p7598
g13
F0.9992
tp7599
a(S'it'
p7600
g16
F0.9937
tp7601
a(S'by'
p7602
g27
F0.9958
tp7603
a(S'yourself'
p7604
g16
F0.9925
tp7605
a(g5
g6
F0.9991
tp7606
asI1667
(lp7607
(S'do'
p7608
g13
F0.9989
tp7609
a(S'it'
p7610
g16
F0.994
tp7611
a(S'by'
p7612
g27
F0.9912
tp7613
a(S'myself'
p7614
g16
F0.9945
tp7615
a(g5
g6
F0.9985
tp7616
asI1670
(lp7617
(S'yourself'
p7618
g16
F0.8989
tp7619
a(g5
g6
F0.9981
tp7620
asI1673
(lp7621
(S'zzz'
p7622
g37
F0.3756
tp7623
a(g5
g6
F0.9972
tp7624
asI1677
(lp7625
(S'zzz'
p7626
g138
F0.5434
tp7627
a(S'(.)'
p7628
g138
F0.453
tp7629
a(g5
g6
F0.9899
tp7630
asI1681
(lp7631
(g2
g3
F0.9876
tp7632
a(g5
g6
F0.9949
tp7633
asI1683
(lp7634
(S'would'
p7635
g13
F0.9987
tp7636
a(S'you'
p7637
g16
F0.9948
tp7638
a(S'like'
p7639
g13
F0.8801
tp7640
a(S'anything'
p7641
g47
F0.9936
tp7642
a(S'to'
p7643
g27
F0.9985
tp7644
a(S'drink'
p7645
g13
F0.9813
tp7646
a(g174
g16
F0.9994
tp7647
a(S'have'
p7648
g13
F0.9991
tp7649
a(S'&-um'
p7650
g37
F0.4346
tp7651
a(S'Pepsi'
p7652
g30
F0.7213
tp7653
a(g5
g6
F0.9976
tp7654
asI1689
(lp7655
(g174
g16
F0.9976
tp7656
a(S"don't"
p7657
g13
F1.0
tp7658
a(S'know'
p7659
g13
F0.9996
tp7660
a(S'what'
p7661
g16
F0.9743
tp7662
a(S'you'
p7663
g16
F0.9989
tp7664
a(S'like'
p7665
g13
F0.753
tp7666
a(g83
g6
F0.9818
tp7667
a(g80
g81
F0.4567
tp7668
a(g86
g6
F0.8291
tp7669
a(g5
g6
F0.9959
tp7670
asI1694
(lp7671
(S'no'
p7672
g37
F0.8389
tp7673
a(g83
g6
F0.9936
tp7674
a(g75
g76
F0.9843
tp7675
a(g86
g6
F0.9932
tp7676
a(S'thank'
p7677
g13
F0.9926
tp7678
a(S'you'
p7679
g16
F0.999
tp7680
a(g5
g6
F0.9995
tp7681
asI1697
(lp7682
(g75
g76
F0.9753
tp7683
a(S'thanks'
p7684
g47
F0.7857
tp7685
a(S"I'm"
p7686
g374
F0.9941
tp7687
a(S'fine'
p7688
g209
F0.9913
tp7689
a(g80
g81
F0.4901
tp7690
a(g83
g81
F0.5345
tp7691
a(g80
g81
F0.9732
tp7692
a(g86
g6
F0.8062
tp7693
a(g5
g6
F0.9969
tp7694
asI1700
(lp7695
(S'water'
p7696
g47
F0.9779
tp7697
a(g83
g6
F0.9853
tp7698
a(g75
g76
F0.972
tp7699
a(g86
g6
F0.974
tp7700
a(g258
g6
F0.9963
tp7701
asI1703
(lp7702
(g75
g76
F0.9001
tp7703
a(S'you'
p7704
g16
F0.9971
tp7705
a(S"don't"
p7706
g13
F1.0
tp7707
a(S'want'
p7708
g13
F1.0
tp7709
a(S'any'
p7710
g44
F0.9244
tp7711
a(g80
g81
F0.3738
tp7712
a(g83
g81
F0.535
tp7713
a(g75
g76
F0.7916
tp7714
a(g86
g6
F0.9861
tp7715
a(g5
g6
F0.9959
tp7716
asI1707
(lp7717
(S'thank'
p7718
g13
F0.9661
tp7719
a(S'you'
p7720
g16
F0.9984
tp7721
a(S'(.)'
p7722
g6
F0.32
tp7723
a(g5
g6
F0.9962
tp7724
asI1711
(lp7725
(g2
g3
F0.9876
tp7726
a(g5
g6
F0.9949
tp7727
asI1713
(lp7728
(S'oops_a_daisy'
p7729
g37
F0.9909
tp7730
a(S'(.)'
p7731
g30
F0.2877
tp7732
a(g5
g6
F0.9933
tp7733
asI1716
(lp7734
(S"let's"
p7735
g374
F0.9813
tp7736
a(S'see'
p7737
g13
F0.9971
tp7738
a(S'how'
p7739
g10
F0.9893
tp7740
a(S"that's"
p7741
g374
F0.9864
tp7742
a(S'gonna'
p7743
g13
F0.9914
tp7744
a(S'be'
p7745
g13
F0.9985
tp7746
a(S'huh'
p7747
g37
F0.7001
tp7748
a(S'(.)'
p7749
g30
F0.3584
tp7750
a(g258
g6
F0.9964
tp7751
asI1721
(lp7752
(S'an(d'
p7753
g63
F0.8847
tp7754
a(g65
g6
F0.9833
tp7755
a(S"who's"
p7756
g374
F0.9809
tp7757
a(S'gonna'
p7758
g13
F0.991
tp7759
a(S'go'
p7760
g13
F0.9992
tp7761
a(S'in'
p7762
g27
F0.9827
tp7763
a(S'your'
p7764
g44
F0.9826
tp7765
a(S'fort'
p7766
g47
F0.8987
tp7767
a(g258
g6
F0.996
tp7768
asI1726
(lp7769
(S"who's"
p7770
g374
F0.9776
tp7771
a(S'gonna'
p7772
g13
F0.9914
tp7773
a(S'go'
p7774
g13
F0.9993
tp7775
a(S'in'
p7776
g27
F0.9814
tp7777
a(S'your'
p7778
g44
F0.9802
tp7779
a(S'fort'
p7780
g47
F0.8858
tp7781
a(g258
g6
F0.9956
tp7782
asI1730
(lp7783
(g75
g76
F0.9409
tp7784
a(S'Johnny'
p7785
g30
F0.997
tp7786
a(g80
g30
F0.3082
tp7787
a(g83
g6
F0.9707
tp7788
a(g80
g81
F0.5563
tp7789
a(g86
g6
F0.6899
tp7790
a(g5
g6
F0.9959
tp7791
asI1733
(lp7792
(g75
g76
F0.9262
tp7793
a(S"you're>"
p7794
g374
F0.839
tp7795
a(g83
g6
F0.9657
tp7796
a(g75
g76
F0.9566
tp7797
a(g86
g6
F0.989
tp7798
a(S'stealin(g'
p7799
g13
F0.9528
tp7800
a(g65
g6
F0.9841
tp7801
a(S'paper'
p7802
g47
F0.9593
tp7803
a(g258
g6
F0.9987
tp7804
asI2308
(lp7805
(S'you'
p7806
g16
F0.9963
tp7807
a(S'go'
p7808
g13
F0.9899
tp7809
a(S't_t'
p7810
g81
F0.275
tp7811
a(g735
g27
F0.7226
tp7812
a(S'say'
p7813
g13
F0.9287
tp7814
a(S'hello'
p7815
g37
F0.9745
tp7816
a(g5
g6
F0.9975
tp7817
asI2337
(lp7818
(S'hey'
p7819
g37
F0.9937
tp7820
a(g83
g6
F0.9841
tp7821
a(g75
g76
F0.972
tp7822
a(g86
g6
F0.9847
tp7823
a(g5
g6
F0.9962
tp7824
asI1738
(lp7825
(S'zzz'
p7826
g37
F0.3756
tp7827
a(g5
g6
F0.9972
tp7828
asI1742
(lp7829
(S'okay'
p7830
g37
F0.9469
tp7831
a(S'you'
p7832
g16
F0.9908
tp7833
a(S'(.)'
p7834
g6
F0.32
tp7835
a(g5
g6
F0.9962
tp7836
asI1746
(lp7837
(S'long'
p7838
g209
F0.9507
tp7839
a(S'as'
p7840
g27
F0.9949
tp7841
a(S'you'
p7842
g16
F0.9997
tp7843
a(S"don't"
p7844
g13
F1.0
tp7845
a(S'write'
p7846
g13
F0.999
tp7847
a(S'on'
p7848
g27
F0.9207
tp7849
a(S'anything'
p7850
g47
F0.9969
tp7851
a(S'else'
p7852
g10
F0.8209
tp7853
a(S"you're"
p7854
g374
F0.9914
tp7855
a(S'not'
p7856
g10
F0.9988
tp7857
a(S'supposed'
p7858
g209
F0.6677
tp7859
a(S'to'
p7860
g27
F0.9976
tp7861
a(S'(.)'
p7862
g30
F0.5386
tp7863
a(g5
g6
F0.9965
tp7864
asI1753
(lp7865
(S'oh'
p7866
g37
F0.9881
tp7867
a(S'your'
p7868
g44
F0.9375
tp7869
a(S"fort's"
p7870
g47
F0.9751
tp7871
a(S'done'
p7872
g13
F0.9499
tp7873
a(g5
g6
F0.999
tp7874
asI1757
(lp7875
(S'now'
p7876
g10
F0.9689
tp7877
a(S'wha(t'
p7878
g16
F0.9496
tp7879
a(g65
g6
F0.9719
tp7880
a(S'did'
p7881
g13
F0.999
tp7882
a(S'you'
p7883
g16
F0.9994
tp7884
a(S'wan(t'
p7885
g13
F0.9987
tp7886
a(g65
g6
F0.9419
tp7887
a(g34
g6
F0.9507
tp7888
a(S't)a'
p7889
g27
F0.2971
tp7890
a(S'do'
p7891
g13
F0.9882
tp7892
a(g5
g6
F0.9975
tp7893
asI1761
(lp7894
(S'you'
p7895
g16
F0.998
tp7896
a(S'wan(t'
p7897
g13
F0.9988
tp7898
a(g65
g6
F0.9323
tp7899
a(g34
g6
F0.9591
tp7900
a(S't)a'
p7901
g27
F0.5473
tp7902
a(S'have'
p7903
g13
F0.9981
tp7904
a(g404
g44
F0.9981
tp7905
a(S'tea'
p7906
g47
F0.9919
tp7907
a(S'party'
p7908
g47
F0.9987
tp7909
a(g83
g6
F0.9839
tp7910
a(g80
g81
F0.4829
tp7911
a(g86
g6
F0.4989
tp7912
a(g258
g6
F0.9952
tp7913
asI1765
(lp7914
(g75
g76
F0.9335
tp7915
a(S'Ma'
p7916
g44
F0.3063
tp7917
a(g80
g76
F0.597
tp7918
a(g83
g6
F0.9521
tp7919
a(g75
g76
F0.9635
tp7920
a(g86
g6
F0.9609
tp7921
a(S'Ma'
p7922
g30
F0.3314
tp7923
a(g5
g6
F0.989
tp7924
asI1768
(lp7925
(g75
g76
F0.9263
tp7926
a(S'why'
p7927
g10
F0.9355
tp7928
a(S"don't>"
p7929
g13
F0.9875
tp7930
a(g83
g6
F0.984
tp7931
a(g75
g76
F0.9635
tp7932
a(g86
g6
F0.9284
tp7933
a(g83
g6
F0.9615
tp7934
a(g80
g81
F0.4438
tp7935
a(g86
g6
F0.9073
tp7936
a(S'you'
p7937
g16
F0.9966
tp7938
a(S'get'
p7939
g13
F0.9999
tp7940
a(S'the'
p7941
g44
F0.9995
tp7942
a(S'cups'
p7943
g47
F0.994
tp7944
a(S'an(d'
p7945
g63
F0.9468
tp7946
a(g65
g6
F0.9775
tp7947
a(S'saucers'
p7948
g47
F0.9654
tp7949
a(g5
g6
F0.9983
tp7950
asI1773
(lp7951
(S'look'
p7952
g13
F0.7606
tp7953
a(g83
g6
F0.9854
tp7954
a(g75
g76
F0.972
tp7955
a(g86
g6
F0.9847
tp7956
a(g5
g6
F0.9962
tp7957
asI1776
(lp7958
(g75
g76
F0.9094
tp7959
a(S'an(d'
p7960
g63
F0.9355
tp7961
a(g65
g6
F0.9788
tp7962
a(S'put'
p7963
g13
F0.9956
tp7964
a(S'them'
p7965
g16
F0.9664
tp7966
a(S'together'
p7967
g10
F0.9509
tp7968
a(g80
g81
F0.5449
tp7969
a(g83
g81
F0.5345
tp7970
a(g80
g81
F0.9577
tp7971
a(g86
g6
F0.795
tp7972
a(g5
g6
F0.9964
tp7973
asI1779
(lp7974
(g75
g76
F0.9112
tp7975
a(S'Mama'
p7976
g47
F0.6887
tp7977
a(g80
g138
F0.4522
tp7978
a(g83
g6
F0.9261
tp7979
a(g75
g76
F0.948
tp7980
a(g86
g6
F0.9803
tp7981
a(g5
g6
F0.9959
tp7982
asI1782
(lp7983
(g75
g76
F0.9387
tp7984
a(S'(le)t'
p7985
g13
F0.9897
tp7986
a(S'us'
p7987
g16
F0.9919
tp7988
a(S'see'
p7989
g13
F0.9539
tp7990
a(g80
g81
F0.4624
tp7991
a(g83
g81
F0.5345
tp7992
a(g80
g81
F0.9732
tp7993
a(g86
g6
F0.8062
tp7994
a(g5
g6
F0.9969
tp7995
asI1785
(lp7996
(g75
g76
F0.9112
tp7997
a(S'Mommy'
p7998
g47
F0.5708
tp7999
a(g80
g138
F0.4522
tp8000
a(g83
g6
F0.9261
tp8001
a(g75
g76
F0.948
tp8002
a(g86
g6
F0.9803
tp8003
a(g5
g6
F0.9959
tp8004
asI1788
(lp8005
(S"that's"
p8006
g374
F0.9942
tp8007
a(S'for'
p8008
g27
F0.9994
tp8009
a(S'the'
p8010
g44
F0.9992
tp8011
a(S'milk'
p8012
g47
F0.9943
tp8013
a(S'(.)'
p8014
g138
F0.2605
tp8015
a(g5
g6
F0.9901
tp8016
asI1791
(lp8017
(S'get'
p8018
g13
F0.9973
tp8019
a(S'the'
p8020
g44
F0.9995
tp8021
a(S'cups'
p8022
g47
F0.9933
tp8023
a(S'an(d'
p8024
g63
F0.9448
tp8025
a(g65
g6
F0.9768
tp8026
a(S'saucers'
p8027
g47
F0.9425
tp8028
a(S'an(d'
p8029
g63
F0.9461
tp8030
a(g65
g6
F0.9842
tp8031
a(S'put'
p8032
g13
F0.9957
tp8033
a(S'them'
p8034
g16
F0.9664
tp8035
a(S'together'
p8036
g10
F0.9791
tp8037
a(S'an(d'
p8038
g63
F0.9364
tp8039
a(g65
g6
F0.9894
tp8040
a(S'you'
p8041
g16
F0.9971
tp8042
a(S'can'
p8043
g13
F0.9997
tp8044
a(S'have'
p8045
g13
F0.9999
tp8046
a(S'the'
p8047
g44
F0.9998
tp8048
a(S'animals'
p8049
g47
F0.9894
tp8050
a(S'come'
p8051
g13
F0.999
tp8052
a(S'if'
p8053
g27
F0.9977
tp8054
a(S'you'
p8055
g16
F0.9999
tp8056
a(S'want'
p8057
g13
F0.9981
tp8058
a(g5
g6
F0.9964
tp8059
asI1798
(lp8060
(S'you'
p8061
g16
F0.998
tp8062
a(S'want'
p8063
g13
F0.9999
tp8064
a(S'the'
p8065
g44
F0.9996
tp8066
a(S'animals'
p8067
g47
F0.9922
tp8068
a(S'to'
p8069
g27
F0.9975
tp8070
a(S'come'
p8071
g13
F0.9968
tp8072
a(g258
g6
F0.998
tp8073
asI1801
(lp8074
(S"there's"
p8075
g374
F0.5156
tp8076
a(S'some'
p8077
g44
F0.9482
tp8078
a(S'more'
p8079
g209
F0.8707
tp8080
a(S'up'
p8081
g52
F0.7293
tp8082
a(S'on'
p8083
g27
F0.9966
tp8084
a(S'the'
p8085
g44
F0.9991
tp8086
a(S'couch'
p8087
g47
F0.9986
tp8088
a(g5
g6
F0.999
tp8089
asI1806
(lp8090
(S'get'
p8091
g13
F0.9973
tp8092
a(S'the'
p8093
g44
F0.9988
tp8094
a(S'animals'
p8095
g47
F0.9978
tp8096
a(g5
g6
F0.9986
tp8097
asI1810
(lp8098
(S'Mama'
p8099
g47
F0.8594
tp8100
a(g5
g6
F0.9983
tp8101
asI1813
(lp8102
(S'you'
p8103
g16
F0.998
tp8104
a(S'want'
p8105
g13
F0.9999
tp8106
a(S'the'
p8107
g44
F0.9996
tp8108
a(S'dinosaur'
p8109
g47
F0.9984
tp8110
a(S'to'
p8111
g27
F0.9989
tp8112
a(S'come'
p8113
g13
F0.999
tp8114
a(S'(.)'
p8115
g30
F0.3605
tp8116
a(g258
g6
F0.995
tp8117
asI1816
(lp8118
(S'an(d'
p8119
g63
F0.8847
tp8120
a(g65
g6
F0.9823
tp8121
a(S'the'
p8122
g44
F0.9979
tp8123
a(S'doggie'
p8124
g47
F0.978
tp8125
a(S'to'
p8126
g27
F0.9978
tp8127
a(S'come'
p8128
g13
F0.9968
tp8129
a(g258
g6
F0.998
tp8130
asI1819
(lp8131
(S'and'
p8132
g63
F0.9985
tp8133
a(g75
g76
F0.7069
tp8134
a(S'get'
p8135
g13
F0.9993
tp8136
a(S'their'
p8137
g44
F0.876
tp8138
a(g80
g138
F0.4406
tp8139
a(S'[//]'
p8140
g138
F0.2229
tp8141
a(S'get'
p8142
g13
F0.9986
tp8143
a(S'the'
p8144
g44
F0.9996
tp8145
a(S'saucers'
p8146
g47
F0.9861
tp8147
a(S'an(d'
p8148
g63
F0.9461
tp8149
a(g65
g6
F0.9842
tp8150
a(S'put'
p8151
g13
F0.9879
tp8152
a(S'the'
p8153
g44
F0.9997
tp8154
a(S'cups'
p8155
g47
F0.994
tp8156
a(S'an(d'
p8157
g63
F0.9468
tp8158
a(g65
g6
F0.9768
tp8159
a(S'saucers'
p8160
g47
F0.9422
tp8161
a(S'together'
p8162
g10
F0.9646
tp8163
a(g5
g6
F0.9979
tp8164
asI1824
(lp8165
(S'this'
p8166
g16
F0.9526
tp8167
a(S'is'
p8168
g13
F0.9986
tp8169
a(S'for'
p8170
g27
F0.9993
tp8171
a(S'the'
p8172
g44
F0.9992
tp8173
a(S'milk'
p8174
g47
F0.9979
tp8175
a(g75
g76
F0.6111
tp8176
a(S'an(d'
p8177
g63
F0.9354
tp8178
a(g65
g6
F0.9817
tp8179
a(S'the'
p8180
g44
F0.9984
tp8181
a(S'sug(ar)'
p8182
g47
F0.9978
tp8183
a(g80
g138
F0.3964
tp8184
a(S'[//]'
p8185
g138
F0.27
tp8186
a(S'an(d'
p8187
g63
F0.9304
tp8188
a(g65
g6
F0.9817
tp8189
a(S'the'
p8190
g44
F0.9985
tp8191
a(S'sugar'
p8192
g47
F0.9991
tp8193
a(g5
g6
F0.9982
tp8194
asI1829
(lp8195
(S'Ma'
p8196
g44
F0.8561
tp8197
a(S'mommy'
p8198
g47
F0.9633
tp8199
a(g5
g6
F0.9987
tp8200
asI1833
(lp8201
(S'okay'
p8202
g37
F0.7327
tp8203
a(S'tea'
p8204
g47
F0.7577
tp8205
a(S'(.)'
p8206
g47
F0.3866
tp8207
a(g5
g6
F0.9979
tp8208
asI1836
(lp8209
(S'put'
p8210
g13
F0.8013
tp8211
a(g75
g76
F0.5762
tp8212
a(S'the'
p8213
g44
F0.9994
tp8214
a(S'plates'
p8215
g47
F0.9929
tp8216
a(S'over'
p8217
g27
F0.9912
tp8218
a(S'this'
p8219
g16
F0.9864
tp8220
a(S'is'
p8221
g13
F0.9967
tp8222
a(S'how'
p8223
g10
F0.9762
tp8224
a(S'the'
p8225
g44
F0.9988
tp8226
a(S'plates'
p8227
g47
F0.9931
tp8228
a(g80
g81
F0.5759
tp8229
a(g83
g81
F0.5345
tp8230
a(g80
g81
F0.9532
tp8231
a(g86
g6
F0.8836
tp8232
a(S'go'
p8233
g13
F0.9571
tp8234
a(g5
g6
F0.9984
tp8235
asI1841
(lp8236
(S'xxx'
p8237
g81
F0.8981
tp8238
a(g83
g6
F0.6622
tp8239
a(g75
g76
F0.972
tp8240
a(g86
g6
F0.9847
tp8241
a(g5
g6
F0.9962
tp8242
asI1843
(lp8243
(S'Mommy'
p8244
g47
F0.7911
tp8245
a(g5
g6
F0.9983
tp8246
asI1847
(lp8247
(S'okay'
p8248
g37
F0.9064
tp8249
a(S'now'
p8250
g10
F0.9872
tp8251
a(g75
g76
F0.8891
tp8252
a(S'put'
p8253
g13
F0.9893
tp8254
a(S'the'
p8255
g44
F0.9997
tp8256
a(S'plates'
p8257
g47
F0.9931
tp8258
a(g80
g138
F0.3384
tp8259
a(S'[//]'
p8260
g138
F0.265
tp8261
a(S'match'
p8262
g13
F0.4727
tp8263
a(S'the'
p8264
g44
F0.9995
tp8265
a(S'plates'
p8266
g47
F0.9924
tp8267
a(S'up'
p8268
g27
F0.548
tp8269
a(S'what'
p8270
g16
F0.7354
tp8271
a(S'color'
p8272
g47
F0.9298
tp8273
a(S'goes'
p8274
g13
F0.9948
tp8275
a(S'with'
p8276
g27
F0.9873
tp8277
a(S'what'
p8278
g16
F0.7229
tp8279
a(S'color'
p8280
g47
F0.9671
tp8281
a(S'an(d'
p8282
g63
F0.9444
tp8283
a(g65
g6
F0.9842
tp8284
a(S'put'
p8285
g13
F0.9957
tp8286
a(S'them'
p8287
g16
F0.9755
tp8288
a(S'on'
p8289
g27
F0.9004
tp8290
a(S'top'
p8291
g47
F0.5154
tp8292
a(g5
g6
F0.9988
tp8293
asI1854
(lp8294
(S'do'
p8295
g13
F0.9985
tp8296
a(S'you'
p8297
g16
F0.9997
tp8298
a(S'know'
p8299
g13
F0.9988
tp8300
a(S'how'
p8301
g10
F0.9937
tp8302
a(S'to'
p8303
g27
F0.9743
tp8304
a(S'do'
p8305
g13
F0.9999
tp8306
a(S'that'
p8307
g44
F0.7914
tp8308
a(S'cup'
p8309
g47
F0.9848
tp8310
a(S'an(d'
p8311
g63
F0.9258
tp8312
a(g65
g6
F0.9768
tp8313
a(S'saucers'
p8314
g47
F0.9274
tp8315
a(S'like'
p8316
g27
F0.9486
tp8317
a(S'this'
p8318
g16
F0.9376
tp8319
a(g258
g6
F0.9991
tp8320
asI1859
(lp8321
(S'what'
p8322
g16
F0.677
tp8323
a(S'way'
p8324
g47
F0.9307
tp8325
a(g258
g6
F0.9983
tp8326
asI1862
(lp8327
(S'do'
p8328
g13
F0.9935
tp8329
a(S'that'
p8330
g16
F0.9428
tp8331
a(g5
g6
F0.9986
tp8332
asI1865
(lp8333
(S'like'
p8334
g27
F0.7787
tp8335
a(S'that'
p8336
g16
F0.971
tp8337
a(g5
g6
F0.9986
tp8338
asI1868
(lp8339
(S'put'
p8340
g13
F0.9811
tp8341
a(S'the'
p8342
g44
F0.9991
tp8343
a(S'blue'
p8344
g209
F0.5794
tp8345
a(S'an(d'
p8346
g63
F0.8665
tp8347
a(g65
g6
F0.9817
tp8348
a(S'the'
p8349
g44
F0.9968
tp8350
a(S'blue'
p8351
g209
F0.6782
tp8352
a(S'an(d'
p8353
g63
F0.8655
tp8354
a(g65
g6
F0.9817
tp8355
a(S'the'
p8356
g44
F0.9968
tp8357
a(S'yellow'
p8358
g209
F0.8023
tp8359
a(S'an(d'
p8360
g63
F0.8655
tp8361
a(g65
g6
F0.9817
tp8362
a(S'the'
p8363
g44
F0.9969
tp8364
a(S'yellow'
p8365
g47
F0.5836
tp8366
a(g5
g6
F0.9991
tp8367
asI1873
(lp8368
(S"that's"
p8369
g374
F0.9857
tp8370
a(S'it'
p8371
g16
F0.9948
tp8372
a(g5
g6
F0.9987
tp8373
asI1876
(lp8374
(S'let'
p8375
g13
F0.9975
tp8376
a(S'me'
p8377
g16
F0.9996
tp8378
a(S'see'
p8379
g13
F0.9603
tp8380
a(g5
g6
F0.9979
tp8381
asI1879
(lp8382
(S'the'
p8383
g44
F0.9968
tp8384
a(S'red'
p8385
g209
F0.9823
tp8386
a(S"one's"
p8387
g47
F0.3393
tp8388
a(S'over'
p8389
g27
F0.9294
tp8390
a(S'here'
p8391
g10
F0.9754
tp8392
a(g5
g6
F0.9982
tp8393
asI1882
(lp8394
(S'this'
p8395
g16
F0.9526
tp8396
a(S'is'
p8397
g13
F0.9996
tp8398
a(S'it'
p8399
g16
F0.9978
tp8400
a(S'(.)'
p8401
g6
F0.2714
tp8402
a(g5
g6
F0.9962
tp8403
asI1885
(lp8404
(S"here's"
p8405
g374
F0.92
tp8406
a(S'the'
p8407
g44
F0.9968
tp8408
a(S'red'
p8409
g209
F0.9906
tp8410
a(S'one'
p8411
g3
F0.9065
tp8412
a(S'(.)'
p8413
g81
F0.2997
tp8414
a(g5
g6
F0.9509
tp8415
asI2384
(lp8416
(S'uhuh'
p8417
g37
F0.9924
tp8418
a(g5
g6
F0.9962
tp8419
asI1889
(lp8420
(S'the'
p8421
g44
F0.9968
tp8422
a(S'red'
p8423
g209
F0.996
tp8424
a(S'one'
p8425
g3
F0.7287
tp8426
a(S'is'
p8427
g13
F0.9778
tp8428
a(S'here'
p8429
g10
F0.9889
tp8430
a(g5
g6
F0.9982
tp8431
asI1892
(lp8432
(S'whoops_a_daisy'
p8433
g37
F0.9914
tp8434
a(g5
g6
F0.9976
tp8435
asI1895
(lp8436
(S'oh'
p8437
g37
F0.9953
tp8438
a(S'God'
p8439
g30
F0.9873
tp8440
a(g5
g6
F0.9955
tp8441
asI1899
(lp8442
(g174
g16
F0.9983
tp8443
a(S'was'
p8444
g13
F0.9998
tp8445
a(S'sittin(g'
p8446
g13
F0.8805
tp8447
a(g65
g6
F0.9951
tp8448
a(S'on'
p8449
g27
F0.9816
tp8450
a(g404
g44
F0.9977
tp8451
a(S'car'
p8452
g47
F0.9989
tp8453
a(g83
g6
F0.9794
tp8454
a(g80
g81
F0.4696
tp8455
a(g86
g6
F0.795
tp8456
a(g5
g6
F0.9964
tp8457
asI1902
(lp8458
(S'where'
p8459
g10
F0.9631
tp8460
a(S'one'
p8461
g3
F0.8887
tp8462
a(g5
g6
F0.9975
tp8463
asI1905
(lp8464
(g34
g6
F0.9628
tp8465
a(S"it')s"
p8466
g374
F0.9829
tp8467
a(g404
g44
F0.9952
tp8468
a(S'car'
p8469
g47
F0.9983
tp8470
a(g75
g76
F0.6588
tp8471
a(S'Johnny'
p8472
g30
F0.9973
tp8473
a(g80
g138
F0.2873
tp8474
a(g83
g6
F0.899
tp8475
a(g80
g81
F0.4696
tp8476
a(g86
g6
F0.795
tp8477
a(g5
g6
F0.9964
tp8478
asI1908
(lp8479
(g75
g76
F0.9094
tp8480
a(S'an(d'
p8481
g63
F0.9355
tp8482
a(g65
g6
F0.9804
tp8483
a(S'another'
p8484
g44
F0.8966
tp8485
a(g80
g81
F0.3705
tp8486
a(g83
g81
F0.535
tp8487
a(g75
g76
F0.8293
tp8488
a(g86
g6
F0.9729
tp8489
a(S'one'
p8490
g3
F0.8913
tp8491
a(g5
g6
F0.9975
tp8492
asI1912
(lp8493
(S'alright'
p8494
g37
F0.9793
tp8495
a(g5
g6
F0.9973
tp8496
asI2314
(lp8497
(S'hi'
p8498
g37
F0.9538
tp8499
a(S'Johnny'
p8500
g30
F0.9982
tp8501
a(S'(.)'
p8502
g30
F0.7785
tp8503
a(g5
g6
F0.9942
tp8504
asI1915
(lp8505
(S"that's"
p8506
g374
F0.9857
tp8507
a(S'it'
p8508
g16
F0.9948
tp8509
a(g5
g6
F0.9987
tp8510
asI1918
(lp8511
(S'now'
p8512
g10
F0.9897
tp8513
a(S'[/]'
p8514
g6
F0.6177
tp8515
a(S'now'
p8516
g10
F0.9844
tp8517
a(S'which'
p8518
g44
F0.9914
tp8519
a(S'one'
p8520
g3
F0.9156
tp8521
a(g198
g63
F0.5662
tp8522
a(S'...'
p8523
g6
F0.6147
tp8524
asI1921
(lp8525
(S'oh'
p8526
g37
F0.9901
tp8527
a(S'here'
p8528
g10
F0.6555
tp8529
a(S'we'
p8530
g16
F0.9996
tp8531
a(S'have'
p8532
g13
F0.9999
tp8533
a(g404
g44
F0.9983
tp8534
a(S'pitcher'
p8535
g47
F0.998
tp8536
a(g5
g6
F0.9987
tp8537
asI1924
(lp8538
(S'okay'
p8539
g37
F0.9276
tp8540
a(g83
g6
F0.9879
tp8541
a(g80
g81
F0.3811
tp8542
a(g86
g6
F0.7604
tp8543
a(g5
g6
F0.9962
tp8544
asI1927
(lp8545
(g75
g76
F0.9147
tp8546
a(S'gonna'
p8547
g13
F0.9951
tp8548
a(S'put'
p8549
g13
F0.9996
tp8550
a(S'them'
p8551
g16
F0.9303
tp8552
a(g80
g81
F0.4391
tp8553
a(g83
g81
F0.535
tp8554
a(g75
g76
F0.7057
tp8555
a(g86
g6
F0.9842
tp8556
a(g5
g6
F0.9969
tp8557
asI1930
(lp8558
(g75
g76
F0.897
tp8559
a(S'the'
p8560
g44
F0.999
tp8561
a(S"yellow's>"
p8562
g47
F0.996
tp8563
a(g83
g6
F0.9872
tp8564
a(g80
g81
F0.5563
tp8565
a(g86
g6
F0.6899
tp8566
a(g5
g6
F0.9959
tp8567
asI1933
(lp8568
(g75
g76
F0.9768
tp8569
a(S'oh'
p8570
g37
F0.9986
tp8571
a(S'yeah'
p8572
g37
F0.9984
tp8573
a(g34
g6
F0.9872
tp8574
a(S'a)n(d'
p8575
g63
F0.9135
tp8576
a(g65
g6
F0.9865
tp8577
a(S'this'
p8578
g16
F0.6312
tp8579
a(g80
g138
F0.3314
tp8580
a(S'[//]'
p8581
g138
F0.303
tp8582
a(S"that's"
p8583
g374
F0.9932
tp8584
a(S'for'
p8585
g27
F0.999
tp8586
a(S'your'
p8587
g44
F0.9404
tp8588
a(g198
g138
F0.7396
tp8589
a(S'...'
p8590
g76
F0.5689
tp8591
asI1936
(lp8592
(S'oh'
p8593
g37
F0.9909
tp8594
a(S'this'
p8595
g16
F0.9826
tp8596
a(S'is'
p8597
g13
F0.9985
tp8598
a(S'for'
p8599
g27
F0.9995
tp8600
a(S'the'
p8601
g44
F0.991
tp8602
a(g198
g138
F0.4954
tp8603
a(S'...'
p8604
g76
F0.6739
tp8605
asI1939
(lp8606
(S'this'
p8607
g16
F0.6554
tp8608
a(S'will'
p8609
g13
F0.9861
tp8610
a(S'go'
p8611
g13
F0.9993
tp8612
a(S'like'
p8613
g27
F0.9051
tp8614
a(S'that'
p8615
g16
F0.9637
tp8616
a(g5
g6
F0.9984
tp8617
asI1942
(lp8618
(S'you'
p8619
g16
F0.998
tp8620
a(S'want'
p8621
g13
F0.9999
tp8622
a(S'the'
p8623
g44
F0.9996
tp8624
a(S'animals'
p8625
g47
F0.9922
tp8626
a(S'to'
p8627
g27
F0.9986
tp8628
a(S'drink'
p8629
g13
F0.9745
tp8630
a(S'(.)'
p8631
g81
F0.4328
tp8632
a(g258
g6
F0.9768
tp8633
asI1945
(lp8634
(S'drink'
p8635
g13
F0.9016
tp8636
a(S'some'
p8637
g44
F0.4468
tp8638
a(g258
g6
F0.9947
tp8639
asI1948
(lp8640
(S'an(d'
p8641
g63
F0.8847
tp8642
a(g65
g6
F0.9897
tp8643
a(S'you'
p8644
g16
F0.9967
tp8645
a(S'take'
p8646
g13
F0.9983
tp8647
a(S'one'
p8648
g3
F0.8855
tp8649
a(S'an(d'
p8650
g63
F0.9251
tp8651
a(g65
g6
F0.9805
tp8652
a(S'drink'
p8653
g13
F0.9502
tp8654
a(S'some'
p8655
g44
F0.4166
tp8656
a(g258
g6
F0.9967
tp8657
asI1953
(lp8658
(S'alright'
p8659
g37
F0.9293
tp8660
a(S'drink'
p8661
g13
F0.9352
tp8662
a(S'some'
p8663
g44
F0.7488
tp8664
a(S'of'
p8665
g27
F0.9967
tp8666
a(S'your'
p8667
g44
F0.9939
tp8668
a(S'tea'
p8669
g47
F0.9956
tp8670
a(g5
g6
F0.9984
tp8671
asI1957
(lp8672
(S'this'
p8673
g16
F0.9526
tp8674
a(S'is'
p8675
g13
F0.9995
tp8676
a(S'yours'
p8677
g16
F0.9598
tp8678
a(g5
g6
F0.9985
tp8679
asI1960
(lp8680
(S'an(d'
p8681
g63
F0.8847
tp8682
a(g65
g6
F0.9939
tp8683
a(S"this'll"
p8684
g374
F0.9174
tp8685
a(S'be'
p8686
g13
F0.9994
tp8687
a(S'mine'
p8688
g16
F0.864
tp8689
a(g5
g6
F0.9963
tp8690
asI1964
(lp8691
(S'zzz'
p8692
g37
F0.3756
tp8693
a(g5
g6
F0.9972
tp8694
asI1968
(lp8695
(S"let's"
p8696
g374
F0.9836
tp8697
a(S'have'
p8698
g13
F0.9998
tp8699
a(g404
g44
F0.9961
tp8700
a(S'drink'
p8701
g47
F0.9975
tp8702
a(S'of'
p8703
g27
F0.996
tp8704
a(S'tea'
p8705
g47
F0.9211
tp8706
a(g5
g6
F0.9984
tp8707
asI1971
(lp8708
(S'whoa'
p8709
g37
F0.9946
tp8710
a(S"it's"
p8711
g374
F0.9969
tp8712
a(S'good'
p8713
g209
F0.9866
tp8714
a(S"isn't"
p8715
g13
F0.9693
tp8716
a(S'it'
p8717
g16
F0.9925
tp8718
a(g258
g6
F0.9987
tp8719
asI1975
(lp8720
(g34
g6
F0.9422
tp8721
a(S'di)d'
p8722
g13
F0.9924
tp8723
a(S'you'
p8724
g16
F0.9958
tp8725
a(S'drink'
p8726
g13
F0.9983
tp8727
a(S'all'
p8728
g44
F0.687
tp8729
a(S'your(s'
p8730
g16
F0.7882
tp8731
a(g65
g6
F0.9843
tp8732
a(g258
g6
F0.9966
tp8733
asI1978
(lp8734
(S"here's"
p8735
g374
F0.9386
tp8736
a(g404
g44
F0.9951
tp8737
a(S'spoon'
p8738
g47
F0.9977
tp8739
a(g5
g6
F0.9985
tp8740
asI1981
(lp8741
(S'you'
p8742
g16
F0.998
tp8743
a(S'got'
p8744
g13
F0.999
tp8745
a(S't(o'
p8746
g47
F0.2477
tp8747
a(g65
g6
F0.9915
tp8748
a(S'put'
p8749
g13
F0.9879
tp8750
a(S'the'
p8751
g44
F0.9996
tp8752
a(S'sugar'
p8753
g47
F0.9978
tp8754
a(S'in'
p8755
g27
F0.9405
tp8756
a(g5
g6
F0.9969
tp8757
asI1986
(lp8758
(S'mm'
p8759
g37
F0.6238
tp8760
a(g258
g6
F0.9927
tp8761
asI1989
(lp8762
(S'an(d'
p8763
g63
F0.8847
tp8764
a(g65
g6
F0.9815
tp8765
a(S'your'
p8766
g44
F0.9513
tp8767
a(S'milk'
p8768
g47
F0.9996
tp8769
a(S'in'
p8770
g27
F0.9335
tp8771
a(g5
g6
F0.9941
tp8772
asI1992
(lp8773
(S'zzz'
p8774
g37
F0.3756
tp8775
a(g5
g6
F0.9972
tp8776
asI1996
(lp8777
(S'alright'
p8778
g37
F0.8691
tp8779
a(S'take'
p8780
g13
F0.9942
tp8781
a(S'some'
p8782
g44
F0.9947
tp8783
a(S'sugar'
p8784
g47
F0.9926
tp8785
a(S'(.)'
p8786
g138
F0.2482
tp8787
a(g5
g6
F0.9901
tp8788
asI1999
(lp8789
(S'go'
p8790
g13
F0.8895
tp8791
a(S't_t'
p8792
g81
F0.3326
tp8793
a(g735
g27
F0.8239
tp8794
a(S'put'
p8795
g13
F0.9854
tp8796
a(S'the'
p8797
g44
F0.9996
tp8798
a(S'sugar'
p8799
g47
F0.9977
tp8800
a(S'in'
p8801
g27
F0.947
tp8802
a(g5
g6
F0.9956
tp8803
asI2002
(lp8804
(S'how'
p8805
g10
F0.9945
tp8806
a(S'many'
p8807
g209
F0.987
tp8808
a(S'sugars'
p8809
g47
F0.973
tp8810
a(S'you'
p8811
g16
F0.9969
tp8812
a(S'want'
p8813
g13
F0.9994
tp8814
a(S'one'
p8815
g3
F0.9083
tp8816
a(g258
g6
F0.9965
tp8817
asI2317
(lp8818
(S'ask'
p8819
g13
F0.9975
tp8820
a(S'him'
p8821
g16
F0.9842
tp8822
a(S'what'
p8823
g16
F0.9503
tp8824
a(S'him'
p8825
g16
F0.9888
tp8826
a(S'what'
p8827
g16
F0.9687
tp8828
a(S"he's"
p8829
g374
F0.9777
tp8830
a(g75
g76
F0.8961
tp8831
a(S'doin(g)'
p8832
g13
F0.9614
tp8833
a(g80
g81
F0.4993
tp8834
a(g83
g81
F0.5345
tp8835
a(g80
g81
F0.9597
tp8836
a(g86
g6
F0.6916
tp8837
a(g5
g6
F0.9952
tp8838
asI2005
(lp8839
(S'put'
p8840
g13
F0.902
tp8841
a(S'how'
p8842
g10
F0.9911
tp8843
a(S'many'
p8844
g209
F0.9757
tp8845
a(S'sugars'
p8846
g47
F0.9667
tp8847
a(S'you'
p8848
g16
F0.9973
tp8849
a(S'want'
p8850
g13
F0.998
tp8851
a(g83
g6
F0.9851
tp8852
a(g80
g81
F0.4567
tp8853
a(g86
g6
F0.8291
tp8854
a(g5
g6
F0.9959
tp8855
asI2008
(lp8856
(S'five'
p8857
g3
F0.6819
tp8858
a(g83
g6
F0.9799
tp8859
a(g75
g76
F0.972
tp8860
a(g86
g6
F0.9847
tp8861
a(g5
g6
F0.9962
tp8862
asI2011
(lp8863
(S'you'
p8864
g16
F0.9966
tp8865
a(S'take'
p8866
g13
F0.9969
tp8867
a(S'one'
p8868
g3
F0.8077
tp8869
a(g258
g6
F0.9964
tp8870
asI2014
(lp8871
(S'five'
p8872
g3
F0.6819
tp8873
a(g83
g6
F0.9781
tp8874
a(g37
g6
F0.9888
tp8875
a(g86
g6
F0.9554
tp8876
a(g258
g6
F0.9963
tp8877
asI2522
(lp8878
(S'is'
p8879
g13
F0.9983
tp8880
a(S'this'
p8881
g16
F0.6373
tp8882
a(S'Tanya'
p8883
g30
F0.995
tp8884
a(g258
g6
F0.9964
tp8885
asI2017
(lp8886
(S'zzz'
p8887
g37
F0.3756
tp8888
a(g5
g6
F0.9972
tp8889
asI2021
(lp8890
(S'oh'
p8891
g37
F0.9942
tp8892
a(S"that's"
p8893
g374
F0.9945
tp8894
a(g404
g44
F0.9944
tp8895
a(S'lot'
p8896
g47
F0.9809
tp8897
a(S'of'
p8898
g27
F0.996
tp8899
a(S'sugar'
p8900
g47
F0.9904
tp8901
a(g5
g6
F0.9985
tp8902
asI2024
(lp8903
(S'okay'
p8904
g37
F0.8454
tp8905
a(S'an(d'
p8906
g63
F0.9001
tp8907
a(g65
g6
F0.9818
tp8908
a(S'this'
p8909
g16
F0.9418
tp8910
a(S'is'
p8911
g13
F0.9988
tp8912
a(S'the'
p8913
g44
F0.999
tp8914
a(S'milk'
p8915
g47
F0.9989
tp8916
a(g5
g6
F0.9987
tp8917
asI2027
(lp8918
(S'now'
p8919
g10
F0.9952
tp8920
a(S'pour'
p8921
g13
F0.9525
tp8922
a(S'the'
p8923
g44
F0.9994
tp8924
a(S'milk'
p8925
g47
F0.9943
tp8926
a(S'(.)'
p8927
g138
F0.2605
tp8928
a(g5
g6
F0.9901
tp8929
asI2030
(lp8930
(g2
g3
F0.9876
tp8931
a(g5
g6
F0.9949
tp8932
asI2032
(lp8933
(S'put'
p8934
g13
F0.9811
tp8935
a(S'the'
p8936
g44
F0.9995
tp8937
a(S'sugar'
p8938
g47
F0.9979
tp8939
a(S'in'
p8940
g27
F0.9833
tp8941
a(S'an(d'
p8942
g63
F0.782
tp8943
a(g65
g6
F0.9834
tp8944
a(S'stir'
p8945
g13
F0.9375
tp8946
a(S'it'
p8947
g16
F0.9958
tp8948
a(S'around'
p8949
g10
F0.5825
tp8950
a(g5
g6
F0.9982
tp8951
asI2387
(lp8952
(S'then'
p8953
g10
F0.9662
tp8954
a(S'you'
p8955
g16
F0.9984
tp8956
a(g83
g6
F0.9933
tp8957
a(g80
g81
F0.5453
tp8958
a(g86
g6
F0.7789
tp8959
a(g5
g6
F0.995
tp8960
asI2037
(lp8961
(S'a(ll'
p8962
g44
F0.1834
tp8963
a(g65
g6
F0.989
tp8964
a(S'right'
p8965
g10
F0.5139
tp8966
a(S'first'
p8967
g10
F0.5397
tp8968
a(S'you'
p8969
g16
F0.9987
tp8970
a(S'do'
p8971
g13
F0.9999
tp8972
a(S'this'
p8973
g16
F0.7021
tp8974
a(S'put'
p8975
g13
F0.9865
tp8976
a(S'the'
p8977
g44
F0.9996
tp8978
a(S'sugar'
p8979
g47
F0.9981
tp8980
a(S'in'
p8981
g27
F0.9941
tp8982
a(S'(.)'
p8983
g30
F0.626
tp8984
a(g5
g6
F0.9918
tp8985
asI2250
(lp8986
(S'xxx'
p8987
g81
F0.671
tp8988
a(S'put'
p8989
g13
F0.7272
tp8990
a(g5
g6
F0.9973
tp8991
asI2042
(lp8992
(S'put'
p8993
g13
F0.9811
tp8994
a(S'the'
p8995
g44
F0.9995
tp8996
a(S'sugar'
p8997
g47
F0.9979
tp8998
a(S'in'
p8999
g27
F0.9938
tp9000
a(S'(.)'
p9001
g30
F0.6599
tp9002
a(g5
g6
F0.9915
tp9003
asI2045
(lp9004
(S'put'
p9005
g13
F0.9914
tp9006
a(S'it'
p9007
g16
F0.9844
tp9008
a(S'in'
p9009
g27
F0.9346
tp9010
a(S'your'
p9011
g44
F0.9917
tp9012
a(S'cup'
p9013
g47
F0.9875
tp9014
a(S'(.)'
p9015
g81
F0.3562
tp9016
a(g5
g6
F0.9632
tp9017
as.