(dp0
I0
(lp1
(S'now'
p2
S'R'
p3
F0.9913
tp4
a(S'you'
p5
S'O'
p6
F0.9992
tp7
a(S'can'
p8
S'V'
p9
F0.9997
tp10
a(S'talk'
p11
g9
F0.9871
tp12
asI1
(lp13
(S'and'
p14
S'&'
p15
F0.9984
tp16
a(S'eat'
p17
g9
F0.9982
tp18
a(S'your'
p19
S'D'
p20
F0.9932
tp21
a(S'food'
p22
S'N'
p23
F0.9986
tp24
asI2
(lp25
(S'test'
p26
g23
F0.9765
tp27
a(S'test'
p28
g23
F0.9855
tp29
asI3
(lp30
(S'i'
p31
g6
F0.9893
tp32
a(S'said'
p33
g9
F0.9956
tp34
a(S'test'
p35
g23
F0.9895
tp36
a(S'test'
p37
g23
F0.9917
tp38
asI4
(lp39
(S'xxx'
p40
S'E'
p41
F0.8437
tp42
asI5
(lp43
(S'xxx'
p44
g41
F0.6008
tp45
a(S'key'
p46
g23
F0.4673
tp47
a(S'to'
p48
S'P'
p49
F0.9988
tp50
a(S'get'
p51
g9
F0.9995
tp52
a(S'in'
p53
g49
F0.5306
tp54
asI6
(lp55
(S'huh'
p56
S'!'
p57
F0.993
tp58
asI7
(lp59
(S'xxx'
p60
g41
F0.6008
tp61
a(S'key'
p62
g23
F0.4673
tp63
a(S'to'
p64
g49
F0.9988
tp65
a(S'get'
p66
g9
F0.9995
tp67
a(S'in'
p68
g49
F0.5306
tp69
asI8
(lp70
(S'test'
p71
g23
F0.9765
tp72
a(S'test'
p73
g23
F0.9855
tp74
asI9
(lp75
(S'where'
p76
g3
F0.9711
tp77
a(S's'
p78
S'G'
p79
F0.6184
tp80
a(S'your'
p81
g20
F0.9551
tp82
a(S'key'
p83
g23
F0.9427
tp84
asI10
(lp85
(S'xxx'
p86
g41
F0.8437
tp87
asI11
(lp88
(S'how'
p89
g3
F0.9773
tp90
a(S'd'
p91
g9
F0.3689
tp92
a(S'you'
p93
g6
F0.9993
tp94
a(S'get'
p95
g9
F0.9996
tp96
a(S'in'
p97
g49
F0.5306
tp98
asI12
(lp99
(S'climbed'
p100
g9
F0.9882
tp101
a(S'through'
p102
g49
F0.9964
tp103
a(S'the'
p104
g20
F0.9992
tp105
a(S'window'
p106
g23
F0.9969
tp107
asI13
(lp108
(S'what'
p109
g6
F0.8113
tp110
a(S'window'
p111
g23
F0.9924
tp112
asI14
(lp113
(S'the'
p114
g20
F0.9984
tp115
a(S'basement'
p116
g23
F0.9972
tp117
asI15
(lp118
(S'eat'
p119
g9
F0.99
tp120
a(S'your'
p121
g20
F0.994
tp122
a(S'food'
p123
g23
F0.9961
tp124
a(S'chi'
p125
g79
F0.6911
tp126
a(S'don'
p127
g79
F0.4767
tp128
a(S't'
p129
g79
F0.5651
tp130
a(S'play'
p131
g9
F0.9787
tp132
a(S'with'
p133
g49
F0.9989
tp134
a(S'it'
p135
g6
F0.9971
tp136
asI16
(lp137
(S'climbed'
p138
g9
F0.9882
tp139
a(S'through'
p140
g49
F0.9972
tp141
a(S'the'
p142
g20
F0.9993
tp143
a(S'window'
p144
g23
F0.9953
tp145
a(S'had'
p146
g9
F0.9953
tp147
a(S'to'
p148
g49
F0.9908
tp149
a(S'break'
p150
g9
F0.9959
tp151
a(S'into'
p152
g49
F0.9991
tp153
a(S'the'
p154
g20
F0.9963
tp155
a(S'shed'
p156
g23
F0.9181
tp157
asI17
(lp158
(S'with'
p159
g49
F0.9963
tp160
a(S'a'
p161
g20
F0.9985
tp162
a(S'knife'
p163
g23
F0.972
tp164
a(S'and'
p165
g15
F0.999
tp166
a(g161
g20
F0.9914
tp167
a(S'screwdriver'
p168
g23
F0.9644
tp169
asI18
(lp170
(g31
g6
F0.9756
tp171
a(S'didn'
p172
g9
F0.9919
tp173
a(g129
g9
F0.7501
tp174
a(S'have'
p175
g9
F0.9958
tp176
a(S'no'
p177
g20
F0.9847
tp178
a(S'key'
p179
g23
F0.9858
tp180
asI19
(lp181
(g31
g6
F0.953
tp182
a(S'm'
p183
g9
F0.98
tp184
a(S'standin'
p185
g9
F0.7482
tp186
a(S'g'
p187
g9
F0.6988
tp188
a(S'out'
p189
S'T'
p190
F0.6508
tp191
a(S'here'
p192
g3
F0.9811
tp193
a(S'bangin'
p194
S'A'
p195
F0.5381
tp196
a(g187
g23
F0.4787
tp197
asI20
(lp198
(S'honey'
p199
g23
F0.8143
tp200
a(S'let'
p201
g9
F0.9955
tp202
a(S'me'
p203
g6
F0.9994
tp204
a(S'in'
p205
g49
F0.6361
tp206
asI21
(lp207
(S'you'
p208
g6
F0.9911
tp209
a(S'didn'
p210
g9
F0.9886
tp211
a(g129
g9
F0.7995
tp212
a(S'see'
p213
g9
F0.9952
tp214
a(S'my'
p215
g20
F0.9992
tp216
a(S'car'
p217
g23
F0.998
tp218
a(S'was'
p219
g9
F0.9944
tp220
a(S'gone'
p221
g9
F0.4902
tp222
asI22
(lp223
(S'no'
p224
g57
F0.9253
tp225
asI23
(lp226
(S'dumbo'
p227
S'^'
p228
F0.8881
tp229
a(S'wp'
p230
g228
F0.3492
tp231
asI24
(lp232
(S'chi'
p233
g228
F0.68
tp234
a(S'don'
p235
g228
F0.8746
tp236
a(g129
g228
F0.5692
tp237
a(S'play'
p238
g9
F0.9368
tp239
a(S'with'
p240
g49
F0.999
tp241
a(S'your'
p242
g20
F0.9942
tp243
a(S'food'
p244
g23
F0.9931
tp245
a(S'honey'
p246
g23
F0.9736
tp247
asI25
(lp248
(S'laughs'
p249
g9
F0.9102
tp250
asI26
(lp251
(S'what'
p252
g6
F0.9784
tp253
a(g78
g79
F0.4376
tp254
a(S'goin'
p255
g9
F0.9795
tp256
a(g187
g9
F0.2992
tp257
a(S'on'
p258
g49
F0.59
tp259
asI27
(lp260
(S'laughs'
p261
g9
F0.9102
tp262
asI28
(lp263
(S'oh'
p264
g57
F0.9932
tp265
a(S'joanne'
p266
g228
F0.99
tp267
a(S'was'
p268
g9
F0.9833
tp269
a(S'very'
p270
g3
F0.9991
tp271
a(S'bad'
p272
g195
F0.9994
tp273
a(S'today'
p274
g23
F0.9977
tp275
asI29
(lp276
(S'again'
p277
g3
F0.9571
tp278
asI30
(lp279
(S'yes'
p280
g57
F0.9958
tp281
asI31
(lp282
(S'she'
p283
g6
F0.9902
tp284
a(S'xxx'
p285
g41
F0.5207
tp286
a(S'xxx'
p287
g41
F0.9054
tp288
a(S'nap'
p289
g23
F0.9479
tp290
a(S'and'
p291
g15
F0.9964
tp292
a(S'that'
p293
g6
F0.75
tp294
a(g78
g9
F0.8623
tp295
a(S'it'
p296
g6
F0.9945
tp297
asI32
(lp298
(S'she'
p299
g6
F0.9926
tp300
a(S'wouldn'
p301
g9
F0.9666
tp302
a(g129
g9
F0.7434
tp303
a(S'go'
p304
g9
F0.9898
tp305
a(S'to'
p306
g49
F0.9812
tp307
a(S'sleep'
p308
g9
F0.8739
tp309
a(S'thanks'
p310
g23
F0.9791
tp311
a(S'to'
p312
g49
F0.9993
tp313
a(S'you'
p314
g6
F0.9992
tp315
a(S'saying'
p316
g9
F0.9999
tp317
a(S'no'
p318
g20
F0.9852
tp319
a(S'pacifier'
p320
g23
F0.9998
tp321
asI33
(lp322
(S'oh'
p323
g57
F0.9988
tp324
asI34
(lp325
(S'she'
p326
g6
F0.9972
tp327
a(S'was'
p328
g9
F0.9988
tp329
a(S'just'
p330
g3
F0.9998
tp331
a(g161
g20
F0.992
tp332
a(S'pain'
p333
g23
F0.9996
tp334
a(S'in'
p335
g49
F0.9993
tp336
a(S'the'
p337
g20
F0.9996
tp338
a(S'butt'
p339
g23
F0.9992
tp340
a(g31
g6
F0.9579
tp341
a(S'have'
p342
g9
F0.9999
tp343
a(g161
g20
F0.999
tp344
a(S'big'
p345
g195
F0.9774
tp346
a(S'headache'
p347
g23
F0.9936
tp348
asI35
(lp349
(S'oh'
p350
g57
F0.9963
tp351
a(S'xxx'
p352
g41
F0.6977
tp353
asI36
(lp354
(S'daddy'
p355
g23
F0.9436
tp356
asI37
(lp357
(S'chi'
p358
g228
F0.6413
tp359
a(S'was'
p360
g9
F0.9944
tp361
a(S'good'
p362
g195
F0.9959
tp363
asI38
(lp364
(S'who'
p365
g6
F0.9905
tp366
a(g78
g9
F0.8898
tp367
a(S'over'
p368
g49
F0.5641
tp369
a(S'to'
p370
g49
F0.9845
tp371
a(S'your'
p372
g20
F0.9867
tp373
a(S'mother'
p374
g23
F0.9953
tp375
a(g78
g79
F0.7
tp376
a(S'house'
p377
g23
F0.8863
tp378
asI39
(lp379
(S'nobody'
p380
g23
F0.8478
tp381
asI40
(lp382
(S'they'
p383
g6
F0.9697
tp384
a(S'all'
p385
g20
F0.5795
tp386
a(S'left'
p387
g195
F0.5766
tp388
asI41
(lp389
(S'yeah'
p390
g57
F0.9988
tp391
asI42
(lp392
(S'mommy'
p393
g23
F0.7607
tp394
a(g31
g6
F0.9555
tp395
a(S'want'
p396
g9
F0.9998
tp397
a(S'daddy'
p398
g23
F0.9888
tp399
a(S'to'
p400
g49
F0.9992
tp401
a(S'tie'
p402
g9
F0.9891
tp403
a(S'my'
p404
g20
F0.997
tp405
a(S'shoe'
p406
g23
F0.9968
tp407
asI43
(lp408
(S'okay'
p409
g57
F0.8861
tp410
a(S'go'
p411
g9
F0.9192
tp412
a(S'tell'
p413
g9
F0.8554
tp414
a(S'daddy'
p415
g23
F0.9905
tp416
asI44
(lp417
(S'daddy'
p418
g23
F0.9704
tp419
a(S'would'
p420
g9
F0.9995
tp421
a(S'you'
p422
g6
F0.9934
tp423
a(S'tie'
p424
g9
F0.9808
tp425
a(S'my'
p426
g20
F0.9964
tp427
a(S'shoe'
p428
g23
F0.9972
tp429
asI45
(lp430
(g31
g6
F0.953
tp431
a(g183
g9
F0.9784
tp432
a(S'not'
p433
g3
F0.9964
tp434
a(S'tyin'
p435
g9
F0.8371
tp436
a(g187
g9
F0.5908
tp437
a(S'no'
p438
g20
F0.9556
tp439
a(S'shoes'
p440
g23
F0.9997
tp441
asI46
(lp442
(S'would'
p443
g9
F0.9987
tp444
a(S'you'
p445
g6
F0.9932
tp446
a(S'tie'
p447
g9
F0.9886
tp448
a(S'my'
p449
g20
F0.9982
tp450
a(S'shoes'
p451
g23
F0.998
tp452
asI47
(lp453
(S'alright'
p454
g57
F0.866
tp455
a(S'come'
p456
g9
F0.9897
tp457
a(S'on'
p458
g49
F0.6293
tp459
a(S'over'
p460
g49
F0.7088
tp461
a(S'here'
p462
g3
F0.9577
tp463
asI48
(lp464
(S'you'
p465
g6
F0.9968
tp466
a(S'gonna'
p467
g9
F0.9998
tp468
a(S'do'
p469
g9
F0.9999
tp470
a(S'that'
p471
g20
F0.8991
tp472
a(S'thing'
p473
g23
F0.998
tp474
a(S'tonight'
p475
g3
F0.6246
tp476
a(S'that'
p477
g20
F0.7329
tp478
a(S'lady'
p479
g23
F0.9903
tp480
a(S'call'
p481
g9
F0.9613
tp482
a(S'you'
p483
g6
F0.9972
tp484
asI49
(lp485
(S'no'
p486
g57
F0.9253
tp487
asI50
(lp488
(S'she'
p489
g6
F0.9926
tp490
a(S'didn'
p491
g9
F0.9724
tp492
a(g129
g9
F0.8003
tp493
a(S'call'
p494
g9
F0.9732
tp495
a(S'you'
p496
g6
F0.9977
tp497
asI51
(lp498
(S'xxx'
p499
g41
F0.8437
tp500
asI52
(lp501
(S'no'
p502
g57
F0.9253
tp503
asI53
(lp504
(S'she'
p505
g6
F0.9917
tp506
a(g78
g79
F0.558
tp507
a(S'gonna'
p508
g9
F0.9934
tp509
a(S'call'
p510
g9
F0.9993
tp511
a(S'me'
p512
g6
F0.9988
tp513
a(S'sometime'
p514
g3
F0.9821
tp515
a(S'this'
p516
g20
F0.9856
tp517
a(S'week'
p518
g23
F0.994
tp519
asI54
(lp520
(S'she'
p521
g6
F0.9969
tp522
a(S'called'
p523
g9
F0.9995
tp524
a(S'already'
p525
g3
F0.9902
tp526
a(S'she'
p527
g6
F0.996
tp528
a(S'wants'
p529
g9
F0.9998
tp530
a(S'to'
p531
g49
F0.9879
tp532
a(S'know'
p533
g9
F0.9996
tp534
a(S'if'
p535
g49
F0.9985
tp536
a(S'she'
p537
g6
F0.999
tp538
a(S'can'
p539
g9
F0.9991
tp540
a(S'come'
p541
g9
F0.9995
tp542
a(S'pick'
p543
g9
F0.9978
tp544
a(S'up'
p545
g190
F0.9594
tp546
a(S'her'
p547
g20
F0.985
tp548
a(S'thing'
p549
g23
F0.9995
tp550
asI55
(lp551
(S'already'
p552
g3
F0.9742
tp553
asI56
(lp554
(S'she'
p555
g6
F0.9969
tp556
a(S'called'
p557
g9
F0.9996
tp558
a(S'when'
p559
g3
F0.9849
tp560
a(g31
g6
F0.9929
tp561
a(S'was'
p562
g9
F0.9996
tp563
a(S'here'
p564
g3
F0.9806
tp565
a(S'the'
p566
g20
F0.9989
tp567
a(S'first'
p568
g195
F0.9956
tp569
a(S'time'
p570
g23
F0.9987
tp571
asI57
(lp572
(S'oh'
p573
g57
F0.9971
tp574
a(g31
g6
F0.985
tp575
a(S'didn'
p576
g9
F0.9915
tp577
a(g129
g9
F0.7488
tp578
a(S'know'
p579
g9
F0.996
tp580
a(S'that'
p581
g6
F0.6102
tp582
a(S'what'
p583
g6
F0.9841
tp584
a(g91
g9
F0.4812
tp585
a(S'you'
p586
g6
F0.9996
tp587
a(S'say'
p588
g9
F0.9971
tp589
asI58
(lp590
(S'when'
p591
g3
F0.9811
tp592
a(g31
g6
F0.9901
tp593
a(S'came'
p594
g9
F0.9996
tp595
a(S'in'
p596
g49
F0.9316
tp597
a(S'the'
p598
g20
F0.9994
tp599
a(S'house'
p600
g23
F0.9878
tp601
a(S'to'
p602
g49
F0.9995
tp603
a(S'get'
p604
g9
F0.9989
tp605
a(S'xxx'
p606
g41
F0.6557
tp607
asI59
(lp608
(S'change'
p609
g9
F0.8648
tp610
a(S'my'
p611
g20
F0.9955
tp612
a(S'shirt'
p613
g23
F0.9978
tp614
asI60
(lp615
(S'yeah'
p616
g57
F0.9988
tp617
asI61
(lp618
(S'gasp'
p619
g9
F0.4874
tp620
asI62
(lp621
(S'she'
p622
g6
F0.9968
tp623
a(S'called'
p624
g9
F0.9999
tp625
a(S'up'
p626
g190
F0.989
tp627
asI63
(lp628
(S'where'
p629
g3
F0.9778
tp630
a(g91
g79
F0.408
tp631
a(S'she'
p632
g6
F0.995
tp633
a(S'get'
p634
g9
F0.9997
tp635
a(S'that'
p636
g20
F0.7848
tp637
a(S'hot'
p638
g195
F0.9699
tp639
a(S'dog'
p640
g23
F0.9989
tp641
asI64
(lp642
(S'my'
p643
g20
F0.996
tp644
a(S'mother'
p645
g23
F0.993
tp646
a(g78
g79
F0.8005
tp647
a(S'house'
p648
g23
F0.9246
tp649
asI65
(lp650
(S'she'
p651
g6
F0.9971
tp652
a(S'said'
p653
g9
F0.9991
tp654
a(S'she'
p655
g6
F0.9991
tp656
a(S'had'
p657
g9
F0.9998
tp658
a(g161
g20
F0.9972
tp659
a(S'barbecue'
p660
g23
F0.9948
tp661
a(S'hamburgers'
p662
g23
F0.9972
tp663
a(S'and'
p664
g15
F0.9975
tp665
a(S'hot'
p666
g195
F0.9931
tp667
a(S'dogs'
p668
g23
F0.9972
tp669
asI66
(lp670
(S'oh'
p671
g57
F0.9951
tp672
a(S'she'
p673
g6
F0.9978
tp674
a(S'thinks'
p675
g9
F0.9995
tp676
a(S'she'
p677
g6
F0.9967
tp678
a(g78
g9
F0.6026
tp679
a(g161
g20
F0.956
tp680
a(S'xxx'
p681
g41
F0.4171
tp682
a(S'huh'
p683
g57
F0.9466
tp684
asI67
(lp685
(S'don'
p686
g228
F0.5427
tp687
a(g129
g228
F0.478
tp688
a(S'eat'
p689
g9
F0.9817
tp690
a(S'my'
p691
g20
F0.9976
tp692
a(S'hot'
p693
g195
F0.9852
tp694
a(S'dog'
p695
g23
F0.999
tp696
asI68
(lp697
(S'whose'
p698
S'L'
p699
F0.7386
tp700
a(S'are'
p701
g9
F0.9838
tp702
a(S'better'
p703
g195
F0.9078
tp704
asI69
(lp705
(S'it'
p706
g6
F0.9888
tp707
a(g78
g9
F0.7306
tp708
a(S'my'
p709
g20
F0.9938
tp710
a(S'hot'
p711
g195
F0.9833
tp712
a(S'dog'
p713
g23
F0.9985
tp714
asI70
(lp715
(g31
g6
F0.9756
tp716
a(S'didn'
p717
g9
F0.9919
tp718
a(g129
g9
F0.7162
tp719
a(S'have'
p720
g9
F0.9964
tp721
a(S'any'
p722
g20
F0.9585
tp723
asI71
(lp724
(S'come'
p725
g9
F0.9897
tp726
a(S'on'
p727
g49
F0.9016
tp728
a(S'help'
p729
g9
F0.8818
tp730
a(S'me'
p731
g6
F0.9988
tp732
a(S'up'
p733
g190
F0.9808
tp734
asI72
(lp735
(g31
g6
F0.9583
tp736
a(g31
g6
F0.9841
tp737
a(S'was'
p738
g9
F0.9999
tp739
a(S'in'
p740
g49
F0.9058
tp741
a(g161
g20
F0.9962
tp742
a(S'rush'
p743
g23
F0.9952
tp744
a(S'to'
p745
g49
F0.9994
tp746
a(S'get'
p747
g9
F0.9997
tp748
a(S'home'
p749
g23
F0.9165
tp750
asI73
(lp751
(S'me'
p752
g6
F0.9918
tp753
asI74
(lp754
(S'oh'
p755
g57
F0.9988
tp756
asI75
(lp757
(S'be'
p758
g9
F0.9727
tp759
a(S'cause'
p760
g49
F0.7105
tp761
a(g31
g6
F0.9828
tp762
a(g31
g6
F0.9669
tp763
a(S'know'
p764
g9
F0.9992
tp765
a(S'when'
p766
g3
F0.9826
tp767
a(S'you'
p768
g6
F0.9985
tp769
a(S'go'
p770
g9
F0.9977
tp771
a(S'home'
p772
g3
F0.574
tp773
a(S'you'
p774
g6
F0.9983
tp775
a(S'say'
p776
g9
F0.9977
tp777
a(S'where'
p778
g3
F0.9226
tp779
a(S'is'
p780
g9
F0.9951
tp781
a(S'she'
p782
g6
F0.9982
tp783
asI76
(lp784
(S'xxx'
p785
g41
F0.8437
tp786
asI77
(lp787
(g31
g6
F0.9914
tp788
a(S'was'
p789
g9
F0.9999
tp790
a(S'like'
p791
g49
F0.602
tp792
a(S'what'
p793
g6
F0.9931
tp794
a(S'the'
p795
g20
F0.9964
tp796
a(S'heck'
p797
g23
F0.9882
tp798
asI78
(lp799
(S'did'
p800
g9
F0.9986
tp801
a(S'you'
p802
g6
F0.9986
tp803
a(S'see'
p804
g9
F0.9998
tp805
a(S'my'
p806
g20
F0.9991
tp807
a(S'note'
p808
g23
F0.9979
tp809
asI79
(lp810
(S'yeah'
p811
g57
F0.9968
tp812
a(g31
g6
F0.9954
tp813
a(S'found'
p814
g9
F0.9999
tp815
a(S'the'
p816
g20
F0.9992
tp817
a(S'note'
p818
g23
F0.9961
tp819
a(S'just'
p820
g3
F0.9993
tp821
asI80
(lp822
(g31
g6
F0.9891
tp823
a(S'found'
p824
g9
F0.9999
tp825
a(S'the'
p826
g20
F0.9991
tp827
a(S'note'
p828
g23
F0.998
tp829
a(g31
g6
F0.9423
tp830
a(S'found'
p831
g9
F0.9996
tp832
a(S'twenty'
p833
S'$'
p834
F0.8443
tp835
a(S'dollars'
p836
g23
F0.9909
tp837
a(S'xxx'
p838
g41
F0.7753
tp839
asI81
(lp840
(S'test'
p841
g23
F0.9765
tp842
a(S'test'
p843
g23
F0.9855
tp844
asI82
(lp845
(S'xxx'
p846
g41
F0.8437
tp847
asI83
(lp848
(S'laughs'
p849
g9
F0.9102
tp850
asI84
(lp851
(S'this'
p852
g20
F0.9746
tp853
a(S'child'
p854
g23
F0.9648
tp855
a(S'oh'
p856
g57
F0.9878
tp857
asI85
(lp858
(S'oh'
p859
g57
F0.9977
tp860
a(S'jesus'
p861
g228
F0.9812
tp862
asI86
(lp863
(S'oh'
p864
g57
F0.9971
tp865
a(g31
g6
F0.9763
tp866
a(S'xxx'
p867
g9
F0.616
tp868
a(S'one'
p869
g834
F0.9559
tp870
a(S'thing'
p871
g23
F0.9946
tp872
asI87
(lp873
(S'xxx'
p874
g41
F0.6903
tp875
a(S'talk'
p876
g9
F0.9333
tp877
a(S'to'
p878
g49
F0.9944
tp879
a(S'him'
p880
g6
F0.9879
tp881
asI88
(lp882
(S'xxx'
p883
g41
F0.8437
tp884
asI89
(lp885
(S'oh'
p886
g57
F0.9971
tp887
a(g31
g6
F0.9928
tp888
a(S'forgot'
p889
g9
F0.9999
tp890
a(S'to'
p891
g49
F0.9958
tp892
a(S'get'
p893
g9
F0.9997
tp894
a(S'karen'
p895
g228
F0.9465
tp896
a(S'white'
p897
g195
F0.7855
tp898
asI90
(lp899
(S'xxx'
p900
g41
F0.8437
tp901
asI91
(lp902
(S'xxx'
p903
g41
F0.8437
tp904
asI92
(lp905
(S'xxx'
p906
g41
F0.8437
tp907
asI93
(lp908
(S'no'
p909
g57
F0.6532
tp910
a(g31
g6
F0.958
tp911
a(S'wanna'
p912
g9
F0.9987
tp913
a(S'make'
p914
g9
F0.9995
tp915
a(S'my'
p916
g20
F0.9992
tp917
a(S'own'
p918
g195
F0.6429
tp919
a(S'xxx'
p920
g41
F0.8015
tp921
asI94
(lp922
(S'xxx'
p923
g41
F0.8437
tp924
asI95
(lp925
(S'xxx'
p926
g41
F0.8437
tp927
asI96
(lp928
(S'humming'
p929
g9
F0.9303
tp930
asI97
(lp931
(S'eric'
p932
g228
F0.9901
tp933
asI98
(lp934
(S'humming'
p935
g9
F0.9303
tp936
asI99
(lp937
(S'xxx'
p938
g41
F0.8437
tp939
asI100
(lp940
(S'eric'
p941
g228
F0.9901
tp942
asI101
(lp943
(S'humming'
p944
g9
F0.9303
tp945
asI102
(lp946
(S'xxx'
p947
g41
F0.686
tp948
a(S'go'
p949
g9
F0.9059
tp950
asI103
(lp951
(S'chi'
p952
g228
F0.7398
tp953
a(S'did'
p954
g9
F0.999
tp955
a(S'you'
p956
g6
F0.9989
tp957
a(S'finish'
p958
g9
F0.991
tp959
a(S'honey'
p960
g23
F0.8131
tp961
asI104
(lp962
(S'mhm'
p963
g57
F0.9747
tp964
asI105
(lp965
(S'chew'
p966
g9
F0.9922
tp967
a(S'your'
p968
g20
F0.9897
tp969
a(S'food'
p970
g23
F0.9989
tp971
asI106
(lp972
(S'o'
p973
g57
F0.5131
tp974
a(S'kay'
p975
g57
F0.6089
tp976
asI107
(lp977
(S'coughs'
p978
g23
F0.5349
tp979
asI108
(lp980
(S'are'
p981
g9
F0.9963
tp982
a(S'you'
p983
g6
F0.9992
tp984
a(S'eating'
p985
g9
F0.9993
tp986
asI109
(lp987
(S'humming'
p988
g9
F0.9303
tp989
asI110
(lp990
(S'sis'
p991
g23
F0.6134
tp992
a(S'you'
p993
g6
F0.9955
tp994
a(S'gonna'
p995
g9
F0.9997
tp996
a(S'be'
p997
g9
F0.9998
tp998
a(g161
g20
F0.9744
tp999
a(S'good'
p1000
g195
F0.9987
tp1001
a(S'girl'
p1002
g23
F0.9968
tp1003
asI111
(lp1004
(S'humming'
p1005
g9
F0.9303
tp1006
asI112
(lp1007
(S'xxx'
p1008
g41
F0.8437
tp1009
asI113
(lp1010
(S'you'
p1011
g6
F0.9962
tp1012
a(S'be'
p1013
g9
F0.9987
tp1014
a(S'nice'
p1015
g195
F0.9962
tp1016
a(S'alright'
p1017
g57
F0.7643
tp1018
asI114
(lp1019
(S'mo'
p1020
g79
F0.3538
tp1021
a(g183
g79
F0.478
tp1022
a(S'mommy'
p1023
g23
F0.5621
tp1024
a(S'you'
p1025
g6
F0.9677
tp1026
a(S'al'
p1027
g20
F0.4187
tp1028
a(S'ready'
p1029
g195
F0.9783
tp1030
a(S'said'
p1031
g9
F0.9685
tp1032
a(S'that'
p1033
g6
F0.8068
tp1034
asI115
(lp1035
(S'yeah'
p1036
g57
F0.9968
tp1037
a(g31
g6
F0.9963
tp1038
a(S'know'
p1039
g9
F0.9985
tp1040
a(g31
g6
F0.9947
tp1041
a(S'said'
p1042
g9
F0.9999
tp1043
a(S'that'
p1044
g6
F0.6094
tp1045
a(S'but'
p1046
g15
F0.9882
tp1047
a(g31
g6
F0.9887
tp1048
a(S'don'
p1049
g9
F0.9263
tp1050
a(g129
g79
F0.2864
tp1051
a(S'want'
p1052
g9
F0.9789
tp1053
asI116
(lp1054
(S'mommy'
p1055
g23
F0.5271
tp1056
asI117
(lp1057
(S'what'
p1058
g6
F0.949
tp1059
asI118
(lp1060
(S'nice'
p1061
g195
F0.9471
tp1062
asI119
(lp1063
(S'yes'
p1064
g57
F0.9614
tp1065
a(S'nice'
p1066
g195
F0.9846
tp1067
a(S'be'
p1068
g9
F0.8667
tp1069
a(S'nice'
p1070
g195
F0.9959
tp1071
asI120
(lp1072
(S'xxx'
p1073
g41
F0.8437
tp1074
asI121
(lp1075
(S'and'
p1076
g15
F0.9973
tp1077
a(S'and'
p1078
g15
F0.9979
tp1079
a(S'stop'
p1080
g9
F0.9649
tp1081
a(S'taking'
p1082
g9
F0.9995
tp1083
a(S'your'
p1084
g20
F0.9957
tp1085
a(S'shoes'
p1086
g23
F0.9993
tp1087
a(S'off'
p1088
g49
F0.7221
tp1089
asI122
(lp1090
(S'leave'
p1091
g9
F0.9944
tp1092
a(S'your'
p1093
g20
F0.9959
tp1094
a(S'shoes'
p1095
g23
F0.9994
tp1096
a(S'on'
p1097
g49
F0.9826
tp1098
asI123
(lp1099
(S'xxx'
p1100
g41
F0.6424
tp1101
a(S'did'
p1102
g9
F0.9991
tp1103
a(S'you'
p1104
g6
F0.9994
tp1105
a(S'say'
p1106
g9
F0.9995
tp1107
a(S'this'
p1108
g6
F0.8558
tp1109
a(S'was'
p1110
g9
F0.9982
tp1111
a(S'any'
p1112
g20
F0.9344
tp1113
a(S'good'
p1114
g195
F0.9921
tp1115
asI124
(lp1116
(S'which'
p1117
g20
F0.9901
tp1118
a(S'one'
p1119
g834
F0.7682
tp1120
asI125
(lp1121
(S'yells'
p1122
g9
F0.6086
tp1123
asI126
(lp1124
(S'that'
p1125
g20
F0.6949
tp1126
a(S'one'
p1127
g834
F0.6858
tp1128
asI127
(lp1129
(S'donny'
p1130
g228
F0.9457
tp1131
asI128
(lp1132
(S'yeah'
p1133
g57
F0.9988
tp1134
asI129
(lp1135
(S'xxx'
p1136
g41
F0.7259
tp1137
a(S'mommy'
p1138
g23
F0.7373
tp1139
a(S'look'
p1140
g9
F0.9945
tp1141
a(S'it'
p1142
g6
F0.9953
tp1143
asI130
(lp1144
(g31
g6
F0.9894
tp1145
a(S'guess'
p1146
g9
F0.9997
tp1147
a(S'so'
p1148
g49
F0.5312
tp1149
a(S'be'
p1150
g9
F0.9592
tp1151
a(S'cause'
p1152
g49
F0.9727
tp1153
a(S'he'
p1154
g6
F0.9983
tp1155
a(S'has'
p1156
g9
F0.9999
tp1157
a(S'it'
p1158
g6
F0.9939
tp1159
asI131
(lp1160
(S'what'
p1161
g6
F0.9835
tp1162
a(S'are'
p1163
g9
F0.9978
tp1164
a(S'you'
p1165
g6
F0.9994
tp1166
a(S'doin'
p1167
g9
F0.9977
tp1168
a(g187
g79
F0.4071
tp1169
a(S'chi'
p1170
g79
F0.6629
tp1171
asI132
(lp1172
(S'what'
p1173
g6
F0.949
tp1174
asI133
(lp1175
(S'what'
p1176
g6
F0.9835
tp1177
a(S'are'
p1178
g9
F0.9978
tp1179
a(S'you'
p1180
g6
F0.9995
tp1181
a(S'doin'
p1182
g9
F0.9977
tp1183
a(g187
g23
F0.2782
tp1184
asI134
(lp1185
(S'xxx'
p1186
g41
F0.8437
tp1187
asI135
(lp1188
(S'oh'
p1189
g57
F0.9949
tp1190
a(S'nothing'
p1191
g23
F0.9008
tp1192
asI136
(lp1193
(S'xxx'
p1194
g41
F0.6599
tp1195
a(S'silly'
p1196
g195
F0.9976
tp1197
asI137
(lp1198
(S'xxx'
p1199
g41
F0.6042
tp1200
a(S'that'
p1201
g20
F0.7411
tp1202
a(S'lady'
p1203
g23
F0.9837
tp1204
a(g78
g79
F0.8185
tp1205
a(S'cute'
p1206
g195
F0.9927
tp1207
asI138
(lp1208
(g31
g6
F0.9635
tp1209
a(S'don'
p1210
g9
F0.9231
tp1211
a(g129
g23
F0.2457
tp1212
a(S'know'
p1213
g9
F0.9914
tp1214
a(S'how'
p1215
g3
F0.9919
tp1216
a(S'old'
p1217
g195
F0.9856
tp1218
a(S'is'
p1219
g9
F0.9533
tp1220
a(S'she'
p1221
g6
F0.998
tp1222
a(g78
g9
F0.685
tp1223
a(S'about'
p1224
g49
F0.9496
tp1225
a(S'tiffany'
p1226
g228
F0.9829
tp1227
a(g78
g228
F0.5427
tp1228
a(S'and'
p1229
g15
F0.9991
tp1230
a(S'um'
p1231
g57
F0.554
tp1232
a(S'debbie'
p1233
g228
F0.9002
tp1234
a(S'gibson'
p1235
g228
F0.9871
tp1236
a(g78
g79
F0.4606
tp1237
a(S'age'
p1238
g23
F0.9259
tp1239
asI139
(lp1240
(S'xxx'
p1241
g41
F0.6766
tp1242
a(S'help'
p1243
g9
F0.8756
tp1244
a(S'help'
p1245
g9
F0.6931
tp1246
asI140
(lp1247
(S'xxx'
p1248
g41
F0.7374
tp1249
a(S'too'
p1250
g3
F0.924
tp1251
asI141
(lp1252
(S'yeah'
p1253
g57
F0.9988
tp1254
asI142
(lp1255
(S'my'
p1256
g20
F0.9088
tp1257
a(S'xxx'
p1258
g23
F0.8921
tp1259
a(S'is'
p1260
g9
F0.9974
tp1261
a(S'xxx'
p1262
g41
F0.7968
tp1263
asI143
(lp1264
(S'her'
p1265
g20
F0.9685
tp1266
a(S'hair'
p1267
g23
F0.9992
tp1268
a(S'cut'
p1269
g23
F0.9724
tp1270
a(S'is'
p1271
g9
F0.9936
tp1272
a(S'real'
p1273
g195
F0.69
tp1274
a(S'short'
p1275
g195
F0.9872
tp1276
a(S'up'
p1277
g190
F0.4667
tp1278
a(S'to'
p1279
g49
F0.9978
tp1280
a(S'her'
p1281
g20
F0.9631
tp1282
a(S'ears'
p1283
g23
F0.9964
tp1284
asI144
(lp1285
(S'xxx'
p1286
g41
F0.8437
tp1287
asI145
(lp1288
(S'xxx'
p1289
g41
F0.7497
tp1290
a(g31
g6
F0.9428
tp1291
a(S'xxx'
p1292
g41
F0.5578
tp1293
asI146
(lp1294
(S'hers'
p1295
g6
F0.7134
tp1296
asI147
(lp1297
(S'xxx'
p1298
g41
F0.8437
tp1299
asI148
(lp1300
(S'0'
p1301
g834
F0.988
tp1302
a(S'high'
p1303
g23
F0.5044
tp1304
a(S'pitched'
p1305
g9
F0.9306
tp1306
a(S'murmuring'
p1307
g9
F0.9949
tp1308
a(S'as'
p1309
g49
F0.9666
tp1310
a(S'she'
p1311
g6
F0.9993
tp1312
a(S'pretends'
p1313
g9
F0.9983
tp1314
asI149
(lp1315
(S'no'
p1316
g57
F0.5523
tp1317
a(S'cut'
p1318
g23
F0.8151
tp1319
a(S'shorter'
p1320
g195
F0.9817
tp1321
asI150
(lp1322
(S'she'
p1323
g6
F0.9972
tp1324
a(S'was'
p1325
g9
F0.9994
tp1326
a(S'on'
p1327
g49
F0.8124
tp1328
a(S'channel'
p1329
g23
F0.7931
tp1330
a(S'five'
p1331
g834
F0.8444
tp1332
a(S'for'
p1333
g49
F0.9996
tp1334
a(S'um'
p1335
g57
F0.5809
tp1336
a(S'um'
p1337
g57
F0.8489
tp1338
a(S'something'
p1339
g23
F0.9863
tp1340
a(S'xxx'
p1341
g41
F0.3924
tp1342
a(S'against'
p1343
g49
F0.9875
tp1344
a(S'xxx'
p1345
g41
F0.3017
tp1346
a(S'that'
p1347
g49
F0.6197
tp1348
a(g78
g9
F0.7583
tp1349
a(S'it'
p1350
g6
F0.9914
tp1351
asI151
(lp1352
(S'mm'
p1353
g79
F0.3762
tp1354
a(S'xxx'
p1355
g79
F0.3801
tp1356
a(S'that'
p1357
g49
F0.4794
tp1358
a(g78
g79
F0.4212
tp1359
a(S'like'
p1360
g49
F0.8219
tp1361
a(S'that'
p1362
g6
F0.8225
tp1363
a(g78
g9
F0.6365
tp1364
a(S'like'
p1365
g49
F0.75
tp1366
asI152
(lp1367
(S'but'
p1368
g15
F0.989
tp1369
a(S'xxx'
p1370
g41
F0.3971
tp1371
a(S'like'
p1372
g49
F0.8993
tp1373
a(S'the'
p1374
g20
F0.9782
tp1375
a(S'um'
p1376
g79
F0.4433
tp1377
a(S'this'
p1378
g20
F0.9577
tp1379
a(S'month'
p1380
g23
F0.9959
tp1381
a(S'and'
p1382
g15
F0.9975
tp1383
a(S'her'
p1384
g20
F0.9447
tp1385
a(S'hair'
p1386
g23
F0.9992
tp1387
a(S'cut'
p1388
g23
F0.9698
tp1389
a(S'is'
p1390
g9
F0.9993
tp1391
a(S'all'
p1392
S'X'
p1393
F0.6897
tp1394
a(S'the'
p1395
g20
F0.9998
tp1396
a(S'way'
p1397
g23
F0.974
tp1398
a(S'up'
p1399
g49
F0.4846
tp1400
a(S'to'
p1401
g49
F0.9958
tp1402
a(S'her'
p1403
g20
F0.969
tp1404
a(S'ears'
p1405
g23
F0.9984
tp1406
asI153
(lp1407
(g31
g6
F0.9948
tp1408
a(S'did'
p1409
g9
F0.9989
tp1410
a(S'momma'
p1411
g23
F0.4507
tp1412
asI154
(lp1413
(S'xxx'
p1414
g41
F0.8437
tp1415
asI155
(lp1416
(S'it'
p1417
g6
F0.9888
tp1418
a(g78
g9
F0.6863
tp1419
a(S'straight'
p1420
g3
F0.4642
tp1421
a(S'xxx'
p1422
g41
F0.8045
tp1423
asI156
(lp1424
(S'mommy'
p1425
g23
F0.8045
tp1426
a(g31
g6
F0.981
tp1427
a(S'did'
p1428
g9
F0.9996
tp1429
asI157
(lp1430
(S'when'
p1431
g3
F0.8799
tp1432
a(S'did'
p1433
g9
F0.9989
tp1434
a(S'you'
p1435
g6
F0.999
tp1436
a(S'see'
p1437
g9
F0.9917
tp1438
a(S'xxx'
p1439
g41
F0.7504
tp1440
asI158
(lp1441
(S'huh'
p1442
g57
F0.993
tp1443
asI159
(lp1444
(S'when'
p1445
g3
F0.8799
tp1446
a(S'did'
p1447
g9
F0.9989
tp1448
a(S'you'
p1449
g6
F0.999
tp1450
a(S'see'
p1451
g9
F0.9917
tp1452
a(S'xxx'
p1453
g41
F0.7504
tp1454
asI160
(lp1455
(g31
g6
F0.9948
tp1456
a(S'did'
p1457
g9
F0.9993
tp1458
asI161
(lp1459
(S'xxx'
p1460
g41
F0.5376
tp1461
a(S'recorded'
p1462
g9
F0.9896
tp1463
a(S'it'
p1464
g6
F0.9767
tp1465
asI162
(lp1466
(g31
g6
F0.9948
tp1467
a(S'did'
p1468
g9
F0.9989
tp1469
a(S'momma'
p1470
g23
F0.4507
tp1471
asI163
(lp1472
(S'okay'
p1473
g57
F0.8974
tp1474
a(S'let'
p1475
g9
F0.8616
tp1476
a(g78
g9
F0.4593
tp1477
a(S'you'
p1478
g6
F0.9993
tp1479
a(S'gotta'
p1480
g9
F0.9999
tp1481
a(S'wait'
p1482
g9
F0.9977
tp1483
a(S'for'
p1484
g49
F0.992
tp1485
a(S'sis'
p1486
g23
F0.9543
tp1487
a(S'to'
p1488
g49
F0.9991
tp1489
a(S'finish'
p1490
g9
F0.9968
tp1491
a(S'be'
p1492
g9
F0.977
tp1493
a(S'cause'
p1494
g49
F0.665
tp1495
a(g31
g6
F0.9853
tp1496
a(S'don'
p1497
g9
F0.9198
tp1498
a(g129
g23
F0.2294
tp1499
a(S'want'
p1500
g9
F0.9957
tp1501
a(S'to'
p1502
g49
F0.9955
tp1503
a(S'give'
p1504
g9
F0.9986
tp1505
a(S'one'
p1506
g834
F0.9159
tp1507
a(S'to'
p1508
g49
F0.9995
tp1509
a(S'you'
p1510
g6
F0.9993
tp1511
a(S'and'
p1512
g15
F0.9919
tp1513
a(S'sis'
p1514
g23
F0.9589
tp1515
a(S'sees'
p1516
g9
F0.9995
tp1517
a(S'it'
p1518
g6
F0.9912
tp1519
asI164
(lp1520
(S'so'
p1521
g49
F0.8338
tp1522
a(S'you'
p1523
g6
F0.9995
tp1524
a(S'gotta'
p1525
g9
F0.9999
tp1526
a(S'wait'
p1527
g9
F0.9978
tp1528
a(S'for'
p1529
g49
F0.992
tp1530
a(S'sis'
p1531
g23
F0.9543
tp1532
a(S'to'
p1533
g49
F0.9991
tp1534
a(S'finish'
p1535
g9
F0.9997
tp1536
a(S'her'
p1537
g20
F0.9398
tp1538
a(S'dinner'
p1539
g23
F0.9948
tp1540
a(S'okay'
p1541
g57
F0.8154
tp1542
asI165
(lp1543
(S'xxx'
p1544
g41
F0.8437
tp1545
asI166
(lp1546
(S'xxx'
p1547
g41
F0.8437
tp1548
asI167
(lp1549
(S'xxx'
p1550
g41
F0.8437
tp1551
asI168
(lp1552
(S'momma'
p1553
g23
F0.6875
tp1554
a(g31
g6
F0.957
tp1555
a(S'said'
p1556
g9
F0.9983
tp1557
a(S'test'
p1558
g23
F0.9904
tp1559
a(S'test'
p1560
g23
F0.9736
tp1561
asI169
(lp1562
(S'xxx'
p1563
g41
F0.8437
tp1564
asI170
(lp1565
(S'yeah'
p1566
g57
F0.9957
tp1567
a(S'you'
p1568
g6
F0.986
tp1569
asI171
(lp1570
(S'xxx'
p1571
g41
F0.8437
tp1572
asI172
(lp1573
(S'yeah'
p1574
g57
F0.9988
tp1575
asI173
(lp1576
(S'you'
p1577
g6
F0.9963
tp1578
a(S'go'
p1579
g9
F0.9949
tp1580
a(S'ahead'
p1581
g3
F0.9811
tp1582
a(g31
g6
F0.9678
tp1583
a(S'll'
p1584
g9
F0.7308
tp1585
a(S'stay'
p1586
g9
F0.9086
tp1587
a(S'and'
p1588
g15
F0.9932
tp1589
a(S'watch'
p1590
g9
F0.9962
tp1591
a(S'the'
p1592
g20
F0.9996
tp1593
a(S'kids'
p1594
g23
F0.9782
tp1595
a(S'be'
p1596
g9
F0.9932
tp1597
a(S'cause'
p1598
g49
F0.7128
tp1599
asI174
(lp1600
(g31
g6
F0.9946
tp1601
a(S'did'
p1602
g9
F0.9999
tp1603
a(S'like'
p1604
g49
F0.6566
tp1605
a(S'test'
p1606
g23
F0.9939
tp1607
a(S'test'
p1608
g23
F0.9736
tp1609
asI175
(lp1610
(g31
g6
F0.9635
tp1611
a(S'don'
p1612
g9
F0.9231
tp1613
a(g129
g23
F0.2141
tp1614
a(S'feel'
p1615
g9
F0.9945
tp1616
a(S'like'
p1617
g49
F0.8868
tp1618
a(S'racing'
p1619
g23
F0.7296
tp1620
a(S'around'
p1621
g49
F0.7672
tp1622
a(S'with'
p1623
g49
F0.9986
tp1624
a(S'them'
p1625
g6
F0.921
tp1626
asI176
(lp1627
(S'xxx'
p1628
g41
F0.8437
tp1629
asI177
(lp1630
(S'you'
p1631
g6
F0.9969
tp1632
a(S'can'
p1633
g9
F0.9994
tp1634
a(g129
g9
F0.9558
tp1635
a(S'you'
p1636
g6
F0.9993
tp1637
a(S'can'
p1638
g9
F0.9993
tp1639
a(g129
g9
F0.6682
tp1640
a(S'touch'
p1641
g9
F0.9487
tp1642
a(S'it'
p1643
g6
F0.9929
tp1644
a(S'though'
p1645
g49
F0.961
tp1646
a(S'you'
p1647
g6
F0.9995
tp1648
a(S'can'
p1649
g9
F0.9996
tp1650
a(S'talk'
p1651
g9
F0.9975
tp1652
a(S'to'
p1653
g49
F0.9979
tp1654
a(S'it'
p1655
g6
F0.9961
tp1656
a(S'but'
p1657
g15
F0.9634
tp1658
a(S'you'
p1659
g6
F0.9995
tp1660
a(S'can'
p1661
g9
F0.9993
tp1662
a(g129
g9
F0.9485
tp1663
a(S'you'
p1664
g6
F0.9994
tp1665
a(S'can'
p1666
g9
F0.9993
tp1667
a(g129
g9
F0.6455
tp1668
a(S'touch'
p1669
g9
F0.9378
tp1670
a(S'it'
p1671
g6
F0.9872
tp1672
asI178
(lp1673
(S'you'
p1674
g6
F0.961
tp1675
a(S'okay'
p1676
g195
F0.5359
tp1677
asI179
(lp1678
(S'yeah'
p1679
g57
F0.9968
tp1680
a(g31
g6
F0.9865
tp1681
a(g183
g9
F0.9701
tp1682
a(S'just'
p1683
g3
F0.9997
tp1684
a(S'tired'
p1685
g195
F0.7186
tp1686
asI180
(lp1687
(S'you'
p1688
g6
F0.995
tp1689
a(S'rather'
p1690
g3
F0.9944
tp1691
a(S'have'
p1692
g9
F0.9999
tp1693
a(S'me'
p1694
g6
F0.997
tp1695
a(S'stay'
p1696
g9
F0.9819
tp1697
a(S'home'
p1698
g23
F0.8763
tp1699
asI181
(lp1700
(S'huh'
p1701
g57
F0.993
tp1702
asI182
(lp1703
(S'you'
p1704
g6
F0.995
tp1705
a(S'rather'
p1706
g3
F0.9944
tp1707
a(S'have'
p1708
g9
F0.9999
tp1709
a(S'me'
p1710
g6
F0.997
tp1711
a(S'stay'
p1712
g9
F0.9819
tp1713
a(S'home'
p1714
g23
F0.8763
tp1715
asI183
(lp1716
(S'no'
p1717
g57
F0.7985
tp1718
a(S'you'
p1719
g6
F0.9964
tp1720
a(S'can'
p1721
g9
F0.9996
tp1722
a(S'go'
p1723
g9
F0.997
tp1724
a(S'xxx'
p1725
g49
F0.2863
tp1726
a(S'you'
p1727
g6
F0.9991
tp1728
a(S'can'
p1729
g9
F0.9997
tp1730
a(S'stay'
p1731
g9
F0.9964
tp1732
a(S'home'
p1733
g23
F0.8772
tp1734
a(S'xxx'
p1735
g49
F0.2677
tp1736
a(S'you'
p1737
g6
F0.9991
tp1738
a(S'can'
p1739
g9
F0.9996
tp1740
a(S'go'
p1741
g9
F0.9988
tp1742
a(S'play'
p1743
g9
F0.928
tp1744
a(S'be'
p1745
g9
F0.958
tp1746
a(S'cause'
p1747
g49
F0.665
tp1748
a(g31
g6
F0.9955
tp1749
a(S'said'
p1750
g9
F0.9999
tp1751
a(S'you'
p1752
g6
F0.999
tp1753
a(S'could'
p1754
g9
F0.9995
tp1755
a(S'so'
p1756
g3
F0.823
tp1757
a(S'go'
p1758
g9
F0.9291
tp1759
a(S'on'
p1760
g49
F0.7677
tp1761
asI184
(lp1762
(g31
g6
F0.9811
tp1763
a(S'just'
p1764
g3
F0.9995
tp1765
a(S'don'
p1766
g9
F0.6092
tp1767
a(g129
g23
F0.2247
tp1768
a(S'want'
p1769
g9
F0.9957
tp1770
a(S'to'
p1771
g49
F0.9934
tp1772
a(S'chase'
p1773
g9
F0.9886
tp1774
a(S'around'
p1775
g3
F0.443
tp1776
a(S'outside'
p1777
g3
F0.46
tp1778
a(S'xxx'
p1779
g41
F0.3563
tp1780
a(S'that'
p1781
g49
F0.6232
tp1782
a(g78
g9
F0.5592
tp1783
a(S'all'
p1784
g20
F0.8376
tp1785
asI185
(lp1786
(S'want'
p1787
g9
F0.9993
tp1788
a(S'me'
p1789
g6
F0.9986
tp1790
a(S'to'
p1791
g49
F0.9187
tp1792
a(S'xxx'
p1793
g41
F0.5952
tp1794
asI186
(lp1795
(S'xxx'
p1796
g41
F0.8437
tp1797
asI187
(lp1798
(S'huh'
p1799
g57
F0.993
tp1800
asI188
(lp1801
(S'xxx'
p1802
g41
F0.8437
tp1803
asI189
(lp1804
(S'she'
p1805
g6
F0.9961
tp1806
a(S'can'
p1807
g9
F0.9987
tp1808
a(g129
g9
F0.809
tp1809
a(S'play'
p1810
g9
F0.9755
tp1811
a(S'here'
p1812
g3
F0.9879
tp1813
a(S'by'
p1814
g49
F0.9957
tp1815
a(S'herself'
p1816
g6
F0.9657
tp1817
asI190
(lp1818
(S'yelling'
p1819
g9
F0.9746
tp1820
asI191
(lp1821
(S'where'
p1822
g3
F0.9711
tp1823
a(g78
g79
F0.5697
tp1824
a(S'everybody'
p1825
g23
F0.9716
tp1826
a(S'else'
p1827
g3
F0.9317
tp1828
asI192
(lp1829
(S'xxx'
p1830
g41
F0.8437
tp1831
asI193
(lp1832
(S'uh'
p1833
g57
F0.9765
tp1834
a(S'xxx'
p1835
g41
F0.5745
tp1836
a(S'daddy'
p1837
g23
F0.9817
tp1838
asI194
(lp1839
(S'xxx'
p1840
g41
F0.5798
tp1841
a(S'the'
p1842
g20
F0.9978
tp1843
a(S'pork'
p1844
g23
F0.9926
tp1845
a(S'chops'
p1846
g23
F0.9961
tp1847
a(S'done'
p1848
g9
F0.9536
tp1849
asI195
(lp1850
(S'no'
p1851
g57
F0.5284
tp1852
a(S'did'
p1853
g9
F0.9981
tp1854
a(S'you'
p1855
g6
F0.9997
tp1856
a(S'did'
p1857
g9
F0.9999
tp1858
a(S'you'
p1859
g6
F0.9944
tp1860
a(S'check'
p1861
g9
F0.9997
tp1862
a(S'them'
p1863
g6
F0.9727
tp1864
a(S'when'
p1865
g3
F0.9945
tp1866
a(S'you'
p1867
g6
F0.9991
tp1868
a(S'came'
p1869
g9
F0.9988
tp1870
a(S'in'
p1871
g190
F0.5177
tp1872
asI196
(lp1873
(S'yeah'
p1874
g57
F0.9962
tp1875
a(S'but'
p1876
g15
F0.9951
tp1877
a(g31
g6
F0.991
tp1878
a(S'don'
p1879
g9
F0.8596
tp1880
a(g129
g79
F0.4257
tp1881
asI197
(lp1882
(g31
g6
F0.9888
tp1883
a(S'turned'
p1884
g9
F0.9999
tp1885
a(S'the'
p1886
g20
F0.9996
tp1887
a(S'oven'
p1888
g23
F0.9943
tp1889
a(S'off'
p1890
g49
F0.5864
tp1891
asI198
(lp1892
(S'yeah'
p1893
g57
F0.9986
tp1894
a(S'thank'
p1895
g9
F0.9647
tp1896
a(S'you'
p1897
g6
F0.999
tp1898
asI199
(lp1899
(S'the'
p1900
g20
F0.9981
tp1901
a(S'rice'
p1902
g23
F0.9789
tp1903
a(S'is'
p1904
g9
F0.9959
tp1905
a(S'done'
p1906
g9
F0.6093
tp1907
asI200
(lp1908
(S'yep'
p1909
g57
F0.9977
tp1910
asI201
(lp1911
(S'laughing'
p1912
g9
F0.9384
tp1913
asI202
(lp1914
(S'you'
p1915
g6
F0.9951
tp1916
a(S'gonna'
p1917
g9
F0.9994
tp1918
a(S'eat'
p1919
g9
F0.9951
tp1920
asI203
(lp1921
(S'yeah'
p1922
g57
F0.9958
tp1923
a(S'chi'
p1924
g228
F0.7485
tp1925
a(S'ate'
p1926
g9
F0.9946
tp1927
a(g161
g20
F0.9965
tp1928
a(S'lot'
p1929
g23
F0.933
tp1930
a(S'over'
p1931
g49
F0.9945
tp1932
a(S'my'
p1933
g20
F0.9952
tp1934
a(S'mother'
p1935
g23
F0.9929
tp1936
a(g78
g79
F0.754
tp1937
a(S'house'
p1938
g23
F0.8327
tp1939
asI204
(lp1940
(S'yeah'
p1941
g57
F0.9988
tp1942
asI205
(lp1943
(S'yeah'
p1944
g57
F0.9988
tp1945
asI206
(lp1946
(S'no'
p1947
g57
F0.4113
tp1948
a(S'more'
p1949
g195
F0.9305
tp1950
a(S'beef'
p1951
g23
F0.9987
tp1952
asI207
(lp1953
(S'no'
p1954
g57
F0.4113
tp1955
a(S'more'
p1956
g195
F0.9305
tp1957
a(S'beef'
p1958
g23
F0.9987
tp1959
asI208
(lp1960
(S'no'
p1961
g57
F0.6808
tp1962
a(S'sorry'
p1963
g195
F0.7592
tp1964
a(g31
g6
F0.9899
tp1965
a(S'was'
p1966
g9
F0.9997
tp1967
a(S'looking'
p1968
g9
F0.9828
tp1969
a(S'for'
p1970
g49
F0.9994
tp1971
a(S'you'
p1972
g6
F0.9988
tp1973
asI209
(lp1974
(S'xxx'
p1975
g41
F0.6632
tp1976
a(S'gonna'
p1977
g9
F0.99
tp1978
a(S'get'
p1979
g9
F0.9999
tp1980
a(S'any'
p1981
g20
F0.8374
tp1982
a(S'for'
p1983
g49
F0.9994
tp1984
a(S'me'
p1985
g6
F0.999
tp1986
asI210
(lp1987
(g31
g6
F0.9914
tp1988
a(S'was'
p1989
g9
F0.9998
tp1990
a(S'lookin'
p1991
g9
F0.8196
tp1992
a(g187
g9
F0.4604
tp1993
a(S'for'
p1994
g49
F0.9992
tp1995
a(S'it'
p1996
g6
F0.9984
tp1997
a(S'for'
p1998
g49
F0.9993
tp1999
a(S'you'
p2000
g6
F0.9993
tp2001
asI211
(lp2002
(S'chi'
p2003
g228
F0.693
tp2004
a(S'honey'
p2005
g23
F0.5497
tp2006
a(S'come'
p2007
g9
F0.9827
tp2008
a(S'on'
p2009
g49
F0.7989
tp2010
a(S'honey'
p2011
g23
F0.8979
tp2012
a(S'hurry'
p2013
g9
F0.9358
tp2014
a(S'up'
p2015
g190
F0.97
tp2016
a(S'an'
p2017
g20
F0.967
tp2018
a(g91
g23
F0.6396
tp2019
a(S'eat'
p2020
g9
F0.9839
tp2021
asI212
(lp2022
(S'no'
p2023
g57
F0.6674
tp2024
a(S'no'
p2025
g20
F0.4798
tp2026
a(S'stay'
p2027
g23
F0.9687
tp2028
a(S'still'
p2029
g3
F0.9952
tp2030
asI213
(lp2031
(S'xxx'
p2032
g41
F0.8437
tp2033
asI214
(lp2034
(S'every'
p2035
g20
F0.9823
tp2036
a(S'time'
p2037
g23
F0.9974
tp2038
a(S'she'
p2039
g6
F0.9923
tp2040
a(S'has'
p2041
g9
F0.9997
tp2042
a(g161
g20
F0.9941
tp2043
a(S'bad'
p2044
g195
F0.9969
tp2045
a(S'day'
p2046
g23
F0.9931
tp2047
a(S'she'
p2048
g6
F0.9936
tp2049
a(S'gives'
p2050
g9
F1.0
tp2051
a(S'me'
p2052
g6
F0.9971
tp2053
a(S'such'
p2054
g195
F0.3807
tp2055
a(g161
g20
F0.984
tp2056
a(S'bad'
p2057
g195
F0.9902
tp2058
a(S'headache'
p2059
g23
F0.9929
tp2060
asI215
(lp2061
(S'xxx'
p2062
g41
F0.6642
tp2063
a(S'heat'
p2064
g228
F0.666
tp2065
a(S'xxx'
p2066
g41
F0.7754
tp2067
asI216
(lp2068
(S'xxx'
p2069
g41
F0.8437
tp2070
asI217
(lp2071
(S'cheer'
p2072
g9
F0.921
tp2073
a(S'up'
p2074
g190
F0.9883
tp2075
asI218
(lp2076
(g31
g6
F0.988
tp2077
a(S'am'
p2078
g9
F0.9952
tp2079
asI219
(lp2080
(S'laughing'
p2081
g9
F0.9384
tp2082
asI220
(lp2083
(S'how'
p2084
g3
F0.9581
tp2085
a(S'was'
p2086
g9
F0.9823
tp2087
a(S'work'
p2088
g23
F0.9267
tp2089
asI221
(lp2090
(S'everything'
p2091
g23
F0.9757
tp2092
a(S'xxx'
p2093
g41
F0.695
tp2094
a(S'alright'
p2095
g57
F0.9223
tp2096
asI222
(lp2097
(S'laughing'
p2098
g9
F0.9384
tp2099
asI223
(lp2100
(S'who'
p2101
g6
F0.9957
tp2102
a(S'was'
p2103
g9
F0.9993
tp2104
a(S'working'
p2105
g9
F0.9877
tp2106
asI224
(lp2107
(S'me'
p2108
g6
F0.9918
tp2109
asI225
(lp2110
(S'laughing'
p2111
g9
F0.9384
tp2112
asI226
(lp2113
(S'where'
p2114
g3
F0.9711
tp2115
a(g78
g79
F0.5697
tp2116
a(S'everybody'
p2117
g23
F0.9716
tp2118
a(S'else'
p2119
g3
F0.9317
tp2120
asI227
(lp2121
(g31
g6
F0.9635
tp2122
a(S'don'
p2123
g9
F0.9156
tp2124
a(g129
g23
F0.3074
tp2125
a(S'know'
p2126
g9
F0.965
tp2127
asI228
(lp2128
(S'when'
p2129
g3
F0.9811
tp2130
a(g31
g6
F0.9901
tp2131
a(S'went'
p2132
g9
F0.9998
tp2133
a(S'in'
p2134
g49
F0.9228
tp2135
a(S'there'
p2136
g3
F0.7918
tp2137
a(S'there'
p2138
g3
F0.6767
tp2139
a(S'was'
p2140
g9
F0.9949
tp2141
a(S'um'
p2142
g79
F0.3594
tp2143
a(S'dave'
p2144
g228
F0.9825
tp2145
asI229
(lp2146
(S'dave'
p2147
g228
F0.9949
tp2148
a(S'was'
p2149
g9
F0.994
tp2150
a(S'supposed'
p2151
g195
F0.9213
tp2152
a(S'to'
p2153
g49
F0.9957
tp2154
a(S'xxx'
p2155
g9
F0.5337
tp2156
a(S'then'
p2157
g3
F0.9883
tp2158
a(S'there'
p2159
g3
F0.6882
tp2160
a(S'was'
p2161
g9
F0.9941
tp2162
a(S'jackie'
p2163
g228
F0.9964
tp2164
a(S'jackie'
p2165
g228
F0.9998
tp2166
a(S'came'
p2167
g9
F0.9839
tp2168
a(S'in'
p2169
g49
F0.7251
tp2170
a(g31
g6
F0.9815
tp2171
a(S'don'
p2172
g9
F0.9198
tp2173
a(g129
g23
F0.225
tp2174
a(S'know'
p2175
g9
F0.9915
tp2176
a(S'why'
p2177
g3
F0.945
tp2178
a(S'she'
p2179
g6
F0.9981
tp2180
a(S'came'
p2181
g9
F0.997
tp2182
a(S'in'
p2183
g190
F0.5521
tp2184
asI230
(lp2185
(S'laughing'
p2186
g9
F0.9384
tp2187
asI231
(lp2188
(S'but'
p2189
g15
F0.9951
tp2190
a(S'um'
p2191
g57
F0.6119
tp2192
a(S'her'
p2193
g20
F0.9199
tp2194
a(S'name'
p2195
g23
F0.9994
tp2196
a(S'wasn'
p2197
g9
F0.6005
tp2198
a(g129
g23
F0.2693
tp2199
a(S'on'
p2200
g49
F0.9989
tp2201
a(S'the'
p2202
g20
F0.9995
tp2203
a(S'schedule'
p2204
g23
F0.9835
tp2205
a(S'you'
p2206
g6
F0.9953
tp2207
a(S'know'
p2208
g9
F0.9963
tp2209
asI232
(lp2210
(S'laughing'
p2211
g9
F0.9384
tp2212
asI233
(lp2213
(S'uhhuh'
p2214
g57
F0.9892
tp2215
asI234
(lp2216
(S'so'
p2217
g3
F0.5368
tp2218
a(g31
g6
F0.9914
tp2219
a(S'went'
p2220
g9
F0.9996
tp2221
a(S'downstairs'
p2222
g3
F0.6113
tp2223
a(S'and'
p2224
g15
F0.9969
tp2225
a(S'got'
p2226
g9
F0.99
tp2227
a(S'xxx'
p2228
g41
F0.3775
tp2229
a(S'and'
p2230
g15
F0.9986
tp2231
a(S'then'
p2232
g3
F0.9802
tp2233
a(S'told'
p2234
g9
F0.999
tp2235
a(S'her'
p2236
g6
F0.8866
tp2237
a(S'to'
p2238
g49
F0.996
tp2239
a(S'leave'
p2240
g9
F0.9969
tp2241
a(S'after'
p2242
g49
F0.8336
tp2243
a(g31
g6
F0.999
tp2244
a(S'came'
p2245
g9
F0.9994
tp2246
a(S'back'
p2247
g3
F0.8485
tp2248
a(S'upstairs'
p2249
g23
F0.2848
tp2250
asI235
(lp2251
(S'xxx'
p2252
g41
F0.5398
tp2253
a(S'glad'
p2254
g195
F0.7523
tp2255
a(S'you'
p2256
g6
F0.9866
tp2257
a(S're'
p2258
g9
F0.7615
tp2259
a(S'here'
p2260
g3
F0.9844
tp2261
a(g31
g6
F0.992
tp2262
a(g183
g9
F0.9824
tp2263
a(S'goin'
p2264
g9
F0.987
tp2265
a(g187
g9
F0.4784
tp2266
a(S'to'
p2267
g49
F0.9961
tp2268
a(S'get'
p2269
g9
F0.9999
tp2270
a(S'some'
p2271
g20
F0.9817
tp2272
a(S'licorice'
p2273
g23
F0.9524
tp2274
asI236
(lp2275
(S'laughs'
p2276
g9
F0.9102
tp2277
asI237
(lp2278
(S'did'
p2279
g9
F0.9986
tp2280
a(S'you'
p2281
g6
F0.9987
tp2282
a(S'play'
p2283
g9
F0.9997
tp2284
a(S'the'
p2285
g20
F0.9996
tp2286
a(S'numbers'
p2287
g23
F0.9915
tp2288
asI238
(lp2289
(g31
g6
F0.9887
tp2290
a(S'played'
p2291
g9
F0.9999
tp2292
a(g161
g20
F0.9963
tp2293
a(S'couple'
p2294
g23
F0.9742
tp2295
asI239
(lp2296
(S'you'
p2297
g6
F0.998
tp2298
a(S'have'
p2299
g9
F0.9994
tp2300
a(S'to'
p2301
g49
F0.9941
tp2302
a(S'wait'
p2303
g9
F0.9993
tp2304
a(S'until'
p2305
g49
F0.9946
tp2306
a(S'eight'
p2307
g834
F0.8789
tp2308
a(g973
g49
F0.739
tp2309
a(S'l'
p2310
g79
F0.3577
tp2311
a(S'clock'
p2312
g23
F0.9522
tp2313
asI240
(lp2314
(S'coughs'
p2315
g23
F0.5349
tp2316
asI241
(lp2317
(S'sis'
p2318
g23
F0.7144
tp2319
a(S'honey'
p2320
g23
F0.9581
tp2321
a(S'pick'
p2322
g9
F0.9918
tp2323
a(S'up'
p2324
g190
F0.945
tp2325
a(S'your'
p2326
g20
F0.9909
tp2327
a(S'food'
p2328
g23
F0.9986
tp2329
a(S'over'
p2330
g49
F0.9744
tp2331
a(S'there'
p2332
g3
F0.6844
tp2333
asI242
(lp2334
(S'pick'
p2335
g9
F0.9936
tp2336
a(S'up'
p2337
g190
F0.9523
tp2338
a(S'your'
p2339
g20
F0.9891
tp2340
a(S'food'
p2341
g23
F0.9986
tp2342
asI243
(lp2343
(S'right'
p2344
g57
F0.4489
tp2345
a(S'there'
p2346
g3
F0.4509
tp2347
asI244
(lp2348
(S'go'
p2349
g9
F0.9724
tp2350
a(S'on'
p2351
g49
F0.8949
tp2352
a(S'right'
p2353
g3
F0.5738
tp2354
a(S'there'
p2355
g3
F0.7654
tp2356
asI245
(lp2357
(g1301
g834
F0.9872
tp2358
a(S'shrieking'
p2359
g23
F0.5262
tp2360
a(S'and'
p2361
g15
F0.9985
tp2362
a(S'laughing'
p2363
g9
F0.9677
tp2364
asI246
(lp2365
(S'right'
p2366
g57
F0.4489
tp2367
a(S'there'
p2368
g3
F0.4509
tp2369
asI247
(lp2370
(S'turn'
p2371
g9
F0.9796
tp2372
a(S'around'
p2373
g190
F0.7078
tp2374
asI248
(lp2375
(S'behind'
p2376
g49
F0.9935
tp2377
a(S'you'
p2378
g6
F0.9987
tp2379
asI249
(lp2380
(S'right'
p2381
g57
F0.4489
tp2382
a(S'there'
p2383
g3
F0.4509
tp2384
asI250
(lp2385
(S'xxx'
p2386
g41
F0.8437
tp2387
asI251
(lp2388
(S'honey'
p2389
g23
F0.7446
tp2390
a(S'right'
p2391
g3
F0.4606
tp2392
a(S'there'
p2393
g3
F0.7006
tp2394
asI252
(lp2395
(S'you'
p2396
g6
F0.998
tp2397
a(S'stepped'
p2398
g9
F0.9939
tp2399
a(S'on'
p2400
g49
F0.9099
tp2401
a(S'it'
p2402
g6
F0.9971
tp2403
asI253
(lp2404
(S'here'
p2405
g3
F0.9505
tp2406
a(S'put'
p2407
g9
F0.9688
tp2408
a(S'it'
p2409
g6
F0.9776
tp2410
a(S'in'
p2411
g49
F0.9783
tp2412
a(S'the'
p2413
g20
F0.9994
tp2414
a(S'trash'
p2415
g23
F0.9952
tp2416
asI254
(lp2417
(S'put'
p2418
g9
F0.9914
tp2419
a(S'it'
p2420
g6
F0.9844
tp2421
a(S'in'
p2422
g49
F0.9438
tp2423
a(S'the'
p2424
g20
F0.9993
tp2425
a(S'trash'
p2426
g23
F0.995
tp2427
asI255
(lp2428
(S'shrieking'
p2429
g9
F0.8612
tp2430
asI256
(lp2431
(S'look'
p2432
g9
F0.9135
tp2433
a(S'at'
p2434
g49
F0.9982
tp2435
a(S'chi'
p2436
g228
F0.9055
tp2437
a(g78
g79
F0.4135
tp2438
a(S'legs'
p2439
g23
F0.9306
tp2440
asI257
(lp2441
(S'xxx'
p2442
g41
F0.8437
tp2443
asI258
(lp2444
(S'no'
p2445
g57
F0.7143
tp2446
a(S'look'
p2447
g9
F0.684
tp2448
a(S'at'
p2449
g49
F0.9901
tp2450
a(S'how'
p2451
g3
F0.939
tp2452
a(S'skinny'
p2453
g195
F0.9961
tp2454
a(S'they'
p2455
g6
F0.9764
tp2456
a(S'are'
p2457
g9
F0.9989
tp2458
asI259
(lp2459
(S'hm'
p2460
g57
F0.995
tp2461
asI260
(lp2462
(S'just'
p2463
g3
F0.9996
tp2464
a(S'like'
p2465
g49
F0.6131
tp2466
a(S'yours'
p2467
g6
F0.9788
tp2468
asI261
(lp2469
(S'yells'
p2470
g9
F0.6086
tp2471
asI262
(lp2472
(S'careful'
p2473
g195
F0.9398
tp2474
a(S'sis'
p2475
g23
F0.9872
tp2476
a(S'don'
p2477
g23
F0.3398
tp2478
a(g129
g23
F0.5322
tp2479
a(S'hurt'
p2480
g9
F0.9976
tp2481
a(S'her'
p2482
g6
F0.7545
tp2483
asI263
(lp2484
(S'laughs'
p2485
g9
F0.9102
tp2486
asI264
(lp2487
(S'sis'
p2488
g23
F0.8811
tp2489
a(S'go'
p2490
g9
F0.9814
tp2491
a(S'put'
p2492
g9
F0.9136
tp2493
a(S'that'
p2494
g6
F0.6141
tp2495
a(S'in'
p2496
g49
F0.9928
tp2497
a(S'the'
p2498
g20
F0.9991
tp2499
a(S'trash'
p2500
g23
F0.9945
tp2501
a(S'please'
p2502
g9
F0.9684
tp2503
asI265
(lp2504
(S'giggling'
p2505
g9
F0.9909
tp2506
asI266
(lp2507
(S'go'
p2508
g9
F0.966
tp2509
a(S'put'
p2510
g9
F0.9745
tp2511
a(S'it'
p2512
g6
F0.9776
tp2513
a(S'in'
p2514
g49
F0.9751
tp2515
a(S'the'
p2516
g20
F0.9994
tp2517
a(S'trash'
p2518
g23
F0.9875
tp2519
a(S'honey'
p2520
g23
F0.9617
tp2521
asI267
(lp2522
(S'let'
p2523
g9
F0.9975
tp2524
a(S'me'
p2525
g6
F0.9995
tp2526
a(S'try'
p2527
g9
F0.9988
tp2528
a(S'it'
p2529
g6
F0.9246
tp2530
a(S'daddy'
p2531
g23
F0.8597
tp2532
asI268
(lp2533
(S'go'
p2534
g9
F0.966
tp2535
a(S'put'
p2536
g9
F0.9351
tp2537
a(S'that'
p2538
g6
F0.6986
tp2539
a(S'in'
p2540
g49
F0.993
tp2541
a(S'the'
p2542
g20
F0.9994
tp2543
a(S'trash'
p2544
g23
F0.9859
tp2545
a(S'first'
p2546
g195
F0.709
tp2547
asI269
(lp2548
(S'what'
p2549
g6
F0.9923
tp2550
a(S'was'
p2551
g9
F0.9977
tp2552
a(S'she'
p2553
g6
F0.9968
tp2554
a(S'supposed'
p2555
g195
F0.6057
tp2556
a(S'to'
p2557
g49
F0.9929
tp2558
a(S'xxx'
p2559
g41
F0.6012
tp2560
asI270
(lp2561
(S'xxx'
p2562
g41
F0.6834
tp2563
a(S'eat'
p2564
g9
F0.9959
tp2565
a(S'your'
p2566
g20
F0.9908
tp2567
a(S'hot'
p2568
g195
F0.9504
tp2569
a(S'dog'
p2570
g23
F0.9991
tp2571
a(S'fell'
p2572
g9
F0.9459
tp2573
a(S'on'
p2574
g49
F0.9793
tp2575
a(S'the'
p2576
g20
F0.9992
tp2577
a(S'floor'
p2578
g23
F0.9967
tp2579
asI271
(lp2580
(S'daddy'
p2581
g23
F0.9775
tp2582
a(S'hold'
p2583
g9
F0.9982
tp2584
a(S'my'
p2585
g20
F0.999
tp2586
a(S'hand'
p2587
g23
F0.9872
tp2588
a(S'daddy'
p2589
g23
F0.9929
tp2590
a(S'hold'
p2591
g9
F0.9978
tp2592
a(S'my'
p2593
g20
F0.999
tp2594
a(S'hand'
p2595
g23
F0.998
tp2596
asI272
(lp2597
(S'where'
p2598
g3
F0.9689
tp2599
a(g78
g9
F0.4773
tp2600
a(S'it'
p2601
g6
F0.9919
tp2602
asI273
(lp2603
(g31
g6
F0.9635
tp2604
a(S'don'
p2605
g9
F0.9156
tp2606
a(g129
g23
F0.3074
tp2607
a(S'know'
p2608
g9
F0.965
tp2609
asI274
(lp2610
(S'xxx'
p2611
g41
F0.6944
tp2612
a(S'daddy'
p2613
g23
F0.9634
tp2614
asI275
(lp2615
(S'xxx'
p2616
g41
F0.8437
tp2617
asI276
(lp2618
(S'is'
p2619
g9
F0.9993
tp2620
a(S'it'
p2621
g6
F0.9991
tp2622
a(S'done'
p2623
g9
F0.9858
tp2624
asI277
(lp2625
(S'xxx'
p2626
g41
F0.8437
tp2627
asI278
(lp2628
(S'come'
p2629
g9
F0.9801
tp2630
a(S'look'
p2631
g9
F0.908
tp2632
a(S'is'
p2633
g9
F0.999
tp2634
a(S'it'
p2635
g6
F0.9988
tp2636
a(S'done'
p2637
g9
F0.9896
tp2638
asI279
(lp2639
(g1301
g834
F0.9725
tp2640
a(S'laughing'
p2641
g9
F0.4694
tp2642
a(S'and'
p2643
g15
F0.9987
tp2644
a(S'shrieking'
p2645
g9
F0.9343
tp2646
asI280
(lp2647
(S'let'
p2648
g9
F0.9975
tp2649
a(S'me'
p2650
g6
F0.9995
tp2651
a(S'see'
p2652
g9
F0.9862
tp2653
a(S'open'
p2654
g9
F0.7866
tp2655
a(S'up'
p2656
g190
F0.9693
tp2657
asI281
(lp2658
(S'shrieking'
p2659
g9
F0.8612
tp2660
asI282
(lp2661
(S'daddy'
p2662
g23
F0.9652
tp2663
a(S'xxx'
p2664
g41
F0.7893
tp2665
asI283
(lp2666
(S'last'
p2667
g195
F0.9926
tp2668
a(S'one'
p2669
g834
F0.9459
tp2670
a(S'last'
p2671
g195
F0.9956
tp2672
a(S'one'
p2673
g834
F0.931
tp2674
a(S'then'
p2675
g3
F0.9778
tp2676
a(g31
g6
F0.9928
tp2677
a(S'gotta'
p2678
g9
F0.9997
tp2679
a(S'go'
p2680
g9
F0.9965
tp2681
a(S'check'
p2682
g9
F0.9492
tp2683
a(S'some'
p2684
g20
F0.989
tp2685
a(S'food'
p2686
g23
F0.9906
tp2687
asI284
(lp2688
(S'sis'
p2689
g23
F0.8811
tp2690
a(S'go'
p2691
g9
F0.9855
tp2692
a(S'finish'
p2693
g9
F0.992
tp2694
a(S'your'
p2695
g20
F0.993
tp2696
a(S'dinner'
p2697
g23
F0.9887
tp2698
a(S'honey'
p2699
g23
F0.9782
tp2700
asI285
(lp2701
(S'laughs'
p2702
g9
F0.9102
tp2703
asI286
(lp2704
(S'laughs'
p2705
g9
F0.9102
tp2706
asI287
(lp2707
(S'oops'
p2708
g57
F0.9905
tp2709
asI288
(lp2710
(S'come'
p2711
g9
F0.9888
tp2712
a(S'here'
p2713
g3
F0.9841
tp2714
a(S'finish'
p2715
g9
F0.9877
tp2716
a(S'your'
p2717
g20
F0.9932
tp2718
a(S'food'
p2719
g23
F0.9977
tp2720
asI289
(lp2721
(S'xxx'
p2722
g41
F0.8437
tp2723
asI290
(lp2724
(S'and'
p2725
g15
F0.9989
tp2726
a(S'you'
p2727
g6
F0.9989
tp2728
a(S'll'
p2729
g9
F0.6166
tp2730
a(S'get'
p2731
g9
F0.9938
tp2732
a(S'dessert'
p2733
g23
F0.9214
tp2734
asI291
(lp2735
(S'des'
p2736
g23
F0.3017
tp2737
a(S'sert'
p2738
g79
F0.3702
tp2739
a(S'xxx'
p2740
g79
F0.5741
tp2741
asI292
(lp2742
(S'xxx'
p2743
g41
F0.6877
tp2744
a(S'come'
p2745
g9
F0.9932
tp2746
a(S'on'
p2747
g49
F0.7738
tp2748
a(S'come'
p2749
g9
F0.723
tp2750
a(S'on'
p2751
g190
F0.6227
tp2752
asI293
(lp2753
(S'finish'
p2754
g9
F0.9953
tp2755
a(S'it'
p2756
g6
F0.9923
tp2757
a(S'there'
p2758
g3
F0.8299
tp2759
a(S'you'
p2760
g6
F0.9978
tp2761
a(S'go'
p2762
g9
F0.9979
tp2763
a(S'good'
p2764
g195
F0.9981
tp2765
a(S'girl'
p2766
g23
F0.998
tp2767
a(g31
g6
F0.8267
tp2768
a(g183
g9
F0.9607
tp2769
a(S'gonna'
p2770
g9
F0.9946
tp2771
a(S'put'
p2772
g9
F0.9987
tp2773
a(S'this'
p2774
g20
F0.7329
tp2775
a(S'sink'
p2776
g23
F0.9402
tp2777
a(S'okay'
p2778
g57
F0.7643
tp2779
asI294
(lp2780
(S'you'
p2781
g6
F0.961
tp2782
a(S'okay'
p2783
g195
F0.5359
tp2784
asI295
(lp2785
(g31
g6
F0.9896
tp2786
a(S'hurt'
p2787
g9
F0.9996
tp2788
a(S'my'
p2789
g20
F0.9979
tp2790
a(S'neck'
p2791
g23
F0.9987
tp2792
asI296
(lp2793
(S'alright'
p2794
g57
F0.9197
tp2795
a(S'hold'
p2796
g9
F0.9608
tp2797
a(S'on'
p2798
g190
F0.9343
tp2799
asI297
(lp2800
(S'chi'
p2801
g228
F0.7282
tp2802
a(S'can'
p2803
g9
F0.999
tp2804
a(S'you'
p2805
g6
F0.9563
tp2806
a(S'hand'
p2807
g9
F0.9739
tp2808
a(S'me'
p2809
g6
F0.9924
tp2810
a(g161
g20
F0.9921
tp2811
a(S'tissue'
p2812
g23
F0.9957
tp2813
a(g31
g6
F0.9332
tp2814
a(S'gotta'
p2815
g9
F0.9999
tp2816
a(S'clean'
p2817
g195
F0.7041
tp2818
a(S'sis'
p2819
g23
F0.9498
tp2820
a(g78
g79
F0.6955
tp2821
a(S'nose'
p2822
g23
F0.9721
tp2823
a(S'off'
p2824
g49
F0.7845
tp2825
asI298
(lp2826
(S'xxx'
p2827
g41
F0.8437
tp2828
asI299
(lp2829
(S'xxx'
p2830
g41
F0.4516
tp2831
a(S'it'
p2832
g6
F0.9973
tp2833
a(S'is'
p2834
g9
F0.9992
tp2835
a(S'xxx'
p2836
g41
F0.7968
tp2837
asI300
(lp2838
(S'hot'
p2839
g195
F0.9126
tp2840
a(S'joanne'
p2841
g228
F0.8981
tp2842
asI301
(lp2843
(S'hot'
p2844
g195
F0.8061
tp2845
asI302
(lp2846
(S'xxx'
p2847
g41
F0.8437
tp2848
asI303
(lp2849
(S'never'
p2850
g3
F0.9671
tp2851
a(S'mind'
p2852
g9
F0.4204
tp2853
a(S'chi'
p2854
g228
F0.3316
tp2855
a(g31
g6
F0.9679
tp2856
a(S'have'
p2857
g9
F1.0
tp2858
a(S'it'
p2859
g6
F0.9895
tp2860
asI304
(lp2861
(S'huh'
p2862
g57
F0.993
tp2863
asI305
(lp2864
(g31
g6
F0.9895
tp2865
a(S'got'
p2866
g9
F0.9978
tp2867
a(S'one'
p2868
g834
F0.6474
tp2869
asI306
(lp2870
(S'oh'
p2871
g57
F0.9988
tp2872
asI307
(lp2873
(S'alright'
p2874
g57
F0.9864
tp2875
asI308
(lp2876
(S'that'
p2877
g6
F0.4727
tp2878
a(g78
g79
F0.636
tp2879
a(S'okay'
p2880
g57
F0.8596
tp2881
asI309
(lp2882
(S'let'
p2883
g9
F0.9975
tp2884
a(S'me'
p2885
g6
F0.9995
tp2886
a(S'put'
p2887
g9
F0.9854
tp2888
a(S'this'
p2889
g6
F0.6966
tp2890
a(S'in'
p2891
g49
F0.9508
tp2892
a(S'the'
p2893
g20
F0.9991
tp2894
a(S'trash'
p2895
g23
F0.9953
tp2896
asI310
(lp2897
(S'you'
p2898
g6
F0.9928
tp2899
a(S'ready'
p2900
g195
F0.9442
tp2901
a(S'for'
p2902
g49
F0.9997
tp2903
a(S'um'
p2904
g6
F0.3423
tp2905
a(S'freeze'
p2906
g9
F0.9199
tp2907
a(S'pop'
p2908
g23
F0.8529
tp2909
asI311
(lp2910
(S'freeze'
p2911
g9
F0.5375
tp2912
a(S'pop'
p2913
g23
F0.8556
tp2914
asI312
(lp2915
(S'freeze'
p2916
g9
F0.5375
tp2917
a(S'pop'
p2918
g23
F0.8556
tp2919
asI313
(lp2920
(S'take'
p2921
g9
F0.9944
tp2922
a(g161
g20
F0.9976
tp2923
a(S'couple'
p2924
g23
F0.9942
tp2925
a(S'of'
p2926
g49
F0.9994
tp2927
a(S'those'
p2928
g6
F0.7728
tp2929
a(S'down'
p2930
g3
F0.5826
tp2931
a(S'to'
p2932
g49
F0.9993
tp2933
a(S'the'
p2934
g20
F0.9991
tp2935
a(S'park'
p2936
g23
F0.7075
tp2937
a(S'and'
p2938
g15
F0.9972
tp2939
a(S'sit'
p2940
g9
F0.9823
tp2941
a(S'with'
p2942
g49
F0.9872
tp2943
a(S'xxx'
p2944
g41
F0.6084
tp2945
asI314
(lp2946
(g31
g6
F0.9902
tp2947
a(S'want'
p2948
g9
F0.9997
tp2949
a(S'red'
p2950
g195
F0.956
tp2951
asI315
(lp2952
(S'xxx'
p2953
g41
F0.8437
tp2954
asI316
(lp2955
(g31
g6
F0.9902
tp2956
a(S'want'
p2957
g9
F0.9997
tp2958
a(S'red'
p2959
g195
F0.956
tp2960
asI317
(lp2961
(S'xxx'
p2962
g41
F0.6563
tp2963
a(S'have'
p2964
g9
F0.9592
tp2965
a(S'daddy'
p2966
g23
F0.9978
tp2967
a(S'to'
p2968
g49
F0.9957
tp2969
a(S'open'
p2970
g9
F0.998
tp2971
a(S'it'
p2972
g6
F0.9827
tp2973
a(S'for'
p2974
g49
F0.9993
tp2975
a(S'you'
p2976
g6
F0.9993
tp2977
asI318
(lp2978
(S'okay'
p2979
g57
F0.9857
tp2980
asI319
(lp2981
(S'daddy'
p2982
g23
F0.857
tp2983
a(S'you'
p2984
g6
F0.9912
tp2985
a(S'open'
p2986
g9
F0.9813
tp2987
a(S'this'
p2988
g20
F0.5416
tp2989
asI320
(lp2990
(S'mom'
p2991
g23
F0.7188
tp2992
asI321
(lp2993
(S'huh'
p2994
g57
F0.993
tp2995
asI322
(lp2996
(S'you'
p2997
g6
F0.9968
tp2998
a(S'gonna'
p2999
g9
F0.9996
tp3000
a(S'take'
p3001
g9
F0.9998
tp3002
a(g161
g20
F0.9976
tp3003
a(S'couple'
p3004
g23
F0.9709
tp3005
a(S'down'
p3006
g3
F0.4685
tp3007
a(S'to'
p3008
g49
F0.992
tp3009
a(S'park'
p3010
g228
F0.5944
tp3011
a(S'and'
p3012
g15
F0.9982
tp3013
a(S'sit'
p3014
g9
F0.9831
tp3015
asI323
(lp3016
(S'get'
p3017
g9
F0.9992
tp3018
a(S'me'
p3019
g6
F0.9977
tp3020
a(g161
g20
F0.9859
tp3021
a(S'friendly'
p3022
g195
F0.9935
tp3023
a(g78
g79
F0.6141
tp3024
a(S'ice'
p3025
g23
F0.5827
tp3026
a(S'cream'
p3027
g23
F0.9483
tp3028
asI324
(lp3029
(S'dad'
p3030
g23
F0.9298
tp3031
a(S'will'
p3032
g9
F0.9989
tp3033
a(S'you'
p3034
g6
F0.9977
tp3035
a(S'open'
p3036
g9
F0.9605
tp3037
a(S'this'
p3038
g20
F0.5076
tp3039
asI325
(lp3040
(S'which'
p3041
g20
F0.9901
tp3042
a(S'one'
p3043
g834
F0.7682
tp3044
asI326
(lp3045
(S'the'
p3046
g20
F0.9569
tp3047
a(S'the'
p3048
g20
F0.9698
tp3049
a(S'sandwich'
p3050
g23
F0.9964
tp3051
asI327
(lp3052
(S'some'
p3053
g20
F0.98
tp3054
a(S'cake'
p3055
g23
F0.9917
tp3056
asI328
(lp3057
(S'you'
p3058
g6
F0.9646
tp3059
a(S'alright'
p3060
g57
F0.7566
tp3061
asI329
(lp3062
(S'you'
p3063
g6
F0.992
tp3064
a(S'still'
p3065
g3
F0.9743
tp3066
a(S'alright'
p3067
g57
F0.6165
tp3068
asI330
(lp3069
(g31
g6
F0.9668
tp3070
a(S'fall'
p3071
g9
F0.9971
tp3072
a(S'down'
p3073
g190
F0.8868
tp3074
asI331
(lp3075
(S'okay'
p3076
g57
F0.9857
tp3077
asI332
(lp3078
(S'all'
p3079
g1393
F0.437
tp3080
a(S'you'
p3081
g6
F0.9969
tp3082
a(S'gotta'
p3083
g9
F0.9998
tp3084
a(S'do'
p3085
g9
F0.9886
tp3086
a(S'is'
p3087
g9
F0.9947
tp3088
a(S'eat'
p3089
g9
F0.8109
tp3090
asI333
(lp3091
(S'www'
p3092
g228
F0.3889
tp3093
asI334
(lp3094
(S'ah'
p3095
g57
F0.996
tp3096
asI335
(lp3097
(S'www'
p3098
g228
F0.3889
tp3099
asI336
(lp3100
(S'xxx'
p3101
g41
F0.8437
tp3102
asI337
(lp3103
(S'xxx'
p3104
g41
F0.8437
tp3105
asI338
(lp3106
(S'www'
p3107
g228
F0.3889
tp3108
asI339
(lp3109
(S'what'
p3110
g6
F0.9864
tp3111
a(S'happened'
p3112
g9
F0.9921
tp3113
asI340
(lp3114
(S'what'
p3115
g6
F0.951
tp3116
a(S'ti'
p3117
g23
F0.4767
tp3118
a(S'give'
p3119
g9
F0.9992
tp3120
a(S'it'
p3121
g6
F0.9875
tp3122
a(S'to'
p3123
g49
F0.9773
tp3124
a(S'daddy'
p3125
g23
F0.9382
tp3126
a(S'sis'
p3127
g23
F0.8937
tp3128
a(S'daddy'
p3129
g23
F0.9799
tp3130
a(S'open'
p3131
g9
F0.9811
tp3132
a(S'it'
p3133
g6
F0.9672
tp3134
asI341
(lp3135
(S'joseph'
p3136
g228
F0.9981
tp3137
a(S'said'
p3138
g9
F0.9816
tp3139
a(S'joseph'
p3140
g228
F0.9971
tp3141
a(S'said'
p3142
g9
F0.9821
tp3143
a(S'charley'
p3144
g228
F0.9882
tp3145
a(S'couldn'
p3146
g9
F0.4879
tp3147
a(g129
g9
F0.5737
tp3148
asI342
(lp3149
(S'give'
p3150
g9
F0.9981
tp3151
a(S'it'
p3152
g6
F0.9911
tp3153
a(S'to'
p3154
g49
F0.9655
tp3155
a(S'daddy'
p3156
g23
F0.8479
tp3157
a(S'he'
p3158
g6
F0.9845
tp3159
a(S'll'
p3160
g3
F0.5222
tp3161
a(S'open'
p3162
g9
F0.9269
tp3163
a(S'it'
p3164
g6
F0.985
tp3165
asI343
(lp3166
(S'told'
p3167
g9
F0.999
tp3168
a(S'me'
p3169
g6
F0.9986
tp3170
a(S'to'
p3171
g49
F0.9777
tp3172
a(S'bring'
p3173
g9
F1.0
tp3174
a(g161
g20
F0.9979
tp3175
a(S'case'
p3176
g23
F0.9993
tp3177
a(S'of'
p3178
g49
F0.9972
tp3179
a(S'beer'
p3180
g23
F0.9856
tp3181
asI344
(lp3182
(S'xxx'
p3183
g41
F0.8437
tp3184
asI345
(lp3185
(S'say'
p3186
g9
F0.8382
tp3187
a(S'please'
p3188
g9
F0.8945
tp3189
asI346
(lp3190
(S'so'
p3191
g49
F0.9134
tp3192
a(S'he'
p3193
g6
F0.9985
tp3194
a(S'takes'
p3195
g9
F0.9999
tp3196
a(g161
g20
F0.9968
tp3197
a(S'beer'
p3198
g23
F0.9983
tp3199
asI347
(lp3200
(S'please'
p3201
g9
F0.8877
tp3202
a(S'xxx'
p3203
g41
F0.7002
tp3204
asI348
(lp3205
(S'xxx'
p3206
g41
F0.7728
tp3207
a(g31
g6
F0.9842
tp3208
a(S'thought'
p3209
g9
F0.9999
tp3210
a(S'it'
p3211
g6
F0.9956
tp3212
a(S'was'
p3213
g9
F0.9985
tp3214
a(S'xxx'
p3215
g41
F0.374
tp3216
a(S'jokin'
p3217
g9
F0.6047
tp3218
a(g187
g79
F0.4298
tp3219
asI349
(lp3220
(S'uhhuh'
p3221
g57
F0.9892
tp3222
asI350
(lp3223
(S'xxx'
p3224
g41
F0.7728
tp3225
a(g31
g6
F0.9857
tp3226
a(S'said'
p3227
g9
F0.999
tp3228
a(S'alright'
p3229
g57
F0.9398
tp3230
a(S'he'
p3231
g6
F0.9978
tp3232
a(S'took'
p3233
g9
F1.0
tp3234
a(S'it'
p3235
g6
F0.9942
tp3236
a(S'out'
p3237
g190
F0.7977
tp3238
a(S'in'
p3239
g49
F0.9977
tp3240
a(S'the'
p3241
g20
F0.9993
tp3242
a(S'backyard'
p3243
g23
F0.9891
tp3244
a(S'xxx'
p3245
g41
F0.7793
tp3246
asI351
(lp3247
(S'is'
p3248
g9
F0.9958
tp3249
a(S'he'
p3250
g6
F0.9954
tp3251
a(S'mad'
p3252
g195
F0.7136
tp3253
a(S'at'
p3254
g49
F0.9988
tp3255
a(S'everybody'
p3256
g23
F0.9193
tp3257
asI352
(lp3258
(S'xxx'
p3259
g41
F0.8437
tp3260
asI353
(lp3261
(S'he'
p3262
g6
F0.9939
tp3263
a(S'could'
p3264
g9
F0.9991
tp3265
a(S'xxx'
p3266
g41
F0.5797
tp3267
asI354
(lp3268
(g161
g20
F0.917
tp3269
a(S'xxx'
p3270
g23
F0.4025
tp3271
asI355
(lp3272
(S'mhm'
p3273
g57
F0.9747
tp3274
asI356
(lp3275
(S'sit'
p3276
g9
F0.9825
tp3277
a(S'down'
p3278
g190
F0.7569
tp3279
a(S'honey'
p3280
g23
F0.9488
tp3281
asI357
(lp3282
(S'sis'
p3283
g23
F0.8811
tp3284
a(S'go'
p3285
g9
F0.996
tp3286
a(S'over'
p3287
g49
F0.6468
tp3288
a(S'there'
p3289
g1393
F0.5211
tp3290
a(S'an'
p3291
g20
F0.9659
tp3292
a(S'sit'
p3293
g9
F0.7084
tp3294
a(S'down'
p3295
g190
F0.8745
tp3296
asI358
(lp3297
(S'sit'
p3298
g9
F0.9375
tp3299
a(S'at'
p3300
g49
F0.9946
tp3301
a(S'your'
p3302
g20
F0.9953
tp3303
a(S'table'
p3304
g23
F0.9988
tp3305
asI359
(lp3306
(S'coughs'
p3307
g23
F0.5349
tp3308
asI360
(lp3309
(S'xxx'
p3310
g41
F0.6632
tp3311
a(S'gotta'
p3312
g9
F0.9823
tp3313
a(S'xxx'
p3314
g9
F0.3236
tp3315
a(S'car'
p3316
g23
F0.9878
tp3317
asI361
(lp3318
(S'what'
p3319
g6
F0.9923
tp3320
a(S'was'
p3321
g9
F0.9974
tp3322
a(S'wrong'
p3323
g195
F0.9385
tp3324
a(S'with'
p3325
g49
F0.9996
tp3326
a(S'it'
p3327
g6
F0.997
tp3328
asI362
(lp3329
(S'first'
p3330
g195
F0.7183
tp3331
a(S'that'
p3332
g20
F0.5311
tp3333
a(S'thing'
p3334
g23
F0.9973
tp3335
a(S'was'
p3336
g9
F0.9976
tp3337
a(S'cracked'
p3338
g195
F0.6597
tp3339
a(S'and'
p3340
g15
F0.9975
tp3341
a(S'when'
p3342
g3
F0.9848
tp3343
a(S'he'
p3344
g6
F0.996
tp3345
a(S'ripped'
p3346
g9
F0.9999
tp3347
a(S'it'
p3348
g6
F0.9686
tp3349
asI363
(lp3350
(S'what'
p3351
g6
F0.949
tp3352
asI364
(lp3353
(S'he'
p3354
g6
F0.9945
tp3355
a(S'ripped'
p3356
g9
F0.9998
tp3357
a(S'the'
p3358
g20
F0.9996
tp3359
a(S'lights'
p3360
g23
F0.9895
tp3361
a(S'out'
p3362
g49
F0.5371
tp3363
asI365
(lp3364
(S'the'
p3365
g20
F0.9981
tp3366
a(S'lights'
p3367
g23
F0.9775
tp3368
a(S'that'
p3369
g49
F0.8453
tp3370
a(S'were'
p3371
g9
F0.992
tp3372
a(S'inside'
p3373
g3
F0.3562
tp3374
asI366
(lp3375
(S'uhhuh'
p3376
g57
F0.9892
tp3377
asI367
(lp3378
(S'he'
p3379
g6
F0.9945
tp3380
a(S'ripped'
p3381
g9
F0.9993
tp3382
a(S'those'
p3383
g6
F0.8147
tp3384
a(S'out'
p3385
g190
F0.6754
tp3386
asI368
(lp3387
(S'ow'
p3388
g57
F0.9682
tp3389
asI369
(lp3390
(S'playin'
p3391
g9
F0.9821
tp3392
a(g187
g23
F0.3787
tp3393
a(S'around'
p3394
g49
F0.7325
tp3395
asI370
(lp3396
(S'hi'
p3397
g57
F0.9526
tp3398
a(S'daddy'
p3399
g23
F0.9474
tp3400
asI371
(lp3401
(S'xxx'
p3402
g41
F0.8437
tp3403
asI372
(lp3404
(S'no'
p3405
g57
F0.6532
tp3406
a(g31
g6
F0.9375
tp3407
a(S'wouldn'
p3408
g9
F0.9895
tp3409
a(g129
g9
F0.4886
tp3410
a(S'xxx'
p3411
g41
F0.4593
tp3412
a(S'thing'
p3413
g23
F0.9539
tp3414
a(S'came'
p3415
g9
F0.9965
tp3416
a(S'off'
p3417
g190
F0.9005
tp3418
a(S'xxx'
p3419
g41
F0.3183
tp3420
a(S'whole'
p3421
g195
F0.9841
tp3422
a(S'socket'
p3423
g23
F0.9369
tp3424
a(S'xxx'
p3425
g41
F0.4931
tp3426
a(S'wire'
p3427
g23
F0.7458
tp3428
a(S'xxx'
p3429
g41
F0.7979
tp3430
asI373
(lp3431
(S'yeah'
p3432
g57
F0.9944
tp3433
a(S'like'
p3434
g49
F0.8353
tp3435
a(S'my'
p3436
g20
F0.7563
tp3437
a(S'xxx'
p3438
g23
F0.5827
tp3439
asI374
(lp3440
(S'hm'
p3441
g57
F0.995
tp3442
asI375
(lp3443
(S'well'
p3444
g57
F0.8508
tp3445
a(S'xxx'
p3446
g41
F0.5804
tp3447
a(S'hangin'
p3448
g9
F0.9956
tp3449
a(g187
g23
F0.2647
tp3450
a(S'so'
p3451
g3
F0.9342
tp3452
a(S'much'
p3453
g3
F0.5439
tp3454
a(S'that'
p3455
g49
F0.9697
tp3456
a(S'the'
p3457
g20
F0.9994
tp3458
a(S'wire'
p3459
g23
F0.9444
tp3460
a(S'ripped'
p3461
g9
F0.9968
tp3462
a(S'right'
p3463
g3
F0.6839
tp3464
a(S'off'
p3465
g49
F0.5676
tp3466
asI376
(lp3467
(S'yeah'
p3468
g57
F0.9988
tp3469
asI377
(lp3470
(S'so'
p3471
g3
F0.5716
tp3472
a(S'now'
p3473
g3
F0.992
tp3474
a(S'his'
p3475
g20
F0.9984
tp3476
a(S'lights'
p3477
g23
F0.9797
tp3478
a(S'ain'
p3479
g9
F0.7067
tp3480
a(g129
g9
F0.414
tp3481
a(S'hooked'
p3482
g9
F0.9963
tp3483
a(S'up'
p3484
g190
F0.9779
tp3485
asI378
(lp3486
(S'xxx'
p3487
g41
F0.8437
tp3488
asI379
(lp3489
(S'you'
p3490
g6
F0.9927
tp3491
a(S'll'
p3492
g9
F0.6181
tp3493
a(S'get'
p3494
g9
F0.9996
tp3495
a(g161
g20
F0.998
tp3496
a(S'ticket'
p3497
g23
F0.9952
tp3498
a(S'for'
p3499
g49
F0.9997
tp3500
a(S'that'
p3501
g6
F0.7877
tp3502
asI380
(lp3503
(S'well'
p3504
g57
F0.7437
tp3505
a(S'just'
p3506
g3
F0.9976
tp3507
a(S'that'
p3508
g20
F0.7093
tp3509
a(S'light'
p3510
g23
F0.9818
tp3511
asI381
(lp3512
(S'yeah'
p3513
g57
F0.9958
tp3514
a(S'he'
p3515
g6
F0.9956
tp3516
a(S'll'
p3517
g9
F0.4902
tp3518
a(S'get'
p3519
g9
F0.9993
tp3520
a(g161
g20
F0.9982
tp3521
a(S'ticket'
p3522
g23
F0.9976
tp3523
asI382
(lp3524
(S'just'
p3525
g3
F0.9983
tp3526
a(S'no'
p3527
g3
F0.3916
tp3528
a(S'just'
p3529
g3
F0.9979
tp3530
a(S'the'
p3531
g20
F0.9978
tp3532
a(S'light'
p3533
g23
F0.9868
tp3534
a(S'that'
p3535
g49
F0.7601
tp3536
a(S'was'
p3537
g9
F0.9976
tp3538
a(S'on'
p3539
g49
F0.9805
tp3540
a(S'the'
p3541
g20
F0.9994
tp3542
a(S'bumper'
p3543
g23
F0.9814
tp3544
asI383
(lp3545
(S'the'
p3546
g20
F0.999
tp3547
a(S'little'
p3548
g195
F0.9977
tp3549
a(S'night'
p3550
g23
F0.9856
tp3551
a(S'light'
p3552
g9
F0.568
tp3553
a(S'that'
p3554
g49
F0.6948
tp3555
a(g78
g79
F0.4363
tp3556
a(S'on'
p3557
g49
F0.9961
tp3558
a(S'the'
p3559
g20
F0.9994
tp3560
a(S'bumper'
p3561
g23
F0.9898
tp3562
a(S'not'
p3563
g3
F0.9464
tp3564
a(S'the'
p3565
g20
F0.9981
tp3566
a(S'headlight'
p3567
g23
F0.9656
tp3568
asI384
(lp3569
(S'oh'
p3570
g57
F0.9981
tp3571
a(S'okay'
p3572
g57
F0.9822
tp3573
asI385
(lp3574
(S'and'
p3575
g15
F0.9987
tp3576
a(S'then'
p3577
g3
F0.9748
tp3578
a(S'um'
p3579
g57
F0.441
tp3580
a(S'the'
p3581
g20
F0.9969
tp3582
a(S'circle'
p3583
g23
F0.996
tp3584
a(S'there'
p3585
g3
F0.775
tp3586
a(g78
g79
F0.606
tp3587
a(g161
g20
F0.992
tp3588
a(S'circle'
p3589
g23
F0.9959
tp3590
a(S'piece'
p3591
g23
F0.9196
tp3592
a(S'there'
p3593
g3
F0.9452
tp3594
a(S'and'
p3595
g15
F0.9973
tp3596
a(S'there'
p3597
g3
F0.8795
tp3598
a(g78
g79
F0.606
tp3599
a(g161
g20
F0.7923
tp3600
a(S'like'
p3601
g49
F0.8843
tp3602
a(g161
g20
F0.9353
tp3603
a(S'xxx'
p3604
g23
F0.5823
tp3605
a(S'for'
p3606
g49
F0.9999
tp3607
a(S'the'
p3608
g20
F0.9993
tp3609
a(S'bumper'
p3610
g23
F0.9886
tp3611
a(S'there'
p3612
g3
F0.7339
tp3613
a(g78
g79
F0.606
tp3614
a(g161
g20
F0.992
tp3615
a(S'circle'
p3616
g23
F0.9959
tp3617
a(S'piece'
p3618
g23
F0.9808
tp3619
a(S'at'
p3620
g49
F0.9999
tp3621
a(S'the'
p3622
g20
F0.9988
tp3623
a(S'end'
p3624
g23
F0.9881
tp3625
a(S'with'
p3626
g49
F0.9996
tp3627
a(g161
g20
F0.9965
tp3628
a(S'hole'
p3629
g23
F0.9989
tp3630
a(S'in'
p3631
g49
F0.9991
tp3632
a(S'the'
p3633
g20
F0.9993
tp3634
a(S'bottom'
p3635
g23
F0.7742
tp3636
asI386
(lp3637
(S'and'
p3638
g15
F0.9989
tp3639
a(S'he'
p3640
g6
F0.9976
tp3641
a(S'has'
p3642
g9
F0.9999
tp3643
a(S'the'
p3644
g20
F0.9995
tp3645
a(S'other'
p3646
g195
F0.9785
tp3647
a(S'piece'
p3648
g23
F0.9911
tp3649
a(S'that'
p3650
g49
F0.9935
tp3651
a(S'he'
p3652
g6
F0.9989
tp3653
a(S'has'
p3654
g9
F0.9994
tp3655
a(S'hooked'
p3656
g9
F0.9958
tp3657
a(S'the'
p3658
g20
F0.9994
tp3659
a(S'bumper'
p3660
g23
F0.9933
tp3661
a(S'up'
p3662
g49
F0.4089
tp3663
a(S'to'
p3664
g49
F0.9669
tp3665
asI387
(lp3666
(S'xxx'
p3667
g41
F0.8437
tp3668
asI388
(lp3669
(S'the'
p3670
g20
F0.999
tp3671
a(S'other'
p3672
g195
F0.9953
tp3673
a(S'thing'
p3674
g23
F0.9971
tp3675
a(S'that'
p3676
g49
F0.997
tp3677
a(S'he'
p3678
g6
F0.994
tp3679
a(S'hooks'
p3680
g9
F0.9973
tp3681
a(S'the'
p3682
g20
F0.9996
tp3683
a(S'bumper'
p3684
g23
F0.9925
tp3685
a(S'up'
p3686
g49
F0.459
tp3687
a(S'to'
p3688
g49
F0.9889
tp3689
a(S'has'
p3690
g9
F0.9998
tp3691
a(g161
g20
F0.9318
tp3692
a(S'um'
p3693
g79
F0.3193
tp3694
a(S'had'
p3695
g9
F0.9981
tp3696
a(g161
g20
F0.9934
tp3697
a(S'screw'
p3698
g23
F0.9941
tp3699
a(S'in'
p3700
g49
F0.994
tp3701
a(S'it'
p3702
g6
F0.9954
tp3703
asI389
(lp3704
(S'uhhuh'
p3705
g57
F0.9892
tp3706
asI390
(lp3707
(g31
g6
F0.9893
tp3708
a(S'thought'
p3709
g9
F0.9999
tp3710
a(S'it'
p3711
g6
F0.9958
tp3712
a(S'was'
p3713
g9
F0.9987
tp3714
a(S'just'
p3715
g3
F0.9998
tp3716
a(g161
g20
F0.9916
tp3717
a(S'little'
p3718
g195
F0.9966
tp3719
a(S'piece'
p3720
g23
F0.999
tp3721
a(S'of'
p3722
g49
F0.9982
tp3723
a(g161
g20
F0.9632
tp3724
a(g161
g20
F0.5483
tp3725
a(g161
g20
F0.9385
tp3726
a(S'stub'
p3727
g23
F0.9966
tp3728
a(S'that'
p3729
g49
F0.8761
tp3730
a(S'came'
p3731
g9
F0.9974
tp3732
a(S'up'
p3733
g190
F0.969
tp3734
a(S'and'
p3735
g15
F0.9978
tp3736
a(S'goes'
p3737
g9
F0.9959
tp3738
a(S'through'
p3739
g49
F0.9901
tp3740
a(S'the'
p3741
g20
F0.999
tp3742
a(S'hole'
p3743
g23
F0.9957
tp3744
a(S'and'
p3745
g15
F0.9973
tp3746
a(S'stayed'
p3747
g9
F0.9845
tp3748
a(S'there'
p3749
g3
F0.7632
tp3750
asI391
(lp3751
(S'and'
p3752
g15
F0.9987
tp3753
a(S'then'
p3754
g3
F0.9867
tp3755
a(g31
g6
F0.9922
tp3756
a(S'tried'
p3757
g9
F0.9988
tp3758
a(S'to'
p3759
g49
F0.9938
tp3760
a(S'take'
p3761
g9
F0.9998
tp3762
a(S'the'
p3763
g20
F0.9997
tp3764
a(S'stub'
p3765
g23
F0.9983
tp3766
a(S'off'
p3767
g49
F0.4301
tp3768
a(S'and'
p3769
g15
F0.9969
tp3770
a(S'the'
p3771
g20
F0.9989
tp3772
a(S'whole'
p3773
g195
F0.9837
tp3774
a(S'thing'
p3775
g23
F0.9976
tp3776
a(S'came'
p3777
g9
F0.9964
tp3778
a(S'off'
p3779
g190
F0.9385
tp3780
asI392
(lp3781
(S'there'
p3782
g1393
F0.4664
tp3783
a(g78
g79
F0.6539
tp3784
a(g161
g20
F0.7732
tp3785
a(S'um'
p3786
g57
F0.3123
tp3787
a(S'there'
p3788
g3
F0.6768
tp3789
a(g78
g79
F0.606
tp3790
a(g161
g20
F0.9932
tp3791
a(S'nut'
p3792
g23
F0.9915
tp3793
a(S'and'
p3794
g15
F0.9982
tp3795
a(S'bolt'
p3796
g23
F0.7433
tp3797
a(S'but'
p3798
g15
F0.9375
tp3799
a(S'the'
p3800
g20
F0.9992
tp3801
a(S'thing'
p3802
g23
F0.9976
tp3803
a(S'was'
p3804
g9
F0.9989
tp3805
a(S'all'
p3806
g20
F0.9244
tp3807
asI393
(lp3808
(S'what'
p3809
g6
F0.9864
tp3810
a(S'happened'
p3811
g9
F0.997
tp3812
a(S'here'
p3813
g3
F0.9349
tp3814
asI394
(lp3815
(S'oh'
p3816
g57
F0.9878
tp3817
a(S'you'
p3818
g6
F0.9961
tp3819
a(S'took'
p3820
g9
F0.9999
tp3821
a(g161
g20
F0.9916
tp3822
a(S'wrong'
p3823
g195
F0.9959
tp3824
a(S'pill'
p3825
g23
F0.9919
tp3826
asI395
(lp3827
(g31
g6
F0.9756
tp3828
a(S'didn'
p3829
g9
F0.9919
tp3830
a(g129
g9
F0.7994
tp3831
a(S'take'
p3832
g9
F0.9974
tp3833
a(g161
g20
F0.9984
tp3834
a(S'pill'
p3835
g23
F0.9954
tp3836
a(S'on'
p3837
g49
F0.9978
tp3838
a(S'wedn'
p3839
g228
F0.5037
tp3840
a(S'monday'
p3841
g228
F0.9802
tp3842
asI396
(lp3843
(S'yesterday'
p3844
g23
F0.8149
tp3845
a(S'was'
p3846
g9
F0.9947
tp3847
a(S'monday'
p3848
g228
F0.7375
tp3849
asI397
(lp3850
(S'today'
p3851
g23
F0.9853
tp3852
a(g78
g79
F0.7255
tp3853
a(S'tuesday'
p3854
g228
F0.8353
tp3855
asI398
(lp3856
(S'today'
p3857
g23
F0.9853
tp3858
a(g78
g79
F0.725
tp3859
a(S'wednesday'
p3860
g228
F0.5956
tp3861
asI399
(lp3862
(S'today'
p3863
g23
F0.9853
tp3864
a(g78
g79
F0.7255
tp3865
a(S'tuesday'
p3866
g228
F0.8353
tp3867
asI400
(lp3868
(S'today'
p3869
g23
F0.9853
tp3870
a(g78
g79
F0.725
tp3871
a(S'wednesday'
p3872
g228
F0.5956
tp3873
asI401
(lp3874
(S'today'
p3875
g23
F0.9853
tp3876
a(g78
g79
F0.7255
tp3877
a(S'tuesday'
p3878
g228
F0.8353
tp3879
asI402
(lp3880
(S'today'
p3881
g23
F0.9982
tp3882
a(S'is'
p3883
g9
F0.996
tp3884
a(S'wednesday'
p3885
g228
F0.6016
tp3886
asI403
(lp3887
(S'how'
p3888
g3
F0.9991
tp3889
a(S'much'
p3890
g195
F0.7108
tp3891
a(S'you'
p3892
g6
F0.9977
tp3893
a(S'wanna'
p3894
g9
F0.9974
tp3895
a(S'bet'
p3896
g9
F0.9965
tp3897
asI404
(lp3898
(S'you'
p3899
g6
F0.9927
tp3900
a(S'll'
p3901
g9
F0.6469
tp3902
a(S'come'
p3903
g9
F0.9992
tp3904
a(S'down'
p3905
g3
F0.613
tp3906
a(S'to'
p3907
g49
F0.9993
tp3908
a(S'the'
p3909
g20
F0.9991
tp3910
a(S'park'
p3911
g23
F0.7557
tp3912
a(S'if'
p3913
g49
F0.9984
tp3914
a(S'today'
p3915
g23
F0.9828
tp3916
a(g78
g79
F0.7674
tp3917
a(S'tuesday'
p3918
g228
F0.8668
tp3919
asI405
(lp3920
(S'today'
p3921
g23
F0.976
tp3922
a(g78
g79
F0.7106
tp3923
a(S'wednesday'
p3924
g228
F0.5555
tp3925
a(S'it'
p3926
g6
F0.965
tp3927
a(g78
g9
F0.4349
tp3928
a(S'fourth'
p3929
g195
F0.8727
tp3930
a(S'of'
p3931
g49
F0.998
tp3932
a(S'july'
p3933
g228
F0.9772
tp3934
asI406
(lp3935
(S'okay'
p3936
g57
F0.9857
tp3937
asI407
(lp3938
(S'you'
p3939
g6
F0.9963
tp3940
a(S'come'
p3941
g9
F0.9999
tp3942
a(S'down'
p3943
g3
F0.5778
tp3944
a(S'to'
p3945
g49
F0.9993
tp3946
a(S'the'
p3947
g20
F0.9991
tp3948
a(S'park'
p3949
g23
F0.7557
tp3950
a(S'if'
p3951
g49
F0.9984
tp3952
a(S'if'
p3953
g49
F0.9657
tp3954
a(S'if'
p3955
g49
F0.9954
tp3956
a(S'you'
p3957
g6
F0.9996
tp3958
a(S'come'
p3959
g9
F0.9999
tp3960
a(S'down'
p3961
g3
F0.6358
tp3962
a(S'to'
p3963
g49
F0.9993
tp3964
a(S'the'
p3965
g20
F0.9991
tp3966
a(S'park'
p3967
g23
F0.8417
tp3968
a(S'okay'
p3969
g57
F0.8707
tp3970
asI408
(lp3971
(S'alright'
p3972
g57
F0.8347
tp3973
a(S'and'
p3974
g15
F0.999
tp3975
a(g31
g6
F0.9901
tp3976
a(S'stay'
p3977
g9
F0.9987
tp3978
a(S'home'
p3979
g23
F0.7852
tp3980
a(S'if'
p3981
g49
F0.9996
tp3982
a(S'it'
p3983
g6
F0.9981
tp3984
a(g78
g9
F0.4405
tp3985
a(S'wednesday'
p3986
g228
F0.5206
tp3987
asI409
(lp3988
(S'uhhuh'
p3989
g57
F0.9892
tp3990
asI410
(lp3991
(S'it'
p3992
g6
F0.9888
tp3993
a(g78
g79
F0.6065
tp3994
a(S'july'
p3995
g228
F0.9016
tp3996
a(S'nineteen'
p3997
g834
F0.7618
tp3998
a(S'eighty'
p3999
g834
F0.4848
tp4000
a(S'nine'
p4001
g23
F0.451
tp4002
a(S'huh'
p4003
g57
F0.9308
tp4004
asI411
(lp4005
(S'laughs'
p4006
g9
F0.9102
tp4007
asI412
(lp4008
(S'take'
p4009
g9
F0.9615
tp4010
a(S'take'
p4011
g9
F0.9928
tp4012
a(S'your'
p4013
g20
F0.9896
tp4014
a(S'monday'
p4015
g228
F0.8397
tp4016
a(S'pill'
p4017
g23
F0.8465
tp4018
a(S'you'
p4019
g6
F0.8835
tp4020
a(S'fool'
p4021
g23
F0.9198
tp4022
asI413
(lp4023
(S'xxx'
p4024
g41
F0.8437
tp4025
asI414
(lp4026
(S'laughing'
p4027
g9
F0.9384
tp4028
asI415
(lp4029
(S'smooching'
p4030
g9
F0.9905
tp4031
asI416
(lp4032
(S'laughs'
p4033
g9
F0.9102
tp4034
asI417
(lp4035
(S'oh'
p4036
g57
F0.9886
tp4037
a(S'laughs'
p4038
g9
F0.9596
tp4039
a(S'what'
p4040
g6
F0.9942
tp4041
a(S'happened'
p4042
g9
F0.9971
tp4043
a(S'why'
p4044
g3
F0.9747
tp4045
a(g91
g23
F0.2693
tp4046
a(g31
g6
F0.9562
tp4047
a(S'take'
p4048
g9
F0.9999
tp4049
a(g161
g20
F0.9966
tp4050
a(S'tuesday'
p4051
g228
F0.8467
tp4052
a(S'pill'
p4053
g23
F0.9549
tp4054
a(S'instead'
p4055
g3
F0.8903
tp4056
a(S'of'
p4057
g49
F0.9945
tp4058
a(S'monday'
p4059
g228
F0.9825
tp4060
a(S'pill'
p4061
g23
F0.9672
tp4062
asI418
(lp4063
(S'hope'
p4064
g9
F0.9874
tp4065
a(S'you'
p4066
g6
F0.9986
tp4067
a(S'don'
p4068
g9
F0.8576
tp4069
a(g129
g23
F0.3711
tp4070
a(S'get'
p4071
g9
F0.9983
tp4072
a(S'cramps'
p4073
g23
F0.9725
tp4074
asI419
(lp4075
(S'today'
p4076
g23
F0.9853
tp4077
a(g78
g79
F0.725
tp4078
a(S'wednesday'
p4079
g228
F0.5956
tp4080
asI420
(lp4081
(S'mess'
p4082
g9
F0.8316
tp4083
a(S'up'
p4084
g190
F0.9045
tp4085
a(S'your'
p4086
g20
F0.9899
tp4087
a(S'whole'
p4088
g195
F0.8779
tp4089
a(S'biochemistry'
p4090
g23
F0.8763
tp4091
asI421
(lp4092
(S'tomorrow'
p4093
g23
F0.8637
tp4094
a(g78
g79
F0.8314
tp4095
a(S'wednesday'
p4096
g228
F0.4971
tp4097
a(S'you'
p4098
g6
F0.9971
tp4099
a(S'mean'
p4100
g9
F0.9699
tp4101
asI422
(lp4102
(S'tomorrow'
p4103
g23
F0.9116
tp4104
a(g78
g79
F0.8352
tp4105
a(S'wednesday'
p4106
g228
F0.5956
tp4107
asI423
(lp4108
(S'what'
p4109
g6
F0.9864
tp4110
a(S'happened'
p4111
g9
F0.9921
tp4112
asI424
(lp4113
(S'you'
p4114
g6
F0.9627
tp4115
asI425
(lp4116
(S'you'
p4117
g6
F0.9754
tp4118
a(S're'
p4119
g9
F0.9443
tp4120
a(S'the'
p4121
g20
F0.9985
tp4122
a(S'one'
p4123
g834
F0.9392
tp4124
a(S'who'
p4125
g6
F0.9825
tp4126
a(g78
g9
F0.6063
tp4127
a(S'acting'
p4128
g9
F0.9934
tp4129
a(S'simple'
p4130
g195
F0.9315
tp4131
a(g31
g6
F0.9123
tp4132
a(S'don'
p4133
g9
F0.9198
tp4134
a(g129
g23
F0.225
tp4135
a(S'know'
p4136
g9
F0.9915
tp4137
a(S'why'
p4138
g3
F0.9699
tp4139
a(S'you'
p4140
g6
F0.9988
tp4141
a(S'don'
p4142
g9
F0.8626
tp4143
a(g129
g23
F0.2121
tp4144
a(S'take'
p4145
g9
F0.9986
tp4146
a(S'it'
p4147
g6
F0.9033
tp4148
a(S'in'
p4149
g49
F0.9393
tp4150
a(S'order'
p4151
g23
F0.9422
tp4152
asI426
(lp4153
(S'all'
p4154
g1393
F0.437
tp4155
a(S'you'
p4156
g6
F0.9981
tp4157
a(S'have'
p4158
g9
F0.9996
tp4159
a(S'to'
p4160
g49
F0.9849
tp4161
a(S'do'
p4162
g9
F0.9977
tp4163
a(S'is'
p4164
g9
F0.9921
tp4165
a(S'keep'
p4166
g9
F0.8279
tp4167
a(S'pushin'
p4168
g9
F0.5653
tp4169
a(g187
g23
F0.3431
tp4170
asI427
(lp4171
(S'xxx'
p4172
g41
F0.7728
tp4173
a(g31
g6
F0.9384
tp4174
a(g31
g6
F0.9822
tp4175
a(S'did'
p4176
g9
F0.9993
tp4177
a(g31
g6
F0.9956
tp4178
a(S'meant'
p4179
g9
F0.9992
tp4180
a(S'to'
p4181
g49
F0.8694
tp4182
a(S'push'
p4183
g9
F0.9739
tp4184
a(S'monday'
p4185
g228
F0.8503
tp4186
a(S'right'
p4187
g3
F0.4934
tp4188
a(g31
g6
F0.9789
tp4189
a(S'pushed'
p4190
g9
F0.9976
tp4191
a(S'tuesday'
p4192
g228
F0.7173
tp4193
a(g31
g6
F0.9166
tp4194
a(S'didn'
p4195
g9
F0.9907
tp4196
a(g129
g9
F0.7232
tp4197
a(S'look'
p4198
g9
F0.9324
tp4199
asI428
(lp4200
(S'alright'
p4201
g57
F0.9864
tp4202
asI429
(lp4203
(S'it'
p4204
g6
F0.9979
tp4205
a(S'is'
p4206
g9
F0.9999
tp4207
a(S'it'
p4208
g6
F0.9961
tp4209
a(S'okay'
p4210
g195
F0.523
tp4211
a(S'if'
p4212
g49
F0.9954
tp4213
a(g31
g6
F0.9961
tp4214
a(S'take'
p4215
g9
F0.9995
tp4216
a(S'wednesday'
p4217
g23
F0.4695
tp4218
a(S'tomorrow'
p4219
g23
F0.9913
tp4220
asI430
(lp4221
(S'tomorow'
p4222
g23
F0.6523
tp4223
a(g78
g79
F0.9021
tp4224
a(g91
g79
F0.4308
tp4225
a(S'wednesday'
p4226
g228
F0.4681
tp4227
a(S'of'
p4228
g49
F0.9785
tp4229
a(S'course'
p4230
g23
F0.9716
tp4231
a(S'laughs'
p4232
g9
F0.9716
tp4233
asI431
(lp4234
(S'today'
p4235
g23
F0.9873
tp4236
a(S'laughs'
p4237
g9
F0.9801
tp4238
asI432
(lp4239
(S'those'
p4240
g6
F0.6322
tp4241
a(S'are'
p4242
g9
F0.998
tp4243
a(S'about'
p4244
g49
F0.9894
tp4245
a(S'the'
p4246
g20
F0.9996
tp4247
a(S'same'
p4248
g195
F0.9691
tp4249
a(S'pretty'
p4250
g3
F0.9796
tp4251
a(S'much'
p4252
g195
F0.7889
tp4253
a(S'anyway'
p4254
g3
F0.9871
tp4255
a(S'right'
p4256
g3
F0.4836
tp4257
asI433
(lp4258
(g31
g6
F0.9635
tp4259
a(S'don'
p4260
g9
F0.9156
tp4261
a(g129
g23
F0.3074
tp4262
a(S'know'
p4263
g9
F0.965
tp4264
asI434
(lp4265
(S'all'
p4266
g20
F0.8935
tp4267
a(S'yellow'
p4268
g195
F0.9599
tp4269
asI435
(lp4270
(S'yeah'
p4271
g57
F0.9963
tp4272
a(S'all'
p4273
g20
F0.8773
tp4274
a(S'yellow'
p4275
g195
F0.9364
tp4276
a(S'but'
p4277
g15
F0.9902
tp4278
asI436
(lp4279
(S'let'
p4280
g9
F0.9975
tp4281
a(S'me'
p4282
g6
F0.9996
tp4283
a(S'see'
p4284
g9
F0.9642
tp4285
a(S'xxx'
p4286
g41
F0.7382
tp4287
asI437
(lp4288
(S'xxx'
p4289
g41
F0.8437
tp4290
asI438
(lp4291
(S'can'
p4292
g9
F0.9701
tp4293
a(g31
g6
F0.9836
tp4294
a(S'see'
p4295
g9
F0.9984
tp4296
asI439
(lp4297
(S'this'
p4298
g6
F0.6506
tp4299
a(S'must'
p4300
g9
F0.9856
tp4301
a(S'be'
p4302
g9
F0.9994
tp4303
a(S'done'
p4304
g9
F0.9507
tp4305
a(S'by'
p4306
g49
F0.9718
tp4307
a(S'now'
p4308
g3
F0.9518
tp4309
a(S'honey'
p4310
g23
F0.5255
tp4311
asI440
(lp4312
(S'thank'
p4313
g9
F0.9631
tp4314
a(S'you'
p4315
g6
F0.9987
tp4316
asI441
(lp4317
(S'you'
p4318
g6
F0.963
tp4319
a(S're'
p4320
g9
F0.5951
tp4321
a(S'welcome'
p4322
g9
F0.4795
tp4323
asI442
(lp4324
(S'yeah'
p4325
g57
F0.9967
tp4326
a(S'they'
p4327
g6
F0.9723
tp4328
a(S're'
p4329
g9
F0.7289
tp4330
a(S'done'
p4331
g9
F0.8661
tp4332
a(S'xxx'
p4333
g41
F0.7824
tp4334
asI443
(lp4335
(S'you'
p4336
g6
F0.998
tp4337
a(S'want'
p4338
g9
F0.9993
tp4339
a(S'corn'
p4340
g23
F0.9942
tp4341
a(S'or'
p4342
g15
F0.9862
tp4343
a(S'just'
p4344
g3
F0.9981
tp4345
a(S'rice'
p4346
g23
F0.8553
tp4347
asI444
(lp4348
(S'just'
p4349
g3
F0.9964
tp4350
a(S'rice'
p4351
g23
F0.6519
tp4352
a(S'honey'
p4353
g23
F0.984
tp4354
asI445
(lp4355
(S'okay'
p4356
g57
F0.9857
tp4357
asI446
(lp4358
(g31
g6
F0.9902
tp4359
a(S'want'
p4360
g9
F1.0
tp4361
a(S'it'
p4362
g6
F0.9905
tp4363
asI447
(lp4364
(S'whining'
p4365
g9
F0.9836
tp4366
asI448
(lp4367
(S'here'
p4368
g3
F0.9194
tp4369
a(S'alright'
p4370
g57
F0.7049
tp4371
a(S'x'
p4372
g41
F0.5989
tp4373
a(S'4'
p4374
g834
F0.3849
tp4375
asI449
(lp4376
(S'crying'
p4377
g9
F0.9949
tp4378
asI450
(lp4379
(S'okay'
p4380
g57
F0.961
tp4381
a(S'what'
p4382
g6
F0.9983
tp4383
a(S'did'
p4384
g9
F0.9538
tp4385
a(g31
g6
F0.9963
tp4386
a(S'say'
p4387
g9
F0.9988
tp4388
asI451
(lp4389
(S'what'
p4390
g6
F0.9965
tp4391
a(S'did'
p4392
g9
F0.959
tp4393
a(g31
g6
F0.9972
tp4394
a(S'say'
p4395
g9
F0.9974
tp4396
asI452
(lp4397
(S'give'
p4398
g9
F0.9982
tp4399
a(S'me'
p4400
g6
F0.9992
tp4401
a(S'whining'
p4402
g9
F0.9982
tp4403
asI453
(lp4404
(S'stop'
p4405
g9
F0.9902
tp4406
a(S'it'
p4407
g6
F0.9896
tp4408
asI454
(lp4409
(S'can'
p4410
g9
F0.9842
tp4411
a(S'daddy'
p4412
g23
F0.9305
tp4413
a(S'have'
p4414
g9
F0.9988
tp4415
a(S'some'
p4416
g20
F0.9291
tp4417
asI455
(lp4418
(S'nuhhuh'
p4419
g57
F0.533
tp4420
asI456
(lp4421
(S'xxx'
p4422
g41
F0.6944
tp4423
a(S'daddy'
p4424
g23
F0.9439
tp4425
a(S'some'
p4426
g20
F0.7196
tp4427
asI457
(lp4428
(S'whining'
p4429
g9
F0.9836
tp4430
asI458
(lp4431
(g31
g6
F0.9853
tp4432
a(S'give'
p4433
g9
F0.9986
tp4434
a(S'daddy'
p4435
g23
F0.9863
tp4436
a(S'some'
p4437
g20
F0.6314
tp4438
a(S'too'
p4439
g3
F0.9548
tp4440
asI459
(lp4441
(S'give'
p4442
g9
F0.9551
tp4443
a(S'daddy'
p4444
g23
F0.9754
tp4445
a(S'some'
p4446
g20
F0.6087
tp4447
a(S'too'
p4448
g3
F0.9272
tp4449
asI460
(lp4450
(S'xxx'
p4451
g41
F0.8437
tp4452
asI461
(lp4453
(S'there'
p4454
g3
F0.5244
tp4455
a(S'you'
p4456
g6
F0.9982
tp4457
a(S'go'
p4458
g9
F0.9953
tp4459
asI462
(lp4460
(S'can'
p4461
g9
F0.9842
tp4462
a(S'daddy'
p4463
g23
F0.9305
tp4464
a(S'have'
p4465
g9
F0.9988
tp4466
a(S'some'
p4467
g20
F0.9291
tp4468
asI463
(lp4469
(S'hey'
p4470
g57
F0.9892
tp4471
a(S'can'
p4472
g9
F0.9796
tp4473
a(g31
g6
F0.9889
tp4474
a(S'have'
p4475
g9
F0.9998
tp4476
a(S'some'
p4477
g20
F0.9266
tp4478
asI464
(lp4479
(S'thank'
p4480
g9
F0.9631
tp4481
a(S'you'
p4482
g6
F0.9987
tp4483
asI465
(lp4484
(S'here'
p4485
g3
F0.7796
tp4486
asI466
(lp4487
(S'dear'
p4488
g23
F0.7889
tp4489
a(S'is'
p4490
g9
F0.9986
tp4491
a(S'this'
p4492
g20
F0.8457
tp4493
a(S'enough'
p4494
g195
F0.4776
tp4495
a(S'rice'
p4496
g23
F0.9905
tp4497
asI467
(lp4498
(S'that'
p4499
g6
F0.473
tp4500
a(g78
g9
F0.4372
tp4501
a(S'not'
p4502
g3
F0.9832
tp4503
a(g161
g20
F0.989
tp4504
a(S'lot'
p4505
g23
F0.9347
tp4506
asI468
(lp4507
(S'no'
p4508
g57
F0.9253
tp4509
asI469
(lp4510
(g1301
g834
F0.9725
tp4511
a(S'whining'
p4512
g9
F0.9973
tp4513
a(S'escalates'
p4514
g9
F0.6659
tp4515
a(S'to'
p4516
g49
F0.9918
tp4517
a(S'screaming'
p4518
g9
F0.9997
tp4519
asI470
(lp4520
(S'sis'
p4521
g23
F0.8383
tp4522
a(S'sis'
p4523
g23
F0.9681
tp4524
a(S'let'
p4525
g9
F0.9213
tp4526
a(g78
g79
F0.4131
tp4527
a(S'go'
p4528
g9
F0.9738
tp4529
a(S'take'
p4530
g9
F0.9902
tp4531
a(g161
g20
F0.9976
tp4532
a(S'nap'
p4533
g23
F0.9933
tp4534
asI471
(lp4535
(S'come'
p4536
g9
F0.9849
tp4537
a(S'on'
p4538
g190
F0.5632
tp4539
asI472
(lp4540
(S'here'
p4541
g3
F0.7796
tp4542
asI473
(lp4543
(S'crying'
p4544
g9
F0.9949
tp4545
asI474
(lp4546
(S'it'
p4547
g6
F0.9888
tp4548
a(g78
g9
F0.4828
tp4549
a(S'just'
p4550
g3
F0.9988
tp4551
a(S'broken'
p4552
g9
F0.8607
tp4553
asI475
(lp4554
(S'screaming'
p4555
g9
F0.983
tp4556
asI476
(lp4557
(S'xxx'
p4558
g41
F0.8437
tp4559
asI477
(lp4560
(S'it'
p4561
g6
F0.9858
tp4562
a(g78
g9
F0.6866
tp4563
a(S'broken'
p4564
g9
F0.8602
tp4565
asI478
(lp4566
(S'the'
p4567
g20
F0.999
tp4568
a(S'thing'
p4569
g23
F0.9976
tp4570
a(S'was'
p4571
g9
F0.9979
tp4572
a(S'broken'
p4573
g9
F0.5578
tp4574
a(S'xxx'
p4575
g41
F0.3613
tp4576
a(S'every'
p4577
g20
F0.9578
tp4578
a(S'time'
p4579
g23
F0.9899
tp4580
a(S'you'
p4581
g6
F0.9966
tp4582
a(S'slid'
p4583
g9
F0.9986
tp4584
a(S'back'
p4585
g3
F0.8581
tp4586
a(S'down'
p4587
g49
F0.7181
tp4588
a(S'she'
p4589
g6
F0.9983
tp4590
a(S'got'
p4591
g9
F0.9986
tp4592
a(S'mad'
p4593
g195
F0.966
tp4594
asI479
(lp4595
(S'screaming'
p4596
g9
F0.983
tp4597
asI480
(lp4598
(S'look'
p4599
g9
F0.88
tp4600
a(S'at'
p4601
g49
F0.996
tp4602
a(S'that'
p4603
g6
F0.8197
tp4604
asI481
(lp4605
(S'xxx'
p4606
g41
F0.8437
tp4607
asI482
(lp4608
(S'screaming'
p4609
g9
F0.983
tp4610
asI483
(lp4611
(S'laughs'
p4612
g9
F0.9102
tp4613
asI484
(lp4614
(S'www'
p4615
g228
F0.3889
tp4616
asI485
(lp4617
(g31
g6
F0.9635
tp4618
a(S'don'
p4619
g9
F0.9231
tp4620
a(g129
g23
F0.2457
tp4621
a(S'know'
p4622
g9
F0.9914
tp4623
a(S'how'
p4624
g3
F0.9928
tp4625
a(S'to'
p4626
g49
F0.9919
tp4627
a(S'discipline'
p4628
g9
F0.532
tp4629
a(S'that'
p4630
g20
F0.5244
tp4631
a(S'child'
p4632
g23
F0.9762
tp4633
asI486
(lp4634
(S'you'
p4635
g6
F0.9754
tp4636
a(S're'
p4637
g9
F0.9434
tp4638
a(g161
g20
F0.9894
tp4639
a(S'greedy'
p4640
g195
F0.9993
tp4641
a(S'xxx'
p4642
g41
F0.7918
tp4643
asI487
(lp4644
(S'well'
p4645
g57
F0.8954
tp4646
a(S'she'
p4647
g6
F0.9984
tp4648
a(S'didn'
p4649
g9
F0.9699
tp4650
a(g129
g9
F0.5994
tp4651
a(S'want'
p4652
g9
F0.9997
tp4653
a(S'it'
p4654
g6
F0.9908
tp4655
asI488
(lp4656
(g31
g6
F0.9894
tp4657
a(S'guess'
p4658
g9
F0.9992
tp4659
a(g31
g6
F0.9946
tp4660
a(S'could'
p4661
g9
F0.9998
tp4662
a(S'have'
p4663
g9
F0.9981
tp4664
a(S'gave'
p4665
g9
F0.9957
tp4666
a(S'her'
p4667
g20
F0.5943
tp4668
a(S'more'
p4669
g195
F0.9133
tp4670
a(S'time'
p4671
g23
F0.9987
tp4672
a(S'to'
p4673
g49
F0.9971
tp4674
a(S'say'
p4675
g9
F0.9993
tp4676
a(S'that'
p4677
g49
F0.751
tp4678
a(S'she'
p4679
g6
F0.9976
tp4680
a(S'didn'
p4681
g9
F0.9686
tp4682
a(g129
g9
F0.7163
tp4683
a(S'want'
p4684
g9
F0.9995
tp4685
a(S'it'
p4686
g6
F0.9907
tp4687
asI489
(lp4688
(S'she'
p4689
g6
F0.9917
tp4690
a(g78
g9
F0.6125
tp4691
a(S'throwing'
p4692
g9
F0.9983
tp4693
a(g161
g20
F0.9988
tp4694
a(S'tantrum'
p4695
g23
F0.996
tp4696
a(S'like'
p4697
g49
F0.993
tp4698
a(S'chi'
p4699
g228
F0.5502
tp4700
a(S'used'
p4701
g9
F0.8768
tp4702
a(S'to'
p4703
g49
F0.9536
tp4704
asI490
(lp4705
(S'get'
p4706
g9
F0.9966
tp4707
a(S'the'
p4708
g20
F0.9985
tp4709
a(S'telephone'
p4710
g23
F0.9785
tp4711
asI491
(lp4712
(S'www'
p4713
g228
F0.3889
tp4714
asI492
(lp4715
(S'let'
p4716
g9
F0.9975
tp4717
a(S'me'
p4718
g6
F0.9998
tp4719
a(S'guess'
p4720
g9
F0.9953
tp4721
a(S'carl'
p4722
g228
F0.9932
tp4723
a(S'wants'
p4724
g9
F0.9976
tp4725
a(S'three'
p4726
g834
F0.9122
tp4727
a(S'hundred'
p4728
g834
F0.7575
tp4729
a(S'dollars'
p4730
g23
F0.9938
tp4731
a(S'by'
p4732
g49
F0.9976
tp4733
a(S'tues'
p4734
g228
F0.9428
tp4735
a(S'friday'
p4736
g228
F0.9402
tp4737
asI493
(lp4738
(S'xxx'
p4739
g41
F0.8437
tp4740
asI494
(lp4741
(S'alright'
p4742
g57
F0.9864
tp4743
asI495
(lp4744
(S'xxx'
p4745
g41
F0.8437
tp4746
asI496
(lp4747
(g31
g6
F0.9793
tp4748
a(S'll'
p4749
g9
F0.7217
tp4750
a(S'get'
p4751
g9
F0.9998
tp4752
a(S'it'
p4753
g6
F0.9951
tp4754
a(S'tomorrow'
p4755
g23
F0.4904
tp4756
asI497
(lp4757
(S'pain'
p4758
g23
F0.9917
tp4759
a(S'in'
p4760
g49
F0.9991
tp4761
a(S'the'
p4762
g20
F0.9996
tp4763
a(S'neck'
p4764
g23
F0.9975
tp4765
asI498
(lp4766
(S'help'
p4767
g9
F0.9926
tp4768
a(S'me'
p4769
g6
F0.9331
tp4770
a(S'honey'
p4771
g23
F0.5618
tp4772
a(S'this'
p4773
g6
F0.9248
tp4774
a(S'is'
p4775
g9
F0.9969
tp4776
a(S'hot'
p4777
g195
F0.9908
tp4778
a(S'ow'
p4779
g57
F0.7498
tp4780
asI499
(lp4781
(S'oh'
p4782
g57
F0.9948
tp4783
a(S'my'
p4784
g20
F0.8881
tp4785
a(S'god'
p4786
g23
F0.6984
tp4787
asI500
(lp4788
(S'xxx'
p4789
g41
F0.8437
tp4790
asI501
(lp4791
(S'plus'
p4792
g15
F0.3867
tp4793
a(g161
g20
F0.9969
tp4794
a(S'little'
p4795
g195
F0.9937
tp4796
a(S'two'
p4797
g834
F0.9807
tp4798
a(S'pound'
p4799
g23
F0.9495
tp4800
a(S'weakling'
p4801
g23
F0.9497
tp4802
a(g91
g79
F0.3229
tp4803
a(S'like'
p4804
g49
F0.6608
tp4805
a(S'yourself'
p4806
g6
F0.9959
tp4807
asI502
(lp4808
(S'obviously'
p4809
g3
F0.9907
tp4810
a(S'you'
p4811
g6
F0.9985
tp4812
a(S'gotta'
p4813
g9
F0.9997
tp4814
a(S'take'
p4815
g9
F0.9959
tp4816
a(S'twenty'
p4817
g834
F0.7909
tp4818
a(S'minutes'
p4819
g23
F0.9913
tp4820
a(S'before'
p4821
g49
F0.9695
tp4822
a(S'xxx'
p4823
g41
F0.528
tp4824
asI503
(lp4825
(S'xxx'
p4826
g41
F0.7728
tp4827
a(g31
g6
F0.9846
tp4828
a(S'need'
p4829
g9
F0.9997
tp4830
a(S'some'
p4831
g20
F0.9897
tp4832
a(S'rice'
p4833
g23
F0.9612
tp4834
a(S'please'
p4835
g9
F0.9568
tp4836
asI504
(lp4837
(S'xxx'
p4838
g41
F0.6914
tp4839
a(S'we'
p4840
g6
F0.9935
tp4841
a(S'don'
p4842
g9
F0.833
tp4843
a(g129
g79
F0.2347
tp4844
a(S'need'
p4845
g9
F0.9958
tp4846
a(S'all'
p4847
g1393
F0.5515
tp4848
a(S'those'
p4849
g20
F0.8921
tp4850
asI505
(lp4851
(S'look'
p4852
g9
F0.9178
tp4853
a(S'how'
p4854
g3
F0.9856
tp4855
a(S'big'
p4856
g195
F0.9298
tp4857
a(S'they'
p4858
g6
F0.9757
tp4859
a(S'are'
p4860
g9
F0.9992
tp4861
a(S'xxx'
p4862
g41
F0.7695
tp4863
asI506
(lp4864
(S'xxx'
p4865
g41
F0.8437
tp4866
asI507
(lp4867
(g31
g6
F0.953
tp4868
a(g183
g9
F0.9874
tp4869
a(S'sure'
p4870
g195
F0.7022
tp4871
a(S'you'
p4872
g6
F0.9985
tp4873
a(S'want'
p4874
g9
F0.9999
tp4875
a(S'some'
p4876
g20
F0.9911
tp4877
a(S'sauce'
p4878
g23
F0.9895
tp4879
asI508
(lp4880
(S'lay'
p4881
g9
F0.9367
tp4882
a(S'down'
p4883
g190
F0.8237
tp4884
asI509
(lp4885
(S'no'
p4886
g57
F0.6532
tp4887
a(g31
g6
F0.9261
tp4888
a(S'don'
p4889
g9
F0.9187
tp4890
a(g129
g23
F0.2247
tp4891
a(S'want'
p4892
g9
F0.9987
tp4893
a(S'any'
p4894
g20
F0.9946
tp4895
a(S'sauce'
p4896
g23
F0.998
tp4897
a(S'just'
p4898
g3
F0.9993
tp4899
a(S'give'
p4900
g9
F0.9998
tp4901
a(S'me'
p4902
g6
F0.9923
tp4903
a(S'some'
p4904
g20
F0.9693
tp4905
a(S'pork'
p4906
g23
F0.9877
tp4907
a(S'chops'
p4908
g23
F0.9947
tp4909
asI510
(lp4910
(S'couple'
p4911
g23
F0.9724
tp4912
a(S'of'
p4913
g49
F0.9943
tp4914
a(S'knives'
p4915
g23
F0.9659
tp4916
asI511
(lp4917
(g161
g20
F0.9924
tp4918
a(S'couple'
p4919
g23
F0.9862
tp4920
a(S'of'
p4921
g49
F0.9909
tp4922
a(S'knives'
p4923
g23
F0.9606
tp4924
asI512
(lp4925
(S'listen'
p4926
g9
F0.9782
tp4927
asI513
(lp4928
(S'yes'
p4929
g57
F0.9958
tp4930
asI514
(lp4931
(S'honey'
p4932
g23
F0.849
tp4933
a(g31
g6
F0.952
tp4934
a(S'can'
p4935
g9
F0.9996
tp4936
a(g129
g9
F0.7649
tp4937
a(S'go'
p4938
g9
F0.9951
tp4939
a(S'down'
p4940
g3
F0.8737
tp4941
a(S'to'
p4942
g49
F0.9993
tp4943
a(S'the'
p4944
g20
F0.9991
tp4945
a(S'park'
p4946
g23
F0.7815
tp4947
a(S'with'
p4948
g49
F0.9983
tp4949
a(S'sis'
p4950
g23
F0.9156
tp4951
a(S'like'
p4952
g49
F0.9368
tp4953
a(S'that'
p4954
g6
F0.8573
tp4955
a(S'be'
p4956
g9
F0.9969
tp4957
a(S'cause'
p4958
g49
F0.665
tp4959
a(g31
g6
F0.9916
tp4960
a(S'just'
p4961
g3
F0.9997
tp4962
a(S'don'
p4963
g9
F0.5473
tp4964
a(g129
g79
F0.5306
tp4965
a(S'xxx'
p4966
g41
F0.5804
tp4967
asI515
(lp4968
(S'xxx'
p4969
g41
F0.8437
tp4970
asI516
(lp4971
(S'no'
p4972
g57
F0.9253
tp4973
asI517
(lp4974
(S'you'
p4975
g6
F0.9963
tp4976
a(S'go'
p4977
g9
F0.9949
tp4978
a(S'ahead'
p4979
g3
F0.9811
tp4980
a(g31
g6
F0.9738
tp4981
a(S'already'
p4982
g3
F0.9963
tp4983
a(S'told'
p4984
g9
F0.9997
tp4985
a(S'you'
p4986
g6
F0.999
tp4987
a(S'to'
p4988
g49
F0.9688
tp4989
a(S'go'
p4990
g9
F0.9984
tp4991
a(S'so'
p4992
g3
F0.8171
tp4993
a(S'go'
p4994
g9
F0.7662
tp4995
asI518
(lp4996
(S'you'
p4997
g6
F0.998
tp4998
a(S'won'
p4999
g9
F0.978
tp5000
a(g129
g23
F0.2753
tp5001
a(S'be'
p5002
g9
F0.9941
tp5003
a(S'mad'
p5004
g195
F0.9532
tp5005
asI519
(lp5006
(g31
g6
F0.9583
tp5007
a(g31
g6
F0.944
tp5008
a(S'll'
p5009
g9
F0.7799
tp5010
a(S'be'
p5011
g9
F0.9976
tp5012
a(S'back'
p5013
g3
F0.9147
tp5014
a(g31
g6
F0.9019
tp5015
a(S'xxx'
p5016
g9
F0.5411
tp5017
a(S'go'
p5018
g9
F0.952
tp5019
a(S'xxx'
p5020
g41
F0.5746
tp5021
asI520
(lp5022
(S'oh'
p5023
g57
F0.9975
tp5024
a(S'yeah'
p5025
g57
F0.9984
tp5026
a(S'your'
p5027
g699
F0.6055
tp5028
a(S'back'
p5029
g3
F0.4829
tp5030
a(S'is'
p5031
g9
F0.996
tp5032
a(S'always'
p5033
g3
F0.9997
tp5034
a(S'weird'
p5035
g195
F0.9983
tp5036
asI521
(lp5037
(S'xxx'
p5038
g41
F0.7728
tp5039
a(g31
g6
F0.9472
tp5040
a(g183
g9
F0.973
tp5041
a(S'just'
p5042
g3
F0.9992
tp5043
a(S'gonna'
p5044
g9
F0.9985
tp5045
a(S'play'
p5046
g9
F0.9996
tp5047
a(g161
g20
F0.9976
tp5048
a(S'few'
p5049
g195
F0.9298
tp5050
a(S'games'
p5051
g23
F0.9989
tp5052
a(S'then'
p5053
g3
F0.9684
tp5054
a(S'come'
p5055
g9
F0.9944
tp5056
a(S'back'
p5057
g3
F0.843
tp5058
a(S'xxx'
p5059
g41
F0.6779
tp5060
asI522
(lp5061
(S'it'
p5062
g6
F0.9888
tp5063
a(g78
g9
F0.5569
tp5064
a(S'so'
p5065
g3
F0.9156
tp5066
a(S'hot'
p5067
g195
F0.9628
tp5068
a(S'out'
p5069
g49
F0.9154
tp5070
a(S'it'
p5071
g6
F0.9975
tp5072
a(g78
g9
F0.4302
tp5073
a(S'gonna'
p5074
g9
F0.9819
tp5075
a(S'rain'
p5076
g23
F0.5579
tp5077
a(S'anyway'
p5078
g3
F0.9747
tp5079
asI523
(lp5080
(S'well'
p5081
g57
F0.9502
tp5082
a(S'that'
p5083
g6
F0.813
tp5084
a(g78
g79
F0.4388
tp5085
a(S'what'
p5086
g6
F0.9594
tp5087
a(g31
g6
F0.9879
tp5088
a(S'hope'
p5089
g9
F0.9999
tp5090
a(S'it'
p5091
g6
F0.997
tp5092
a(S'does'
p5093
g9
F0.9989
tp5094
a(S'rain'
p5095
g23
F0.9632
tp5096
asI524
(lp5097
(S'it'
p5098
g6
F0.9888
tp5099
a(g78
g9
F0.5569
tp5100
a(S'so'
p5101
g3
F0.6388
tp5102
a(S'dag'
p5103
g23
F0.2479
tp5104
a(S'hot'
p5105
g195
F0.7025
tp5106
a(S'out'
p5107
g49
F0.865
tp5108
a(S'there'
p5109
g3
F0.7122
tp5110
asI525
(lp5111
(S'so'
p5112
g49
F0.6866
tp5113
a(S'why'
p5114
g3
F0.9806
tp5115
a(S'you'
p5116
g6
F0.9995
tp5117
a(S'wanna'
p5118
g9
F0.9957
tp5119
a(S'go'
p5120
g9
F0.9942
tp5121
a(S'and'
p5122
g15
F0.9794
tp5123
a(S'play'
p5124
g9
F0.9656
tp5125
asI526
(lp5126
(S'be'
p5127
g9
F0.9727
tp5128
a(S'cause'
p5129
g49
F0.7105
tp5130
a(g31
g6
F0.9414
tp5131
a(S'haven'
p5132
g9
F0.8227
tp5133
a(g129
g49
F0.2328
tp5134
a(S'played'
p5135
g9
F0.9959
tp5136
a(S'in'
p5137
g49
F0.9884
tp5138
a(g161
g20
F0.7355
tp5139
a(S'while'
p5140
g23
F0.5898
tp5141
a(S'and'
p5142
g15
F0.9975
tp5143
a(g31
g6
F0.9853
tp5144
a(g183
g9
F0.9857
tp5145
a(S'anxious'
p5146
g195
F0.959
tp5147
asI527
(lp5148
(S'you'
p5149
g6
F0.9972
tp5150
a(S'played'
p5151
g9
F0.9894
tp5152
a(S'sunday'
p5153
g228
F0.6803
tp5154
asI528
(lp5155
(S'today'
p5156
g23
F0.976
tp5157
a(g78
g79
F0.64
tp5158
a(S'three'
p5159
g834
F0.938
tp5160
a(S'days'
p5161
g23
F0.9978
tp5162
a(S'afterwards'
p5163
g3
F0.9599
tp5164
asI529
(lp5165
(S'usually'
p5166
g3
F0.9951
tp5167
a(S'you'
p5168
g6
F0.9958
tp5169
a(S'xxx'
p5170
g9
F0.7506
tp5171
a(S'play'
p5172
g9
F0.9914
tp5173
a(g161
g20
F0.9984
tp5174
a(S'week'
p5175
g23
F0.9963
tp5176
asI530
(lp5177
(S'stay'
p5178
g9
F0.899
tp5179
a(S'home'
p5180
g23
F0.8815
tp5181
a(S'with'
p5182
g49
F0.9995
tp5183
a(S'me'
p5184
g6
F0.9982
tp5185
asI531
(lp5186
(S'xxx'
p5187
g41
F0.6388
tp5188
a(S'said'
p5189
g9
F0.9623
tp5190
a(g31
g6
F0.9957
tp5191
a(S'could'
p5192
g9
F0.9997
tp5193
a(S'go'
p5194
g9
F0.9966
tp5195
a(S'now'
p5196
g3
F0.9997
tp5197
a(g31
g6
F0.9927
tp5198
a(S'need'
p5199
g9
F0.9979
tp5200
a(S'xxx'
p5201
g41
F0.4029
tp5202
a(S'gonna'
p5203
g9
F0.9949
tp5204
a(S'be'
p5205
g9
F0.9995
tp5206
a(S'pissed'
p5207
g9
F0.6996
tp5208
a(S'off'
p5209
g190
F0.8181
tp5210
a(S'at'
p5211
g49
F0.9987
tp5212
a(S'me'
p5213
g6
F0.9982
tp5214
asI532
(lp5215
(S'everytime'
p5216
g3
F0.7099
tp5217
a(g31
g6
F0.9906
tp5218
a(S'tell'
p5219
g9
F0.9999
tp5220
a(S'him'
p5221
g6
F0.9813
tp5222
a(g31
g6
F0.9703
tp5223
a(S'll'
p5224
g9
F0.5729
tp5225
a(S'go'
p5226
g9
F0.9806
tp5227
asI533
(lp5228
(S'xxx'
p5229
g41
F0.8437
tp5230
asI534
(lp5231
(S'he'
p5232
g6
F0.9883
tp5233
a(S'xxx'
p5234
g9
F0.6665
tp5235
a(S'he'
p5236
g6
F0.9985
tp5237
a(S'said'
p5238
g9
F0.9995
tp5239
a(S'he'
p5240
g6
F0.9972
tp5241
a(S'didn'
p5242
g9
F0.9863
tp5243
a(g129
g9
F0.7356
tp5244
a(S'go'
p5245
g9
F0.9852
tp5246
a(S'be'
p5247
g9
F0.9704
tp5248
a(S'cause'
p5249
g49
F0.665
tp5250
a(g31
g6
F0.9953
tp5251
a(S'asked'
p5252
g9
F1.0
tp5253
a(S'him'
p5254
g6
F0.9871
tp5255
a(S'xxx'
p5256
g41
F0.6901
tp5257
asI535
(lp5258
(S'xxx'
p5259
g41
F0.8437
tp5260
asI536
(lp5261
(S'huh'
p5262
g57
F0.993
tp5263
asI537
(lp5264
(S'tell'
p5265
g9
F0.9954
tp5266
a(S'him'
p5267
g6
F0.9945
tp5268
a(S'xxx'
p5269
g41
F0.307
tp5270
a(S'come'
p5271
g9
F0.9941
tp5272
a(S'to'
p5273
g49
F0.9969
tp5274
a(S'the'
p5275
g20
F0.9991
tp5276
a(S'park'
p5277
g23
F0.7623
tp5278
a(S'with'
p5279
g49
F0.9997
tp5280
a(S'us'
p5281
g6
F0.9832
tp5282
asI538
(lp5283
(S'humming'
p5284
g9
F0.9303
tp5285
asI539
(lp5286
(S'xxx'
p5287
g41
F0.7492
tp5288
a(S'too'
p5289
g3
F0.9866
tp5290
a(S'many'
p5291
g195
F0.9935
tp5292
a(S'people'
p5293
g23
F0.9992
tp5294
a(S'can'
p5295
g9
F0.9969
tp5296
a(g31
g6
F0.9793
tp5297
a(S'just'
p5298
g3
F0.9992
tp5299
a(S'drive'
p5300
g9
F0.9391
tp5301
a(S'by'
p5302
g49
F0.9444
tp5303
asI540
(lp5304
(S'xxx'
p5305
g41
F0.8437
tp5306
asI541
(lp5307
(S'alright'
p5308
g57
F0.9502
tp5309
a(S'alright'
p5310
g57
F0.9782
tp5311
a(S'alright'
p5312
g57
F0.9455
tp5313
a(S'xxx'
p5314
g41
F0.8578
tp5315
asI542
(lp5316
(S'no'
p5317
g57
F0.5615
tp5318
a(S'see'
p5319
g9
F0.8744
tp5320
asI543
(lp5321
(S'singing'
p5322
g9
F0.9945
tp5323
asI544
(lp5324
(S'get'
p5325
g9
F0.9986
tp5326
a(S'my'
p5327
g20
F0.6724
tp5328
a(S'hopes'
p5329
g9
F0.7761
tp5330
a(S'up'
p5331
g190
F0.9694
tp5332
asI545
(lp5333
(S'xxx'
p5334
g41
F0.5414
tp5335
a(S'played'
p5336
g9
F0.9966
tp5337
a(S'all'
p5338
g20
F0.995
tp5339
a(S'day'
p5340
g23
F0.9963
tp5341
asI546
(lp5342
(S'singing'
p5343
g9
F0.9945
tp5344
asI547
(lp5345
(S'mommy'
p5346
g23
F0.7607
tp5347
a(g31
g6
F0.8587
tp5348
a(g183
g9
F0.9749
tp5349
a(S'thirsty'
p5350
g195
F0.9902
tp5351
asI548
(lp5352
(S'xxx'
p5353
g41
F0.6632
tp5354
a(S'gonna'
p5355
g9
F0.9948
tp5356
a(S'be'
p5357
g9
F0.9992
tp5358
a(S'workin'
p5359
g9
F0.9884
tp5360
a(g187
g9
F0.2971
tp5361
a(S'tomorrow'
p5362
g23
F0.8164
tp5363
asI549
(lp5364
(S'xxx'
p5365
g41
F0.6995
tp5366
a(S'all'
p5367
g20
F0.9779
tp5368
a(S'day'
p5369
g23
F0.9983
tp5370
a(S'tomorrow'
p5371
g23
F0.9711
tp5372
a(S'xxx'
p5373
g41
F0.7668
tp5374
asI550
(lp5375
(g31
g6
F0.9586
tp5376
a(g183
g9
F0.9706
tp5377
a(S'thirsty'
p5378
g195
F0.9878
tp5379
asI551
(lp5380
(S'xxx'
p5381
g41
F0.8437
tp5382
asI552
(lp5383
(S'he'
p5384
g6
F0.9928
tp5385
a(S'doesn'
p5386
g9
F0.9962
tp5387
a(g129
g79
F0.2501
tp5388
a(S'work'
p5389
g23
F0.8724
tp5390
a(S'and'
p5391
g15
F0.9984
tp5392
a(g31
g6
F0.9872
tp5393
a(S'don'
p5394
g9
F0.9198
tp5395
a(g129
g79
F0.2595
tp5396
a(S'wanna'
p5397
g9
F0.973
tp5398
a(S'play'
p5399
g9
F0.9984
tp5400
a(S'by'
p5401
g49
F0.9965
tp5402
a(S'myself'
p5403
g6
F0.9881
tp5404
asI553
(lp5405
(S'daddy'
p5406
g23
F0.9816
tp5407
a(g31
g6
F0.8446
tp5408
a(g183
g9
F0.9749
tp5409
a(S'thirsty'
p5410
g195
F0.9902
tp5411
asI554
(lp5412
(S'daddy'
p5413
g23
F0.9816
tp5414
a(g31
g6
F0.8446
tp5415
a(g183
g9
F0.9749
tp5416
a(S'thirsty'
p5417
g195
F0.9902
tp5418
asI555
(lp5419
(S'xxx'
p5420
g41
F0.6946
tp5421
a(S'all'
p5422
g20
F0.9767
tp5423
a(S'day'
p5424
g23
F0.997
tp5425
asI556
(lp5426
(S'xxx'
p5427
g41
F0.4267
tp5428
a(S'you'
p5429
g6
F0.9982
tp5430
a(S'won'
p5431
g9
F0.9808
tp5432
a(g129
g49
F0.2229
tp5433
a(S'have'
p5434
g9
F0.9961
tp5435
a(S'to'
p5436
g49
F0.995
tp5437
a(S'work'
p5438
g23
F0.5312
tp5439
a(S'tomorrow'
p5440
g23
F0.9858
tp5441
a(S'xxx'
p5442
g41
F0.6971
tp5443
asI557
(lp5444
(S'daddy'
p5445
g23
F0.9816
tp5446
a(g31
g6
F0.8446
tp5447
a(g183
g9
F0.9749
tp5448
a(S'thirsty'
p5449
g195
F0.9902
tp5450
asI558
(lp5451
(g31
g6
F0.9896
tp5452
a(S'have'
p5453
g9
F0.9998
tp5454
a(S'to'
p5455
g49
F0.9901
tp5456
a(S'work'
p5457
g23
F0.6742
tp5458
a(S'tomorrow'
p5459
g23
F0.9825
tp5460
asI559
(lp5461
(S'maybe'
p5462
g3
F0.9725
tp5463
a(g31
g6
F0.9934
tp5464
a(S'won'
p5465
g9
F0.9888
tp5466
a(g129
g49
F0.2229
tp5467
a(S'have'
p5468
g9
F0.9961
tp5469
a(S'to'
p5470
g49
F0.995
tp5471
a(S'work'
p5472
g23
F0.5312
tp5473
a(S'tomorrow'
p5474
g23
F0.9858
tp5475
a(S'xxx'
p5476
g41
F0.6971
tp5477
asI560
(lp5478
(S'daddy'
p5479
g23
F0.9816
tp5480
a(g31
g6
F0.8446
tp5481
a(g183
g9
F0.9749
tp5482
a(S'thirsty'
p5483
g195
F0.9902
tp5484
asI561
(lp5485
(g31
g6
F0.9563
tp5486
a(S'xxx'
p5487
g41
F0.605
tp5488
asI562
(lp5489
(S'find'
p5490
g9
F0.9927
tp5491
a(S'out'
p5492
g190
F0.9696
tp5493
asI563
(lp5494
(S'daddy'
p5495
g23
F0.9816
tp5496
a(g31
g6
F0.8093
tp5497
a(g183
g9
F0.9563
tp5498
a(S'thirst'
p5499
g23
F0.8464
tp5500
a(S'y'
p5501
g3
F0.774
tp5502
asI564
(lp5503
(S'shrieks'
p5504
g9
F0.4692
tp5505
asI565
(lp5506
(S'hey'
p5507
g57
F0.9986
tp5508
asI566
(lp5509
(S'hi'
p5510
g57
F0.993
tp5511
asI567
(lp5512
(S'xxx'
p5513
g41
F0.7065
tp5514
a(S'doing'
p5515
g9
F0.9926
tp5516
asI568
(lp5517
(g31
g6
F0.9897
tp5518
a(S'want'
p5519
g9
F0.9996
tp5520
a(g31
g6
F0.9648
tp5521
a(g161
g20
F0.9524
tp5522
a(g2310
g23
F0.8142
tp5523
a(S'ready'
p5524
g195
F0.9247
tp5525
a(S'saw'
p5526
g9
F0.9501
tp5527
a(S'you'
p5528
g6
F0.9982
tp5529
asI569
(lp5530
(S'what'
p5531
g6
F0.949
tp5532
asI570
(lp5533
(S'laughs'
p5534
g9
F0.9102
tp5535
asI571
(lp5536
(g31
g6
F0.9069
tp5537
a(g161
g20
F0.9505
tp5538
a(g2310
g23
F0.8385
tp5539
a(S'ready'
p5540
g195
F0.9391
tp5541
a(S'saw'
p5542
g9
F0.979
tp5543
a(S'you'
p5544
g6
F0.9977
tp5545
asI572
(lp5546
(S'that'
p5547
g6
F0.4727
tp5548
a(g78
g9
F0.8206
tp5549
a(S'yours'
p5550
g6
F0.965
tp5551
asI573
(lp5552
(S'yes'
p5553
g57
F0.9958
tp5554
asI574
(lp5555
(S'yes'
p5556
g57
F0.9958
tp5557
asI575
(lp5558
(S'where'
p5559
g3
F0.9689
tp5560
a(g78
g79
F0.6193
tp5561
a(S'mommy'
p5562
g23
F0.7697
tp5563
asI576
(lp5564
(S'can'
p5565
g9
F0.9755
tp5566
a(g31
g6
F0.987
tp5567
a(S'have'
p5568
g9
F1.0
tp5569
a(S'it'
p5570
g6
F0.9917
tp5571
a(S'please'
p5572
g9
F0.9923
tp5573
a(S'chi'
p5574
g228
F0.5885
tp5575
asI577
(lp5576
(S'it'
p5577
g6
F0.9888
tp5578
a(g78
g9
F0.914
tp5579
a(S'it'
p5580
g6
F0.995
tp5581
a(g78
g9
F0.7965
tp5582
a(S'yours'
p5583
g6
F0.9618
tp5584
asI578
(lp5585
(S'you'
p5586
g6
F0.998
tp5587
a(S'bought'
p5588
g9
F0.9995
tp5589
a(g161
g20
F0.9966
tp5590
a(S'house'
p5591
g23
F0.9929
tp5592
asI579
(lp5593
(g31
g6
F0.9794
tp5594
a(S'ain'
p5595
g9
F0.9781
tp5596
a(g129
g9
F0.6028
tp5597
a(S'buyin'
p5598
g9
F0.7615
tp5599
a(g187
g9
F0.5092
tp5600
a(S'no'
p5601
g20
F0.8988
tp5602
a(S'house'
p5603
g23
F0.999
tp5604
asI580
(lp5605
(S'laughs'
p5606
g9
F0.9102
tp5607
asI581
(lp5608
(S'do'
p5609
g9
F0.9985
tp5610
a(S'you'
p5611
g6
F0.9997
tp5612
a(S'know'
p5613
g9
F0.9977
tp5614
a(S'xxx'
p5615
g41
F0.7929
tp5616
asI582
(lp5617
(S'xxx'
p5618
g41
F0.8437
tp5619
asI583
(lp5620
(S'it'
p5621
g6
F0.9888
tp5622
a(g78
g9
F0.7564
tp5623
a(S'mine'
p5624
g6
F0.9572
tp5625
a(S'and'
p5626
g15
F0.9962
tp5627
a(S'sis'
p5628
g23
F0.9082
tp5629
a(g78
g9
F0.5219
tp5630
a(S'it'
p5631
g6
F0.9937
tp5632
a(g78
g9
F0.7061
tp5633
a(S'mine'
p5634
g6
F0.9639
tp5635
asI584
(lp5636
(S'www'
p5637
g228
F0.3889
tp5638
asI585
(lp5639
(S'no'
p5640
g57
F0.6931
tp5641
a(S'this'
p5642
g6
F0.9334
tp5643
a(S'is'
p5644
g9
F0.9955
tp5645
a(S'mommy'
p5646
g23
F0.6044
tp5647
a(g78
g79
F0.8588
tp5648
asI586
(lp5649
(S'it'
p5650
g6
F0.9888
tp5651
a(g78
g9
F0.892
tp5652
a(S'yours'
p5653
g6
F0.9583
tp5654
a(S'and'
p5655
g15
F0.9971
tp5656
a(S'mine'
p5657
g6
F0.9453
tp5658
a(S'and'
p5659
g15
F0.9964
tp5660
a(S'sis'
p5661
g23
F0.9068
tp5662
a(g78
g79
F0.8917
tp5663
asI587
(lp5664
(S'no'
p5665
g57
F0.7608
tp5666
a(S'it'
p5667
g6
F0.9828
tp5668
a(g78
g9
F0.4463
tp5669
a(S'mommy'
p5670
g23
F0.7149
tp5671
a(g78
g79
F0.8588
tp5672
asI588
(lp5673
(S'it'
p5674
g6
F0.9888
tp5675
a(g78
g79
F0.6822
tp5676
a(S'xxx'
p5677
g41
F0.3047
tp5678
a(S'mommy'
p5679
g23
F0.7492
tp5680
asI589
(lp5681
(S'mommy'
p5682
g23
F0.7607
tp5683
a(g31
g6
F0.9545
tp5684
a(S'have'
p5685
g9
F0.9999
tp5686
a(S'this'
p5687
g20
F0.9753
tp5688
a(S'kind'
p5689
g23
F0.8893
tp5690
asI590
(lp5691
(S'xxx'
p5692
g41
F0.8437
tp5693
asI591
(lp5694
(g31
g6
F0.953
tp5695
a(g183
g9
F0.9706
tp5696
a(S'thirsty'
p5697
g195
F0.9866
tp5698
a(S'xxx'
p5699
g41
F0.6924
tp5700
asI592
(lp5701
(S'xxx'
p5702
g41
F0.7
tp5703
a(S'are'
p5704
g9
F0.9966
tp5705
a(S'you'
p5706
g6
F0.9994
tp5707
a(S'getting'
p5708
g9
F0.9993
tp5709
a(S'xxx'
p5710
g41
F0.7702
tp5711
asI593
(lp5712
(S'www'
p5713
g228
F0.3889
tp5714
asI594
(lp5715
(S'mommy'
p5716
g23
F0.602
tp5717
a(S'xxx'
p5718
g41
F0.6969
tp5719
asI595
(lp5720
(S'chi'
p5721
g228
F0.68
tp5722
a(S'don'
p5723
g228
F0.8317
tp5724
a(g129
g228
F0.5312
tp5725
a(S'touch'
p5726
g23
F0.5946
tp5727
asI596
(lp5728
(g31
g6
F0.9891
tp5729
a(S'won'
p5730
g9
F0.9846
tp5731
a(g129
g79
F0.4717
tp5732
asI597
(lp5733
(g31
g6
F0.9811
tp5734
a(S'just'
p5735
g3
F0.9992
tp5736
a(S'talk'
p5737
g9
F0.9886
tp5738
a(S'okay'
p5739
g57
F0.5697
tp5740
asI598
(lp5741
(S'xxx'
p5742
g41
F0.5609
tp5743
a(S'to'
p5744
g49
F0.9977
tp5745
a(S'your'
p5746
g20
F0.9789
tp5747
a(S'house'
p5748
g23
F0.9952
tp5749
a(S'huh'
p5750
g57
F0.959
tp5751
asI599
(lp5752
(S'test'
p5753
g23
F0.9765
tp5754
a(S'test'
p5755
g23
F0.9858
tp5756
a(S'test'
p5757
g23
F0.9895
tp5758
asI600
(lp5759
(S'www'
p5760
g228
F0.3889
tp5761
asI601
(lp5762
(S'www'
p5763
g228
F0.3889
tp5764
asI602
(lp5765
(S'xxx'
p5766
g41
F0.5609
tp5767
a(S'to'
p5768
g49
F0.9952
tp5769
a(S'try'
p5770
g9
F0.9988
tp5771
a(S'harder'
p5772
g195
F0.8553
tp5773
asI603
(lp5774
(S'test'
p5775
g23
F0.9602
tp5776
a(S'test'
p5777
g23
F0.9822
tp5778
a(S'test'
p5779
g23
F0.9898
tp5780
a(S'test'
p5781
g23
F0.9919
tp5782
a(S'test'
p5783
g23
F0.9736
tp5784
asI604
(lp5785
(S'wait'
p5786
g9
F0.9876
tp5787
a(S'that'
p5788
g6
F0.5682
tp5789
a(g78
g9
F0.4491
tp5790
a(S'not'
p5791
g3
F0.994
tp5792
a(S'xxx'
p5793
g9
F0.4701
tp5794
a(S'that'
p5795
g6
F0.5224
tp5796
a(g78
g79
F0.7171
tp5797
a(S'xxx'
p5798
g41
F0.5411
tp5799
asI605
(lp5800
(S'test'
p5801
g23
F0.9602
tp5802
a(S'test'
p5803
g23
F0.9858
tp5804
a(S'test'
p5805
g23
F0.9898
tp5806
a(S'test'
p5807
g23
F0.9917
tp5808
asI606
(lp5809
(S'xxx'
p5810
g41
F0.5986
tp5811
a(S'test'
p5812
g23
F0.9687
tp5813
a(S'test'
p5814
g23
F0.9895
tp5815
asI607
(lp5816
(S'www'
p5817
g228
F0.3889
tp5818
asI608
(lp5819
(S'test'
p5820
g23
F0.9725
tp5821
asI609
(lp5822
(S'don'
p5823
g228
F0.5427
tp5824
a(g129
g228
F0.478
tp5825
a(S'play'
p5826
g9
F0.9271
tp5827
a(S'with'
p5828
g49
F0.997
tp5829
a(S'that'
p5830
g6
F0.4859
tp5831
a(S'chi'
p5832
g228
F0.3196
tp5833
asI610
(lp5834
(g31
g6
F0.9891
tp5835
a(S'won'
p5836
g9
F0.9846
tp5837
a(g129
g79
F0.4717
tp5838
asI611
(lp5839
(g31
g6
F0.953
tp5840
a(g183
g9
F0.9784
tp5841
a(S'not'
p5842
g3
F0.9962
tp5843
a(g31
g6
F0.9573
tp5844
a(g183
g9
F0.9698
tp5845
a(S'just'
p5846
g3
F0.9995
tp5847
a(S'talkin'
p5848
g9
F0.9648
tp5849
a(g187
g79
F0.4974
tp5850
asI612
(lp5851
(S'test'
p5852
g23
F0.9602
tp5853
a(S'test'
p5854
g23
F0.9822
tp5855
a(S'test'
p5856
g23
F0.9855
tp5857
a(S'test'
p5858
g23
F0.983
tp5859
a(S'test'
p5860
g23
F0.9841
tp5861
a(S'test'
p5862
g23
F0.9841
tp5863
a(S'test'
p5864
g23
F0.9841
tp5865
a(S'test'
p5866
g23
F0.9841
tp5867
a(S'test'
p5868
g23
F0.9841
tp5869
a(S'test'
p5870
g23
F0.9841
tp5871
a(S'test'
p5872
g23
F0.9841
tp5873
a(S'test'
p5874
g23
F0.9841
tp5875
a(S'test'
p5876
g23
F0.9841
tp5877
a(S'test'
p5878
g23
F0.9841
tp5879
a(S'test'
p5880
g23
F0.9841
tp5881
a(S'test'
p5882
g23
F0.9841
tp5883
a(S'test'
p5884
g23
F0.9841
tp5885
a(S'test'
p5886
g23
F0.9841
tp5887
a(S'test'
p5888
g23
F0.9841
tp5889
a(S'test'
p5890
g23
F0.9841
tp5891
a(S'test'
p5892
g23
F0.9841
tp5893
a(S'test'
p5894
g23
F0.9878
tp5895
a(S'and'
p5896
g15
F0.9986
tp5897
a(S'test'
p5898
g23
F0.9569
tp5899
a(S'test'
p5900
g23
F0.9845
tp5901
a(S'test'
p5902
g23
F0.982
tp5903
asI613
(lp5904
(S'www'
p5905
g228
F0.3889
tp5906
asI614
(lp5907
(g1301
g834
F0.9843
tp5908
a(S'slurping'
p5909
g9
F0.6075
tp5910
a(S'sound'
p5911
g9
F0.5958
tp5912
asI615
(lp5913
(S'mommy'
p5914
g23
F0.5676
tp5915
a(S'mommy'
p5916
g23
F0.9469
tp5917
a(g31
g6
F0.882
tp5918
asI616
(lp5919
(S'mommy'
p5920
g23
F0.3577
tp5921
a(S'you'
p5922
g6
F0.9953
tp5923
a(S'wanna'
p5924
g9
F0.9981
tp5925
a(S'put'
p5926
g9
F0.9959
tp5927
a(S'this'
p5928
g6
F0.7499
tp5929
a(S'away'
p5930
g3
F0.9094
tp5931
asI617
(lp5932
(S'yep'
p5933
g57
F0.9855
tp5934
a(S'don'
p5935
g228
F0.42
tp5936
a(g129
g228
F0.631
tp5937
a(S'touch'
p5938
g9
F0.8907
tp5939
a(S'it'
p5940
g6
F0.992
tp5941
a(S'though'
p5942
g49
F0.7605
tp5943
asI618
(lp5944
(g31
g6
F0.9891
tp5945
a(S'won'
p5946
g9
F0.9846
tp5947
a(g129
g79
F0.4717
tp5948
asI619
(lp5949
(S'so'
p5950
g49
F0.5357
tp5951
a(S'if'
p5952
g49
F0.9725
tp5953
a(S'if'
p5954
g49
F0.9926
tp5955
a(S'we'
p5956
g6
F0.9987
tp5957
a(S'buy'
p5958
g9
F0.9992
tp5959
a(S'the'
p5960
g20
F0.9996
tp5961
a(S'house'
p5962
g23
F0.9809
tp5963
a(S'we'
p5964
g6
F0.9296
tp5965
a(S'we'
p5966
g6
F0.9703
tp5967
a(S'buy'
p5968
g9
F0.9996
tp5969
a(S'it'
p5970
g6
F0.993
tp5971
a(S'for'
p5972
g49
F0.9976
tp5973
a(S'ninety'
p5974
g834
F0.5489
tp5975
a(S'thousand'
p5976
g834
F0.5599
tp5977
asI620
(lp5978
(S'xxx'
p5979
g41
F0.8437
tp5980
asI621
(lp5981
(S'www'
p5982
g228
F0.3889
tp5983
asI622
(lp5984
(S'testing'
p5985
g9
F0.7014
tp5986
asI623
(lp5987
(S'okay'
p5988
g57
F0.9622
tp5989
a(g31
g6
F0.982
tp5990
a(S'xxx'
p5991
g9
F0.6414
tp5992
a(S'sis'
p5993
g23
F0.8471
tp5994
a(g78
g79
F0.7474
tp5995
a(S'sis'
p5996
g23
F0.7873
tp5997
a(g78
g79
F0.7213
tp5998
a(S'bad'
p5999
g195
F0.9778
tp6000
a(S'that'
p6001
g49
F0.8912
tp6002
a(g78
g79
F0.4461
tp6003
a(S'right'
p6004
g195
F0.7164
tp6005
a(S'sis'
p6006
g23
F0.9839
tp6007
a(S'can'
p6008
g9
F0.9917
tp6009
a(g129
g9
F0.7023
tp6010
a(S'get'
p6011
g9
F0.9994
tp6012
a(S'up'
p6013
g190
F0.9851
tp6014
asI624
(lp6015
(S'what'
p6016
g6
F0.949
tp6017
asI625
(lp6018
(g31
g6
F0.9854
tp6019
a(S'talking'
p6020
g9
F0.9981
tp6021
a(S'xxx'
p6022
g41
F0.6734
tp6023
asI626
(lp6024
(S'she'
p6025
g6
F0.9971
tp6026
a(S'said'
p6027
g9
F0.9923
tp6028
a(S'sis'
p6029
g23
F0.904
tp6030
a(g78
g79
F0.6906
tp6031
a(S'bad'
p6032
g195
F0.9778
tp6033
a(S'that'
p6034
g49
F0.8912
tp6035
a(g78
g79
F0.596
tp6036
a(S'why'
p6037
g3
F0.915
tp6038
a(S'she'
p6039
g6
F0.9984
tp6040
a(S'can'
p6041
g9
F0.9985
tp6042
a(g129
g9
F0.573
tp6043
a(S'get'
p6044
g9
F0.9995
tp6045
a(S'up'
p6046
g190
F0.9845
tp6047
asI627
(lp6048
(S'www'
p6049
g228
F0.3889
tp6050
asI628
(lp6051
(S'xxx'
p6052
g41
F0.5959
tp6053
a(S'test'
p6054
g23
F0.9625
tp6055
a(S'test'
p6056
g23
F0.9855
tp6057
a(S'test'
p6058
g23
F0.983
tp6059
a(S'test'
p6060
g23
F0.9841
tp6061
a(S'test'
p6062
g23
F0.9841
tp6063
a(S'test'
p6064
g23
F0.9841
tp6065
a(S'test'
p6066
g23
F0.9841
tp6067
a(S'test'
p6068
g23
F0.9841
tp6069
a(S'test'
p6070
g23
F0.9841
tp6071
a(S'test'
p6072
g23
F0.9841
tp6073
a(S'test'
p6074
g23
F0.9859
tp6075
a(S'test'
p6076
g23
F0.9865
tp6077
a(S'xxx'
p6078
g41
F0.8348
tp6079
asI629
(lp6080
(S'www'
p6081
g228
F0.3889
tp6082
asI630
(lp6083
(S'uhoh'
p6084
g57
F0.9588
tp6085
a(S'sis'
p6086
g23
F0.832
tp6087
a(g78
g79
F0.6897
tp6088
a(S'awake'
p6089
g195
F0.9827
tp6090
asI631
(lp6091
(S'xxx'
p6092
g41
F0.8437
tp6093
asI632
(lp6094
(S'alright'
p6095
g57
F0.8235
tp6096
a(S'go'
p6097
g9
F0.9497
tp6098
a(S'play'
p6099
g9
F0.8535
tp6100
a(S'xxx'
p6101
g41
F0.7339
tp6102
asI633
(lp6103
(S'alright'
p6104
g57
F0.9767
tp6105
a(S'thanks'
p6106
g23
F0.7781
tp6107
asI634
(lp6108
(S'www'
p6109
g228
F0.3889
tp6110
asI635
(lp6111
(S'www'
p6112
g228
F0.3889
tp6113
asI636
(lp6114
(S'www'
p6115
g228
F0.3889
tp6116
asI637
(lp6117
(S'sis'
p6118
g23
F0.9639
tp6119
a(S'get'
p6120
g9
F0.9866
tp6121
a(S'xxx'
p6122
g41
F0.5988
tp6123
asI638
(lp6124
(S'www'
p6125
g228
F0.3889
tp6126
asI639
(lp6127
(S'sis'
p6128
g23
F0.9384
tp6129
a(S'get'
p6130
g9
F0.9963
tp6131
a(S'back'
p6132
g23
F0.3065
tp6133
a(S'xxx'
p6134
g41
F0.6016
tp6135
asI640
(lp6136
(S'www'
p6137
g228
F0.3889
tp6138
asI641
(lp6139
(S'www'
p6140
g228
F0.3889
tp6141
asI642
(lp6142
(S'xxx'
p6143
g41
F0.8437
tp6144
asI643
(lp6145
(S'www'
p6146
g228
F0.3889
tp6147
asI644
(lp6148
(S'sis'
p6149
g23
F0.8652
tp6150
asI645
(lp6151
(S'www'
p6152
g228
F0.3889
tp6153
asI646
(lp6154
(S'mommy'
p6155
g23
F0.4898
tp6156
a(S'xxx'
p6157
g41
F0.3579
tp6158
a(S'have'
p6159
g9
F0.9928
tp6160
a(S'more'
p6161
g195
F0.916
tp6162
a(S'soda'
p6163
g23
F0.9927
tp6164
asI647
(lp6165
(S'www'
p6166
g228
F0.3889
tp6167
asI648
(lp6168
(S'www'
p6169
g228
F0.3889
tp6170
asI649
(lp6171
(S'whining'
p6172
g9
F0.9836
tp6173
asI650
(lp6174
(S'xxx'
p6175
g41
F0.8437
tp6176
asI651
(lp6177
(S'www'
p6178
g228
F0.3889
tp6179
asI652
(lp6180
(S'xxx'
p6181
g41
F0.8437
tp6182
asI653
(lp6183
(S'what'
p6184
g6
F0.949
tp6185
asI654
(lp6186
(S'superman'
p6187
g228
F0.9839
tp6188
a(g78
g79
F0.5153
tp6189
a(S'in'
p6190
g49
F0.9607
tp6191
a(S'there'
p6192
g3
F0.4467
tp6193
a(S'sis'
p6194
g23
F0.7862
tp6195
asI655
(lp6196
(S'www'
p6197
g228
F0.3889
tp6198
asI656
(lp6199
(S'xxx'
p6200
g41
F0.8437
tp6201
asI657
(lp6202
(S'superman'
p6203
g228
F0.8996
tp6204
asI658
(lp6205
(S'it'
p6206
g6
F0.9888
tp6207
a(g78
g79
F0.5633
tp6208
a(S'superman'
p6209
g228
F0.9344
tp6210
a(S'sis'
p6211
g23
F0.7897
tp6212
a(S'you'
p6213
g6
F0.9945
tp6214
a(S'see'
p6215
g9
F0.9951
tp6216
a(S'superman'
p6217
g228
F0.9515
tp6218
asI659
(lp6219
(S'xxx'
p6220
g41
F0.724
tp6221
a(S'hurry'
p6222
g9
F0.962
tp6223
a(S'up'
p6224
g190
F0.9937
tp6225
asI660
(lp6226
(S'xxx'
p6227
g41
F0.8437
tp6228
asI661
(lp6229
(S'www'
p6230
g228
F0.3889
tp6231
asI662
(lp6232
(S'www'
p6233
g228
F0.3889
tp6234
asI663
(lp6235
(S'www'
p6236
g228
F0.3889
tp6237
asI664
(lp6238
(g31
g6
F0.9855
tp6239
a(S'see'
p6240
g9
F0.9979
tp6241
a(S'big'
p6242
g195
F0.9794
tp6243
a(S'bird'
p6244
g23
F0.9959
tp6245
asI665
(lp6246
(S'xxx'
p6247
g41
F0.8437
tp6248
asI666
(lp6249
(S'www'
p6250
g228
F0.3889
tp6251
asI667
(lp6252
(S'www'
p6253
g228
F0.3889
tp6254
asI668
(lp6255
(S'xxx'
p6256
g41
F0.8437
tp6257
asI669
(lp6258
(S'www'
p6259
g228
F0.3889
tp6260
asI670
(lp6261
(S'www'
p6262
g228
F0.3889
tp6263
asI671
(lp6264
(S'mommy'
p6265
g23
F0.7607
tp6266
a(g31
g6
F0.8664
tp6267
a(S'xxx'
p6268
g9
F0.9736
tp6269
a(S'him'
p6270
g6
F0.985
tp6271
asI672
(lp6272
(g31
g6
F0.9896
tp6273
a(S'saw'
p6274
g9
F0.9988
tp6275
a(S'superman'
p6276
g228
F0.9734
tp6277
asI673
(lp6278
(S'sis'
p6279
g23
F0.937
tp6280
a(g31
g6
F0.9681
tp6281
a(S'saw'
p6282
g9
F0.9991
tp6283
a(S'superman'
p6284
g228
F0.9764
tp6285
asI674
(lp6286
(S'whines'
p6287
g9
F0.5694
tp6288
asI675
(lp6289
(S'sis'
p6290
g23
F0.9384
tp6291
a(S'get'
p6292
g9
F0.9993
tp6293
a(S'up'
p6294
g190
F0.9775
tp6295
a(S'xxx'
p6296
g41
F0.7725
tp6297
asI676
(lp6298
(S'www'
p6299
g228
F0.3889
tp6300
asI677
(lp6301
(S'www'
p6302
g228
F0.3889
tp6303
asI678
(lp6304
(S'you'
p6305
g6
F0.995
tp6306
a(S'see'
p6307
g9
F0.9998
tp6308
a(S'him'
p6309
g6
F0.9331
tp6310
asI679
(lp6311
(S'superman'
p6312
g228
F0.8996
tp6313
asI680
(lp6314
(S'it'
p6315
g6
F0.9858
tp6316
a(g78
g79
F0.5763
tp6317
a(S'superman'
p6318
g228
F0.8902
tp6319
asI681
(lp6320
(S'superman'
p6321
g228
F0.8996
tp6322
asI682
(lp6323
(S'xxx'
p6324
g41
F0.4267
tp6325
a(S'you'
p6326
g6
F0.9817
tp6327
a(S'bad'
p6328
g195
F0.9973
tp6329
a(S'girl'
p6330
g23
F0.9964
tp6331
asI683
(lp6332
(S'yeah'
p6333
g57
F0.9988
tp6334
asI684
(lp6335
(S'yeah'
p6336
g57
F0.9945
tp6337
a(S'laughs'
p6338
g9
F0.9273
tp6339
asI685
(lp6340
(S'yeah'
p6341
g57
F0.9988
tp6342
asI686
(lp6343
(S'xxx'
p6344
g41
F0.8437
tp6345
asI687
(lp6346
(S'xxx'
p6347
g41
F0.8437
tp6348
asI688
(lp6349
(S'you'
p6350
g6
F0.9968
tp6351
a(S'wanna'
p6352
g9
F0.9982
tp6353
a(S'see'
p6354
g9
F0.9943
tp6355
a(S'superman'
p6356
g228
F0.9408
tp6357
asI689
(lp6358
(S'xxx'
p6359
g41
F0.8437
tp6360
asI690
(lp6361
(S'where'
p6362
g3
F0.9493
tp6363
asI691
(lp6364
(S'xxx'
p6365
g41
F0.8437
tp6366
asI692
(lp6367
(S'xxx'
p6368
g41
F0.6712
tp6369
a(S'see'
p6370
g9
F0.928
tp6371
asI693
(lp6372
(S'let'
p6373
g9
F0.9968
tp6374
a(S'me'
p6375
g6
F0.9996
tp6376
a(S'see'
p6377
g9
F0.969
tp6378
asI694
(lp6379
(S'xxx'
p6380
g41
F0.7144
tp6381
a(S'superman'
p6382
g228
F0.8781
tp6383
a(S'who'
p6384
g6
F0.9884
tp6385
a(S'look'
p6386
g9
F0.9973
tp6387
a(S'like'
p6388
g49
F0.876
tp6389
a(S'uh'
p6390
g57
F0.5076
tp6391
a(S'mickey'
p6392
g228
F0.9849
tp6393
a(S'mouse'
p6394
g23
F0.8624
tp6395
asI695
(lp6396
(S'okay'
p6397
g57
F0.8974
tp6398
a(S'let'
p6399
g9
F0.9963
tp6400
a(S'me'
p6401
g6
F0.9994
tp6402
a(S'let'
p6403
g9
F0.9987
tp6404
a(S'me'
p6405
g6
F0.9995
tp6406
a(S'let'
p6407
g9
F0.9986
tp6408
a(S'me'
p6409
g6
F0.9992
tp6410
asI696
(lp6411
(S'humming'
p6412
g9
F0.9303
tp6413
asI697
(lp6414
(S'see'
p6415
g9
F0.8335
tp6416
asI698
(lp6417
(S'ah'
p6418
g57
F0.9532
tp6419
a(S'let'
p6420
g9
F0.9978
tp6421
a(S'me'
p6422
g6
F0.9996
tp6423
a(S'find'
p6424
g9
F0.9675
tp6425
a(S'superman'
p6426
g228
F0.924
tp6427
asI699
(lp6428
(S'ah'
p6429
g57
F0.996
tp6430
asI700
(lp6431
(S'you'
p6432
g6
F0.995
tp6433
a(S'see'
p6434
g9
F0.9931
tp6435
a(S'superman'
p6436
g228
F0.9345
tp6437
asI701
(lp6438
(S'oh'
p6439
g57
F0.9954
tp6440
a(S'big'
p6441
g195
F0.9847
tp6442
a(S'bird'
p6443
g23
F0.9967
tp6444
asI702
(lp6445
(S'let'
p6446
g9
F0.9975
tp6447
a(S'me'
p6448
g6
F0.9996
tp6449
a(S'find'
p6450
g9
F0.9856
tp6451
a(S'superman'
p6452
g228
F0.9064
tp6453
asI703
(lp6454
(S'wait'
p6455
g9
F0.9862
tp6456
a(S'wait'
p6457
g9
F0.9368
tp6458
asI704
(lp6459
(S'xxx'
p6460
g41
F0.6645
tp6461
a(S'milk'
p6462
g23
F0.9863
tp6463
asI705
(lp6464
(S'you'
p6465
g6
F0.995
tp6466
a(S'see'
p6467
g9
F0.9931
tp6468
a(S'superman'
p6469
g228
F0.9345
tp6470
asI706
(lp6471
(S'mommy'
p6472
g23
F0.5271
tp6473
asI707
(lp6474
(S'not'
p6475
g3
F0.9977
tp6476
a(S'yet'
p6477
g3
F0.9748
tp6478
a(S'xxx'
p6479
g41
F0.3597
tp6480
a(S'here'
p6481
g3
F0.9303
tp6482
asI708
(lp6483
(S'momma'
p6484
g57
F0.4579
tp6485
asI709
(lp6486
(S'xxx'
p6487
g41
F0.8437
tp6488
asI710
(lp6489
(S'alright'
p6490
g57
F0.9864
tp6491
asI711
(lp6492
(S'yep'
p6493
g57
F0.9874
tp6494
a(S'xxx'
p6495
g41
F0.5538
tp6496
a(g161
g20
F0.8537
tp6497
a(S'xxx'
p6498
g41
F0.4385
tp6499
asI712
(lp6500
(S'laughs'
p6501
g9
F0.9102
tp6502
asI713
(lp6503
(S'okay'
p6504
g57
F0.9251
tp6505
a(S'xxx'
p6506
g41
F0.6927
tp6507
a(g31
g6
F0.9703
tp6508
a(S'll'
p6509
g9
F0.6704
tp6510
a(S'be'
p6511
g9
F0.9982
tp6512
a(S'back'
p6513
g3
F0.8683
tp6514
asI714
(lp6515
(S'okay'
p6516
g57
F0.9857
tp6517
asI715
(lp6518
(S'okay'
p6519
g57
F0.9857
tp6520
asI716
(lp6521
(S'mommy'
p6522
g23
F0.7607
tp6523
a(g31
g6
F0.9555
tp6524
a(S'want'
p6525
g9
F0.9998
tp6526
a(S'more'
p6527
g3
F0.5667
tp6528
a(g31
g6
F0.984
tp6529
a(S'want'
p6530
g9
F0.9998
tp6531
a(S'more'
p6532
g195
F0.919
tp6533
a(S'soda'
p6534
g23
F0.9938
tp6535
asI717
(lp6536
(S'what'
p6537
g6
F0.9931
tp6538
a(S'do'
p6539
g9
F0.9991
tp6540
a(S'you'
p6541
g6
F0.9997
tp6542
a(S'say'
p6543
g9
F0.9924
tp6544
asI718
(lp6545
(S'may'
p6546
g9
F0.5705
tp6547
a(g31
g6
F0.9823
tp6548
a(S'what'
p6549
g6
F0.985
tp6550
asI719
(lp6551
(S'may'
p6552
g9
F0.6073
tp6553
a(g31
g6
F0.987
tp6554
a(S'get'
p6555
g9
F1.0
tp6556
a(S'some'
p6557
g20
F0.9479
tp6558
a(S'more'
p6559
g195
F0.9789
tp6560
a(S'soda'
p6561
g23
F0.9936
tp6562
a(S'please'
p6563
g9
F0.9475
tp6564
asI720
(lp6565
(S'okay'
p6566
g57
F0.9857
tp6567
asI721
(lp6568
(S'um'
p6569
g57
F0.9682
tp6570
a(S'um'
p6571
g57
F0.9148
tp6572
a(S'mommy'
p6573
g23
F0.7054
tp6574
asI722
(lp6575
(S'what'
p6576
g6
F0.9931
tp6577
a(S'do'
p6578
g9
F0.9993
tp6579
a(S'you'
p6580
g6
F0.9997
tp6581
a(S'say'
p6582
g9
F0.9915
tp6583
a(S'sis'
p6584
g23
F0.8402
tp6585
asI723
(lp6586
(S'please'
p6587
g9
F0.8246
tp6588
asI724
(lp6589
(S'xxx'
p6590
g41
F0.8437
tp6591
asI725
(lp6592
(S'xxx'
p6593
g41
F0.8437
tp6594
asI726
(lp6595
(S'xxx'
p6596
g41
F0.8402
tp6597
a(S'what'
p6598
g6
F0.9929
tp6599
a(S'was'
p6600
g9
F0.9994
tp6601
a(S'you'
p6602
g6
F0.9969
tp6603
a(S'talkin'
p6604
g9
F0.9939
tp6605
a(g187
g9
F0.4115
tp6606
a(S'about'
p6607
g49
F0.911
tp6608
asI727
(lp6609
(S'what'
p6610
g6
F0.949
tp6611
asI728
(lp6612
(S'ow'
p6613
g57
F0.9487
tp6614
a(S'ow'
p6615
g57
F0.9718
tp6616
a(S'ow'
p6617
g57
F0.9661
tp6618
asI729
(lp6619
(S'he'
p6620
g6
F0.9928
tp6621
a(S'doesn'
p6622
g9
F0.9962
tp6623
a(g129
g23
F0.2827
tp6624
a(S'want'
p6625
g9
F0.9959
tp6626
a(S'to'
p6627
g49
F0.9932
tp6628
a(S'speak'
p6629
g9
F0.9948
tp6630
a(S'xxx'
p6631
g41
F0.7717
tp6632
asI730
(lp6633
(S'xxx'
p6634
g41
F0.8437
tp6635
asI731
(lp6636
(S'xxx'
p6637
g41
F0.8437
tp6638
asI732
(lp6639
(S'singing'
p6640
g9
F0.9945
tp6641
asI733
(lp6642
(S'xxx'
p6643
g41
F0.8437
tp6644
asI734
(lp6645
(S'xxx'
p6646
g41
F0.6498
tp6647
a(S'say'
p6648
g9
F0.9696
tp6649
a(S'let'
p6650
g9
F0.9979
tp6651
a(S'me'
p6652
g6
F0.9994
tp6653
a(S'see'
p6654
g9
F0.9928
tp6655
a(S'something'
p6656
g23
F0.994
tp6657
asI735
(lp6658
(g31
g6
F0.9892
tp6659
a(S'got'
p6660
g9
F0.9996
tp6661
a(S'more'
p6662
g195
F0.9812
tp6663
a(S'pictures'
p6664
g23
F0.997
tp6665
a(S'huh'
p6666
g57
F0.9424
tp6667
asI736
(lp6668
(S'my'
p6669
g20
F0.997
tp6670
a(S'picture'
p6671
g23
F0.9948
tp6672
a(g78
g79
F0.6917
tp6673
a(S'broken'
p6674
g9
F0.6656
tp6675
asI737
(lp6676
(S'xxx'
p6677
g41
F0.5416
tp6678
a(S'broken'
p6679
g9
F0.7028
tp6680
asI738
(lp6681
(S'you'
p6682
g6
F0.9969
tp6683
a(S'can'
p6684
g9
F0.9994
tp6685
a(g129
g9
F0.5359
tp6686
a(S'xxx'
p6687
g41
F0.611
tp6688
a(S'just'
p6689
g3
F0.9998
tp6690
a(S'like'
p6691
g49
F0.6672
tp6692
a(S'that'
p6693
g6
F0.8974
tp6694
asI739
(lp6695
(S'momma'
p6696
g23
F0.413
tp6697
a(S'mommy'
p6698
g23
F0.6835
tp6699
a(S'the'
p6700
g20
F0.9985
tp6701
a(S'mother'
p6702
g23
F0.9783
tp6703
a(S'big'
p6704
g195
F0.9527
tp6705
a(S'bird'
p6706
g23
F0.9954
tp6707
a(S'is'
p6708
g9
F0.9964
tp6709
a(S'broken'
p6710
g195
F0.6395
tp6711
asI740
(lp6712
(S'xxx'
p6713
g41
F0.8437
tp6714
asI741
(lp6715
(S'xxx'
p6716
g41
F0.8437
tp6717
asI742
(lp6718
(S'pick'
p6719
g9
F0.9949
tp6720
a(S'it'
p6721
g6
F0.9928
tp6722
a(S'up'
p6723
g190
F0.9648
tp6724
a(S'and'
p6725
g15
F0.9967
tp6726
a(S'put'
p6727
g9
F0.9962
tp6728
a(S'it'
p6729
g6
F0.9831
tp6730
a(S'in'
p6731
g49
F0.9839
tp6732
a(S'the'
p6733
g20
F0.9992
tp6734
a(S'trash'
p6735
g23
F0.9975
tp6736
asI743
(lp6737
(S'me'
p6738
g6
F0.9892
tp6739
a(S'gosh'
p6740
g57
F0.9967
tp6741
asI744
(lp6742
(S'my'
p6743
g20
F0.9049
tp6744
a(S'gosh'
p6745
g57
F0.8887
tp6746
asI745
(lp6747
(S'who'
p6748
g6
F0.9956
tp6749
a(S'broke'
p6750
g9
F0.9639
tp6751
a(S'it'
p6752
g6
F0.9745
tp6753
asI746
(lp6754
(S'me'
p6755
g6
F0.9918
tp6756
asI747
(lp6757
(S'broke'
p6758
g9
F0.818
tp6759
a(S'it'
p6760
g6
F0.9821
tp6761
a(S'xxx'
p6762
g9
F0.8428
tp6763
a(S'you'
p6764
g6
F0.9992
tp6765
a(S'gotta'
p6766
g9
F0.9996
tp6767
a(S'put'
p6768
g9
F0.9986
tp6769
a(S'it'
p6770
g6
F0.9831
tp6771
a(S'in'
p6772
g49
F0.977
tp6773
a(S'the'
p6774
g20
F0.9994
tp6775
a(S'trash'
p6776
g23
F0.9879
tp6777
a(S'compactor'
p6778
g23
F0.9638
tp6779
asI748
(lp6780
(S'put'
p6781
g9
F0.9661
tp6782
a(S'that'
p6783
g20
F0.8716
tp6784
a(S'little'
p6785
g195
F0.9898
tp6786
a(S'piece'
p6787
g23
F0.9958
tp6788
a(S'in'
p6789
g49
F0.9984
tp6790
a(S'the'
p6791
g20
F0.9991
tp6792
a(S'trash'
p6793
g23
F0.9953
tp6794
as.