(dp0
I0
(lp1
(S'why'
p2
S'R'
p3
F0.9375
tp4
a(S'don'
p5
S'N'
p6
F0.2525
tp7
a(S't'
p8
S'V'
p9
F0.5898
tp10
a(S'you'
p11
S'O'
p12
F0.999
tp13
a(S'climb'
p14
g9
F0.9995
tp15
a(S'up'
p16
S'T'
p17
F0.9778
tp18
a(S'on'
p19
S'P'
p20
F0.9966
tp21
a(S'the'
p22
S'D'
p23
F0.9994
tp24
a(S'chair'
p25
g6
F0.9934
tp26
a(S'and'
p27
S'&'
p28
F0.9988
tp29
a(S'i'
p30
g12
F0.9896
tp31
a(S'll'
p32
g9
F0.6615
tp33
a(S'get'
p34
g9
F0.9998
tp35
a(S'your'
p36
g23
F0.9939
tp37
a(S'potatoes'
p38
g6
F0.999
tp39
a(S'for'
p40
g20
F0.9999
tp41
a(S'you'
p42
g12
F0.999
tp43
asI1
(lp44
(S'okay'
p45
S'!'
p46
F0.9857
tp47
asI2
(lp48
(S'is'
p49
g9
F0.9935
tp50
a(S'enough'
p51
S'A'
p52
F0.7253
tp53
asI3
(lp54
(S'can'
p55
g9
F0.9755
tp56
a(g30
g12
F0.987
tp57
a(S'have'
p58
g9
F0.9999
tp59
a(S'some'
p60
g23
F0.995
tp61
a(S'lamb'
p62
g6
F0.9872
tp63
a(S'chop'
p64
g6
F0.6178
tp65
asI4
(lp66
(S'what'
p67
g12
F0.9898
tp68
a(S'would'
p69
g9
F0.9996
tp70
a(S'you'
p71
g12
F0.9958
tp72
a(S'like'
p73
g9
F0.6164
tp74
asI5
(lp75
(S'lamb'
p76
g6
F0.943
tp77
asI6
(lp78
(S'lamb'
p79
g6
F0.9635
tp80
a(S'chop'
p81
g6
F0.6377
tp82
asI7
(lp83
(S'yes'
p84
g46
F0.9958
tp85
asI8
(lp86
(S'let'
p87
g9
F0.9975
tp88
a(S'me'
p89
g12
F0.9996
tp90
a(S'just'
p91
g3
F0.9998
tp92
a(S'get'
p93
g9
F0.9997
tp94
a(S'you'
p95
g12
F0.9909
tp96
a(S'potatoes'
p97
g6
F0.9398
tp98
asI9
(lp99
(g30
g12
F0.9756
tp100
a(S'didn'
p101
g9
F0.9919
tp102
a(g8
g9
F0.7501
tp103
a(S'have'
p104
g9
F0.9974
tp105
a(S'no'
p106
g23
F0.9795
tp107
a(S'lamb'
p108
g6
F0.9997
tp109
a(S'chop'
p110
g6
F0.6405
tp111
asI10
(lp112
(S'not'
p113
g3
F0.9972
tp114
a(S'yet'
p115
g3
F0.9416
tp116
a(S'no'
p117
g46
F0.4659
tp118
asI11
(lp119
(g30
g12
F0.9635
tp120
a(S'don'
p121
g9
F0.9231
tp122
a(g8
g6
F0.2457
tp123
a(S'know'
p124
g9
F0.9915
tp125
a(S'what'
p126
g12
F0.9847
tp127
a(S'they'
p128
g12
F0.9969
tp129
a(S'do'
p130
g9
F0.9994
tp131
asI12
(lp132
(S'and'
p133
g28
F0.9986
tp134
a(S'look'
p135
g9
F0.9976
tp136
a(S'it'
p137
g12
F0.994
tp138
a(S'what'
p139
g12
F0.9541
tp140
a(S'else'
p141
g3
F0.8733
tp142
a(S'we'
p143
g12
F0.9982
tp144
a(S'have'
p145
g9
F0.9982
tp146
asI13
(lp147
(S'your'
p148
g23
F0.965
tp149
a(S'favorite'
p150
g52
F0.7985
tp151
asI14
(lp152
(S'we'
p153
g12
F0.9849
tp154
a(S're'
p155
g9
F0.6122
tp156
a(S'having'
p157
g9
F0.9966
tp158
a(S'potatoes'
p159
g6
F0.997
tp160
asI15
(lp161
(S'yeah'
p162
g46
F0.9988
tp163
asI16
(lp164
(S'mashed'
p165
g52
F0.6568
tp166
a(S'potatoes'
p167
g6
F0.9994
tp168
asI17
(lp169
(S'we'
p170
g12
F0.9986
tp171
a(S'did'
p172
g9
F0.9993
tp173
a(S'have'
p174
g9
F0.9864
tp175
a(S'mashed'
p176
g52
F0.7869
tp177
a(S'potatoes'
p178
g6
F0.9991
tp179
asI18
(lp180
(S'mashed'
p181
g52
F0.6568
tp182
a(S'potatoes'
p183
g6
F0.9994
tp184
asI19
(lp185
(S'are'
p186
g9
F0.9964
tp187
a(S'you'
p188
g12
F0.9994
tp189
a(S'gonna'
p190
g9
F0.9995
tp191
a(S'try'
p192
g9
F0.9985
tp193
a(S'to'
p194
g20
F0.9935
tp195
a(S'eat'
p196
g9
F0.9996
tp197
a(S'your'
p198
g23
F0.9937
tp199
a(S'corn'
p200
g6
F0.9997
tp201
a(S'off'
p202
g20
F0.9641
tp203
a(S'the'
p204
g23
F0.9996
tp205
a(S'cob'
p206
g6
F0.8644
tp207
a(S'tonight'
p208
g6
F0.7668
tp209
asI20
(lp210
(S'yeah'
p211
g46
F0.9988
tp212
asI21
(lp213
(S'or'
p214
g28
F0.9924
tp215
a(S'you'
p216
g12
F0.9992
tp217
a(S'gonna'
p218
g9
F0.9995
tp219
a(S'just'
p220
g3
F0.9993
tp221
a(S'have'
p222
g9
F0.9997
tp223
a(S'it'
p224
g12
F0.9918
tp225
a(S'cut'
p226
g9
F0.9556
tp227
a(S'off'
p228
g17
F0.8022
tp229
asI22
(lp230
(g30
g12
F0.953
tp231
a(S'm'
p232
g9
F0.9629
tp233
a(S'gonna'
p234
g9
F0.9931
tp235
a(S'have'
p236
g9
F0.9999
tp237
a(S'it'
p238
g12
F0.9915
tp239
a(S'cut'
p240
g9
F0.9605
tp241
a(S'off'
p242
g17
F0.7893
tp243
asI23
(lp244
(S'okay'
p245
g46
F0.9857
tp246
asI24
(lp247
(S'you'
p248
g12
F0.9968
tp249
a(S'might'
p250
g9
F0.9982
tp251
a(S'wanna'
p252
g9
F0.9975
tp253
a(S'try'
p254
g9
F0.9997
tp255
a(S'it'
p256
g12
F0.986
tp257
a(S'on'
p258
g20
F0.9785
tp259
a(S'the'
p260
g23
F0.9991
tp261
a(S'cob'
p262
g6
F0.6334
tp263
asI25
(lp264
(g30
g12
F0.9908
tp265
a(S'know'
p266
g9
F1.0
tp267
a(S'it'
p268
g12
F0.9924
tp269
a(S's'
p270
g9
F0.5421
tp271
a(S'hard'
p272
g52
F0.7936
tp273
a(S'without'
p274
g20
F0.9994
tp275
a(S'your'
p276
g23
F0.9747
tp277
a(S'front'
p278
g6
F0.8811
tp279
a(S'teeth'
p280
g6
F0.9958
tp281
a(S'but'
p282
g28
F0.9502
tp283
a(S'you'
p284
g12
F0.9995
tp285
a(S'can'
p286
g9
F0.9998
tp287
a(S'give'
p288
g9
F0.9999
tp289
a(S'it'
p290
g12
F0.9553
tp291
a(S'a'
p292
g23
F0.9645
tp293
a(S'try'
p294
g6
F0.7882
tp295
a(S'if'
p296
g20
F0.9995
tp297
a(S'you'
p298
g12
F0.9994
tp299
a(S'like'
p300
g9
F0.7267
tp301
asI26
(lp302
(S'ma'
p303
S'G'
p304
F0.4028
tp305
a(S'you'
p306
g12
F0.9945
tp307
a(S'like'
p308
g9
F0.8805
tp309
a(S'that'
p310
g23
F0.6081
tp311
a(S'tea'
p312
g6
F0.9512
tp313
a(S'you'
p314
g12
F0.9959
tp315
a(S'have'
p316
g9
F0.9997
tp317
a(S'over'
p318
g20
F0.901
tp319
a(S'there'
p320
g3
F0.8633
tp321
a(S'on'
p322
g20
F0.9981
tp323
a(S'the'
p324
g23
F0.9993
tp325
a(S'table'
p326
g6
F0.9947
tp327
asI27
(lp328
(S'alright'
p329
g46
F0.9864
tp330
asI28
(lp331
(g30
g12
F0.9793
tp332
a(S'll'
p333
g9
F0.8106
tp334
a(S'cut'
p335
g9
F0.9595
tp336
a(S'it'
p337
g12
F0.9911
tp338
a(S'off'
p339
g17
F0.9141
tp340
asI29
(lp341
(S'where'
p342
g3
F0.9711
tp343
a(g270
g304
F0.7123
tp344
a(S'my'
p345
g23
F0.9949
tp346
a(S'fork'
p347
g6
F0.9985
tp348
asI30
(lp349
(S'where'
p350
g3
F0.9689
tp351
a(g270
g304
F0.7123
tp352
a(S'my'
p353
g23
F0.8551
tp354
asI31
(lp355
(S'you'
p356
g12
F0.998
tp357
a(S'have'
p358
g9
F0.9997
tp359
a(g292
g23
F0.9977
tp360
a(S'fork'
p361
g6
F0.9978
tp362
asI32
(lp363
(g30
g12
F0.9635
tp364
a(S'don'
p365
g9
F0.9231
tp366
a(g8
g6
F0.2503
tp367
a(S'want'
p368
g9
F0.9977
tp369
a(g292
g23
F0.9985
tp370
a(S'fork'
p371
g6
F0.9968
tp372
asI33
(lp373
(S'that'
p374
g12
F0.473
tp375
a(g270
g304
F0.6317
tp376
a(S'okay'
p377
g46
F0.5696
tp378
a(S'would'
p379
g9
F0.998
tp380
a(S'you'
p381
g12
F0.995
tp382
a(S'like'
p383
g9
F0.6652
tp384
a(g292
g23
F0.9967
tp385
a(S'spoon'
p386
g6
F0.994
tp387
asI34
(lp388
(S'there'
p389
g3
F0.5244
tp390
a(S'you'
p391
g12
F0.9982
tp392
a(S'go'
p393
g9
F0.9953
tp394
asI35
(lp395
(S'thank'
p396
g9
F0.9631
tp397
a(S'you'
p398
g12
F0.9987
tp399
asI36
(lp400
(S'now'
p401
g3
F0.9817
tp402
a(S'xxx'
p403
S'E'
p404
F0.7803
tp405
asI37
(lp406
(S'that'
p407
g12
F0.4727
tp408
a(g270
g304
F0.6799
tp409
asI38
(lp410
(S'wait'
p411
g9
F0.9796
tp412
a(S'um'
p413
g46
F0.8173
tp414
a(S'it'
p415
g12
F0.9936
tp416
a(g270
g9
F0.5582
tp417
a(S'much'
p418
g3
F0.5974
tp419
a(S'easier'
p420
g52
F0.9828
tp421
a(S'to'
p422
g20
F0.9993
tp423
a(S'eat'
p424
g9
F0.9928
tp425
a(S'lamb'
p426
g6
F0.9731
tp427
a(S'chops'
p428
g6
F0.9945
tp429
a(S'with'
p430
g20
F0.9996
tp431
a(g292
g23
F0.9986
tp432
a(S'fork'
p433
g6
F0.997
tp434
asI39
(lp435
(g30
g12
F0.953
tp436
a(g232
g9
F0.9629
tp437
a(S'gonna'
p438
g9
F0.9923
tp439
a(S'say'
p440
g9
F0.9912
tp441
a(S'hi'
p442
g46
F0.9843
tp443
asI40
(lp444
(S'hi'
p445
g46
F0.9526
tp446
a(S'mom'
p447
g6
F0.7424
tp448
asI41
(lp449
(S'supper'
p450
g6
F0.8413
tp451
a(g270
g304
F0.5921
tp452
a(S'all'
p453
g23
F0.8337
tp454
a(S'ready'
p455
g52
F0.9962
tp456
asI42
(lp457
(S'supper'
p458
g6
F0.8967
tp459
a(S'chie'
p460
g304
F0.5095
tp461
asI43
(lp462
(g30
g12
F0.9893
tp463
a(S'said'
p464
g9
F0.9985
tp465
a(S'hi'
p466
g46
F0.9196
tp467
a(S'mom'
p468
g6
F0.907
tp469
a(S'supper'
p470
g6
F0.9187
tp471
a(g270
g304
F0.5822
tp472
a(S'all'
p473
g23
F0.8317
tp474
a(S'ready'
p475
g52
F0.9971
tp476
asI44
(lp477
(S'sit'
p478
g9
F0.9825
tp479
a(S'down'
p480
g17
F0.9271
tp481
asI45
(lp482
(S'here'
p483
g3
F0.9382
tp484
a(g270
g304
F0.7812
tp485
a(S'your'
p486
g23
F0.9511
tp487
a(S'milk'
p488
g6
F0.9994
tp489
asI46
(lp490
(S'would'
p491
g9
F0.9987
tp492
a(S'you'
p493
g12
F0.9948
tp494
a(S'like'
p495
g9
F0.7687
tp496
a(g292
g23
F0.9972
tp497
a(S'little'
p498
g52
F0.9945
tp499
a(S'butter'
p500
g6
F0.9948
tp501
a(S'on'
p502
g20
F0.999
tp503
a(S'your'
p504
g23
F0.9815
tp505
a(S'mashed'
p506
g52
F0.792
tp507
a(S'potatoes'
p508
g6
F0.9964
tp509
a(S'honey'
p510
g6
F0.9771
tp511
asI47
(lp512
(S'mhm'
p513
g46
F0.9747
tp514
asI48
(lp515
(S'how'
p516
g3
F0.9555
tp517
a(S'are'
p518
g9
F0.9896
tp519
a(S'they'
p520
g12
F0.996
tp521
a(S'are'
p522
g9
F0.9994
tp523
a(S'they'
p524
g12
F0.969
tp525
a(S'yummy'
p526
g52
F0.7441
tp527
asI49
(lp528
(S'yeah'
p529
g46
F0.9988
tp530
asI50
(lp531
(S'okay'
p532
g46
F0.9618
tp533
a(S'xxx'
p534
g404
F0.8072
tp535
asI51
(lp536
(S'you'
p537
g12
F0.998
tp538
a(S'got'
p539
g9
F0.9984
tp540
a(S'gotta'
p541
g9
F0.9985
tp542
a(S'to'
p543
g20
F0.9455
tp544
a(S'mix'
p545
g9
F0.95
tp546
a(S'it'
p547
g12
F0.9863
tp548
a(S'up'
p549
g17
F0.9501
tp550
a(S'huh'
p551
g46
F0.959
tp552
asI52
(lp553
(S'well'
p554
g46
F0.9122
tp555
a(S'xxx'
p556
g404
F0.8207
tp557
asI53
(lp558
(S'hi'
p559
g46
F0.9649
tp560
a(S'sweetie'
p561
g6
F0.8444
tp562
asI54
(lp563
(g30
g12
F0.963
tp564
a(S'smell'
p565
g9
F0.9891
tp566
a(S'corn'
p567
g6
F0.9879
tp568
a(S'in'
p569
g20
F0.9993
tp570
a(S'the'
p571
g23
F0.9989
tp572
a(S'cob'
p573
g6
F0.5954
tp574
asI55
(lp575
(S'do'
p576
g9
F0.9985
tp577
a(S'you'
p578
g12
F0.9974
tp579
a(S'smell'
p580
g9
F0.9983
tp581
a(S'it'
p582
g12
F0.995
tp583
asI56
(lp584
(S'it'
p585
g12
F0.9914
tp586
a(S'smells'
p587
g9
F0.9972
tp588
a(S'pretty'
p589
g3
F0.9158
tp590
a(S'yummy'
p591
g52
F0.9816
tp592
a(S'huh'
p593
g46
F0.9446
tp594
asI57
(lp595
(S'what'
p596
g12
F0.9931
tp597
a(S'do'
p598
g9
F0.9993
tp599
a(S'you'
p600
g12
F0.9997
tp601
a(S'do'
p602
g9
F0.9997
tp603
a(S'with'
p604
g20
F0.9914
tp605
a(S'that'
p606
g12
F0.8051
tp607
asI58
(lp608
(S'do'
p609
g9
F0.9985
tp610
a(S'you'
p611
g12
F0.9993
tp612
a(S'eat'
p613
g9
F0.9995
tp614
a(S'that'
p615
g12
F0.7044
tp616
a(S'without'
p617
g20
F0.9627
tp618
a(S'teeth'
p619
g6
F0.9928
tp620
asI59
(lp621
(S'um'
p622
g46
F0.9578
tp623
a(S'with'
p624
g20
F0.9721
tp625
a(S'teeth'
p626
g6
F0.9908
tp627
asI60
(lp628
(S'oh'
p629
g46
F0.9988
tp630
asI61
(lp631
(S'is'
p632
g9
F0.9993
tp633
a(S'it'
p634
g12
F0.9763
tp635
a(S'hot'
p636
g52
F0.9702
tp637
asI62
(lp638
(S'no'
p639
g46
F0.7608
tp640
a(S'it'
p641
g12
F0.9828
tp642
a(g270
g9
F0.7468
tp643
a(S'cooled'
p644
g9
F0.9658
tp645
a(S'off'
p646
g17
F0.6741
tp647
a(S'now'
p648
g3
F0.9973
tp649
asI63
(lp650
(g30
g12
F0.9902
tp651
a(S'want'
p652
g9
F0.9999
tp653
a(S'some'
p654
g23
F0.8559
tp655
asI64
(lp656
(S'nuhhuh'
p657
g46
F0.533
tp658
asI65
(lp659
(S'why'
p660
g3
F0.8527
tp661
asI66
(lp662
(S'because'
p663
g20
F0.983
tp664
a(g30
g12
F0.9981
tp665
a(S'said'
p666
g9
F0.9995
tp667
a(S'so'
p668
g20
F0.5454
tp669
asI67
(lp670
(S'why'
p671
g3
F0.8527
tp672
asI68
(lp673
(S'be'
p674
g9
F0.9727
tp675
a(S'cause'
p676
g20
F0.7105
tp677
a(g30
g12
F0.9944
tp678
a(S'poured'
p679
g9
F0.9999
tp680
a(S'you'
p681
g12
F0.9881
tp682
a(S'some'
p683
g23
F0.9576
tp684
a(S'delicious'
p685
g52
F0.9978
tp686
a(S'milk'
p687
g6
F0.9985
tp688
asI69
(lp689
(S'xxx'
p690
g404
F0.5672
tp691
a(S'for'
p692
g20
F0.9994
tp693
a(S'me'
p694
g12
F0.999
tp695
asI70
(lp696
(S'sure'
p697
g52
F0.8345
tp698
asI71
(lp699
(S'will'
p700
g9
F0.9979
tp701
a(S'you'
p702
g12
F0.9988
tp703
a(S'put'
p704
g9
F0.9985
tp705
a(S'some'
p706
g23
F0.793
tp707
a(S'in'
p708
g20
F0.992
tp709
a(S'my'
p710
g23
F0.9988
tp711
a(S'hand'
p712
g6
F0.998
tp713
a(S'for'
p714
g20
F0.9999
tp715
a(S'me'
p716
g12
F0.9989
tp717
asI72
(lp718
(S'well'
p719
g46
F0.7553
tp720
a(S'it'
p721
g12
F0.9978
tp722
a(g270
g304
F0.4673
tp723
a(S'very'
p724
g3
F0.983
tp725
a(S'hot'
p726
g52
F0.9997
tp727
a(S'honey'
p728
g6
F0.9683
tp729
a(S'but'
p730
g28
F0.9821
tp731
a(S'does'
p732
g9
F0.9973
tp733
a(S'anyone'
p734
g6
F0.9445
tp735
a(S'in'
p736
g20
F0.987
tp737
a(S'particular'
p738
g52
F0.9013
tp739
asI73
(lp740
(S'no'
p741
g46
F0.6668
tp742
a(S'some'
p743
g6
F0.6076
tp744
a(S'of'
p745
g20
F0.9941
tp746
a(S'that'
p747
g12
F0.8156
tp748
a(S'in'
p749
g20
F0.9727
tp750
a(S'my'
p751
g23
F0.9985
tp752
a(S'hand'
p753
g6
F0.9978
tp754
asI74
(lp755
(S'no'
p756
g23
F0.4671
tp757
a(S'be'
p758
g9
F0.7083
tp759
a(S'cause'
p760
g20
F0.9178
tp761
a(S'you'
p762
g12
F0.9991
tp763
a(S'll'
p764
g9
F0.6567
tp765
a(S'put'
p766
g9
F0.9975
tp767
a(S'it'
p768
g12
F0.972
tp769
a(S'on'
p770
g20
F0.9818
tp771
a(S'the'
p772
g23
F0.9994
tp773
a(S'floor'
p774
g6
F0.9917
tp775
asI75
(lp776
(S'listen'
p777
g9
F0.9962
tp778
a(S'to'
p779
g20
F0.9929
tp780
a(S'me'
p781
g12
F0.9986
tp782
asI76
(lp783
(S'is'
p784
g9
F0.9955
tp785
a(S'there'
p786
S'X'
p787
F0.8404
tp788
a(S'any'
p789
g23
F0.989
tp790
a(S'special'
p791
g52
F0.9586
tp792
a(S'corn'
p793
g6
F0.999
tp794
a(S'on'
p795
g20
F0.9994
tp796
a(S'the'
p797
g23
F0.999
tp798
a(S'cob'
p799
g6
F0.6618
tp800
a(S'you'
p801
g12
F0.9752
tp802
a(S'd'
p803
g9
F0.8427
tp804
a(S'like'
p805
g20
F0.7123
tp806
a(S'here'
p807
g3
F0.9341
tp808
asI77
(lp809
(S'want'
p810
g9
F0.9903
tp811
a(S'one'
p812
S'$'
p813
F0.9615
tp814
a(S'of'
p815
g20
F0.9979
tp816
a(S'these'
p817
g23
F0.9926
tp818
a(S'guys'
p819
g6
F0.9979
tp820
asI78
(lp821
(S'um'
p822
g46
F0.9584
tp823
a(g30
g12
F0.9938
tp824
a(S'want'
p825
g9
F0.9998
tp826
a(S'two'
p827
g813
F0.8699
tp828
asI79
(lp829
(S'alright'
p830
g46
F0.9864
tp831
asI80
(lp832
(S'well'
p833
g46
F0.8994
tp834
a(S'we'
p835
g12
F0.9987
tp836
a(S'll'
p837
g9
F0.6432
tp838
a(S'have'
p839
g9
F0.988
tp840
a(S'one'
p841
g813
F0.9389
tp842
a(S'at'
p843
g20
F0.9995
tp844
a(g292
g23
F0.9894
tp845
a(S'chie'
p846
g6
F0.5649
tp847
a(S'though'
p848
g20
F0.9504
tp849
a(S'is'
p850
g9
F0.9989
tp851
a(S'that'
p852
g12
F0.7984
tp853
a(S'okay'
p854
g46
F0.5688
tp855
asI81
(lp856
(g30
g12
F0.9902
tp857
a(S'want'
p858
g9
F0.9999
tp859
a(S'some'
p860
g23
F0.8559
tp861
asI82
(lp862
(g30
g12
F0.9897
tp863
a(S'want'
p864
g9
F0.9997
tp865
a(S'one'
p866
g813
F0.9556
tp867
a(S'with'
p868
g20
F0.9994
tp869
a(S'um'
p870
g46
F0.7246
tp871
a(S'that'
p872
g23
F0.537
tp873
a(S'one'
p874
g813
F0.9281
tp875
a(S'on'
p876
g20
F0.9989
tp877
a(S'the'
p878
g23
F0.9988
tp879
a(S'end'
p880
g6
F0.9801
tp881
asI83
(lp882
(S'this'
p883
g23
F0.9849
tp884
a(S'guy'
p885
g6
F0.9885
tp886
a(S'here'
p887
g3
F0.9072
tp888
asI84
(lp889
(S'yeah'
p890
g46
F0.9988
tp891
asI85
(lp892
(S'the'
p893
g23
F0.9981
tp894
a(S'one'
p895
g813
F0.952
tp896
a(S'on'
p897
g20
F0.9967
tp898
a(S'the'
p899
g23
F0.9988
tp900
a(S'end'
p901
g6
F0.9857
tp902
asI86
(lp903
(S'okay'
p904
g46
F0.9857
tp905
asI87
(lp906
(S'how'
p907
g3
F0.9957
tp908
a(S'about'
p909
g20
F0.9913
tp910
a(S'you'
p911
g12
F0.9997
tp912
a(S'give'
p913
g9
F0.9999
tp914
a(S'me'
p915
g12
F0.9962
tp916
a(S'your'
p917
g23
F0.9603
tp918
a(S'plate'
p919
g6
F0.9986
tp920
asI88
(lp921
(S'you'
p922
g12
F0.998
tp923
a(S'want'
p924
g9
F1.0
tp925
a(S'it'
p926
g12
F0.9922
tp927
a(S'cut'
p928
g9
F0.9656
tp929
a(S'off'
p930
g17
F0.7995
tp931
a(S'or'
p932
g28
F0.9866
tp933
a(S'do'
p934
g9
F0.9995
tp935
a(S'you'
p936
g12
F0.9997
tp937
a(S'want'
p938
g9
F1.0
tp939
a(S'it'
p940
g12
F0.9892
tp941
a(S'on'
p942
g20
F0.9768
tp943
a(S'the'
p944
g23
F0.9991
tp945
a(S'cob'
p946
g6
F0.6175
tp947
asI89
(lp948
(S'until'
p949
g20
F0.986
tp950
a(g30
g12
F0.9976
tp951
a(S'have'
p952
g9
F1.0
tp953
a(S'my'
p954
g23
F0.9986
tp955
a(S'fake'
p956
g52
F0.9948
tp957
a(S'tooth'
p958
g6
F0.9992
tp959
asI90
(lp960
(S'okay'
p961
g46
F0.9857
tp962
asI91
(lp963
(S'and'
p964
g28
F0.9987
tp965
a(S'then'
p966
g3
F0.9675
tp967
a(S'we'
p968
g12
F0.997
tp969
a(S'll'
p970
g9
F0.6487
tp971
a(S'leave'
p972
g9
F0.9993
tp973
a(S'it'
p974
g12
F0.989
tp975
a(S'on'
p976
g20
F0.9836
tp977
a(S'the'
p978
g23
F0.9987
tp979
a(S'cob'
p980
g6
F0.7701
tp981
asI92
(lp982
(S'xxx'
p983
g404
F0.8437
tp984
asI93
(lp985
(S'how'
p986
g3
F0.9627
tp987
a(S'was'
p988
g9
F0.9989
tp989
a(S'your'
p990
g23
F0.9974
tp991
a(S'day'
p992
g6
F0.9996
tp993
a(S'today'
p994
g6
F0.991
tp995
asI94
(lp996
(S'pretty'
p997
g3
F0.9814
tp998
a(S'good'
p999
g52
F0.9996
tp1000
asI95
(lp1001
(S'yeah'
p1002
g46
F0.9882
tp1003
a(S'did'
p1004
g9
F0.9987
tp1005
a(S'you'
p1006
g12
F0.9994
tp1007
a(S'have'
p1008
g9
F0.9998
tp1009
a(g292
g23
F0.9975
tp1010
a(S'nice'
p1011
g52
F0.989
tp1012
a(S'visit'
p1013
g6
F0.8158
tp1014
a(S'with'
p1015
g20
F0.9972
tp1016
a(S'papa'
p1017
S'^'
p1018
F0.9596
tp1019
asI96
(lp1020
(S'yep'
p1021
g46
F0.9977
tp1022
asI97
(lp1023
(S'how'
p1024
g3
F0.9764
tp1025
a(g270
g304
F0.7776
tp1026
a(S'he'
p1027
g12
F0.9957
tp1028
a(S'doing'
p1029
g9
F0.9995
tp1030
a(S'today'
p1031
g6
F0.9906
tp1032
asI98
(lp1033
(g30
g12
F0.9896
tp1034
a(S'had'
p1035
g9
F0.9999
tp1036
a(S'to'
p1037
g20
F0.9781
tp1038
a(S'jump'
p1039
g9
F0.9732
tp1040
a(S'good'
p1041
g52
F0.9856
tp1042
asI99
(lp1043
(S'what'
p1044
g12
F0.949
tp1045
asI100
(lp1046
(g30
g12
F0.9896
tp1047
a(S'had'
p1048
g9
F0.9999
tp1049
a(S'to'
p1050
g20
F0.9781
tp1051
a(S'jump'
p1052
g9
F0.9732
tp1053
a(S'good'
p1054
g52
F0.9856
tp1055
asI101
(lp1056
(g30
g12
F0.9143
tp1057
a(g803
g9
F0.8852
tp1058
a(S'like'
p1059
g20
F0.7463
tp1060
a(S'you'
p1061
g12
F0.9995
tp1062
a(S'to'
p1063
g20
F0.9852
tp1064
a(S'sit'
p1065
g9
F0.9987
tp1066
a(S'in'
p1067
g20
F0.9457
tp1068
a(S'the'
p1069
g23
F0.9993
tp1070
a(S'chair'
p1071
g6
F0.9973
tp1072
a(S'please'
p1073
g9
F0.9706
tp1074
a(S'chi'
p1075
g1018
F0.5192
tp1076
asI102
(lp1077
(g30
g12
F0.9756
tp1078
a(S'didn'
p1079
g9
F0.9919
tp1080
a(g8
g9
F0.7449
tp1081
a(S'know'
p1082
g9
F0.985
tp1083
a(S'how'
p1084
g3
F0.9928
tp1085
a(S'to'
p1086
g20
F0.995
tp1087
a(S'jump'
p1088
g9
F0.9831
tp1089
a(S'good'
p1090
g52
F0.992
tp1091
asI103
(lp1092
(S'yeah'
p1093
g46
F0.9976
tp1094
a(S'why'
p1095
g3
F0.8177
tp1096
a(S'were'
p1097
g9
F0.9959
tp1098
a(S'you'
p1099
g12
F0.9994
tp1100
a(S'jumping'
p1101
g9
F0.9997
tp1102
a(S'at'
p1103
g20
F0.9908
tp1104
a(S'papa'
p1105
g1018
F0.996
tp1106
a(g270
g304
F0.4064
tp1107
a(S'house'
p1108
g6
F0.9102
tp1109
asI104
(lp1110
(S'no'
p1111
g46
F0.9253
tp1112
asI105
(lp1113
(S'no'
p1114
g46
F0.9253
tp1115
asI106
(lp1116
(S'xxx'
p1117
g404
F0.8437
tp1118
asI107
(lp1119
(S'no'
p1120
g46
F0.9253
tp1121
asI108
(lp1122
(S'so'
p1123
g20
F0.7418
tp1124
a(S'what'
p1125
g12
F0.9979
tp1126
a(S'was'
p1127
g9
F0.9996
tp1128
a(S'it'
p1129
g12
F0.9948
tp1130
a(S'that'
p1131
g20
F0.9447
tp1132
a(S'you'
p1133
g12
F0.9997
tp1134
a(S'saw'
p1135
g9
F0.999
tp1136
a(S'at'
p1137
g20
F0.9986
tp1138
a(S'the'
p1139
g23
F0.9994
tp1140
a(S'park'
p1141
g6
F0.7362
tp1142
asI109
(lp1143
(g292
g23
F0.9929
tp1144
a(S'bus'
p1145
g6
F0.9916
tp1146
asI110
(lp1147
(g292
g23
F0.9118
tp1148
a(S'what'
p1149
g12
F0.9821
tp1150
asI111
(lp1151
(g30
g12
F0.9897
tp1152
a(S'mean'
p1153
g9
F0.9985
tp1154
a(g292
g23
F0.996
tp1155
a(S'fire'
p1156
g6
F0.9655
tp1157
a(S'engine'
p1158
g6
F0.9672
tp1159
asI112
(lp1160
(S'no'
p1161
g46
F0.9236
tp1162
a(S'what'
p1163
g12
F0.9789
tp1164
a(S'else'
p1165
g3
F0.8213
tp1166
asI113
(lp1167
(S'what'
p1168
g12
F0.8373
tp1169
a(S'kind'
p1170
g6
F0.9635
tp1171
a(S'of'
p1172
g20
F0.9966
tp1173
a(S'animal'
p1174
g6
F0.8815
tp1175
a(S'did'
p1176
g9
F0.9958
tp1177
a(S'you'
p1178
g12
F0.9988
tp1179
a(S'see'
p1180
g9
F0.9985
tp1181
a(S'there'
p1182
g3
F0.5938
tp1183
a(S'that'
p1184
g20
F0.9329
tp1185
a(S'you'
p1186
g12
F0.9998
tp1187
a(S'mentioned'
p1188
g9
F0.9995
tp1189
a(S'to'
p1190
g20
F0.9937
tp1191
a(S'me'
p1192
g12
F0.9982
tp1193
asI114
(lp1194
(g292
g23
F0.9947
tp1195
a(S'bird'
p1196
g6
F0.9935
tp1197
asI115
(lp1198
(S'what'
p1199
g12
F0.9757
tp1200
a(S'else'
p1201
g3
F0.7978
tp1202
asI116
(lp1203
(g30
g12
F0.9635
tp1204
a(S'don'
p1205
g9
F0.9156
tp1206
a(g8
g6
F0.3074
tp1207
a(S'know'
p1208
g9
F0.965
tp1209
asI117
(lp1210
(S'chi'
p1211
g304
F0.3949
tp1212
a(S'you'
p1213
g12
F0.9943
tp1214
a(S'don'
p1215
g9
F0.8576
tp1216
a(g8
g6
F0.2564
tp1217
a(S'remember'
p1218
g9
F0.9925
tp1219
a(S'what'
p1220
g12
F0.9753
tp1221
a(S'you'
p1222
g12
F0.9996
tp1223
a(S'said'
p1224
g9
F0.9999
tp1225
a(S'you'
p1226
g12
F0.9994
tp1227
a(S'saw'
p1228
g9
F0.999
tp1229
a(S'at'
p1230
g20
F0.9986
tp1231
a(S'the'
p1232
g23
F0.9992
tp1233
a(S'park'
p1234
g6
F0.7969
tp1235
asI118
(lp1236
(S'oh'
p1237
g46
F0.9987
tp1238
a(S'yeah'
p1239
g46
F0.9997
tp1240
asI119
(lp1241
(S'what'
p1242
g12
F0.949
tp1243
asI120
(lp1244
(S'um'
p1245
g46
F0.9547
tp1246
a(g292
g23
F0.8672
tp1247
asI121
(lp1248
(g30
g12
F0.9635
tp1249
a(S'don'
p1250
g9
F0.9156
tp1251
a(g8
g6
F0.3074
tp1252
a(S'know'
p1253
g9
F0.965
tp1254
asI122
(lp1255
(S'you'
p1256
g12
F0.9926
tp1257
a(S'don'
p1258
g9
F0.8675
tp1259
a(g8
g6
F0.2842
tp1260
a(S'remember'
p1261
g9
F0.996
tp1262
a(S'the'
p1263
g23
F0.9993
tp1264
a(S'word'
p1265
g6
F0.9617
tp1266
asI123
(lp1267
(S'no'
p1268
g46
F0.9253
tp1269
asI124
(lp1270
(S'an'
p1271
g23
F0.9783
tp1272
a(S'iguana'
p1273
g6
F0.8445
tp1274
asI125
(lp1275
(S'oh'
p1276
g46
F0.9946
tp1277
a(S'an'
p1278
g23
F0.9481
tp1279
a(S'iguana'
p1280
g6
F0.7606
tp1281
a(S'my'
p1282
g23
F0.9953
tp1283
a(S'dad'
p1284
g6
F0.9934
tp1285
a(S'xxx'
p1286
g404
F0.862
tp1287
asI126
(lp1288
(S'yeah'
p1289
g46
F0.9988
tp1290
asI127
(lp1291
(S'did'
p1292
g9
F0.9947
tp1293
a(S'its'
p1294
S'L'
p1295
F0.7319
tp1296
a(S'owner'
p1297
g6
F0.9759
tp1298
a(S'let'
p1299
g9
F0.9336
tp1300
a(S'let'
p1301
g9
F0.9953
tp1302
a(S'you'
p1303
g12
F0.9989
tp1304
a(S'pat'
p1305
g9
F0.9561
tp1306
a(S'him'
p1307
g12
F0.9921
tp1308
asI128
(lp1309
(S'no'
p1310
g46
F0.7822
tp1311
a(S'no'
p1312
g46
F0.8036
tp1313
asI129
(lp1314
(S'was'
p1315
g9
F0.9927
tp1316
a(S'he'
p1317
g12
F0.9952
tp1318
a(S'walking'
p1319
g9
F0.9998
tp1320
a(S'around'
p1321
g20
F0.8428
tp1322
a(S'all'
p1323
g23
F0.7228
tp1324
a(S'by'
p1325
g20
F0.9971
tp1326
a(S'himself'
p1327
g12
F0.971
tp1328
asI130
(lp1329
(S'mhm'
p1330
g46
F0.9747
tp1331
asI131
(lp1332
(S'yeah'
p1333
g46
F0.9988
tp1334
asI132
(lp1335
(S'mommy'
p1336
g6
F0.4898
tp1337
a(S'xxx'
p1338
g404
F0.5277
tp1339
a(g30
g12
F0.9803
tp1340
a(S'see'
p1341
g9
F0.9969
tp1342
a(S'more'
p1343
g52
F0.6972
tp1344
asI133
(lp1345
(S'well'
p1346
g46
F0.8573
tp1347
a(g30
g12
F0.9934
tp1348
a(S'pretty'
p1349
g3
F0.9954
tp1350
a(S'much'
p1351
g52
F0.8362
tp1352
a(S'gave'
p1353
g9
F0.9906
tp1354
a(S'you'
p1355
g12
F0.9954
tp1356
a(g292
g23
F0.9941
tp1357
a(S'lot'
p1358
g6
F0.8884
tp1359
a(S'there'
p1360
g3
F0.8654
tp1361
a(S'kiddo'
p1362
g6
F0.5764
tp1363
asI134
(lp1364
(S'not'
p1365
g3
F0.9996
tp1366
a(S'much'
p1367
g52
F0.5224
tp1368
a(S'left'
p1369
g6
F0.3516
tp1370
a(S'okay'
p1371
g46
F0.855
tp1372
asI135
(lp1373
(S'xxx'
p1374
g404
F0.8437
tp1375
asI136
(lp1376
(S'want'
p1377
g9
F0.9938
tp1378
a(S'more'
p1379
g52
F0.5366
tp1380
a(S'yummy'
p1381
g52
F0.8149
tp1382
a(S'butter'
p1383
g6
F0.9978
tp1384
a(S'on'
p1385
g20
F0.995
tp1386
a(S'there'
p1387
g3
F0.5733
tp1388
asI137
(lp1389
(S'no'
p1390
g46
F0.9253
tp1391
asI138
(lp1392
(S'ew'
p1393
g46
F0.984
tp1394
asI139
(lp1395
(g30
g12
F0.9635
tp1396
a(S'don'
p1397
g9
F0.9231
tp1398
a(g8
g6
F0.2503
tp1399
a(S'want'
p1400
g9
F0.9932
tp1401
a(S'butter'
p1402
g6
F0.9571
tp1403
a(S'on'
p1404
g20
F0.9967
tp1405
a(S'anything'
p1406
g6
F0.9955
tp1407
asI140
(lp1408
(S'okay'
p1409
g46
F0.9857
tp1410
asI141
(lp1411
(S'mommy'
p1412
g6
F0.5271
tp1413
asI142
(lp1414
(S'there'
p1415
g787
F0.4664
tp1416
a(g270
g304
F0.4577
tp1417
a(S'butter'
p1418
g6
F0.9645
tp1419
a(S'on'
p1420
g20
F0.999
tp1421
a(S'your'
p1422
g23
F0.992
tp1423
a(S'potatoes'
p1424
g6
F0.9987
tp1425
asI143
(lp1426
(S'mommy'
p1427
g6
F0.5271
tp1428
asI144
(lp1429
(S'butter'
p1430
g6
F0.9299
tp1431
a(S'on'
p1432
g20
F0.9987
tp1433
a(S'your'
p1434
g23
F0.9905
tp1435
a(S'corn'
p1436
g6
F0.9994
tp1437
asI145
(lp1438
(S'yeah'
p1439
g46
F0.9988
tp1440
asI146
(lp1441
(S'um'
p1442
g46
F0.8769
tp1443
a(S'can'
p1444
g9
F0.9857
tp1445
a(g30
g12
F0.9862
tp1446
a(S'have'
p1447
g9
F0.9998
tp1448
a(S'some'
p1449
g23
F0.9956
tp1450
a(S'steak'
p1451
g6
F0.9945
tp1452
asI147
(lp1453
(S'yeah'
p1454
g46
F0.9958
tp1455
a(S'well'
p1456
g46
F0.7898
tp1457
a(S'it'
p1458
g12
F0.998
tp1459
a(g270
g304
F0.4278
tp1460
a(S'lamb'
p1461
g6
F0.9626
tp1462
a(S'chop'
p1463
g6
F0.6178
tp1464
asI148
(lp1465
(S'can'
p1466
g9
F0.9755
tp1467
a(g30
g12
F0.987
tp1468
a(S'have'
p1469
g9
F0.9999
tp1470
a(S'some'
p1471
g23
F0.995
tp1472
a(S'bread'
p1473
g6
F0.9943
tp1474
asI149
(lp1475
(S'yes'
p1476
g46
F0.9958
tp1477
asI150
(lp1478
(S'lamb'
p1479
g6
F0.9353
tp1480
a(S'chop'
p1481
g9
F0.5332
tp1482
a(S'chop'
p1483
g9
F0.7422
tp1484
a(S'chop'
p1485
g9
F0.4801
tp1486
asI151
(lp1487
(S'how'
p1488
g3
F0.9991
tp1489
a(S'much'
p1490
g52
F0.9762
tp1491
a(S'wood'
p1492
g6
F0.8944
tp1493
a(S'does'
p1494
g9
F0.997
tp1495
a(g292
g23
F0.9971
tp1496
a(S'woodchuck'
p1497
g6
F0.9197
tp1498
a(S'if'
p1499
g20
F0.9997
tp1500
a(g292
g23
F0.9933
tp1501
a(S'woodchuck'
p1502
g6
F0.9588
tp1503
a(S'could'
p1504
g9
F0.9964
tp1505
a(S'chuck'
p1506
g1018
F0.5886
tp1507
a(S'chuck'
p1508
g1018
F0.9687
tp1509
asI152
(lp1510
(S'um'
p1511
g46
F0.979
tp1512
asI153
(lp1513
(S'hm'
p1514
g46
F0.995
tp1515
asI154
(lp1516
(g30
g12
F0.9708
tp1517
a(S'like'
p1518
g9
F0.7595
tp1519
a(S'corn'
p1520
g6
F0.9954
tp1521
a(S'on'
p1522
g20
F0.9994
tp1523
a(S'the'
p1524
g23
F0.999
tp1525
a(S'cob'
p1526
g6
F0.5954
tp1527
asI155
(lp1528
(S'yes'
p1529
g46
F0.9958
tp1530
asI156
(lp1531
(S'isn'
p1532
g304
F0.5578
tp1533
a(g8
g304
F0.5158
tp1534
a(S'it'
p1535
g12
F0.9702
tp1536
a(S'delicious'
p1537
g52
F0.9783
tp1538
a(S'even'
p1539
g3
F0.9961
tp1540
a(S'if'
p1541
g20
F0.9959
tp1542
a(S'it'
p1543
g12
F0.9984
tp1544
a(g270
g9
F0.5675
tp1545
a(S'not'
p1546
g3
F0.9963
tp1547
a(S'on'
p1548
g20
F0.9987
tp1549
a(S'the'
p1550
g23
F0.999
tp1551
a(S'cob'
p1552
g6
F0.6806
tp1553
asI157
(lp1554
(S'that'
p1555
g12
F0.473
tp1556
a(g270
g9
F0.5395
tp1557
a(S'be'
p1558
g9
F0.9871
tp1559
a(S'cause'
p1560
g20
F0.9196
tp1561
a(S'it'
p1562
g12
F0.9966
tp1563
a(g270
g9
F0.4403
tp1564
a(S'corn'
p1565
g6
F0.9784
tp1566
a(S'chie'
p1567
g304
F0.5994
tp1568
asI158
(lp1569
(S'mhm'
p1570
g46
F0.9747
tp1571
asI159
(lp1572
(S'what'
p1573
g12
F0.9921
tp1574
a(S'makes'
p1575
g9
F0.9721
tp1576
a(S'corn'
p1577
g6
F0.9936
tp1578
asI160
(lp1579
(S'corn'
p1580
g6
F0.985
tp1581
a(S'grows'
p1582
g9
F0.9296
tp1583
asI161
(lp1584
(S'in'
p1585
g20
F0.9543
tp1586
a(g292
g23
F0.9961
tp1587
a(S'great'
p1588
g52
F0.9978
tp1589
a(S'big'
p1590
g52
F0.8086
tp1591
a(S'tall'
p1592
g52
F0.8911
tp1593
a(S'stalks'
p1594
g6
F0.5137
tp1595
asI162
(lp1596
(S'like'
p1597
g20
F0.9358
tp1598
a(S'we'
p1599
g12
F0.9992
tp1600
a(S'see'
p1601
g9
F0.9979
tp1602
a(S'at'
p1603
g20
F0.9974
tp1604
a(S'allendale'
p1605
g1018
F0.9943
tp1606
a(S'farm'
p1607
g6
F0.9044
tp1608
asI163
(lp1609
(S'great'
p1610
g52
F0.9868
tp1611
a(S'big'
p1612
g52
F0.921
tp1613
a(S'tall'
p1614
g52
F0.8389
tp1615
a(S'stalks'
p1616
g6
F0.6208
tp1617
asI164
(lp1618
(S'and'
p1619
g28
F0.9987
tp1620
a(S'then'
p1621
g3
F0.9652
tp1622
a(S'this'
p1623
g12
F0.9858
tp1624
a(S'is'
p1625
g9
F0.9987
tp1626
a(S'the'
p1627
g23
F0.9948
tp1628
a(S'chie'
p1629
g1018
F0.5347
tp1630
a(S'o'
p1631
g20
F0.4782
tp1632
a(S'f'
p1633
g304
F0.3012
tp1634
a(S'year'
p1635
g6
F0.6309
tp1636
a(S'it'
p1637
g12
F0.9822
tp1638
a(S'grows'
p1639
g9
F0.9993
tp1640
a(S'all'
p1641
g23
F0.9919
tp1642
a(S'summer'
p1643
g6
F0.967
tp1644
a(S'long'
p1645
g52
F0.9048
tp1646
a(S'and'
p1647
g28
F0.9977
tp1648
a(S'this'
p1649
g12
F0.6027
tp1650
a(S'chie'
p1651
g304
F0.6753
tp1652
a(g1631
g304
F0.5507
tp1653
a(g1633
g304
F0.682
tp1654
a(S'year'
p1655
g6
F0.6825
tp1656
a(S'you'
p1657
g12
F0.9947
tp1658
a(S'get'
p1659
g9
F0.9998
tp1660
a(S'to'
p1661
g20
F0.9885
tp1662
a(S'pick'
p1663
g9
F0.9998
tp1664
a(S'it'
p1665
g12
F0.9857
tp1666
asI165
(lp1667
(S'mommy'
p1668
g6
F0.3472
tp1669
a(S'next'
p1670
g20
F0.7519
tp1671
a(S'chie'
p1672
g9
F0.2747
tp1673
a(S'you'
p1674
g12
F0.9988
tp1675
a(S'll'
p1676
g9
F0.628
tp1677
a(S'have'
p1678
g9
F0.9987
tp1679
a(S'to'
p1680
g20
F0.9971
tp1681
a(S'take'
p1682
g9
F0.9999
tp1683
a(S'me'
p1684
g12
F0.994
tp1685
a(S'to'
p1686
g20
F0.9847
tp1687
a(S'pick'
p1688
g9
F0.9997
tp1689
a(S'it'
p1690
g12
F0.9813
tp1691
asI166
(lp1692
(S'well'
p1693
g46
F0.8994
tp1694
a(S'we'
p1695
g12
F0.9967
tp1696
a(S're'
p1697
g6
F0.4973
tp1698
a(S'gonna'
p1699
g9
F0.9947
tp1700
a(S'have'
p1701
g9
F0.9999
tp1702
a(g292
g23
F0.9848
tp1703
a(S'ride'
p1704
g6
F0.9483
tp1705
a(S'in'
p1706
g20
F0.9979
tp1707
a(S'the'
p1708
g23
F0.9991
tp1709
a(S'country'
p1710
g6
F0.9929
tp1711
a(S'this'
p1712
g23
F0.9809
tp1713
a(S'weekend'
p1714
g6
F0.9925
tp1715
asI167
(lp1716
(g30
g12
F0.9894
tp1717
a(S'bet'
p1718
g9
F0.9996
tp1719
a(S'we'
p1720
g12
F0.9979
tp1721
a(S'll'
p1722
g9
F0.6641
tp1723
a(S'see'
p1724
g9
F0.9977
tp1725
a(S'some'
p1726
g23
F0.9948
tp1727
a(S'corn'
p1728
g6
F0.9724
tp1729
a(S'fields'
p1730
g6
F0.9871
tp1731
asI168
(lp1732
(S'and'
p1733
g28
F0.999
tp1734
a(g30
g12
F0.9899
tp1735
a(S'll'
p1736
g9
F0.7764
tp1737
a(S'show'
p1738
g9
F0.8918
tp1739
a(S'you'
p1740
g12
F0.9941
tp1741
asI169
(lp1742
(S'they'
p1743
g12
F0.9104
tp1744
a(S're'
p1745
g9
F0.7689
tp1746
a(S'real'
p1747
g3
F0.6048
tp1748
a(S'nice'
p1749
g52
F0.9992
tp1750
asI170
(lp1751
(S'they'
p1752
g12
F0.9104
tp1753
a(S're'
p1754
g9
F0.7998
tp1755
a(S'great'
p1756
g52
F0.9896
tp1757
a(S'big'
p1758
g52
F0.8235
tp1759
a(S'tall'
p1760
g52
F0.8943
tp1761
a(S'stalks'
p1762
g9
F0.596
tp1763
a(S'that'
p1764
g12
F0.6155
tp1765
a(S'grow'
p1766
g9
F0.9865
tp1767
a(S'way'
p1768
g6
F0.6716
tp1769
a(S'up'
p1770
g20
F0.513
tp1771
a(S'high'
p1772
g52
F0.5714
tp1773
asI171
(lp1774
(S'hm'
p1775
g46
F0.995
tp1776
asI172
(lp1777
(g30
g12
F0.9563
tp1778
a(S'xxx'
p1779
g404
F0.605
tp1780
asI173
(lp1781
(S'turn'
p1782
g9
F0.9938
tp1783
a(S'the'
p1784
g23
F0.9985
tp1785
a(g8
g6
F0.5023
tp1786
a(S'l'
p1787
g304
F0.7191
tp1788
a(S'v'
p1789
g304
F0.8221
tp1790
a(g1787
g304
F0.4558
tp1791
a(S'up'
p1792
g17
F0.8068
tp1793
asI174
(lp1794
(S'the'
p1795
g23
F0.9973
tp1796
a(S'sports'
p1797
g6
F0.9889
tp1798
asI175
(lp1799
(S'sports'
p1800
g6
F0.9193
tp1801
a(S'yeah'
p1802
g46
F0.9896
tp1803
asI176
(lp1804
(S'what'
p1805
g12
F0.9835
tp1806
a(S'are'
p1807
g9
F0.9945
tp1808
a(S'they'
p1809
g12
F0.997
tp1810
a(S'playing'
p1811
g9
F0.9996
tp1812
asI177
(lp1813
(S'baseball'
p1814
g6
F0.946
tp1815
asI178
(lp1816
(S'would'
p1817
g9
F0.9987
tp1818
a(S'you'
p1819
g12
F0.9948
tp1820
a(S'like'
p1821
g9
F0.942
tp1822
a(S'to'
p1823
g20
F0.9825
tp1824
a(S'be'
p1825
g9
F0.9994
tp1826
a(S'moved'
p1827
g9
F0.9898
tp1828
a(S'up'
p1829
g17
F0.9381
tp1830
a(S'to'
p1831
g20
F0.9993
tp1832
a(S'the'
p1833
g23
F0.9991
tp1834
a(S'table'
p1835
g6
F0.9901
tp1836
asI179
(lp1837
(S'mhm'
p1838
g46
F0.9747
tp1839
asI180
(lp1840
(g292
g23
F0.9953
tp1841
a(S'little'
p1842
g52
F0.9989
tp1843
a(S'bit'
p1844
g6
F0.954
tp1845
asI181
(lp1846
(S'right'
p1847
g3
F0.7549
tp1848
a(S'here'
p1849
g3
F0.9757
tp1850
a(g30
g12
F0.998
tp1851
a(S'need'
p1852
g9
F0.9997
tp1853
a(g292
g23
F0.998
tp1854
a(S'little'
p1855
g52
F0.9826
tp1856
a(S'xxx'
p1857
g404
F0.7426
tp1858
asI182
(lp1859
(S'yeah'
p1860
g46
F0.9988
tp1861
asI183
(lp1862
(S'thanks'
p1863
g6
F0.7675
tp1864
asI184
(lp1865
(S'is'
p1866
g9
F0.9981
tp1867
a(S'that'
p1868
g12
F0.7297
tp1869
a(g292
g23
F0.9955
tp1870
a(S'little'
p1871
g52
F0.9509
tp1872
a(S'better'
p1873
g52
F0.753
tp1874
asI185
(lp1875
(S'yeah'
p1876
g46
F0.9988
tp1877
asI186
(lp1878
(S'you'
p1879
g12
F0.9754
tp1880
a(S're'
p1881
g9
F0.5951
tp1882
a(S'welcome'
p1883
g52
F0.6509
tp1884
a(S'honey'
p1885
g6
F0.9625
tp1886
asI187
(lp1887
(g30
g12
F0.953
tp1888
a(g232
g9
F0.9839
tp1889
a(S'putting'
p1890
g9
F0.9986
tp1891
a(S'some'
p1892
g23
F0.9434
tp1893
a(S'more'
p1894
g52
F0.9704
tp1895
a(S'corns'
p1896
g6
F0.9978
tp1897
asI188
(lp1898
(S'mommy'
p1899
g6
F0.3577
tp1900
a(S'you'
p1901
g12
F0.9971
tp1902
a(S'know'
p1903
g9
F0.9963
tp1904
a(g30
g12
F0.9849
tp1905
a(g232
g9
F0.9829
tp1906
a(S'putting'
p1907
g9
F0.9984
tp1908
a(S'some'
p1909
g23
F0.9933
tp1910
a(S'corn'
p1911
g6
F0.9968
tp1912
a(S'on'
p1913
g20
F0.9989
tp1914
a(S'my'
p1915
g23
F0.9958
tp1916
a(S'butter'
p1917
g6
F0.9971
tp1918
asI189
(lp1919
(S'yeah'
p1920
g46
F0.9988
tp1921
asI190
(lp1922
(S'that'
p1923
g23
F0.8481
tp1924
a(S'way'
p1925
g6
F0.9254
tp1926
a(S'it'
p1927
g12
F0.9823
tp1928
a(S'will'
p1929
g9
F0.9979
tp1930
a(S'melt'
p1931
g9
F0.9768
tp1932
a(S'xxx'
p1933
g404
F0.8034
tp1934
asI191
(lp1935
(S'please'
p1936
g9
F0.8984
tp1937
a(S'don'
p1938
g9
F0.4193
tp1939
a(g8
g6
F0.2761
tp1940
a(S'spill'
p1941
g9
F0.794
tp1942
a(S'your'
p1943
g23
F0.9848
tp1944
a(S'milk'
p1945
g6
F0.9991
tp1946
asI192
(lp1947
(S'it'
p1948
g12
F0.9888
tp1949
a(g270
g9
F0.7079
tp1950
a(S'right'
p1951
g3
F0.7357
tp1952
a(S'under'
p1953
g20
F0.9988
tp1954
a(S'your'
p1955
g23
F0.9967
tp1956
a(S'hand'
p1957
g6
F0.9983
tp1958
a(S'there'
p1959
g3
F0.7572
tp1960
asI193
(lp1961
(S'then'
p1962
g3
F0.9697
tp1963
a(S'put'
p1964
g9
F0.9947
tp1965
a(S'it'
p1966
g12
F0.9806
tp1967
a(S'somewhere'
p1968
g3
F0.9962
tp1969
a(S'else'
p1970
g3
F0.9549
tp1971
asI194
(lp1972
(S'well'
p1973
g46
F0.8573
tp1974
a(g30
g12
F0.9974
tp1975
a(S'think'
p1976
g9
F0.9999
tp1977
a(S'that'
p1978
g20
F0.8542
tp1979
a(S'you'
p1980
g12
F0.998
tp1981
a(S'chuckles'
p1982
g9
F0.9944
tp1983
a(S'could'
p1984
g9
F0.9922
tp1985
a(S'possibly'
p1986
g3
F0.9964
tp1987
a(S'put'
p1988
g9
F0.9979
tp1989
a(S'it'
p1990
g12
F0.975
tp1991
a(S'somewhere'
p1992
g3
F0.9957
tp1993
a(S'else'
p1994
g3
F0.9205
tp1995
asI195
(lp1996
(S'just'
p1997
g3
F0.9991
tp1998
a(S'put'
p1999
g9
F0.9986
tp2000
a(S'it'
p2001
g12
F0.9797
tp2002
a(S'right'
p2003
g3
F0.7732
tp2004
a(S'there'
p2005
g3
F0.8328
tp2006
a(S'xxx'
p2007
g404
F0.8529
tp2008
asI196
(lp2009
(S'mommy'
p2010
g6
F0.7607
tp2011
a(g30
g12
F0.8265
tp2012
a(g232
g9
F0.9845
tp2013
a(S'putting'
p2014
g9
F0.9994
tp2015
a(S'it'
p2016
g12
F0.9942
tp2017
a(S'by'
p2018
g20
F0.9989
tp2019
a(S'the'
p2020
g23
F0.9794
tp2021
a(S'near'
p2022
g20
F0.9757
tp2023
a(S'the'
p2024
g23
F0.9922
tp2025
a(S'xxx'
p2026
g404
F0.3885
tp2027
asI197
(lp2028
(S'mommy'
p2029
g6
F0.7607
tp2030
a(g30
g12
F0.8265
tp2031
a(g232
g9
F0.9845
tp2032
a(S'putting'
p2033
g9
F0.999
tp2034
a(S'it'
p2035
g12
F0.9942
tp2036
a(S'xxx'
p2037
g404
F0.736
tp2038
asI198
(lp2039
(S'see'
p2040
g9
F0.9798
tp2041
a(S'the'
p2042
g23
F0.9995
tp2043
a(S'helicopter'
p2044
g6
F0.9944
tp2045
asI199
(lp2046
(S'sounds'
p2047
g9
F0.9523
tp2048
a(S'like'
p2049
g20
F0.9659
tp2050
a(g292
g23
F0.9805
tp2051
a(S'missile'
p2052
g6
F0.9855
tp2053
a(S'xxx'
p2054
g404
F0.804
tp2055
asI200
(lp2056
(S'that'
p2057
g12
F0.7305
tp2058
a(S'would'
p2059
g9
F0.9992
tp2060
a(S'be'
p2061
g9
F0.9997
tp2062
a(S'terrible'
p2063
g52
F0.9937
tp2064
a(S'if'
p2065
g20
F0.9997
tp2066
a(S'it'
p2067
g12
F0.9992
tp2068
a(S'was'
p2069
g9
F0.9995
tp2070
a(g292
g23
F0.9983
tp2071
a(S'missile'
p2072
g6
F0.9909
tp2073
asI201
(lp2074
(S'what'
p2075
g12
F0.9899
tp2076
a(S'could'
p2077
g9
F0.9974
tp2078
a(S'happen'
p2079
g9
F0.9998
tp2080
a(S'if'
p2081
g20
F0.9976
tp2082
a(S'it'
p2083
g12
F0.9992
tp2084
a(S'was'
p2085
g9
F0.9996
tp2086
a(g292
g23
F0.9986
tp2087
a(S'missile'
p2088
g6
F0.9848
tp2089
asI202
(lp2090
(S'it'
p2091
g12
F0.9944
tp2092
a(S'would'
p2093
g9
F0.9993
tp2094
a(S'fall'
p2095
g9
F0.994
tp2096
a(S'on'
p2097
g20
F0.9603
tp2098
a(S'our'
p2099
g23
F0.9972
tp2100
a(S'house'
p2101
g6
F0.9819
tp2102
asI203
(lp2103
(S'oh'
p2104
g46
F0.9957
tp2105
a(S'well'
p2106
g46
F0.9872
tp2107
a(S'that'
p2108
g12
F0.8363
tp2109
a(g270
g9
F0.6174
tp2110
a(g292
g23
F0.9925
tp2111
a(S'scary'
p2112
g52
F0.9939
tp2113
a(S'thought'
p2114
g9
F0.5265
tp2115
asI204
(lp2116
(S'and'
p2117
g28
F0.9994
tp2118
a(S'it'
p2119
g12
F0.9982
tp2120
a(S'would'
p2121
g9
F0.9995
tp2122
a(S'blow'
p2123
g9
F0.7355
tp2124
asI205
(lp2125
(g30
g12
F0.953
tp2126
a(g232
g9
F0.9874
tp2127
a(S'sure'
p2128
g52
F0.8005
tp2129
a(S'happy'
p2130
g52
F0.9627
tp2131
a(S'it'
p2132
g12
F0.9973
tp2133
a(S'was'
p2134
g9
F0.9987
tp2135
a(S'just'
p2136
g3
F0.9997
tp2137
a(g292
g23
F0.987
tp2138
a(S'helicopter'
p2139
g6
F0.9978
tp2140
asI206
(lp2141
(S'are'
p2142
g9
F0.9964
tp2143
a(S'you'
p2144
g12
F0.9992
tp2145
a(S'doing'
p2146
g9
F0.9997
tp2147
a(S'xxx'
p2148
g404
F0.735
tp2149
asI207
(lp2150
(g30
g12
F0.953
tp2151
a(g232
g9
F0.9842
tp2152
a(S'buttering'
p2153
g9
F0.9898
tp2154
a(S'my'
p2155
g23
F0.9966
tp2156
a(S'corn'
p2157
g6
F0.9989
tp2158
asI208
(lp2159
(g30
g12
F0.9708
tp2160
a(S'like'
p2161
g9
F0.8854
tp2162
a(S'mine'
p2163
g12
F0.9736
tp2164
a(S'on'
p2165
g20
F0.9932
tp2166
a(S'the'
p2167
g23
F0.999
tp2168
a(S'cob'
p2169
g6
F0.6779
tp2170
a(S'be'
p2171
g9
F0.9862
tp2172
a(S'cause'
p2173
g20
F0.665
tp2174
a(g30
g12
F0.9955
tp2175
a(S'have'
p2176
g9
F1.0
tp2177
a(S'my'
p2178
g23
F0.9994
tp2179
a(S'teeth'
p2180
g6
F0.9989
tp2181
asI209
(lp2182
(S'can'
p2183
g9
F0.9701
tp2184
a(g30
g12
F0.9799
tp2185
asI210
(lp2186
(S'can'
p2187
g9
F0.9755
tp2188
a(g30
g12
F0.9866
tp2189
a(S'bite'
p2190
g9
F0.9997
tp2191
a(S'yours'
p2192
g12
F0.9481
tp2193
asI211
(lp2194
(S'you'
p2195
g12
F0.9778
tp2196
a(g803
g9
F0.8378
tp2197
a(S'like'
p2198
g9
F0.5984
tp2199
a(S'to'
p2200
g20
F0.9864
tp2201
a(S'try'
p2202
g9
F0.9983
tp2203
a(S'to'
p2204
g20
F0.9901
tp2205
a(S'bite'
p2206
g9
F0.9748
tp2207
a(S'well'
p2208
g3
F0.6489
tp2209
a(S'it'
p2210
g12
F0.9972
tp2211
a(g270
g304
F0.4534
tp2212
a(S'still'
p2213
g3
F0.9921
tp2214
a(S'pretty'
p2215
g3
F0.9682
tp2216
a(S'hot'
p2217
g52
F0.9916
tp2218
a(S'how'
p2219
g3
F0.9986
tp2220
a(S'about'
p2221
g20
F0.9139
tp2222
a(S'when'
p2223
g3
F0.9049
tp2224
a(S'it'
p2225
g12
F0.9959
tp2226
a(S'cools'
p2227
g9
F0.9988
tp2228
a(S'down'
p2229
g17
F0.7782
tp2230
a(g292
g23
F0.9978
tp2231
a(S'little'
p2232
g52
F0.9806
tp2233
asI212
(lp2234
(S'xxx'
p2235
g404
F0.8437
tp2236
asI213
(lp2237
(S'okay'
p2238
g46
F0.8921
tp2239
a(S'in'
p2240
g20
F0.9971
tp2241
a(S'the'
p2242
g23
F0.9945
tp2243
a(S'meanchie'
p2244
g1018
F0.4976
tp2245
a(S'wp'
p2246
g1018
F0.6314
tp2247
a(S'you'
p2248
g12
F0.9967
tp2249
a(S'can'
p2250
g9
F0.9996
tp2251
a(S'eat'
p2252
g9
F0.9997
tp2253
a(S'yours'
p2254
g12
F0.9577
tp2255
asI214
(lp2256
(S'you'
p2257
g12
F0.9969
tp2258
a(S'can'
p2259
g9
F0.9995
tp2260
a(S'xxx'
p2261
g9
F0.8452
tp2262
a(S'right'
p2263
g3
F0.8625
tp2264
a(S'about'
p2265
g20
F0.9562
tp2266
a(S'xxx'
p2267
g404
F0.7248
tp2268
asI215
(lp2269
(S'but'
p2270
g28
F0.9902
tp2271
a(S'see'
p2272
g9
F0.9832
tp2273
a(S'if'
p2274
g20
F0.9984
tp2275
a(S'my'
p2276
g23
F0.9871
tp2277
a(S'butter'
p2278
g6
F0.9925
tp2279
a(g270
g304
F0.7101
tp2280
a(S'in'
p2281
g20
F0.9863
tp2282
a(S'there'
p2283
g3
F0.5814
tp2284
asI216
(lp2285
(S'mm'
p2286
g46
F0.4566
tp2287
a(S'mm'
p2288
g46
F0.7507
tp2289
asI217
(lp2290
(S'mm'
p2291
g46
F0.627
tp2292
asI218
(lp2293
(S'how'
p2294
g3
F0.9016
tp2295
a(S'is'
p2296
g9
F0.9994
tp2297
a(S'it'
p2298
g12
F0.9986
tp2299
asI219
(lp2300
(S'xxx'
p2301
g404
F0.6395
tp2302
a(S'said'
p2303
g9
F0.9931
tp2304
a(S'that'
p2305
g12
F0.8655
tp2306
asI220
(lp2307
(S'how'
p2308
g3
F0.9016
tp2309
a(S'is'
p2310
g9
F0.9994
tp2311
a(S'it'
p2312
g12
F0.9986
tp2313
asI221
(lp2314
(S'mm'
p2315
g46
F0.627
tp2316
asI222
(lp2317
(S'how'
p2318
g3
F0.9016
tp2319
a(S'is'
p2320
g9
F0.9994
tp2321
a(S'it'
p2322
g12
F0.9986
tp2323
asI223
(lp2324
(S'pretty'
p2325
g3
F0.9814
tp2326
a(S'good'
p2327
g52
F0.9996
tp2328
asI224
(lp2329
(S'just'
p2330
g3
F0.9991
tp2331
a(S'pretty'
p2332
g3
F0.9511
tp2333
a(S'good'
p2334
g52
F0.997
tp2335
a(S'isn'
p2336
g304
F0.4272
tp2337
a(g8
g304
F0.531
tp2338
a(S'it'
p2339
g12
F0.9619
tp2340
a(S'great'
p2341
g52
F0.9948
tp2342
a(S'or'
p2343
g28
F0.9905
tp2344
a(S'maybe'
p2345
g3
F0.982
tp2346
a(S'even'
p2347
g3
F0.9996
tp2348
a(S'delicious'
p2349
g52
F0.9982
tp2350
asI225
(lp2351
(S'delicious'
p2352
g52
F0.9475
tp2353
asI226
(lp2354
(S'mm'
p2355
g46
F0.627
tp2356
asI227
(lp2357
(S'and'
p2358
g28
F0.9989
tp2359
a(S'you'
p2360
g12
F0.9962
tp2361
a(S're'
p2362
g9
F0.9378
tp2363
a(g292
g23
F0.9892
tp2364
a(S'good'
p2365
g52
F0.997
tp2366
a(S'cooker'
p2367
g6
F0.9805
tp2368
asI228
(lp2369
(S'well'
p2370
g46
F0.9281
tp2371
a(S'thank'
p2372
g9
F0.9492
tp2373
a(S'you'
p2374
g12
F0.9797
tp2375
a(S'honey'
p2376
g6
F0.7377
tp2377
asI229
(lp2378
(S'xxx'
p2379
g404
F0.8437
tp2380
asI230
(lp2381
(S'you'
p2382
g12
F0.9754
tp2383
a(S're'
p2384
g9
F0.9434
tp2385
a(g292
g23
F0.9888
tp2386
a(S'good'
p2387
g52
F0.9985
tp2388
a(S'son'
p2389
g6
F0.9888
tp2390
asI231
(lp2391
(S'laughs'
p2392
g9
F0.9102
tp2393
asI232
(lp2394
(S'oh'
p2395
g46
F0.9878
tp2396
a(S'you'
p2397
g12
F0.9937
tp2398
a(S'put'
p2399
g9
F0.9876
tp2400
a(S'xxx'
p2401
g404
F0.2897
tp2402
a(S'on'
p2403
g20
F0.9883
tp2404
a(S'my'
p2405
g23
F0.8744
tp2406
a(S'xxx'
p2407
g6
F0.5436
tp2408
asI233
(lp2409
(S'well'
p2410
g46
F0.8573
tp2411
a(g30
g12
F0.9974
tp2412
a(S'think'
p2413
g9
F0.9997
tp2414
a(S'nelson'
p2415
g1018
F0.9859
tp2416
a(S'likes'
p2417
g9
F0.9939
tp2418
a(S'lamb'
p2419
g6
F0.9605
tp2420
a(S'chops'
p2421
g6
F0.9967
tp2422
a(S'too'
p2423
g3
F0.8541
tp2424
a(S'but'
p2425
g28
F0.9595
tp2426
a(S'the'
p2427
g23
F0.9993
tp2428
a(S'kitty'
p2429
g6
F0.9622
tp2430
a(S'has'
p2431
g9
F0.9976
tp2432
a(S'his'
p2433
g23
F0.999
tp2434
a(S'own'
p2435
g52
F0.8893
tp2436
a(S'food'
p2437
g6
F0.9946
tp2438
asI234
(lp2439
(S'hm'
p2440
g46
F0.995
tp2441
asI235
(lp2442
(S'mommy'
p2443
g6
F0.5271
tp2444
asI236
(lp2445
(S'what'
p2446
g12
F0.6657
tp2447
a(S'darling'
p2448
g6
F0.9928
tp2449
asI237
(lp2450
(S'xxx'
p2451
g404
F0.6791
tp2452
a(S'put'
p2453
g9
F0.9938
tp2454
a(S'your'
p2455
g23
F0.8112
tp2456
a(S'my'
p2457
g23
F0.7028
tp2458
a(S'my'
p2459
g23
F0.687
tp2460
a(S'your'
p2461
g23
F0.8563
tp2462
a(S'finger'
p2463
g6
F0.9978
tp2464
a(S'all'
p2465
g787
F0.5775
tp2466
a(S'the'
p2467
g23
F0.9998
tp2468
a(S'way'
p2469
g6
F0.9699
tp2470
a(S'into'
p2471
g20
F0.9998
tp2472
a(S'my'
p2473
g23
F0.9989
tp2474
a(S'ear'
p2475
g6
F0.9966
tp2476
a(S'and'
p2477
g28
F0.9951
tp2478
a(S'you'
p2479
g12
F0.9994
tp2480
a(S'will'
p2481
g9
F0.9994
tp2482
a(S'pull'
p2483
g9
F0.9992
tp2484
a(S'my'
p2485
g23
F0.999
tp2486
a(S'mouth'
p2487
g6
F0.9998
tp2488
a(S'through'
p2489
g20
F0.9991
tp2490
a(S'it'
p2491
g12
F0.9981
tp2492
asI238
(lp2493
(S'well'
p2494
g46
F0.9502
tp2495
a(S'that'
p2496
g12
F0.813
tp2497
a(g270
g9
F0.715
tp2498
a(S'your'
p2499
g23
F0.9913
tp2500
a(S'jaw'
p2501
g6
F0.9877
tp2502
a(S'going'
p2503
g9
F0.9997
tp2504
a(S'up'
p2505
g17
F0.9419
tp2506
a(S'and'
p2507
g28
F0.9973
tp2508
a(S'down'
p2509
g3
F0.6338
tp2510
a(S'but'
p2511
g28
F0.9822
tp2512
a(S'no'
p2513
g23
F0.3657
tp2514
a(S'thank'
p2515
g9
F0.5647
tp2516
a(S'you'
p2517
g12
F0.9979
tp2518
a(g30
g12
F0.7886
tp2519
a(g30
g12
F0.9011
tp2520
a(g803
g9
F0.6986
tp2521
a(S'rather'
p2522
g3
F0.9964
tp2523
a(S'not'
p2524
g3
F0.9982
tp2525
a(S'put'
p2526
g9
F0.9959
tp2527
a(S'my'
p2528
g23
F0.999
tp2529
a(S'finger'
p2530
g6
F0.9986
tp2531
a(S'in'
p2532
g20
F0.9992
tp2533
a(S'your'
p2534
g23
F0.9962
tp2535
a(S'ear'
p2536
g6
F0.9981
tp2537
asI239
(lp2538
(g30
g12
F0.9143
tp2539
a(g803
g9
F0.8852
tp2540
a(S'like'
p2541
g9
F0.5984
tp2542
a(S'to'
p2543
g20
F0.9904
tp2544
a(S'eat'
p2545
g9
F0.9996
tp2546
a(S'my'
p2547
g23
F0.9979
tp2548
a(S'dinner'
p2549
g6
F0.9985
tp2550
a(g30
g12
F0.945
tp2551
a(S'know'
p2552
g9
F0.9999
tp2553
a(S'you'
p2554
g12
F0.9959
tp2555
a(S're'
p2556
g9
F0.7411
tp2557
a(S'chewing'
p2558
g9
F0.9711
tp2559
a(S'very'
p2560
g3
F0.9965
tp2561
a(S'good'
p2562
g52
F0.9995
tp2563
a(S'come'
p2564
g6
F0.6591
tp2565
a(S'on'
p2566
g20
F0.9182
tp2567
asI240
(lp2568
(g30
g12
F0.9897
tp2569
a(S'want'
p2570
g9
F1.0
tp2571
a(S'you'
p2572
g12
F0.9989
tp2573
a(S'to'
p2574
g20
F0.9883
tp2575
a(S'chew'
p2576
g9
F0.996
tp2577
a(S'please'
p2578
g9
F0.9508
tp2579
asI241
(lp2580
(S'mom'
p2581
g6
F0.8127
tp2582
a(S'xxx'
p2583
g404
F0.7521
tp2584
a(S'xxx'
p2585
g404
F0.9782
tp2586
asI242
(lp2587
(S'no'
p2588
g46
F0.787
tp2589
a(S'not'
p2590
g3
F0.9894
tp2591
a(S'particularly'
p2592
g3
F0.9995
tp2593
a(g30
g12
F0.9515
tp2594
a(g803
g9
F0.8755
tp2595
a(S'like'
p2596
g20
F0.8069
tp2597
a(S'you'
p2598
g12
F0.9995
tp2599
a(S'to'
p2600
g20
F0.9929
tp2601
a(S'get'
p2602
g9
F0.9998
tp2603
a(S'in'
p2604
g20
F0.9623
tp2605
a(S'the'
p2606
g23
F0.9993
tp2607
a(S'chair'
p2608
g6
F0.9986
tp2609
a(S'though'
p2610
g20
F0.9439
tp2611
asI243
(lp2612
(S'can'
p2613
g9
F0.9701
tp2614
a(g30
g12
F0.9845
tp2615
a(S'eat'
p2616
g9
F0.9979
tp2617
asI244
(lp2618
(S'that'
p2619
g12
F0.473
tp2620
a(g270
g9
F0.7045
tp2621
a(S'your'
p2622
g23
F0.9906
tp2623
a(S'jaw'
p2624
g6
F0.9914
tp2625
a(S'moving'
p2626
g9
F0.9961
tp2627
a(S'inside'
p2628
g20
F0.9001
tp2629
a(S'your'
p2630
g23
F0.9958
tp2631
a(S'ear'
p2632
g6
F0.9979
tp2633
asI245
(lp2634
(S'mommy'
p2635
g6
F0.5271
tp2636
asI246
(lp2637
(S'um'
p2638
g46
F0.8765
tp2639
a(S'xxx'
p2640
g404
F0.5782
tp2641
a(S'chie'
p2642
g1018
F0.349
tp2643
a(S'for'
p2644
g20
F0.9998
tp2645
a(S'the'
p2646
g23
F0.9991
tp2647
a(S'bug'
p2648
g6
F0.9943
tp2649
a(S'to'
p2650
g20
F0.999
tp2651
a(S'come'
p2652
g9
F0.9998
tp2653
a(S'out'
p2654
g17
F0.877
tp2655
asI247
(lp2656
(S'see'
p2657
g9
F0.8335
tp2658
asI248
(lp2659
(S'he'
p2660
g12
F0.9905
tp2661
a(g270
g9
F0.8341
tp2662
a(S'on'
p2663
g20
F0.9731
tp2664
a(S'the'
p2665
g23
F0.9997
tp2666
a(S'other'
p2667
g52
F0.9801
tp2668
a(S'side'
p2669
g6
F0.9968
tp2670
a(S'of'
p2671
g20
F0.9995
tp2672
a(S'the'
p2673
g23
F0.9992
tp2674
a(S'screen'
p2675
g6
F0.9653
tp2676
a(S'that'
p2677
g20
F0.9434
tp2678
a(g270
g304
F0.538
tp2679
a(g292
g23
F0.9493
tp2680
a(S'pretty'
p2681
g3
F0.746
tp2682
a(S'big'
p2683
g52
F0.9879
tp2684
a(S'bee'
p2685
g6
F0.9899
tp2686
a(S'though'
p2687
g20
F0.9635
tp2688
a(S'huh'
p2689
g46
F0.91
tp2690
asI249
(lp2691
(S'mhm'
p2692
g46
F0.9747
tp2693
asI250
(lp2694
(S'he'
p2695
g12
F0.996
tp2696
a(S'was'
p2697
g9
F0.9998
tp2698
a(S'in'
p2699
g20
F0.9501
tp2700
a(S'he'
p2701
g12
F0.9969
tp2702
a(S'will'
p2703
g9
F0.9993
tp2704
a(S'make'
p2705
g9
F0.9995
tp2706
a(g292
g23
F0.9919
tp2707
a(S'hole'
p2708
g6
F0.9989
tp2709
a(S'in'
p2710
g20
F0.9991
tp2711
a(S'the'
p2712
g23
F0.9992
tp2713
a(S'screen'
p2714
g6
F0.9577
tp2715
asI251
(lp2716
(S'and'
p2717
g28
F0.9989
tp2718
a(S'he'
p2719
g12
F0.9979
tp2720
a(S'was'
p2721
g9
F0.9998
tp2722
a(S'in'
p2723
g20
F0.9686
tp2724
a(S'this'
p2725
g23
F0.9652
tp2726
a(S'house'
p2727
g6
F0.9818
tp2728
asI252
(lp2729
(S'he'
p2730
g12
F0.996
tp2731
a(S'was'
p2732
g9
F0.9998
tp2733
a(S'in'
p2734
g20
F0.945
tp2735
a(S'this'
p2736
g23
F0.9689
tp2737
a(S'house'
p2738
g6
F0.9616
tp2739
a(S'mommy'
p2740
g6
F0.8794
tp2741
asI253
(lp2742
(g30
g12
F0.989
tp2743
a(S'think'
p2744
g9
F0.9999
tp2745
a(S'we'
p2746
g12
F0.9952
tp2747
a(g803
g9
F0.5603
tp2748
a(S'probably'
p2749
g3
F0.9991
tp2750
a(S'get'
p2751
g9
F0.9999
tp2752
a(S'him'
p2753
g12
F0.7834
tp2754
a(S'first'
p2755
g52
F0.6202
tp2756
a(S'but'
p2757
g28
F0.9889
tp2758
a(S'we'
p2759
g12
F0.9956
tp2760
a(S're'
p2761
g9
F0.6836
tp2762
a(S'not'
p2763
g3
F0.996
tp2764
a(S'bothering'
p2765
g9
F0.9998
tp2766
a(S'him'
p2767
g12
F0.9918
tp2768
a(S'so'
p2769
g3
F0.6953
tp2770
a(g30
g12
F0.992
tp2771
a(S'think'
p2772
g9
F0.9999
tp2773
a(S'we'
p2774
g12
F0.9946
tp2775
a(S're'
p2776
g9
F0.5299
tp2777
a(S'just'
p2778
g3
F0.9995
tp2779
a(S'gonna'
p2780
g9
F0.996
tp2781
a(S'xxx'
p2782
g9
F0.958
tp2783
a(S'him'
p2784
g12
F0.9866
tp2785
asI254
(lp2786
(S'yea'
p2787
g46
F0.9847
tp2788
a(S'h'
p2789
g6
F0.1986
tp2790
a(S'go'
p2791
g9
F0.9943
tp2792
a(S'away'
p2793
g3
F0.9946
tp2794
a(S'you'
p2795
g12
F0.9962
tp2796
a(S'xxx'
p2797
g404
F0.5874
tp2798
asI255
(lp2799
(S'he'
p2800
g12
F0.9945
tp2801
a(S'won'
p2802
g9
F0.9806
tp2803
a(g8
g6
F0.3087
tp2804
a(S'go'
p2805
g9
F0.9883
tp2806
a(S'away'
p2807
g3
F0.9952
tp2808
asI256
(lp2809
(g30
g12
F0.989
tp2810
a(S'think'
p2811
g9
F0.9999
tp2812
a(S'he'
p2813
g12
F0.9981
tp2814
a(S'likes'
p2815
g9
F1.0
tp2816
a(S'us'
p2817
g12
F0.9825
tp2818
asI257
(lp2819
(S'would'
p2820
g9
F0.9987
tp2821
a(S'you'
p2822
g12
F0.9981
tp2823
a(S'eat'
p2824
g9
F0.9995
tp2825
a(S'some'
p2826
g23
F0.9936
tp2827
a(S'dinner'
p2828
g6
F0.9781
tp2829
a(S'please'
p2830
g9
F0.9614
tp2831
asI258
(lp2832
(S'mommy'
p2833
g6
F0.7607
tp2834
a(g30
g12
F0.9483
tp2835
a(S'think'
p2836
g9
F0.9999
tp2837
a(S'he'
p2838
g12
F0.9974
tp2839
a(S'likes'
p2840
g9
F0.9999
tp2841
a(S'some'
p2842
g23
F0.8042
tp2843
a(S'of'
p2844
g20
F0.9973
tp2845
a(S'our'
p2846
g23
F0.9972
tp2847
a(S'food'
p2848
g6
F0.9961
tp2849
asI259
(lp2850
(S'well'
p2851
g46
F0.8573
tp2852
a(g30
g12
F0.9974
tp2853
a(S'think'
p2854
g9
F0.9999
tp2855
a(S'that'
p2856
g23
F0.62
tp2857
a(S'bees'
p2858
g6
F0.9867
tp2859
a(S'kind'
p2860
g6
F0.9257
tp2861
a(S'of'
p2862
g20
F0.9964
tp2863
a(S'like'
p2864
g20
F0.4159
tp2865
a(S'honey'
p2866
g6
F0.9534
tp2867
asI260
(lp2868
(S'mommy'
p2869
g6
F0.5271
tp2870
asI261
(lp2871
(S'what'
p2872
g12
F0.949
tp2873
asI262
(lp2874
(S'can'
p2875
g9
F0.9755
tp2876
a(g30
g12
F0.9805
tp2877
a(S'try'
p2878
g9
F0.9999
tp2879
a(S'some'
p2880
g23
F0.8326
tp2881
a(S'of'
p2882
g20
F0.9948
tp2883
a(S'your'
p2884
g23
F0.9911
tp2885
a(S'corn'
p2886
g6
F0.9991
tp2887
asI263
(lp2888
(S'over'
p2889
g20
F0.9556
tp2890
a(S'your'
p2891
g23
F0.9908
tp2892
a(S'plate'
p2893
g6
F0.9992
tp2894
a(S'please'
p2895
g9
F0.9557
tp2896
asI264
(lp2897
(S'hot'
p2898
g52
F0.8061
tp2899
asI265
(lp2900
(S'yeah'
p2901
g46
F0.9968
tp2902
a(g30
g12
F0.9954
tp2903
a(S'told'
p2904
g9
F1.0
tp2905
a(S'you'
p2906
g12
F0.9969
tp2907
a(S'it'
p2908
g12
F0.9812
tp2909
a(S'was'
p2910
g9
F0.9983
tp2911
a(S'hot'
p2912
g52
F0.9848
tp2913
asI266
(lp2914
(g30
g12
F0.9756
tp2915
a(S'wasn'
p2916
g9
F0.9748
tp2917
a(g8
g9
F0.2861
tp2918
a(S'kiddin'
p2919
g9
F0.7897
tp2920
a(S'g'
p2921
g304
F0.3283
tp2922
a(S'huh'
p2923
g46
F0.9306
tp2924
asI267
(lp2925
(S'it'
p2926
g12
F0.9888
tp2927
a(g270
g9
F0.6231
tp2928
a(S'good'
p2929
g52
F0.9904
tp2930
a(S'though'
p2931
g20
F0.8677
tp2932
asI268
(lp2933
(S'try'
p2934
g9
F0.9913
tp2935
a(S'the'
p2936
g23
F0.9985
tp2937
a(S'end'
p2938
g6
F0.9845
tp2939
a(S'the'
p2940
g23
F0.9963
tp2941
a(S'end'
p2942
g6
F0.9911
tp2943
a(S'is'
p2944
g9
F0.9893
tp2945
a(S'is'
p2946
g9
F0.9969
tp2947
a(g292
g23
F0.9984
tp2948
a(S'little'
p2949
g52
F0.9267
tp2950
a(S'cooler'
p2951
g52
F0.9533
tp2952
asI269
(lp2953
(S'the'
p2954
g23
F0.9972
tp2955
a(S'end'
p2956
g6
F0.9855
tp2957
asI270
(lp2958
(S'yeah'
p2959
g46
F0.9947
tp2960
a(S'the'
p2961
g23
F0.9954
tp2962
a(S'end'
p2963
g6
F0.9882
tp2964
a(S'right'
p2965
g3
F0.8815
tp2966
a(S'here'
p2967
g3
F0.977
tp2968
asI271
(lp2969
(S'xxx'
p2970
g404
F0.663
tp2971
a(S'can'
p2972
g9
F0.9896
tp2973
a(g30
g12
F0.9862
tp2974
a(S'have'
p2975
g9
F0.9999
tp2976
a(g292
g23
F0.9991
tp2977
a(S'little'
p2978
g52
F0.9574
tp2979
a(S'bite'
p2980
g6
F0.9373
tp2981
asI272
(lp2982
(S'how'
p2983
g3
F0.9957
tp2984
a(S'about'
p2985
g20
F0.9243
tp2986
a(g30
g12
F0.9979
tp2987
a(S'save'
p2988
g9
F0.9998
tp2989
a(S'you'
p2990
g12
F0.9926
tp2991
a(S'some'
p2992
g23
F0.7217
tp2993
a(S'and'
p2994
g28
F0.9951
tp2995
a(S'in'
p2996
g20
F0.9893
tp2997
a(S'the'
p2998
g23
F0.995
tp2999
a(S'meanchie'
p3000
g1018
F0.473
tp3001
a(S'wp'
p3002
g1018
F0.6314
tp3003
a(S'you'
p3004
g12
F0.996
tp3005
a(S'eat'
p3006
g9
F0.9994
tp3007
a(S'some'
p3008
g23
F0.8787
tp3009
a(S'of'
p3010
g20
F0.9953
tp3011
a(S'yours'
p3012
g12
F0.9695
tp3013
a(S'too'
p3014
g3
F0.9937
tp3015
asI273
(lp3016
(S'xxx'
p3017
g404
F0.6625
tp3018
a(S'lamb'
p3019
g6
F0.9576
tp3020
a(S'chops'
p3021
g6
F0.9952
tp3022
a(S'and'
p3023
g28
F0.9953
tp3024
a(S'my'
p3025
g23
F0.9767
tp3026
a(S'mashed'
p3027
g52
F0.9437
tp3028
a(S'potatoes'
p3029
g6
F0.9988
tp3030
a(S'but'
p3031
g28
F0.9852
tp3032
a(S'xxx'
p3033
g404
F0.7531
tp3034
asI274
(lp3035
(S'the'
p3036
g23
F0.9981
tp3037
a(S'butter'
p3038
g6
F0.9617
tp3039
a(g270
g304
F0.6694
tp3040
a(S'all'
p3041
g23
F0.772
tp3042
a(S'gone'
p3043
g52
F0.5799
tp3044
asI275
(lp3045
(S'it'
p3046
g12
F0.9694
tp3047
asI276
(lp3048
(S'well'
p3049
g46
F0.7553
tp3050
a(S'it'
p3051
g12
F0.9978
tp3052
a(g270
g9
F0.595
tp3053
a(S'not'
p3054
g3
F0.9892
tp3055
a(S'all'
p3056
g23
F0.6837
tp3057
a(S'gone'
p3058
g9
F0.829
tp3059
a(S'it'
p3060
g12
F0.9861
tp3061
a(S'just'
p3062
g3
F0.9996
tp3063
a(S'melted'
p3064
g9
F0.9612
tp3065
a(S'onto'
p3066
g20
F0.9944
tp3067
a(S'your'
p3068
g23
F0.9923
tp3069
a(S'corn'
p3070
g6
F0.9978
tp3071
a(S'honey'
p3072
g6
F0.9664
tp3073
a(S'and'
p3074
g28
F0.9968
tp3075
a(S'now'
p3076
g3
F0.9901
tp3077
a(S'your'
p3078
g23
F0.974
tp3079
a(S'corn'
p3080
g6
F0.9983
tp3081
a(g270
g304
F0.7398
tp3082
a(S'all'
p3083
g23
F0.9292
tp3084
a(S'buttery'
p3085
g52
F0.9931
tp3086
asI277
(lp3087
(S'it'
p3088
g12
F0.9944
tp3089
a(S'exploded'
p3090
g9
F0.9889
tp3091
asI278
(lp3092
(S'it'
p3093
g12
F0.9944
tp3094
a(S'exploded'
p3095
g9
F0.9955
tp3096
a(S'where'
p3097
g3
F0.9742
tp3098
asI279
(lp3099
(S'it'
p3100
g12
F0.9949
tp3101
a(S'disappeared'
p3102
g9
F0.9664
tp3103
a(g30
g12
F0.9951
tp3104
a(S'mean'
p3105
g9
F0.9774
tp3106
asI280
(lp3107
(S'disappeared'
p3108
g9
F0.9025
tp3109
asI281
(lp3110
(S'mhm'
p3111
g46
F0.9747
tp3112
asI282
(lp3113
(S'now'
p3114
g3
F0.9868
tp3115
a(S'xxx'
p3116
g404
F0.5919
tp3117
a(S'touch'
p3118
g9
F0.9252
tp3119
a(S'him'
p3120
g12
F0.9887
tp3121
asI283
(lp3122
(S'no'
p3123
g23
F0.8151
tp3124
a(S'honey'
p3125
g6
F0.9961
tp3126
asI284
(lp3127
(S'kitty'
p3128
g6
F0.7154
tp3129
a(g270
g304
F0.7858
tp3130
a(S'not'
p3131
g3
F0.9939
tp3132
a(S'supposed'
p3133
g52
F0.7064
tp3134
a(S'to'
p3135
g20
F0.997
tp3136
a(S'bother'
p3137
g9
F0.9998
tp3138
a(S'us'
p3139
g12
F0.9885
tp3140
a(S'at'
p3141
g20
F0.9994
tp3142
a(S'the'
p3143
g23
F0.9995
tp3144
a(S'supper'
p3145
g6
F0.9025
tp3146
a(S'table'
p3147
g6
F0.9967
tp3148
asI285
(lp3149
(S'oh'
p3150
g46
F0.9901
tp3151
a(S'mommy'
p3152
g6
F0.5535
tp3153
a(g30
g12
F0.9485
tp3154
a(S'can'
p3155
g9
F0.9998
tp3156
a(S'see'
p3157
g9
F0.9998
tp3158
a(S'your'
p3159
g23
F0.997
tp3160
a(S'car'
p3161
g6
F0.9981
tp3162
a(S'but'
p3163
g28
F0.9923
tp3164
a(S'nobody'
p3165
g6
F0.8707
tp3166
a(S'locked'
p3167
g9
F0.9991
tp3168
a(S'it'
p3169
g12
F0.9858
tp3170
asI286
(lp3171
(S'nobody'
p3172
g6
F0.9436
tp3173
a(S'locked'
p3174
g9
F0.998
tp3175
a(S'it'
p3176
g12
F0.9848
tp3177
asI287
(lp3178
(S'xxx'
p3179
g404
F0.6216
tp3180
a(S'must'
p3181
g9
F0.981
tp3182
a(S'have'
p3183
g9
F0.9994
tp3184
a(S'locked'
p3185
g9
F0.9898
tp3186
a(S'it'
p3187
g12
F0.9838
tp3188
asI288
(lp3189
(S'xxx'
p3190
g404
F0.5417
tp3191
a(S'borrowed'
p3192
g9
F0.9798
tp3193
a(S'it'
p3194
g12
F0.9233
tp3195
a(S'ten'
p3196
g813
F0.7971
tp3197
a(S'days'
p3198
g6
F0.9903
tp3199
asI289
(lp3200
(S'hey'
p3201
g46
F0.9942
tp3202
a(S'so'
p3203
g20
F0.5741
tp3204
a(S'did'
p3205
g9
F0.9977
tp3206
a(S'you'
p3207
g12
F0.9993
tp3208
a(S'have'
p3209
g9
F0.997
tp3210
a(S'breakfast'
p3211
g6
F0.9866
tp3212
a(S'with'
p3213
g20
F0.9989
tp3214
a(S'papa'
p3215
g1018
F0.9683
tp3216
a(S'today'
p3217
g6
F0.9836
tp3218
asI290
(lp3219
(S'yep'
p3220
g46
F0.9977
tp3221
asI291
(lp3222
(S'what'
p3223
g12
F0.9965
tp3224
a(S'did'
p3225
g9
F0.9992
tp3226
a(S'you'
p3227
g12
F0.9995
tp3228
a(S'have'
p3229
g9
F0.9967
tp3230
asI292
(lp3231
(S'um'
p3232
g46
F0.9584
tp3233
a(g30
g12
F0.9921
tp3234
a(S'had'
p3235
g9
F0.9998
tp3236
a(S'butter'
p3237
g6
F0.9522
tp3238
a(S'and'
p3239
g28
F0.9985
tp3240
a(S'bread'
p3241
g6
F0.9905
tp3242
asI293
(lp3243
(S'yeah'
p3244
g46
F0.9988
tp3245
asI294
(lp3246
(S'and'
p3247
g28
F0.9992
tp3248
a(S'um'
p3249
g46
F0.8492
tp3250
a(g30
g12
F0.9913
tp3251
a(S'had'
p3252
g9
F0.9997
tp3253
a(S'bacon'
p3254
g6
F0.9855
tp3255
a(S'and'
p3256
g28
F0.9981
tp3257
a(g30
g12
F0.9933
tp3258
a(S'ate'
p3259
g9
F0.9987
tp3260
asI295
(lp3261
(S'yeah'
p3262
g46
F0.9988
tp3263
asI296
(lp3264
(S'xxx'
p3265
g404
F0.8437
tp3266
asI297
(lp3267
(S'sounds'
p3268
g9
F0.9523
tp3269
a(S'like'
p3270
g20
F0.9659
tp3271
a(g292
g23
F0.9902
tp3272
a(S'good'
p3273
g52
F0.998
tp3274
a(S'size'
p3275
g6
F0.998
tp3276
a(S'breakfast'
p3277
g6
F0.9782
tp3278
a(S'to'
p3279
g20
F0.9993
tp3280
a(S'me'
p3281
g12
F0.9988
tp3282
asI298
(lp3283
(S'papa'
p3284
g1018
F0.9631
tp3285
a(S'cooks'
p3286
g6
F0.6637
tp3287
a(S'breakfast'
p3288
g6
F0.9293
tp3289
a(S'real'
p3290
g3
F0.6847
tp3291
a(S'good'
p3292
g52
F0.9992
tp3293
a(S'huh'
p3294
g46
F0.8669
tp3295
asI299
(lp3296
(S'mhm'
p3297
g46
F0.9747
tp3298
asI300
(lp3299
(S'laughs'
p3300
g9
F0.9102
tp3301
asI301
(lp3302
(S'mommy'
p3303
g6
F0.5271
tp3304
asI302
(lp3305
(S'hm'
p3306
g46
F0.995
tp3307
asI303
(lp3308
(g30
g12
F0.9756
tp3309
a(S'didn'
p3310
g9
F0.9919
tp3311
a(g8
g9
F0.7449
tp3312
a(S'know'
p3313
g9
F0.9817
tp3314
a(S'nelson'
p3315
g1018
F0.9709
tp3316
a(S'can'
p3317
g9
F0.9931
tp3318
a(S'do'
p3319
g9
F0.9999
tp3320
a(S'that'
p3321
g12
F0.881
tp3322
asI304
(lp3323
(S'could'
p3324
g9
F0.9761
tp3325
a(S'can'
p3326
g9
F0.9993
tp3327
a(S'do'
p3328
g9
F0.9996
tp3329
a(S'what'
p3330
g12
F0.9929
tp3331
asI305
(lp3332
(S'can'
p3333
g9
F0.9759
tp3334
a(S'xxx'
p3335
g9
F0.6551
tp3336
a(S'go'
p3337
g9
F0.9981
tp3338
a(S'up'
p3339
g17
F0.7528
tp3340
a(S'there'
p3341
g3
F0.7635
tp3342
asI306
(lp3343
(g30
g12
F0.989
tp3344
a(S'think'
p3345
g9
F0.9999
tp3346
a(S'he'
p3347
g12
F0.996
tp3348
a(S'jumped'
p3349
g9
F0.9985
tp3350
a(S'right'
p3351
g3
F0.8689
tp3352
a(S'over'
p3353
g20
F0.901
tp3354
asI307
(lp3355
(S'xxx'
p3356
g404
F0.7701
tp3357
a(S'he'
p3358
g12
F0.9911
tp3359
a(g270
g9
F0.6609
tp3360
a(S'he'
p3361
g12
F0.9966
tp3362
a(g270
g9
F0.8226
tp3363
a(S'on'
p3364
g20
F0.9854
tp3365
a(S'the'
p3366
g23
F0.9995
tp3367
a(S'ledge'
p3368
g6
F0.993
tp3369
a(S'so'
p3370
g20
F0.9782
tp3371
a(S'he'
p3372
g12
F0.9956
tp3373
a(g270
g304
F0.6303
tp3374
a(S'okay'
p3375
g46
F0.8117
tp3376
asI308
(lp3377
(S'mommy'
p3378
g6
F0.6334
tp3379
a(S'look'
p3380
g9
F0.9272
tp3381
asI309
(lp3382
(S'me'
p3383
g12
F0.9974
tp3384
a(S'and'
p3385
g28
F0.9933
tp3386
a(S'daddy'
p3387
g6
F0.9886
tp3388
a(S'played'
p3389
g9
F0.9866
tp3390
a(S'xxx'
p3391
g404
F0.7952
tp3392
asI310
(lp3393
(S'and'
p3394
g28
F0.9989
tp3395
a(S'he'
p3396
g12
F0.9971
tp3397
a(S'can'
p3398
g9
F0.9998
tp3399
a(S'do'
p3400
g9
F1.0
tp3401
a(S'it'
p3402
g12
F0.9923
tp3403
a(S'with'
p3404
g20
F0.9991
tp3405
a(S'you'
p3406
g12
F0.9993
tp3407
a(S'in'
p3408
g20
F0.9577
tp3409
a(g292
g23
F0.9964
tp3410
a(S'room'
p3411
g6
F0.9937
tp3412
asI311
(lp3413
(g30
g12
F0.9873
tp3414
a(S'can'
p3415
g9
F0.9999
tp3416
a(S'do'
p3417
g9
F1.0
tp3418
a(S'it'
p3419
g12
F0.9899
tp3420
a(S'with'
p3421
g20
F0.9991
tp3422
a(S'you'
p3423
g12
F0.9993
tp3424
a(S'in'
p3425
g20
F0.9643
tp3426
a(g292
g23
F0.9964
tp3427
a(S'room'
p3428
g6
F0.9972
tp3429
asI312
(lp3430
(S'how'
p3431
g3
F0.9435
tp3432
asI313
(lp3433
(g30
g12
F0.9873
tp3434
a(S'can'
p3435
g9
F0.9996
tp3436
a(S'spray'
p3437
g9
F0.9165
tp3438
a(S'it'
p3439
g12
F0.9756
tp3440
a(S'in'
p3441
g20
F0.9361
tp3442
a(S'your'
p3443
g23
F0.9899
tp3444
a(S'window'
p3445
g6
F0.9983
tp3446
asI314
(lp3447
(S'oh'
p3448
g46
F0.9975
tp3449
a(S'yeah'
p3450
g46
F0.9995
tp3451
a(g30
g12
F0.9961
tp3452
a(S'remember'
p3453
g9
F0.9998
tp3454
a(S'that'
p3455
g12
F0.7772
tp3456
asI315
(lp3457
(S'we'
p3458
g12
F0.9969
tp3459
a(S'can'
p3460
g9
F0.9995
tp3461
a(S'xxx'
p3462
g404
F0.3939
tp3463
a(S'yeah'
p3464
g46
F0.9863
tp3465
a(S'we'
p3466
g12
F0.9986
tp3467
a(S'can'
p3468
g9
F0.9996
tp3469
a(S'show'
p3470
g9
F0.9895
tp3471
a(S'you'
p3472
g12
F0.9971
tp3473
a(S'xxx'
p3474
g404
F0.4358
tp3475
asI316
(lp3476
(g30
g12
F0.9635
tp3477
a(S'don'
p3478
g9
F0.9231
tp3479
a(g8
g9
F0.2823
tp3480
a(S'think'
p3481
g9
F0.9775
tp3482
a(S'so'
p3483
g3
F0.8655
tp3484
asI317
(lp3485
(S'daddy'
p3486
g6
F0.9719
tp3487
a(S'just'
p3488
g3
F0.9987
tp3489
a(S'did'
p3490
g9
F0.9996
tp3491
a(S'that'
p3492
g12
F0.5041
tp3493
a(S'that'
p3494
g23
F0.6753
tp3495
a(S'one'
p3496
g813
F0.9109
tp3497
a(S'chie'
p3498
g304
F0.2261
tp3499
a(S'because'
p3500
g20
F0.999
tp3501
a(S'he'
p3502
g12
F0.9993
tp3503
a(S'was'
p3504
g9
F0.9997
tp3505
a(S'being'
p3506
g9
F0.9285
tp3507
a(S'funny'
p3508
g52
F0.9986
tp3509
asI318
(lp3510
(S'but'
p3511
g28
F0.9944
tp3512
a(S'we'
p3513
g12
F0.9977
tp3514
a(S'but'
p3515
g28
F0.9811
tp3516
a(S'we'
p3517
g12
F0.9984
tp3518
a(S'can'
p3519
g9
F0.9998
tp3520
a(S'be'
p3521
g9
F0.9992
tp3522
a(S'funny'
p3523
g52
F0.998
tp3524
a(S'too'
p3525
g3
F0.9261
tp3526
a(S'huh'
p3527
g46
F0.8875
tp3528
asI319
(lp3529
(S'we'
p3530
g12
F0.9966
tp3531
a(S'can'
p3532
g9
F0.9995
tp3533
asI320
(lp3534
(g30
g12
F0.9908
tp3535
a(S'know'
p3536
g9
F0.9993
tp3537
a(S'but'
p3538
g28
F0.9861
tp3539
a(g30
g12
F0.9949
tp3540
a(S'think'
p3541
g9
F1.0
tp3542
a(S'it'
p3543
g12
F0.9956
tp3544
a(S'might'
p3545
g9
F0.996
tp3546
a(S'get'
p3547
g9
F0.9996
tp3548
a(S'messy'
p3549
g52
F0.9991
tp3550
a(S'honey'
p3551
g6
F0.9742
tp3552
a(S'no'
p3553
g23
F0.4118
tp3554
a(S'spraying'
p3555
g6
F0.5942
tp3556
a(S'water'
p3557
g6
F0.9903
tp3558
a(S'in'
p3559
g20
F0.9985
tp3560
a(S'my'
p3561
g23
F0.9965
tp3562
a(S'bed'
p3563
g6
F0.9723
tp3564
a(S'room'
p3565
g6
F0.9788
tp3566
a(S'window'
p3567
g6
F0.9849
tp3568
a(S'please'
p3569
g9
F0.9743
tp3570
asI321
(lp3571
(S'maybe'
p3572
g3
F0.9387
tp3573
a(S'we'
p3574
g12
F0.9984
tp3575
a(S'can'
p3576
g9
F0.9998
tp3577
a(S'do'
p3578
g9
F1.0
tp3579
a(S'it'
p3580
g12
F0.9954
tp3581
a(S'down'
p3582
g17
F0.5495
tp3583
a(S'there'
p3584
g3
F0.8278
tp3585
asI322
(lp3586
(S'know'
p3587
g9
F0.9631
tp3588
a(S'what'
p3589
g12
F0.985
tp3590
a(g30
g12
F0.987
tp3591
a(S'use'
p3592
g9
F0.9965
tp3593
a(S'that'
p3594
g12
F0.7806
tp3595
a(S'for'
p3596
g20
F0.9924
tp3597
asI323
(lp3598
(S'what'
p3599
g12
F0.949
tp3600
asI324
(lp3601
(S'that'
p3602
g12
F0.473
tp3603
a(g270
g9
F0.5802
tp3604
a(S'for'
p3605
g20
F0.9928
tp3606
a(S'when'
p3607
g3
F0.9588
tp3608
a(S'you'
p3609
g12
F0.9987
tp3610
a(S'cook'
p3611
g9
F0.9989
tp3612
a(S'the'
p3613
g23
F0.9995
tp3614
a(S'lamb'
p3615
g6
F0.9822
tp3616
a(S'chops'
p3617
g6
F0.9958
tp3618
a(S'on'
p3619
g20
F0.9994
tp3620
a(S'the'
p3621
g23
F0.9993
tp3622
a(S'barbecue'
p3623
g6
F0.9925
tp3624
a(S'somechies'
p3625
g6
F0.6082
tp3626
a(S'wp'
p3627
g9
F0.364
tp3628
a(S'the'
p3629
g23
F0.9991
tp3630
a(S'fire'
p3631
g6
F0.8694
tp3632
a(S'gets'
p3633
g9
F0.9964
tp3634
a(S'real'
p3635
g52
F0.8675
tp3636
a(S'um'
p3637
g46
F0.6071
tp3638
a(S'strong'
p3639
g52
F0.9891
tp3640
a(S'and'
p3641
g28
F0.9982
tp3642
a(S'burns'
p3643
g9
F0.9836
tp3644
a(S'them'
p3645
g12
F0.9343
tp3646
a(S'so'
p3647
g3
F0.7381
tp3648
a(g30
g12
F0.8988
tp3649
a(S'spray'
p3650
g9
F0.969
tp3651
a(S'the'
p3652
g23
F0.999
tp3653
a(S'fire'
p3654
g6
F0.8972
tp3655
a(S'with'
p3656
g20
F0.9994
tp3657
a(S'that'
p3658
g12
F0.9001
tp3659
a(S'and'
p3660
g28
F0.9977
tp3661
a(S'it'
p3662
g12
F0.9971
tp3663
a(g270
g9
F0.7063
tp3664
a(S'gone'
p3665
g9
F0.8024
tp3666
asI325
(lp3667
(S'and'
p3668
g28
F0.9991
tp3669
a(S'they'
p3670
g12
F0.9896
tp3671
a(S'don'
p3672
g9
F0.8571
tp3673
a(g8
g20
F0.3046
tp3674
a(S'get'
p3675
g9
F0.996
tp3676
a(S'too'
p3677
g3
F0.8455
tp3678
a(S'burnt'
p3679
g52
F0.6317
tp3680
asI326
(lp3681
(S'and'
p3682
g28
F0.9991
tp3683
a(S'they'
p3684
g12
F0.994
tp3685
a(S'and'
p3686
g28
F0.9946
tp3687
a(S'they'
p3688
g12
F0.9804
tp3689
a(S'um'
p3690
g9
F0.3202
tp3691
a(S'make'
p3692
g9
F0.9971
tp3693
a(S'it'
p3694
g12
F0.8953
tp3695
a(S'xxx'
p3696
g9
F0.3522
tp3697
a(S'and'
p3698
g28
F0.9972
tp3699
a(S'make'
p3700
g9
F0.9976
tp3701
a(S'it'
p3702
g12
F0.7547
tp3703
a(S'the'
p3704
g23
F0.9993
tp3705
a(S'fire'
p3706
g6
F0.9547
tp3707
a(S'get'
p3708
g9
F0.9865
tp3709
a(S'gone'
p3710
g9
F0.7281
tp3711
asI327
(lp3712
(S'yeah'
p3713
g46
F0.9983
tp3714
a(S'that'
p3715
g12
F0.729
tp3716
a(g270
g9
F0.5495
tp3717
a(S'right'
p3718
g52
F0.3578
tp3719
asI328
(lp3720
(S'mommy'
p3721
g6
F0.5271
tp3722
asI329
(lp3723
(S'fire'
p3724
g6
F0.5612
tp3725
a(S'go'
p3726
g9
F0.9743
tp3727
a(S'right'
p3728
g3
F0.9395
tp3729
a(S'out'
p3730
g20
F0.5307
tp3731
asI330
(lp3732
(S'mommy'
p3733
g6
F0.5271
tp3734
asI331
(lp3735
(S'what'
p3736
g12
F0.949
tp3737
asI332
(lp3738
(S'we'
p3739
g12
F0.9969
tp3740
a(S'can'
p3741
g9
F0.9998
tp3742
a(S'play'
p3743
g9
F0.9983
tp3744
a(S'firemen'
p3745
g6
F0.9375
tp3746
a(S'in'
p3747
g20
F0.9959
tp3748
a(S'your'
p3749
g23
F0.9923
tp3750
a(S'car'
p3751
g6
F0.9988
tp3752
asI333
(lp3753
(S'we'
p3754
g12
F0.9969
tp3755
a(S'can'
p3756
g9
F0.9998
tp3757
a(S'do'
p3758
g9
F0.9999
tp3759
a(S'this'
p3760
g12
F0.6873
tp3761
asI334
(lp3762
(S'we'
p3763
g12
F0.9969
tp3764
a(S'can'
p3765
g9
F0.9999
tp3766
a(S'blow'
p3767
g9
F0.7887
tp3768
a(S'water'
p3769
g6
F0.9331
tp3770
a(S'on'
p3771
g20
F0.9982
tp3772
a(S'your'
p3773
g23
F0.9909
tp3774
a(S'window'
p3775
g6
F0.9983
tp3776
asI335
(lp3777
(S'we'
p3778
g12
F0.9969
tp3779
a(S'can'
p3780
g9
F0.9999
tp3781
a(S'um'
p3782
g46
F0.5678
tp3783
a(S'we'
p3784
g12
F0.9972
tp3785
a(S'can'
p3786
g9
F0.9999
tp3787
a(S'um'
p3788
g46
F0.5371
tp3789
a(S'and'
p3790
g28
F0.9984
tp3791
a(S'then'
p3792
g3
F0.98
tp3793
a(S'we'
p3794
g12
F0.9982
tp3795
a(S'can'
p3796
g9
F0.9996
tp3797
a(S'xxx'
p3798
g9
F0.929
tp3799
a(S'it'
p3800
g12
F0.9881
tp3801
asI336
(lp3802
(S'and'
p3803
g28
F0.9987
tp3804
a(S'then'
p3805
g3
F0.9312
tp3806
a(S'your'
p3807
g23
F0.9372
tp3808
a(S'car'
p3809
g6
F0.9988
tp3810
a(S'will'
p3811
g9
F0.9932
tp3812
a(S'be'
p3813
g9
F0.9991
tp3814
a(S'nice'
p3815
g52
F0.9969
tp3816
a(S'and'
p3817
g28
F0.998
tp3818
a(S'clean'
p3819
g52
F0.7552
tp3820
a(S'xxx'
p3821
g404
F0.6914
tp3822
asI337
(lp3823
(S'yeah'
p3824
g46
F0.9988
tp3825
asI338
(lp3826
(S'you'
p3827
g12
F0.9955
tp3828
a(S'having'
p3829
g9
F0.9994
tp3830
a(S'trouble'
p3831
g6
F0.9684
tp3832
a(S'getting'
p3833
g9
F0.9986
tp3834
a(S'the'
p3835
g23
F0.9995
tp3836
a(S'corn'
p3837
g6
F0.998
tp3838
a(S'on'
p3839
g20
F0.9992
tp3840
a(S'your'
p3841
g23
F0.9936
tp3842
a(S'spoon'
p3843
g6
F0.9965
tp3844
asI339
(lp3845
(S'nope'
p3846
g46
F0.996
tp3847
asI340
(lp3848
(S'you'
p3849
g12
F0.9754
tp3850
a(S're'
p3851
g9
F0.7607
tp3852
a(S'doing'
p3853
g9
F0.9946
tp3854
a(S'pretty'
p3855
g3
F0.983
tp3856
a(S'good'
p3857
g52
F0.998
tp3858
a(S'at'
p3859
g20
F0.9957
tp3860
a(S'xxx'
p3861
g404
F0.6276
tp3862
asI341
(lp3863
(S'mommy'
p3864
g6
F0.7055
tp3865
a(S'watch'
p3866
g9
F0.9545
tp3867
asI342
(lp3868
(S'xxx'
p3869
g404
F0.5437
tp3870
a(S'my'
p3871
g23
F0.9913
tp3872
a(S'dad'
p3873
g6
F0.9976
tp3874
asI343
(lp3875
(S'yeah'
p3876
g46
F0.9983
tp3877
a(S'that'
p3878
g12
F0.729
tp3879
a(g270
g304
F0.6838
tp3880
a(S'okay'
p3881
g46
F0.8018
tp3882
asI344
(lp3883
(S'you'
p3884
g12
F0.9983
tp3885
a(S'know'
p3886
g9
F0.9986
tp3887
a(S'what'
p3888
g12
F0.992
tp3889
a(S'else'
p3890
g3
F0.9314
tp3891
a(S'might'
p3892
g9
F0.9925
tp3893
a(S'be'
p3894
g9
F0.9994
tp3895
a(S'easier'
p3896
g52
F0.9645
tp3897
asI345
(lp3898
(S'if'
p3899
g20
F0.9977
tp3900
a(S'you'
p3901
g12
F0.9996
tp3902
a(S'just'
p3903
g3
F0.9994
tp3904
a(S'do'
p3905
g9
F0.9998
tp3906
a(S'it'
p3907
g12
F0.9955
tp3908
a(S'sideways'
p3909
g3
F0.9884
tp3910
a(S'and'
p3911
g28
F0.9967
tp3912
a(S'make'
p3913
g9
F0.9976
tp3914
a(S'it'
p3915
g12
F0.8463
tp3916
a(S'crash'
p3917
g9
F0.9766
tp3918
a(S'into'
p3919
g20
F0.9976
tp3920
a(S'your'
p3921
g23
F0.9804
tp3922
a(S'mashed'
p3923
g52
F0.7987
tp3924
a(S'potatoes'
p3925
g6
F0.9992
tp3926
a(S'and'
p3927
g28
F0.9959
tp3928
a(S'you'
p3929
g12
F0.9995
tp3930
a(S'won'
p3931
g9
F0.978
tp3932
a(g8
g20
F0.2368
tp3933
a(S'chase'
p3934
g9
F0.9858
tp3935
a(S'them'
p3936
g12
F0.9615
tp3937
a(S'all'
p3938
g23
F0.7719
tp3939
a(S'over'
p3940
g20
F0.693
tp3941
asI346
(lp3942
(S'mommy'
p3943
g6
F0.6334
tp3944
a(S'look'
p3945
g9
F0.9272
tp3946
asI347
(lp3947
(S'mommy'
p3948
g6
F0.7607
tp3949
a(g30
g12
F0.9549
tp3950
a(S'told'
p3951
g9
F1.0
tp3952
a(S'you'
p3953
g12
F0.9958
tp3954
a(g30
g12
F0.837
tp3955
a(S'needed'
p3956
g9
F0.9983
tp3957
a(S'to'
p3958
g20
F0.9909
tp3959
a(S'um'
p3960
g46
F0.6157
tp3961
asI348
(lp3962
(S'to'
p3963
g20
F0.9867
tp3964
a(S'what'
p3965
g12
F0.9937
tp3966
asI349
(lp3967
(S'to'
p3968
g20
F0.968
tp3969
a(S'to'
p3970
g20
F0.8831
tp3971
a(S'um'
p3972
g46
F0.6347
tp3973
asI350
(lp3974
(S'fork'
p3975
g6
F0.9018
tp3976
a(S'and'
p3977
g28
F0.9991
tp3978
a(g292
g23
F0.9943
tp3979
a(S'spoon'
p3980
g6
F0.9921
tp3981
a(S'xxx'
p3982
g404
F0.7642
tp3983
a(S'okay'
p3984
g46
F0.8389
tp3985
asI351
(lp3986
(S'how'
p3987
g3
F0.9703
tp3988
a(S'do'
p3989
g9
F0.9987
tp3990
a(S'you'
p3991
g12
F0.999
tp3992
a(S'like'
p3993
g9
F0.6909
tp3994
a(S'eating'
p3995
g9
F0.9927
tp3996
a(S'on'
p3997
g20
F0.9922
tp3998
a(S'the'
p3999
g23
F0.9922
tp4000
a(S'back'
p4001
g6
F0.5074
tp4002
a(S'porch'
p4003
g6
F0.9936
tp4004
asI352
(lp4005
(S'pretty'
p4006
g3
F0.9814
tp4007
a(S'good'
p4008
g52
F0.9996
tp4009
asI353
(lp4010
(S'we'
p4011
g12
F0.9631
tp4012
a(S'haven'
p4013
g9
F0.4912
tp4014
a(g8
g304
F0.2156
tp4015
a(S'done'
p4016
g9
F0.9872
tp4017
a(S'this'
p4018
g12
F0.6125
tp4019
a(S'in'
p4020
g20
F0.8848
tp4021
a(g292
g23
F0.7627
tp4022
a(S'while'
p4023
g6
F0.5584
tp4024
a(S'huh'
p4025
g46
F0.9041
tp4026
asI354
(lp4027
(S'nuhhuh'
p4028
g46
F0.533
tp4029
asI355
(lp4030
(S'know'
p4031
g9
F0.9631
tp4032
a(S'what'
p4033
g12
F0.9975
tp4034
a(S'made'
p4035
g9
F0.9989
tp4036
a(S'me'
p4037
g12
F0.9994
tp4038
a(S'remember'
p4039
g9
F0.9899
tp4040
asI356
(lp4041
(S'hm'
p4042
g46
F0.995
tp4043
asI357
(lp4044
(S'you'
p4045
g12
F0.9984
tp4046
a(S'mentioned'
p4047
g9
F0.9999
tp4048
a(S'it'
p4049
g12
F0.9441
tp4050
a(S'last'
p4051
g52
F0.9819
tp4052
a(S'night'
p4053
g6
F0.9938
tp4054
a(S'that'
p4055
g20
F0.9487
tp4056
a(S'you'
p4057
g12
F0.9981
tp4058
a(g803
g9
F0.8274
tp4059
a(S'like'
p4060
g9
F0.527
tp4061
a(S'to'
p4062
g20
F0.99
tp4063
a(S'eat'
p4064
g9
F0.9975
tp4065
a(S'on'
p4066
g20
F0.9807
tp4067
a(S'the'
p4068
g23
F0.9914
tp4069
a(S'back'
p4070
g6
F0.5879
tp4071
a(S'porch'
p4072
g6
F0.9926
tp4073
asI358
(lp4074
(S'mhm'
p4075
g46
F0.9747
tp4076
asI359
(lp4077
(S'and'
p4078
g28
F0.9982
tp4079
a(S'that'
p4080
g12
F0.9231
tp4081
a(S'gave'
p4082
g9
F0.9999
tp4083
a(S'me'
p4084
g12
F0.9967
tp4085
a(S'an'
p4086
g23
F0.9852
tp4087
a(S'idea'
p4088
g6
F0.9782
tp4089
asI360
(lp4090
(S'mhm'
p4091
g46
F0.9747
tp4092
asI361
(lp4093
(S'think'
p4094
g9
F0.9825
tp4095
a(S'maybe'
p4096
g3
F0.974
tp4097
a(S'you'
p4098
g12
F0.9996
tp4099
a(S'need'
p4100
g9
F0.9984
tp4101
a(S'to'
p4102
g20
F0.9817
tp4103
a(S'drink'
p4104
g9
F0.9983
tp4105
a(S'your'
p4106
g23
F0.9864
tp4107
a(S'milk'
p4108
g6
F0.9975
tp4109
a(S'honey'
p4110
g6
F0.9757
tp4111
asI362
(lp4112
(S'what'
p4113
g12
F0.7729
tp4114
a(S'tape'
p4115
g6
F0.9904
tp4116
a(S'were'
p4117
g9
F0.996
tp4118
a(S'you'
p4119
g12
F0.9994
tp4120
a(S'watching'
p4121
g9
F0.9999
tp4122
a(S'in'
p4123
g20
F0.99
tp4124
a(S'the'
p4125
g23
F0.9944
tp4126
a(S'living'
p4127
g52
F0.3847
tp4128
a(S'room'
p4129
g6
F0.9981
tp4130
a(S'before'
p4131
g20
F0.9902
tp4132
a(S'dinner'
p4133
g6
F0.9935
tp4134
asI363
(lp4135
(S'superman'
p4136
g1018
F0.8996
tp4137
asI364
(lp4138
(S'mhm'
p4139
g46
F0.9747
tp4140
asI365
(lp4141
(S'he'
p4142
g12
F0.9883
tp4143
a(S'xxx'
p4144
g9
F0.6266
tp4145
a(S'tape'
p4146
g6
F0.9498
tp4147
a(S'with'
p4148
g20
F0.9993
tp4149
a(S'three'
p4150
g813
F0.9279
tp4151
a(S'xxx'
p4152
g404
F0.4405
tp4153
a(S'on'
p4154
g20
F0.9943
tp4155
a(S'it'
p4156
g12
F0.9981
tp4157
asI366
(lp4158
(S'three'
p4159
g813
F0.9636
tp4160
a(S'things'
p4161
g6
F0.9972
tp4162
a(S'are'
p4163
g9
F0.9939
tp4164
a(S'yeah'
p4165
g46
F0.9917
tp4166
asI367
(lp4167
(S'yep'
p4168
g46
F0.9977
tp4169
asI368
(lp4170
(g30
g12
F0.9756
tp4171
a(S'didn'
p4172
g9
F0.9919
tp4173
a(g8
g9
F0.7093
tp4174
a(S'know'
p4175
g9
F0.9926
tp4176
a(S'that'
p4177
g12
F0.836
tp4178
asI369
(lp4179
(S'one'
p4180
g813
F0.9467
tp4181
a(S'one'
p4182
g813
F0.9433
tp4183
a(S'video'
p4184
g6
F0.9948
tp4185
a(S'two'
p4186
g813
F0.9501
tp4187
a(S'video'
p4188
g6
F0.9918
tp4189
a(S'three'
p4190
g813
F0.9335
tp4191
a(S'video'
p4192
g6
F0.9968
tp4193
asI370
(lp4194
(S'oh'
p4195
g46
F0.9971
tp4196
a(S'really'
p4197
g3
F0.9779
tp4198
asI371
(lp4199
(S'three'
p4200
g813
F0.9251
tp4201
a(S'xxx'
p4202
g404
F0.6859
tp4203
asI372
(lp4204
(S'have'
p4205
g9
F0.9991
tp4206
a(S'you'
p4207
g12
F0.9993
tp4208
a(S'watched'
p4209
g9
F0.9999
tp4210
a(S'your'
p4211
g23
F0.9833
tp4212
a(S'new'
p4213
g52
F0.9763
tp4214
a(S'mighty'
p4215
g52
F0.7701
tp4216
a(S'mouse'
p4217
g6
F0.9568
tp4218
a(S'tape'
p4219
g6
F0.9876
tp4220
a(S'yet'
p4221
g3
F0.9536
tp4222
asI373
(lp4223
(S'mhm'
p4224
g46
F0.9747
tp4225
asI374
(lp4226
(S'was'
p4227
g9
F0.9989
tp4228
a(S'it'
p4229
g12
F0.9775
tp4230
a(S'any'
p4231
g23
F0.913
tp4232
a(S'good'
p4233
g52
F0.9879
tp4234
asI375
(lp4235
(S'mhm'
p4236
g46
F0.9747
tp4237
asI376
(lp4238
(S'he'
p4239
g12
F0.9945
tp4240
a(S'sang'
p4241
g9
F0.999
tp4242
a(S'mighty'
p4243
g52
F0.7064
tp4244
a(S'mouse'
p4245
g6
F0.9862
tp4246
asI377
(lp4247
(S'mhm'
p4248
g46
F0.9747
tp4249
asI378
(lp4250
(S'yeah'
p4251
g46
F0.9988
tp4252
asI379
(lp4253
(S'is'
p4254
g9
F0.9981
tp4255
a(S'that'
p4256
g12
F0.9513
tp4257
a(S'just'
p4258
g3
F0.9942
tp4259
a(S'one'
p4260
g813
F0.885
tp4261
a(S'story'
p4262
g6
F0.9975
tp4263
asI380
(lp4264
(S'mhm'
p4265
g46
F0.949
tp4266
a(g30
g12
F0.9948
tp4267
a(S'have'
p4268
g9
F0.9993
tp4269
a(S'three'
p4270
g813
F0.8573
tp4271
a(S'packets'
p4272
g6
F0.9939
tp4273
asI381
(lp4274
(S'oh'
p4275
g46
F0.9825
tp4276
a(S'is'
p4277
g9
F0.9962
tp4278
a(S'there'
p4279
g3
F0.5689
tp4280
a(S'three'
p4281
g813
F0.8498
tp4282
a(S'xxx'
p4283
g404
F0.7702
tp4284
asI382
(lp4285
(S'mommy'
p4286
g6
F0.5271
tp4287
asI383
(lp4288
(S'mommy'
p4289
g6
F0.5803
tp4290
a(S'know'
p4291
g9
F0.9916
tp4292
a(S'what'
p4293
g12
F0.9888
tp4294
a(g30
g12
F0.9776
tp4295
a(S'xxx'
p4296
g404
F0.607
tp4297
asI384
(lp4298
(S'mommy'
p4299
g6
F0.5803
tp4300
a(S'know'
p4301
g9
F0.9916
tp4302
a(S'what'
p4303
g12
F0.9888
tp4304
a(g30
g12
F0.9776
tp4305
a(S'xxx'
p4306
g404
F0.607
tp4307
asI385
(lp4308
(g30
g12
F0.9858
tp4309
a(S'put'
p4310
g9
F0.9993
tp4311
a(S'those'
p4312
g12
F0.5475
tp4313
asI386
(lp4314
(S'yeah'
p4315
g46
F0.9988
tp4316
asI387
(lp4317
(S'yeah'
p4318
g46
F0.9988
tp4319
asI388
(lp4320
(S'um'
p4321
g46
F0.9584
tp4322
a(g30
g12
F0.9913
tp4323
a(S'made'
p4324
g9
F0.9999
tp4325
a(S'the'
p4326
g23
F0.9911
tp4327
a(S'xxx'
p4328
g6
F0.6231
tp4329
a(S'and'
p4330
g28
F0.9988
tp4331
a(S'um'
p4332
g46
F0.5505
tp4333
a(S'and'
p4334
g28
F0.9992
tp4335
a(S'um'
p4336
g46
F0.8335
tp4337
a(g30
g12
F0.95
tp4338
a(S'xxx'
p4339
g404
F0.685
tp4340
asI389
(lp4341
(g30
g12
F0.9893
tp4342
a(S'thought'
p4343
g9
F0.9987
tp4344
a(S'of'
p4345
g20
F0.9662
tp4346
a(S'that'
p4347
g12
F0.7763
tp4348
asI390
(lp4349
(S'you'
p4350
g12
F0.998
tp4351
a(S'thought'
p4352
g9
F0.9972
tp4353
a(S'of'
p4354
g20
F0.9641
tp4355
a(S'being'
p4356
g9
F0.9948
tp4357
a(g292
g23
F0.9965
tp4358
a(S'cooker'
p4359
g6
F0.9844
tp4360
a(S'at'
p4361
g20
F0.9996
tp4362
a(g292
g23
F0.9974
tp4363
a(S'restaurant'
p4364
g6
F0.9989
tp4365
asI391
(lp4366
(S'mhm'
p4367
g46
F0.9747
tp4368
asI392
(lp4369
(g30
g12
F0.9893
tp4370
a(S'thought'
p4371
g9
F0.9989
tp4372
a(S'last'
p4373
g52
F0.9892
tp4374
a(S'night'
p4375
g6
F0.9793
tp4376
a(S'you'
p4377
g12
F0.9992
tp4378
a(S'were'
p4379
g9
F0.9961
tp4380
a(S'gonna'
p4381
g9
F0.9828
tp4382
a(S'build'
p4383
g9
F0.9977
tp4384
a(S'buildings'
p4385
g6
F0.991
tp4386
asI393
(lp4387
(S'but'
p4388
g28
F0.9951
tp4389
a(S'um'
p4390
g46
F0.7462
tp4391
a(S'but'
p4392
g28
F0.9929
tp4393
a(g30
g12
F0.9951
tp4394
a(S'thought'
p4395
g9
F0.9987
tp4396
a(S'of'
p4397
g20
F0.9851
tp4398
a(S'that'
p4399
g12
F0.915
tp4400
a(S'at'
p4401
g20
F0.9898
tp4402
a(S'daddy'
p4403
g6
F0.9697
tp4404
a(g270
g304
F0.9235
tp4405
asI394
(lp4406
(S'yeah'
p4407
g46
F0.9988
tp4408
asI395
(lp4409
(S'mommy'
p4410
g6
F0.7607
tp4411
a(g30
g12
F0.8265
tp4412
a(g232
g9
F0.9727
tp4413
a(S'almost'
p4414
g3
F0.9835
tp4415
a(S'all'
p4416
g23
F0.6551
tp4417
a(S'done'
p4418
g9
F0.4723
tp4419
a(S'huh'
p4420
g46
F0.9311
tp4421
asI396
(lp4422
(S'but'
p4423
g28
F0.993
tp4424
a(S'you'
p4425
g12
F0.9982
tp4426
a(S'aren'
p4427
g9
F0.6947
tp4428
a(g8
g304
F0.6599
tp4429
asI397
(lp4430
(g30
g12
F0.953
tp4431
a(g232
g9
F0.9714
tp4432
a(S'almost'
p4433
g3
F0.9744
tp4434
a(S'all'
p4435
g23
F0.6851
tp4436
a(S'done'
p4437
g9
F0.7212
tp4438
asI398
(lp4439
(S'can'
p4440
g9
F0.9755
tp4441
a(g30
g12
F0.9904
tp4442
a(S'have'
p4443
g9
F0.9999
tp4444
a(S'some'
p4445
g23
F0.9291
tp4446
asI399
(lp4447
(S'be'
p4448
g9
F0.9727
tp4449
a(S'cause'
p4450
g20
F0.9142
tp4451
a(S'it'
p4452
g12
F0.9967
tp4453
a(g270
g9
F0.5868
tp4454
a(S'not'
p4455
g3
F0.9905
tp4456
a(S'all'
p4457
g23
F0.839
tp4458
a(S'hot'
p4459
g52
F0.9851
tp4460
asI400
(lp4461
(S'yep'
p4462
g46
F0.9977
tp4463
asI401
(lp4464
(S'it'
p4465
g12
F0.9888
tp4466
a(g270
g9
F0.5138
tp4467
a(S'just'
p4468
g3
F0.9994
tp4469
a(S'right'
p4470
g3
F0.9215
tp4471
a(S'now'
p4472
g3
F0.9954
tp4473
asI402
(lp4474
(S'you'
p4475
g12
F0.9969
tp4476
a(S'can'
p4477
g9
F0.9997
tp4478
a(S'hold'
p4479
g9
F0.9999
tp4480
a(S'it'
p4481
g12
F0.962
tp4482
asI403
(lp4483
(S'xxx'
p4484
g404
F0.8704
tp4485
a(S'two'
p4486
g813
F0.9242
tp4487
a(S'hands'
p4488
g6
F0.9949
tp4489
asI404
(lp4490
(S'xxx'
p4491
g404
F0.8437
tp4492
asI405
(lp4493
(g30
g12
F0.9873
tp4494
a(S'can'
p4495
g9
F0.9996
tp4496
a(g8
g9
F0.6439
tp4497
a(S'bite'
p4498
g9
F0.9798
tp4499
a(S'it'
p4500
g12
F0.9871
tp4501
asI406
(lp4502
(S'try'
p4503
g9
F0.9725
tp4504
a(S'to'
p4505
g20
F0.9917
tp4506
a(S'bite'
p4507
g9
F0.9983
tp4508
a(S'up'
p4509
g17
F0.9811
tp4510
a(S'with'
p4511
g20
F0.9996
tp4512
a(S'your'
p4513
g23
F0.9941
tp4514
a(S'bottom'
p4515
g52
F0.4963
tp4516
a(S'teeth'
p4517
g6
F0.9972
tp4518
asI407
(lp4519
(S'any'
p4520
g23
F0.937
tp4521
a(S'better'
p4522
g52
F0.9681
tp4523
asI408
(lp4524
(S'nope'
p4525
g46
F0.996
tp4526
asI409
(lp4527
(S'butter'
p4528
g6
F0.9502
tp4529
asI410
(lp4530
(g30
g12
F0.953
tp4531
a(g232
g9
F0.9794
tp4532
a(S'eating'
p4533
g9
F0.9961
tp4534
a(S'now'
p4535
g3
F0.9905
tp4536
asI411
(lp4537
(S'xxx'
p4538
g404
F0.8437
tp4539
asI412
(lp4540
(S'mommy'
p4541
g6
F0.5271
tp4542
asI413
(lp4543
(S'why'
p4544
g3
F0.9375
tp4545
a(S'don'
p4546
g6
F0.2525
tp4547
a(g8
g9
F0.5898
tp4548
a(S'you'
p4549
g12
F0.9991
tp4550
a(S'put'
p4551
g9
F0.9984
tp4552
a(S'this'
p4553
g12
F0.7292
tp4554
a(S'in'
p4555
g20
F0.9163
tp4556
a(g292
g23
F0.9963
tp4557
a(S'pin'
p4558
g6
F0.9986
tp4559
asI414
(lp4560
(S'what'
p4561
g12
F0.949
tp4562
asI415
(lp4563
(S'you'
p4564
g12
F0.9966
tp4565
a(S'put'
p4566
g9
F0.9987
tp4567
a(S'this'
p4568
g12
F0.7333
tp4569
a(S'in'
p4570
g20
F0.9724
tp4571
a(S'the'
p4572
g23
F0.9993
tp4573
a(S'pin'
p4574
g6
F0.9959
tp4575
asI416
(lp4576
(S'what'
p4577
g12
F0.9576
tp4578
a(S'the'
p4579
g23
F0.9975
tp4580
a(S'end'
p4581
g6
F0.9721
tp4582
a(S'things'
p4583
g6
F0.9965
tp4584
asI417
(lp4585
(S'yep'
p4586
g46
F0.9977
tp4587
asI418
(lp4588
(S'no'
p4589
g46
F0.6674
tp4590
a(S'no'
p4591
g46
F0.6855
tp4592
a(S'the'
p4593
g23
F0.9803
tp4594
a(S'no'
p4595
g46
F0.1997
tp4596
a(S'the'
p4597
g23
F0.9983
tp4598
a(S'middle'
p4599
g6
F0.5436
tp4600
a(S'thing'
p4601
g6
F0.9891
tp4602
asI419
(lp4603
(S'the'
p4604
g23
F0.9984
tp4605
a(S'middle'
p4606
g6
F0.8263
tp4607
asI420
(lp4608
(S'the'
p4609
g23
F0.9982
tp4610
a(S'corn'
p4611
g6
F0.998
tp4612
asI421
(lp4613
(S'okay'
p4614
g46
F0.7364
tp4615
a(S'and'
p4616
g28
F0.9984
tp4617
a(S'do'
p4618
g9
F0.9997
tp4619
a(S'you'
p4620
g12
F0.9992
tp4621
a(S'make'
p4622
g9
F0.9996
tp4623
a(S'some'
p4624
g23
F0.9921
tp4625
a(S'butter'
p4626
g6
F0.9789
tp4627
asI422
(lp4628
(S'do'
p4629
g9
F0.9688
tp4630
a(g30
g12
F0.9966
tp4631
a(S'make'
p4632
g9
F0.999
tp4633
a(S'butter'
p4634
g6
F0.9916
tp4635
asI423
(lp4636
(S'not'
p4637
g3
F0.9914
tp4638
a(S'with'
p4639
g20
F0.9968
tp4640
a(S'butter'
p4641
g6
F0.9574
tp4642
asI424
(lp4643
(S'you'
p4644
g12
F0.9942
tp4645
a(S'just'
p4646
g3
F0.9992
tp4647
a(S'put'
p4648
g9
F0.9986
tp4649
a(S'it'
p4650
g12
F0.9778
tp4651
a(S'in'
p4652
g20
F0.977
tp4653
a(S'the'
p4654
g23
F0.9962
tp4655
a(S'pan'
p4656
g6
F0.6451
tp4657
a(S'all'
p4658
g23
F0.3917
tp4659
a(S'by'
p4660
g20
F0.9969
tp4661
a(S'yourself'
p4662
g12
F0.8894
tp4663
a(S'cover'
p4664
g9
F0.97
tp4665
a(S'it'
p4666
g12
F0.9876
tp4667
a(S'up'
p4668
g17
F0.9449
tp4669
a(S'and'
p4670
g28
F0.9979
tp4671
a(S'then'
p4672
g3
F0.9856
tp4673
a(S'cook'
p4674
g9
F0.9952
tp4675
a(S'it'
p4676
g12
F0.9931
tp4677
a(S'for'
p4678
g20
F0.9904
tp4679
a(S'about'
p4680
g20
F0.6153
tp4681
a(S'eight'
p4682
g813
F0.9175
tp4683
a(S'minutes'
p4684
g6
F0.9911
tp4685
asI425
(lp4686
(S'look'
p4687
g9
F0.7657
tp4688
a(g30
g12
F0.9902
tp4689
a(g232
g9
F0.9946
tp4690
a(S'all'
p4691
g23
F0.8197
tp4692
a(S'done'
p4693
g9
F0.9085
tp4694
a(S'with'
p4695
g20
F0.9991
tp4696
a(S'it'
p4697
g12
F0.9962
tp4698
asI426
(lp4699
(S'good'
p4700
g52
F0.9644
tp4701
asI427
(lp4702
(g30
g12
F0.9896
tp4703
a(S'ate'
p4704
g9
F0.9999
tp4705
a(S'it'
p4706
g12
F0.9889
tp4707
asI428
(lp4708
(S'what'
p4709
g12
F0.9777
tp4710
a(S'about'
p4711
g20
F0.9429
tp4712
a(S'xxx'
p4713
g404
F0.2341
tp4714
a(S'can'
p4715
g9
F0.9994
tp4716
a(S'you'
p4717
g12
F0.9987
tp4718
a(S'get'
p4719
g9
F1.0
tp4720
a(S'it'
p4721
g12
F0.9934
tp4722
asI429
(lp4723
(S'but'
p4724
g28
F0.9953
tp4725
a(S'no'
p4726
g3
F0.4845
tp4727
a(S'you'
p4728
g12
F0.995
tp4729
a(S'don'
p4730
g9
F0.8611
tp4731
a(g8
g9
F0.2282
tp4732
a(S'add'
p4733
g9
F0.9878
tp4734
a(S'anything'
p4735
g6
F0.9951
tp4736
a(S'to'
p4737
g20
F0.999
tp4738
a(S'it'
p4739
g12
F0.996
tp4740
asI430
(lp4741
(S'comes'
p4742
g9
F0.9981
tp4743
a(S'out'
p4744
g17
F0.9631
tp4745
a(S'pretty'
p4746
g3
F0.9573
tp4747
a(S'yummy'
p4748
g52
F0.9622
tp4749
a(S'too'
p4750
g3
F0.969
tp4751
asI431
(lp4752
(S'all'
p4753
g23
F0.7806
tp4754
a(S'done'
p4755
g52
F0.4992
tp4756
asI432
(lp4757
(S'good'
p4758
g52
F0.9935
tp4759
a(S'job'
p4760
g6
F0.9963
tp4761
asI433
(lp4762
(S'good'
p4763
g52
F0.9935
tp4764
a(S'job'
p4765
g6
F0.9904
tp4766
a(S'honey'
p4767
g6
F0.9709
tp4768
asI434
(lp4769
(g30
g12
F0.9869
tp4770
a(S'wanna'
p4771
g9
F0.9994
tp4772
a(S'do'
p4773
g9
F0.9999
tp4774
a(S'another'
p4775
g23
F0.9902
tp4776
a(S'one'
p4777
g813
F0.9114
tp4778
a(S'of'
p4779
g20
F0.9991
tp4780
a(S'those'
p4781
g12
F0.7622
tp4782
a(S'on'
p4783
g20
F0.9946
tp4784
a(S'the'
p4785
g23
F0.999
tp4786
a(S'cob'
p4787
g6
F0.505
tp4788
a(S'okay'
p4789
g46
F0.8618
tp4790
asI435
(lp4791
(S'alright'
p4792
g46
F0.9491
tp4793
a(S'but'
p4794
g28
F0.9898
tp4795
a(S'first'
p4796
g3
F0.8375
tp4797
a(g30
g12
F0.976
tp4798
a(S'would'
p4799
g9
F0.9999
tp4800
a(S'like'
p4801
g9
F0.9633
tp4802
a(S'you'
p4803
g12
F0.9996
tp4804
a(S'to'
p4805
g20
F0.9634
tp4806
a(S'xxx'
p4807
g404
F0.4666
tp4808
asI436
(lp4809
(S'xxx'
p4810
g404
F0.7728
tp4811
a(g30
g12
F0.9729
tp4812
a(S'only'
p4813
g3
F0.9552
tp4814
a(S'want'
p4815
g9
F0.9993
tp4816
a(S'to'
p4817
g20
F0.9961
tp4818
a(S'eat'
p4819
g9
F0.9928
tp4820
a(S'corn'
p4821
g6
F0.9912
tp4822
a(S'like'
p4823
g20
F0.9644
tp4824
a(S'yours'
p4825
g12
F0.9728
tp4826
a(S'xxx'
p4827
g404
F0.6153
tp4828
asI437
(lp4829
(S'mommy'
p4830
g6
F0.4926
tp4831
a(S'that'
p4832
g20
F0.8314
tp4833
a(S'one'
p4834
g813
F0.8515
tp4835
a(g270
g304
F0.7182
tp4836
a(S'mine'
p4837
g12
F0.9346
tp4838
asI438
(lp4839
(S'want'
p4840
g9
F0.9945
tp4841
a(S'to'
p4842
g20
F0.9959
tp4843
a(S'share'
p4844
g9
F0.9911
tp4845
a(S'one'
p4846
g813
F0.9555
tp4847
a(S'at'
p4848
g20
F0.9992
tp4849
a(g292
g23
F0.9856
tp4850
a(S'chie'
p4851
g6
F0.3696
tp4852
asI439
(lp4853
(S'yeah'
p4854
g46
F0.9988
tp4855
asI440
(lp4856
(S'so'
p4857
g20
F0.7512
tp4858
a(S'that'
p4859
g20
F0.5045
tp4860
a(S'they'
p4861
g12
F0.9952
tp4862
a(S'that'
p4863
g20
F0.54
tp4864
a(S'get'
p4865
g9
F0.9948
tp4866
a(S'xxx'
p4867
g404
F0.7665
tp4868
asI441
(lp4869
(S'mhm'
p4870
g46
F0.9747
tp4871
asI442
(lp4872
(S'mommy'
p4873
g6
F0.4915
tp4874
a(S'we'
p4875
g12
F0.9895
tp4876
a(S'can'
p4877
g9
F0.9995
tp4878
a(S'xxx'
p4879
g9
F0.701
tp4880
a(S'take'
p4881
g9
F0.9984
tp4882
a(S'the'
p4883
g23
F0.998
tp4884
a(S'bite'
p4885
g6
F0.969
tp4886
asI443
(lp4887
(S'can'
p4888
g9
F0.9755
tp4889
a(g30
g12
F0.9904
tp4890
a(S'have'
p4891
g9
F0.9996
tp4892
a(S'bite'
p4893
g6
F0.7855
tp4894
asI444
(lp4895
(S'can'
p4896
g9
F0.9755
tp4897
a(g30
g12
F0.987
tp4898
a(S'have'
p4899
g9
F1.0
tp4900
a(g292
g23
F0.9869
tp4901
a(S'bite'
p4902
g6
F0.9391
tp4903
a(S'now'
p4904
g3
F0.9864
tp4905
asI445
(lp4906
(S'can'
p4907
g9
F0.9755
tp4908
a(g30
g12
F0.987
tp4909
a(S'have'
p4910
g9
F1.0
tp4911
a(g292
g23
F0.9869
tp4912
a(S'bite'
p4913
g6
F0.9492
tp4914
a(S'whining'
p4915
g9
F0.9974
tp4916
asI446
(lp4917
(S'yes'
p4918
g46
F0.9701
tp4919
a(S'you'
p4920
g12
F0.9982
tp4921
a(S'can'
p4922
g9
F0.9997
tp4923
a(S'have'
p4924
g9
F0.9999
tp4925
a(g292
g23
F0.9894
tp4926
a(S'bite'
p4927
g6
F0.9559
tp4928
a(S'chi'
p4929
g6
F0.3871
tp4930
a(S'but'
p4931
g28
F0.9942
tp4932
a(g30
g12
F0.9957
tp4933
a(S'told'
p4934
g9
F1.0
tp4935
a(S'you'
p4936
g12
F0.9964
tp4937
a(g30
g12
F0.7559
tp4938
a(g803
g9
F0.8755
tp4939
a(S'like'
p4940
g20
F0.8069
tp4941
a(S'you'
p4942
g12
F0.9995
tp4943
a(S'to'
p4944
g20
F0.989
tp4945
a(S'eat'
p4946
g9
F0.9992
tp4947
a(S'the'
p4948
g23
F0.9996
tp4949
a(S'corn'
p4950
g6
F0.998
tp4951
a(S'on'
p4952
g20
F0.9989
tp4953
a(S'your'
p4954
g23
F0.9944
tp4955
a(S'plate'
p4956
g6
F0.999
tp4957
asI447
(lp4958
(g30
g12
F0.99
tp4959
a(S'liked'
p4960
g9
F1.0
tp4961
a(S'it'
p4962
g12
F0.9902
tp4963
asI448
(lp4964
(S'good'
p4965
g52
F0.9644
tp4966
asI449
(lp4967
(S'mommy'
p4968
g6
F0.5271
tp4969
asI450
(lp4970
(S'um'
p4971
g46
F0.9182
tp4972
a(S'am'
p4973
g9
F0.838
tp4974
a(g30
g12
F0.9908
tp4975
a(S'in'
p4976
g20
F0.9216
tp4977
a(S'xxx'
p4978
g6
F0.5177
tp4979
a(S'in'
p4980
g20
F0.998
tp4981
a(S'the'
p4982
g23
F0.9926
tp4983
a(S'xxx'
p4984
g6
F0.4677
tp4985
a(S'but'
p4986
g28
F0.9731
tp4987
a(S'don'
p4988
g1018
F0.3946
tp4989
a(g8
g1018
F0.4732
tp4990
a(S'eat'
p4991
g9
F0.9714
tp4992
a(S'the'
p4993
g23
F0.9994
tp4994
a(S'one'
p4995
g813
F0.9604
tp4996
a(S'on'
p4997
g20
F0.9985
tp4998
a(S'the'
p4999
g23
F0.9987
tp5000
a(S'end'
p5001
g6
F0.9814
tp5002
asI451
(lp5003
(S'okay'
p5004
g46
F0.9804
tp5005
a(S'that'
p5006
g20
F0.5066
tp5007
a(S'one'
p5008
g813
F0.8515
tp5009
a(g270
g304
F0.6453
tp5010
a(S'yours'
p5011
g12
F0.9013
tp5012
asI452
(lp5013
(S'because'
p5014
g20
F0.9846
tp5015
a(S'then'
p5016
g3
F0.9595
tp5017
a(g30
g12
F0.9924
tp5018
a(S'will'
p5019
g9
F0.9995
tp5020
a(S'be'
p5021
g9
F0.9989
tp5022
a(S'sad'
p5023
g52
F0.9959
tp5024
asI453
(lp5025
(S'alright'
p5026
g46
F0.9864
tp5027
asI454
(lp5028
(g30
g12
F0.9776
tp5029
a(S'promise'
p5030
g9
F0.9962
tp5031
asI455
(lp5032
(S'if'
p5033
g20
F0.9977
tp5034
a(S'you'
p5035
g12
F0.9997
tp5036
a(S'eat'
p5037
g9
F0.9963
tp5038
a(S'one'
p5039
g813
F0.8928
tp5040
a(S'tomorrow'
p5041
g6
F0.979
tp5042
a(S'without'
p5043
g20
F0.9991
tp5044
a(S'me'
p5045
g12
F0.999
tp5046
a(S'tomorrow'
p5047
g6
F0.5153
tp5048
a(g30
g12
F0.9355
tp5049
a(S'eat'
p5050
g9
F0.9977
tp5051
a(S'xxx'
p5052
g404
F0.5538
tp5053
a(S'one'
p5054
g813
F0.8403
tp5055
asI456
(lp5056
(S'the'
p5057
g23
F0.9989
tp5058
a(S'first'
p5059
g52
F0.9967
tp5060
a(S'thing'
p5061
g6
F0.9976
tp5062
a(S'that'
p5063
g20
F0.9382
tp5064
a(g30
g12
F0.9871
tp5065
a(g232
g9
F0.9607
tp5066
a(S'gonna'
p5067
g9
F0.9966
tp5068
a(S'do'
p5069
g9
F0.9981
tp5070
a(S'is'
p5071
g9
F0.9908
tp5072
a(S'xxx'
p5073
g404
F0.3711
tp5074
a(S'the'
p5075
g23
F0.9987
tp5076
a(S'whole'
p5077
g52
F0.9799
tp5078
a(S'night'
p5079
g6
F0.9424
tp5080
a(S'okay'
p5081
g46
F0.8598
tp5082
asI457
(lp5083
(S'you'
p5084
g12
F0.9754
tp5085
a(S're'
p5086
g9
F0.5918
tp5087
a(S'gonna'
p5088
g9
F0.9925
tp5089
a(S'stay'
p5090
g9
F0.9949
tp5091
a(S'in'
p5092
g20
F0.9372
tp5093
a(S'bed'
p5094
g6
F0.9638
tp5095
a(S'the'
p5096
g23
F0.9984
tp5097
a(S'whole'
p5098
g52
F0.9856
tp5099
a(S'night'
p5100
g6
F0.9778
tp5101
asI458
(lp5102
(S'that'
p5103
g12
F0.473
tp5104
a(g270
g9
F0.5365
tp5105
a(S'the'
p5106
g23
F0.9994
tp5107
a(S'first'
p5108
g52
F0.9943
tp5109
a(S'thing'
p5110
g6
F0.9877
tp5111
a(S'you'
p5112
g12
F0.9629
tp5113
a(S're'
p5114
g9
F0.5107
tp5115
a(S'gonna'
p5116
g9
F0.9941
tp5117
a(S'do'
p5118
g9
F0.9993
tp5119
asI459
(lp5120
(g30
g12
F0.9893
tp5121
a(S'said'
p5122
g9
F0.9999
tp5123
a(S'that'
p5124
g12
F0.5025
tp5125
a(g270
g304
F0.4295
tp5126
a(S'what'
p5127
g12
F0.9645
tp5128
a(g30
g12
F0.9834
tp5129
a(g232
g9
F0.953
tp5130
a(S'gonna'
p5131
g9
F0.9956
tp5132
a(S'do'
p5133
g9
F0.9993
tp5134
asI460
(lp5135
(S'uhhuh'
p5136
g46
F0.9892
tp5137
asI461
(lp5138
(S'is'
p5139
g9
F0.9928
tp5140
a(S'wake'
p5141
g9
F0.9609
tp5142
a(S'up'
p5143
g17
F0.919
tp5144
a(S'early'
p5145
g52
F0.564
tp5146
a(S'in'
p5147
g20
F0.9981
tp5148
a(S'the'
p5149
g23
F0.9993
tp5150
a(S'morning'
p5151
g6
F0.9975
tp5152
asI462
(lp5153
(S'yeah'
p5154
g46
F0.9988
tp5155
asI463
(lp5156
(S'mhm'
p5157
g46
F0.9747
tp5158
asI464
(lp5159
(S'but'
p5160
g28
F0.9951
tp5161
a(S'um'
p5162
g46
F0.5567
tp5163
a(S'late'
p5164
g52
F0.9144
tp5165
a(S'in'
p5166
g20
F0.9988
tp5167
a(S'the'
p5168
g23
F0.9995
tp5169
a(S'morning'
p5170
g6
F0.9968
tp5171
a(S'okay'
p5172
g46
F0.8246
tp5173
asI465
(lp5174
(S'late'
p5175
g52
F0.8587
tp5176
a(S'in'
p5177
g20
F0.9988
tp5178
a(S'the'
p5179
g23
F0.9995
tp5180
a(S'morning'
p5181
g6
F0.9978
tp5182
a(S'does'
p5183
g9
F0.9989
tp5184
a(S'that'
p5185
g12
F0.8983
tp5186
a(S'mean'
p5187
g9
F0.9957
tp5188
a(S'you'
p5189
g12
F0.9952
tp5190
a(S're'
p5191
g9
F0.7653
tp5192
a(S'not'
p5193
g3
F0.9966
tp5194
a(S'gonna'
p5195
g9
F0.995
tp5196
a(S'wave'
p5197
g6
F0.6529
tp5198
a(S'goodbye'
p5199
g46
F0.4202
tp5200
a(S'to'
p5201
g20
F0.9951
tp5202
a(S'me'
p5203
g12
F0.995
tp5204
a(S'out'
p5205
g17
F0.6303
tp5206
a(S'the'
p5207
g23
F0.999
tp5208
a(S'window'
p5209
g6
F0.9958
tp5210
asI466
(lp5211
(g30
g12
F0.988
tp5212
a(S'am'
p5213
g9
F0.9952
tp5214
asI467
(lp5215
(S'only'
p5216
g3
F0.914
tp5217
a(S'when'
p5218
g3
F0.9828
tp5219
a(S'xxx'
p5220
g404
F0.7342
tp5221
asI468
(lp5222
(S'that'
p5223
g12
F0.473
tp5224
a(g270
g304
F0.5145
tp5225
a(S'pretty'
p5226
g3
F0.938
tp5227
a(S'early'
p5228
g52
F0.9556
tp5229
asI469
(lp5230
(S'that'
p5231
g12
F0.473
tp5232
a(g270
g9
F0.4066
tp5233
a(S'seven'
p5234
g813
F0.7152
tp5235
a(S'thirty'
p5236
g52
F0.309
tp5237
asI470
(lp5238
(S'xxx'
p5239
g404
F0.5702
tp5240
a(S'for'
p5241
g20
F0.9975
tp5242
a(S'one'
p5243
g813
F0.9383
tp5244
a(S'more'
p5245
g52
F0.9096
tp5246
a(S'minute'
p5247
g6
F0.9869
tp5248
a(g30
g12
F0.8312
tp5249
a(g232
g9
F0.9835
tp5250
a(S'done'
p5251
g9
F0.9632
tp5252
a(S'eating'
p5253
g9
F0.9844
tp5254
asI471
(lp5255
(S'oh'
p5256
g46
F0.9981
tp5257
a(S'okay'
p5258
g46
F0.9822
tp5259
asI472
(lp5260
(S'so'
p5261
g20
F0.8338
tp5262
a(S'you'
p5263
g12
F0.9997
tp5264
a(S'know'
p5265
g9
F0.9989
tp5266
a(S'what'
p5267
g12
F0.9743
tp5268
a(S'you'
p5269
g12
F0.9995
tp5270
a(S'could'
p5271
g9
F0.9998
tp5272
a(S'do'
p5273
g9
F0.9976
tp5274
asI473
(lp5275
(S'you'
p5276
g12
F0.9968
tp5277
a(S'could'
p5278
g9
F0.9994
tp5279
a(S'get'
p5280
g9
F0.9999
tp5281
a(S'up'
p5282
g17
F0.9443
tp5283
a(S'and'
p5284
g28
F0.9976
tp5285
a(S'wave'
p5286
g6
F0.8706
tp5287
a(S'to'
p5288
g20
F0.9991
tp5289
a(S'me'
p5290
g12
F0.995
tp5291
a(S'out'
p5292
g17
F0.5419
tp5293
a(S'the'
p5294
g23
F0.9991
tp5295
a(S'window'
p5296
g6
F0.9929
tp5297
a(S'and'
p5298
g28
F0.9982
tp5299
a(S'then'
p5300
g3
F0.9913
tp5301
a(S'go'
p5302
g9
F0.9861
tp5303
a(S'back'
p5304
g3
F0.9702
tp5305
a(S'to'
p5306
g20
F0.9913
tp5307
a(S'bed'
p5308
g6
F0.6242
tp5309
asI474
(lp5310
(S'no'
p5311
g46
F0.9253
tp5312
asI475
(lp5313
(S'xxx'
p5314
g404
F0.8437
tp5315
asI476
(lp5316
(S'no'
p5317
g46
F0.6674
tp5318
a(S'no'
p5319
g46
F0.5387
tp5320
a(S'no'
p5321
g46
F0.4191
tp5322
a(S'no'
p5323
g46
F0.645
tp5324
asI477
(lp5325
(S'why'
p5326
g3
F0.8527
tp5327
asI478
(lp5328
(S'then'
p5329
g3
F0.9819
tp5330
a(g30
g12
F0.979
tp5331
a(g232
g9
F0.9644
tp5332
a(S'gonna'
p5333
g9
F0.994
tp5334
a(S'play'
p5335
g9
F0.9988
tp5336
a(S'with'
p5337
g20
F0.9952
tp5338
a(S'something'
p5339
g6
F0.9905
tp5340
a(S'and'
p5341
g28
F0.9968
tp5342
a(S'xxx'
p5343
g404
F0.6695
tp5344
asI479
(lp5345
(g30
g12
F0.9858
tp5346
a(S'see'
p5347
g9
F0.9977
tp5348
asI480
(lp5349
(S'who'
p5350
g12
F0.965
tp5351
a(S'you'
p5352
g12
F0.9985
tp5353
a(S'gonna'
p5354
g9
F0.9997
tp5355
a(S'call'
p5356
g9
F0.9872
tp5357
a(S'ghostbusters'
p5358
g1018
F0.8592
tp5359
a(S'and'
p5360
g28
F0.999
tp5361
a(g30
g12
F0.9914
tp5362
a(S'play'
p5363
g9
F0.9989
tp5364
a(S'ghostbusters'
p5365
g1018
F0.5526
tp5366
a(S'with'
p5367
g20
F0.9997
tp5368
a(S'the'
p5369
g23
F0.9996
tp5370
a(S'fire'
p5371
g6
F0.9103
tp5372
a(S'engine'
p5373
g6
F0.9752
tp5374
asI481
(lp5375
(S'ghostbusters'
p5376
g1018
F0.878
tp5377
a(S'go'
p5378
g9
F0.982
tp5379
a(S'in'
p5380
g20
F0.9811
tp5381
a(S'the'
p5382
g23
F0.9992
tp5383
a(S'fire'
p5384
g6
F0.8723
tp5385
a(S'engine'
p5386
g6
F0.974
tp5387
asI482
(lp5388
(S'mhm'
p5389
g46
F0.9747
tp5390
asI483
(lp5391
(g30
g12
F0.9872
tp5392
a(S'would'
p5393
g9
F0.9998
tp5394
a(S'bet'
p5395
g9
F0.9989
tp5396
asI484
(lp5397
(S'you'
p5398
g12
F0.9974
tp5399
a(S'know'
p5400
g9
F0.998
tp5401
a(S'why'
p5402
g3
F0.8832
tp5403
asI485
(lp5404
(S'remember'
p5405
g9
F0.9725
tp5406
a(S'what'
p5407
g12
F0.9793
tp5408
a(S'their'
p5409
g23
F0.9825
tp5410
a(S'house'
p5411
g6
F0.9954
tp5412
a(S'is'
p5413
g9
F0.996
tp5414
a(S'made'
p5415
g9
F0.9867
tp5416
a(S'out'
p5417
g20
F0.6583
tp5418
a(S'of'
p5419
g20
F0.9978
tp5420
a(S'their'
p5421
g23
F0.9826
tp5422
a(S'fort'
p5423
g6
F0.869
tp5424
asI486
(lp5425
(S'no'
p5426
g46
F0.9253
tp5427
asI487
(lp5428
(S'do'
p5429
g9
F0.9985
tp5430
a(S'you'
p5431
g12
F0.9996
tp5432
a(S'remember'
p5433
g9
F0.9987
tp5434
a(S'what'
p5435
g12
F0.9838
tp5436
a(S'it'
p5437
g12
F0.9986
tp5438
a(S'was'
p5439
g9
F0.9985
tp5440
asI488
(lp5441
(S'firemen'
p5442
g6
F0.7578
tp5443
asI489
(lp5444
(S'uhoh'
p5445
g46
F0.9543
tp5446
a(S'it'
p5447
g12
F0.9972
tp5448
a(S'was'
p5449
g9
F0.9997
tp5450
a(g292
g23
F0.9976
tp5451
a(S'firehouse'
p5452
g6
F0.6534
tp5453
a(S'yeah'
p5454
g46
F0.9816
tp5455
a(S'that'
p5456
g12
F0.5834
tp5457
a(g270
g9
F0.5119
tp5458
a(S'right'
p5459
g3
F0.426
tp5460
asI490
(lp5461
(S'it'
p5462
g12
F0.9956
tp5463
a(S'was'
p5464
g9
F0.9982
tp5465
a(S'xxx'
p5466
g404
F0.3484
tp5467
a(S'firehouse'
p5468
g6
F0.4476
tp5469
asI491
(lp5470
(S'not'
p5471
g3
F0.9771
tp5472
a(g292
g23
F0.9937
tp5473
a(S'new'
p5474
g52
F0.9994
tp5475
a(S'one'
p5476
g813
F0.9206
tp5477
a(S'an'
p5478
g23
F0.9818
tp5479
a(S'old'
p5480
g52
F0.9989
tp5481
a(S'one'
p5482
g813
F0.9083
tp5483
a(S'remember'
p5484
g9
F0.9246
tp5485
a(S'when'
p5486
g3
F0.9763
tp5487
a(S'they'
p5488
g12
F0.9633
tp5489
a(S'um'
p5490
g304
F0.2699
tp5491
a(S'remember'
p5492
g9
F0.9936
tp5493
a(S'they'
p5494
g12
F0.9932
tp5495
a(S'went'
p5496
g9
F0.9995
tp5497
a(S'to'
p5498
g20
F0.9898
tp5499
a(S'see'
p5500
g9
F0.9998
tp5501
a(S'it'
p5502
g12
F0.8381
tp5503
a(S'it'
p5504
g12
F0.9821
tp5505
a(S'was'
p5506
g9
F0.9996
tp5507
a(g292
g23
F0.9989
tp5508
a(S'mess'
p5509
g6
F0.9945
tp5510
asI492
(lp5511
(S're'
p5512
g6
F0.8383
tp5513
a(S'member'
p5514
g6
F0.9915
tp5515
asI493
(lp5516
(S'no'
p5517
g46
F0.6674
tp5518
a(S'no'
p5519
g46
F0.8615
tp5520
a(S'that'
p5521
g12
F0.7543
tp5522
a(S'was'
p5523
g9
F0.9993
tp5524
a(S'um'
p5525
g46
F0.4916
tp5526
a(g292
g23
F0.9931
tp5527
a(S'new'
p5528
g52
F0.9981
tp5529
a(S'type'
p5530
g6
F0.926
tp5531
a(S'one'
p5532
g813
F0.9722
tp5533
a(S'okay'
p5534
g46
F0.7604
tp5535
asI494
(lp5536
(S'that'
p5537
g12
F0.8288
tp5538
a(S'was'
p5539
g9
F0.9994
tp5540
a(S'in'
p5541
g20
F0.9519
tp5542
a(S'the'
p5543
g23
F0.9993
tp5544
a(S'movie'
p5545
g6
F0.9977
tp5546
asI495
(lp5547
(S'no'
p5548
g46
F0.9456
tp5549
a(S'that'
p5550
g12
F0.7283
tp5551
a(S'was'
p5552
g9
F0.9985
tp5553
a(S'when'
p5554
g3
F0.9938
tp5555
a(S'they'
p5556
g12
F0.9877
tp5557
a(S'just'
p5558
g3
F0.9998
tp5559
a(S'moved'
p5560
g9
F0.9844
tp5561
a(S'in'
p5562
g20
F0.7904
tp5563
asI496
(lp5564
(S'yeah'
p5565
g46
F0.9988
tp5566
asI497
(lp5567
(S'and'
p5568
g28
F0.9994
tp5569
a(S'it'
p5570
g12
F0.9985
tp5571
a(S'was'
p5572
g9
F0.9985
tp5573
a(S'real'
p5574
g3
F0.6092
tp5575
a(S'messy'
p5576
g52
F0.9992
tp5577
a(S'wasn'
p5578
g6
F0.3744
tp5579
a(g8
g9
F0.535
tp5580
a(S'it'
p5581
g12
F0.994
tp5582
asI498
(lp5583
(S'so'
p5584
g3
F0.5368
tp5585
a(g30
g12
F0.9341
tp5586
a(g803
g9
F0.7148
tp5587
a(S'say'
p5588
g9
F0.9983
tp5589
a(S'it'
p5590
g12
F0.9966
tp5591
a(S'was'
p5592
g9
F0.9984
tp5593
a(S'messy'
p5594
g52
F0.989
tp5595
a(S'because'
p5596
g20
F0.9996
tp5597
a(S'it'
p5598
g12
F0.9994
tp5599
a(S'was'
p5600
g9
F0.9996
tp5601
a(S'an'
p5602
g23
F0.9982
tp5603
a(S'old'
p5604
g52
F0.9961
tp5605
a(S'firehouse'
p5606
g1018
F0.5195
tp5607
a(S'xxx'
p5608
g404
F0.7365
tp5609
asI499
(lp5610
(S'but'
p5611
g28
F0.9951
tp5612
a(S'um'
p5613
g46
F0.7914
tp5614
a(S'when'
p5615
g3
F0.9726
tp5616
a(S'it'
p5617
g12
F0.9918
tp5618
a(g270
g9
F0.41
tp5619
a(S'new'
p5620
g52
F0.9814
tp5621
a(S'they'
p5622
g12
F0.9715
tp5623
a(S'find'
p5624
g9
F0.9997
tp5625
a(g292
g23
F0.9988
tp5626
a(S'new'
p5627
g52
F0.9996
tp5628
a(S'one'
p5629
g813
F0.9786
tp5630
a(S'on'
p5631
g20
F0.9954
tp5632
a(g292
g23
F0.9943
tp5633
a(S'ghostbusters'
p5634
g6
F0.5296
tp5635
a(S'xxx'
p5636
g9
F0.3063
tp5637
a(S'that'
p5638
g12
F0.7807
tp5639
a(S'will'
p5640
g9
F0.9979
tp5641
a(S'be'
p5642
g9
F0.9998
tp5643
a(g292
g23
F0.7151
tp5644
a(S'that'
p5645
g12
F0.7899
tp5646
a(S'will'
p5647
g9
F0.9979
tp5648
a(S'be'
p5649
g9
F0.9998
tp5650
a(g292
g23
F0.8181
tp5651
a(S'um'
p5652
g52
F0.3305
tp5653
a(S'one'
p5654
g813
F0.9682
tp5655
a(S'with'
p5656
g20
F0.9993
tp5657
a(S'um'
p5658
g46
F0.3575
tp5659
a(S'since'
p5660
g20
F0.9847
tp5661
a(S'they'
p5662
g12
F0.9809
tp5663
a(S'open'
p5664
g9
F0.9942
tp5665
a(S'the'
p5666
g23
F0.9991
tp5667
a(S'door'
p5668
g6
F0.9964
tp5669
a(S'and'
p5670
g28
F0.9982
tp5671
a(S'it'
p5672
g12
F0.9975
tp5673
a(S'goes'
p5674
g9
F0.9982
tp5675
a(S'ooo'
p5676
g46
F0.8216
tp5677
a(g1631
g20
F0.4458
tp5678
a(S'makes'
p5679
g9
F0.9876
tp5680
a(S'beeping'
p5681
g9
F0.9918
tp5682
a(S'noise'
p5683
g6
F0.9688
tp5684
a(S'like'
p5685
g20
F0.948
tp5686
a(S'that'
p5687
g12
F0.9197
tp5688
asI500
(lp5689
(S'electronic'
p5690
g52
F0.8709
tp5691
a(S'doors'
p5692
g6
F0.9995
tp5693
asI501
(lp5694
(S'uhhuh'
p5695
g46
F0.9892
tp5696
asI502
(lp5697
(S'can'
p5698
g9
F0.999
tp5699
a(S'you'
p5700
g12
F0.9994
tp5701
a(S'say'
p5702
g9
F0.9994
tp5703
a(S'that'
p5704
g23
F0.7094
tp5705
a(S'word'
p5706
g6
F0.9373
tp5707
asI503
(lp5708
(S'goes'
p5709
g9
F0.9942
tp5710
a(S'down'
p5711
g17
F0.9343
tp5712
asI504
(lp5713
(S'say'
p5714
g9
F0.9481
tp5715
a(S'electronic'
p5716
g52
F0.945
tp5717
asI505
(lp5718
(S'electronic'
p5719
g52
F0.8863
tp5720
a(S'door'
p5721
g6
F0.9991
tp5722
asI506
(lp5723
(S'that'
p5724
g12
F0.4727
tp5725
a(g270
g9
F0.5427
tp5726
a(S'right'
p5727
g46
F0.3487
tp5728
asI507
(lp5729
(S'and'
p5730
g28
F0.9994
tp5731
a(S'it'
p5732
g12
F0.9898
tp5733
a(S'close'
p5734
g9
F0.7009
tp5735
a(S'the'
p5736
g23
F0.9995
tp5737
a(S'door'
p5738
g6
F0.9974
tp5739
a(S'like'
p5740
g20
F0.9791
tp5741
a(S'this'
p5742
g12
F0.9625
tp5743
a(S'and'
p5744
g28
F0.9975
tp5745
a(S'xxx'
p5746
g9
F0.4287
tp5747
a(S'like'
p5748
g20
F0.8751
tp5749
a(S'this'
p5750
g12
F0.8761
tp5751
asI508
(lp5752
(S'very'
p5753
g3
F0.9939
tp5754
a(S'good'
p5755
g52
F0.9999
tp5756
asI509
(lp5757
(S'how'
p5758
g3
F0.9957
tp5759
a(S'about'
p5760
g20
F0.9913
tp5761
a(S'you'
p5762
g12
F0.9997
tp5763
a(S'eat'
p5764
g9
F0.9989
tp5765
a(S'some'
p5766
g23
F0.9943
tp5767
a(S'supper'
p5768
g6
F0.9747
tp5769
asI510
(lp5770
(S'and'
p5771
g28
F0.9982
tp5772
a(S'on'
p5773
g20
F0.9808
tp5774
a(S'ghostbusters'
p5775
g1018
F0.8381
tp5776
a(S'they'
p5777
g12
F0.9741
tp5778
a(S'throw'
p5779
g9
F0.977
tp5780
a(S'xxx'
p5781
g404
F0.2875
tp5782
a(S'something'
p5783
g6
F0.9726
tp5784
a(S'that'
p5785
g20
F0.7507
tp5786
a(S'punches'
p5787
g9
F0.5038
tp5788
asI511
(lp5789
(S'there'
p5790
g787
F0.4664
tp5791
a(g270
g304
F0.638
tp5792
a(S'gonna'
p5793
g9
F0.9936
tp5794
a(S'be'
p5795
g9
F0.9996
tp5796
a(S'something'
p5797
g6
F0.9655
tp5798
a(S'that'
p5799
g20
F0.7931
tp5800
a(S'punches'
p5801
g9
F0.4913
tp5802
asI512
(lp5803
(S'mhm'
p5804
g46
F0.9747
tp5805
asI513
(lp5806
(S'like'
p5807
g20
F0.8624
tp5808
a(S'what'
p5809
g12
F0.9974
tp5810
asI514
(lp5811
(S'um'
p5812
g46
F0.9148
tp5813
a(S'like'
p5814
g20
F0.8727
tp5815
a(S'the'
p5816
g23
F0.9989
tp5817
a(S'boxer'
p5818
g6
F0.9851
tp5819
a(S'man'
p5820
g6
F0.9074
tp5821
a(S'but'
p5822
g28
F0.9879
tp5823
a(S'it'
p5824
g12
F0.9971
tp5825
a(g270
g9
F0.4302
tp5826
a(S'gonna'
p5827
g9
F0.9957
tp5828
a(S'be'
p5829
g9
F0.9998
tp5830
a(g292
g23
F0.9809
tp5831
a(S'ghost'
p5832
g52
F0.5936
tp5833
a(S'one'
p5834
g813
F0.8305
tp5835
asI515
(lp5836
(S'and'
p5837
g28
F0.9982
tp5838
a(S'on'
p5839
g20
F0.9808
tp5840
a(S'ghostbusters'
p5841
g1018
F0.853
tp5842
a(S'um'
p5843
g46
F0.8728
tp5844
a(S'xxx'
p5845
g404
F0.5045
tp5846
a(S'lady'
p5847
g6
F0.9612
tp5848
a(S'there'
p5849
g3
F0.7154
tp5850
a(S'ain'
p5851
g9
F0.6282
tp5852
a(g8
g9
F0.6774
tp5853
a(S'no'
p5854
g3
F0.5903
tp5855
a(S'more'
p5856
g52
F0.9095
tp5857
a(S'ghostbusters'
p5858
g6
F0.725
tp5859
a(S'comes'
p5860
g9
F0.9826
tp5861
asI516
(lp5862
(S'no'
p5863
g46
F0.7985
tp5864
a(S'you'
p5865
g12
F0.9964
tp5866
a(S'can'
p5867
g9
F0.9999
tp5868
a(S'um'
p5869
g46
F0.5682
tp5870
a(S'just'
p5871
g3
F0.9991
tp5872
a(S'cut'
p5873
g9
F0.9913
tp5874
a(S'it'
p5875
g12
F0.8612
tp5876
a(S'one'
p5877
g813
F0.9331
tp5878
a(S'chie'
p5879
g304
F0.3489
tp5880
asI517
(lp5881
(S'then'
p5882
g3
F0.89
tp5883
a(S'the'
p5884
g23
F0.9739
tp5885
a(S'xxx'
p5886
g6
F0.6386
tp5887
a(S'can'
p5888
g9
F0.9977
tp5889
a(S'see'
p5890
g9
F0.9998
tp5891
a(S'you'
p5892
g12
F0.979
tp5893
a(g30
g12
F0.8237
tp5894
a(S'xxx'
p5895
g9
F0.5842
tp5896
a(S'and'
p5897
g28
F0.998
tp5898
a(g30
g12
F0.9731
tp5899
a(S'xxx'
p5900
g404
F0.685
tp5901
asI518
(lp5902
(S'no'
p5903
g23
F0.5052
tp5904
a(S'leave'
p5905
g6
F0.7014
tp5906
a(S'nelson'
p5907
g1018
F0.741
tp5908
a(S'alone'
p5909
g52
F0.8557
tp5910
a(S'honey'
p5911
g6
F0.9716
tp5912
a(S'please'
p5913
g9
F0.9822
tp5914
a(S'eat'
p5915
g9
F0.9977
tp5916
a(S'your'
p5917
g23
F0.9926
tp5918
a(S'supper'
p5919
g6
F0.9971
tp5920
asI519
(lp5921
(S'it'
p5922
g12
F0.9979
tp5923
a(S'is'
p5924
g9
F0.9992
tp5925
a(S'xxx'
p5926
g404
F0.4982
tp5927
a(S'nelson'
p5928
g1018
F0.936
tp5929
a(S'nelson'
p5930
g1018
F0.9929
tp5931
a(S'nelson'
p5932
g1018
F0.9918
tp5933
a(S'singing'
p5934
g9
F0.998
tp5935
asI520
(lp5936
(S'chi'
p5937
g1018
F0.5921
tp5938
a(S'singing'
p5939
g9
F0.9974
tp5940
asI521
(lp5941
(S'come'
p5942
g9
F0.9849
tp5943
a(S'on'
p5944
g17
F0.5632
tp5945
asI522
(lp5946
(S'laughs'
p5947
g9
F0.9102
tp5948
asI523
(lp5949
(S'didn'
p5950
g9
F0.598
tp5951
a(g8
g9
F0.7941
tp5952
a(S'eat'
p5953
g9
F0.9147
tp5954
a(S'much'
p5955
g52
F0.6135
tp5956
a(S'of'
p5957
g20
F0.9988
tp5958
a(S'your'
p5959
g23
F0.9844
tp5960
a(S'mashed'
p5961
g52
F0.8705
tp5962
a(S'potatoes'
p5963
g6
F0.999
tp5964
a(S'there'
p5965
g3
F0.8353
tp5966
asI524
(lp5967
(S'xxx'
p5968
g404
F0.8437
tp5969
asI525
(lp5970
(S'whatcha'
p5971
g1295
F0.6767
tp5972
a(S'what'
p5973
g12
F0.9903
tp5974
a(S'are'
p5975
g9
F0.9985
tp5976
a(S'you'
p5977
g12
F0.9993
tp5978
a(S'doing'
p5979
g9
F0.9998
tp5980
asI526
(lp5981
(S'you'
p5982
g12
F0.9754
tp5983
a(S're'
p5984
g9
F0.9434
tp5985
a(g292
g23
F0.9888
tp5986
a(S'good'
p5987
g52
F0.9969
tp5988
a(S'cooker'
p5989
g6
F0.9786
tp5990
asI527
(lp5991
(S'thank'
p5992
g9
F0.9631
tp5993
a(S'you'
p5994
g12
F0.9987
tp5995
asI528
(lp5996
(S'you'
p5997
g12
F0.9754
tp5998
a(S're'
p5999
g9
F0.9434
tp6000
a(g292
g23
F0.9897
tp6001
a(S'good'
p6002
g52
F0.9985
tp6003
a(S'son'
p6004
g6
F0.9731
tp6005
a(S'honey'
p6006
g6
F0.9055
tp6007
asI529
(lp6008
(S'would'
p6009
g9
F0.9987
tp6010
a(S'you'
p6011
g12
F0.9982
tp6012
a(S'please'
p6013
g9
F0.9972
tp6014
a(S'get'
p6015
g9
F0.999
tp6016
a(S'in'
p6017
g20
F0.9239
tp6018
a(S'your'
p6019
g23
F0.9899
tp6020
a(S'chair'
p6021
g6
F0.9986
tp6022
asI530
(lp6023
(S'yeah'
p6024
g46
F0.9925
tp6025
a(S'those'
p6026
g12
F0.8509
tp6027
a(S'are'
p6028
g9
F0.9966
tp6029
a(S'sparklers'
p6030
g6
F0.8268
tp6031
a(S'for'
p6032
g20
F0.9987
tp6033
a(S'when'
p6034
g3
F0.8958
tp6035
a(S'it'
p6036
g12
F0.9965
tp6037
a(S'gets'
p6038
g9
F0.9997
tp6039
a(S'darker'
p6040
g52
F0.9586
tp6041
asI531
(lp6042
(S'that'
p6043
g23
F0.6951
tp6044
a(S'one'
p6045
g813
F0.8751
tp6046
a(S'right'
p6047
g3
F0.5847
tp6048
a(S'there'
p6049
g3
F0.7907
tp6050
a(S'xxx'
p6051
g404
F0.3794
tp6052
a(S'that'
p6053
g20
F0.5596
tp6054
a(S'one'
p6055
g813
F0.9094
tp6056
a(S'there'
p6057
g3
F0.6856
tp6058
asI532
(lp6059
(S'and'
p6060
g28
F0.999
tp6061
a(g30
g12
F0.9938
tp6062
a(S'can'
p6063
g9
F0.9999
tp6064
a(S'hold'
p6065
g9
F0.9957
tp6066
a(S'one'
p6067
g813
F0.7794
tp6068
asI533
(lp6069
(S'chi'
p6070
g1018
F0.7288
tp6071
a(S'could'
p6072
g9
F0.999
tp6073
a(S'you'
p6074
g12
F0.9988
tp6075
a(S'please'
p6076
g9
F0.997
tp6077
a(S'come'
p6078
g9
F0.9991
tp6079
a(S'around'
p6080
g3
F0.7665
tp6081
a(S'and'
p6082
g28
F0.9952
tp6083
a(S'get'
p6084
g9
F0.9982
tp6085
a(S'in'
p6086
g20
F0.9605
tp6087
a(S'your'
p6088
g23
F0.9918
tp6089
a(S'chair'
p6090
g6
F0.9989
tp6091
asI534
(lp6092
(S'are'
p6093
g9
F0.9964
tp6094
a(S'you'
p6095
g12
F0.9994
tp6096
a(S'gonna'
p6097
g9
F0.9997
tp6098
a(S'hold'
p6099
g9
F0.9948
tp6100
a(S'one'
p6101
g813
F0.8363
tp6102
a(S'tonight'
p6103
g6
F0.7202
tp6104
asI535
(lp6105
(S'xxx'
p6106
g404
F0.8437
tp6107
asI536
(lp6108
(S'you'
p6109
g12
F0.995
tp6110
a(S'always'
p6111
g3
F0.9894
tp6112
a(S'say'
p6113
g9
F0.9983
tp6114
a(S'that'
p6115
g20
F0.8033
tp6116
a(S'you'
p6117
g12
F0.9998
tp6118
a(S'know'
p6119
g9
F0.9993
tp6120
a(S'with'
p6121
g20
F0.9814
tp6122
a(S'long'
p6123
g52
F0.9957
tp6124
a(S'pants'
p6125
g6
F0.9987
tp6126
a(S'on'
p6127
g20
F0.9937
tp6128
asI537
(lp6129
(S'it'
p6130
g12
F0.9943
tp6131
a(S'will'
p6132
g9
F0.9983
tp6133
a(S'hurt'
p6134
g9
F0.9996
tp6135
a(S'my'
p6136
g23
F0.9983
tp6137
a(S'skin'
p6138
g6
F0.9993
tp6139
asI538
(lp6140
(S'honey'
p6141
g6
F0.6287
tp6142
a(S'they'
p6143
g12
F0.9544
tp6144
a(S'don'
p6145
g9
F0.8571
tp6146
a(g8
g6
F0.2564
tp6147
a(S'hurt'
p6148
g9
F0.9967
tp6149
a(S'your'
p6150
g23
F0.9878
tp6151
a(S'skin'
p6152
g6
F0.9997
tp6153
a(S'honestly'
p6154
g3
F0.9948
tp6155
asI539
(lp6156
(S'and'
p6157
g28
F0.999
tp6158
a(g30
g12
F0.9953
tp6159
a(S'need'
p6160
g9
F0.9991
tp6161
a(S'mittens'
p6162
g6
F0.9783
tp6163
asI540
(lp6164
(S'you'
p6165
g12
F0.9926
tp6166
a(S'don'
p6167
g9
F0.8675
tp6168
a(g8
g6
F0.2376
tp6169
a(S'need'
p6170
g9
F0.9873
tp6171
a(S'mittens'
p6172
g6
F0.959
tp6173
a(S'they'
p6174
g12
F0.9588
tp6175
a(S'don'
p6176
g9
F0.857
tp6177
a(g8
g6
F0.2614
tp6178
a(S'hurt'
p6179
g9
F0.9967
tp6180
a(S'your'
p6181
g23
F0.9903
tp6182
a(S'skin'
p6183
g6
F0.9993
tp6184
a(S'they'
p6185
g12
F0.8635
tp6186
a(S're'
p6187
g9
F0.62
tp6188
a(S'just'
p6189
g3
F0.9999
tp6190
a(S'little'
p6191
g52
F0.9936
tp6192
a(S'sparklers'
p6193
g6
F0.9527
tp6194
asI541
(lp6195
(S'xxx'
p6196
g404
F0.7364
tp6197
a(S'boom'
p6198
g9
F0.2638
tp6199
a(S'boom'
p6200
g9
F0.3498
tp6201
a(S'boom'
p6202
g6
F0.2633
tp6203
asI542
(lp6204
(S'they'
p6205
g12
F0.9925
tp6206
a(S'hurt'
p6207
g9
F0.9994
tp6208
a(S'me'
p6209
g12
F0.9986
tp6210
asI543
(lp6211
(S'please'
p6212
g9
F0.9626
tp6213
a(S'come'
p6214
g9
F0.9982
tp6215
a(S'on'
p6216
g20
F0.7261
tp6217
a(S'up'
p6218
g17
F0.5153
tp6219
a(S'in'
p6220
g20
F0.9905
tp6221
a(S'your'
p6222
g23
F0.9899
tp6223
a(S'chair'
p6224
g6
F0.9986
tp6225
asI544
(lp6226
(S'be'
p6227
g9
F0.9727
tp6228
a(S'cause'
p6229
g20
F0.7105
tp6230
a(g30
g12
F0.982
tp6231
a(g232
g9
F0.9712
tp6232
a(S'only'
p6233
g3
F0.8404
tp6234
a(S'that'
p6235
g20
F0.348
tp6236
a(S'many'
p6237
g52
F0.9395
tp6238
asI545
(lp6239
(g30
g12
F0.9908
tp6240
a(S'know'
p6241
g9
F0.9999
tp6242
a(S'you'
p6243
g12
F0.9959
tp6244
a(S're'
p6245
g9
F0.6843
tp6246
a(S'only'
p6247
g3
F0.866
tp6248
a(S'that'
p6249
g23
F0.3408
tp6250
a(S'many'
p6251
g52
F0.9431
tp6252
a(S'but'
p6253
g28
F0.9817
tp6254
a(S'you'
p6255
g12
F0.9997
tp6256
a(S'know'
p6257
g9
F0.9989
tp6258
a(S'what'
p6259
g12
F0.9927
tp6260
asI546
(lp6261
(S'what'
p6262
g12
F0.949
tp6263
asI547
(lp6264
(S'they'
p6265
g12
F0.9742
tp6266
a(S'don'
p6267
g9
F0.8659
tp6268
a(g8
g6
F0.2842
tp6269
a(S'hurt'
p6270
g9
F0.997
tp6271
a(S'you'
p6272
g12
F0.997
tp6273
a(S'yes'
p6274
g9
F0.6678
tp6275
a(S'you'
p6276
g12
F0.9996
tp6277
a(S'can'
p6278
g9
F0.9996
tp6279
a(S'feel'
p6280
g9
F0.9997
tp6281
a(S'the'
p6282
g23
F0.9975
tp6283
a(S'sparks'
p6284
g6
F0.5356
tp6285
a(S'but'
p6286
g28
F0.9836
tp6287
a(S'no'
p6288
g3
F0.387
tp6289
a(S'they'
p6290
g12
F0.9618
tp6291
a(S'don'
p6292
g9
F0.8423
tp6293
a(g8
g6
F0.2603
tp6294
a(S'hurt'
p6295
g9
F0.9521
tp6296
asI548
(lp6297
(S'you'
p6298
g12
F0.9942
tp6299
a(S'just'
p6300
g3
F0.9992
tp6301
a(S'can'
p6302
g9
F0.9989
tp6303
a(S'feel'
p6304
g9
F0.9999
tp6305
a(S'them'
p6306
g12
F0.9728
tp6307
a(S'but'
p6308
g28
F0.9836
tp6309
a(S'they'
p6310
g12
F0.9884
tp6311
a(S'don'
p6312
g9
F0.8348
tp6313
a(g8
g6
F0.3044
tp6314
a(S'hurt'
p6315
g9
F0.9595
tp6316
asI549
(lp6317
(S'mommy'
p6318
g6
F0.5271
tp6319
asI550
(lp6320
(S'and'
p6321
g28
F0.9989
tp6322
a(S'you'
p6323
g12
F0.9996
tp6324
a(S'know'
p6325
g9
F0.9988
tp6326
a(S'what'
p6327
g12
F0.9912
tp6328
a(S'else'
p6329
g3
F0.9154
tp6330
asI551
(lp6331
(S'mommy'
p6332
g6
F0.7111
tp6333
a(S'know'
p6334
g9
F0.9886
tp6335
a(S'what'
p6336
g12
F0.994
tp6337
asI552
(lp6338
(S'can'
p6339
g9
F0.9755
tp6340
a(g30
g12
F0.9798
tp6341
a(S'just'
p6342
g3
F0.9995
tp6343
a(S'ask'
p6344
g9
F0.9993
tp6345
a(S'you'
p6346
g12
F0.9983
tp6347
a(S'something'
p6348
g9
F0.7413
tp6349
a(S'you'
p6350
g12
F0.9995
tp6351
a(S'know'
p6352
g9
F0.9959
tp6353
a(S'honey'
p6354
g6
F0.934
tp6355
a(g30
g12
F0.9088
tp6356
a(S'wouldn'
p6357
g9
F0.9892
tp6358
a(g8
g9
F0.8035
tp6359
a(S'give'
p6360
g9
F0.9988
tp6361
a(S'you'
p6362
g12
F0.9984
tp6363
a(S'anything'
p6364
g6
F0.6085
tp6365
a(S'that'
p6366
g20
F0.741
tp6367
a(S'would'
p6368
g9
F0.9964
tp6369
a(S'hurt'
p6370
g9
F0.9999
tp6371
a(S'you'
p6372
g12
F0.9985
tp6373
a(S'xxx'
p6374
g404
F0.4572
tp6375
asI553
(lp6376
(S'mommy'
p6377
g6
F0.5271
tp6378
asI554
(lp6379
(S'what'
p6380
g12
F0.949
tp6381
asI555
(lp6382
(S'know'
p6383
g9
F0.9511
tp6384
a(S'what'
p6385
g12
F0.9922
tp6386
asI556
(lp6387
(S'what'
p6388
g12
F0.9923
tp6389
a(S'was'
p6390
g9
F0.9863
tp6391
a(g30
g12
F0.9955
tp6392
a(S'going'
p6393
g9
F0.9998
tp6394
a(S'to'
p6395
g20
F0.9583
tp6396
a(S'say'
p6397
g9
F0.9948
tp6398
asI557
(lp6399
(g30
g12
F0.9635
tp6400
a(S'don'
p6401
g9
F0.9231
tp6402
a(g8
g6
F0.2457
tp6403
a(S'know'
p6404
g9
F0.9891
tp6405
a(S'but'
p6406
g28
F0.9801
tp6407
a(S'you'
p6408
g12
F0.9997
tp6409
a(S'know'
p6410
g9
F0.9977
tp6411
a(S'what'
p6412
g12
F0.9942
tp6413
asI558
(lp6414
(S'you'
p6415
g12
F0.9946
tp6416
a(S'look'
p6417
g9
F0.9939
tp6418
a(S'so'
p6419
g3
F0.9338
tp6420
a(S'sleepy'
p6421
g52
F0.9934
tp6422
asI559
(lp6423
(S'are'
p6424
g9
F0.9964
tp6425
a(S'you'
p6426
g12
F0.9991
tp6427
a(S'still'
p6428
g3
F0.998
tp6429
a(S'sleepy'
p6430
g52
F0.9936
tp6431
asI560
(lp6432
(S'babbling'
p6433
g9
F0.9317
tp6434
asI561
(lp6435
(g30
g12
F0.9893
tp6436
a(S'said'
p6437
g9
F0.9988
tp6438
a(S'xxx'
p6439
g404
F0.43
tp6440
a(S'doodoo'
p6441
g52
F0.735
tp6442
a(S'c'
p6443
g6
F0.6142
tp6444
a(S'head'
p6445
g6
F0.9669
tp6446
asI562
(lp6447
(g30
g12
F0.9635
tp6448
a(S'don'
p6449
g9
F0.9231
tp6450
a(g8
g9
F0.4437
tp6451
a(S'like'
p6452
g20
F0.8041
tp6453
a(S'doodoo'
p6454
g52
F0.5919
tp6455
a(g6443
g6
F0.6544
tp6456
a(S'head'
p6457
g6
F0.9641
tp6458
asI563
(lp6459
(g30
g12
F0.9635
tp6460
a(S'don'
p6461
g9
F0.9231
tp6462
a(g8
g9
F0.4437
tp6463
a(S'like'
p6464
g20
F0.8416
tp6465
a(S'name'
p6466
g6
F0.9879
tp6467
a(S'calling'
p6468
g9
F0.9902
tp6469
asI564
(lp6470
(S'xxx'
p6471
g404
F0.7728
tp6472
a(g30
g12
F0.9561
tp6473
a(S'don'
p6474
g9
F0.9187
tp6475
a(g8
g9
F0.4371
tp6476
a(S'like'
p6477
g20
F0.8433
tp6478
a(S'this'
p6479
g23
F0.7509
tp6480
a(S'banana'
p6481
g6
F0.9876
tp6482
asI565
(lp6483
(g30
g12
F0.989
tp6484
a(S'think'
p6485
g9
F1.0
tp6486
a(S'it'
p6487
g12
F0.9926
tp6488
a(g270
g9
F0.6519
tp6489
a(S'the'
p6490
g23
F0.9989
tp6491
a(S'doggie'
p6492
g6
F0.9212
tp6493
a(S'next'
p6494
g52
F0.6218
tp6495
a(S'door'
p6496
g6
F0.9974
tp6497
asI566
(lp6498
(S'he'
p6499
g12
F0.9905
tp6500
a(g270
g9
F0.8082
tp6501
a(S'pulling'
p6502
g9
F0.9968
tp6503
a(S'on'
p6504
g20
F0.982
tp6505
a(S'his'
p6506
g23
F0.9986
tp6507
a(S'chain'
p6508
g6
F0.9954
tp6509
asI567
(lp6510
(S'doggie'
p6511
g6
F0.7992
tp6512
a(S'xxx'
p6513
g404
F0.6266
tp6514
a(S'huh'
p6515
g46
F0.9543
tp6516
asI568
(lp6517
(S'yes'
p6518
g46
F0.993
tp6519
a(S'they'
p6520
g12
F0.9974
tp6521
a(S'do'
p6522
g9
F0.9995
tp6523
asI569
(lp6524
(S'somechies'
p6525
g1018
F0.3345
tp6526
a(S'wp'
p6527
g1018
F0.7652
tp6528
a(S'they'
p6529
g12
F0.9411
tp6530
a(S'bite'
p6531
g9
F0.9983
tp6532
a(S'you'
p6533
g12
F0.9978
tp6534
asI570
(lp6535
(S'well'
p6536
g46
F0.8338
tp6537
a(S'somechies'
p6538
g1018
F0.3066
tp6539
a(S'wp'
p6540
g1018
F0.7722
tp6541
a(S'they'
p6542
g12
F0.9778
tp6543
a(S'do'
p6544
g9
F0.9997
tp6545
asI571
(lp6546
(S'but'
p6547
g28
F0.9944
tp6548
a(S'we'
p6549
g12
F0.9957
tp6550
a(S're'
p6551
g9
F0.5024
tp6552
a(S'so'
p6553
g3
F0.9646
tp6554
a(S'lucky'
p6555
g52
F0.9928
tp6556
a(S'we'
p6557
g12
F0.9956
tp6558
a(S'have'
p6559
g9
F0.9999
tp6560
a(g292
g23
F0.9984
tp6561
a(S'cat'
p6562
g6
F0.8833
tp6563
a(S'and'
p6564
g28
F0.9975
tp6565
a(S'we'
p6566
g12
F0.9972
tp6567
a(S'don'
p6568
g9
F0.8369
tp6569
a(g8
g304
F0.2554
tp6570
a(S'need'
p6571
g9
F0.9917
tp6572
a(g292
g23
F0.9976
tp6573
a(S'dog'
p6574
g6
F0.9992
tp6575
asI572
(lp6576
(S'know'
p6577
g9
F0.9631
tp6578
a(S'what'
p6579
g12
F0.8793
tp6580
a(S'dogs'
p6581
g6
F0.9774
tp6582
a(S'do'
p6583
g9
F0.9941
tp6584
asI573
(lp6585
(S'what'
p6586
g12
F0.949
tp6587
asI574
(lp6588
(S'0'
p6589
g813
F0.9641
tp6590
a(S'makes'
p6591
g9
F0.8607
tp6592
a(S'barking'
p6593
g9
F0.975
tp6594
a(S'sounds'
p6595
g9
F0.7012
tp6596
asI575
(lp6597
(S'very'
p6598
g3
F0.9939
tp6599
a(S'good'
p6600
g52
F0.9999
tp6601
asI576
(lp6602
(S'know'
p6603
g9
F0.9631
tp6604
a(S'what'
p6605
g12
F0.93
tp6606
a(S'kitties'
p6607
g6
F0.9549
tp6608
a(S'do'
p6609
g9
F0.9943
tp6610
asI577
(lp6611
(S'what'
p6612
g12
F0.949
tp6613
asI578
(lp6614
(S'meows'
p6615
g46
F0.2324
tp6616
asI579
(lp6617
(S'when'
p6618
g3
F0.9601
tp6619
a(S'they'
p6620
g12
F0.9155
tp6621
a(S're'
p6622
g9
F0.7161
tp6623
a(S'sad'
p6624
g52
F0.9923
tp6625
asI580
(lp6626
(S'that'
p6627
g12
F0.4576
tp6628
a(S'sounds'
p6629
g9
F0.9928
tp6630
a(S'like'
p6631
g20
F0.9533
tp6632
a(g292
g23
F0.9829
tp6633
a(S'very'
p6634
g3
F0.9974
tp6635
a(S'sad'
p6636
g52
F0.9999
tp6637
a(S'cat'
p6638
g6
F0.912
tp6639
asI581
(lp6640
(S'mom'
p6641
g6
F0.8127
tp6642
a(S'xxx'
p6643
g404
F0.7828
tp6644
asI582
(lp6645
(S'yeah'
p6646
g46
F0.9988
tp6647
asI583
(lp6648
(S'xxx'
p6649
g404
F0.8437
tp6650
asI584
(lp6651
(S'aw'
p6652
g46
F0.9957
tp6653
a(S'that'
p6654
g12
F0.6084
tp6655
a(g270
g9
F0.6242
tp6656
a(g292
g23
F0.9932
tp6657
a(S'sad'
p6658
g52
F0.996
tp6659
a(S'quiet'
p6660
g52
F0.9205
tp6661
a(S'cat'
p6662
g6
F0.9495
tp6663
asI585
(lp6664
(S'no'
p6665
g46
F0.9253
tp6666
asI586
(lp6667
(S'he'
p6668
g12
F0.9905
tp6669
a(g270
g9
F0.627
tp6670
a(S'wicked'
p6671
g52
F0.9708
tp6672
a(S'shy'
p6673
g52
F0.9405
tp6674
asI587
(lp6675
(S'yeah'
p6676
g46
F0.9988
tp6677
asI588
(lp6678
(S'mhm'
p6679
g46
F0.9747
tp6680
asI589
(lp6681
(S'you'
p6682
g12
F0.998
tp6683
a(S'want'
p6684
g9
F0.9997
tp6685
a(S'to'
p6686
g20
F0.9929
tp6687
a(S'hear'
p6688
g9
F0.9984
tp6689
a(g292
g23
F0.999
tp6690
a(S'little'
p6691
g52
F0.7875
tp6692
a(S'shy'
p6693
g52
F0.9961
tp6694
a(S'cat'
p6695
g6
F0.8793
tp6696
asI590
(lp6697
(g30
g12
F0.9897
tp6698
a(S'want'
p6699
g9
F0.9999
tp6700
a(S'to'
p6701
g20
F0.9929
tp6702
a(S'hear'
p6703
g9
F0.9984
tp6704
a(g292
g23
F0.9972
tp6705
a(S'happy'
p6706
g52
F0.9991
tp6707
a(S'cat'
p6708
g6
F0.896
tp6709
asI591
(lp6710
(g6589
g813
F0.9833
tp6711
a(S'loud'
p6712
g52
F0.9865
tp6713
a(S'meows'
p6714
g6
F0.8742
tp6715
asI592
(lp6716
(S'want'
p6717
g9
F0.9945
tp6718
a(S'to'
p6719
g20
F0.9959
tp6720
a(S'hear'
p6721
g9
F0.9986
tp6722
a(g292
g23
F0.9971
tp6723
a(S'loud'
p6724
g52
F0.9281
tp6725
a(S'loud'
p6726
g52
F0.9943
tp6727
a(S'one'
p6728
g813
F0.8387
tp6729
asI593
(lp6730
(g6589
g813
F0.9723
tp6731
a(S'screaming'
p6732
g9
F0.9512
tp6733
a(S'meows'
p6734
g6
F0.3457
tp6735
asI594
(lp6736
(S'whoa'
p6737
g46
F0.9967
tp6738
a(S'that'
p6739
g12
F0.6083
tp6740
a(g270
g9
F0.6242
tp6741
a(g292
g23
F0.9935
tp6742
a(S'good'
p6743
g52
F0.9996
tp6744
a(S'one'
p6745
g813
F0.7626
tp6746
asI595
(lp6747
(S'that'
p6748
g23
F0.6951
tp6749
a(S'one'
p6750
g813
F0.5458
tp6751
a(S'did'
p6752
g9
F0.9943
tp6753
a(S'up'
p6754
g17
F0.9254
tp6755
a(S'to'
p6756
g20
F0.9817
tp6757
a(S'to'
p6758
g20
F0.8202
tp6759
a(S'mommy'
p6760
g6
F0.3912
tp6761
a(S'what'
p6762
g12
F0.9649
tp6763
asI596
(lp6764
(S'this'
p6765
g12
F0.9526
tp6766
a(S'is'
p6767
g9
F0.9963
tp6768
a(S'breaked'
p6769
g52
F0.2341
tp6770
a(S'see'
p6771
g9
F0.6384
tp6772
asI597
(lp6773
(S'yeah'
p6774
g46
F0.9903
tp6775
a(S'it'
p6776
g12
F0.9988
tp6777
a(S'is'
p6778
g9
F0.9999
tp6779
a(S'it'
p6780
g12
F0.998
tp6781
a(g270
g9
F0.6123
tp6782
a(S'kind'
p6783
g6
F0.8956
tp6784
a(S'of'
p6785
g20
F0.994
tp6786
asI598
(lp6787
(S'need'
p6788
g9
F0.9854
tp6789
a(g292
g23
F0.998
tp6790
a(S'new'
p6791
g52
F0.9995
tp6792
a(S'one'
p6793
g813
F0.8788
tp6794
asI599
(lp6795
(g30
g12
F0.989
tp6796
a(S'think'
p6797
g9
F1.0
tp6798
a(S'you'
p6799
g12
F0.9995
tp6800
a(S'need'
p6801
g9
F0.9994
tp6802
a(g292
g23
F0.998
tp6803
a(S'new'
p6804
g52
F0.9965
tp6805
a(S'basketball'
p6806
g6
F0.9865
tp6807
a(S'hoop'
p6808
g6
F0.9933
tp6809
a(S'yes'
p6810
g46
F0.9555
tp6811
asI600
(lp6812
(S'xxx'
p6813
g404
F0.6741
tp6814
a(S'ghostbuster'
p6815
g6
F0.2924
tp6816
a(S'xxx'
p6817
g404
F0.5098
tp6818
asI601
(lp6819
(S'ghostbuster'
p6820
g1018
F0.7309
tp6821
a(S'cat'
p6822
g1018
F0.609
tp6823
asI602
(lp6824
(g30
g12
F0.9156
tp6825
a(S've'
p6826
g9
F0.8558
tp6827
a(S'never'
p6828
g3
F0.9905
tp6829
a(S'seen'
p6830
g9
F0.9989
tp6831
a(g292
g23
F0.9926
tp6832
a(S'ghostbusters'
p6833
g1018
F0.572
tp6834
a(S'basketball'
p6835
g6
F0.9441
tp6836
a(S'hoop'
p6837
g6
F0.992
tp6838
asI603
(lp6839
(g30
g12
F0.9156
tp6840
a(S've'
p6841
g9
F0.869
tp6842
a(S'seen'
p6843
g9
F0.9891
tp6844
a(S'larry'
p6845
g1018
F0.9986
tp6846
a(S'bird'
p6847
g6
F0.6867
tp6848
a(S'ones'
p6849
g6
F0.8655
tp6850
a(S'because'
p6851
g20
F0.9979
tp6852
a(S'larry'
p6853
g1018
F0.9973
tp6854
a(S'bird'
p6855
g6
F0.7803
tp6856
a(S'plays'
p6857
g9
F0.9205
tp6858
a(S'for'
p6859
g20
F0.9974
tp6860
a(S'what'
p6861
g12
F0.7819
tp6862
a(S'team'
p6863
g6
F0.9917
tp6864
asI604
(lp6865
(S'do'
p6866
g9
F0.9983
tp6867
a(S'you'
p6868
g12
F0.9997
tp6869
a(S'remember'
p6870
g9
F0.9976
tp6871
asI605
(lp6872
(S'yeah'
p6873
g46
F0.9958
tp6874
a(S'he'
p6875
g12
F0.9971
tp6876
a(S'plays'
p6877
g9
F0.9962
tp6878
a(S'basketball'
p6879
g6
F0.9436
tp6880
a(S'but'
p6881
g28
F0.9892
tp6882
a(S'do'
p6883
g9
F0.9982
tp6884
a(S'you'
p6885
g12
F0.9997
tp6886
a(S'remember'
p6887
g9
F0.9992
tp6888
a(S'for'
p6889
g20
F0.9971
tp6890
a(S'who'
p6891
g12
F0.9967
tp6892
a(S'the'
p6893
g23
F0.9994
tp6894
a(S'name'
p6895
g6
F0.9997
tp6896
a(S'of'
p6897
g20
F0.9996
tp6898
a(S'the'
p6899
g23
F0.9989
tp6900
a(S'team'
p6901
g6
F0.9982
tp6902
asI606
(lp6903
(S'boston'
p6904
g1018
F0.9754
tp6905
a(S'red'
p6906
g52
F0.9904
tp6907
a(S'sox'
p6908
g6
F0.9622
tp6909
asI607
(lp6910
(g6589
g813
F0.9868
tp6911
a(S'gentle'
p6912
g52
F0.9903
tp6913
a(S'laugh'
p6914
g6
F0.9017
tp6915
asI608
(lp6916
(S'boston'
p6917
g1018
F0.9862
tp6918
a(S'celtics'
p6919
g1018
F0.9762
tp6920
asI609
(lp6921
(S'boston'
p6922
g1018
F0.9814
tp6923
a(S'red'
p6924
g52
F0.9822
tp6925
a(S'sox'
p6926
g6
F0.9661
tp6927
a(S'play'
p6928
g9
F0.9347
tp6929
a(S'what'
p6930
g12
F0.9908
tp6931
asI610
(lp6932
(S'baseball'
p6933
g6
F0.946
tp6934
asI611
(lp6935
(S'that'
p6936
g12
F0.4727
tp6937
a(g270
g9
F0.5427
tp6938
a(S'right'
p6939
g46
F0.3487
tp6940
asI612
(lp6941
(S'but'
p6942
g28
F0.9878
tp6943
a(S'in'
p6944
g20
F0.9964
tp6945
a(S'the'
p6946
g23
F0.9988
tp6947
a(S'red'
p6948
g52
F0.9803
tp6949
a(S'sox'
p6950
g6
F0.9206
tp6951
a(S'xxx'
p6952
g404
F0.3567
tp6953
a(S'with'
p6954
g20
F0.9996
tp6955
a(S'the'
p6956
g23
F0.9928
tp6957
a(S'xxx'
p6958
g6
F0.4857
tp6959
asI613
(lp6960
(S'yeah'
p6961
g46
F0.998
tp6962
a(S'yep'
p6963
g46
F0.9954
tp6964
a(S'xxx'
p6965
g404
F0.7787
tp6966
asI614
(lp6967
(S'he'
p6968
g12
F0.9848
tp6969
a(S'hits'
p6970
g9
F0.9919
tp6971
a(S'lots'
p6972
g6
F0.9763
tp6973
a(S'of'
p6974
g20
F0.9975
tp6975
a(S'home'
p6976
g6
F0.9314
tp6977
a(S'runs'
p6978
g9
F0.9286
tp6979
a(S'somechies'
p6980
g6
F0.242
tp6981
a(S'wp'
p6982
g6
F0.6102
tp6983
asI615
(lp6984
(S'mhm'
p6985
g46
F0.9747
tp6986
asI616
(lp6987
(S'mommy'
p6988
g6
F0.436
tp6989
a(S'how'
p6990
g3
F0.9559
tp6991
a(S'are'
p6992
g9
F0.9888
tp6993
a(S'we'
p6994
g12
F0.9986
tp6995
a(S'get'
p6996
g9
F0.9999
tp6997
a(g292
g23
F0.9987
tp6998
a(S'big'
p6999
g52
F0.9889
tp7000
a(S'towel'
p7001
g6
F0.9978
tp7002
a(S'xxx'
p7003
g404
F0.621
tp7004
a(S'and'
p7005
g28
F0.999
tp7006
a(g30
g12
F0.9942
tp7007
a(S'said'
p7008
g9
F0.999
tp7009
a(S'xxx'
p7010
g9
F0.3696
tp7011
a(S'it'
p7012
g12
F0.995
tp7013
a(S'up'
p7014
g17
F0.9869
tp7015
asI617
(lp7016
(g292
g23
F0.9957
tp7017
a(S'big'
p7018
g52
F0.9928
tp7019
a(S'towel'
p7020
g6
F0.999
tp7021
a(S'for'
p7022
g20
F0.9996
tp7023
a(S'where'
p7024
g3
F0.8789
tp7025
asI618
(lp7026
(S'no'
p7027
g46
F0.8444
tp7028
a(g292
g23
F0.9858
tp7029
a(S'big'
p7030
g52
F0.9948
tp7031
a(S'one'
p7032
g813
F0.9565
tp7033
a(S'of'
p7034
g20
F0.999
tp7035
a(S'these'
p7036
g23
F0.6046
tp7037
a(S'so'
p7038
g20
F0.5691
tp7039
a(g30
g12
F0.9935
tp7040
a(S'can'
p7041
g9
F0.9998
tp7042
a(S'punch'
p7043
g9
F0.9851
tp7044
a(S'the'
p7045
g23
F0.9993
tp7046
a(S'ball'
p7047
g6
F0.9985
tp7048
a(S'up'
p7049
g17
F0.582
tp7050
asI619
(lp7051
(S'yeah'
p7052
g46
F0.9988
tp7053
asI620
(lp7054
(S'yeah'
p7055
g46
F0.9983
tp7056
a(S'that'
p7057
g12
F0.6675
tp7058
a(g270
g9
F0.6242
tp7059
a(g292
g23
F0.9935
tp7060
a(S'good'
p7061
g52
F0.9988
tp7062
a(S'idea'
p7063
g6
F0.9689
tp7064
asI621
(lp7065
(S'well'
p7066
g46
F0.741
tp7067
a(S'you'
p7068
g12
F0.9997
tp7069
a(S'know'
p7070
g9
F0.9989
tp7071
a(S'what'
p7072
g12
F0.9819
tp7073
a(S'we'
p7074
g12
F0.9976
tp7075
a(S'll'
p7076
g9
F0.7881
tp7077
a(S'do'
p7078
g9
F0.9988
tp7079
a(S'we'
p7080
g12
F0.9986
tp7081
a(S'll'
p7082
g9
F0.5658
tp7083
a(S'get'
p7084
g9
F0.9996
tp7085
a(g292
g23
F0.9987
tp7086
a(S'new'
p7087
g52
F0.9996
tp7088
a(S'one'
p7089
g813
F0.968
tp7090
a(S'of'
p7091
g20
F0.9991
tp7092
a(S'those'
p7093
g12
F0.572
tp7094
a(S'but'
p7095
g28
F0.9859
tp7096
a(S'we'
p7097
g12
F0.9981
tp7098
a(S'won'
p7099
g9
F0.9789
tp7100
a(g8
g20
F0.3587
tp7101
a(S'let'
p7102
g9
F0.9981
tp7103
a(S'it'
p7104
g12
F0.9957
tp7105
a(S'be'
p7106
g9
F0.9995
tp7107
a(S'outside'
p7108
g3
F0.7507
tp7109
a(S'and'
p7110
g28
F0.997
tp7111
a(S'then'
p7112
g3
F0.9686
tp7113
a(S'it'
p7114
g12
F0.9972
tp7115
a(S'won'
p7116
g9
F0.9563
tp7117
a(g8
g20
F0.4403
tp7118
a(S'get'
p7119
g9
F0.997
tp7120
a(S'um'
p7121
g12
F0.558
tp7122
a(S'wrecked'
p7123
g9
F0.9393
tp7124
a(S'so'
p7125
g3
F0.9541
tp7126
a(S'fast'
p7127
g52
F0.6199
tp7128
a(S'and'
p7129
g28
F0.9979
tp7130
a(S'then'
p7131
g3
F0.98
tp7132
a(S'we'
p7133
g12
F0.9971
tp7134
a(S'll'
p7135
g9
F0.6735
tp7136
a(S'make'
p7137
g9
F0.9989
tp7138
a(S'it'
p7139
g12
F0.6655
tp7140
a(S'taller'
p7141
g52
F0.9127
tp7142
a(S'because'
p7143
g20
F0.9998
tp7144
a(S'we'
p7145
g12
F0.9994
tp7146
a(S'can'
p7147
g9
F0.9997
tp7148
a(S'make'
p7149
g9
F0.9992
tp7150
a(S'that'
p7151
g23
F0.8443
tp7152
a(S'taller'
p7153
g52
F0.9027
tp7154
asI622
(lp7155
(S'is'
p7156
g9
F0.9993
tp7157
a(S'it'
p7158
g12
F0.9992
tp7159
a(S'going'
p7160
g9
F0.9998
tp7161
a(S'down'
p7162
g17
F0.7946
tp7163
asI623
(lp7164
(S'nope'
p7165
g46
F0.9583
tp7166
a(S'leave'
p7167
g9
F0.9959
tp7168
a(S'it'
p7169
g12
F0.9923
tp7170
a(S'alone'
p7171
g3
F0.648
tp7172
a(S'please'
p7173
g9
F0.9265
tp7174
a(S'honey'
p7175
g6
F0.6378
tp7176
a(S'and'
p7177
g28
F0.9962
tp7178
a(S'finish'
p7179
g9
F0.9972
tp7180
a(S'your'
p7181
g23
F0.9921
tp7182
a(S'dinner'
p7183
g6
F0.9951
tp7184
asI624
(lp7185
(S'outcry'
p7186
g6
F0.9392
tp7187
asI625
(lp7188
(S'uhoh'
p7189
g46
F0.9945
tp7190
a(S'what'
p7191
g12
F0.9753
tp7192
asI626
(lp7193
(S'you'
p7194
g12
F0.998
tp7195
a(S'have'
p7196
g9
F0.9974
tp7197
a(S'xxx'
p7198
g6
F0.3283
tp7199
a(S'lamb'
p7200
g6
F0.9951
tp7201
a(S'chop'
p7202
g9
F0.5238
tp7203
asI627
(lp7204
(S'xxx'
p7205
g404
F0.6812
tp7206
a(S'eat'
p7207
g9
F0.9969
tp7208
a(S'up'
p7209
g17
F0.9832
tp7210
asI628
(lp7211
(g30
g12
F0.9635
tp7212
a(S'don'
p7213
g9
F0.9231
tp7214
a(g8
g6
F0.301
tp7215
a(S'have'
p7216
g9
F0.9981
tp7217
a(S'any'
p7218
g23
F0.9585
tp7219
asI629
(lp7220
(S'mommy'
p7221
g6
F0.7607
tp7222
a(g30
g12
F0.9481
tp7223
a(S'wanna'
p7224
g9
F0.9987
tp7225
a(S'see'
p7226
g9
F0.9962
tp7227
a(S'how'
p7228
g3
F0.9951
tp7229
a(S'cold'
p7230
g52
F0.9952
tp7231
a(S'this'
p7232
g12
F0.9041
tp7233
a(S'is'
p7234
g9
F0.9948
tp7235
asI630
(lp7236
(S'how'
p7237
g3
F0.9974
tp7238
a(S'cold'
p7239
g52
F0.997
tp7240
a(S'it'
p7241
g12
F0.991
tp7242
a(S'is'
p7243
g9
F0.9986
tp7244
asI631
(lp7245
(S'mhm'
p7246
g46
F0.9206
tp7247
a(S'xxx'
p7248
g404
F0.7883
tp7249
asI632
(lp7250
(S'oh'
p7251
g46
F0.9978
tp7252
a(S'that'
p7253
g12
F0.571
tp7254
a(g270
g9
F0.5009
tp7255
a(S'the'
p7256
g23
F0.9889
tp7257
a(S'xxx'
p7258
g404
F0.4596
tp7259
asI633
(lp7260
(S'xxx'
p7261
g404
F0.617
tp7262
a(S'on'
p7263
g20
F0.995
tp7264
a(S'the'
p7265
g23
F0.9993
tp7266
a(S'floor'
p7267
g6
F0.9962
tp7268
asI634
(lp7269
(S'okay'
p7270
g46
F0.896
tp7271
a(S'put'
p7272
g9
F0.9867
tp7273
a(S'it'
p7274
g12
F0.9619
tp7275
a(S'on'
p7276
g20
F0.9775
tp7277
a(S'the'
p7278
g23
F0.9994
tp7279
a(S'floor'
p7280
g6
F0.9943
tp7281
asI635
(lp7282
(S'how'
p7283
g3
F0.9764
tp7284
a(g270
g304
F0.5858
tp7285
a(S'that'
p7286
g12
F0.6854
tp7287
a(S'xxx'
p7288
g404
F0.7156
tp7289
asI636
(lp7290
(S'coughing'
p7291
g9
F0.9329
tp7292
asI637
(lp7293
(S'oh'
p7294
g46
F0.9934
tp7295
a(S'you'
p7296
g12
F0.9413
tp7297
a(S'okay'
p7298
g46
F0.5071
tp7299
asI638
(lp7300
(S'coughs'
p7301
g6
F0.5349
tp7302
asI639
(lp7303
(S'do'
p7304
g9
F0.9985
tp7305
a(S'you'
p7306
g12
F0.9996
tp7307
a(S'need'
p7308
g9
F0.9995
tp7309
a(g292
g23
F0.9949
tp7310
a(S'drink'
p7311
g6
F0.9969
tp7312
a(S'of'
p7313
g20
F0.9973
tp7314
a(S'milk'
p7315
g6
F0.9854
tp7316
asI640
(lp7317
(S'no'
p7318
g46
F0.9253
tp7319
asI641
(lp7320
(S'no'
p7321
g46
F0.9236
tp7322
a(S'what'
p7323
g12
F0.9718
tp7324
asI642
(lp7325
(S'no'
p7326
g46
F0.9003
tp7327
a(S'thank'
p7328
g9
F0.9286
tp7329
a(S'you'
p7330
g12
F0.999
tp7331
asI643
(lp7332
(S'mommy'
p7333
g6
F0.5271
tp7334
asI644
(lp7335
(S'this'
p7336
g12
F0.9521
tp7337
a(S'is'
p7338
g9
F0.9953
tp7339
a(S'volleyball'
p7340
g6
F0.8915
tp7341
asI645
(lp7342
(S'mhm'
p7343
g46
F0.9747
tp7344
asI646
(lp7345
(S'hm'
p7346
g46
F0.995
tp7347
asI647
(lp7348
(S'mommy'
p7349
g6
F0.7607
tp7350
a(g30
g12
F0.8265
tp7351
a(g232
g9
F0.9489
tp7352
a(g30
g12
F0.9845
tp7353
a(g232
g9
F0.9607
tp7354
a(S'gonna'
p7355
g9
F0.9911
tp7356
a(S'sleep'
p7357
g9
F0.9711
tp7358
a(S'there'
p7359
g3
F0.8118
tp7360
asI648
(lp7361
(S'gonna'
p7362
g9
F0.9825
tp7363
a(S'sleep'
p7364
g9
F0.9715
tp7365
a(S'there'
p7366
g3
F0.7164
tp7367
asI649
(lp7368
(S'think'
p7369
g9
F0.9989
tp7370
a(S'you'
p7371
g12
F0.9965
tp7372
a(g803
g9
F0.395
tp7373
a(S'uh'
p7374
g46
F0.8179
tp7375
a(S'be'
p7376
g9
F0.9911
tp7377
a(S'able'
p7378
g52
F0.9684
tp7379
a(S'to'
p7380
g20
F0.9987
tp7381
a(S'stay'
p7382
g9
F0.9978
tp7383
a(S'out'
p7384
g17
F0.7136
tp7385
a(S'there'
p7386
g3
F0.5735
tp7387
a(S'all'
p7388
g23
F0.9922
tp7389
a(S'night'
p7390
g6
F0.9882
tp7391
a(S'by'
p7392
g20
F0.9986
tp7393
a(S'yourself'
p7394
g12
F0.9888
tp7395
asI650
(lp7396
(S'mhm'
p7397
g46
F0.9747
tp7398
asI651
(lp7399
(S'are'
p7400
g9
F0.9963
tp7401
a(S'you'
p7402
g12
F0.9985
tp7403
a(S'sure'
p7404
g52
F0.9335
tp7405
asI652
(lp7406
(g30
g12
F0.989
tp7407
a(S'think'
p7408
g9
F0.9997
tp7409
a(S'so'
p7410
g3
F0.8151
tp7411
a(S'mhm'
p7412
g46
F0.5183
tp7413
asI653
(lp7414
(S'coughs'
p7415
g6
F0.5349
tp7416
asI654
(lp7417
(S'well'
p7418
g46
F0.7949
tp7419
a(S'some'
p7420
g23
F0.7088
tp7421
a(S'chie'
p7422
g1018
F0.4392
tp7423
a(S'if'
p7424
g20
F0.9988
tp7425
a(S'you'
p7426
g12
F0.9998
tp7427
a(S'want'
p7428
g9
F0.9995
tp7429
a(S'maybe'
p7430
g3
F0.9803
tp7431
a(S'you'
p7432
g12
F0.9994
tp7433
a(S'can'
p7434
g9
F0.9999
tp7435
a(g292
g23
F0.9941
tp7436
a(S'little'
p7437
g52
F0.9964
tp7438
a(S'friend'
p7439
g6
F0.9905
tp7440
a(S'over'
p7441
g20
F0.885
tp7442
a(S'and'
p7443
g28
F0.9991
tp7444
a(S'you'
p7445
g12
F0.9995
tp7446
a(S'can'
p7447
g9
F0.9996
tp7448
a(S'camp'
p7449
g9
F0.6792
tp7450
a(S'out'
p7451
g17
F0.9048
tp7452
a(S'on'
p7453
g20
F0.9978
tp7454
a(S'the'
p7455
g23
F0.9904
tp7456
a(S'back'
p7457
g6
F0.5793
tp7458
a(S'porch'
p7459
g6
F0.9935
tp7460
asI655
(lp7461
(S'yeah'
p7462
g46
F0.9988
tp7463
asI656
(lp7464
(S'yeah'
p7465
g46
F0.9933
tp7466
a(S'and'
p7467
g28
F0.9991
tp7468
a(S'we'
p7469
g12
F0.9983
tp7470
a(S'can'
p7471
g9
F0.9996
tp7472
a(S'coughs'
p7473
g9
F0.9796
tp7474
asI657
(lp7475
(S'you'
p7476
g12
F0.961
tp7477
a(S'okay'
p7478
g52
F0.5359
tp7479
asI658
(lp7480
(g30
g12
F0.9896
tp7481
a(S'have'
p7482
g9
F0.9999
tp7483
a(g292
g23
F0.9964
tp7484
a(S'bad'
p7485
g52
F0.972
tp7486
a(S'cold'
p7487
g52
F0.973
tp7488
asI659
(lp7489
(S'no'
p7490
g46
F0.7985
tp7491
a(S'you'
p7492
g12
F0.9764
tp7493
a(g30
g12
F0.8381
tp7494
a(S'think'
p7495
g9
F1.0
tp7496
a(S'you'
p7497
g12
F0.9966
tp7498
a(S're'
p7499
g9
F0.7888
tp7500
a(S'choking'
p7501
g9
F0.9982
tp7502
a(S'on'
p7503
g20
F0.973
tp7504
a(S'your'
p7505
g23
F0.9933
tp7506
a(S'food'
p7507
g6
F0.9975
tp7508
a(g292
g23
F0.9731
tp7509
a(S'little'
p7510
g52
F0.9968
tp7511
a(S'bit'
p7512
g6
F0.961
tp7513
a(g30
g12
F0.9509
tp7514
a(S'think'
p7515
g9
F1.0
tp7516
a(S'you'
p7517
g12
F0.9996
tp7518
a(S'have'
p7519
g9
F0.9987
tp7520
a(S'little'
p7521
g52
F0.9573
tp7522
a(S'xxx'
p7523
g404
F0.6318
tp7524
asI660
(lp7525
(S'nuhhuh'
p7526
g46
F0.533
tp7527
asI661
(lp7528
(S'coughs'
p7529
g6
F0.5349
tp7530
asI662
(lp7531
(g30
g12
F0.9811
tp7532
a(S'just'
p7533
g3
F0.9991
tp7534
a(S'have'
p7535
g9
F0.9996
tp7536
a(g292
g23
F0.9972
tp7537
a(S'cold'
p7538
g52
F0.9884
tp7539
asI663
(lp7540
(S'from'
p7541
g20
F0.9925
tp7542
a(S'winter'
p7543
g6
F0.9004
tp7544
a(S'chie'
p7545
g304
F0.5326
tp7546
asI664
(lp7547
(S'from'
p7548
g20
F0.9925
tp7549
a(S'winter'
p7550
g6
F0.9004
tp7551
a(S'chie'
p7552
g304
F0.5326
tp7553
asI665
(lp7554
(S'mom'
p7555
g6
F0.7188
tp7556
asI666
(lp7557
(S'what'
p7558
g12
F0.949
tp7559
asI667
(lp7560
(S'is'
p7561
g9
F0.9991
tp7562
a(S'you'
p7563
g12
F0.9993
tp7564
a(S'xxx'
p7565
g9
F0.5001
tp7566
a(S'is'
p7567
g9
F0.9995
tp7568
a(S'you'
p7569
g12
F0.9995
tp7570
a(S'come'
p7571
g9
F0.9986
tp7572
a(S'and'
p7573
g28
F0.9942
tp7574
a(S'do'
p7575
g9
F0.9995
tp7576
a(g292
g23
F0.9106
tp7577
a(S'and'
p7578
g28
F0.992
tp7579
a(S'camp'
p7580
g6
F0.876
tp7581
a(S'in'
p7582
g20
F0.9991
tp7583
a(S'the'
p7584
g23
F0.999
tp7585
a(S'woods'
p7586
g6
F0.9959
tp7587
a(S'with'
p7588
g20
F0.9998
tp7589
a(S'me'
p7590
g12
F0.9948
tp7591
a(g30
g12
F0.9754
tp7592
a(S'will'
p7593
g9
F0.9997
tp7594
a(S'be'
p7595
g9
F0.999
tp7596
a(S'so'
p7597
g3
F0.8875
tp7598
a(S'excited'
p7599
g52
F0.8517
tp7600
asI668
(lp7601
(S'well'
p7602
g46
F0.9664
tp7603
asI669
(lp7604
(g30
g12
F0.953
tp7605
a(g232
g9
F0.9874
tp7606
a(S'sure'
p7607
g52
F0.7022
tp7608
a(S'you'
p7609
g12
F0.9978
tp7610
a(S'would'
p7611
g9
F0.9997
tp7612
a(S'be'
p7613
g9
F0.9998
tp7614
a(S'excited'
p7615
g52
F0.7585
tp7616
a(S'but'
p7617
g28
F0.9863
tp7618
a(S'momma'
p7619
g6
F0.6788
tp7620
a(S'does'
p7621
g9
F0.9973
tp7622
a(S'not'
p7623
g3
F0.9982
tp7624
a(S'like'
p7625
g9
F0.5216
tp7626
a(S'to'
p7627
g20
F0.9827
tp7628
a(S'camp'
p7629
g6
F0.5531
tp7630
a(S'in'
p7631
g20
F0.999
tp7632
a(S'the'
p7633
g23
F0.9989
tp7634
a(S'woods'
p7635
g6
F0.9938
tp7636
asI670
(lp7637
(S'your'
p7638
g23
F0.9678
tp7639
a(S'daddy'
p7640
g6
F0.999
tp7641
a(S'likes'
p7642
g9
F0.9969
tp7643
a(S'to'
p7644
g20
F0.9904
tp7645
a(S'camp'
p7646
g6
F0.5531
tp7647
a(S'in'
p7648
g20
F0.9992
tp7649
a(S'the'
p7650
g23
F0.999
tp7651
a(S'woods'
p7652
g6
F0.9961
tp7653
asI671
(lp7654
(S'no'
p7655
g46
F0.8387
tp7656
a(S'he'
p7657
g12
F0.9918
tp7658
a(S'doesn'
p7659
g9
F0.9956
tp7660
a(g8
g304
F0.468
tp7661
asI672
(lp7662
(S'he'
p7663
g12
F0.9956
tp7664
a(S'does'
p7665
g9
F0.9996
tp7666
asI673
(lp7667
(S'he'
p7668
g12
F0.9905
tp7669
a(g270
g9
F0.8193
tp7670
a(g292
g23
F0.8948
tp7671
a(g292
g23
F0.9283
tp7672
a(S'great'
p7673
g52
F0.9974
tp7674
a(S'outdoors'
p7675
g6
F0.8877
tp7676
a(S'man'
p7677
g6
F0.9692
tp7678
a(S'he'
p7679
g12
F0.9906
tp7680
a(S'has'
p7681
g9
F0.9995
tp7682
a(S'lots'
p7683
g6
F0.985
tp7684
a(S'of'
p7685
g20
F0.9969
tp7686
a(S'camping'
p7687
g6
F0.7968
tp7688
a(S'equipment'
p7689
g6
F0.9969
tp7690
asI674
(lp7691
(g30
g12
F0.989
tp7692
a(S'think'
p7693
g9
F1.0
tp7694
a(S'you'
p7695
g12
F0.9994
tp7696
a(S'ought'
p7697
g9
F0.9975
tp7698
a(S'to'
p7699
g20
F0.9976
tp7700
a(S'get'
p7701
g9
F0.9997
tp7702
a(S'on'
p7703
g20
F0.9359
tp7704
a(S'him'
p7705
g12
F0.9955
tp7706
a(S'to'
p7707
g20
F0.9949
tp7708
a(S'bring'
p7709
g9
F1.0
tp7710
a(S'you'
p7711
g12
F0.973
tp7712
a(S'camping'
p7713
g9
F0.9979
tp7714
a(S'the'
p7715
g23
F0.9991
tp7716
a(S'woods'
p7717
g6
F0.9967
tp7718
asI675
(lp7719
(S'well'
p7720
g46
F0.8179
tp7721
a(S'mom'
p7722
g6
F0.7083
tp7723
asI676
(lp7724
(g30
g12
F0.9638
tp7725
a(S'figure'
p7726
g9
F0.9988
tp7727
a(S'he'
p7728
g12
F0.9983
tp7729
a(S'would'
p7730
g9
F0.9998
tp7731
a(S'he'
p7732
g12
F0.9955
tp7733
a(S'would'
p7734
g9
F0.9997
tp7735
a(S'love'
p7736
g9
F0.9959
tp7737
a(S'that'
p7738
g12
F0.8838
tp7739
asI677
(lp7740
(S'mom'
p7741
g6
F0.7188
tp7742
asI678
(lp7743
(S'what'
p7744
g12
F0.949
tp7745
asI679
(lp7746
(S'if'
p7747
g20
F0.9977
tp7748
a(S'we'
p7749
g12
F0.9988
tp7750
a(S'go'
p7751
g9
F0.999
tp7752
a(S'under'
p7753
g20
F0.9876
tp7754
a(g292
g23
F0.9979
tp7755
a(S'tree'
p7756
g6
F0.9988
tp7757
asI680
(lp7758
(S'mhm'
p7759
g46
F0.9747
tp7760
asI681
(lp7761
(S'when'
p7762
g3
F0.9641
tp7763
a(S'it'
p7764
g12
F0.9932
tp7765
a(g270
g9
F0.5199
tp7766
a(S'night'
p7767
g6
F0.8756
tp7768
a(S'chie'
p7769
g304
F0.458
tp7770
asI682
(lp7771
(S'yeah'
p7772
g46
F0.9988
tp7773
asI683
(lp7774
(S'we'
p7775
g12
F0.9969
tp7776
a(S'can'
p7777
g9
F0.9997
tp7778
a(S'have'
p7779
g9
F1.0
tp7780
a(S'our'
p7781
g23
F0.9989
tp7782
a(S'own'
p7783
g52
F0.865
tp7784
a(S'little'
p7785
g52
F0.8496
tp7786
a(S'cook'
p7787
g6
F0.8086
tp7788
a(S'out'
p7789
g20
F0.5775
tp7790
asI684
(lp7791
(S'yes'
p7792
g46
F0.9854
tp7793
a(S'we'
p7794
g12
F0.9981
tp7795
a(S'could'
p7796
g9
F0.9996
tp7797
a(S'have'
p7798
g9
F0.9997
tp7799
a(g292
g23
F0.9869
tp7800
a(S'cook'
p7801
g6
F0.9484
tp7802
a(S'out'
p7803
g20
F0.6026
tp7804
asI685
(lp7805
(S'and'
p7806
g28
F0.9996
tp7807
a(g292
g23
F0.9934
tp7808
a(S'picnic'
p7809
g6
F0.9764
tp7810
a(S'right'
p7811
g3
F0.6064
tp7812
a(S'under'
p7813
g20
F0.9703
tp7814
a(S'under'
p7815
g20
F0.9871
tp7816
a(S'those'
p7817
g23
F0.9854
tp7818
a(S'trees'
p7819
g6
F0.9971
tp7820
a(S'okay'
p7821
g46
F0.894
tp7822
asI686
(lp7823
(S'well'
p7824
g46
F0.8573
tp7825
a(g30
g12
F0.9961
tp7826
a(S'rather'
p7827
g3
F0.9975
tp7828
a(S'like'
p7829
g9
F0.5576
tp7830
a(S'our'
p7831
g23
F0.9962
tp7832
a(S'picnics'
p7833
g6
F0.9938
tp7834
a(S'on'
p7835
g20
F0.9993
tp7836
a(S'the'
p7837
g23
F0.9865
tp7838
a(S'back'
p7839
g6
F0.5889
tp7840
a(S'porch'
p7841
g6
F0.9845
tp7842
asI687
(lp7843
(S'mom'
p7844
g6
F0.7188
tp7845
asI688
(lp7846
(S'what'
p7847
g12
F0.949
tp7848
asI689
(lp7849
(S'the'
p7850
g23
F0.9805
tp7851
a(S'xxx'
p7852
g6
F0.6936
tp7853
a(S'had'
p7854
g9
F0.9991
tp7855
a(g292
g23
F0.9979
tp7856
a(S'flashlight'
p7857
g6
F0.999
tp7858
a(S'out'
p7859
g20
F0.823
tp7860
a(S'here'
p7861
g3
F0.9863
tp7862
a(S'and'
p7863
g28
F0.9965
tp7864
a(S'picked'
p7865
g9
F0.9996
tp7866
a(S'it'
p7867
g12
F0.9888
tp7868
a(S'up'
p7869
g17
F0.9852
tp7870
asI690
(lp7871
(S'mhm'
p7872
g46
F0.9747
tp7873
asI691
(lp7874
(S'we'
p7875
g12
F0.9969
tp7876
a(S'can'
p7877
g9
F0.9998
tp7878
a(S'see'
p7879
g9
F0.9975
tp7880
a(S'animals'
p7881
g6
F0.9781
tp7882
a(S'with'
p7883
g20
F0.9996
tp7884
a(S'it'
p7885
g12
F0.9973
tp7886
asI692
(lp7887
(S'yeah'
p7888
g46
F0.9988
tp7889
asI693
(lp7890
(S'there'
p7891
g3
F0.5151
tp7892
a(S'aren'
p7893
g304
F0.2534
tp7894
a(g8
g304
F0.7847
tp7895
a(g292
g23
F0.9874
tp7896
a(S'real'
p7897
g52
F0.9857
tp7898
a(S'lot'
p7899
g6
F0.9837
tp7900
a(S'of'
p7901
g20
F0.9923
tp7902
a(S'wild'
p7903
g52
F0.9979
tp7904
a(S'animals'
p7905
g6
F0.9979
tp7906
a(S'here'
p7907
g3
F0.9748
tp7908
asI694
(lp7909
(S'no'
p7910
g46
F0.8024
tp7911
a(S'but'
p7912
g28
F0.989
tp7913
a(S'if'
p7914
g20
F0.9951
tp7915
a(S'we'
p7916
g12
F0.9987
tp7917
a(S'see'
p7918
g9
F0.9995
tp7919
a(g292
g23
F0.999
tp7920
a(S'whole'
p7921
g52
F0.9881
tp7922
a(S'bunch'
p7923
g6
F0.9746
tp7924
a(S'um'
p7925
g46
F0.8132
tp7926
a(g30
g12
F0.9899
tp7927
a(S'would'
p7928
g9
F0.9997
tp7929
a(S'waked'
p7930
g9
F1.0
tp7931
a(S'up'
p7932
g17
F0.9873
tp7933
asI695
(lp7934
(S'and'
p7935
g28
F0.9986
tp7936
a(S'when'
p7937
g3
F0.9842
tp7938
a(g30
g12
F0.9866
tp7939
a(S'waked'
p7940
g9
F1.0
tp7941
a(S'up'
p7942
g17
F0.9563
tp7943
a(S'there'
p7944
g3
F0.7537
tp7945
a(S'will'
p7946
g9
F0.9886
tp7947
a(S'still'
p7948
g3
F0.9936
tp7949
a(S'be'
p7950
g9
F0.9965
tp7951
a(S'there'
p7952
g3
F0.9481
tp7953
asI696
(lp7954
(S'think'
p7955
g9
F0.9679
tp7956
a(S'so'
p7957
g3
F0.7265
tp7958
asI697
(lp7959
(S'mhm'
p7960
g46
F0.9747
tp7961
asI698
(lp7962
(S'because'
p7963
g20
F0.983
tp7964
a(g30
g12
F0.9968
tp7965
a(S'see'
p7966
g9
F0.9999
tp7967
a(S'them'
p7968
g12
F0.7469
tp7969
a(S'when'
p7970
g3
F0.9971
tp7971
a(g30
g12
F0.9682
tp7972
a(g232
g9
F0.9865
tp7973
a(S'asleep'
p7974
g3
F0.901
tp7975
a(S'when'
p7976
g3
F0.9953
tp7977
a(g30
g12
F0.9899
tp7978
a(S'was'
p7979
g9
F0.9997
tp7980
a(S'asleep'
p7981
g3
F0.8462
tp7982
asI699
(lp7983
(g30
g12
F0.845
tp7984
a(S'my'
p7985
g23
F0.997
tp7986
a(S'dreams'
p7987
g6
F0.9969
tp7988
a(S'was'
p7989
g9
F0.9907
tp7990
a(S'full'
p7991
g52
F0.9382
tp7992
asI700
(lp7993
(S'yeah'
p7994
g46
F0.9988
tp7995
asI701
(lp7996
(S'when'
p7997
g3
F0.9804
tp7998
a(S'you'
p7999
g12
F0.9918
tp8000
a(S're'
p8001
g9
F0.793
tp8002
a(S'asleep'
p8003
g3
F0.8582
tp8004
a(S'somechies'
p8005
g1018
F0.1906
tp8006
a(S'wp'
p8007
g1018
F0.6202
tp8008
a(S'your'
p8009
g23
F0.9791
tp8010
a(S'dreams'
p8011
g6
F0.998
tp8012
a(S'are'
p8013
g9
F0.9129
tp8014
a(S'very'
p8015
g3
F0.9814
tp8016
a(S'real'
p8017
g52
F0.9928
tp8018
asI702
(lp8019
(S'but'
p8020
g28
F0.9962
tp8021
a(S'it'
p8022
g12
F0.9972
tp8023
a(g270
g9
F0.5243
tp8024
a(S'just'
p8025
g3
F0.9981
tp8026
a(S'your'
p8027
g23
F0.9797
tp8028
a(S'imagination'
p8029
g6
F0.9996
tp8030
a(S'working'
p8031
g9
F0.9885
tp8032
a(S'while'
p8033
g20
F0.981
tp8034
a(S'the'
p8035
g23
F0.9988
tp8036
a(S'rest'
p8037
g6
F0.9979
tp8038
a(S'of'
p8039
g20
F0.9993
tp8040
a(S'you'
p8041
g12
F0.9992
tp8042
a(S'sleeps'
p8043
g9
F0.996
tp8044
asI703
(lp8045
(S'mommy'
p8046
g6
F0.5676
tp8047
a(S'mommy'
p8048
g6
F0.8707
tp8049
asI704
(lp8050
(S'mommy'
p8051
g6
F0.5271
tp8052
asI705
(lp8053
(S'what'
p8054
g12
F0.949
tp8055
asI706
(lp8056
(S'my'
p8057
g23
F0.9977
tp8058
a(S'dreams'
p8059
g6
F0.9962
tp8060
a(S'did'
p8061
g9
F0.9836
tp8062
a(S'come'
p8063
g9
F0.9878
tp8064
a(S'true'
p8065
g52
F0.9757
tp8066
asI707
(lp8067
(S'no'
p8068
g46
F0.9253
tp8069
asI708
(lp8070
(S'it'
p8071
g12
F0.9976
tp8072
a(S'did'
p8073
g9
F0.9961
tp8074
asI709
(lp8075
(S'it'
p8076
g12
F0.998
tp8077
a(S'did'
p8078
g9
F0.9982
tp8079
a(S'what'
p8080
g12
F0.997
tp8081
a(S'was'
p8082
g9
F0.9994
tp8083
a(S'your'
p8084
g23
F0.9965
tp8085
a(S'dream'
p8086
g6
F0.9179
tp8087
a(S'about'
p8088
g20
F0.9831
tp8089
asI710
(lp8090
(S'it'
p8091
g12
F0.9956
tp8092
a(S'was'
p8093
g9
F0.9997
tp8094
a(g292
g23
F0.9986
tp8095
a(S'monster'
p8096
g6
F0.7092
tp8097
a(S'and'
p8098
g28
F0.9983
tp8099
a(g30
g12
F0.9958
tp8100
a(S'was'
p8101
g9
F0.9996
tp8102
a(S'xxx'
p8103
g404
F0.3079
tp8104
a(S'with'
p8105
g20
F0.9995
tp8106
a(S'his'
p8107
g23
F0.9995
tp8108
a(S'tongue'
p8109
g6
F0.9884
tp8110
a(S'it'
p8111
g12
F0.8078
tp8112
a(S'mom'
p8113
g9
F0.5348
tp8114
a(S'his'
p8115
g23
F0.9152
tp8116
a(S'his'
p8117
g23
F0.9917
tp8118
a(S'whole'
p8119
g52
F0.9552
tp8120
a(S'xxx'
p8121
g6
F0.3892
tp8122
a(S'and'
p8123
g28
F0.9976
tp8124
a(S'he'
p8125
g12
F0.9963
tp8126
a(S'dropped'
p8127
g9
F1.0
tp8128
a(S'me'
p8129
g12
F0.9975
tp8130
a(S'on'
p8131
g20
F0.9469
tp8132
a(S'my'
p8133
g23
F0.9984
tp8134
a(S'neck'
p8135
g6
F0.9982
tp8136
asI711
(lp8137
(S'the'
p8138
g23
F0.9969
tp8139
a(S'monster'
p8140
g1018
F0.539
tp8141
a(S'grabbed'
p8142
g9
F0.998
tp8143
a(S'you'
p8144
g12
F0.9985
tp8145
a(S'on'
p8146
g20
F0.988
tp8147
a(S'your'
p8148
g23
F0.9967
tp8149
a(S'head'
p8150
g6
F0.9969
tp8151
a(S'but'
p8152
g28
F0.967
tp8153
a(S'that'
p8154
g12
F0.7676
tp8155
a(S'didn'
p8156
g9
F0.9577
tp8157
a(g8
g9
F0.7378
tp8158
a(S'come'
p8159
g9
F0.9945
tp8160
a(S'true'
p8161
g52
F0.9797
tp8162
a(S'no'
p8163
g23
F0.8535
tp8164
a(S'monster'
p8165
g6
F0.9915
tp8166
a(S'really'
p8167
g3
F0.9985
tp8168
a(S'grabbed'
p8169
g9
F0.9999
tp8170
a(S'you'
p8171
g12
F0.9987
tp8172
a(S'on'
p8173
g20
F0.9881
tp8174
a(S'your'
p8175
g23
F0.9966
tp8176
a(S'neck'
p8177
g6
F0.9985
tp8178
asI712
(lp8179
(S'it'
p8180
g12
F0.998
tp8181
a(S'did'
p8182
g9
F0.9979
tp8183
a(S'come'
p8184
g9
F0.993
tp8185
a(S'true'
p8186
g52
F0.985
tp8187
asI713
(lp8188
(S'it'
p8189
g12
F0.9976
tp8190
a(S'did'
p8191
g9
F0.9961
tp8192
asI714
(lp8193
(S'when'
p8194
g3
F0.9425
tp8195
asI715
(lp8196
(g292
g23
F0.9893
tp8197
a(S'long'
p8198
g52
F0.9917
tp8199
a(S'chie'
p8200
g6
F0.6327
tp8201
a(S'ago'
p8202
g3
F0.8552
tp8203
asI716
(lp8204
(S'yeah'
p8205
g46
F0.9988
tp8206
asI717
(lp8207
(S'come'
p8208
g9
F0.9897
tp8209
a(S'on'
p8210
g20
F0.8207
tp8211
a(g30
g12
F0.9708
tp8212
a(g803
g9
F0.7065
tp8213
a(S'just'
p8214
g3
F0.9998
tp8215
a(S'like'
p8216
g20
F0.7391
tp8217
a(S'you'
p8218
g12
F0.9995
tp8219
a(S'to'
p8220
g20
F0.9813
tp8221
a(S'finish'
p8222
g9
F0.9997
tp8223
a(S'it'
p8224
g12
F0.9823
tp8225
asI718
(lp8226
(S'and'
p8227
g28
F0.9994
tp8228
a(S'it'
p8229
g12
F0.9974
tp8230
a(S'jabbed'
p8231
g9
F0.9998
tp8232
a(S'me'
p8233
g12
F0.9971
tp8234
a(S'in'
p8235
g20
F0.9583
tp8236
a(S'the'
p8237
g23
F0.9991
tp8238
a(S'eye'
p8239
g6
F0.9882
tp8240
asI719
(lp8241
(S'it'
p8242
g12
F0.9976
tp8243
a(S'did'
p8244
g9
F0.9961
tp8245
asI720
(lp8246
(S'mhm'
p8247
g46
F0.9747
tp8248
asI721
(lp8249
(S'no'
p8250
g23
F0.8802
tp8251
a(S'honey'
p8252
g6
F0.9936
tp8253
a(S'it'
p8254
g12
F0.9681
tp8255
a(S'didn'
p8256
g9
F0.9694
tp8257
a(g8
g9
F0.8055
tp8258
a(S'come'
p8259
g9
F0.9939
tp8260
a(S'true'
p8261
g52
F0.9893
tp8262
asI722
(lp8263
(S'mhm'
p8264
g46
F0.9747
tp8265
asI723
(lp8266
(S'you'
p8267
g12
F0.9983
tp8268
a(S'know'
p8269
g9
F0.9966
tp8270
a(g30
g12
F0.9939
tp8271
a(S'would'
p8272
g9
F0.9996
tp8273
a(S'never'
p8274
g3
F0.9874
tp8275
a(S'let'
p8276
g9
F0.9988
tp8277
a(S'any'
p8278
g23
F0.9915
tp8279
a(S'monsters'
p8280
g6
F0.9691
tp8281
a(S'get'
p8282
g9
F0.9996
tp8283
a(S'you'
p8284
g12
F0.9986
tp8285
asI724
(lp8286
(S'besides'
p8287
g20
F0.505
tp8288
a(S'what'
p8289
g12
F0.9992
tp8290
a(S'did'
p8291
g9
F0.9659
tp8292
a(g30
g12
F0.9931
tp8293
a(S'tell'
p8294
g9
F0.9998
tp8295
a(S'you'
p8296
g12
F0.9995
tp8297
a(S'about'
p8298
g20
F0.831
tp8299
a(S'monsters'
p8300
g6
F0.7876
tp8301
asI725
(lp8302
(S'what'
p8303
g12
F0.949
tp8304
asI726
(lp8305
(S'they'
p8306
g12
F0.9104
tp8307
a(S're'
p8308
g9
F0.6885
tp8309
a(S'only'
p8310
g3
F0.9465
tp8311
a(S'make'
p8312
g9
F0.9891
tp8313
a(S'believe'
p8314
g9
F0.8869
tp8315
a(S'and'
p8316
g28
F0.9974
tp8317
a(S'they'
p8318
g12
F0.9937
tp8319
a(S'only'
p8320
g3
F0.9755
tp8321
a(S'live'
p8322
g9
F0.8648
tp8323
a(S'in'
p8324
g20
F0.9198
tp8325
a(S'movies'
p8326
g6
F0.9889
tp8327
a(S'because'
p8328
g20
F0.9986
tp8329
a(S'somebody'
p8330
g6
F0.9761
tp8331
a(S'with'
p8332
g20
F0.9996
tp8333
a(g292
g23
F0.998
tp8334
a(S'wonderful'
p8335
g52
F0.9989
tp8336
a(S'imagination'
p8337
g6
F0.9991
tp8338
a(S'makes'
p8339
g9
F0.9983
tp8340
a(S'up'
p8341
g17
F0.8452
tp8342
a(S'monsters'
p8343
g6
F0.6542
tp8344
asI727
(lp8345
(S'and'
p8346
g28
F0.9992
tp8347
a(S'all'
p8348
g23
F0.9783
tp8349
a(S'other'
p8350
g52
F0.9935
tp8351
a(S'sort'
p8352
g6
F0.9933
tp8353
a(S'of'
p8354
g20
F0.9924
tp8355
a(S'special'
p8356
g52
F0.9419
tp8357
a(S'effects'
p8358
g6
F0.9982
tp8359
a(S'to'
p8360
g20
F0.9991
tp8361
a(S'make'
p8362
g9
F0.9995
tp8363
a(S'the'
p8364
g23
F0.9944
tp8365
a(S'really'
p8366
g3
F0.9992
tp8367
a(S'scary'
p8368
g52
F0.9999
tp8369
a(S'monsters'
p8370
g6
F0.922
tp8371
a(S'you'
p8372
g12
F0.9977
tp8373
a(S'know'
p8374
g9
F0.9991
tp8375
a(S'like'
p8376
g20
F0.849
tp8377
a(S'how'
p8378
g3
F0.9882
tp8379
a(S'you'
p8380
g12
F0.9996
tp8381
a(S'watch'
p8382
g9
F0.9975
tp8383
a(S'michael'
p8384
g1018
F0.9982
tp8385
a(S'jackson'
p8386
g1018
F0.9996
tp8387
asI728
(lp8388
(S'and'
p8389
g28
F0.9991
tp8390
a(S'they'
p8391
g12
F0.9305
tp8392
a(S'show'
p8393
g9
F0.9945
tp8394
a(S'him'
p8395
g12
F0.9822
tp8396
a(S'putting'
p8397
g9
F0.9995
tp8398
a(S'his'
p8399
g23
F0.9991
tp8400
a(S'makeup'
p8401
g6
F0.9968
tp8402
a(S'on'
p8403
g20
F0.9927
tp8404
a(S'for'
p8405
g20
F0.9968
tp8406
a(S'thriller'
p8407
g6
F0.8555
tp8408
asI729
(lp8409
(S'that'
p8410
g12
F0.473
tp8411
a(g270
g304
F0.477
tp8412
a(S'just'
p8413
g3
F0.9987
tp8414
a(S'because'
p8415
g20
F0.9933
tp8416
a(S'somebody'
p8417
g6
F0.9636
tp8418
a(S'had'
p8419
g9
F0.9994
tp8420
a(g292
g23
F0.9966
tp8421
a(S'great'
p8422
g52
F0.9994
tp8423
a(S'imagination'
p8424
g6
F0.9991
tp8425
asI730
(lp8426
(S'mhm'
p8427
g46
F0.9747
tp8428
asI731
(lp8429
(S'but'
p8430
g28
F0.9953
tp8431
a(S'no'
p8432
g3
F0.4879
tp8433
a(S'there'
p8434
g3
F0.8324
tp8435
a(g270
g304
F0.4491
tp8436
a(S'no'
p8437
g23
F0.5781
tp8438
a(S'such'
p8439
g52
F0.8949
tp8440
a(S'things'
p8441
g6
F0.9991
tp8442
a(S'as'
p8443
g20
F0.9786
tp8444
a(S'monsters'
p8445
g6
F0.8855
tp8446
asI732
(lp8447
(S'xxx'
p8448
g404
F0.7294
tp8449
a(S'mommy'
p8450
g6
F0.6447
tp8451
asI733
(lp8452
(S'there'
p8453
g787
F0.4664
tp8454
a(g270
g304
F0.517
tp8455
a(S'some'
p8456
g23
F0.9479
tp8457
a(S'scary'
p8458
g52
F0.9997
tp8459
a(S'creatures'
p8460
g6
F0.9974
tp8461
a(S'like'
p8462
g20
F0.9511
tp8463
a(S'lions'
p8464
g6
F0.8722
tp8465
a(S'very'
p8466
g3
F0.9958
tp8467
a(S'fierce'
p8468
g52
F0.9997
tp8469
a(S'and'
p8470
g28
F0.9964
tp8471
a(S'scary'
p8472
g52
F0.9965
tp8473
asI734
(lp8474
(S'mhm'
p8475
g46
F0.9747
tp8476
asI735
(lp8477
(S'but'
p8478
g28
F0.9949
tp8479
a(S'um'
p8480
g46
F0.8748
tp8481
asI736
(lp8482
(S'you'
p8483
g12
F0.9974
tp8484
a(S'know'
p8485
g9
F0.9977
tp8486
a(S'what'
p8487
g12
F0.994
tp8488
asI737
(lp8489
(S'we'
p8490
g12
F0.9849
tp8491
a(S're'
p8492
g9
F0.7562
tp8493
a(S'safe'
p8494
g52
F0.7787
tp8495
a(S'from'
p8496
g20
F0.9997
tp8497
a(S'them'
p8498
g12
F0.9425
tp8499
asI738
(lp8500
(S'what'
p8501
g12
F0.949
tp8502
asI739
(lp8503
(S'xxx'
p8504
g404
F0.7728
tp8505
a(g30
g12
F0.9472
tp8506
a(g232
g9
F0.9644
tp8507
a(S'gonna'
p8508
g9
F0.9886
tp8509
a(S'stick'
p8510
g9
F0.9996
tp8511
a(S'it'
p8512
g12
F0.9903
tp8513
a(S'in'
p8514
g20
F0.9817
tp8515
a(S'his'
p8516
g23
F0.9986
tp8517
a(S'eye'
p8518
g6
F0.9964
tp8519
asI740
(lp8520
(S'excuse'
p8521
g9
F0.9631
tp8522
a(S'me'
p8523
g12
F0.9987
tp8524
asI741
(lp8525
(S'laughs'
p8526
g9
F0.9102
tp8527
asI742
(lp8528
(S'what'
p8529
g12
F0.9784
tp8530
a(g270
g304
F0.6708
tp8531
a(S'he'
p8532
g12
F0.9967
tp8533
a(S'wanna'
p8534
g9
F0.9974
tp8535
a(S'do'
p8536
g9
F0.9991
tp8537
asI743
(lp8538
(S'nelson'
p8539
g1018
F0.9733
tp8540
a(S'please'
p8541
g9
F0.9795
tp8542
a(S'get'
p8543
g9
F0.9994
tp8544
a(S'down'
p8545
g17
F0.8633
tp8546
asI744
(lp8547
(S'laughs'
p8548
g9
F0.9102
tp8549
asI745
(lp8550
(S'chi'
p8551
g304
F0.4263
tp8552
a(S'our'
p8553
g23
F0.9816
tp8554
a(S'house'
p8555
g6
F0.9594
tp8556
a(S'isn'
p8557
g20
F0.4945
tp8558
a(g8
g304
F0.4513
tp8559
a(S'gonna'
p8560
g9
F0.9858
tp8561
a(S'come'
p8562
g9
F0.9996
tp8563
a(S'alive'
p8564
g52
F0.973
tp8565
asI746
(lp8566
(S'it'
p8567
g12
F0.9944
tp8568
a(S'might'
p8569
g9
F0.9975
tp8570
a(S'eat'
p8571
g9
F0.9977
tp8572
a(S'people'
p8573
g6
F0.998
tp8574
asI747
(lp8575
(S'well'
p8576
g46
F0.8564
tp8577
a(S'but'
p8578
g28
F0.983
tp8579
a(S'that'
p8580
g12
F0.68
tp8581
a(g270
g304
F0.4662
tp8582
a(S'just'
p8583
g3
F0.9989
tp8584
a(S'make'
p8585
g9
F0.9897
tp8586
a(S'believe'
p8587
g9
F0.8064
tp8588
a(S'sweetheart'
p8589
g6
F0.994
tp8590
asI748
(lp8591
(S'mom'
p8592
g6
F0.7188
tp8593
asI749
(lp8594
(S'xxx'
p8595
g404
F0.6443
tp8596
a(S'people'
p8597
g6
F0.9934
tp8598
a(S'xxx'
p8599
g9
F0.3739
tp8600
a(S'the'
p8601
g23
F0.9883
tp8602
a(S'xxx'
p8603
g6
F0.73
tp8604
a(S'in'
p8605
g20
F0.988
tp8606
a(S'people'
p8607
g6
F0.988
tp8608
a(S'people'
p8609
g6
F0.9842
tp8610
a(S'that'
p8611
g20
F0.9296
tp8612
a(S'come'
p8613
g9
F0.9983
tp8614
a(S'alive'
p8615
g52
F0.973
tp8616
asI750
(lp8617
(S'babbling'
p8618
g9
F0.9317
tp8619
asI751
(lp8620
(S'nope'
p8621
g46
F0.974
tp8622
a(S'no'
p8623
g23
F0.8213
tp8624
a(S'toys'
p8625
g6
F0.9988
tp8626
a(S'honey'
p8627
g6
F0.9348
tp8628
a(S'please'
p8629
g9
F0.9824
tp8630
a(S'put'
p8631
g9
F0.9979
tp8632
a(S'your'
p8633
g23
F0.9958
tp8634
a(S'toy'
p8635
g6
F0.9964
tp8636
a(S'down'
p8637
g3
F0.4774
tp8638
a(S'until'
p8639
g20
F0.9926
tp8640
a(S'after'
p8641
g20
F0.9182
tp8642
a(S'we'
p8643
g12
F0.9991
tp8644
a(S're'
p8645
g9
F0.9218
tp8646
a(S'all'
p8647
g23
F0.7486
tp8648
a(S'done'
p8649
g9
F0.5924
tp8650
asI752
(lp8651
(S'xxx'
p8652
g404
F0.8437
tp8653
asI753
(lp8654
(S'yeah'
p8655
g46
F0.9988
tp8656
asI754
(lp8657
(S'um'
p8658
g46
F0.979
tp8659
asI755
(lp8660
(S'you'
p8661
g12
F0.9787
tp8662
a(S'you'
p8663
g12
F0.9902
tp8664
a(S'were'
p8665
g9
F0.9983
tp8666
a(S'starting'
p8667
g9
F0.9876
tp8668
a(S'to'
p8669
g20
F0.9957
tp8670
a(S'tell'
p8671
g9
F0.9998
tp8672
a(S'me'
p8673
g12
F0.9991
tp8674
a(S'something'
p8675
g6
F0.9574
tp8676
a(S'and'
p8677
g28
F0.9981
tp8678
a(g30
g12
F0.9937
tp8679
a(S'was'
p8680
g9
F0.9997
tp8681
a(S'interested'
p8682
g52
F0.8194
tp8683
asI756
(lp8684
(S'um'
p8685
g46
F0.9678
tp8686
a(S'what'
p8687
g12
F0.9701
tp8688
a(S'they'
p8689
g12
F0.9965
tp8690
a(S'found'
p8691
g9
F0.9999
tp8692
a(S'out'
p8693
g17
F0.8641
tp8694
a(S'where'
p8695
g3
F0.9279
tp8696
a(S'the'
p8697
g23
F0.9987
tp8698
a(S'dinosaur'
p8699
g6
F0.996
tp8700
a(S'and'
p8701
g28
F0.9976
tp8702
a(S'they'
p8703
g12
F0.7611
tp8704
a(S'shot'
p8705
g9
F0.8336
tp8706
a(S'it'
p8707
g12
F0.9702
tp8708
asI757
(lp8709
(S'and'
p8710
g28
F0.9987
tp8711
a(S'then'
p8712
g3
F0.9659
tp8713
a(S'they'
p8714
g12
F0.9861
tp8715
a(S'it'
p8716
g12
F0.9892
tp8717
a(S'would'
p8718
g9
F0.9993
tp8719
a(S'stop'
p8720
g9
F0.9999
tp8721
a(S'it'
p8722
g12
F0.9924
tp8723
a(S'and'
p8724
g28
F0.9926
tp8725
a(S'that'
p8726
g12
F0.7953
tp8727
a(S'what'
p8728
g12
F0.9765
tp8729
a(g30
g12
F0.9945
tp8730
a(S'mean'
p8731
g9
F0.9868
tp8732
asI758
(lp8733
(S'and'
p8734
g28
F0.9987
tp8735
a(S'then'
p8736
g3
F0.9659
tp8737
a(S'they'
p8738
g12
F0.9964
tp8739
a(S'made'
p8740
g9
F0.9999
tp8741
a(S'it'
p8742
g12
F0.9907
tp8743
a(S'into'
p8744
g20
F0.9983
tp8745
a(S'this'
p8746
g23
F0.9753
tp8747
a(S'dinosaur'
p8748
g6
F0.9977
tp8749
asI759
(lp8750
(S'no'
p8751
g46
F0.9456
tp8752
a(S'that'
p8753
g20
F0.6216
tp8754
a(S'that'
p8755
g12
F0.7496
tp8756
a(g270
g304
F0.4662
tp8757
a(S'just'
p8758
g3
F0.9951
tp8759
a(S'plastic'
p8760
g52
F0.9491
tp8761
a(S'mold'
p8762
g6
F0.9677
tp8763
a(S'honey'
p8764
g6
F0.9541
tp8765
a(S'just'
p8766
g3
F0.9998
tp8767
a(S'like'
p8768
g20
F0.7142
tp8769
a(S'your'
p8770
g23
F0.9538
tp8771
a(S'playdough'
p8772
g6
F0.9886
tp8773
a(S'okay'
p8774
g46
F0.8131
tp8775
asI760
(lp8776
(S'if'
p8777
g20
F0.9885
tp8778
a(S'somebody'
p8779
g6
F0.9377
tp8780
a(S'found'
p8781
g9
F0.9993
tp8782
a(g292
g23
F0.9972
tp8783
a(S'dinosaur'
p8784
g6
F0.9986
tp8785
a(S'they'
p8786
g12
F0.9552
tp8787
a(S'wouldn'
p8788
g9
F0.9851
tp8789
a(g8
g9
F0.595
tp8790
a(S'shoot'
p8791
g9
F0.9507
tp8792
a(S'it'
p8793
g12
F0.9839
tp8794
asI761
(lp8795
(S'but'
p8796
g28
F0.9903
tp8797
a(S'if'
p8798
g20
F0.9968
tp8799
a(S'we'
p8800
g12
F0.9986
tp8801
a(S'xxx'
p8802
g9
F0.6646
tp8803
a(S'found'
p8804
g9
F0.9987
tp8805
a(g292
g23
F0.9971
tp8806
a(S'dinosaur'
p8807
g6
F0.9986
tp8808
a(S'we'
p8809
g12
F0.981
tp8810
a(S'wouldn'
p8811
g9
F0.9842
tp8812
a(g8
g9
F0.6686
tp8813
a(S'shoot'
p8814
g9
F0.9287
tp8815
a(S'it'
p8816
g12
F0.9849
tp8817
asI762
(lp8818
(S'no'
p8819
g46
F0.8465
tp8820
a(S'we'
p8821
g12
F0.9938
tp8822
a(S'would'
p8823
g9
F0.9995
tp8824
a(S'never'
p8825
g3
F0.9956
tp8826
a(S'shoot'
p8827
g9
F0.996
tp8828
a(S'it'
p8829
g12
F0.9888
tp8830
asI763
(lp8831
(S'the'
p8832
g23
F0.9971
tp8833
a(S'bad'
p8834
g52
F0.9974
tp8835
a(S'people'
p8836
g6
F0.9997
tp8837
a(S'made'
p8838
g9
F0.9991
tp8839
a(S'it'
p8840
g12
F0.9879
tp8841
asI764
(lp8842
(S'no'
p8843
g46
F0.9456
tp8844
a(S'that'
p8845
g12
F0.7283
tp8846
a(S'was'
p8847
g9
F0.9978
tp8848
a(S'made'
p8849
g9
F0.9778
tp8850
a(S'by'
p8851
g20
F0.8546
tp8852
a(S'good'
p8853
g52
F0.9974
tp8854
a(S'people'
p8855
g6
F0.9996
tp8856
a(S'that'
p8857
g20
F0.9447
tp8858
a(g270
g304
F0.6042
tp8859
a(S'just'
p8860
g3
F0.998
tp8861
a(g292
g23
F0.992
tp8862
a(S'mold'
p8863
g6
F0.9897
tp8864
a(S'like'
p8865
g20
F0.9797
tp8866
a(S'the'
p8867
g23
F0.9993
tp8868
a(S'molds'
p8869
g6
F0.9929
tp8870
a(S'with'
p8871
g20
F0.9998
tp8872
a(S'your'
p8873
g23
F0.9892
tp8874
a(S'playdough'
p8875
g6
F0.989
tp8876
asI765
(lp8877
(S'oh'
p8878
g46
F0.9983
tp8879
a(g30
g12
F0.9805
tp8880
a(S'xxx'
p8881
g404
F0.5578
tp8882
asI766
(lp8883
(S'laughs'
p8884
g9
F0.9102
tp8885
asI767
(lp8886
(S'mommy'
p8887
g6
F0.7055
tp8888
a(S'watch'
p8889
g9
F0.9545
tp8890
asI768
(lp8891
(S'chi'
p8892
g46
F0.4684
tp8893
asI769
(lp8894
(g30
g12
F0.9519
tp8895
a(S'xxx'
p8896
g9
F0.848
tp8897
a(S'on'
p8898
g20
F0.9292
tp8899
a(S'my'
p8900
g23
F0.9042
tp8901
a(S'xxx'
p8902
g6
F0.4839
tp8903
asI770
(lp8904
(S'honey'
p8905
g6
F0.5465
tp8906
a(S'you'
p8907
g12
F0.9967
tp8908
a(S'had'
p8909
g9
F0.9991
tp8910
a(S'two'
p8911
g813
F0.937
tp8912
a(S'bites'
p8913
g6
F0.662
tp8914
a(S'on'
p8915
g20
F0.9978
tp8916
a(S'your'
p8917
g23
F0.9949
tp8918
a(S'plate'
p8919
g6
F0.9986
tp8920
asI771
(lp8921
(g30
g12
F0.9143
tp8922
a(g803
g9
F0.8852
tp8923
a(S'like'
p8924
g20
F0.7463
tp8925
a(S'you'
p8926
g12
F0.9995
tp8927
a(S'to'
p8928
g20
F0.9654
tp8929
a(S'finish'
p8930
g9
F0.9998
tp8931
a(S'them'
p8932
g12
F0.9155
tp8933
asI772
(lp8934
(S'gurgling'
p8935
g9
F0.6694
tp8936
a(S'no'
p8937
g46
F0.5614
tp8938
asI773
(lp8939
(S'alright'
p8940
g46
F0.9491
tp8941
a(S'but'
p8942
g28
F0.9913
tp8943
a(S'you'
p8944
g12
F0.9995
tp8945
a(S'can'
p8946
g9
F0.9996
tp8947
a(S'just'
p8948
g3
F0.9992
tp8949
a(S'have'
p8950
g9
F0.9995
tp8951
a(g292
g23
F0.999
tp8952
a(S'little'
p8953
g52
F0.9945
tp8954
a(S'corn'
p8955
g6
F0.9979
tp8956
a(S'and'
p8957
g28
F0.9989
tp8958
a(g292
g23
F0.9953
tp8959
a(S'little'
p8960
g52
F0.9858
tp8961
a(S'mashed'
p8962
g52
F0.884
tp8963
a(S'potato'
p8964
g6
F0.9985
tp8965
asI774
(lp8966
(S'please'
p8967
g9
F0.9696
tp8968
a(S'open'
p8969
g9
F0.9589
tp8970
a(S'up'
p8971
g17
F0.9792
tp8972
asI775
(lp8973
(S'lean'
p8974
g9
F0.7571
tp8975
a(S'forward'
p8976
g3
F0.7225
tp8977
a(S'please'
p8978
g9
F0.9536
tp8979
a(S'chi'
p8980
g1018
F0.5067
tp8981
asI776
(lp8982
(S'please'
p8983
g9
F0.8246
tp8984
asI777
(lp8985
(S'thank'
p8986
g9
F0.9631
tp8987
a(S'you'
p8988
g12
F0.9987
tp8989
asI778
(lp8990
(S'you'
p8991
g12
F0.9754
tp8992
a(S're'
p8993
g9
F0.7607
tp8994
a(S'doing'
p8995
g9
F0.9946
tp8996
a(S'pretty'
p8997
g3
F0.983
tp8998
a(S'good'
p8999
g52
F0.9987
tp9000
a(g30
g12
F0.7914
tp9001
a(g803
g9
F0.8755
tp9002
a(S'like'
p9003
g20
F0.8069
tp9004
a(S'you'
p9005
g12
F0.9995
tp9006
a(S'to'
p9007
g20
F0.9598
tp9008
a(S'just'
p9009
g3
F0.9975
tp9010
a(S'finish'
p9011
g9
F0.9913
tp9012
asI779
(lp9013
(S'is'
p9014
g9
F0.9993
tp9015
a(S'it'
p9016
g12
F0.9991
tp9017
a(S'going'
p9018
g9
F0.9993
tp9019
a(S'high'
p9020
g52
F0.8134
tp9021
a(S'or'
p9022
g28
F0.9899
tp9023
a(S'low'
p9024
g52
F0.8838
tp9025
asI780
(lp9026
(S'so'
p9027
g20
F0.8338
tp9028
a(S'you'
p9029
g12
F0.9962
tp9030
a(S're'
p9031
g9
F0.789
tp9032
a(S'thinking'
p9033
g9
F0.988
tp9034
a(S'of'
p9035
g20
F0.9852
tp9036
a(S'having'
p9037
g9
F0.9978
tp9038
a(S'this'
p9039
g23
F0.9678
tp9040
a(S'last'
p9041
g52
F0.9935
tp9042
a(S'ear'
p9043
g6
F0.9997
tp9044
a(S'of'
p9045
g20
F0.9987
tp9046
a(S'corn'
p9047
g6
F0.9919
tp9048
a(S'here'
p9049
g3
F0.9284
tp9050
asI781
(lp9051
(S'would'
p9052
g9
F0.9987
tp9053
a(S'you'
p9054
g12
F0.996
tp9055
a(S'like'
p9056
g9
F0.9251
tp9057
a(S'it'
p9058
g12
F0.9983
tp9059
asI782
(lp9060
(S'mhm'
p9061
g46
F0.9747
tp9062
asI783
(lp9063
(S'there'
p9064
g3
F0.5362
tp9065
a(S'you'
p9066
g12
F0.998
tp9067
a(S'go'
p9068
g9
F0.9998
tp9069
a(S'you'
p9070
g12
F0.9997
tp9071
a(S'did'
p9072
g9
F0.9987
tp9073
a(S'pretty'
p9074
g3
F0.9846
tp9075
a(S'good'
p9076
g52
F0.9987
tp9077
a(g30
g12
F0.7914
tp9078
a(g803
g9
F0.6983
tp9079
a(S'just'
p9080
g3
F0.9998
tp9081
a(S'like'
p9082
g20
F0.7391
tp9083
a(S'you'
p9084
g12
F0.9995
tp9085
a(S'to'
p9086
g20
F0.989
tp9087
a(S'eat'
p9088
g9
F0.9951
tp9089
a(S'what'
p9090
g12
F0.9896
tp9091
a(g270
g304
F0.4597
tp9092
a(S'on'
p9093
g20
F0.9937
tp9094
a(S'your'
p9095
g23
F0.995
tp9096
a(S'spoon'
p9097
g6
F0.9924
tp9098
a(S'but'
p9099
g28
F0.9772
tp9100
a(S'you'
p9101
g12
F0.9995
tp9102
a(S'can'
p9103
g9
F0.9997
tp9104
a(S'have'
p9105
g9
F0.9999
tp9106
a(S'that'
p9107
g23
F0.7997
tp9108
a(S'corn'
p9109
g6
F0.999
tp9110
a(S'too'
p9111
g3
F0.8992
tp9112
asI784
(lp9113
(g30
g12
F0.9897
tp9114
a(S'want'
p9115
g9
F0.9997
tp9116
a(S'one'
p9117
g813
F0.9632
tp9118
a(S'of'
p9119
g20
F0.999
tp9120
a(S'these'
p9121
g12
F0.5939
tp9122
a(S'on'
p9123
g20
F0.8652
tp9124
asI785
(lp9125
(S'okay'
p9126
g46
F0.9857
tp9127
asI786
(lp9128
(g30
g12
F0.9897
tp9129
a(S'want'
p9130
g9
F1.0
tp9131
a(S'both'
p9132
g23
F0.7985
tp9133
a(S'two'
p9134
g813
F0.9769
tp9135
a(S'on'
p9136
g20
F0.9171
tp9137
asI787
(lp9138
(S'corn'
p9139
g6
F0.9812
tp9140
a(S'holders'
p9141
g6
F0.9965
tp9142
asI788
(lp9143
(g30
g12
F0.9897
tp9144
a(S'want'
p9145
g9
F0.9997
tp9146
a(S'two'
p9147
g813
F0.9594
tp9148
a(S'on'
p9149
g20
F0.9492
tp9150
asI789
(lp9151
(S'put'
p9152
g9
F0.9932
tp9153
a(S'them'
p9154
g12
F0.9761
tp9155
a(S'on'
p9156
g20
F0.9493
tp9157
a(S'all'
p9158
g787
F0.4878
tp9159
a(S'the'
p9160
g23
F0.9999
tp9161
a(S'way'
p9162
g6
F0.9606
tp9163
asI790
(lp9164
(S'okay'
p9165
g46
F0.9857
tp9166
asI791
(lp9167
(S'is'
p9168
g9
F0.9993
tp9169
a(S'it'
p9170
g12
F0.9763
tp9171
a(S'hot'
p9172
g52
F0.9702
tp9173
asI792
(lp9174
(S'nope'
p9175
g46
F0.9614
tp9176
a(S'it'
p9177
g12
F0.9933
tp9178
a(g270
g9
F0.5535
tp9179
a(S'not'
p9180
g3
F0.9991
tp9181
a(S'hot'
p9182
g52
F0.9347
tp9183
asI793
(lp9184
(S'pick'
p9185
g9
F0.9949
tp9186
a(S'it'
p9187
g12
F0.9934
tp9188
a(S'up'
p9189
g17
F0.9792
tp9190
a(S'please'
p9191
g9
F0.8846
tp9192
asI794
(lp9193
(S'can'
p9194
g9
F0.9755
tp9195
a(g30
g12
F0.9845
tp9196
a(S'eat'
p9197
g9
F0.9999
tp9198
a(S'it'
p9199
g12
F0.9894
tp9200
asI795
(lp9201
(S'mhm'
p9202
g46
F0.844
tp9203
a(S'clean'
p9204
g9
F0.5447
tp9205
a(S'up'
p9206
g17
F0.9342
tp9207
a(S'your'
p9208
g23
F0.9935
tp9209
a(S'plate'
p9210
g6
F0.9984
tp9211
asI796
(lp9212
(S'that'
p9213
g12
F0.4727
tp9214
a(g270
g9
F0.4689
tp9215
a(S'good'
p9216
g52
F0.991
tp9217
asI797
(lp9218
(S'mommy'
p9219
g6
F0.3577
tp9220
a(S'you'
p9221
g12
F0.9955
tp9222
a(S'can'
p9223
g9
F0.9997
tp9224
a(S'have'
p9225
g9
F0.9998
tp9226
a(S'some'
p9227
g23
F0.9266
tp9228
asI798
(lp9229
(S'mommy'
p9230
g6
F0.5271
tp9231
asI799
(lp9232
(S'what'
p9233
g12
F0.6657
tp9234
a(S'darling'
p9235
g6
F0.9928
tp9236
asI800
(lp9237
(S'you'
p9238
g12
F0.9969
tp9239
a(S'can'
p9240
g9
F0.9997
tp9241
a(S'have'
p9242
g9
F0.9999
tp9243
a(S'some'
p9244
g23
F0.8333
tp9245
a(S'with'
p9246
g20
F0.9986
tp9247
a(S'me'
p9248
g12
F0.9986
tp9249
asI801
(lp9250
(S'can'
p9251
g9
F0.9755
tp9252
a(g30
g12
F0.987
tp9253
a(S'have'
p9254
g9
F0.9999
tp9255
a(S'some'
p9256
g23
F0.8514
tp9257
a(S'with'
p9258
g20
F0.9993
tp9259
a(S'you'
p9260
g12
F0.9994
tp9261
a(S'sharing'
p9262
g9
F0.9999
tp9263
a(S'it'
p9264
g12
F0.985
tp9265
asI802
(lp9266
(S'mommy'
p9267
g6
F0.3577
tp9268
a(S'you'
p9269
g12
F0.9955
tp9270
a(S'can'
p9271
g9
F0.9998
tp9272
a(S'help'
p9273
g9
F0.9998
tp9274
a(S'me'
p9275
g12
F0.9987
tp9276
a(S'eat'
p9277
g9
F0.997
tp9278
a(S'it'
p9279
g12
F0.99
tp9280
asI803
(lp9281
(S'mommy'
p9282
g6
F0.3577
tp9283
a(S'you'
p9284
g12
F0.9955
tp9285
a(S'can'
p9286
g9
F0.9997
tp9287
a(S'have'
p9288
g9
F0.9999
tp9289
a(g292
g23
F0.9911
tp9290
a(S'bite'
p9291
g6
F0.9755
tp9292
asI804
(lp9293
(S'thank'
p9294
g9
F0.9631
tp9295
a(S'you'
p9296
g12
F0.9987
tp9297
asI805
(lp9298
(S'and'
p9299
g28
F0.9987
tp9300
a(S'then'
p9301
g3
F0.9867
tp9302
a(g30
g12
F0.993
tp9303
a(S'can'
p9304
g9
F0.9995
tp9305
a(S'and'
p9306
g28
F0.9972
tp9307
a(S'then'
p9308
g3
F0.9849
tp9309
a(S'you'
p9310
g12
F0.9994
tp9311
a(S'can'
p9312
g9
F0.9994
tp9313
asI806
(lp9314
(S'mommy'
p9315
g6
F0.5271
tp9316
asI807
(lp9317
(S'no'
p9318
g46
F0.7985
tp9319
a(S'you'
p9320
g12
F0.9964
tp9321
a(S'can'
p9322
g9
F0.9994
tp9323
a(g8
g9
F0.7725
tp9324
a(S'have'
p9325
g9
F0.9987
tp9326
a(g292
g23
F0.9987
tp9327
a(S'big'
p9328
g52
F0.9189
tp9329
a(S'bite'
p9330
g6
F0.9357
tp9331
asI808
(lp9332
(S'only'
p9333
g3
F0.8582
tp9334
a(S'can'
p9335
g9
F0.9989
tp9336
a(S'have'
p9337
g9
F0.9986
tp9338
a(S'one'
p9339
g813
F0.749
tp9340
a(S'bite'
p9341
g6
F0.7691
tp9342
a(S'and'
p9343
g28
F0.996
tp9344
a(S'then'
p9345
g3
F0.992
tp9346
a(g30
g12
F0.9941
tp9347
a(S'have'
p9348
g9
F0.9985
tp9349
a(S'one'
p9350
g813
F0.8997
tp9351
a(S'and'
p9352
g28
F0.9983
tp9353
a(S'then'
p9354
g3
F0.9839
tp9355
a(S'you'
p9356
g12
F0.9996
tp9357
a(S'have'
p9358
g9
F0.9934
tp9359
a(S'one'
p9360
g813
F0.9477
tp9361
a(S'okay'
p9362
g46
F0.78
tp9363
asI809
(lp9364
(S'okay'
p9365
g46
F0.8861
tp9366
a(S'go'
p9367
g9
F0.982
tp9368
a(S'around'
p9369
g3
F0.7407
tp9370
a(S'in'
p9371
g20
F0.9884
tp9372
a(g292
g23
F0.9962
tp9373
a(S'circle'
p9374
g6
F0.9984
tp9375
asI810
(lp9376
(S'now'
p9377
g3
F0.9853
tp9378
a(S'it'
p9379
g12
F0.9946
tp9380
a(g270
g9
F0.7814
tp9381
a(S'your'
p9382
g23
F0.8316
tp9383
a(S'turn'
p9384
g6
F0.7895
tp9385
asI811
(lp9386
(S'help'
p9387
g9
F0.6574
tp9388
a(S'xxx'
p9389
g404
F0.7001
tp9390
asI812
(lp9391
(S'put'
p9392
g9
F0.9914
tp9393
a(S'it'
p9394
g12
F0.9741
tp9395
a(S'on'
p9396
g20
F0.9334
tp9397
a(S'your'
p9398
g23
F0.9944
tp9399
a(S'plate'
p9400
g6
F0.9981
tp9401
a(S'sweetie'
p9402
g6
F0.9547
tp9403
asI813
(lp9404
(S'mommy'
p9405
g6
F0.667
tp9406
a(S'put'
p9407
g9
F0.9762
tp9408
a(S'that'
p9409
g12
F0.8535
tp9410
a(S'up'
p9411
g17
F0.7767
tp9412
asI814
(lp9413
(S'mom'
p9414
g6
F0.7097
tp9415
a(S'mom'
p9416
g6
F0.6889
tp9417
a(S'um'
p9418
g46
F0.5272
tp9419
a(S'now'
p9420
g3
F0.993
tp9421
a(S'you'
p9422
g12
F0.9992
tp9423
a(S'can'
p9424
g9
F0.9997
tp9425
a(S'have'
p9426
g9
F0.9999
tp9427
a(g292
g23
F0.9881
tp9428
a(S'bite'
p9429
g6
F0.9792
tp9430
asI815
(lp9431
(S'okay'
p9432
g46
F0.9813
tp9433
a(S'thank'
p9434
g9
F0.9239
tp9435
a(S'you'
p9436
g12
F0.999
tp9437
asI816
(lp9438
(S'xxx'
p9439
g404
F0.53
tp9440
a(S'serving'
p9441
g9
F0.9727
tp9442
asI817
(lp9443
(g30
g12
F0.9888
tp9444
a(S'went'
p9445
g9
F0.9998
tp9446
a(S'around'
p9447
g3
F0.6321
tp9448
a(S'in'
p9449
g20
F0.9884
tp9450
a(g292
g23
F0.9962
tp9451
a(S'circle'
p9452
g6
F0.9984
tp9453
asI818
(lp9454
(S'why'
p9455
g3
F0.9375
tp9456
a(S'don'
p9457
g6
F0.2525
tp9458
a(g8
g9
F0.5898
tp9459
a(S'you'
p9460
g12
F0.9991
tp9461
a(S'try'
p9462
g9
F0.9996
tp9463
a(S'that'
p9464
g12
F0.7453
tp9465
asI819
(lp9466
(S'but'
p9467
g28
F0.9901
tp9468
a(S'bite'
p9469
g9
F0.9751
tp9470
a(S'up'
p9471
g17
F0.9863
tp9472
a(S'with'
p9473
g20
F0.9996
tp9474
a(S'your'
p9475
g23
F0.9955
tp9476
a(S'bottom'
p9477
g6
F0.6103
tp9478
a(S'teeth'
p9479
g6
F0.9899
tp9480
a(S'honey'
p9481
g6
F0.9204
tp9482
a(S'and'
p9483
g28
F0.9978
tp9484
a(S'then'
p9485
g3
F0.9961
tp9486
a(S'and'
p9487
g28
F0.9976
tp9488
a(S'then'
p9489
g3
F0.9839
tp9490
a(S'you'
p9491
g12
F0.9991
tp9492
a(S'll'
p9493
g9
F0.4243
tp9494
a(S'bite'
p9495
g9
F0.9971
tp9496
a(S'them'
p9497
g12
F0.9842
tp9498
a(S'off'
p9499
g20
F0.3741
tp9500
a(S'bite'
p9501
g9
F0.9355
tp9502
a(S'up'
p9503
g17
F0.933
tp9504
a(S'like'
p9505
g20
F0.9046
tp9506
a(S'that'
p9507
g12
F0.936
tp9508
asI820
(lp9509
(S'pick'
p9510
g9
F0.9949
tp9511
a(S'it'
p9512
g12
F0.9928
tp9513
a(S'up'
p9514
g17
F0.9648
tp9515
a(S'and'
p9516
g28
F0.9971
tp9517
a(S'try'
p9518
g9
F0.988
tp9519
a(S'biting'
p9520
g9
F0.998
tp9521
a(S'it'
p9522
g12
F0.9931
tp9523
asI821
(lp9524
(S'have'
p9525
g9
F0.9991
tp9526
a(S'you'
p9527
g12
F0.9993
tp9528
a(S'thought'
p9529
g9
F0.9991
tp9530
a(S'about'
p9531
g20
F0.9758
tp9532
a(S'what'
p9533
g12
F0.9935
tp9534
a(S'you'
p9535
g12
F0.9964
tp9536
a(S're'
p9537
g9
F0.5665
tp9538
a(S'gonna'
p9539
g9
F0.9909
tp9540
a(S'have'
p9541
g9
F0.9996
tp9542
a(S'for'
p9543
g20
F0.999
tp9544
a(S'dessert'
p9545
g6
F0.9532
tp9546
asI822
(lp9547
(S'hm'
p9548
g46
F0.995
tp9549
asI823
(lp9550
(S'squeaks'
p9551
g6
F0.2347
tp9552
asI824
(lp9553
(S'the'
p9554
g23
F0.9987
tp9555
a(S'invisible'
p9556
g52
F0.999
tp9557
a(S'man'
p9558
g6
F0.9719
tp9559
asI825
(lp9560
(S'yes'
p9561
g46
F0.9351
tp9562
a(S'laughing'
p9563
g9
F0.9939
tp9564
a(S'the'
p9565
g23
F0.9997
tp9566
a(S'invisible'
p9567
g52
F0.9974
tp9568
a(S'man'
p9569
g6
F0.9322
tp9570
asI826
(lp9571
(S'that'
p9572
g12
F0.473
tp9573
a(g270
g9
F0.3914
tp9574
a(S'scary'
p9575
g52
F0.9976
tp9576
a(S'huh'
p9577
g46
F0.9171
tp9578
asI827
(lp9579
(S'yeah'
p9580
g46
F0.9962
tp9581
a(S'but'
p9582
g28
F0.9957
tp9583
a(S'it'
p9584
g12
F0.9972
tp9585
a(g270
g9
F0.4473
tp9586
a(S'make'
p9587
g9
F0.9383
tp9588
a(S'believe'
p9589
g9
F0.9248
tp9590
asI828
(lp9591
(S'how'
p9592
g3
F0.9078
tp9593
a(S'is'
p9594
g9
F0.9966
tp9595
a(S'he'
p9596
g12
F0.9989
tp9597
a(S'talking'
p9598
g9
F0.9882
tp9599
asI829
(lp9600
(S'what'
p9601
g12
F0.949
tp9602
asI830
(lp9603
(S'how'
p9604
g3
F0.9078
tp9605
a(S'is'
p9606
g9
F0.9966
tp9607
a(S'he'
p9608
g12
F0.9989
tp9609
a(S'talking'
p9610
g9
F0.9882
tp9611
asI831
(lp9612
(S'somebody'
p9613
g6
F0.969
tp9614
a(S'with'
p9615
g20
F0.9996
tp9616
a(g292
g23
F0.9981
tp9617
a(S'great'
p9618
g52
F0.9993
tp9619
a(S'imagination'
p9620
g6
F0.9994
tp9621
a(S'did'
p9622
g9
F0.9972
tp9623
a(S'that'
p9624
g12
F0.8114
tp9625
a(S'made'
p9626
g9
F0.9992
tp9627
a(S'the'
p9628
g23
F0.9994
tp9629
a(S'invisible'
p9630
g52
F0.9977
tp9631
a(S'man'
p9632
g6
F0.9934
tp9633
a(S'talk'
p9634
g9
F0.8367
tp9635
asI832
(lp9636
(S'mhm'
p9637
g46
F0.9747
tp9638
asI833
(lp9639
(g30
g12
F0.9635
tp9640
a(S'don'
p9641
g9
F0.9231
tp9642
a(g8
g6
F0.2457
tp9643
a(S'know'
p9644
g9
F0.9914
tp9645
a(S'how'
p9646
g3
F0.9807
tp9647
a(S'he'
p9648
g12
F0.9993
tp9649
a(S'was'
p9650
g9
F0.9993
tp9651
a(S'talking'
p9652
g9
F0.8765
tp9653
asI834
(lp9654
(g30
g12
F0.989
tp9655
a(S'think'
p9656
g9
F0.9999
tp9657
a(S'he'
p9658
g12
F0.9888
tp9659
a(S'um'
p9660
g46
F0.3239
tp9661
a(S'has'
p9662
g9
F0.9971
tp9663
a(g292
g23
F0.9982
tp9664
a(S'body'
p9665
g6
F0.9973
tp9666
a(S'inside'
p9667
g20
F0.9152
tp9668
asI835
(lp9669
(S'he'
p9670
g12
F0.9938
tp9671
a(S'might'
p9672
g9
F0.998
tp9673
asI836
(lp9674
(g6589
g813
F0.9641
tp9675
a(S'makes'
p9676
g9
F0.7928
tp9677
a(S'eating'
p9678
g9
F0.991
tp9679
a(S'noises'
p9680
g6
F0.9937
tp9681
asI837
(lp9682
(S'isn'
p9683
g304
F0.5578
tp9684
a(g8
g304
F0.708
tp9685
a(S'that'
p9686
g12
F0.7845
tp9687
a(S'just'
p9688
g3
F0.9999
tp9689
a(S'delicious'
p9690
g52
F0.992
tp9691
asI838
(lp9692
(S'mhm'
p9693
g46
F0.9747
tp9694
asI839
(lp9695
(S'doing'
p9696
g9
F0.9986
tp9697
a(g292
g23
F0.9975
tp9698
a(S'lot'
p9699
g6
F0.9886
tp9700
a(S'of'
p9701
g20
F0.9978
tp9702
a(S'spinning'
p9703
g9
F0.9917
tp9704
a(S'around'
p9705
g20
F0.6465
tp9706
a(S'there'
p9707
g3
F0.6898
tp9708
asI840
(lp9709
(S'you'
p9710
g12
F0.9969
tp9711
a(S'can'
p9712
g9
F0.9996
tp9713
a(S'have'
p9714
g9
F0.9999
tp9715
a(S'some'
p9716
g23
F0.9291
tp9717
asI841
(lp9718
(S'thank'
p9719
g9
F0.9631
tp9720
a(S'you'
p9721
g12
F0.9761
tp9722
a(S'honey'
p9723
g6
F0.7875
tp9724
asI842
(lp9725
(S'mommy'
p9726
g6
F0.5271
tp9727
asI843
(lp9728
(S'um'
p9729
g46
F0.9537
tp9730
a(S'when'
p9731
g3
F0.976
tp9732
a(S'you'
p9733
g12
F0.9928
tp9734
a(S're'
p9735
g9
F0.8035
tp9736
a(S'done'
p9737
g9
F0.9053
tp9738
a(g30
g12
F0.9723
tp9739
a(g232
g9
F0.9607
tp9740
a(S'gonna'
p9741
g9
F0.9943
tp9742
a(S'sit'
p9743
g9
F0.9994
tp9744
a(S'down'
p9745
g17
F0.8947
tp9746
a(S'on'
p9747
g20
F0.9944
tp9748
a(S'my'
p9749
g23
F0.9217
tp9750
a(S'xxx'
p9751
g6
F0.5731
tp9752
asI844
(lp9753
(g30
g12
F0.953
tp9754
a(g232
g9
F0.9871
tp9755
a(S'tired'
p9756
g52
F0.7972
tp9757
a(S'as'
p9758
g20
F0.9862
tp9759
a(g292
g23
F0.9977
tp9760
a(S'baby'
p9761
g6
F0.9977
tp9762
asI845
(lp9763
(S'are'
p9764
g9
F0.9964
tp9765
a(S'you'
p9766
g12
F0.9995
tp9767
a(S'tired'
p9768
g9
F0.578
tp9769
a(S'as'
p9770
g20
F0.9648
tp9771
a(g292
g23
F0.9977
tp9772
a(S'baby'
p9773
g6
F0.9977
tp9774
asI846
(lp9775
(S'mhm'
p9776
g46
F0.949
tp9777
a(g30
g12
F0.9824
tp9778
a(g232
g9
F0.9872
tp9779
a(S'tired'
p9780
g52
F0.9081
tp9781
a(S'as'
p9782
g20
F0.9444
tp9783
a(S'people'
p9784
g6
F0.9975
tp9785
asI847
(lp9786
(S'you'
p9787
g12
F0.9754
tp9788
a(S're'
p9789
g9
F0.8159
tp9790
a(S'tired'
p9791
g52
F0.8222
tp9792
a(S'as'
p9793
g20
F0.967
tp9794
a(S'people'
p9795
g6
F0.9972
tp9796
asI848
(lp9797
(g30
g12
F0.9897
tp9798
a(S'mean'
p9799
g9
F0.9814
tp9800
a(g30
g12
F0.9874
tp9801
a(g232
g9
F0.9861
tp9802
a(S'tired'
p9803
g52
F0.7697
tp9804
a(S'as'
p9805
g20
F0.9865
tp9806
a(g292
g23
F0.9631
tp9807
asI849
(lp9808
(g30
g12
F0.953
tp9809
a(g232
g9
F0.9513
tp9810
a(S'pretty'
p9811
g3
F0.9789
tp9812
a(S'tired'
p9813
g52
F0.9612
tp9814
a(S'tonight'
p9815
g6
F0.5288
tp9816
a(S'maybe'
p9817
g3
F0.9585
tp9818
a(S'we'
p9819
g12
F0.9975
tp9820
a(S'll'
p9821
g9
F0.5493
tp9822
a(S'just'
p9823
g3
F0.9997
tp9824
a(S'try'
p9825
g9
F0.9975
tp9826
a(S'to'
p9827
g20
F0.9953
tp9828
a(S'get'
p9829
g9
F0.9998
tp9830
a(S'to'
p9831
g20
F0.991
tp9832
a(S'sleep'
p9833
g9
F0.969
tp9834
a(S'real'
p9835
g3
F0.553
tp9836
a(S'early'
p9837
g52
F0.9874
tp9838
asI850
(lp9839
(S'oh'
p9840
g46
F0.9987
tp9841
a(S'yeah'
p9842
g46
F0.9997
tp9843
asI851
(lp9844
(S'xxx'
p9845
g404
F0.6373
tp9846
a(S'both'
p9847
g12
F0.2741
tp9848
a(S'of'
p9849
g20
F0.988
tp9850
a(S'my'
p9851
g23
F0.95
tp9852
a(S'xxx'
p9853
g6
F0.4839
tp9854
asI852
(lp9855
(S'well'
p9856
g46
F0.8573
tp9857
a(g30
g12
F0.9928
tp9858
a(S'don'
p9859
g9
F0.9187
tp9860
a(g8
g6
F0.2208
tp9861
a(S'know'
p9862
g9
F0.9974
tp9863
a(S'about'
p9864
g20
F0.984
tp9865
a(S'that'
p9866
g12
F0.8944
tp9867
asI853
(lp9868
(S'mommy'
p9869
g6
F0.5271
tp9870
asI854
(lp9871
(S'what'
p9872
g12
F0.949
tp9873
asI855
(lp9874
(S'you'
p9875
g12
F0.9911
tp9876
a(S'didn'
p9877
g9
F0.9886
tp9878
a(g8
g9
F0.7995
tp9879
a(S'see'
p9880
g9
F0.9939
tp9881
a(S'all'
p9882
g23
F0.6857
tp9883
a(S'my'
p9884
g23
F0.9981
tp9885
a(S'tapes'
p9886
g6
F0.9989
tp9887
asI856
(lp9888
(S'no'
p9889
g46
F0.6532
tp9890
a(g30
g12
F0.9375
tp9891
a(S'didn'
p9892
g9
F0.9915
tp9893
a(g8
g9
F0.7957
tp9894
a(S'see'
p9895
g9
F0.9942
tp9896
a(S'all'
p9897
g23
F0.8915
tp9898
a(S'your'
p9899
g23
F0.9918
tp9900
a(S'tapes'
p9901
g6
F0.9995
tp9902
a(S'and'
p9903
g28
F0.9986
tp9904
a(g30
g12
F0.9872
tp9905
a(S'don'
p9906
g9
F0.9198
tp9907
a(g8
g6
F0.225
tp9908
a(S'know'
p9909
g9
F0.9876
tp9910
a(S'really'
p9911
g3
F0.9975
tp9912
a(S'if'
p9913
g20
F0.9918
tp9914
a(S'you'
p9915
g12
F0.9983
tp9916
a(S're'
p9917
g9
F0.5665
tp9918
a(S'gonna'
p9919
g9
F0.9926
tp9920
a(S'see'
p9921
g9
F0.9998
tp9922
a(S'them'
p9923
g12
F0.8898
tp9924
a(S'tonight'
p9925
g3
F0.9187
tp9926
a(S'either'
p9927
g23
F0.4918
tp9928
asI857
(lp9929
(S'but'
p9930
g28
F0.993
tp9931
a(S'you'
p9932
g12
F0.9997
tp9933
a(S'know'
p9934
g9
F0.9989
tp9935
a(S'what'
p9936
g12
F0.9743
tp9937
a(S'you'
p9938
g12
F0.9995
tp9939
a(S'can'
p9940
g9
F0.9999
tp9941
a(S'do'
p9942
g9
F0.9996
tp9943
a(S'tonight'
p9944
g3
F0.6794
tp9945
a(S'remember'
p9946
g9
F0.9871
tp9947
a(S'what'
p9948
g12
F0.9783
tp9949
a(g30
g12
F0.993
tp9950
a(S'promised'
p9951
g9
F0.9997
tp9952
a(S'you'
p9953
g12
F0.9595
tp9954
a(S'last'
p9955
g52
F0.9782
tp9956
a(S'night'
p9957
g6
F0.9815
tp9958
a(S'you'
p9959
g12
F0.9995
tp9960
a(S'could'
p9961
g9
F0.9995
tp9962
a(S'start'
p9963
g9
F0.9956
tp9964
a(S'doing'
p9965
g9
F0.9944
tp9966
asI858
(lp9967
(S'what'
p9968
g12
F0.949
tp9969
asI859
(lp9970
(S'do'
p9971
g9
F0.9985
tp9972
a(S'you'
p9973
g12
F0.9996
tp9974
a(S'remember'
p9975
g9
F0.9987
tp9976
a(S'what'
p9977
g12
F0.9838
tp9978
a(S'it'
p9979
g12
F0.9986
tp9980
a(S'was'
p9981
g9
F0.9985
tp9982
asI860
(lp9983
(S'no'
p9984
g46
F0.9253
tp9985
asI861
(lp9986
(S'feed'
p9987
g9
F0.9869
tp9988
a(S'your'
p9989
g23
F0.8161
tp9990
asI862
(lp9991
(S'thing'
p9992
g6
F0.9739
tp9993
asI863
(lp9994
(S'your'
p9995
g23
F0.9478
tp9996
a(S'fishies'
p9997
g6
F0.9707
tp9998
asI864
(lp9999
(S'why'
p10000
g3
F0.8527
tp10001
asI865
(lp10002
(S'you'
p10003
g12
F0.9968
tp10004
a(S'could'
p10005
g9
F0.9996
tp10006
a(S'start'
p10007
g9
F0.9963
tp10008
a(S'feeding'
p10009
g9
F0.9868
tp10010
a(S'fishies'
p10011
g6
F0.8591
tp10012
a(S'tonight'
p10013
g3
F0.5358
tp10014
asI866
(lp10015
(S'have'
p10016
g9
F0.9991
tp10017
a(S'you'
p10018
g12
F0.9993
tp10019
a(S'thought'
p10020
g9
F0.9991
tp10021
a(S'about'
p10022
g20
F0.9758
tp10023
a(S'what'
p10024
g12
F0.9935
tp10025
a(S'you'
p10026
g12
F0.9996
tp10027
a(S'want'
p10028
g9
F0.9996
tp10029
a(S'for'
p10030
g20
F0.9982
tp10031
a(S'dessert'
p10032
g6
F0.9544
tp10033
asI867
(lp10034
(S'know'
p10035
g9
F0.9511
tp10036
a(S'what'
p10037
g12
F0.9922
tp10038
asI868
(lp10039
(S'what'
p10040
g12
F0.949
tp10041
asI869
(lp10042
(S'you'
p10043
g12
F0.9969
tp10044
a(S'can'
p10045
g9
F0.9998
tp10046
a(S'make'
p10047
g9
F0.9996
tp10048
a(S'the'
p10049
g23
F0.9997
tp10050
a(S'same'
p10051
g52
F0.9718
tp10052
a(S'xxx'
p10053
g404
F0.3518
tp10054
a(S'that'
p10055
g20
F0.451
tp10056
a(g30
g12
F0.9968
tp10057
a(S'made'
p10058
g9
F0.9989
tp10059
a(S'xxx'
p10060
g404
F0.7377
tp10061
asI870
(lp10062
(S'yeah'
p10063
g46
F0.9988
tp10064
asI871
(lp10065
(S'that'
p10066
g12
F0.3839
tp10067
a(g30
g12
F0.9938
tp10068
a(S'made'
p10069
g9
F1.0
tp10070
a(S'it'
p10071
g12
F0.9895
tp10072
a(S'in'
p10073
g20
F0.9073
tp10074
a(g292
g23
F0.9661
tp10075
a(S'xxx'
p10076
g6
F0.4974
tp10077
a(S'that'
p10078
g20
F0.712
tp10079
a(S'steven'
p10080
g1018
F0.9822
tp10081
a(S'get'
p10082
g9
F0.9997
tp10083
a(S'me'
p10084
g12
F0.999
tp10085
asI872
(lp10086
(S'the'
p10087
g23
F0.999
tp10088
a(S'big'
p10089
g52
F0.9847
tp10090
a(S'man'
p10091
g6
F0.9811
tp10092
a(S'steven'
p10093
g1018
F0.946
tp10094
asI873
(lp10095
(S'with'
p10096
g20
F0.9988
tp10097
a(S'the'
p10098
g23
F0.9996
tp10099
a(S'alligator'
p10100
g6
F0.9992
tp10101
asI874
(lp10102
(S'no'
p10103
g46
F0.9253
tp10104
asI875
(lp10105
(S'say'
p10106
g9
F0.9697
tp10107
a(S'that'
p10108
g12
F0.8409
tp10109
a(S'again'
p10110
g3
F0.9659
tp10111
asI876
(lp10112
(S'the'
p10113
g23
F0.9984
tp10114
a(S'elevator'
p10115
g6
F0.9966
tp10116
asI877
(lp10117
(S'the'
p10118
g23
F0.9984
tp10119
a(S'elevator'
p10120
g6
F0.9966
tp10121
asI878
(lp10122
(S'oh'
p10123
g46
F0.9928
tp10124
a(S'the'
p10125
g23
F0.9973
tp10126
a(S'car'
p10127
g6
F0.9916
tp10128
a(S'thing'
p10129
g6
F0.8827
tp10130
a(S'no'
p10131
g20
F0.3542
tp10132
a(S'we'
p10133
g12
F0.9777
tp10134
a(S're'
p10135
g9
F0.6836
tp10136
a(S'not'
p10137
g3
F0.9966
tp10138
a(S'gonna'
p10139
g9
F0.9974
tp10140
a(S'play'
p10141
g9
F0.9988
tp10142
a(S'with'
p10143
g20
F0.9971
tp10144
a(S'that'
p10145
g12
F0.8614
tp10146
a(S'tonight'
p10147
g3
F0.6459
tp10148
asI879
(lp10149
(S'mommy'
p10150
g6
F0.5271
tp10151
asI880
(lp10152
(S'what'
p10153
g12
F0.949
tp10154
asI881
(lp10155
(S'maybe'
p10156
g3
F0.9725
tp10157
a(g30
g12
F0.9939
tp10158
a(S'can'
p10159
g9
F0.9998
tp10160
a(S'make'
p10161
g9
F0.9996
tp10162
a(g292
g23
F0.9974
tp10163
a(S'house'
p10164
g6
F0.9921
tp10165
a(S'out'
p10166
g20
F0.9709
tp10167
a(S'of'
p10168
g20
F0.9967
tp10169
a(S'it'
p10170
g12
F0.9971
tp10171
asI882
(lp10172
(S'what'
p10173
g12
F0.9835
tp10174
a(S'are'
p10175
g9
F0.9978
tp10176
a(S'you'
p10177
g12
F0.9995
tp10178
a(S'gonna'
p10179
g9
F0.9995
tp10180
a(S'have'
p10181
g9
F0.9998
tp10182
a(S'for'
p10183
g20
F0.9987
tp10184
a(S'dessert'
p10185
g6
F0.9299
tp10186
asI883
(lp10187
(S'we'
p10188
g12
F0.9973
tp10189
a(S'have'
p10190
g9
F0.9986
tp10191
a(S'hoodsies'
p10192
g6
F0.5025
tp10193
a(S'cupcakes'
p10194
g6
F0.9707
tp10195
asI884
(lp10196
(g30
g12
F0.9897
tp10197
a(S'want'
p10198
g9
F1.0
tp10199
a(g292
g23
F0.9966
tp10200
a(S'cupcake'
p10201
g6
F0.9357
tp10202
asI885
(lp10203
(S'okay'
p10204
g46
F0.9857
tp10205
asI886
(lp10206
(S'but'
p10207
g28
F0.993
tp10208
a(S'you'
p10209
g12
F0.999
tp10210
a(S'don'
p10211
g9
F0.8576
tp10212
a(g8
g6
F0.2247
tp10213
a(S'want'
p10214
g9
F0.9985
tp10215
a(S'no'
p10216
g23
F0.5541
tp10217
a(S'more'
p10218
g52
F0.6467
tp10219
a(S'xxx'
p10220
g404
F0.7069
tp10221
asI887
(lp10222
(S'you'
p10223
g12
F0.998
tp10224
a(S'liked'
p10225
g9
F0.9998
tp10226
a(S'that'
p10227
g23
F0.7432
tp10228
a(S'lamb'
p10229
g6
F0.9922
tp10230
a(S'chop'
p10231
g9
F0.5534
tp10232
a(S'tonight'
p10233
g3
F0.6938
tp10234
a(S'huh'
p10235
g46
F0.9355
tp10236
asI888
(lp10237
(S'must'
p10238
g9
F0.9812
tp10239
a(S'be'
p10240
g9
F0.9997
tp10241
a(S'because'
p10242
g20
F0.9965
tp10243
a(S'it'
p10244
g12
F0.9981
tp10245
a(g270
g9
F0.5323
tp10246
a(S'cooked'
p10247
g9
F0.9967
tp10248
a(S'on'
p10249
g20
F0.9745
tp10250
a(S'the'
p10251
g23
F0.9994
tp10252
a(S'grill'
p10253
g6
F0.8909
tp10254
a(S'you'
p10255
g12
F0.9931
tp10256
a(S'love'
p10257
g9
F0.9858
tp10258
a(S'that'
p10259
g23
F0.6768
tp10260
a(S'grill'
p10261
g6
F0.9096
tp10262
asI889
(lp10263
(S'will'
p10264
g9
F0.9979
tp10265
a(S'you'
p10266
g12
F0.9992
tp10267
a(S'do'
p10268
g9
F0.9999
tp10269
a(S'that'
p10270
g12
F0.8458
tp10271
a(S'again'
p10272
g3
F0.9843
tp10273
asI890
(lp10274
(S'what'
p10275
g12
F0.6657
tp10276
a(S'darling'
p10277
g6
F0.9928
tp10278
asI891
(lp10279
(S'will'
p10280
g9
F0.9979
tp10281
a(S'you'
p10282
g12
F0.9988
tp10283
a(S'cook'
p10284
g9
F0.9985
tp10285
a(S'this'
p10286
g23
F0.5064
tp10287
a(S'xxx'
p10288
g6
F0.5495
tp10289
a(S'tomorrow'
p10290
g6
F0.972
tp10291
a(S'night'
p10292
g6
F0.8944
tp10293
asI892
(lp10294
(S'tomorrow'
p10295
g6
F0.905
tp10296
a(S'night'
p10297
g6
F0.7595
tp10298
a(S'you'
p10299
g12
F0.9965
tp10300
a(S're'
p10301
g9
F0.5762
tp10302
a(S'gonna'
p10303
g9
F0.9896
tp10304
a(S'go'
p10305
g9
F0.9992
tp10306
a(S'to'
p10307
g20
F0.9972
tp10308
a(S'your'
p10309
g23
F0.9867
tp10310
a(S'daddy'
p10311
g6
F0.9985
tp10312
a(g270
g304
F0.7931
tp10313
a(S'house'
p10314
g6
F0.9111
tp10315
asI893
(lp10316
(S'hey'
p10317
g46
F0.9907
tp10318
a(S'don'
p10319
g1018
F0.4833
tp10320
a(g8
g1018
F0.6363
tp10321
a(S'do'
p10322
g9
F0.9955
tp10323
a(S'that'
p10324
g12
F0.8066
tp10325
a(S'xxx'
p10326
g404
F0.7422
tp10327
asI894
(lp10328
(S'excuse'
p10329
g9
F0.9631
tp10330
a(S'me'
p10331
g12
F0.9987
tp10332
asI895
(lp10333
(S'you'
p10334
g12
F0.9754
tp10335
a(S're'
p10336
g9
F0.7849
tp10337
a(S'not'
p10338
g3
F0.9884
tp10339
a(S'cooking'
p10340
g9
F0.9789
tp10341
a(S'good'
p10342
g52
F0.9861
tp10343
asI896
(lp10344
(g30
g12
F0.953
tp10345
a(g232
g9
F0.9784
tp10346
a(S'not'
p10347
g3
F0.9837
tp10348
a(S'cooking'
p10349
g9
F0.9789
tp10350
a(S'good'
p10351
g52
F0.9861
tp10352
asI897
(lp10353
(g30
g12
F0.9893
tp10354
a(S'thought'
p10355
g9
F0.9998
tp10356
a(S'you'
p10357
g12
F0.9995
tp10358
a(S'loved'
p10359
g9
F0.9997
tp10360
a(S'that'
p10361
g23
F0.8626
tp10362
a(S'stuff'
p10363
g6
F0.996
tp10364
a(S'xxx'
p10365
g404
F0.8281
tp10366
asI898
(lp10367
(S'xxx'
p10368
g404
F0.7405
tp10369
a(S'um'
p10370
g46
F0.881
tp10371
a(S'nope'
p10372
g46
F0.924
tp10373
a(S'be'
p10374
g9
F0.9776
tp10375
a(S'cause'
p10376
g20
F0.9222
tp10377
a(S'um'
p10378
g46
F0.2795
tp10379
a(S'be'
p10380
g9
F0.9789
tp10381
a(S'cause'
p10382
g20
F0.9396
tp10383
a(S'you'
p10384
g12
F0.9995
tp10385
a(S'pushed'
p10386
g9
F0.9935
tp10387
a(S'nelson'
p10388
g1018
F0.9234
tp10389
asI899
(lp10390
(S'well'
p10391
g46
F0.709
tp10392
a(S'honey'
p10393
g6
F0.6129
tp10394
a(S'he'
p10395
g12
F0.9884
tp10396
a(S'jumped'
p10397
g9
F0.9999
tp10398
a(S'up'
p10399
g17
F0.9833
tp10400
a(S'on'
p10401
g20
F0.9966
tp10402
a(S'the'
p10403
g23
F0.9994
tp10404
a(S'dinner'
p10405
g6
F0.9456
tp10406
a(S'table'
p10407
g6
F0.9817
tp10408
a(S'he'
p10409
g12
F0.9793
tp10410
a(g270
g9
F0.6203
tp10411
a(S'just'
p10412
g3
F0.9991
tp10413
a(S'being'
p10414
g9
F0.9997
tp10415
a(g292
g23
F0.9963
tp10416
a(S'bad'
p10417
g52
F0.9952
tp10418
a(S'kitty'
p10419
g6
F0.995
tp10420
a(S'tonight'
p10421
g6
F0.6457
tp10422
a(g30
g12
F0.9723
tp10423
a(S'gave'
p10424
g9
F1.0
tp10425
a(S'him'
p10426
g12
F0.9771
tp10427
a(g292
g23
F0.9968
tp10428
a(S'whole'
p10429
g52
F0.9881
tp10430
a(S'bunch'
p10431
g6
F0.9964
tp10432
a(S'of'
p10433
g20
F0.9981
tp10434
a(S'treats'
p10435
g6
F0.8125
tp10436
a(S'and'
p10437
g28
F0.9974
tp10438
a(S'he'
p10439
g12
F0.9963
tp10440
a(g270
g9
F0.686
tp10441
a(S'not'
p10442
g3
F0.9944
tp10443
a(S'letting'
p10444
g9
F0.9998
tp10445
a(S'us'
p10446
g12
F0.9906
tp10447
a(S'eat'
p10448
g9
F0.9974
tp10449
a(S'our'
p10450
g23
F0.998
tp10451
a(S'dinner'
p10452
g6
F0.9901
tp10453
asI900
(lp10454
(S'but'
p10455
g28
F0.993
tp10456
a(S'he'
p10457
g12
F0.9963
tp10458
a(S'just'
p10459
g3
F0.9998
tp10460
a(S'wanted'
p10461
g9
F0.9903
tp10462
a(S'to'
p10463
g20
F0.9892
tp10464
a(S'see'
p10465
g9
F0.9998
tp10466
a(S'us'
p10467
g12
F0.8892
tp10468
asI901
(lp10469
(g30
g12
F0.9908
tp10470
a(S'know'
p10471
g9
F0.9993
tp10472
a(S'laughingly'
p10473
g3
F0.9623
tp10474
a(S'but'
p10475
g28
F0.9897
tp10476
a(g30
g12
F0.9958
tp10477
a(S'guess'
p10478
g9
F0.9998
tp10479
a(S'he'
p10480
g12
F0.998
tp10481
a(S'has'
p10482
g9
F0.9991
tp10483
asI902
(lp10484
(S'and'
p10485
g28
F0.9989
tp10486
a(S'he'
p10487
g12
F0.9948
tp10488
a(S'just'
p10489
g3
F0.9998
tp10490
a(S'wanted'
p10491
g9
F0.9903
tp10492
a(S'to'
p10493
g20
F0.9903
tp10494
a(S'eat'
p10495
g9
F0.9972
tp10496
a(S'everything'
p10497
g6
F0.985
tp10498
asI903
(lp10499
(g30
g12
F0.9908
tp10500
a(S'know'
p10501
g9
F0.9997
tp10502
a(S'he'
p10503
g12
F0.9976
tp10504
a(S'wants'
p10505
g9
F0.9999
tp10506
a(S'to'
p10507
g20
F0.9951
tp10508
a(S'eat'
p10509
g9
F0.9977
tp10510
a(S'everything'
p10511
g6
F0.9762
tp10512
a(S'that'
p10513
g20
F0.9055
tp10514
a(g270
g304
F0.596
tp10515
a(S'why'
p10516
g3
F0.9109
tp10517
a(S'he'
p10518
g12
F0.9986
tp10519
a(S'got'
p10520
g9
F0.9996
tp10521
a(S'pushed'
p10522
g9
F0.9789
tp10523
a(S'on'
p10524
g20
F0.9793
tp10525
a(S'the'
p10526
g23
F0.9995
tp10527
a(S'floor'
p10528
g6
F0.9948
tp10529
asI904
(lp10530
(S'why'
p10531
g3
F0.8527
tp10532
asI905
(lp10533
(S'and'
p10534
g28
F0.9983
tp10535
a(S'if'
p10536
g20
F0.9955
tp10537
a(S'he'
p10538
g12
F0.9987
tp10539
a(S'wants'
p10540
g9
F0.9999
tp10541
a(S'to'
p10542
g20
F0.9945
tp10543
a(S'see'
p10544
g9
F0.9998
tp10545
a(S'us'
p10546
g12
F0.8491
tp10547
a(g30
g12
F0.9832
tp10548
a(S'guess'
p10549
g9
F0.9998
tp10550
a(S'he'
p10551
g12
F0.9969
tp10552
a(S'll'
p10553
g3
F0.4507
tp10554
a(S'just'
p10555
g3
F0.9996
tp10556
a(S'have'
p10557
g9
F0.9986
tp10558
a(S'to'
p10559
g20
F0.9965
tp10560
a(S'sit'
p10561
g9
F0.9983
tp10562
a(S'on'
p10563
g20
F0.9385
tp10564
a(S'the'
p10565
g23
F0.9994
tp10566
a(S'floor'
p10567
g6
F0.9916
tp10568
a(S'and'
p10569
g28
F0.9973
tp10570
a(S'look'
p10571
g9
F0.9966
tp10572
a(S'up'
p10573
g17
F0.9095
tp10574
asI906
(lp10575
(S'nope'
p10576
g46
F0.9882
tp10577
a(S'xxx'
p10578
g404
F0.787
tp10579
asI907
(lp10580
(S'that'
p10581
g12
F0.473
tp10582
a(g270
g9
F0.4233
tp10583
a(S'nice'
p10584
g52
F0.9718
tp10585
a(S'of'
p10586
g20
F0.9992
tp10587
a(S'you'
p10588
g12
F0.9993
tp10589
a(S'to'
p10590
g20
F0.9796
tp10591
a(S'be'
p10592
g9
F0.999
tp10593
a(S'so'
p10594
g3
F0.8918
tp10595
a(S'concerned'
p10596
g52
F0.5994
tp10597
a(S'about'
p10598
g20
F0.9966
tp10599
a(S'him'
p10600
g12
F0.9954
tp10601
asI908
(lp10602
(g30
g12
F0.953
tp10603
a(g232
g9
F0.9455
tp10604
a(g30
g12
F0.9858
tp10605
a(g232
g9
F0.9439
tp10606
a(g30
g12
F0.9855
tp10607
a(g232
g9
F0.9893
tp10608
a(g292
g23
F0.994
tp10609
a(S'good'
p10610
g52
F0.999
tp10611
a(S'son'
p10612
g6
F0.9944
tp10613
asI909
(lp10614
(S'you'
p10615
g12
F0.9754
tp10616
a(S're'
p10617
g9
F0.9434
tp10618
a(g292
g23
F0.988
tp10619
a(S'wonderful'
p10620
g52
F0.9986
tp10621
a(S'son'
p10622
g6
F0.9855
tp10623
asI910
(lp10624
(S'you'
p10625
g12
F0.9754
tp10626
a(S're'
p10627
g9
F0.9443
tp10628
a(S'the'
p10629
g23
F0.9992
tp10630
a(S'best'
p10631
g52
F0.979
tp10632
a(S'little'
p10633
g52
F0.9932
tp10634
a(S'guy'
p10635
g6
F0.9906
tp10636
a(S'in'
p10637
g20
F0.9996
tp10638
a(S'the'
p10639
g23
F0.9996
tp10640
a(S'whole'
p10641
g52
F0.8764
tp10642
a(S'wide'
p10643
g52
F0.998
tp10644
a(S'world'
p10645
g6
F0.9697
tp10646
asI911
(lp10647
(g30
g12
F0.9563
tp10648
a(S'xxx'
p10649
g9
F0.9555
tp10650
a(S'it'
p10651
g12
F0.991
tp10652
asI912
(lp10653
(S'yeah'
p10654
g46
F0.9922
tp10655
a(S'you'
p10656
g12
F0.9856
tp10657
a(S'all'
p10658
g23
F0.9278
tp10659
a(S'done'
p10660
g9
F0.4507
tp10661
asI913
(lp10662
(S'gonna'
p10663
g9
F0.9805
tp10664
a(S'have'
p10665
g9
F0.9989
tp10666
a(S'anymore'
p10667
g3
F0.8386
tp10668
a(S'potatoes'
p10669
g6
F0.9477
tp10670
asI914
(lp10671
(g30
g12
F0.953
tp10672
a(g232
g9
F0.9629
tp10673
a(S'gonna'
p10674
g9
F0.9931
tp10675
a(S'have'
p10676
g9
F0.9998
tp10677
a(g292
g23
F0.9977
tp10678
a(S'cupcake'
p10679
g6
F0.9062
tp10680
asI915
(lp10681
(S'okay'
p10682
g46
F0.9469
tp10683
a(S'you'
p10684
g12
F0.9991
tp10685
a(S'done'
p10686
g9
F0.9983
tp10687
a(S'with'
p10688
g20
F0.9992
tp10689
a(S'your'
p10690
g23
F0.9953
tp10691
a(S'supper'
p10692
g6
F0.9959
tp10693
asI916
(lp10694
(S'mhm'
p10695
g46
F0.9747
tp10696
asI917
(lp10697
(S'well'
p10698
g46
F0.741
tp10699
a(S'you'
p10700
g12
F0.9955
tp10701
a(S're'
p10702
g9
F0.9378
tp10703
a(g292
g23
F0.9892
tp10704
a(S'good'
p10705
g52
F0.9986
tp10706
a(S'boy'
p10707
g6
F0.9975
tp10708
asI918
(lp10709
(S'and'
p10710
g28
F0.999
tp10711
a(g30
g12
F0.9888
tp10712
a(S'and'
p10713
g28
F0.9971
tp10714
a(g30
g12
F0.9841
tp10715
a(g232
g9
F0.9607
tp10716
a(S'gonna'
p10717
g9
F0.9942
tp10718
a(S'eat'
p10719
g9
F0.9996
tp10720
a(S'my'
p10721
g23
F0.9967
tp10722
a(S'cupcake'
p10723
g6
F0.8955
tp10724
a(S'and'
p10725
g28
F0.9987
tp10726
a(g30
g12
F0.9794
tp10727
a(S'blow'
p10728
g9
F0.9981
tp10729
a(S'myself'
p10730
g12
F0.9951
tp10731
a(S'up'
p10732
g17
F0.9268
tp10733
asI919
(lp10734
(S'you'
p10735
g12
F0.9969
tp10736
a(S'do'
p10737
g9
F0.9993
tp10738
asI920
(lp10739
(S'let'
p10740
g9
F0.9975
tp10741
a(S'me'
p10742
g12
F0.9996
tp10743
a(S'feel'
p10744
g9
F0.9984
tp10745
a(S'your'
p10746
g23
F0.973
tp10747
a(S'muscle'
p10748
g6
F0.9575
tp10749
asI921
(lp10750
(S'gasps'
p10751
g9
F0.7097
tp10752
a(S'big'
p10753
g52
F0.9558
tp10754
a(S'and'
p10755
g28
F0.9976
tp10756
a(S'strong'
p10757
g52
F0.9722
tp10758
asI922
(lp10759
(S'mommy'
p10760
g6
F0.5271
tp10761
asI923
(lp10762
(S'what'
p10763
g12
F0.949
tp10764
asI924
(lp10765
(S'do'
p10766
g9
F0.9985
tp10767
a(S'you'
p10768
g12
F0.9994
tp10769
a(S'wanna'
p10770
g9
F0.9976
tp10771
a(S'feel'
p10772
g9
F0.9997
tp10773
a(S'my'
p10774
g23
F0.9962
tp10775
a(S'other'
p10776
g52
F0.9986
tp10777
a(S'one'
p10778
g813
F0.9207
tp10779
asI925
(lp10780
(S'yes'
p10781
g46
F0.9958
tp10782
asI926
(lp10783
(S'gasps'
p10784
g9
F0.815
tp10785
a(S'that'
p10786
g23
F0.6115
tp10787
a(S'one'
p10788
g813
F0.8219
tp10789
a(g270
g304
F0.6333
tp10790
a(S'big'
p10791
g52
F0.9592
tp10792
a(S'and'
p10793
g28
F0.9978
tp10794
a(S'strong'
p10795
g52
F0.9556
tp10796
a(S'too'
p10797
g3
F0.9508
tp10798
asI927
(lp10799
(S'that'
p10800
g12
F0.473
tp10801
a(g270
g9
F0.6947
tp10802
a(S'that'
p10803
g23
F0.6937
tp10804
a(S'supper'
p10805
g6
F0.9893
tp10806
a(S'goes'
p10807
g9
F0.9911
tp10808
a(S'right'
p10809
g3
F0.7768
tp10810
a(S'to'
p10811
g20
F0.9995
tp10812
a(S'those'
p10813
g23
F0.9618
tp10814
a(S'muscles'
p10815
g6
F0.9982
tp10816
asI928
(lp10817
(S'it'
p10818
g12
F0.9888
tp10819
a(g270
g9
F0.5107
tp10820
a(S'and'
p10821
g28
F0.9983
tp10822
a(S'um'
p10823
g46
F0.5688
tp10824
a(S'and'
p10825
g28
F0.9974
tp10826
a(S'the'
p10827
g23
F0.9992
tp10828
a(S'muscles'
p10829
g6
F0.9946
tp10830
a(S'xxx'
p10831
g404
F0.5212
tp10832
a(S'punch'
p10833
g9
F0.8501
tp10834
a(S'you'
p10835
g12
F0.9989
tp10836
a(S'into'
p10837
g20
F0.9988
tp10838
a(S'the'
p10839
g23
F0.9995
tp10840
a(S'house'
p10841
g6
F0.9778
tp10842
asI929
(lp10843
(S'well'
p10844
g46
F0.6931
tp10845
a(S'muscles'
p10846
g6
F0.9729
tp10847
a(S'are'
p10848
g9
F0.9928
tp10849
a(S'more'
p10850
g3
F0.7123
tp10851
a(S'important'
p10852
g52
F0.9797
tp10853
a(S'they'
p10854
g12
F0.9636
tp10855
a(S'help'
p10856
g9
F0.9998
tp10857
a(S'me'
p10858
g12
F0.9984
tp10859
a(S'in'
p10860
g20
F0.8949
tp10861
a(S'lifting'
p10862
g9
F0.6155
tp10863
a(S'things'
p10864
g6
F0.9915
tp10865
a(S'and'
p10866
g28
F0.9967
tp10867
a(S'keeping'
p10868
g9
F0.9954
tp10869
a(S'healthy'
p10870
g52
F0.9491
tp10871
asI930
(lp10872
(S'hm'
p10873
g46
F0.995
tp10874
asI931
(lp10875
(S'we'
p10876
g12
F0.9943
tp10877
a(S'don'
p10878
g9
F0.8461
tp10879
a(g8
g9
F0.3155
tp10880
a(S'think'
p10881
g9
F0.9952
tp10882
a(S'about'
p10883
g20
F0.8804
tp10884
a(S'punching'
p10885
g9
F0.9633
tp10886
asI932
(lp10887
(g30
g12
F0.9908
tp10888
a(S'know'
p10889
g9
F0.9999
tp10890
a(S'you'
p10891
g12
F0.9991
tp10892
a(S'see'
p10893
g9
F0.9979
tp10894
a(S'punching'
p10895
g9
F0.9972
tp10896
a(g292
g23
F0.9975
tp10897
a(S'lot'
p10898
g6
F0.9234
tp10899
a(S'on'
p10900
g20
F0.998
tp10901
a(g8
g304
F0.5715
tp10902
a(g1787
g304
F0.9338
tp10903
a(g1789
g304
F0.8307
tp10904
a(g1787
g304
F0.6769
tp10905
a(S'but'
p10906
g28
F0.9897
tp10907
a(S'you'
p10908
g12
F0.9994
tp10909
a(S'still'
p10910
g3
F0.9957
tp10911
a(S'don'
p10912
g9
F0.6044
tp10913
a(g8
g304
F0.3131
tp10914
a(S'punch'
p10915
g6
F0.6524
tp10916
asI933
(lp10917
(S'mommy'
p10918
g6
F0.7055
tp10919
a(S'watch'
p10920
g9
F0.9545
tp10921
asI934
(lp10922
(S'grunts'
p10923
g9
F0.6753
tp10924
asI935
(lp10925
(S'wow'
p10926
g46
F0.9755
tp10927
a(S'you'
p10928
g12
F0.9957
tp10929
a(S'are'
p10930
g9
F0.9987
tp10931
a(S'strong'
p10932
g52
F0.9991
tp10933
a(S'honey'
p10934
g6
F0.9726
tp10935
asI936
(lp10936
(S'wow'
p10937
g46
F0.9963
tp10938
asI937
(lp10939
(S'and'
p10940
g28
F0.9984
tp10941
a(S'watch'
p10942
g9
F0.9786
tp10943
a(S'how'
p10944
g3
F0.9978
tp10945
a(S'hard'
p10946
g52
F0.8522
tp10947
a(g30
g12
F0.9528
tp10948
a(S'can'
p10949
g9
F0.9998
tp10950
a(S'put'
p10951
g9
F0.9985
tp10952
a(S'this'
p10953
g12
F0.8688
tp10954
a(S'down'
p10955
g17
F0.782
tp10956
asI938
(lp10957
(S'okay'
p10958
g46
F0.8952
tp10959
a(S'be'
p10960
g9
F0.9701
tp10961
a(S'careful'
p10962
g52
F0.8542
tp10963
a(S'please'
p10964
g9
F0.8042
tp10965
a(S'put'
p10966
g9
F0.998
tp10967
a(S'it'
p10968
g12
F0.9877
tp10969
a(S'down'
p10970
g17
F0.6145
tp10971
a(S'very'
p10972
g3
F0.9963
tp10973
a(S'gently'
p10974
g3
F0.9668
tp10975
asI939
(lp10976
(S'thank'
p10977
g9
F0.9631
tp10978
a(S'you'
p10979
g12
F0.9987
tp10980
asI940
(lp10981
(S'watch'
p10982
g9
F0.8409
tp10983
a(g30
g12
F0.9957
tp10984
a(S'can'
p10985
g9
F0.9998
tp10986
a(S'pick'
p10987
g9
F0.9996
tp10988
a(S'the'
p10989
g23
F0.9996
tp10990
a(S'big'
p10991
g52
F0.9889
tp10992
a(S'one'
p10993
g813
F0.956
tp10994
a(S'up'
p10995
g17
F0.7077
tp10996
asI941
(lp10997
(S'okay'
p10998
g46
F0.9126
tp10999
a(S'ready'
p11000
g52
F0.9782
tp11001
a(S'for'
p11002
g20
F0.9999
tp11003
a(S'your'
p11004
g23
F0.9917
tp11005
a(S'cupcake'
p11006
g6
F0.9144
tp11007
asI942
(lp11008
(S'you'
p11009
g12
F0.9968
tp11010
a(S'wanna'
p11011
g9
F0.9985
tp11012
a(S'see'
p11013
g9
F0.9987
tp11014
a(S'if'
p11015
g20
F0.9929
tp11016
a(g30
g12
F0.9967
tp11017
a(S'can'
p11018
g9
F0.9998
tp11019
a(S'pick'
p11020
g9
F0.9996
tp11021
a(S'the'
p11022
g23
F0.9996
tp11023
a(S'big'
p11024
g52
F0.9899
tp11025
a(S'one'
p11026
g813
F0.9653
tp11027
a(S'up'
p11028
g17
F0.7632
tp11029
asI943
(lp11030
(S'uh'
p11031
g46
F0.9556
tp11032
a(S'no'
p11033
g46
F0.8303
tp11034
a(g30
g12
F0.8682
tp11035
a(g803
g9
F0.7075
tp11036
a(S'rather'
p11037
g3
F0.9964
tp11038
a(S'not'
p11039
g3
F0.9982
tp11040
a(S'see'
p11041
g9
F0.9958
tp11042
a(S'if'
p11043
g20
F0.999
tp11044
a(S'you'
p11045
g12
F0.9997
tp11046
a(S'can'
p11047
g9
F0.9997
tp11048
a(S'pick'
p11049
g9
F0.9996
tp11050
a(S'the'
p11051
g23
F0.9996
tp11052
a(S'big'
p11053
g52
F0.99
tp11054
a(S'one'
p11055
g813
F0.9561
tp11056
a(S'up'
p11057
g17
F0.53
tp11058
a(S'honey'
p11059
g6
F0.8741
tp11060
asI944
(lp11061
(S'chi'
p11062
g46
F0.4684
tp11063
asI945
(lp11064
(S'watch'
p11065
g9
F0.9885
tp11066
a(S'this'
p11067
g12
F0.6403
tp11068
a(S'grunting'
p11069
g9
F0.9992
tp11070
a(S'with'
p11071
g20
F0.9951
tp11072
a(S'effort'
p11073
g6
F0.9674
tp11074
asI946
(lp11075
(S'please'
p11076
g9
F0.8246
tp11077
asI947
(lp11078
(S'excuse'
p11079
g9
F0.9631
tp11080
a(S'me'
p11081
g12
F0.9987
tp11082
asI948
(lp11083
(S'grunting'
p11084
g9
F0.998
tp11085
a(S'see'
p11086
g9
F0.8195
tp11087
a(g30
g12
F0.9797
tp11088
a(S'can'
p11089
g9
F0.9996
tp11090
asI949
(lp11091
(S'oh'
p11092
g46
F0.9959
tp11093
a(S'yes'
p11094
g46
F0.9941
tp11095
a(S'you'
p11096
g12
F0.9904
tp11097
a(S're'
p11098
g6
F0.5175
tp11099
a(S'so'
p11100
g3
F0.8603
tp11101
a(S'strong'
p11102
g52
F0.9797
tp11103
asI950
(lp11104
(g30
g12
F0.9894
tp11105
a(S'knew'
p11106
g9
F0.9999
tp11107
a(S'you'
p11108
g12
F0.9994
tp11109
a(S'could'
p11110
g9
F0.9996
tp11111
a(S'do'
p11112
g9
F0.9997
tp11113
a(S'that'
p11114
g12
F0.856
tp11115
asI951
(lp11116
(S'okay'
p11117
g46
F0.9857
tp11118
asI952
(lp11119
(S'thank'
p11120
g9
F0.9631
tp11121
a(S'you'
p11122
g12
F0.9987
tp11123
asI953
(lp11124
(S'see'
p11125
g9
F0.8247
tp11126
a(g30
g12
F0.9845
tp11127
a(S'know'
p11128
g9
F0.9999
tp11129
a(S'that'
p11130
g12
F0.4639
tp11131
a(g30
g12
F0.9934
tp11132
a(S'can'
p11133
g9
F0.9998
tp11134
a(S'too'
p11135
g3
F0.9806
tp11136
asI954
(lp11137
(S'alrighty'
p11138
g46
F0.5993
tp11139
a(S'right'
p11140
g46
F0.7322
tp11141
asI955
(lp11142
(S'be'
p11143
g9
F0.9727
tp11144
a(S'cause'
p11145
g20
F0.7105
tp11146
a(g30
g12
F0.982
tp11147
a(g232
g9
F0.9262
tp11148
a(S'xxx'
p11149
g404
F0.3542
tp11150
a(S'lift'
p11151
g9
F0.9857
tp11152
a(S'the'
p11153
g23
F0.9935
tp11154
a(S'xxx'
p11155
g6
F0.5874
tp11156
a(S'like'
p11157
g20
F0.958
tp11158
a(S'he'
p11159
g12
F0.9297
tp11160
a(S'man'
p11161
g6
F0.7065
tp11162
asI956
(lp11163
(S'yeah'
p11164
g46
F0.9949
tp11165
a(S'just'
p11166
g3
F0.9992
tp11167
a(S'like'
p11168
g20
F0.863
tp11169
a(S'he'
p11170
g12
F0.9396
tp11171
a(S'man'
p11172
g6
F0.4946
tp11173
asI957
(lp11174
(S'uhhuh'
p11175
g46
F0.9892
tp11176
asI958
(lp11177
(S'that'
p11178
g12
F0.4727
tp11179
a(g270
g9
F0.5427
tp11180
a(S'right'
p11181
g46
F0.3487
tp11182
asI959
(lp11183
(S'when'
p11184
g3
F0.9675
tp11185
a(S'um'
p11186
g46
F0.7585
tp11187
a(S'when'
p11188
g3
F0.9861
tp11189
a(g30
g12
F0.9843
tp11190
a(S'grow'
p11191
g9
F0.9999
tp11192
a(S'up'
p11193
g17
F0.9682
tp11194
a(S'um'
p11195
g46
F0.7205
tp11196
a(S'xxx'
p11197
g404
F0.6383
tp11198
a(S'he'
p11199
g12
F0.8553
tp11200
a(S'man'
p11201
g6
F0.5739
tp11202
a(S'xxx'
p11203
g404
F0.8578
tp11204
asI960
(lp11205
(S'and'
p11206
g28
F0.9986
tp11207
a(S'when'
p11208
g3
F0.9842
tp11209
a(g30
g12
F0.9866
tp11210
a(S'grow'
p11211
g9
F0.9999
tp11212
a(S'up'
p11213
g17
F0.9623
tp11214
a(g30
g12
F0.9752
tp11215
a(g232
g9
F0.953
tp11216
a(S'gonna'
p11217
g9
F0.9867
tp11218
asI961
(lp11219
(S'honey'
p11220
g6
F0.802
tp11221
a(S'start'
p11222
g9
F0.969
tp11223
a(S'fixing'
p11224
g9
F0.9991
tp11225
a(S'that'
p11226
g20
F0.7821
tp11227
a(S'the'
p11228
g23
F0.9995
tp11229
a(S'way'
p11230
g6
F0.9576
tp11231
a(S'it'
p11232
g12
F0.9841
tp11233
a(S'was'
p11234
g9
F0.9983
tp11235
asI962
(lp11236
(S'xxx'
p11237
g404
F0.8437
tp11238
asI963
(lp11239
(S'your'
p11240
g23
F0.4445
tp11241
a(S'what'
p11242
g12
F0.9726
tp11243
asI964
(lp11244
(S'my'
p11245
g23
F0.8959
tp11246
a(S'xxx'
p11247
g6
F0.5963
tp11248
asI965
(lp11249
(S'your'
p11250
g23
F0.9749
tp11251
a(S'doll'
p11252
g6
F0.9981
tp11253
asI966
(lp11254
(S'no'
p11255
g46
F0.8652
tp11256
a(S'my'
p11257
g23
F0.9907
tp11258
a(S'golf'
p11259
g6
F0.9803
tp11260
a(S'xxx'
p11261
g404
F0.7859
tp11262
a(S'where'
p11263
g3
F0.9893
tp11264
a(g30
g12
F0.9894
tp11265
a(S'play'
p11266
g9
F0.9987
tp11267
a(S'golf'
p11268
g6
F0.9392
tp11269
asI967
(lp11270
(S'oh'
p11271
g46
F0.9936
tp11272
a(S'your'
p11273
g23
F0.8165
tp11274
a(S'golf'
p11275
g6
F0.9923
tp11276
asI968
(lp11277
(S'mhm'
p11278
g46
F0.9747
tp11279
asI969
(lp11280
(S'okay'
p11281
g46
F0.9622
tp11282
a(g30
g12
F0.9863
tp11283
a(g232
g9
F0.9366
tp11284
a(S'sorry'
p11285
g52
F0.9136
tp11286
asI970
(lp11287
(S'chuckles'
p11288
g9
F0.8006
tp11289
asI971
(lp11290
(S'oh'
p11291
g46
F0.9848
tp11292
a(S'did'
p11293
g9
F0.998
tp11294
a(S'you'
p11295
g12
F0.9957
tp11296
a(S'notice'
p11297
g9
F0.9815
tp11298
a(S'that'
p11299
g12
F0.5876
tp11300
a(g270
g9
F0.578
tp11301
a(S'running'
p11302
g9
F0.9896
tp11303
asI972
(lp11304
(S'okay'
p11305
g46
F0.9857
tp11306
asI973
(lp11307
(S'it'
p11308
g12
F0.9888
tp11309
a(g270
g9
F0.5544
tp11310
a(S'not'
p11311
g3
F0.9964
tp11312
a(S'anymore'
p11313
g3
F0.9951
tp11314
asI974
(lp11315
(S'say'
p11316
g9
F0.8111
tp11317
a(S'bye'
p11318
g46
F0.9662
tp11319
asI975
(lp11320
(S'bye'
p11321
g46
F0.9774
tp11322
as.