(dp0
I513
(lp1
(S'you'
p2
S'O'
p3
F0.9968
tp4
a(S"don't"
p5
S'V'
p6
F1.0
tp7
a(S'have'
p8
g6
F0.9992
tp9
a(S'one'
p10
S'$'
p11
F0.884
tp12
a(S'.'
p13
S','
p14
F0.9977
tp15
asI1026
(lp16
(S'(.)'
p17
S'E'
p18
F0.3254
tp19
a(S'oh'
p20
S'!'
p21
F0.9674
tp22
a(S'you'
p23
g3
F0.9959
tp24
a(S"shouldn't"
p25
g6
F0.9998
tp26
a(S'stuff'
p27
S'N'
p28
F0.8161
tp29
a(S'so'
p30
S'R'
p31
F0.9186
tp32
a(S'much'
p33
g31
F0.7761
tp34
a(S'into'
p35
S'P'
p36
F0.9997
tp37
a(S'your'
p38
S'D'
p39
F0.996
tp40
a(S'mouth'
p41
g28
F0.9998
tp42
a(g13
g14
F0.9985
tp43
asI939
(lp44
(S'mhm'
p45
g21
F0.9761
tp46
a(g13
g14
F0.9962
tp47
asI516
(lp48
(S'I'
p49
g3
F0.9981
tp50
a(S'do'
p51
g6
F0.9998
tp52
a(S'too'
p53
g31
F0.9847
tp54
a(g13
g14
F0.9973
tp55
asI519
(lp56
(S'where'
p57
g31
F0.9821
tp58
a(S'?'
p59
g14
F0.9953
tp60
asI737
(lp61
(S'when'
p62
g31
F0.9801
tp63
a(g49
g3
F0.9982
tp64
a(S'get'
p65
g6
F1.0
tp66
a(S'down'
p67
S'T'
p68
F0.8172
tp69
a(S"I'll"
p70
S'L'
p71
F0.9717
tp72
a(S'smack'
p73
g6
F0.9966
tp74
a(S'her'
p75
g3
F0.8352
tp76
a(g13
g14
F0.9984
tp77
asI989
(lp78
(S'the'
p79
g39
F0.9969
tp80
a(S'green'
p81
S'A'
p82
F0.9979
tp83
a(S'one'
p84
g11
F0.7448
tp85
a(g59
g14
F0.9964
tp86
asI523
(lp87
(S'in'
p88
g36
F0.9915
tp89
a(S'the'
p90
g39
F0.9991
tp91
a(S'closet'
p92
g28
F0.997
tp93
a(g21
g14
F0.9992
tp94
asI808
(lp95
(S'your'
p96
g39
F0.9795
tp97
a(S'brain'
p98
g28
F0.9984
tp99
a(S'tastes'
p100
g6
F0.9727
tp101
a(S'like'
p102
g36
F0.9661
tp103
a(S'sausage'
p104
g28
F0.9958
tp105
a(g13
g14
F0.9982
tp106
asI770
(lp107
(S'he'
p108
g3
F0.9805
tp109
a(S'sure'
p110
g82
F0.6872
tp111
a(S'is'
p112
g6
F0.9294
tp113
a(S'Mot'
p114
S'^'
p115
F0.4878
tp116
a(g13
g14
F0.9906
tp117
asI14
(lp118
(S"it's"
p119
g71
F0.9974
tp120
a(S'just'
p121
g31
F0.9985
tp122
a(S'a'
p123
g39
F0.9925
tp124
a(S'tape'
p125
g28
F0.9984
tp126
a(S'recorder'
p127
g28
F0.9974
tp128
a(g13
g14
F0.9973
tp129
asI1039
(lp130
(S'0'
p131
g11
F0.9816
tp132
a(S'[='
p133
g18
F0.9666
tp134
a(g21
g14
F0.986
tp135
a(S'giggles'
p136
g6
F0.9609
tp137
a(S'mimicking'
p138
g6
F0.5375
tp139
a(S'Mot'
p140
g28
F0.4666
tp141
a(S']'
p142
g14
F0.9871
tp143
a(g13
g14
F0.9962
tp144
asI1040
(lp145
(S'(..)'
p146
g14
F0.384
tp147
a(S"that's"
p148
g71
F0.9766
tp149
a(S'the'
p150
g39
F0.9973
tp151
a(S'one'
p152
g11
F0.9003
tp153
a(g49
g3
F0.9964
tp154
a(S'want'
p155
g6
F0.9998
tp156
a(S'(.)'
p157
g18
F0.2115
tp158
a(g123
g39
F0.9858
tp159
a(S'Barbie'
p160
g28
F0.9546
tp161
a(g13
g14
F0.9986
tp162
asI18
(lp163
(g49
g3
F0.9983
tp164
a(S'want'
p165
g6
F1.0
tp166
a(S'you'
p167
g3
F0.9989
tp168
a(S'to'
p169
g36
F0.9894
tp170
a(S'eat'
p171
g6
F0.9996
tp172
a(S'your'
p173
g39
F0.9926
tp174
a(S'supper'
p175
g28
F0.9974
tp176
a(g13
g14
F0.9986
tp177
asI531
(lp178
(S'then'
p179
g31
F0.9758
tp180
a(g49
g3
F0.9988
tp181
a(S'would'
p182
g6
F0.9999
tp183
a(S'put'
p184
g6
F0.9997
tp185
a(S'her'
p186
g3
F0.7552
tp187
a(S'in'
p188
g36
F0.9925
tp189
a(S'the'
p190
g39
F0.9971
tp191
a(S'sink'
p192
g28
F0.9917
tp193
a(S'so'
p194
g36
F0.9701
tp195
a(S'she'
p196
g3
F0.9984
tp197
a(S'can'
p198
g6
F0.9988
tp199
a(S'get'
p200
g6
F0.9998
tp201
a(S'dry'
p202
g82
F0.955
tp203
a(g13
g14
F0.999
tp204
asI21
(lp205
(S'is'
p206
g6
F0.9981
tp207
a(S'that'
p208
g3
F0.9253
tp209
a(S'xxx'
p210
g18
F0.3767
tp211
a(g59
g14
F0.9737
tp212
asI536
(lp213
(S'please'
p214
g6
F0.9626
tp215
a(S'come'
p216
g6
F0.9994
tp217
a(S'over'
p218
g36
F0.4746
tp219
a(S'now'
p220
g31
F0.9952
tp221
a(g13
g14
F0.9986
tp222
asI25
(lp223
(S'mhm'
p224
g21
F0.9761
tp225
a(g13
g14
F0.9962
tp226
asI1051
(lp227
(S'&'
p228
g228
F0.9893
tp229
a(S'='
p230
g14
F0.8588
tp231
a(S'coughs'
p232
g28
F0.7594
tp233
a(g13
g14
F0.9982
tp234
asI28
(lp235
(S'they'
p236
g3
F0.9926
tp237
a(S'do'
p238
g6
F0.9999
tp239
a(S'this'
p240
g3
F0.5264
tp241
a(S'right'
p242
g82
F0.4794
tp243
a(g59
g14
F0.9986
tp244
asI858
(lp245
(S'go'
p246
g6
F0.9861
tp247
a(S'to'
p248
g36
F0.9879
tp249
a(S'bed'
p250
g6
F0.5266
tp251
a(S'hungry'
p252
g82
F0.9302
tp253
a(g13
g14
F0.9983
tp254
asI1055
(lp255
(S'Skipper'
p256
g115
F0.645
tp257
a(S'(.)'
p258
g115
F0.283
tp259
a(S'you'
p260
g3
F0.9964
tp261
a(S'look'
p262
g6
F0.9949
tp263
a(S'just'
p264
g31
F0.9998
tp265
a(S'like'
p266
g36
F0.6248
tp267
a(S'me'
p268
g3
F0.9982
tp269
a(g13
g14
F0.9985
tp270
asI32
(lp271
(S'mhm'
p272
g21
F0.9761
tp273
a(g13
g14
F0.9962
tp274
asI546
(lp275
(S'next'
p276
g82
F0.9335
tp277
a(S'time'
p278
g28
F0.9934
tp279
a(S'you'
p280
g3
F0.9877
tp281
a(S'move'
p282
g6
F0.9816
tp283
a(g49
g3
F0.9991
tp284
a(S'take'
p285
g6
F0.9993
tp286
a(S'Skipper'
p287
g28
F0.6459
tp288
a(g13
g14
F0.999
tp289
asI35
(lp290
(S"it's"
p291
g71
F0.9932
tp292
a(S'cute'
p293
g82
F0.9963
tp294
a(S'Mot'
p295
g28
F0.4972
tp296
a(S'where'
p297
g31
F0.9525
tp298
a(S'did'
p299
g6
F0.9986
tp300
a(S'you'
p301
g3
F0.9988
tp302
a(S'get'
p303
g6
F0.9999
tp304
a(S'it'
p305
g3
F0.99
tp306
a(g59
g14
F0.9991
tp307
asI1061
(lp308
(S'over'
p309
g36
F0.8477
tp310
a(S'there'
p311
g31
F0.4696
tp312
a(S'please'
p313
g6
F0.9133
tp314
a(S'and'
p315
g228
F0.9964
tp316
a(S'finish'
p317
g6
F0.9175
tp318
a(g13
g14
F0.9975
tp319
asI550
(lp320
(S'(.)'
p321
g115
F0.247
tp322
a(S'if'
p323
g36
F0.9976
tp324
a(S"you'd"
p325
g71
F0.9737
tp326
a(S'hurry'
p327
g6
F0.9981
tp328
a(S'up'
p329
g68
F0.9622
tp330
a(S'and'
p331
g228
F0.9968
tp332
a(S'eat'
p333
g6
F0.994
tp334
a(S"you'd"
p335
g71
F0.8772
tp336
a(S'be'
p337
g6
F0.9999
tp338
a(S'all'
p339
g39
F0.5957
tp340
a(S'set'
p341
g28
F0.8583
tp342
a(g13
g14
F0.9982
tp343
asI689
(lp344
(S'mhm'
p345
g21
F0.9761
tp346
a(g13
g14
F0.9962
tp347
asI1064
(lp348
(S"don't"
p349
g6
F0.9992
tp350
a(g49
g3
F0.9987
tp351
a(S'look'
p352
g6
F0.9992
tp353
a(S'like'
p354
g36
F0.9613
tp355
a(S'her'
p356
g3
F0.9156
tp357
a(g59
g14
F0.9966
tp358
asI41
(lp359
(S'Debra'
p360
g115
F0.9975
tp361
a(S'and'
p362
g228
F0.9982
tp363
a(S'Mike'
p364
g115
F0.9976
tp365
a(S'left'
p366
g6
F0.9857
tp367
a(S'it'
p368
g3
F0.9936
tp369
a(S'remember'
p370
g6
F0.9922
tp371
a(g59
g14
F0.9974
tp372
asI973
(lp373
(S'mm'
p374
g21
F0.5842
tp375
a(g13
g14
F0.9932
tp376
asI555
(lp377
(S"that's"
p378
g71
F0.9949
tp379
a(S'what'
p380
g3
F0.9884
tp381
a(S"I'm"
p382
g71
F0.9955
tp383
a(S'trying'
p384
g6
F0.9767
tp385
a(S'Mot'
p386
g115
F0.5983
tp387
a(g13
g14
F0.9861
tp388
asI1068
(lp389
(S'(.)'
p390
g115
F0.3484
tp391
a(S'sit'
p392
g6
F0.9828
tp393
a(S'in'
p394
g36
F0.8577
tp395
a(S'your'
p396
g39
F0.9918
tp397
a(S'chair'
p398
g28
F0.9992
tp399
a(g13
g14
F0.9986
tp400
asI46
(lp401
(S'oh'
p402
g21
F0.9987
tp403
a(S'yeah'
p404
g21
F0.9998
tp405
a(g21
g14
F0.9972
tp406
asI559
(lp407
(S"you're"
p408
g71
F0.9878
tp409
a(g123
g39
F0.9894
tp410
a(S'sweetie'
p411
g28
F0.9937
tp412
a(g13
g14
F0.9988
tp413
asI49
(lp414
(S'does'
p415
g6
F0.9995
tp416
a(S'it'
p417
g3
F0.9984
tp418
a(S'do'
p419
g6
F0.9993
tp420
a(S'songs'
p421
g28
F0.9704
tp422
a(S'Mot'
p423
S'G'
p424
F0.3139
tp425
a(g59
g14
F0.9859
tp426
asI1074
(lp427
(S"I'm"
p428
g71
F0.9951
tp429
a(S'gonna'
p430
g6
F0.9941
tp431
a(S'kneel'
p432
g6
F0.9475
tp433
a(g13
g14
F0.9985
tp434
asI563
(lp435
(S'you'
p436
g3
F0.9968
tp437
a(S'wanna'
p438
g6
F0.9973
tp439
a(S'go'
p440
g6
F0.9978
tp441
a(S'take'
p442
g6
F0.9918
tp443
a(S'the'
p444
g39
F0.9996
tp445
a(S'bag'
p446
g28
F0.9988
tp447
a(S'out'
p448
g36
F0.9073
tp449
a(S'o(f'
p450
g115
F0.2633
tp451
a(S')'
p452
g14
F0.9909
tp453
a(S'that'
p454
g39
F0.6711
tp455
a(S'chair'
p456
g28
F0.9947
tp457
a(S'and'
p458
g228
F0.9963
tp459
a(S'bring'
p460
g6
F0.9997
tp461
a(S'the'
p462
g39
F0.9996
tp463
a(S'chair'
p464
g28
F0.998
tp465
a(S'over'
p466
g36
F0.8684
tp467
a(g59
g14
F0.9963
tp468
asI53
(lp469
(S'hunhunh'
p470
g21
F0.4147
tp471
a(g13
g14
F0.9969
tp472
asI777
(lp473
(S'&-uh'
p474
g21
F0.9321
tp475
a(S'oh'
p476
g21
F0.9986
tp477
a(g13
g14
F0.9953
tp478
asI1080
(lp479
(S'(..)'
p480
g14
F0.3742
tp481
a(S'look'
p482
g6
F0.9254
tp483
a(S'Mot'
p484
g28
F0.4067
tp485
a(g13
g14
F0.9972
tp486
asI57
(lp487
(S'<'
p488
S'~'
p489
F0.9526
tp490
a(g49
g3
F0.9967
tp491
a(S'>'
p492
g489
F0.2694
tp493
a(S'[/]'
p494
g14
F0.2002
tp495
a(g488
g489
F0.9375
tp496
a(g49
g3
F0.9963
tp497
a(g492
g6
F0.2795
tp498
a(S'[/]'
p499
g14
F0.4145
tp500
a(g49
g3
F0.9984
tp501
a(S'forgot'
p502
g6
F0.9999
tp503
a(S'the'
p504
g39
F0.9992
tp505
a(S"girl's"
p506
S'S'
p507
F0.9387
tp508
a(S'name'
p509
g28
F0.9927
tp510
a(S'Mot'
p511
g28
F0.6725
tp512
a(g13
g14
F0.9967
tp513
asI571
(lp514
(S'the'
p515
g39
F0.9979
tp516
a(S'bag'
p517
g28
F0.9987
tp518
a(S'out'
p519
g36
F0.8581
tp520
a(S'o(f'
p521
g115
F0.2749
tp522
a(g452
g14
F0.9813
tp523
a(S'what'
p524
g3
F0.8222
tp525
a(S'chair'
p526
g28
F0.9967
tp527
a(g59
g14
F0.9987
tp528
asI1084
(lp529
(S'starlight'
p530
g28
F0.8366
tp531
a(S'huh'
p532
g21
F0.9478
tp533
a(g59
g14
F0.9975
tp534
asI61
(lp535
(S'Debra'
p536
g115
F0.9911
tp537
a(g13
g14
F0.995
tp538
asI575
(lp539
(S'that'
p540
g3
F0.4265
tp541
a(S'rockin(g'
p542
g6
F0.9326
tp543
a(g452
g14
F0.9905
tp544
a(S'chair'
p545
g28
F0.9889
tp546
a(g13
g14
F0.999
tp547
asI64
(lp548
(g49
g3
F0.9984
tp549
a(S'know'
p550
g6
F0.9999
tp551
a(S'the'
p552
g39
F0.9991
tp553
a(S"boy's"
p554
g507
F0.6721
tp555
a(S'name'
p556
g28
F0.9889
tp557
a(S'Michael'
p558
g115
F0.9948
tp559
a(g13
g14
F0.9946
tp560
asI578
(lp561
(S'Mom'
p562
g28
F0.7481
tp563
a(S"it's"
p564
g71
F0.9949
tp565
a(S'too'
p566
g31
F0.9955
tp567
a(S'heavy'
p568
g82
F0.9867
tp569
a(g13
g14
F0.9987
tp570
asI67
(lp571
(S'right'
p572
g21
F0.7325
tp573
a(g59
g14
F0.9985
tp574
asI582
(lp575
(S'look'
p576
g6
F0.7606
tp577
a(S'['
p578
g14
F0.9845
tp579
a(g492
g489
F0.3399
tp580
a(g142
g14
F0.9853
tp581
a(S"it's"
p582
g71
F0.9962
tp583
a(S'too'
p584
g31
F0.9986
tp585
a(S'hard'
p586
g82
F0.961
tp587
a(g13
g14
F0.9985
tp588
asI71
(lp589
(S'mhm'
p590
g21
F0.9761
tp591
a(g13
g14
F0.9962
tp592
asI585
(lp593
(S'pull'
p594
g6
F0.4825
tp595
a(g578
g14
F0.988
tp596
a(g488
g489
F0.972
tp597
a(g142
g14
F0.9847
tp598
a(g13
g14
F0.9962
tp599
asI1098
(lp600
(S'(.)'
p601
g115
F0.4437
tp602
a(S"didn't"
p603
g6
F0.9999
tp604
a(S'you'
p605
g3
F0.9986
tp606
a(S'hear'
p607
g6
F0.9902
tp608
a(S'what'
p609
g3
F0.9784
tp610
a(g49
g3
F0.9995
tp611
a(S'said'
p612
g6
F0.9996
tp613
a(S'to'
p614
g36
F0.9951
tp615
a(S'Buck'
p616
g115
F0.8454
tp617
a(g59
g14
F0.9963
tp618
asI75
(lp619
(S'(.)'
p620
g18
F0.3809
tp621
a(S'why'
p622
g31
F0.8953
tp623
a(S"doesn't"
p624
g6
F0.9984
tp625
a(S'the'
p626
g39
F0.9993
tp627
a(S'pack'
p628
g28
F0.9917
tp629
a(S'have'
p630
g6
F0.9967
tp631
a(S'like'
p632
g36
F0.9115
tp633
a(S'mine'
p634
g3
F0.9811
tp635
a(S'right'
p636
g31
F0.9784
tp637
a(S'here'
p638
g31
F0.9903
tp639
a(g59
g14
F0.9987
tp640
asI588
(lp641
(S'just'
p642
g31
F0.9991
tp643
a(S'pull'
p644
g6
F0.9987
tp645
a(S'it'
p646
g3
F0.9846
tp647
a(S'out'
p648
g68
F0.8757
tp649
a(S'and'
p650
g228
F0.9955
tp651
a(S'put'
p652
g6
F0.9962
tp653
a(S'it'
p654
g3
F0.972
tp655
a(S'on'
p656
g36
F0.9766
tp657
a(S'the'
p658
g39
F0.9994
tp659
a(S'floor'
p660
g28
F0.9976
tp661
a(g13
g14
F0.999
tp662
asI1037
(lp663
(g228
g228
F0.9893
tp664
a(g230
g14
F0.8588
tp665
a(S'giggles'
p666
g28
F0.5863
tp667
a(g13
g14
F0.9982
tp668
asI593
(lp669
(g49
g3
F0.9976
tp670
a(S"can't"
p671
g6
F1.0
tp672
a(S'do'
p673
g6
F1.0
tp674
a(S'it'
p675
g3
F0.9881
tp676
a(S'Mot'
p677
g115
F0.4357
tp678
a(g13
g14
F0.9861
tp679
asI83
(lp680
(g49
g3
F0.9976
tp681
a(S"don't"
p682
g6
F1.0
tp683
a(S'know'
p684
g6
F0.9991
tp685
a(S'sweetheart'
p686
g28
F0.9986
tp687
a(g13
g14
F0.9985
tp688
asI596
(lp689
(S'go'
p690
g6
F0.9589
tp691
a(S'ahead'
p692
g31
F0.866
tp693
a(g13
g14
F0.9984
tp694
asI526
(lp695
(S'(..)'
p696
g18
F0.4292
tp697
a(g49
g3
F0.9949
tp698
a(S'would'
p699
g6
F0.9999
tp700
a(S'do'
p701
g6
F1.0
tp702
a(S'it'
p703
g3
F0.9923
tp704
a(S'with'
p705
g36
F0.999
tp706
a(S'my'
p707
g39
F0.9979
tp708
a(S'Barbies'
p709
g28
F0.9605
tp710
a(g21
g14
F0.9993
tp711
asI86
(lp712
(S'please'
p713
g6
F0.9659
tp714
a(S'eat'
p715
g6
F0.9648
tp716
a(g13
g14
F0.998
tp717
asI599
(lp718
(S'just'
p719
g31
F0.9991
tp720
a(S'pull'
p721
g6
F0.997
tp722
a(S'the'
p723
g39
F0.9995
tp724
a(S'bag'
p725
g28
F0.9991
tp726
a(S'out'
p727
g68
F0.4217
tp728
a(g13
g14
F0.9975
tp729
asI1112
(lp730
(S'yeah'
p731
g21
F0.9971
tp732
a(g49
g3
F0.9991
tp733
a(S'am'
p734
g6
F0.9959
tp735
a(g13
g14
F0.9981
tp736
asI89
(lp737
(S'xxx'
p738
g18
F0.7525
tp739
a(S'(.)'
p740
g18
F0.9062
tp741
a(g49
g3
F0.997
tp742
a(S'want'
p743
g6
F0.9996
tp744
a(S'one'
p745
g11
F0.9134
tp746
a(S'fry'
p747
g28
F0.8452
tp748
a(g13
g14
F0.9979
tp749
asI602
(lp750
(S"it's"
p751
g71
F0.9954
tp752
a(S'gonna'
p753
g6
F0.9786
tp754
a(S'[='
p755
g18
F0.7535
tp756
a(S'going'
p757
g6
F0.9976
tp758
a(S'to'
p759
g36
F0.898
tp760
a(g142
g14
F0.9695
tp761
a(S'fall'
p762
g6
F0.9524
tp763
a(S'over'
p764
g36
F0.4085
tp765
a(g578
g14
F0.9833
tp766
a(g492
g18
F0.4205
tp767
a(g142
g14
F0.6071
tp768
a(g21
g14
F0.995
tp769
asI1115
(lp770
(S'hey'
p771
g21
F0.9885
tp772
a(S"don't"
p773
g6
F0.9979
tp774
a(S'xxx'
p775
g6
F0.7181
tp776
a(g13
g14
F0.9977
tp777
asI92
(lp778
(S'okay'
p779
g21
F0.9741
tp780
a(g13
g14
F0.9977
tp781
asI1077
(lp782
(S'(.)'
p783
g115
F0.6641
tp784
a(S'Skipper'
p785
g115
F0.9766
tp786
a(S'xxx'
p787
g18
F0.4219
tp788
a(S'she'
p789
g3
F0.9953
tp790
a(S'can'
p791
g6
F0.9993
tp792
a(S'tell'
p793
g6
F0.9998
tp794
a(S'me'
p795
g3
F0.9989
tp796
a(g13
g14
F0.9985
tp797
asI607
(lp798
(g488
g489
F0.9347
tp799
a(S'put'
p800
g6
F0.9955
tp801
a(S'it'
p802
g3
F0.9863
tp803
a(g492
g18
F0.4803
tp804
a(g578
g18
F0.535
tp805
a(g488
g489
F0.8293
tp806
a(g142
g14
F0.987
tp807
a(S'on'
p808
g36
F0.9946
tp809
a(S'the'
p810
g39
F0.9994
tp811
a(S'floor'
p812
g28
F0.9958
tp813
a(g21
g14
F0.9993
tp814
asI96
(lp815
(g49
g3
F0.9962
tp816
a(S'just'
p817
g31
F0.9986
tp818
a(S'had'
p819
g6
F0.9997
tp820
a(S'the'
p821
g39
F0.9996
tp822
a(S'other'
p823
g82
F0.9967
tp824
a(S'one'
p825
g11
F0.9845
tp826
a(S'in'
p827
g36
F0.9976
tp828
a(S'my'
p829
g39
F0.9988
tp830
a(S'hand'
p831
g28
F0.9987
tp832
a(S'so'
p833
g36
F0.9746
tp834
a(S'you'
p835
g3
F0.999
tp836
a(S"wouldn't"
p837
g6
F0.9981
tp838
a(S'see'
p839
g6
F0.9998
tp840
a(S'it'
p841
g3
F0.9501
tp842
a(g228
g228
F0.9838
tp843
a(g230
g14
F0.9159
tp844
a(S'laughs'
p845
g6
F0.9347
tp846
a(g13
g14
F0.9987
tp847
asI1128
(lp848
(S'get'
p849
g6
F0.9988
tp850
a(S'up'
p851
g68
F0.9533
tp852
a(g21
g14
F0.9975
tp853
asI611
(lp854
(S'go'
p855
g6
F0.7609
tp856
a(g21
g14
F0.9975
tp857
asI1095
(lp858
(g49
g3
F0.9967
tp859
a(S'love'
p860
g6
F0.9995
tp861
a(S'you'
p862
g3
F0.9992
tp863
a(S'too'
p864
g31
F0.9468
tp865
a(S'Buck'
p866
g115
F0.774
tp867
a(g13
g14
F0.9938
tp868
asI1125
(lp869
(S'she'
p870
g3
F0.9971
tp871
a(S'does'
p872
g6
F0.9997
tp873
a(S'to'
p874
g36
F0.9895
tp875
a(S'me'
p876
g3
F0.9984
tp877
a(S'too'
p878
g31
F0.9969
tp879
a(g13
g14
F0.9964
tp880
asI614
(lp881
(S'move'
p882
g6
F0.9603
tp883
a(S'it'
p884
g3
F0.99
tp885
a(S'in'
p886
g36
F0.8961
tp887
a(S'front'
p888
g28
F0.9379
tp889
a(S'o(f'
p890
g36
F0.6193
tp891
a(g452
g14
F0.9842
tp892
a(S'the'
p893
g39
F0.9981
tp894
a(S'freezer'
p895
g28
F0.9901
tp896
a(g13
g14
F0.9991
tp897
asI104
(lp898
(S'eat'
p899
g6
F0.99
tp900
a(S'your'
p901
g39
F0.9933
tp902
a(S'burger'
p903
g28
F0.9889
tp904
a(S'please'
p905
g6
F0.921
tp906
a(S'xxx'
p907
g18
F0.4099
tp908
a(g13
g14
F0.9527
tp909
asI700
(lp910
(S'looks'
p911
g6
F0.9929
tp912
a(S'the'
p913
g39
F0.9994
tp914
a(S'same'
p915
g82
F0.8764
tp916
a(g13
g14
F0.9986
tp917
asI618
(lp918
(S'okay'
p919
g21
F0.9741
tp920
a(g13
g14
F0.9977
tp921
asI107
(lp922
(S"that's"
p923
g71
F0.9694
tp924
a(S'the'
p925
g39
F0.9971
tp926
a(S'most'
p927
g31
F0.8413
tp928
a(S'important'
p929
g82
F0.9981
tp930
a(g13
g14
F0.9987
tp931
asI530
(lp932
(g228
g228
F0.9893
tp933
a(g230
g14
F0.8588
tp934
a(S'gasp'
p935
g28
F0.5969
tp936
a(g13
g14
F0.9982
tp937
asI110
(lp938
(S'this'
p939
g3
F0.5034
tp940
a(S'my'
p941
g39
F0.9908
tp942
a(S'supper'
p943
g28
F0.9915
tp944
a(S'right'
p945
g31
F0.4128
tp946
a(g59
g14
F0.9988
tp947
asI624
(lp948
(S'see'
p949
g6
F0.7243
tp950
a(g59
g14
F0.9965
tp951
asI872
(lp952
(S'(.)'
p953
g115
F0.3784
tp954
a(S'look'
p955
g6
F0.9516
tp956
a(S'how'
p957
g31
F0.9861
tp958
a(S"I'm"
p959
g71
F0.9935
tp960
a(S'sittin(g'
p961
g6
F0.9445
tp962
a(g452
g14
F0.9895
tp963
a(g13
g14
F0.9958
tp964
asI114
(lp965
(S'mhm'
p966
g21
F0.9761
tp967
a(g13
g14
F0.9962
tp968
asI628
(lp969
(S'goose'
p970
g28
F0.9285
tp971
a(g13
g14
F0.998
tp972
asI117
(lp973
(g131
g11
F0.9816
tp974
a(S'[='
p975
g18
F0.9666
tp976
a(g21
g14
F0.9917
tp977
a(S'squawking'
p978
g6
F0.9659
tp979
a(S'noise'
p980
g28
F0.9848
tp981
a(g142
g14
F0.9922
tp982
a(g13
g14
F0.9959
tp983
asI118
(lp984
(S'(..)'
p985
g18
F0.5158
tp986
a(S'mm'
p987
g21
F0.2429
tp988
a(S"it's"
p989
g71
F0.9968
tp990
a(S'very'
p991
g31
F0.9847
tp992
a(S'very'
p993
g31
F0.9797
tp994
a(S'good'
p995
g82
F0.9993
tp996
a(S'Mot'
p997
g115
F0.4552
tp998
a(S'thank'
p999
g6
F0.9682
tp1000
a(S'you'
p1001
g3
F0.9987
tp1002
a(g13
g14
F0.9994
tp1003
asI631
(lp1004
(S'(.)'
p1005
g115
F0.3156
tp1006
a(S'look'
p1007
g6
F0.8499
tp1008
a(g21
g14
F0.9977
tp1009
asI1144
(lp1010
(S'yeah'
p1011
g21
F0.9986
tp1012
a(g13
g14
F0.997
tp1013
asI634
(lp1014
(S'present'
p1015
g82
F0.5399
tp1016
a(g13
g14
F0.9983
tp1017
asI123
(lp1018
(S"you're"
p1019
g71
F0.9849
tp1020
a(S'very'
p1021
g31
F0.9794
tp1022
a(S'very'
p1023
g31
F0.9091
tp1024
a(S'welcome'
p1025
g82
F0.9791
tp1026
a(g13
g14
F0.9979
tp1027
asI637
(lp1028
(S'mm'
p1029
g21
F0.5842
tp1030
a(g13
g14
F0.9932
tp1031
asI126
(lp1032
(S'am'
p1033
g6
F0.922
tp1034
a(g49
g3
F0.9969
tp1035
a(g123
g39
F0.9351
tp1036
a(S'good'
p1037
g82
F0.9873
tp1038
a(S'cook'
p1039
g28
F0.9789
tp1040
a(g59
g14
F0.9972
tp1041
asI1045
(lp1042
(S'(..)'
p1043
g18
F0.6776
tp1044
a(g488
g489
F0.4768
tp1045
a(S'twenty'
p1046
g11
F0.8615
tp1047
a(S'sec'
p1048
g28
F0.916
tp1049
a(g492
g18
F0.484
tp1050
a(g578
g18
F0.535
tp1051
a(g488
g489
F0.8293
tp1052
a(g142
g14
F0.9284
tp1053
a(g578
g14
F0.9615
tp1054
a(g492
g18
F0.4438
tp1055
a(g142
g14
F0.8081
tp1056
a(S'finish'
p1057
g6
F0.9965
tp1058
a(S'up'
p1059
g68
F0.9717
tp1060
a(g13
g14
F0.9988
tp1061
asI640
(lp1062
(S'roses'
p1063
g28
F0.9737
tp1064
a(g13
g14
F0.9983
tp1065
asI130
(lp1066
(S'mhm'
p1067
g21
F0.9761
tp1068
a(g13
g14
F0.9962
tp1069
asI643
(lp1070
(S'right'
p1071
g21
F0.7385
tp1072
a(S'Mot'
p1073
g115
F0.5374
tp1074
a(g13
g14
F0.989
tp1075
asI133
(lp1076
(S'mhm'
p1077
g21
F0.9761
tp1078
a(g13
g14
F0.9962
tp1079
asI646
(lp1080
(S'(.)'
p1081
g115
F0.5837
tp1082
a(S'is'
p1083
g6
F0.9969
tp1084
a(S'he'
p1085
g3
F0.9987
tp1086
a(g228
g228
F0.9856
tp1087
a(g230
g14
F0.8799
tp1088
a(S'laughs'
p1089
g6
F0.9788
tp1090
a(S'being'
p1091
g6
F0.9832
tp1092
a(S'bad'
p1093
g82
F0.9529
tp1094
a(S'to'
p1095
g36
F0.9991
tp1096
a(S'her'
p1097
g3
F0.7999
tp1098
a(g59
g14
F0.9972
tp1099
asI136
(lp1100
(g49
g3
F0.9976
tp1101
a(S"don't"
p1102
g6
F1.0
tp1103
a(S'have'
p1104
g6
F1.0
tp1105
a(S'any'
p1106
g39
F0.9786
tp1107
a(S'(.)'
p1108
g115
F0.3225
tp1109
a(S'chair'
p1110
g28
F0.8339
tp1111
a(S'xxx'
p1112
g18
F0.4979
tp1113
a(g13
g14
F0.9729
tp1114
asI651
(lp1115
(S'(.)'
p1116
g18
F0.4942
tp1117
a(S'twenty'
p1118
g11
F0.7399
tp1119
a(S'sec'
p1120
g28
F0.8609
tp1121
a(S'fun'
p1122
g28
F0.897
tp1123
a(S'to'
p1124
g36
F0.9987
tp1125
a(S'rock'
p1126
g6
F0.9884
tp1127
a(S'the'
p1128
g39
F0.9992
tp1129
a(S'chair'
p1130
g28
F0.9956
tp1131
a(S"isn't"
p1132
g6
F0.9995
tp1133
a(S'it'
p1134
g3
F0.9902
tp1135
a(g59
g14
F0.999
tp1136
asI140
(lp1137
(S'no'
p1138
g21
F0.8567
tp1139
a(g49
g3
F0.9977
tp1140
a(S'prefer'
p1141
g6
F0.9999
tp1142
a(S'you'
p1143
g3
F0.9987
tp1144
a(S'to'
p1145
g36
F0.9857
tp1146
a(S'come'
p1147
g6
F0.9996
tp1148
a(S'back'
p1149
g31
F0.9164
tp1150
a(S'over'
p1151
g36
F0.7967
tp1152
a(S'here'
p1153
g31
F0.9713
tp1154
a(S'please'
p1155
g6
F0.7814
tp1156
a(g13
g14
F0.9982
tp1157
asI621
(lp1158
(S'right'
p1159
g21
F0.4489
tp1160
a(S'there'
p1161
g31
F0.6956
tp1162
a(g13
g14
F0.9981
tp1163
asI145
(lp1164
(S'then'
p1165
g31
F0.9859
tp1166
a(S"I'll"
p1167
g71
F0.9909
tp1168
a(S'stand'
p1169
g6
F0.9595
tp1170
a(S'and'
p1171
g228
F0.9939
tp1172
a(S'eat'
p1173
g6
F0.9694
tp1174
a(g13
g14
F0.9977
tp1175
asI658
(lp1176
(S'(.)'
p1177
g18
F0.3809
tp1178
a(S'why'
p1179
g31
F0.9352
tp1180
a(S"don't"
p1181
g6
F0.9999
tp1182
a(S'you'
p1183
g3
F0.999
tp1184
a(S'have'
p1185
g6
F0.9998
tp1186
a(g123
g39
F0.9953
tp1187
a(S'rocking'
p1188
g82
F0.5834
tp1189
a(S'chair'
p1190
g28
F0.9979
tp1191
a(g59
g14
F0.9988
tp1192
asI963
(lp1193
(S'do'
p1194
g6
F0.9985
tp1195
a(S'you'
p1196
g3
F0.9989
tp1197
a(S'like'
p1198
g6
F0.8017
tp1199
a(S'pudding'
p1200
g28
F0.993
tp1201
a(g59
g14
F0.9981
tp1202
asI148
(lp1203
(S'okay'
p1204
g21
F0.9741
tp1205
a(g13
g14
F0.9977
tp1206
asI1134
(lp1207
(S'(..)'
p1208
g14
F0.4515
tp1209
a(S'you'
p1210
g3
F0.9961
tp1211
a(S'almost'
p1212
g31
F0.9905
tp1213
a(S'done'
p1214
g6
F0.9243
tp1215
a(g13
g14
F0.999
tp1216
asI151
(lp1217
(S'they'
p1218
g3
F0.9885
tp1219
a(S'wanna'
p1220
g6
F0.9983
tp1221
a(S'hear'
p1222
g6
F0.9978
tp1223
a(S'you'
p1224
g3
F0.9982
tp1225
a(S'talk'
p1226
g6
F0.9895
tp1227
a(g13
g14
F0.9975
tp1228
asI664
(lp1229
(g49
g3
F0.9981
tp1230
a(S'do'
p1231
g6
F0.9999
tp1232
a(S"it's"
p1233
g71
F0.9957
tp1234
a(S'in'
p1235
g36
F0.9947
tp1236
a(S'my'
p1237
g39
F0.9975
tp1238
a(S'bed+room'
p1239
g28
F0.9974
tp1240
a(g13
g14
F0.9989
tp1241
asI154
(lp1242
(S'what'
p1243
g3
F0.9506
tp1244
a(g13
g14
F0.9954
tp1245
asI668
(lp1246
(S'(.)'
p1247
g18
F0.3254
tp1248
a(S'oh'
p1249
g21
F0.9674
tp1250
a(S'you'
p1251
g3
F0.9974
tp1252
a(S'do'
p1253
g6
F0.9996
tp1254
a(S'have'
p1255
g6
F0.9743
tp1256
a(S'one'
p1257
g11
F0.9184
tp1258
a(g13
g14
F0.9974
tp1259
asI157
(lp1260
(S'Michael'
p1261
g115
F0.9972
tp1262
a(g59
g14
F0.9951
tp1263
asI672
(lp1264
(S'so'
p1265
g31
F0.5831
tp1266
a(S'do'
p1267
g6
F0.9871
tp1268
a(g49
g3
F0.9984
tp1269
a(g21
g14
F0.9973
tp1270
asI161
(lp1271
(S'mhm'
p1272
g21
F0.9761
tp1273
a(g13
g14
F0.9962
tp1274
asI675
(lp1275
(S'mhm'
p1276
g21
F0.9761
tp1277
a(g13
g14
F0.9962
tp1278
asI164
(lp1279
(S'(.)'
p1280
g115
F0.476
tp1281
a(S'and'
p1282
g228
F0.9983
tp1283
a(S'Debra'
p1284
g115
F0.9987
tp1285
a(g13
g14
F0.9957
tp1286
asI678
(lp1287
(S"doesn't"
p1288
g6
F0.9989
tp1289
a(S'ours'
p1290
g3
F0.9909
tp1291
a(S'look'
p1292
g6
F0.9945
tp1293
a(S'the'
p1294
g39
F0.9995
tp1295
a(S'same'
p1296
g82
F0.969
tp1297
a(g59
g14
F0.9969
tp1298
asI167
(lp1299
(S'are'
p1300
g6
F0.9904
tp1301
a(S'they'
p1302
g3
F0.9959
tp1303
a(S'on'
p1304
g36
F0.9733
tp1305
a(S'the'
p1306
g39
F0.9994
tp1307
a(S'tape'
p1308
g28
F0.9973
tp1309
a(g59
g14
F0.9979
tp1310
asI540
(lp1311
(S'xxx'
p1312
g18
F0.6842
tp1313
a(S'sittin(g'
p1314
g6
F0.8885
tp1315
a(g452
g14
F0.9956
tp1316
a(S'here'
p1317
g31
F0.9241
tp1318
a(S'('
p1319
g14
F0.9938
tp1320
a(S'be)cause'
p1321
g36
F0.9964
tp1322
a(g49
g3
F0.9984
tp1323
a(S"wasn't"
p1324
g6
F0.9965
tp1325
a(S'comfortable'
p1326
g82
F0.9929
tp1327
a(g13
g14
F0.9985
tp1328
asI682
(lp1329
(S'mhm'
p1330
g21
F0.9761
tp1331
a(g13
g14
F0.9962
tp1332
asI171
(lp1333
(S'(..)'
p1334
g18
F0.3906
tp1335
a(S'sec'
p1336
g28
F0.8823
tp1337
a(g578
g14
F0.9855
tp1338
a(g488
g489
F0.9566
tp1339
a(g142
g14
F0.9284
tp1340
a(g578
g14
F0.9615
tp1341
a(g492
g18
F0.4438
tp1342
a(g142
g14
F0.7945
tp1343
a(S"it's"
p1344
g71
F0.9946
tp1345
a(g123
g39
F0.9521
tp1346
a(S'xxx'
p1347
g28
F0.7507
tp1348
a(g13
g14
F0.9971
tp1349
asI685
(lp1350
(S'(.)'
p1351
g115
F0.5837
tp1352
a(S'is'
p1353
g6
F0.9995
tp1354
a(S'it'
p1355
g3
F0.9974
tp1356
a(g59
g14
F0.999
tp1357
asI174
(lp1358
(S'please'
p1359
g6
F0.9626
tp1360
a(S'come'
p1361
g6
F0.9964
tp1362
a(S'sit'
p1363
g6
F0.9581
tp1364
a(g13
g14
F0.9982
tp1365
asI177
(lp1366
(S'(..)'
p1367
g18
F0.4292
tp1368
a(g49
g3
F0.9922
tp1369
a(S'love'
p1370
g6
F0.9993
tp1371
a(S'you'
p1372
g3
F0.9989
tp1373
a(g13
g14
F0.9995
tp1374
asI1131
(lp1375
(g49
g3
F0.994
tp1376
a(S'like'
p1377
g6
F0.9029
tp1378
a(S'your'
p1379
g39
F0.9826
tp1380
a(S'tights'
p1381
g28
F0.9534
tp1382
a(S'Skipper'
p1383
g28
F0.9083
tp1384
a(g13
g14
F0.9987
tp1385
asI180
(lp1386
(g228
g228
F0.9912
tp1387
a(S'aw'
p1388
g21
F0.9855
tp1389
a(g13
g14
F0.9968
tp1390
asI181
(lp1391
(S"you're"
p1392
g71
F0.9913
tp1393
a(S'cute'
p1394
g82
F0.9977
tp1395
a(g578
g14
F0.9756
tp1396
a(g492
g18
F0.5453
tp1397
a(g142
g14
F0.7789
tp1398
a(g13
g14
F0.995
tp1399
asI695
(lp1400
(g488
g489
F0.9299
tp1401
a(S"mine's>"
p1402
g28
F0.692
tp1403
a(g578
g14
F0.9802
tp1404
a(g488
g489
F0.9566
tp1405
a(g142
g14
F0.9894
tp1406
a(S'just'
p1407
g31
F0.9997
tp1408
a(S'bigger'
p1409
g82
F0.9894
tp1410
a(S'than'
p1411
g36
F0.9984
tp1412
a(S'yours'
p1413
g3
F0.9861
tp1414
a(S"that's"
p1415
g71
F0.9585
tp1416
a(S'all'
p1417
g39
F0.413
tp1418
a(g13
g14
F0.9943
tp1419
asI184
(lp1420
(g488
g489
F0.9288
tp1421
a(g131
g11
F0.9882
tp1422
a(S'[='
p1423
g18
F0.9603
tp1424
a(g21
g14
F0.9914
tp1425
a(S'coughs'
p1426
g6
F0.7242
tp1427
a(S'and'
p1428
g228
F0.9961
tp1429
a(S'chokes]'
p1430
g6
F0.4471
tp1431
a(g492
g18
F0.5243
tp1432
a(g578
g18
F0.535
tp1433
a(g488
g489
F0.768
tp1434
a(g142
g14
F0.985
tp1435
a(g13
g14
F0.9936
tp1436
asI185
(lp1437
(S"I'm"
p1438
g71
F0.9936
tp1439
a(S'okay'
p1440
g82
F0.82
tp1441
a(g13
g14
F0.9978
tp1442
asI188
(lp1443
(S'Chi'
p1444
g115
F0.9245
tp1445
a(S'remember'
p1446
g6
F0.9985
tp1447
a(S'you'
p1448
g3
F0.9992
tp1449
a(S"can't"
p1450
g6
F0.9998
tp1451
a(S'breathe'
p1452
g6
F0.9418
tp1453
a(S'while'
p1454
g36
F0.9751
tp1455
a(S'you'
p1456
g3
F0.9975
tp1457
a(S'drink'
p1458
g6
F0.9327
tp1459
a(g13
g14
F0.9978
tp1460
asI970
(lp1461
(S'(.)'
p1462
g18
F0.3392
tp1463
a(g49
g3
F0.9905
tp1464
a(S'like'
p1465
g6
F0.901
tp1466
a(S'chocolate'
p1467
g28
F0.9903
tp1468
a(g13
g14
F0.9987
tp1469
asI703
(lp1470
(S'mhm'
p1471
g21
F0.9761
tp1472
a(g13
g14
F0.9962
tp1473
asI193
(lp1474
(g49
g3
F0.9984
tp1475
a(S'know'
p1476
g6
F0.9986
tp1477
a(g228
g228
F0.9844
tp1478
a(g230
g14
F0.8914
tp1479
a(S'coughs'
p1480
g28
F0.5494
tp1481
a(g13
g14
F0.9975
tp1482
asI706
(lp1483
(S'(..)'
p1484
g18
F0.3502
tp1485
a(S'do'
p1486
g6
F0.9992
tp1487
a(S'you'
p1488
g3
F0.9997
tp1489
a(S'know'
p1490
g6
F0.998
tp1491
a(S'who'
p1492
g3
F0.9901
tp1493
a(g49
g3
F0.9976
tp1494
a(S'love'
p1495
g6
F0.9914
tp1496
a(S'(.)'
p1497
g18
F0.3029
tp1498
a(S'from'
p1499
g36
F0.9993
tp1500
a(S'you'
p1501
g3
F0.999
tp1502
a(S'too'
p1503
g31
F0.9929
tp1504
a(g59
g14
F0.9955
tp1505
asI715
(lp1506
(S'(.)'
p1507
g115
F0.4332
tp1508
a(S'do'
p1509
g6
F0.9988
tp1510
a(S'you'
p1511
g3
F0.999
tp1512
a(S'like'
p1513
g6
F0.7336
tp1514
a(S'her'
p1515
g3
F0.9268
tp1516
a(g59
g14
F0.9966
tp1517
asI196
(lp1518
(S'(..)'
p1519
g18
F0.3502
tp1520
a(S'do'
p1521
g6
F0.9992
tp1522
a(S'you'
p1523
g3
F0.9997
tp1524
a(S'know'
p1525
g6
F0.9985
tp1526
a(S"who's"
p1527
g71
F0.9914
tp1528
a(S'silly'
p1529
g82
F0.9961
tp1530
a(g59
g14
F0.9974
tp1531
asI200
(lp1532
(S'unhunh'
p1533
g21
F0.3092
tp1534
a(g13
g14
F0.9969
tp1535
asI203
(lp1536
(S'Michael'
p1537
g115
F0.9965
tp1538
a(g13
g14
F0.9946
tp1539
asI1058
(lp1540
(S'just'
p1541
g31
F0.9997
tp1542
a(S'like'
p1543
g36
F0.6744
tp1544
a(S'+/'
p1545
g28
F0.3588
tp1546
a(g13
g14
F0.9981
tp1547
asI206
(lp1548
(S"who's"
p1549
g71
F0.9383
tp1550
a(S'Michael'
p1551
g115
F0.9974
tp1552
a(g59
g14
F0.9952
tp1553
asI719
(lp1554
(S'(.)'
p1555
g18
F0.3195
tp1556
a(S'nope'
p1557
g21
F0.9572
tp1558
a(S'(.)'
p1559
g18
F0.3131
tp1560
a(S'she'
p1561
g3
F0.9955
tp1562
a(S'stole'
p1563
g6
F0.9964
tp1564
a(S'your'
p1565
g39
F0.9059
tp1566
a(S'love'
p1567
g28
F0.9944
tp1568
a(S'from'
p1569
g36
F0.9997
tp1570
a(S'me'
p1571
g3
F0.9978
tp1572
a(g13
g14
F0.9983
tp1573
asI1048
(lp1574
(S'(.)'
p1575
g115
F0.2691
tp1576
a(S'first'
p1577
g82
F0.9117
tp1578
a(S'xxx'
p1579
g28
F0.7681
tp1580
a(g13
g14
F0.9983
tp1581
asI210
(lp1582
(S'you'
p1583
g3
F0.9983
tp1584
a(S'know'
p1585
g6
F0.9999
tp1586
a(S'him'
p1587
g3
F0.9914
tp1588
a(g13
g14
F0.9985
tp1589
asI724
(lp1590
(S'(..)'
p1591
g18
F0.3502
tp1592
a(S'do'
p1593
g6
F0.9992
tp1594
a(S'you'
p1595
g3
F0.9993
tp1596
a(S'love'
p1597
g6
F0.9991
tp1598
a(S'me'
p1599
g3
F0.9987
tp1600
a(S'Mot'
p1601
g115
F0.4945
tp1602
a(g59
g14
F0.9922
tp1603
asI214
(lp1604
(S'from'
p1605
g36
F0.9975
tp1606
a(S'Harvard'
p1607
g115
F0.9995
tp1608
a(S'University'
p1609
g115
F0.6757
tp1610
a(g13
g14
F0.995
tp1611
asI728
(lp1612
(S'uhhuh'
p1613
g21
F0.9881
tp1614
a(g13
g14
F0.997
tp1615
asI217
(lp1616
(S'yep'
p1617
g21
F0.9972
tp1618
a(g13
g14
F0.9971
tp1619
asI731
(lp1620
(S'(.)'
p1621
g18
F0.3392
tp1622
a(g49
g3
F0.9937
tp1623
a(S'love'
p1624
g6
F0.9995
tp1625
a(S'you'
p1626
g3
F0.9972
tp1627
a(g123
g39
F0.9962
tp1628
a(S'bushel'
p1629
g28
F0.9943
tp1630
a(S'and'
p1631
g228
F0.9991
tp1632
a(g123
g39
F0.9341
tp1633
a(S'peck'
p1634
g28
F0.8967
tp1635
a(g13
g14
F0.9987
tp1636
asI221
(lp1637
(S"why's"
p1638
g71
F0.8284
tp1639
a(S'he'
p1640
g3
F0.9464
tp1641
a(S'silly'
p1642
g82
F0.9822
tp1643
a(g59
g14
F0.9972
tp1644
asI225
(lp1645
(g1319
g14
F0.9736
tp1646
a(S'be)cause'
p1647
g36
F0.9986
tp1648
a(S'he'
p1649
g3
F0.9996
tp1650
a(S'is'
p1651
g6
F0.9996
tp1652
a(g228
g228
F0.9869
tp1653
a(g230
g14
F0.8672
tp1654
a(S'laughs'
p1655
g6
F0.8873
tp1656
a(g13
g14
F0.9982
tp1657
asI1147
(lp1658
(S'okiedokie'
p1659
g21
F0.914
tp1660
a(S'@wp'
p1661
S'@'
p1662
F0.9944
tp1663
a(g13
g14
F0.9949
tp1664
asI228
(lp1665
(S'mm'
p1666
g21
F0.5842
tp1667
a(g13
g14
F0.9932
tp1668
asI231
(lp1669
(S"that's"
p1670
g71
F0.995
tp1671
a(S'how'
p1672
g31
F0.9852
tp1673
a(S'he'
p1674
g3
F0.9988
tp1675
a(S'looks'
p1676
g6
F0.9961
tp1677
a(g13
g14
F0.998
tp1678
asI236
(lp1679
(S'(..)'
p1680
g18
F0.3571
tp1681
a(S'did'
p1682
g6
F0.9972
tp1683
a(S'they'
p1684
g3
F0.9868
tp1685
a(S'give'
p1686
g6
F0.9999
tp1687
a(S'me'
p1688
g3
F0.9962
tp1689
a(g123
g39
F0.9922
tp1690
a(S'book'
p1691
g28
F0.9725
tp1692
a(S'Mot'
p1693
g28
F0.3681
tp1694
a(g59
g14
F0.9964
tp1695
asI751
(lp1696
(S'you'
p1697
g3
F0.998
tp1698
a(S'got'
p1699
g6
F0.9998
tp1700
a(S'it'
p1701
g3
F0.9845
tp1702
a(g21
g14
F0.9992
tp1703
asI241
(lp1704
(S'they'
p1705
g3
F0.9925
tp1706
a(S'gave'
p1707
g6
F0.9999
tp1708
a(g123
g39
F0.9973
tp1709
a(S'book'
p1710
g28
F0.9881
tp1711
a(S'for'
p1712
g36
F0.9998
tp1713
a(S'me'
p1714
g3
F0.9987
tp1715
a(S'to'
p1716
g36
F0.9793
tp1717
a(S'read'
p1718
g6
F0.9987
tp1719
a(S'to'
p1720
g36
F0.9932
tp1721
a(S'you'
p1722
g3
F0.998
tp1723
a(g13
g14
F0.9996
tp1724
asI754
(lp1725
(S'(..)'
p1726
g18
F0.4813
tp1727
a(S'he'
p1728
g3
F0.9917
tp1729
a(S'being'
p1730
g6
F0.9978
tp1731
a(S'bad'
p1732
g82
F0.9602
tp1733
a(S'to'
p1734
g36
F0.9993
tp1735
a(S'her'
p1736
g3
F0.7505
tp1737
a(S'xxx'
p1738
g18
F0.4324
tp1739
a(g59
g14
F0.9787
tp1740
asI1038
(lp1741
(g131
g11
F0.9816
tp1742
a(S'[='
p1743
g18
F0.9666
tp1744
a(g21
g14
F0.9795
tp1745
a(S'mimics'
p1746
g6
F0.962
tp1747
a(S"Chi's"
p1748
S'Z'
p1749
F0.7797
tp1750
a(S'giggle'
p1751
g6
F0.4874
tp1752
a(g142
g14
F0.9907
tp1753
a(g13
g14
F0.9962
tp1754
asI1150
(lp1755
(g488
g489
F0.97
tp1756
a(S'xxx'
p1757
g18
F0.4351
tp1758
a(S'Skipper'
p1759
g28
F0.5585
tp1760
a(g492
g18
F0.3905
tp1761
a(g578
g18
F0.5345
tp1762
a(g492
g18
F0.9749
tp1763
a(g142
g14
F0.5753
tp1764
a(g59
g14
F0.996
tp1765
asI246
(lp1766
(S'now'
p1767
g31
F0.99
tp1768
a(S'where'
p1769
g31
F0.9459
tp1770
a(S'is'
p1771
g6
F0.9994
tp1772
a(S'it'
p1773
g3
F0.9964
tp1774
a(g59
g14
F0.999
tp1775
asI759
(lp1776
(g49
g3
F0.9982
tp1777
a(S'think'
p1778
g6
F0.9996
tp1779
a(S'so'
p1780
g31
F0.926
tp1781
a(g13
g14
F0.9966
tp1782
asI1031
(lp1783
(S"that's"
p1784
g71
F0.9927
tp1785
a(S'bein(g'
p1786
g6
F0.7805
tp1787
a(g452
g14
F0.9913
tp1788
a(g123
g39
F0.9929
tp1789
a(S'pig'
p1790
g28
F0.9948
tp1791
a(g13
g14
F0.9979
tp1792
asI250
(lp1793
(S'(..)'
p1794
g18
F0.5556
tp1795
a(S'what'
p1796
g3
F0.9933
tp1797
a(S'do'
p1798
g6
F0.9993
tp1799
a(S'you'
p1800
g3
F0.9996
tp1801
a(S'think'
p1802
g6
F0.9983
tp1803
a(g59
g14
F0.9966
tp1804
asI254
(lp1805
(S'they'
p1806
g3
F0.9925
tp1807
a(S'took'
p1808
g6
F0.9999
tp1809
a(S'it'
p1810
g3
F0.9735
tp1811
a(g59
g14
F0.999
tp1812
asI767
(lp1813
(S'yep'
p1814
g21
F0.9989
tp1815
a(g21
g14
F0.997
tp1816
asI258
(lp1817
(S'mhm'
p1818
g21
F0.9761
tp1819
a(g13
g14
F0.9962
tp1820
asI773
(lp1821
(S'(..)'
p1822
g18
F0.4285
tp1823
a(S"he's"
p1824
g71
F0.9926
tp1825
a(S'in'
p1826
g36
F0.9628
tp1827
a(S'trouble'
p1828
g28
F0.9912
tp1829
a(g21
g14
F0.9991
tp1830
asI262
(lp1831
(S"I'm"
p1832
g71
F0.9962
tp1833
a(S'angry'
p1834
g82
F0.9925
tp1835
a(g13
g14
F0.998
tp1836
asI265
(lp1837
(S'why'
p1838
g31
F0.9408
tp1839
a(g59
g14
F0.9946
tp1840
asI780
(lp1841
(S'please'
p1842
g6
F0.8368
tp1843
a(g13
g14
F0.9977
tp1844
asI269
(lp1845
(g1319
g14
F0.9723
tp1846
a(S'be)cause'
p1847
g36
F0.9425
tp1848
a(g13
g14
F0.996
tp1849
asI783
(lp1850
(S'&-uh'
p1851
g21
F0.9321
tp1852
a(S'oh'
p1853
g21
F0.9986
tp1854
a(g13
g14
F0.9953
tp1855
asI272
(lp1856
(S'they'
p1857
g3
F0.9925
tp1858
a(S'gave'
p1859
g6
F0.9999
tp1860
a(S'you'
p1861
g3
F0.9951
tp1862
a(g123
g39
F0.9976
tp1863
a(S'gift'
p1864
g28
F0.9976
tp1865
a(g13
g14
F0.9983
tp1866
asI1083
(lp1867
(g228
g228
F0.9893
tp1868
a(g230
g14
F0.8588
tp1869
a(S'giggles'
p1870
g28
F0.5863
tp1871
a(g13
g14
F0.9982
tp1872
asI786
(lp1873
(S"it's"
p1874
g71
F0.9932
tp1875
a(S'good'
p1876
g82
F0.9958
tp1877
a(g49
g3
F0.9862
tp1878
a(S'like'
p1879
g6
F0.8291
tp1880
a(S'this'
p1881
g39
F0.7425
tp1882
a(S'sausage'
p1883
g28
F0.9981
tp1884
a(g13
g14
F0.9985
tp1885
asI276
(lp1886
(S'what'
p1887
g3
F0.9171
tp1888
a(g59
g14
F0.9924
tp1889
asI790
(lp1890
(S'it'
p1891
g3
F0.9979
tp1892
a(S'is'
p1893
g6
F0.9984
tp1894
a(S'sausage'
p1895
g28
F0.9941
tp1896
a(g13
g14
F0.9986
tp1897
asI280
(lp1898
(S'bubbles'
p1899
g28
F0.9715
tp1900
a(g21
g14
F0.9988
tp1901
asI793
(lp1902
(S"that's"
p1903
g71
F0.9924
tp1904
a(S'why'
p1905
g31
F0.9525
tp1906
a(S'it'
p1907
g3
F0.9942
tp1908
a(S'tastes'
p1909
g6
F0.991
tp1910
a(g488
g489
F0.7087
tp1911
a(S'like'
p1912
g36
F0.7129
tp1913
a(S'it'
p1914
g3
F0.999
tp1915
a(g492
g18
F0.4648
tp1916
a(g578
g18
F0.5345
tp1917
a(g492
g18
F0.949
tp1918
a(g142
g14
F0.7992
tp1919
a(g13
g14
F0.9936
tp1920
asI283
(lp1921
(S'yes'
p1922
g21
F0.9893
tp1923
a(g49
g3
F0.9991
tp1924
a(S'know'
p1925
g6
F0.9999
tp1926
a(S'that'
p1927
g39
F0.4759
tp1928
a(S'one'
p1929
g11
F0.6134
tp1930
a(g21
g14
F0.9974
tp1931
asI286
(lp1932
(S'well'
p1933
g21
F0.906
tp1934
a(S'they'
p1935
g3
F0.998
tp1936
a(S"didn't"
p1937
g6
F0.9999
tp1938
a(S'have_to'
p1939
g6
F0.9987
tp1940
a(g13
g14
F0.9977
tp1941
asI1157
(lp1942
(S'stop'
p1943
g6
F0.6016
tp1944
a(g13
g14
F0.997
tp1945
asI289
(lp1946
(S'what'
p1947
g3
F0.9506
tp1948
a(g13
g14
F0.9954
tp1949
asI802
(lp1950
(S'it'
p1951
g3
F0.9788
tp1952
a(S'tastes'
p1953
g6
F0.9983
tp1954
a(S'like'
p1955
g36
F0.9511
tp1956
a(S'sausage'
p1957
g28
F0.99
tp1958
a(S'and'
p1959
g228
F0.9968
tp1960
a(S"that's"
p1961
g71
F0.9981
tp1962
a(S'what'
p1963
g3
F0.9872
tp1964
a(S'it'
p1965
g3
F0.9992
tp1966
a(S'is'
p1967
g6
F0.9995
tp1968
a(g13
g14
F0.9978
tp1969
asI292
(lp1970
(S'give'
p1971
g6
F0.9982
tp1972
a(S'you'
p1973
g3
F0.9474
tp1974
a(S'bubbles'
p1975
g28
F0.8294
tp1976
a(g13
g14
F0.9987
tp1977
asI296
(lp1978
(S'(..)'
p1979
g14
F0.4411
tp1980
a(S'then'
p1981
g31
F0.9527
tp1982
a(S'why'
p1983
g31
F0.93
tp1984
a(S'did'
p1985
g6
F0.9912
tp1986
a(S'they'
p1987
g3
F0.9871
tp1988
a(g59
g14
F0.9957
tp1989
asI811
(lp1990
(S'your'
p1991
g39
F0.9795
tp1992
a(S'brain'
p1993
g28
F0.9984
tp1994
a(S'tastes'
p1995
g6
F0.9727
tp1996
a(S'like'
p1997
g36
F0.9661
tp1998
a(S'sausage'
p1999
g28
F0.9958
tp2000
a(g13
g14
F0.9982
tp2001
asI300
(lp2002
(S'because'
p2003
g36
F0.9978
tp2004
a(S'you'
p2005
g3
F0.9996
tp2006
a(S'were'
p2007
g6
F0.9964
tp2008
a(S'good'
p2009
g82
F0.9989
tp2010
a(S'(.)'
p2011
g115
F0.3227
tp2012
a(S'for'
p2013
g36
F0.9991
tp2014
a(g123
g39
F0.9966
tp2015
a(S'change'
p2016
g28
F0.997
tp2017
a(g13
g14
F0.9985
tp2018
asI818
(lp2019
(S'yep'
p2020
g21
F0.9972
tp2021
a(g13
g14
F0.9971
tp2022
asI814
(lp2023
(S'does'
p2024
g6
F0.9995
tp2025
a(S'it'
p2026
g3
F0.9962
tp2027
a(S'look'
p2028
g6
F0.9958
tp2029
a(S'like'
p2030
g36
F0.9235
tp2031
a(S'sausage'
p2032
g28
F0.9936
tp2033
a(g59
g14
F0.9971
tp2034
asI743
(lp2035
(g123
g39
F0.9928
tp2036
a(S'bushel'
p2037
g28
F0.9934
tp2038
a(S'and'
p2039
g228
F0.9991
tp2040
a(g123
g39
F0.946
tp2041
a(S'peck'
p2042
g28
F0.6398
tp2043
a(S'and'
p2044
g228
F0.9991
tp2045
a(g123
g39
F0.9487
tp2046
a(S'+'
p2047
g424
F0.5162
tp2048
a(S'...'
p2049
g489
F0.6681
tp2050
asI306
(lp2051
(S'(..)'
p2052
g18
F0.569
tp2053
a(S'why'
p2054
g31
F0.9464
tp2055
a(S"couldn't"
p2056
g6
F0.9995
tp2057
a(S'they'
p2058
g3
F0.9805
tp2059
a(S'stay'
p2060
g6
F0.9986
tp2061
a(S'over'
p2062
g68
F0.3338
tp2063
a(g59
g14
F0.9974
tp2064
asI692
(lp2065
(S'yeah'
p2066
g21
F0.9951
tp2067
a(g578
g14
F0.9838
tp2068
a(g492
g18
F0.3811
tp2069
a(g142
g14
F0.7604
tp2070
a(g13
g14
F0.9962
tp2071
asI821
(lp2072
(S'gee'
p2073
g21
F0.979
tp2074
a(S'thanks'
p2075
g28
F0.6712
tp2076
a(g21
g14
F0.9975
tp2077
asI310
(lp2078
(S'because'
p2079
g36
F0.998
tp2080
a(S'they'
p2081
g3
F0.9836
tp2082
a(S"weren't"
p2083
g6
F0.9903
tp2084
a(g228
g228
F0.9888
tp2085
a(g230
g14
F0.8799
tp2086
a(S'laughs'
p2087
g6
F0.9794
tp2088
a(S'supposed'
p2089
g82
F0.8872
tp2090
a(S'to'
p2091
g36
F0.9985
tp2092
a(S'stay'
p2093
g6
F0.997
tp2094
a(S'over'
p2095
g36
F0.32
tp2096
a(g13
g14
F0.9976
tp2097
asI824
(lp2098
(g49
g3
F0.9974
tp2099
a(S'see'
p2100
g6
F0.9976
tp2101
a(S'sausage'
p2102
g28
F0.9962
tp2103
a(g13
g14
F0.9986
tp2104
asI315
(lp2105
(g1319
g14
F0.9736
tp2106
a(S'be)cause'
p2107
g36
F0.9923
tp2108
a(S"it's"
p2109
g71
F0.9976
tp2110
a(S'not'
p2111
g31
F0.9918
tp2112
a(S'their'
p2113
g39
F0.9704
tp2114
a(S'house'
p2115
g28
F0.9949
tp2116
a(g59
g14
F0.9987
tp2117
asI830
(lp2118
(S'(..)'
p2119
g18
F0.3703
tp2120
a(S'come'
p2121
g6
F0.9938
tp2122
a(S'on'
p2123
g36
F0.7025
tp2124
a(S'honey'
p2125
g28
F0.8947
tp2126
a(S"you've"
p2127
g71
F0.9693
tp2128
a(S'been'
p2129
g6
F0.9884
tp2130
a(S'(.)'
p2131
g6
F0.2331
tp2132
a(S'goofin(g'
p2133
g6
F0.5296
tp2134
a(g452
g14
F0.9956
tp2135
a(S'around'
p2136
g31
F0.4812
tp2137
a(S'with'
p2138
g36
F0.9989
tp2139
a(S'that'
p2140
g3
F0.8495
tp2141
a(S'for'
p2142
g36
F0.996
tp2143
a(S'fifteen'
p2144
g11
F0.7714
tp2145
a(S'minutes'
p2146
g28
F0.9967
tp2147
a(g13
g14
F0.999
tp2148
asI319
(lp2149
(S'they'
p2150
g3
F0.9927
tp2151
a(S'want'
p2152
g6
F0.9998
tp2153
a(S'to'
p2154
g36
F0.9738
tp2155
a(S'go'
p2156
g6
F0.9982
tp2157
a(S'home'
p2158
g28
F0.7246
tp2159
a(g13
g14
F0.9985
tp2160
asI322
(lp2161
(S'(.)'
p2162
g18
F0.2508
tp2163
a(S'not'
p2164
g31
F0.9935
tp2165
a(S'only'
p2166
g31
F0.9389
tp2167
a(S'that'
p2168
g36
F0.8509
tp2169
a(g49
g3
F0.9993
tp2170
a(S"didn't"
p2171
g6
F1.0
tp2172
a(S'ask'
p2173
g6
F0.9999
tp2174
a(S'them'
p2175
g3
F0.9783
tp2176
a(S'to'
p2177
g36
F0.988
tp2178
a(S'sleep'
p2179
g6
F0.9908
tp2180
a(S'over'
p2181
g36
F0.4906
tp2182
a(g13
g14
F0.996
tp2183
asI907
(lp2184
(S'mhm'
p2185
g21
F0.9761
tp2186
a(g13
g14
F0.9962
tp2187
asI837
(lp2188
(S'(.)'
p2189
g18
F0.3392
tp2190
a(g49
g3
F0.9972
tp2191
a(S'know'
p2192
g6
F0.9995
tp2193
a(S'what'
p2194
g3
F0.9929
tp2195
a(g13
g14
F0.9965
tp2196
asI327
(lp2197
(g49
g3
F0.9978
tp2198
a(S"didn't"
p2199
g6
F1.0
tp2200
a(S'want'
p2201
g6
F1.0
tp2202
a(S'them'
p2203
g3
F0.9771
tp2204
a(S'to'
p2205
g36
F0.988
tp2206
a(S'sleep'
p2207
g6
F0.9806
tp2208
a(S'over'
p2209
g36
F0.548
tp2210
a(g21
g14
F0.9968
tp2211
asI840
(lp2212
(S'if'
p2213
g36
F0.9977
tp2214
a(S'you'
p2215
g3
F0.9997
tp2216
a(S"don't"
p2217
g6
F1.0
tp2218
a(S'eat'
p2219
g6
F0.9995
tp2220
a(S"you'll"
p2221
g71
F0.9067
tp2222
a(S'go'
p2223
g6
F0.9989
tp2224
a(S'to'
p2225
g36
F0.9838
tp2226
a(S'bed'
p2227
g28
F0.516
tp2228
a(S'with'
p2229
g36
F0.999
tp2230
a(S'nothing'
p2231
g28
F0.9948
tp2232
a(S'and'
p2233
g228
F0.9977
tp2234
a(S"you'll"
p2235
g71
F0.9888
tp2236
a(S'be'
p2237
g6
F0.9995
tp2238
a(S'hungry'
p2239
g82
F0.9157
tp2240
a(S'without'
p2241
g36
F0.9984
tp2242
a(S'that'
p2243
g3
F0.967
tp2244
a(g13
g14
F0.9983
tp2245
asI1119
(lp2246
(S'(..)'
p2247
g18
F0.4695
tp2248
a(S'Mot'
p2249
g115
F0.5424
tp2250
a(S"doesn't"
p2251
g6
F0.9974
tp2252
a(S'she'
p2253
g3
F0.9961
tp2254
a(S'look'
p2255
g6
F0.9796
tp2256
a(S'cute'
p2257
g82
F0.9927
tp2258
a(S'that'
p2259
g36
F0.5196
tp2260
a(S'way'
p2261
g28
F0.8586
tp2262
a(g59
g14
F0.9985
tp2263
asI333
(lp2264
(S'well'
p2265
g21
F0.9522
tp2266
a(S'what'
p2267
g3
F0.9986
tp2268
a(S'do'
p2269
g6
F0.9993
tp2270
a(S'you'
p2271
g3
F0.9996
tp2272
a(S'mean'
p2273
g6
F0.9887
tp2274
a(S'by'
p2275
g36
F0.9962
tp2276
a(S'stay'
p2277
g6
F0.9293
tp2278
a(S'over'
p2279
g36
F0.3285
tp2280
a(g59
g14
F0.9976
tp2281
asI967
(lp2282
(S'mhm'
p2283
g21
F0.9761
tp2284
a(g13
g14
F0.9962
tp2285
asI848
(lp2286
(S'mhm'
p2287
g21
F0.9761
tp2288
a(g13
g14
F0.9962
tp2289
asI1034
(lp2290
(S'you'
p2291
g3
F0.9574
tp2292
a(S'little'
p2293
g82
F0.9764
tp2294
a(S'pigletta'
p2295
g28
F0.4193
tp2296
a(S'@wp'
p2297
g1662
F0.9869
tp2298
a(g13
g14
F0.9959
tp2299
asI339
(lp2300
(S'go'
p2301
g6
F0.9637
tp2302
a(S'sit'
p2303
g6
F0.8333
tp2304
a(S'please'
p2305
g6
F0.9432
tp2306
a(g13
g14
F0.9982
tp2307
asI910
(lp2308
(S'(..)'
p2309
g18
F0.6776
tp2310
a(g488
g489
F0.4768
tp2311
a(S'thirty'
p2312
g82
F0.4116
tp2313
a(S'four'
p2314
g11
F0.7293
tp2315
a(S'sec'
p2316
g28
F0.7913
tp2317
a(g492
g18
F0.484
tp2318
a(g578
g18
F0.535
tp2319
a(g488
g489
F0.8293
tp2320
a(g142
g14
F0.9284
tp2321
a(g578
g14
F0.9615
tp2322
a(g492
g18
F0.4438
tp2323
a(g142
g14
F0.7323
tp2324
a(S'okay'
p2325
g21
F0.8355
tp2326
a(g13
g14
F0.9989
tp2327
asI342
(lp2328
(g49
g3
F0.9976
tp2329
a(S"don't"
p2330
g6
F1.0
tp2331
a(S'know'
p2332
g6
F0.9986
tp2333
a(g13
g14
F0.9981
tp2334
asI855
(lp2335
(S'mhm'
p2336
g21
F0.9761
tp2337
a(g13
g14
F0.9962
tp2338
asI875
(lp2339
(S'oh'
p2340
g21
F0.9946
tp2341
a(S'just'
p2342
g31
F0.998
tp2343
a(S'be'
p2344
g6
F0.9959
tp2345
a(S'careful'
p2346
g82
F0.7264
tp2347
a(S'you'
p2348
g3
F0.9963
tp2349
a(S"don't"
p2350
g6
F1.0
tp2351
a(S'fall'
p2352
g6
F0.9711
tp2353
a(S'please'
p2354
g6
F0.9254
tp2355
a(g13
g14
F0.9985
tp2356
asI346
(lp2357
(S'(..)'
p2358
g14
F0.4698
tp2359
a(S'when'
p2360
g31
F0.9538
tp2361
a(S"you're"
p2362
g71
F0.9936
tp2363
a(S'done'
p2364
g6
F0.8889
tp2365
a(S'(.)'
p2366
g14
F0.3411
tp2367
a(S"I'll"
p2368
g71
F0.9826
tp2369
a(S'give'
p2370
g6
F0.9999
tp2371
a(S'you'
p2372
g3
F0.9963
tp2373
a(g123
g39
F0.9957
tp2374
a(S'sugar'
p2375
g28
F0.9978
tp2376
a(S'free'
p2377
g82
F0.89
tp2378
a(S'fudgsicle'
p2379
g28
F0.4801
tp2380
a(S'@d'
p2381
g1662
F0.9944
tp2382
a(g13
g14
F0.9975
tp2383
asI861
(lp2384
(S'am'
p2385
g6
F0.922
tp2386
a(g49
g3
F0.9986
tp2387
a(S'right'
p2388
g31
F0.5557
tp2389
a(S'Mot'
p2390
g115
F0.7008
tp2391
a(g59
g14
F0.9933
tp2392
asI352
(lp2393
(g49
g3
F0.9976
tp2394
a(S"don't"
p2395
g6
F1.0
tp2396
a(S'want'
p2397
g6
F1.0
tp2398
a(S'the'
p2399
g39
F0.9994
tp2400
a(S'kind'
p2401
g28
F0.9092
tp2402
a(S'you'
p2403
g3
F0.997
tp2404
a(S'had'
p2405
g6
F0.9999
tp2406
a(S'out'
p2407
g68
F0.8777
tp2408
a(S'not'
p2409
g31
F0.9958
tp2410
a(S'[//]'
p2411
g14
F0.2921
tp2412
a(S"I'll"
p2413
g71
F0.988
tp2414
a(S'be'
p2415
g6
F0.9993
tp2416
a(S'full'
p2417
g82
F0.9518
tp2418
a(g13
g14
F0.9991
tp2419
asI866
(lp2420
(S'(..)'
p2421
g18
F0.6776
tp2422
a(g488
g489
F0.4768
tp2423
a(S'thirty'
p2424
g82
F0.4116
tp2425
a(S'eight'
p2426
g11
F0.8762
tp2427
a(S'sec'
p2428
g28
F0.9223
tp2429
a(g492
g18
F0.484
tp2430
a(g578
g18
F0.535
tp2431
a(g488
g489
F0.8293
tp2432
a(g142
g14
F0.9284
tp2433
a(g578
g14
F0.9615
tp2434
a(g492
g18
F0.4438
tp2435
a(g142
g14
F0.7518
tp2436
a(S'hm'
p2437
g21
F0.9381
tp2438
a(S':'
p2439
g14
F0.9699
tp2440
a(g13
g14
F0.9899
tp2441
asI827
(lp2442
(S'your'
p2443
g39
F0.9777
tp2444
a(S'belly'
p2445
g28
F0.9989
tp2446
a(g13
g14
F0.9985
tp2447
asI357
(lp2448
(S'okay'
p2449
g21
F0.9741
tp2450
a(g13
g14
F0.9977
tp2451
asI1154
(lp2452
(g488
g489
F0.9347
tp2453
a(S'find'
p2454
g6
F0.9971
tp2455
a(S'out'
p2456
g68
F0.9753
tp2457
a(S'how'
p2458
g31
F0.9944
tp2459
a(S'to'
p2460
g36
F0.996
tp2461
a(S'turn'
p2462
g6
F0.9996
tp2463
a(S'this'
p2464
g3
F0.5891
tp2465
a(g492
g18
F0.4505
tp2466
a(g578
g18
F0.535
tp2467
a(g488
g489
F0.8293
tp2468
a(g142
g14
F0.9912
tp2469
a(S'off'
p2470
g68
F0.3574
tp2471
a(g13
g14
F0.9973
tp2472
asI1137
(lp2473
(g49
g3
F0.9976
tp2474
a(S"don't"
p2475
g6
F1.0
tp2476
a(S'want'
p2477
g6
F0.9997
tp2478
a(S'anymore'
p2479
g31
F0.9876
tp2480
a(S'xxx'
p2481
g18
F0.5561
tp2482
a(g13
g14
F0.9527
tp2483
asI360
(lp2484
(S'(.)'
p2485
g18
F0.3392
tp2486
a(g49
g3
F0.9975
tp2487
a(S'offered'
p2488
g6
F0.9851
tp2489
a(g13
g14
F0.9983
tp2490
asI363
(lp2491
(S"it's"
p2492
g71
F0.9939
tp2493
a(S'okay'
p2494
g82
F0.8446
tp2495
a(S'but'
p2496
g228
F0.9746
tp2497
a(S"I'm"
p2498
g71
F0.9985
tp2499
a(S'not'
p2500
g31
F0.9998
tp2501
a(S'hungry'
p2502
g82
F0.9204
tp2503
a(g13
g14
F0.9981
tp2504
asI1052
(lp2505
(S'(.)'
p2506
g115
F0.4207
tp2507
a(g228
g228
F0.9828
tp2508
a(g230
g14
F0.8311
tp2509
a(S'giggles'
p2510
g6
F0.9919
tp2511
a(S'me'
p2512
g3
F0.9988
tp2513
a(S'be'
p2514
g6
F0.9982
tp2515
a(g123
g39
F0.9654
tp2516
a(S'geek'
p2517
g28
F0.6591
tp2518
a(S'@d'
p2519
g1662
F0.9861
tp2520
a(g13
g14
F0.9955
tp2521
asI880
(lp2522
(S"I'm"
p2523
g71
F0.9953
tp2524
a(S'holding'
p2525
g6
F0.9959
tp2526
a(S'on'
p2527
g36
F0.8515
tp2528
a(S'look'
p2529
g28
F0.7986
tp2530
a(g13
g14
F0.9987
tp2531
asI369
(lp2532
(S'(..)'
p2533
g18
F0.7584
tp2534
a(S'twenty'
p2535
g11
F0.4697
tp2536
a(S'three'
p2537
g11
F0.9542
tp2538
a(S'sec'
p2539
g28
F0.9567
tp2540
a(g578
g14
F0.9885
tp2541
a(g488
g489
F0.9635
tp2542
a(g142
g14
F0.9868
tp2543
a(S'we'
p2544
g3
F0.9912
tp2545
a(S'make'
p2546
g6
F0.9976
tp2547
a(S'good'
p2548
g82
F0.9953
tp2549
a(S'cooks'
p2550
g28
F0.9912
tp2551
a(S'with'
p2552
g36
F0.9997
tp2553
a(S'this'
p2554
g39
F0.9907
tp2555
a(S'stuff'
p2556
g28
F0.9988
tp2557
a(g13
g14
F0.9985
tp2558
asI883
(lp2559
(S'yeah'
p2560
g21
F0.9962
tp2561
a(S'but'
p2562
g228
F0.9825
tp2563
a(S'the'
p2564
g39
F0.9987
tp2565
a(S'chair'
p2566
g28
F0.9957
tp2567
a(S'will'
p2568
g6
F0.9875
tp2569
a(S'tip'
p2570
g6
F0.7884
tp2571
a(S'over'
p2572
g36
F0.5166
tp2573
a(g13
g14
F0.9973
tp2574
asI886
(lp2575
(S"I'm"
p2576
g71
F0.997
tp2577
a(S'going'
p2578
g6
F0.9702
tp2579
a(S'slow'
p2580
g82
F0.959
tp2581
a(g13
g14
F0.9986
tp2582
asI375
(lp2583
(S'(.)'
p2584
g424
F0.3028
tp2585
a(S'you'
p2586
g3
F0.9983
tp2587
a(S'said'
p2588
g6
F0.9997
tp2589
a(S'that'
p2590
g3
F0.6106
tp2591
a(S'xxx'
p2592
g6
F0.6203
tp2593
a(g123
g39
F0.9913
tp2594
a(S'good'
p2595
g82
F0.9885
tp2596
a(S'cook'
p2597
g28
F0.9521
tp2598
a(S'Mot'
p2599
g28
F0.2679
tp2600
a(S'you'
p2601
g3
F0.9801
tp2602
a(S'good'
p2603
g82
F0.9907
tp2604
a(S'cook'
p2605
g28
F0.9875
tp2606
a(g59
g14
F0.9972
tp2607
asI889
(lp2608
(S'(.)'
p2609
g424
F0.1791
tp2610
a(S'now'
p2611
g31
F0.986
tp2612
a(g49
g3
F0.9988
tp2613
a(S'can'
p2614
g6
F0.9998
tp2615
a(S'go'
p2616
g6
F0.9982
tp2617
a(S'fast'
p2618
g31
F0.6435
tp2619
a(g13
g14
F0.9982
tp2620
asI892
(lp2621
(S'honey'
p2622
g28
F0.798
tp2623
a(S'just'
p2624
g31
F0.9987
tp2625
a(S'eat'
p2626
g6
F0.9875
tp2627
a(g13
g14
F0.9983
tp2628
asI381
(lp2629
(S'you'
p2630
g3
F0.997
tp2631
a(S"didn't"
p2632
g6
F1.0
tp2633
a(S'cook'
p2634
g6
F0.9984
tp2635
a(S'this'
p2636
g3
F0.8021
tp2637
a(g21
g14
F0.9989
tp2638
asI895
(lp2639
(S'okay'
p2640
g21
F0.9741
tp2641
a(g13
g14
F0.9977
tp2642
asI384
(lp2643
(S'(.)'
p2644
g115
F0.4215
tp2645
a(S'can'
p2646
g6
F0.9958
tp2647
a(g49
g3
F0.9993
tp2648
a(S'have'
p2649
g6
F0.9999
tp2650
a(g123
g39
F0.9958
tp2651
a(S'hug'
p2652
g28
F0.994
tp2653
a(S'after'
p2654
g36
F0.8796
tp2655
a(g59
g14
F0.9947
tp2656
asI1088
(lp2657
(S'(..)'
p2658
g18
F0.4292
tp2659
a(g49
g3
F0.9949
tp2660
a(S"don't"
p2661
g6
F1.0
tp2662
a(S'like'
p2663
g6
F0.9221
tp2664
a(S'that'
p2665
g3
F0.9611
tp2666
a(g13
g14
F0.9984
tp2667
asI898
(lp2668
(S'thank'
p2669
g6
F0.9631
tp2670
a(S'you'
p2671
g3
F0.9987
tp2672
a(g13
g14
F0.9995
tp2673
asI388
(lp2674
(S'mhm'
p2675
g21
F0.9761
tp2676
a(g13
g14
F0.9962
tp2677
asI901
(lp2678
(S'welcome'
p2679
g21
F0.6877
tp2680
a(g13
g14
F0.9973
tp2681
asI391
(lp2682
(S'when'
p2683
g31
F0.9594
tp2684
a(S"I'm"
p2685
g71
F0.9975
tp2686
a(S'done'
p2687
g6
F0.793
tp2688
a(g59
g14
F0.9988
tp2689
asI904
(lp2690
(S'this'
p2691
g3
F0.9526
tp2692
a(S'is'
p2693
g6
F0.9989
tp2694
a(S'the'
p2695
g39
F0.9984
tp2696
a(S'red'
p2697
g82
F0.7298
tp2698
a(g13
g14
F0.9984
tp2699
asI748
(lp2700
(S'++'
p2701
g424
F0.2117
tp2702
a(S'hug'
p2703
g6
F0.7946
tp2704
a(S'around'
p2705
g36
F0.8661
tp2706
a(S'the'
p2707
g39
F0.9997
tp2708
a(S'neck'
p2709
g28
F0.9989
tp2710
a(g13
g14
F0.9979
tp2711
asI395
(lp2712
(S'mhm'
p2713
g21
F0.9761
tp2714
a(g13
g14
F0.9962
tp2715
asI712
(lp2716
(S'Skipper'
p2717
g28
F0.7838
tp2718
a(g13
g14
F0.9988
tp2719
asI398
(lp2720
(S'(..)'
p2721
g18
F0.4292
tp2722
a(g49
g3
F0.9949
tp2723
a(S"don't"
p2724
g6
F1.0
tp2725
a(S'want'
p2726
g6
F0.9999
tp2727
a(S'to'
p2728
g36
F0.9946
tp2729
a(S'sit'
p2730
g6
F0.9986
tp2731
a(S'there'
p2732
g31
F0.9107
tp2733
a(g13
g14
F0.9981
tp2734
asI913
(lp2735
(S'now'
p2736
g31
F0.9779
tp2737
a(S"I'm"
p2738
g71
F0.9978
tp2739
a(S'not'
p2740
g31
F0.9984
tp2741
a(S'so'
p2742
g31
F0.9771
tp2743
a(S'busy'
p2744
g82
F0.9737
tp2745
a(S'doin(g'
p2746
g28
F0.6813
tp2747
a(g452
g14
F0.9941
tp2748
a(S'that'
p2749
g36
F0.3888
tp2750
a(S'(.)'
p2751
g115
F0.2581
tp2752
a(S'caca'
p2753
g115
F0.5079
tp2754
a(S'stuff'
p2755
g28
F0.9823
tp2756
a(g49
g3
F0.9965
tp2757
a(S'did'
p2758
g6
F0.9993
tp2759
a(g13
g14
F0.9986
tp2760
asI402
(lp2761
(S'no'
p2762
g21
F0.9847
tp2763
a(g21
g14
F0.999
tp2764
asI1091
(lp2765
(S'(..)'
p2766
g18
F0.6061
tp2767
a(S'xxx'
p2768
g18
F0.9363
tp2769
a(S'dark'
p2770
g82
F0.6673
tp2771
a(S'xxx'
p2772
g28
F0.6866
tp2773
a(g13
g14
F0.9984
tp2774
asI405
(lp2775
(S'no'
p2776
g39
F0.8365
tp2777
a(S'way'
p2778
g28
F0.999
tp2779
a(g13
g14
F0.9986
tp2780
asI918
(lp2781
(S'(..)'
p2782
g18
F0.4224
tp2783
a(S'hurry'
p2784
g6
F0.9658
tp2785
a(S'up'
p2786
g68
F0.9881
tp2787
a(g13
g14
F0.9981
tp2788
asI408
(lp2789
(S'then'
p2790
g31
F0.9758
tp2791
a(g49
g3
F0.9987
tp2792
a(S'take'
p2793
g6
F1.0
tp2794
a(S'your'
p2795
g39
F0.9928
tp2796
a(S'Barbies'
p2797
g28
F0.8835
tp2798
a(S'and'
p2799
g228
F0.9986
tp2800
a(g49
g3
F0.9988
tp2801
a(S'put'
p2802
g6
F0.9998
tp2803
a(S'them'
p2804
g3
F0.965
tp2805
a(S'away'
p2806
g31
F0.985
tp2807
a(S'(.)'
p2808
g115
F0.2537
tp2809
a(S'for'
p2810
g36
F0.9779
tp2811
a(S'good'
p2812
g82
F0.993
tp2813
a(g13
g14
F0.999
tp2814
asI921
(lp2815
(S'(.)'
p2816
g18
F0.3392
tp2817
a(g49
g3
F0.9937
tp2818
a(S'love'
p2819
g6
F0.9993
tp2820
a(S'you'
p2821
g3
F0.9989
tp2822
a(g13
g14
F0.9995
tp2823
asI924
(lp2824
(S'hm'
p2825
g21
F0.9699
tp2826
a(g2439
g14
F0.9711
tp2827
a(S"you're"
p2828
g71
F0.9757
tp2829
a(S'my'
p2830
g39
F0.9947
tp2831
a(S'cookie'
p2832
g28
F0.9986
tp2833
a(g13
g14
F0.9982
tp2834
asI414
(lp2835
(S"I'm"
p2836
g71
F0.9951
tp2837
a(S'gonna'
p2838
g6
F0.9945
tp2839
a(S'play'
p2840
g6
F0.9987
tp2841
a(S'with'
p2842
g36
F0.9986
tp2843
a(S'them'
p2844
g3
F0.9814
tp2845
a(g13
g14
F0.998
tp2846
asI927
(lp2847
(S"you're"
p2848
g71
F0.9741
tp2849
a(S'my'
p2850
g39
F0.9927
tp2851
a(S'cookie'
p2852
g28
F0.9993
tp2853
a(g13
g14
F0.9986
tp2854
asI417
(lp2855
(g49
g3
F0.9983
tp2856
a(S'want'
p2857
g6
F0.9998
tp2858
a(S'to'
p2859
g36
F0.9061
tp2860
a(g13
g14
F0.995
tp2861
asI798
(lp2862
(g488
g489
F0.9328
tp2863
a(S"it's"
p2864
g71
F0.9802
tp2865
a(S'hamburger'
p2866
g28
F0.9876
tp2867
a(g492
g18
F0.5466
tp2868
a(g578
g18
F0.535
tp2869
a(g488
g489
F0.6902
tp2870
a(g142
g14
F0.963
tp2871
a(g21
g14
F0.9969
tp2872
asI420
(lp2873
(S'can'
p2874
g6
F0.9938
tp2875
a(g49
g3
F0.9963
tp2876
a(S'Mot'
p2877
g115
F0.2836
tp2878
a(g59
g14
F0.993
tp2879
asI933
(lp2880
(S"I'm"
p2881
g71
F0.9873
tp2882
a(S'your'
p2883
g39
F0.9435
tp2884
a(S'pudding'
p2885
g28
F0.9994
tp2886
a(g13
g14
F0.9986
tp2887
asI1105
(lp2888
(S'(.)'
p2889
g18
F0.3392
tp2890
a(g49
g3
F0.9958
tp2891
a(S'have_to'
p2892
g6
F0.9997
tp2893
a(S'start'
p2894
g6
F0.9978
tp2895
a(S'eating'
p2896
g6
F0.9921
tp2897
a(S'more'
p2898
g82
F0.6227
tp2899
a(g13
g14
F0.9985
tp2900
asI424
(lp2901
(S'eat'
p2902
g6
F0.99
tp2903
a(S'your'
p2904
g39
F0.9939
tp2905
a(S'supper'
p2906
g28
F0.9977
tp2907
a(S'please'
p2908
g6
F0.8775
tp2909
a(g13
g14
F0.9982
tp2910
asI1071
(lp2911
(S'(.)'
p2912
g18
F0.3392
tp2913
a(g49
g3
F0.9958
tp2914
a(S"don't"
p2915
g6
F1.0
tp2916
a(S'need'
p2917
g6
F0.9999
tp2918
a(S'it'
p2919
g3
F0.9728
tp2920
a(g13
g14
F0.9986
tp2921
asI427
(lp2922
(S'(..)'
p2923
g14
F0.3701
tp2924
a(S'are'
p2925
g6
F0.9965
tp2926
a(S'we'
p2927
g3
F0.9986
tp2928
a(S'staying'
p2929
g6
F1.0
tp2930
a(S'up'
p2931
g68
F0.9684
tp2932
a(g59
g14
F0.9973
tp2933
asI1010
(lp2934
(S'(.)'
p2935
g115
F0.3439
tp2936
a(S'watch'
p2937
g6
F0.9535
tp2938
a(S'what'
p2939
g3
F0.9821
tp2940
a(g49
g3
F0.9993
tp2941
a(S'do'
p2942
g6
F0.9997
tp2943
a(S'Mot'
p2944
g115
F0.7692
tp2945
a(g13
g14
F0.9891
tp2946
asI942
(lp2947
(S'pudding'
p2948
g28
F0.9706
tp2949
a(g59
g14
F0.9968
tp2950
asI431
(lp2951
(S'mhm'
p2952
g21
F0.9761
tp2953
a(g13
g14
F0.9962
tp2954
asI434
(lp2955
(S'eight'
p2956
g11
F0.9335
tp2957
a(S"o'clock"
p2958
g28
F0.3969
tp2959
a(g123
g39
F0.9663
tp2960
a(S'good'
p2961
g82
F0.9987
tp2962
a(S"movie's"
p2963
g28
F0.9602
tp2964
a(S'comin(g'
p2965
g6
F0.8747
tp2966
a(g452
g14
F0.9947
tp2967
a(S'on'
p2968
g36
F0.9609
tp2969
a(S'though'
p2970
g36
F0.4789
tp2971
a(g13
g14
F0.997
tp2972
asI947
(lp2973
(S'mhm'
p2974
g21
F0.9761
tp2975
a(g13
g14
F0.9962
tp2976
asI950
(lp2977
(S'(.)'
p2978
g115
F0.337
tp2979
a(S"pudding's"
p2980
g1749
F0.3918
tp2981
a(S'good'
p2982
g82
F0.9814
tp2983
a(g13
g14
F0.9984
tp2984
asI439
(lp2985
(S'what'
p2986
g3
F0.9171
tp2987
a(g59
g14
F0.9924
tp2988
asI953
(lp2989
(g488
g489
F0.9526
tp2990
a(g49
g3
F0.9967
tp2991
a(g492
g489
F0.2694
tp2992
a(S'[/]'
p2993
g14
F0.327
tp2994
a(g49
g3
F0.9978
tp2995
a(S"don't"
p2996
g6
F1.0
tp2997
a(S'like'
p2998
g6
F0.8393
tp2999
a(S'jello'
p3000
g28
F0.8339
tp3001
a(g13
g14
F0.999
tp3002
asI443
(lp3003
(S'The'
p3004
g39
F0.9905
tp3005
a(S'Seventh'
p3006
g82
F0.7382
tp3007
a(S'Sign'
p3008
g28
F0.9792
tp3009
a(g13
g14
F0.9983
tp3010
asI956
(lp3011
(S'(.)'
p3012
g115
F0.4332
tp3013
a(S'do'
p3014
g6
F0.9986
tp3015
a(S'you'
p3016
g3
F0.997
tp3017
a(g59
g14
F0.9995
tp3018
asI447
(lp3019
(S'with'
p3020
g36
F0.9865
tp3021
a(S'Demi'
p3022
g115
F0.9956
tp3023
a(S'Moore'
p3024
g115
F0.9995
tp3025
a(g59
g14
F0.9961
tp3026
asI960
(lp3027
(S'unhunh'
p3028
g21
F0.3092
tp3029
a(g13
g14
F0.9969
tp3030
asI1140
(lp3031
(S'you'
p3032
g3
F0.9766
tp3033
a(S'all'
p3034
g39
F0.8852
tp3035
a(S'finished'
p3036
g6
F0.7955
tp3037
a(g59
g14
F0.9976
tp3038
asI451
(lp3039
(S'would'
p3040
g6
F0.9929
tp3041
a(g49
g3
F0.9964
tp3042
a(S'like'
p3043
g6
F0.9638
tp3044
a(S'it'
p3045
g3
F0.9961
tp3046
a(g59
g14
F0.999
tp3047
asI455
(lp3048
(S'(.)'
p3049
g18
F0.3392
tp3050
a(g49
g3
F0.9958
tp3051
a(S"don't"
p3052
g6
F1.0
tp3053
a(S'know'
p3054
g6
F0.9977
tp3055
a(g13
g14
F0.998
tp3056
asI458
(lp3057
(g49
g3
F0.9976
tp3058
a(S"don't"
p3059
g6
F1.0
tp3060
a(S'know'
p3061
g6
F0.9999
tp3062
a(S'if'
p3063
g36
F0.9955
tp3064
a(S"you'll"
p3065
g71
F0.9885
tp3066
a(S'be'
p3067
g6
F0.9999
tp3068
a(S'up'
p3069
g68
F0.85
tp3070
a(S'for'
p3071
g36
F0.9995
tp3072
a(S'it'
p3073
g3
F0.9976
tp3074
a(g13
g14
F0.9988
tp3075
asI930
(lp3076
(S'no'
p3077
g21
F0.9847
tp3078
a(g21
g14
F0.999
tp3079
asI463
(lp3080
(S'(..)'
p3081
g18
F0.4292
tp3082
a(g49
g3
F0.9922
tp3083
a(S'love'
p3084
g6
F0.9993
tp3085
a(S'you'
p3086
g3
F0.9989
tp3087
a(g13
g14
F0.9995
tp3088
asI976
(lp3089
(S'(.)'
p3090
g115
F0.4332
tp3091
a(S'do'
p3092
g6
F0.9988
tp3093
a(S'you'
p3094
g3
F0.999
tp3095
a(S'like'
p3096
g6
F0.6134
tp3097
a(S'the'
p3098
g39
F0.9976
tp3099
a(S'green'
p3100
g82
F0.9774
tp3101
a(S'kind'
p3102
g28
F0.9513
tp3103
a(g59
g14
F0.998
tp3104
asI466
(lp3105
(S'(..)'
p3106
g14
F0.4515
tp3107
a(S'you'
p3108
g3
F0.9622
tp3109
a(S'little'
p3110
g82
F0.9842
tp3111
a(S'pumpkin'
p3112
g28
F0.9967
tp3113
a(S'pie'
p3114
g28
F0.9974
tp3115
a(S'are'
p3116
g6
F0.9804
tp3117
a(S'you'
p3118
g3
F0.9951
tp3119
a(S'my'
p3120
g39
F0.9987
tp3121
a(S'apples'
p3122
g28
F0.9857
tp3123
a(S'peaches'
p3124
g28
F0.9324
tp3125
a(S'and'
p3126
g228
F0.998
tp3127
a(S'pumpkin'
p3128
g28
F0.9721
tp3129
a(S'pie'
p3130
g28
F0.9977
tp3131
a(g59
g14
F0.9986
tp3132
asI980
(lp3133
(S'unhunh'
p3134
g21
F0.3092
tp3135
a(g13
g14
F0.9969
tp3136
asI983
(lp3137
(g49
g3
F0.9981
tp3138
a(S'do'
p3139
g6
F0.9997
tp3140
a(g13
g14
F0.9971
tp3141
asI472
(lp3142
(S"I'm"
p3143
g71
F0.9873
tp3144
a(S'your'
p3145
g39
F0.9435
tp3146
a(S'tomato'
p3147
g28
F0.9993
tp3148
a(g21
g14
F0.9989
tp3149
asI986
(lp3150
(S'me'
p3151
g3
F0.9951
tp3152
a(S'too'
p3153
g31
F0.9928
tp3154
a(g13
g14
F0.9972
tp3155
asI476
(lp3156
(S'my'
p3157
g39
F0.9932
tp3158
a(S'tomato'
p3159
g28
F0.9974
tp3160
a(g59
g14
F0.9969
tp3161
asI762
(lp3162
(S'(..)'
p3163
g18
F0.4292
tp3164
a(g49
g3
F0.9961
tp3165
a(S'think'
p3166
g6
F0.9998
tp3167
a(S"he's"
p3168
g71
F0.9956
tp3169
a(S'gonna'
p3170
g6
F0.9869
tp3171
a(S'get'
p3172
g6
F0.9998
tp3173
a(S'in'
p3174
g36
F0.9352
tp3175
a(S'trouble'
p3176
g28
F0.9871
tp3177
a(S'too'
p3178
g31
F0.9824
tp3179
a(g13
g14
F0.997
tp3180
asI480
(lp3181
(S'you'
p3182
g3
F0.998
tp3183
a(S'say'
p3184
g6
F0.9968
tp3185
a(S'tomato'
p3186
g28
F0.9789
tp3187
a(g49
g3
F0.9926
tp3188
a(S'say'
p3189
g6
F0.9993
tp3190
a(S'tomato'
p3191
g28
F0.972
tp3192
a(g13
g14
F0.9985
tp3193
asI993
(lp3194
(S'mhm'
p3195
g21
F0.9761
tp3196
a(g13
g14
F0.9962
tp3197
asI483
(lp3198
(S'you'
p3199
g3
F0.998
tp3200
a(S'say'
p3201
g6
F0.9968
tp3202
a(S'potato'
p3203
g28
F0.9788
tp3204
a(g49
g3
F0.9926
tp3205
a(S'say'
p3206
g6
F0.9993
tp3207
a(S'potato'
p3208
g28
F0.9755
tp3209
a(g13
g14
F0.9985
tp3210
asI996
(lp3211
(S'(.)'
p3212
g424
F0.3266
tp3213
a(S'Mot'
p3214
g424
F0.6498
tp3215
a(S"I'm"
p3216
g71
F0.9962
tp3217
a(S'almost'
p3218
g31
F0.9954
tp3219
a(S'done'
p3220
g6
F0.9805
tp3221
a(g21
g14
F0.9984
tp3222
asI487
(lp3223
(g228
g228
F0.9893
tp3224
a(g230
g14
F0.8849
tp3225
a(S'laughs'
p3226
g6
F0.9978
tp3227
a(S'your'
p3228
g39
F0.9918
tp3229
a(S"mother's"
p3230
g507
F0.4195
tp3231
a(S'nuts'
p3232
g82
F0.6061
tp3233
a(g13
g14
F0.9978
tp3234
asI1000
(lp3235
(S'(.)'
p3236
g18
F0.2092
tp3237
a(S'good'
p3238
g82
F0.9995
tp3239
a(S'girl'
p3240
g28
F0.9994
tp3241
a(g13
g14
F0.9975
tp3242
asI490
(lp3243
(S'yep'
p3244
g21
F0.9972
tp3245
a(g13
g14
F0.9971
tp3246
asI1003
(lp3247
(g49
g3
F0.9982
tp3248
a(S'got'
p3249
g6
F0.9985
tp3250
a(S'one'
p3251
g11
F0.9045
tp3252
a(S'more'
p3253
g82
F0.5243
tp3254
a(S'bite'
p3255
g28
F0.9003
tp3256
a(g21
g14
F0.9987
tp3257
asI494
(lp3258
(S'but'
p3259
g228
F0.9936
tp3260
a(S'she'
p3261
g3
F0.9988
tp3262
a(S'loves'
p3263
g6
F0.9999
tp3264
a(S'ya'
p3265
g3
F0.7365
tp3266
a(S'[:'
p3267
g18
F0.7048
tp3268
a(S'you'
p3269
g3
F0.992
tp3270
a(g142
g14
F0.9958
tp3271
a(S'(.)'
p3272
g18
F0.2934
tp3273
a(S'more'
p3274
g82
F0.8664
tp3275
a(S'than'
p3276
g36
F0.9955
tp3277
a(S'anything'
p3278
g28
F0.9984
tp3279
a(g13
g14
F0.9973
tp3280
asI1007
(lp3281
(S'and'
p3282
g228
F0.9983
tp3283
a(S"I'm"
p3284
g71
F0.9951
tp3285
a(S'all'
p3286
g39
F0.6797
tp3287
a(S'done'
p3288
g82
F0.4563
tp3289
a(g13
g14
F0.9991
tp3290
asI936
(lp3291
(S"I'm"
p3292
g71
F0.9873
tp3293
a(S'your'
p3294
g39
F0.9435
tp3295
a(S'cookie'
p3296
g28
F0.9994
tp3297
a(g13
g14
F0.9986
tp3298
asI498
(lp3299
(g1319
g14
F0.9736
tp3300
a(S'be)cause'
p3301
g36
F0.9978
tp3302
a(S"you're"
p3303
g71
F0.9803
tp3304
a(S'my'
p3305
g39
F0.9947
tp3306
a(S'tomato'
p3307
g28
F0.9985
tp3308
a(g21
g14
F0.9987
tp3309
asI851
(lp3310
(S'right'
p3311
g21
F0.7325
tp3312
a(g59
g14
F0.9985
tp3313
asI1013
(lp3314
(S'(.)'
p3315
g115
F0.347
tp3316
a(S'go'
p3317
g6
F0.964
tp3318
a(S'sit'
p3319
g6
F0.9799
tp3320
a(S'down'
p3321
g68
F0.7363
tp3322
a(S'and'
p3323
g228
F0.9962
tp3324
a(S'eat'
p3325
g6
F0.9472
tp3326
a(S'please'
p3327
g6
F0.8833
tp3328
a(g13
g14
F0.9981
tp3329
asI502
(lp3330
(S'(..)'
p3331
g14
F0.4328
tp3332
a(S'both'
p3333
g3
F0.2466
tp3334
a(S'your'
p3335
g39
F0.9619
tp3336
a(S'mother'
p3337
g28
F0.9962
tp3338
a(S'and'
p3339
g228
F0.9957
tp3340
a(S'you'
p3341
g3
F0.9995
tp3342
a(S'would'
p3343
g6
F0.9997
tp3344
a(S'hear'
p3345
g6
F0.9997
tp3346
a(S'it'
p3347
g3
F0.9755
tp3348
a(S'(.)'
p3349
g18
F0.3072
tp3350
a(S'what'
p3351
g3
F0.9917
tp3352
a(S'would'
p3353
g6
F0.9997
tp3354
a(S'you'
p3355
g3
F0.9979
tp3356
a(S'give'
p3357
g6
F0.9993
tp3358
a(S'to'
p3359
g36
F0.9856
tp3360
a(S'him'
p3361
g3
F0.9882
tp3362
a(g59
g14
F0.9976
tp3363
asI869
(lp3364
(g49
g3
F0.9967
tp3365
a(S'love'
p3366
g6
F0.9994
tp3367
a(S'you'
p3368
g3
F0.9991
tp3369
a(g13
g14
F0.9996
tp3370
asI1016
(lp3371
(S'(.)'
p3372
g115
F0.4218
tp3373
a(S'gonna'
p3374
g6
F0.9695
tp3375
a(S'rock'
p3376
g6
F0.9973
tp3377
a(S'me'
p3378
g3
F0.9982
tp3379
a(S'in'
p3380
g36
F0.9487
tp3381
a(S'my'
p3382
g39
F0.9856
tp3383
a(S'rocking'
p3384
g82
F0.4139
tp3385
a(S'chair'
p3386
g28
F0.9987
tp3387
a(g13
g14
F0.9991
tp3388
asI1020
(lp3389
(S'xxx'
p3390
g18
F0.5822
tp3391
a(g13
g14
F0.9648
tp3392
asI1021
(lp3393
(S'you'
p3394
g3
F0.9962
tp3395
a(S'be'
p3396
g6
F0.9998
tp3397
a(g123
g39
F0.9926
tp3398
a(S'big'
p3399
g82
F0.9901
tp3400
a(S'girl'
p3401
g28
F0.9972
tp3402
a(S'and'
p3403
g228
F0.9981
tp3404
a(S"we'll"
p3405
g71
F0.9705
tp3406
a(S'be'
p3407
g6
F0.9999
tp3408
a(S'all'
p3409
g39
F0.5293
tp3410
a(S'set'
p3411
g28
F0.7416
tp3412
a(g13
g14
F0.999
tp3413
asI510
(lp3414
(S'(..)'
p3415
g18
F0.3437
tp3416
a(S'the'
p3417
g39
F0.9983
tp3418
a(S'broom'
p3419
g28
F0.9979
tp3420
a(g13
g14
F0.9985
tp3421
asI1109
(lp3422
(S'please'
p3423
g6
F0.8368
tp3424
a(g13
g14
F0.9977
tp3425
as.