(dp0
I0
(lp1
(S'alright'
p2
S'!'
p3
F0.9864
tp4
asI1
(lp5
(S'just'
p6
S'R'
p7
F0.9992
tp8
a(S'eat'
p9
S'V'
p10
F0.999
tp11
a(S'your'
p12
S'D'
p13
F0.9937
tp14
a(S'supper'
p15
S'N'
p16
F0.9978
tp17
a(S'now'
p18
g7
F0.9947
tp19
a(S'alright'
p20
g3
F0.7375
tp21
asI2
(lp22
(S'oh'
p23
g3
F0.9901
tp24
a(S'mommy'
p25
g16
F0.4337
tp26
a(S'look'
p27
g10
F0.9138
tp28
a(S'at'
p29
S'P'
p30
F0.9994
tp31
a(S'this'
p32
S'O'
p33
F0.5085
tp34
asI3
(lp35
(S'this'
p36
g33
F0.6557
tp37
a(S'would'
p38
g10
F0.9967
tp39
a(S'be'
p40
g10
F0.9998
tp41
a(S'good'
p42
S'A'
p43
F0.9911
tp44
a(S'for'
p45
g30
F0.9999
tp46
a(S'the'
p47
g13
F0.9995
tp48
a(S'baby'
p49
g16
F0.9981
tp50
a(S'that'
p51
g30
F0.9534
tp52
a(S'grace'
p53
S'^'
p54
F0.9135
tp55
a(S'is'
p56
g10
F0.9963
tp57
a(S'having'
p58
g10
F0.9795
tp59
asI4
(lp60
(S'oh'
p61
g3
F0.9987
tp62
a(S'yeah'
p63
g3
F0.9997
tp64
asI5
(lp65
(S'we'
p66
g33
F0.9679
tp67
a(S'better'
p68
g7
F0.5167
tp69
a(S'buy'
p70
g10
F0.9735
tp71
a(S'this'
p72
g33
F0.7239
tp73
a(S'for'
p74
g30
F0.9986
tp75
a(S'grace'
p76
g54
F0.9869
tp77
a(S's'
p78
S'G'
p79
F0.4454
tp80
a(S'baby'
p81
g16
F0.9616
tp82
asI6
(lp83
(S'think'
p84
g10
F0.9779
tp85
a(S'so'
p86
g7
F0.7026
tp87
a(S'lemme'
p88
S'L'
p89
F0.9777
tp90
a(S'let'
p91
g10
F0.9998
tp92
a(S'me'
p93
g33
F0.9995
tp94
a(S'see'
p95
g10
F0.9632
tp96
asI7
(lp97
(S'lemme'
p98
g89
F0.973
tp99
a(S'let'
p100
g10
F0.9999
tp101
a(S'me'
p102
g33
F0.9996
tp103
a(S'see'
p104
g10
F0.9449
tp105
asI8
(lp106
(S'see'
p107
g10
F0.9815
tp108
a(S'the'
p109
g13
F0.9996
tp110
a(S'baby'
p111
g16
F0.9953
tp112
a(S'stuff'
p113
g16
F0.9962
tp114
asI9
(lp115
(S'those'
p116
g33
F0.6273
tp117
a(S'are'
p118
g10
F0.9939
tp119
a(S'cute'
p120
g43
F0.9981
tp121
asI10
(lp122
(S'yeah'
p123
g3
F0.9988
tp124
asI11
(lp125
(S'very'
p126
g7
F0.9414
tp127
a(S'xxx'
p128
S'E'
p129
F0.5527
tp130
a(S'huh'
p131
g3
F0.9543
tp132
asI12
(lp133
(S'look'
p134
g10
F0.8183
tp135
asI13
(lp136
(S'what'
p137
g33
F0.7729
tp138
a(S'store'
p139
g16
F0.9923
tp140
a(S'is'
p141
g10
F0.9991
tp142
a(S'this'
p143
g33
F0.8552
tp144
a(S'from'
p145
g30
F0.9713
tp146
asI14
(lp147
(S'stuart'
p148
g54
F0.9775
tp149
a(g78
g79
F0.6953
tp150
asI15
(lp151
(S'yeah'
p152
g3
F0.9988
tp153
asI16
(lp154
(S'stuart'
p155
g54
F0.9775
tp156
a(g78
g79
F0.6953
tp157
asI17
(lp158
(S'mommy'
p159
g16
F0.5271
tp160
asI18
(lp161
(S'we'
p162
g33
F0.9832
tp163
a(S'we'
p164
g33
F0.7965
tp165
a(S'better'
p166
g7
F0.7537
tp167
a(S'buy'
p168
g10
F0.9736
tp169
a(S'a'
p170
g13
F0.9967
tp171
a(S'bed'
p172
g16
F0.9893
tp173
a(S'for'
p174
g30
F0.9998
tp175
a(S'grace'
p176
g54
F0.9839
tp177
a(g78
g79
F0.5549
tp178
a(S'baby'
p179
g16
F0.9422
tp180
asI19
(lp181
(S'what'
p182
g33
F0.949
tp183
asI20
(lp184
(S'we'
p185
g33
F0.9663
tp186
a(S'better'
p187
g43
F0.8184
tp188
asI21
(lp189
(S'think'
p190
g10
F0.9679
tp191
a(S'so'
p192
g7
F0.7265
tp193
asI22
(lp194
(S'yeah'
p195
g3
F0.9988
tp196
asI23
(lp197
(S'www'
p198
g54
F0.3889
tp199
asI24
(lp200
(S'maybe'
p201
g7
F0.9144
tp202
a(S'grace'
p203
g54
F0.9653
tp204
a(S'wants'
p205
g10
F0.9956
tp206
a(S'maybe'
p207
g7
F0.939
tp208
a(S'the'
p209
g13
F0.999
tp210
a(S'baby'
p211
g16
F0.9966
tp212
a(S'can'
p213
g10
F0.9907
tp214
a(S'use'
p215
g10
F0.9981
tp216
a(S'your'
p217
g13
F0.989
tp218
a(S'crib'
p219
g16
F0.9909
tp220
asI25
(lp221
(S'what'
p222
g33
F0.949
tp223
asI26
(lp224
(S'want'
p225
g10
F0.9976
tp226
a(S'the'
p227
g13
F0.9997
tp228
a(S'baby'
p229
g16
F0.9984
tp230
a(S'to'
p231
g30
F0.9995
tp232
a(S'use'
p233
g10
F0.9985
tp234
a(S'your'
p235
g13
F0.9875
tp236
a(S'crib'
p237
g16
F0.9938
tp238
asI27
(lp239
(S'yeah'
p240
g3
F0.9988
tp241
asI28
(lp242
(S'how'
p243
g7
F0.9793
tp244
a(S'would'
p245
g10
F0.997
tp246
a(S'that'
p247
g33
F0.8217
tp248
a(S'be'
p249
g10
F0.9917
tp250
asI29
(lp251
(S'good'
p252
g43
F0.9644
tp253
asI30
(lp254
(S'be'
p255
g10
F0.9727
tp256
a(S'cause'
p257
g30
F0.8172
tp258
a(S'mine'
p259
g33
F0.9833
tp260
a(g78
g79
F0.6529
tp261
a(S'old'
p262
g43
F0.9902
tp263
a(S'right'
p264
g7
F0.4721
tp265
asI31
(lp266
(S'yeah'
p267
g3
F0.9988
tp268
asI32
(lp269
(S'is'
p270
g10
F0.9965
tp271
a(S'mine'
p272
g33
F0.8253
tp273
a(S'old'
p274
g43
F0.9799
tp275
asI33
(lp276
(S'it'
p277
g33
F0.9888
tp278
a(g78
g10
F0.4591
tp279
a(S'old'
p280
g43
F0.9904
tp281
a(S'yeah'
p282
g3
F0.9706
tp283
a(S'but'
p284
S'&'
p285
F0.9929
tp286
a(S'you'
p287
g33
F0.9991
tp288
a(S'don'
p289
g10
F0.8626
tp290
a(S't'
p291
g79
F0.2554
tp292
a(S'need'
p293
g10
F0.997
tp294
a(S'it'
p295
g33
F0.8729
tp296
a(S'any'
p297
g13
F0.7701
tp298
a(S'more'
p299
g43
F0.8504
tp300
asI34
(lp301
(S'be'
p302
g10
F0.9727
tp303
a(S'cause'
p304
g30
F0.7105
tp305
a(S'i'
p306
g33
F0.9913
tp307
a(S'ain'
p308
g10
F0.9723
tp309
a(g291
g10
F0.7664
tp310
a(g170
g13
F0.996
tp311
a(S'baby'
p312
g16
F0.9969
tp313
asI35
(lp314
(S'nope'
p315
g3
F0.996
tp316
asI36
(lp317
(S'you'
p318
g33
F0.9754
tp319
a(S're'
p320
g10
F0.9434
tp321
a(g170
g13
F0.9962
tp322
a(S'big'
p323
g43
F0.9866
tp324
a(S'boy'
p325
g16
F0.9962
tp326
a(S'now'
p327
g7
F0.9907
tp328
asI37
(lp329
(S'huh'
p330
g3
F0.993
tp331
asI38
(lp332
(S'how'
p333
g7
F0.9773
tp334
a(S'd'
p335
g10
F0.3689
tp336
a(S'you'
p337
g33
F0.9986
tp338
a(S'like'
p339
g10
F0.7483
tp340
a(S'flying'
p341
g10
F0.9992
tp342
a(S'those'
p343
g13
F0.9792
tp344
a(S'kites'
p345
g16
F0.9648
tp346
asI39
(lp347
(S'good'
p348
g43
F0.9644
tp349
asI40
(lp350
(S'was'
p351
g10
F0.9988
tp352
a(S'it'
p353
g33
F0.8476
tp354
a(S'fun'
p355
g43
F0.6721
tp356
asI41
(lp357
(g306
g33
F0.9896
tp358
a(S'liked'
p359
g10
F1.0
tp360
a(S'it'
p361
g33
F0.9866
tp362
a(S'when'
p363
g7
F0.9809
tp364
a(S'it'
p365
g33
F0.9975
tp366
a(S'was'
p367
g10
F0.9988
tp368
a(S'way'
p369
g7
F0.636
tp370
a(S'up'
p371
S'T'
p372
F0.5146
tp373
asI42
(lp374
(S'www'
p375
g54
F0.3889
tp376
asI43
(lp377
(S'they'
p378
g33
F0.9795
tp379
a(S'couldn'
p380
g10
F0.9899
tp381
a(g291
g10
F0.7417
tp382
a(S'even'
p383
g7
F0.9968
tp384
a(S'see'
p385
g10
F0.9996
tp386
a(S'us'
p387
g33
F0.8994
tp388
asI44
(lp389
(S'right'
p390
g3
F0.861
tp391
asI45
(lp392
(g306
g33
F0.9912
tp393
a(S'know'
p394
g10
F0.9987
tp395
a(S'xxx'
p396
g129
F0.6949
tp397
asI46
(lp398
(g306
g33
F0.9873
tp399
a(S'can'
p400
g10
F0.9996
tp401
a(g291
g10
F0.7886
tp402
a(S'eat'
p403
g10
F0.9039
tp404
asI47
(lp405
(S'way'
p406
g16
F0.7431
tp407
a(S'up'
p408
g30
F0.448
tp409
a(S'high'
p410
g43
F0.4823
tp411
asI48
(lp412
(S'yeah'
p413
g3
F0.9988
tp414
asI49
(lp415
(S'www'
p416
g54
F0.3889
tp417
asI50
(lp418
(S'way'
p419
g16
F0.7431
tp420
a(S'up'
p421
g372
F0.5964
tp422
asI51
(lp423
(g306
g33
F0.9917
tp424
a(S'was'
p425
g10
F0.9995
tp426
a(S'xxx'
p427
g129
F0.6812
tp428
asI52
(lp429
(S'www'
p430
g54
F0.3889
tp431
asI53
(lp432
(S'alright'
p433
g3
F0.9061
tp434
a(S'eat'
p435
g10
F0.8558
tp436
asI54
(lp437
(S'come'
p438
g10
F0.9849
tp439
a(S'on'
p440
g372
F0.5632
tp441
asI55
(lp442
(S'don'
p443
g54
F0.5427
tp444
a(g291
g54
F0.478
tp445
a(S'play'
p446
g10
F0.9271
tp447
a(S'with'
p448
g30
F0.9993
tp449
a(S'the'
p450
g13
F0.9996
tp451
a(S'food'
p452
g16
F0.9914
tp453
asI56
(lp454
(S'wanna'
p455
g10
F0.9617
tp456
a(S'play'
p457
g10
F0.9937
tp458
a(S'food'
p459
g16
F0.9829
tp460
a(S'fighters'
p461
g16
F0.9957
tp462
asI57
(lp463
(S'what'
p464
g33
F0.949
tp465
asI58
(lp466
(S'play'
p467
g10
F0.9136
tp468
a(S'food'
p469
g16
F0.9669
tp470
a(S'fighters'
p471
g16
F0.9958
tp472
asI59
(lp473
(S'food'
p474
g16
F0.9401
tp475
asI60
(lp476
(S'food'
p477
g16
F0.9227
tp478
a(S'fighters'
p479
g16
F0.9943
tp480
asI61
(lp481
(S'food'
p482
g16
F0.9227
tp483
a(S'fighters'
p484
g16
F0.9943
tp485
asI62
(lp486
(S'who'
p487
g33
F0.9905
tp488
a(g78
g10
F0.7847
tp489
a(g170
g13
F0.9957
tp490
a(S'food'
p491
g16
F0.9908
tp492
a(S'fighter'
p493
g16
F0.9856
tp494
asI63
(lp495
(S'all'
p496
S'X'
p497
F0.7572
tp498
a(S'the'
p499
g13
F0.9998
tp500
a(S'foods'
p501
g16
F0.9959
tp502
a(S'that'
p503
g30
F0.8726
tp504
a(S'has'
p505
g10
F0.9987
tp506
a(S'that'
p507
g33
F0.5576
tp508
a(S'that'
p509
g33
F0.8516
tp510
a(S'has'
p511
g10
F0.9996
tp512
a(S'the'
p513
g13
F0.9981
tp514
a(S'red'
p515
g43
F0.9633
tp516
a(S'ketchup'
p517
g16
F0.9977
tp518
asI64
(lp519
(S'yeah'
p520
g3
F0.9988
tp521
asI65
(lp522
(S'those'
p523
g33
F0.6322
tp524
a(S'are'
p525
g10
F0.9935
tp526
a(S'just'
p527
g7
F0.9767
tp528
a(S'toys'
p529
g16
F0.8938
tp530
asI66
(lp531
(S'that'
p532
g33
F0.473
tp533
a(g78
g79
F0.4404
tp534
a(S'what'
p535
g33
F0.9623
tp536
a(g306
g33
F0.994
tp537
a(S'want'
p538
g10
F0.9998
tp539
a(S'mommy'
p540
g16
F0.6203
tp541
a(S'food'
p542
g16
F0.9891
tp543
asI67
(lp544
(S'food'
p545
g16
F0.9401
tp546
asI68
(lp547
(S'food'
p548
g16
F0.9227
tp549
a(S'fighters'
p550
g16
F0.9943
tp551
asI69
(lp552
(S'like'
p553
g30
F0.6185
tp554
a(S'like'
p555
g30
F0.8795
tp556
a(S'the'
p557
g13
F0.9991
tp558
a(S'first'
p559
g43
F0.7969
tp560
a(S'like'
p561
g30
F0.9936
tp562
a(S'the'
p563
g13
F0.9745
tp564
a(S'wrestle'
p565
g16
F0.6316
tp566
a(S'guys'
p567
g16
F0.9986
tp568
asI70
(lp569
(S'yeah'
p570
g3
F0.9988
tp571
asI71
(lp572
(S'don'
p573
g54
F0.5427
tp574
a(g291
g79
F0.2843
tp575
a(S'they'
p576
g33
F0.9347
tp577
a(S're'
p578
g10
F0.7599
tp579
a(S'not'
p580
g7
F0.999
tp581
a(S'like'
p582
g30
F0.7424
tp583
a(S'that'
p584
g33
F0.8974
tp585
asI72
(lp586
(S'them'
p587
g33
F0.9532
tp588
a(S'are'
p589
g10
F0.9906
tp590
a(S'food'
p591
g16
F0.9514
tp592
a(S'fighters'
p593
g16
F0.9957
tp594
asI73
(lp595
(g306
g33
F0.9805
tp596
a(S'never'
p597
g7
F0.9915
tp598
a(S'saw'
p599
g10
F0.9991
tp600
a(S'those'
p601
g33
F0.614
tp602
asI74
(lp603
(S'yes'
p604
g3
F0.9701
tp605
a(S'you'
p606
g33
F0.9994
tp607
a(S'did'
p608
g10
F0.9995
tp609
a(S'on'
p610
g30
F0.9458
tp611
a(S'tv'
p612
g16
F0.9607
tp613
a(S'we'
p614
g33
F0.9804
tp615
a(S'keep'
p616
g10
F0.9957
tp617
a(S'on'
p618
g30
F0.8719
tp619
a(S'seeing'
p620
g10
F0.9851
tp621
a(S'that'
p622
g33
F0.6372
tp623
asI75
(lp624
(S'oh'
p625
g3
F0.9987
tp626
a(S'yeah'
p627
g3
F0.9997
tp628
asI76
(lp629
(S'remember'
p630
g10
F0.9516
tp631
asI77
(lp632
(S'no'
p633
g3
F0.9253
tp634
asI78
(lp635
(g306
g33
F0.9671
tp636
a(S'don'
p637
g10
F0.9156
tp638
a(g291
g79
F0.4526
tp639
asI79
(lp640
(S'www'
p641
g54
F0.3889
tp642
asI80
(lp643
(S'they'
p644
g33
F0.9877
tp645
a(S'look'
p646
g10
F0.9983
tp647
a(S'like'
p648
g30
F0.8865
tp649
a(S'food'
p650
g16
F0.978
tp651
a(S'but'
p652
g285
F0.988
tp653
a(S'they'
p654
g33
F0.9558
tp655
a(S'fight'
p656
g10
F0.9343
tp657
asI81
(lp658
(S'yeah'
p659
g3
F0.9988
tp660
asI82
(lp661
(S'there'
p662
g497
F0.8447
tp663
a(S'are'
p664
g10
F0.9942
tp665
a(S'all'
p666
g13
F0.9599
tp667
a(S'kinds'
p668
g16
F0.9555
tp669
asI83
(lp670
(g306
g33
F0.9912
tp671
a(S'know'
p672
g10
F0.9989
tp673
asI84
(lp674
(g306
g33
F0.9635
tp675
a(S'don'
p676
g10
F0.9156
tp677
a(g291
g16
F0.3074
tp678
a(S'know'
p679
g10
F0.965
tp680
asI85
(lp681
(S'what'
p682
g33
F0.8373
tp683
a(S'kind'
p684
g16
F0.8777
tp685
a(S'are'
p686
g10
F0.9877
tp687
a(S'there'
p688
g7
F0.7347
tp689
asI86
(lp690
(S'there'
p691
g497
F0.4664
tp692
a(g78
g79
F0.6539
tp693
a(g170
g13
F0.99
tp694
a(S'circle'
p695
g16
F0.9824
tp696
a(S'one'
p697
S'$'
p698
F0.9182
tp699
asI87
(lp700
(S'there'
p701
g497
F0.4664
tp702
a(g78
g79
F0.6539
tp703
a(g170
g13
F0.99
tp704
a(S'line'
p705
g16
F0.9503
tp706
a(S'one'
p707
g698
F0.9182
tp708
asI88
(lp709
(S'all'
p710
g13
F0.9484
tp711
a(S'different'
p712
g43
F0.998
tp713
a(S'kinds'
p714
g16
F0.9975
tp715
a(S'of'
p716
g30
F0.9974
tp717
a(S'shapes'
p718
g16
F0.7147
tp719
asI89
(lp720
(S'really'
p721
g7
F0.9938
tp722
asI90
(lp723
(S'there'
p724
g497
F0.4649
tp725
a(g78
g79
F0.4479
tp726
a(S'ketchup'
p727
g16
F0.9746
tp728
asI91
(lp729
(S'there'
p730
g497
F0.4649
tp731
a(g78
g79
F0.4479
tp732
a(S'ketchup'
p733
g16
F0.9746
tp734
asI92
(lp735
(S'yeah'
p736
g3
F0.9988
tp737
asI93
(lp738
(S'there'
p739
g497
F0.4664
tp740
a(g78
g79
F0.6634
tp741
a(g170
g13
F0.991
tp742
a(S'truck'
p743
g16
F0.9993
tp744
asI94
(lp745
(g306
g33
F0.9635
tp746
a(S'don'
p747
g10
F0.9231
tp748
a(g291
g10
F0.3155
tp749
a(S'think'
p750
g10
F0.9728
tp751
a(g306
g33
F0.9951
tp752
a(S'have'
p753
g10
F0.9997
tp754
a(S'ever'
p755
g7
F0.9204
tp756
a(S'saw'
p757
g10
F0.9988
tp758
a(S'those'
p759
g33
F0.6563
tp760
asI95
(lp761
(g306
g33
F0.9897
tp762
a(S'want'
p763
g10
F1.0
tp764
a(S'them'
p765
g13
F0.5417
tp766
a(S'mommy'
p767
g16
F0.9138
tp768
asI96
(lp769
(S'when'
p770
g7
F0.9604
tp771
a(S'we'
p772
g33
F0.9964
tp773
a(S'get'
p774
g10
F0.9998
tp775
a(S'to'
p776
g30
F0.9893
tp777
a(g170
g13
F0.9938
tp778
a(S'toy'
p779
g16
F0.9671
tp780
a(S'store'
p781
g16
F0.9836
tp782
asI97
(lp783
(S'mhm'
p784
g3
F0.9747
tp785
asI98
(lp786
(g306
g33
F0.9793
tp787
a(S'll'
p788
g10
F0.7713
tp789
a(S'show'
p790
g10
F0.9447
tp791
a(S'you'
p792
g33
F0.9959
tp793
a(S'where'
p794
g7
F0.9468
tp795
a(S'them'
p796
g33
F0.991
tp797
a(S'at'
p798
g30
F0.9894
tp799
a(S'okay'
p800
g43
F0.5007
tp801
asI99
(lp802
(S'alright'
p803
g3
F0.9864
tp804
asI100
(lp805
(S'but'
p806
g285
F0.9925
tp807
a(S'what'
p808
g33
F0.9865
tp809
a(S'about'
p810
g30
F0.9943
tp811
a(S'the'
p812
g13
F0.9994
tp813
a(S'toy'
p814
g16
F0.965
tp815
a(S'stores'
p816
g16
F0.9632
tp817
asI101
(lp818
(S'toy'
p819
g16
F0.9006
tp820
a(S'store'
p821
g16
F0.9838
tp822
asI102
(lp823
(g306
g33
F0.9811
tp824
a(S'just'
p825
g7
F0.999
tp826
a(S'said'
p827
g10
F0.9989
tp828
a(S'that'
p829
g33
F0.7412
tp830
asI103
(lp831
(S'toy'
p832
g16
F0.9006
tp833
a(S'store'
p834
g16
F0.9838
tp835
asI104
(lp836
(S'yeah'
p837
g3
F0.9962
tp838
a(S'but'
p839
g285
F0.9908
tp840
a(S'who'
p841
g33
F0.996
tp842
a(g78
g10
F0.8052
tp843
a(S'punished'
p844
g10
F0.9865
tp845
a(S'from'
p846
g30
F0.9993
tp847
a(S'the'
p848
g13
F0.9988
tp849
a(S'toy'
p850
g16
F0.9659
tp851
a(S'stores'
p852
g16
F0.9668
tp853
asI105
(lp854
(S'you'
p855
g33
F0.9909
tp856
a(S'are'
p857
g10
F0.9985
tp858
asI106
(lp859
(S'no'
p860
g3
F0.8769
tp861
a(S'you'
p862
g33
F0.9938
tp863
a(S'are'
p864
g10
F0.9991
tp865
asI107
(lp866
(S'yes'
p867
g3
F0.9836
tp868
a(S'you'
p869
g33
F0.9964
tp870
a(S'are'
p871
g10
F0.9991
tp872
asI108
(lp873
(S'you'
p874
g33
F0.963
tp875
a(S're'
p876
g10
F0.7681
tp877
a(S'punished'
p878
g10
F0.9671
tp879
asI109
(lp880
(S'no'
p881
g3
F0.6532
tp882
a(g306
g33
F0.9524
tp883
a(S'ain'
p884
g10
F0.9771
tp885
a(g291
g79
F0.4851
tp886
asI110
(lp887
(S'how'
p888
g7
F0.9782
tp889
a(S'come'
p890
g10
F0.9829
tp891
asI111
(lp892
(g306
g33
F0.9843
tp893
a(S'go'
p894
g10
F0.9994
tp895
a(S'to'
p896
g30
F0.9797
tp897
a(S'chucky'
p898
g54
F0.4871
tp899
a(S'cheese'
p900
g16
F0.968
tp901
asI112
(lp902
(S'someday'
p903
g7
F0.783
tp904
asI113
(lp905
(S'be'
p906
g10
F0.9727
tp907
a(S'cause'
p908
g30
F0.9636
tp909
a(S'we'
p910
g33
F0.9975
tp911
a(S'never'
p912
g7
F0.9979
tp913
a(S'go'
p914
g10
F0.9944
tp915
a(S'to'
p916
g30
F0.9862
tp917
a(S'chucky'
p918
g54
F0.5548
tp919
a(S'cheese'
p920
g16
F0.9735
tp921
asI114
(lp922
(g306
g33
F0.9908
tp923
a(S'miss'
p924
g10
F0.998
tp925
a(S'chucky'
p926
g16
F0.6058
tp927
a(S'cheese'
p928
g16
F0.9988
tp929
asI115
(lp930
(S'we'
p931
g33
F0.9973
tp932
a(S'have'
p933
g10
F0.9996
tp934
a(S'to'
p935
g30
F0.9967
tp936
a(S'get'
p937
g10
F0.9999
tp938
a(S'some'
p939
g13
F0.8123
tp940
a(S'of'
p941
g30
F0.9958
tp942
a(S'this'
p943
g13
F0.9876
tp944
a(S'stuff'
p945
g16
F0.9976
tp946
a(S'for'
p947
g30
F0.9963
tp948
a(S'new'
p949
g43
F0.9825
tp950
a(S'york'
p951
g16
F0.7214
tp952
asI116
(lp953
(S'what'
p954
g33
F0.949
tp955
asI117
(lp956
(S'some'
p957
g13
F0.7972
tp958
a(S'of'
p959
g30
F0.9957
tp960
a(S'this'
p961
g13
F0.95
tp962
a(S'summery'
p963
g43
F0.8242
tp964
a(S'stuff'
p965
g16
F0.9986
tp966
a(S'to'
p967
g30
F0.9992
tp968
a(S'put'
p969
g10
F0.9968
tp970
a(S'in'
p971
g30
F0.9562
tp972
a(S'the'
p973
g13
F0.9993
tp974
a(S'yard'
p975
g16
F0.9756
tp976
asI118
(lp977
(S'mommy'
p978
g16
F0.5271
tp979
asI119
(lp980
(S'how'
p981
g7
F0.9957
tp982
a(S'about'
p983
g30
F0.9971
tp984
a(S'the'
p985
g13
F0.9988
tp986
a(S'orange'
p987
g43
F0.9498
tp988
a(S'things'
p989
g16
F0.999
tp990
a(S'that'
p991
g30
F0.9614
tp992
a(S'that'
p993
g30
F0.4763
tp994
a(S'we'
p995
g33
F0.9982
tp996
a(S'went'
p997
g10
F0.9994
tp998
a(S'to'
p999
g30
F0.9447
tp1000
a(S'to'
p1001
g30
F0.9444
tp1002
a(S'the'
p1003
g13
F0.9885
tp1004
a(S'e'
p1005
g16
F0.4224
tp1006
a(S'l'
p1007
g16
F0.5837
tp1008
a(S'and'
p1009
g285
F0.9979
tp1010
a(S'we'
p1011
g33
F0.9952
tp1012
a(S'ha'
p1013
g3
F0.6683
tp1014
a(S'and'
p1015
g285
F0.9991
tp1016
a(S'we'
p1017
g33
F0.9977
tp1018
a(S'brought'
p1019
g10
F0.9997
tp1020
a(g170
g13
F0.998
tp1021
a(S'game'
p1022
g16
F0.9958
tp1023
a(S'the'
p1024
g13
F0.9947
tp1025
a(S'orange'
p1026
g43
F0.9806
tp1027
a(S'one'
p1028
g698
F0.7989
tp1029
asI120
(lp1030
(S'this'
p1031
g33
F0.5028
tp1032
asI121
(lp1033
(S'yeah'
p1034
g3
F0.9988
tp1035
asI122
(lp1036
(S'yeah'
p1037
g3
F0.9988
tp1038
asI123
(lp1039
(S'talkin'
p1040
g10
F0.7105
tp1041
a(S'g'
p1042
g10
F0.426
tp1043
a(S'about'
p1044
g30
F0.8778
tp1045
asI124
(lp1046
(S'mommy'
p1047
g16
F0.5271
tp1048
asI125
(lp1049
(S'what'
p1050
g33
F0.949
tp1051
asI126
(lp1052
(g306
g33
F0.9805
tp1053
a(S'never'
p1054
g7
F0.993
tp1055
a(S'buy'
p1056
g10
F0.9986
tp1057
a(S'it'
p1058
g33
F0.9894
tp1059
asI127
(lp1060
(S'this'
p1061
g33
F0.5028
tp1062
asI128
(lp1063
(S'not'
p1064
g7
F0.954
tp1065
a(S'that'
p1066
g33
F0.7489
tp1067
asI129
(lp1068
(S'mhm'
p1069
g3
F0.9747
tp1070
asI130
(lp1071
(S'not'
p1072
g7
F0.954
tp1073
a(S'that'
p1074
g33
F0.7489
tp1075
asI131
(lp1076
(g306
g33
F0.9805
tp1077
a(S'never'
p1078
g7
F0.9924
tp1079
a(S'buy'
p1080
g10
F0.9959
tp1081
a(S'these'
p1082
g13
F0.9936
tp1083
a(S'toys'
p1084
g16
F0.9965
tp1085
asI132
(lp1086
(S'you'
p1087
g33
F0.9926
tp1088
a(S'don'
p1089
g10
F0.8675
tp1090
a(g291
g16
F0.2417
tp1091
a(S'take'
p1092
g10
F0.9705
tp1093
a(S'care'
p1094
g16
F0.8957
tp1095
a(S'of'
p1096
g30
F0.9988
tp1097
a(S'your'
p1098
g13
F0.997
tp1099
a(S'toys'
p1100
g16
F0.999
tp1101
a(S'that'
p1102
g30
F0.9372
tp1103
a(g78
g79
F0.6591
tp1104
a(S'why'
p1105
g7
F0.9028
tp1106
asI133
(lp1107
(S'so'
p1108
g30
F0.8338
tp1109
a(S'you'
p1110
g33
F0.9996
tp1111
a(S'can'
p1112
g10
F0.9994
tp1113
a(g291
g10
F0.6946
tp1114
a(S'get'
p1115
g10
F0.9991
tp1116
a(S'any'
p1117
g13
F0.9939
tp1118
a(S'toys'
p1119
g16
F0.997
tp1120
asI134
(lp1121
(S'you'
p1122
g33
F0.998
tp1123
a(S'have'
p1124
g10
F0.9994
tp1125
a(S'to'
p1126
g30
F0.9952
tp1127
a(S'take'
p1128
g10
F0.9973
tp1129
a(S'care'
p1130
g16
F0.8957
tp1131
a(S'of'
p1132
g30
F0.9935
tp1133
a(S'toys'
p1134
g16
F0.9856
tp1135
a(S'in'
p1136
g30
F0.9967
tp1137
a(S'order'
p1138
g16
F0.9295
tp1139
a(S'to'
p1140
g30
F0.9992
tp1141
a(S'get'
p1142
g10
F0.9993
tp1143
a(S'new'
p1144
g43
F0.9992
tp1145
a(S'ones'
p1146
g16
F0.959
tp1147
asI135
(lp1148
(S'mommy'
p1149
g16
F0.5271
tp1150
asI136
(lp1151
(S'what'
p1152
g33
F0.949
tp1153
asI137
(lp1154
(S'know'
p1155
g10
F0.9511
tp1156
a(S'what'
p1157
g33
F0.9922
tp1158
asI138
(lp1159
(S'you'
p1160
g33
F0.9969
tp1161
a(S'can'
p1162
g10
F0.9992
tp1163
a(S'bowl'
p1164
g16
F0.8465
tp1165
a(S'at'
p1166
g30
F0.9995
tp1167
a(S'chucky'
p1168
g54
F0.7537
tp1169
a(S'cheese'
p1170
g16
F0.9653
tp1171
a(S'right'
p1172
g7
F0.3306
tp1173
asI139
(lp1174
(g306
g33
F0.9635
tp1175
a(S'don'
p1176
g10
F0.9156
tp1177
a(g291
g16
F0.3074
tp1178
a(S'know'
p1179
g10
F0.965
tp1180
asI140
(lp1181
(S'you'
p1182
g33
F0.9969
tp1183
a(S'can'
p1184
g10
F0.9999
tp1185
a(S'do'
p1186
g10
F0.9998
tp1187
a(S'whatever'
p1188
g3
F0.4487
tp1189
a(S'you'
p1190
g33
F0.9988
tp1191
a(S'want'
p1192
g10
F0.9997
tp1193
a(S'to'
p1194
g30
F0.9753
tp1195
asI141
(lp1196
(g306
g33
F0.9805
tp1197
a(S'never'
p1198
g7
F0.9925
tp1199
a(S'went'
p1200
g10
F0.9962
tp1201
a(S'there'
p1202
g7
F0.8925
tp1203
asI142
(lp1204
(S'there'
p1205
g497
F0.4664
tp1206
a(g78
g13
F0.4197
tp1207
a(S'toys'
p1208
g16
F0.9968
tp1209
a(S'there'
p1210
g7
F0.869
tp1211
asI143
(lp1212
(S'yeah'
p1213
g3
F0.9988
tp1214
asI144
(lp1215
(S'yeah'
p1216
g3
F0.9864
tp1217
a(S'comes'
p1218
g10
F0.9745
tp1219
a(S'and'
p1220
g285
F0.9978
tp1221
a(S'it'
p1222
g33
F0.997
tp1223
a(S'comes'
p1224
g10
F0.9995
tp1225
a(S'on'
p1226
g30
F0.8548
tp1227
a(S'tv'
p1228
g16
F0.9531
tp1229
asI145
(lp1230
(S'it'
p1231
g33
F0.9962
tp1232
a(S'says'
p1233
g10
F0.9993
tp1234
a(S'chucky'
p1235
g16
F0.6097
tp1236
a(S'cheese'
p1237
g16
F0.9968
tp1238
a(S'when'
p1239
g7
F0.9876
tp1240
a(S'kid'
p1241
g16
F0.705
tp1242
a(S'used'
p1243
g10
F0.9549
tp1244
a(S'to'
p1245
g30
F0.9872
tp1246
a(S'be'
p1247
g10
F0.9998
tp1248
a(g170
g13
F0.9934
tp1249
a(S'kid'
p1250
g16
F0.9835
tp1251
asI146
(lp1252
(S'www'
p1253
g54
F0.3889
tp1254
asI147
(lp1255
(g306
g33
F0.9756
tp1256
a(S'didn'
p1257
g10
F0.9919
tp1258
a(g291
g10
F0.7723
tp1259
a(S'see'
p1260
g10
F0.9852
tp1261
a(S'that'
p1262
g13
F0.41
tp1263
asI148
(lp1264
(S'xxx'
p1265
g129
F0.8437
tp1266
asI149
(lp1267
(S'xxx'
p1268
g129
F0.8437
tp1269
asI150
(lp1270
(S'maybe'
p1271
g7
F0.9387
tp1272
a(S'we'
p1273
g33
F0.9984
tp1274
a(S'can'
p1275
g10
F0.9996
tp1276
a(S'go'
p1277
g10
F0.9993
tp1278
a(S'to'
p1279
g30
F0.9855
tp1280
a(S'chucky'
p1281
g54
F0.5271
tp1282
a(S'cheese'
p1283
g16
F0.9797
tp1284
a(S'on'
p1285
g30
F0.9973
tp1286
a(S'one'
p1287
g698
F0.924
tp1288
a(S'of'
p1289
g30
F0.9996
tp1290
a(S'the'
p1291
g13
F0.9987
tp1292
a(S'days'
p1293
g16
F0.996
tp1294
asI151
(lp1295
(S'mommy'
p1296
g16
F0.5271
tp1297
asI152
(lp1298
(S'when'
p1299
g7
F0.9797
tp1300
a(S'daddy'
p1301
g16
F0.9484
tp1302
a(g78
g79
F0.7191
tp1303
a(S'here'
p1304
g7
F0.9178
tp1305
a(S'we'
p1306
g33
F0.9995
tp1307
a(S'can'
p1308
g10
F0.9997
tp1309
a(S'ask'
p1310
g10
F0.9999
tp1311
a(S'him'
p1312
g33
F0.9892
tp1313
asI153
(lp1314
(S'mommy'
p1315
g16
F0.5271
tp1316
asI154
(lp1317
(S'what'
p1318
g33
F0.949
tp1319
asI155
(lp1320
(S'um'
p1321
g3
F0.9388
tp1322
a(S'maybe'
p1323
g7
F0.9126
tp1324
a(S'they'
p1325
g33
F0.9882
tp1326
a(S'couldn'
p1327
g10
F0.9883
tp1328
a(g291
g10
F0.7356
tp1329
a(S'go'
p1330
g10
F0.9907
tp1331
a(S'to'
p1332
g30
F0.9855
tp1333
a(S'chucky'
p1334
g54
F0.5271
tp1335
a(S'cheese'
p1336
g16
F0.9893
tp1337
a(S'after'
p1338
g30
F0.9966
tp1339
a(S'you'
p1340
g33
F0.9995
tp1341
a(S're'
p1342
g10
F0.8364
tp1343
a(S'bein'
p1344
g10
F0.7453
tp1345
a(g1042
g10
F0.2343
tp1346
a(S'fresh'
p1347
g43
F0.989
tp1348
asI156
(lp1349
(S'juju'
p1350
g54
F0.8113
tp1351
a(S'bes'
p1352
g79
F0.4022
tp1353
a(S'c'
p1354
g79
F0.7221
tp1355
a(S'fresh'
p1356
g43
F0.985
tp1357
a(S'the'
p1358
g13
F0.9963
tp1359
a(S'most'
p1360
g7
F0.4649
tp1361
asI157
(lp1362
(S'juju'
p1363
g54
F0.5673
tp1364
a(S'yeah'
p1365
g3
F0.9989
tp1366
asI158
(lp1367
(S'why'
p1368
g7
F0.8436
tp1369
a(S'what'
p1370
g33
F0.9973
tp1371
a(S'does'
p1372
g10
F0.9964
tp1373
a(S'he'
p1374
g33
F0.9989
tp1375
a(S'do'
p1376
g10
F0.9996
tp1377
asI159
(lp1378
(S'he'
p1379
g33
F0.9928
tp1380
a(S'doesn'
p1381
g10
F0.9962
tp1382
a(g291
g10
F0.2297
tp1383
a(S'do'
p1384
g10
F0.993
tp1385
a(S'what'
p1386
g33
F0.9906
tp1387
a(S'the'
p1388
g13
F0.999
tp1389
a(S'teacher'
p1390
g16
F0.9653
tp1391
a(S'says'
p1392
g10
F0.9869
tp1393
asI160
(lp1394
(S'he'
p1395
g33
F0.996
tp1396
a(S'gets'
p1397
g10
F1.0
tp1398
a(S'up'
p1399
g372
F0.9646
tp1400
a(S'at'
p1401
g30
F0.9958
tp1402
a(S'nap'
p1403
g16
F0.8987
tp1404
a(S'he'
p1405
g33
F0.985
tp1406
a(S'plays'
p1407
g10
F0.993
tp1408
asI161
(lp1409
(S'really'
p1410
g7
F0.9938
tp1411
asI162
(lp1412
(S'when'
p1413
g7
F0.9604
tp1414
a(S'we'
p1415
g33
F0.9961
tp1416
a(S'don'
p1417
g10
F0.8127
tp1418
a(g291
g30
F0.2568
tp1419
a(S'play'
p1420
g10
F0.9688
tp1421
asI163
(lp1422
(S'when'
p1423
g7
F0.9604
tp1424
a(S'we'
p1425
g33
F0.9891
tp1426
a(S're'
p1427
g10
F0.5119
tp1428
a(S'still'
p1429
g7
F0.9954
tp1430
a(S'on'
p1431
g30
F0.9785
tp1432
a(S'the'
p1433
g13
F0.9991
tp1434
a(S'mat'
p1435
g16
F0.9445
tp1436
asI164
(lp1437
(S'you'
p1438
g33
F0.9979
tp1439
a(S'do'
p1440
g10
F0.9997
tp1441
a(S'what'
p1442
g33
F0.991
tp1443
a(S'the'
p1444
g13
F0.9992
tp1445
a(S'teacher'
p1446
g16
F0.9592
tp1447
a(S'says'
p1448
g10
F0.9832
tp1449
a(S'huh'
p1450
g3
F0.9678
tp1451
asI165
(lp1452
(S'what'
p1453
g33
F0.949
tp1454
asI166
(lp1455
(S'you'
p1456
g33
F0.9979
tp1457
a(S'do'
p1458
g10
F0.9997
tp1459
a(S'what'
p1460
g33
F0.991
tp1461
a(S'the'
p1462
g13
F0.9991
tp1463
a(S'teacher'
p1464
g16
F0.9592
tp1465
a(S'says'
p1466
g10
F0.9871
tp1467
asI167
(lp1468
(S'yeah'
p1469
g3
F0.9988
tp1470
asI168
(lp1471
(S'not'
p1472
g7
F0.9682
tp1473
a(S'the'
p1474
g13
F0.9987
tp1475
a(S'other'
p1476
g43
F0.9919
tp1477
a(S'kids'
p1478
g16
F0.9925
tp1479
asI169
(lp1480
(S'yeah'
p1481
g3
F0.9988
tp1482
asI170
(lp1483
(S'the'
p1484
g13
F0.999
tp1485
a(S'other'
p1486
g43
F0.9962
tp1487
a(S'kids'
p1488
g16
F0.9915
tp1489
a(S'be'
p1490
g10
F0.9956
tp1491
a(S'mean'
p1492
g10
F0.8011
tp1493
a(S'to'
p1494
g30
F0.9783
tp1495
a(S'other'
p1496
g43
F0.9884
tp1497
a(S'kids'
p1498
g16
F0.989
tp1499
asI171
(lp1500
(S'who'
p1501
g33
F0.9886
tp1502
a(g78
g10
F0.6684
tp1503
a(S'mean'
p1504
g10
F0.7557
tp1505
asI172
(lp1506
(S'all'
p1507
g497
F0.7572
tp1508
a(S'the'
p1509
g13
F0.9999
tp1510
a(S'other'
p1511
g43
F0.9919
tp1512
a(S'kids'
p1513
g16
F0.9925
tp1514
asI173
(lp1515
(S'how'
p1516
g7
F0.9782
tp1517
a(S'come'
p1518
g10
F0.9829
tp1519
asI174
(lp1520
(S'chi'
p1521
g54
F0.6082
tp1522
a(S'eat'
p1523
g10
F0.8395
tp1524
asI175
(lp1525
(S'come'
p1526
g10
F0.9897
tp1527
a(S'on'
p1528
g30
F0.9533
tp1529
a(S'you'
p1530
g33
F0.9961
tp1531
a(S're'
p1532
g10
F0.6029
tp1533
a(S'not'
p1534
g7
F0.9966
tp1535
a(S'eating'
p1536
g10
F0.9968
tp1537
asI176
(lp1538
(S'you'
p1539
g33
F0.998
tp1540
a(S'used'
p1541
g10
F0.9743
tp1542
a(S'to'
p1543
g30
F0.9798
tp1544
a(S'eating'
p1545
g10
F0.9999
tp1546
a(S'that'
p1547
g13
F0.8929
tp1548
a(S'stuff'
p1549
g16
F0.9967
tp1550
asI177
(lp1551
(S'chips'
p1552
g16
F0.921
tp1553
asI178
(lp1554
(S'www'
p1555
g54
F0.3889
tp1556
asI179
(lp1557
(S'what'
p1558
g33
F0.9835
tp1559
a(S'are'
p1560
g10
F0.9976
tp1561
a(S'you'
p1562
g33
F0.9994
tp1563
a(S'doing'
p1564
g10
F0.9994
tp1565
asI180
(lp1566
(S'come'
p1567
g10
F0.9897
tp1568
a(S'on'
p1569
g30
F0.922
tp1570
a(S'let'
p1571
g16
F0.5745
tp1572
a(g78
g79
F0.707
tp1573
a(S'go'
p1574
g10
F0.9533
tp1575
asI181
(lp1576
(S'look'
p1577
g10
F0.8861
tp1578
a(S'who'
p1579
g33
F0.9983
tp1580
a(g78
g10
F0.7297
tp1581
a(S'eating'
p1582
g10
F0.9873
tp1583
asI182
(lp1584
(S'are'
p1585
g10
F0.9964
tp1586
a(S'you'
p1587
g33
F0.9995
tp1588
a(S'looking'
p1589
g10
F0.9963
tp1590
a(S'are'
p1591
g10
F0.9895
tp1592
a(S'you'
p1593
g33
F0.9996
tp1594
a(S'looking'
p1595
g10
F0.9982
tp1596
a(S'at'
p1597
g30
F0.9993
tp1598
a(S'the'
p1599
g13
F0.9996
tp1600
a(S'baby'
p1601
g16
F0.9941
tp1602
a(S'stuff'
p1603
g16
F0.9892
tp1604
asI183
(lp1605
(S'are'
p1606
g10
F0.9964
tp1607
a(S'you'
p1608
g33
F0.9989
tp1609
a(S'lookin'
p1610
g10
F0.9902
tp1611
a(g1042
g10
F0.3991
tp1612
a(S'at'
p1613
g30
F0.9989
tp1614
a(S'the'
p1615
g13
F0.9995
tp1616
a(S'baby'
p1617
g16
F0.9887
tp1618
a(S'stuff'
p1619
g16
F0.9938
tp1620
asI184
(lp1621
(S'yeah'
p1622
g3
F0.9968
tp1623
a(g306
g33
F0.9948
tp1624
a(S'looked'
p1625
g10
F0.9995
tp1626
a(S'at'
p1627
g30
F0.998
tp1628
a(S'them'
p1629
g33
F0.9151
tp1630
asI185
(lp1631
(S'maybe'
p1632
g7
F0.9387
tp1633
a(S'we'
p1634
g33
F0.9984
tp1635
a(S'can'
p1636
g10
F0.9996
tp1637
a(S'go'
p1638
g10
F0.9952
tp1639
a(S'and'
p1640
g285
F0.979
tp1641
a(S'get'
p1642
g10
F0.9996
tp1643
a(S'her'
p1644
g13
F0.928
tp1645
a(S'present'
p1646
g16
F0.7444
tp1647
asI186
(lp1648
(S'are'
p1649
g10
F0.9904
tp1650
a(S'they'
p1651
g33
F0.9958
tp1652
a(S'presents'
p1653
g10
F0.9989
tp1654
a(S'for'
p1655
g30
F0.9996
tp1656
a(S'the'
p1657
g13
F0.9995
tp1658
a(S'baby'
p1659
g16
F0.9956
tp1660
a(S'right'
p1661
g7
F0.3098
tp1662
asI187
(lp1663
(S'mhm'
p1664
g3
F0.9747
tp1665
asI188
(lp1666
(S'yup'
p1667
g3
F0.9978
tp1668
asI189
(lp1669
(S'hey'
p1670
g3
F0.9863
tp1671
a(S'tell'
p1672
g10
F0.9949
tp1673
a(S'me'
p1674
g33
F0.9993
tp1675
a(S'what'
p1676
g33
F0.8651
tp1677
a(S'you'
p1678
g33
F0.9998
tp1679
a(S'did'
p1680
g10
F0.9997
tp1681
a(S'in'
p1682
g30
F0.9685
tp1683
a(S'school'
p1684
g16
F0.998
tp1685
a(S'today'
p1686
g16
F0.9955
tp1687
a(S'besides'
p1688
g30
F0.9688
tp1689
a(S'get'
p1690
g10
F0.9855
tp1691
a(S'in'
p1692
g30
F0.9366
tp1693
a(S'trouble'
p1694
g16
F0.978
tp1695
asI190
(lp1696
(g306
g33
F0.8129
tp1697
a(S'colored'
p1698
g43
F0.8796
tp1699
asI191
(lp1700
(S'yeah'
p1701
g3
F0.9988
tp1702
asI192
(lp1703
(S'did'
p1704
g10
F0.9986
tp1705
a(S'you'
p1706
g33
F0.9993
tp1707
a(S'do'
p1708
g10
F0.9999
tp1709
a(S'some'
p1710
g13
F0.9948
tp1711
a(S'letters'
p1712
g16
F0.9835
tp1713
asI193
(lp1714
(S'did'
p1715
g10
F0.9986
tp1716
a(S'you'
p1717
g33
F0.9993
tp1718
a(S'do'
p1719
g10
F0.9999
tp1720
a(S'some'
p1721
g13
F0.9145
tp1722
a(S'more'
p1723
g43
F0.9889
tp1724
a(S'letters'
p1725
g16
F0.9955
tp1726
asI194
(lp1727
(S'yup'
p1728
g3
F0.9978
tp1729
asI195
(lp1730
(S'mommy'
p1731
g16
F0.5271
tp1732
asI196
(lp1733
(g306
g33
F0.9914
tp1734
a(S'was'
p1735
g10
F0.9999
tp1736
a(S'the'
p1737
g13
F0.9923
tp1738
a(S'only'
p1739
g43
F0.9647
tp1740
a(S'one'
p1741
g698
F0.9537
tp1742
a(S'that'
p1743
g30
F0.9053
tp1744
a(S'that'
p1745
g33
F0.955
tp1746
a(S'did'
p1747
g10
F0.9995
tp1748
a(S'the'
p1749
g13
F0.9996
tp1750
a(S'numbers'
p1751
g16
F0.9894
tp1752
asI197
(lp1753
(S'and'
p1754
g285
F0.9991
tp1755
a(S'nobody'
p1756
g16
F0.9582
tp1757
a(S'else'
p1758
g7
F0.8929
tp1759
asI198
(lp1760
(S'they'
p1761
g33
F0.9795
tp1762
a(S'didn'
p1763
g10
F0.9891
tp1764
a(g291
g10
F0.7417
tp1765
a(S'even'
p1766
g7
F0.9958
tp1767
a(S'know'
p1768
g10
F0.9992
tp1769
a(S'they'
p1770
g33
F0.6444
tp1771
a(S'numbers'
p1772
g16
F0.8438
tp1773
asI199
(lp1774
(S'really'
p1775
g7
F0.9938
tp1776
asI200
(lp1777
(g306
g33
F0.9946
tp1778
a(S'did'
p1779
g10
F0.9994
tp1780
a(g306
g33
F0.9982
tp1781
a(S'did'
p1782
g10
F0.9999
tp1783
a(S'all'
p1784
g497
F0.5085
tp1785
a(S'the'
p1786
g13
F0.9999
tp1787
a(S'numbers'
p1788
g16
F0.9955
tp1789
a(S'that'
p1790
g30
F0.8204
tp1791
a(g306
g33
F0.9957
tp1792
a(S'could'
p1793
g10
F0.9998
tp1794
a(S'even'
p1795
g7
F0.9944
tp1796
a(S'know'
p1797
g10
F0.9938
tp1798
asI201
(lp1799
(S'you'
p1800
g33
F0.998
tp1801
a(S'wrote'
p1802
g10
F0.9998
tp1803
a(S'them'
p1804
g33
F0.99
tp1805
a(S'down'
p1806
g372
F0.4488
tp1807
asI202
(lp1808
(S'no'
p1809
g3
F0.9253
tp1810
asI203
(lp1811
(S'paula'
p1812
g54
F0.99
tp1813
a(S'did'
p1814
g10
F0.9804
tp1815
asI204
(lp1816
(S'you'
p1817
g33
F0.9971
tp1818
a(S'said'
p1819
g10
F0.9998
tp1820
a(S'them'
p1821
g33
F0.9822
tp1822
asI205
(lp1823
(S'what'
p1824
g33
F0.9965
tp1825
a(S'did'
p1826
g10
F0.9994
tp1827
a(S'you'
p1828
g33
F0.9989
tp1829
a(S'count'
p1830
g10
F0.9956
tp1831
a(S'something'
p1832
g16
F0.9792
tp1833
asI206
(lp1834
(S'and'
p1835
g285
F0.9973
tp1836
a(S'and'
p1837
g285
F0.999
tp1838
a(S'no'
p1839
g13
F0.8499
tp1840
a(S'other'
p1841
g43
F0.9371
tp1842
a(S'kid'
p1843
g16
F0.956
tp1844
a(S'didn'
p1845
g10
F0.8407
tp1846
a(g291
g10
F0.726
tp1847
a(S'even'
p1848
g7
F0.9949
tp1849
a(S'do'
p1850
g10
F0.9999
tp1851
a(S'it'
p1852
g33
F0.99
tp1853
asI207
(lp1854
(S'really'
p1855
g7
F0.9938
tp1856
asI208
(lp1857
(S'and'
p1858
g285
F0.9985
tp1859
a(S'david'
p1860
g54
F0.9942
tp1861
a(S'and'
p1862
g285
F0.9973
tp1863
a(S'ta'
p1864
g30
F0.9627
tp1865
a(S'nia'
p1866
g79
F0.5655
tp1867
a(S'we'
p1868
g33
F0.9958
tp1869
a(S'counted'
p1870
g10
F0.9932
tp1871
a(S'four'
p1872
g698
F0.4289
tp1873
asI209
(lp1874
(S'me'
p1875
g33
F0.9974
tp1876
a(S'and'
p1877
g285
F0.9936
tp1878
a(S'tania'
p1879
g54
F0.8353
tp1880
a(S'counted'
p1881
g10
F0.9646
tp1882
a(S'four'
p1883
g698
F0.4989
tp1884
a(S'so'
p1885
g30
F0.9395
tp1886
a(S'we'
p1887
g33
F0.9989
tp1888
a(S'got'
p1889
g10
F0.9986
tp1890
a(S'stickers'
p1891
g16
F0.9805
tp1892
asI210
(lp1893
(S'wow'
p1894
g3
F0.9963
tp1895
asI211
(lp1896
(S'be'
p1897
g10
F0.9727
tp1898
a(S'cause'
p1899
g30
F0.9636
tp1900
a(S'we'
p1901
g33
F0.9994
tp1902
a(S'did'
p1903
g10
F0.9999
tp1904
a(S'it'
p1905
g33
F0.9685
tp1906
a(S'good'
p1907
g43
F0.9948
tp1908
asI212
(lp1909
(S'we'
p1910
g33
F0.9971
tp1911
a(S'got'
p1912
g10
F0.9977
tp1913
a(S'four'
p1914
g698
F0.378
tp1915
asI213
(lp1916
(S'if'
p1917
g30
F0.9977
tp1918
a(S'you'
p1919
g33
F0.9996
tp1920
a(S'get'
p1921
g10
F0.9993
tp1922
a(S'four'
p1923
g30
F0.6491
tp1924
a(S'you'
p1925
g33
F0.9981
tp1926
a(S'get'
p1927
g10
F0.9999
tp1928
a(g170
g13
F0.9979
tp1929
a(S'sticker'
p1930
g16
F0.9936
tp1931
asI214
(lp1932
(S'www'
p1933
g54
F0.3889
tp1934
asI215
(lp1935
(S'and'
p1936
g285
F0.9989
tp1937
a(S'you'
p1938
g33
F0.9996
tp1939
a(S'got'
p1940
g10
F0.9984
tp1941
a(S'four'
p1942
g30
F0.4872
tp1943
a(S'you'
p1944
g33
F0.9977
tp1945
a(S'and'
p1946
g285
F0.9938
tp1947
a(S'tania'
p1948
g54
F0.8064
tp1949
asI216
(lp1950
(S'wow'
p1951
g3
F0.9963
tp1952
asI217
(lp1953
(S'now'
p1954
g7
F0.9804
tp1955
a(S'we'
p1956
g33
F0.9979
tp1957
a(S'got'
p1958
g10
F0.9998
tp1959
a(g170
g13
F0.9985
tp1960
a(S'sticker'
p1961
g16
F0.9958
tp1962
a(S'to'
p1963
g30
F0.9993
tp1964
a(S'buy'
p1965
g10
F0.999
tp1966
a(g170
g13
F0.9976
tp1967
a(S'sticker'
p1968
g16
F0.9962
tp1969
asI218
(lp1970
(S'xxx'
p1971
g129
F0.8437
tp1972
asI219
(lp1973
(S'to'
p1974
g30
F0.9909
tp1975
a(S'keep'
p1976
g10
F0.9966
tp1977
a(S'school'
p1978
g16
F0.9946
tp1979
asI220
(lp1980
(S'xxx'
p1981
g129
F0.6884
tp1982
a(S'school'
p1983
g16
F0.9812
tp1984
a(S'yeah'
p1985
g3
F0.9842
tp1986
asI221
(lp1987
(S'yeah'
p1988
g3
F0.9988
tp1989
asI222
(lp1990
(S'you'
p1991
g33
F0.998
tp1992
a(S'got'
p1993
g10
F0.9999
tp1994
a(S'it'
p1995
g33
F0.9789
tp1996
a(S'on'
p1997
g30
F0.9775
tp1998
a(S'the'
p1999
g13
F0.9997
tp2000
a(S'hand'
p2001
g16
F0.9972
tp2002
asI223
(lp2003
(S'what'
p2004
g33
F0.949
tp2005
asI224
(lp2006
(S'it'
p2007
g33
F0.9695
tp2008
a(S'it'
p2009
g33
F0.9573
tp2010
a(S'didn'
p2011
g10
F0.9716
tp2012
a(g291
g10
F0.4934
tp2013
a(S'stick'
p2014
g10
F0.9311
tp2015
asI225
(lp2016
(S'it'
p2017
g33
F0.995
tp2018
a(S'felled'
p2019
g10
F0.9941
tp2020
a(S'n'
p2021
g285
F0.672
tp2022
a(S'off'
p2023
g7
F0.8182
tp2024
a(S'and'
p2025
g285
F0.9974
tp2026
a(g306
g33
F0.9877
tp2027
a(S'and'
p2028
g285
F0.9977
tp2029
a(g306
g33
F0.9938
tp2030
a(S'saw'
p2031
g10
F0.9999
tp2032
a(S'it'
p2033
g33
F0.9872
tp2034
a(S'on'
p2035
g30
F0.9768
tp2036
a(S'the'
p2037
g13
F0.9994
tp2038
a(S'floor'
p2039
g16
F0.9947
tp2040
asI226
(lp2041
(S'yeah'
p2042
g3
F0.9988
tp2043
asI227
(lp2044
(S'and'
p2045
g285
F0.9986
tp2046
a(S'what'
p2047
g33
F0.9924
tp2048
a(S'about'
p2049
g30
F0.8768
tp2050
asI228
(lp2051
(S'what'
p2052
g33
F0.9965
tp2053
a(S'did'
p2054
g10
F0.9994
tp2055
a(S'you'
p2056
g33
F0.9994
tp2057
a(S'do'
p2058
g10
F0.9998
tp2059
a(S'with'
p2060
g30
F0.9987
tp2061
a(S'the'
p2062
g13
F0.9997
tp2063
a(S'numbers'
p2064
g16
F0.9922
tp2065
a(S'you'
p2066
g33
F0.9969
tp2067
a(S'counted'
p2068
g10
F0.9922
tp2069
a(S'and'
p2070
g285
F0.997
tp2071
a(S'paula'
p2072
g54
F0.9893
tp2073
a(S'wrote'
p2074
g10
F0.9961
tp2075
a(S'the'
p2076
g13
F0.9993
tp2077
a(S'number'
p2078
g16
F0.9977
tp2079
a(S'down'
p2080
g30
F0.3996
tp2081
asI229
(lp2082
(g306
g33
F0.9946
tp2083
a(S'did'
p2084
g10
F0.9995
tp2085
a(S'seven'
p2086
g698
F0.7349
tp2087
a(S'zero'
p2088
g698
F0.341
tp2089
a(S'six'
p2090
g698
F0.5248
tp2091
a(S'six'
p2092
g698
F0.507
tp2093
a(S'five'
p2094
g698
F0.459
tp2095
a(S'two'
p2096
g698
F0.9155
tp2097
a(S'one'
p2098
g698
F0.9077
tp2099
a(S'nine'
p2100
g16
F0.4016
tp2101
asI230
(lp2102
(g306
g33
F0.9946
tp2103
a(S'did'
p2104
g10
F1.0
tp2105
a(S'all'
p2106
g13
F0.8573
tp2107
a(S'of'
p2108
g30
F0.9972
tp2109
a(S'the'
p2110
g13
F0.9995
tp2111
a(S'numbers'
p2112
g16
F0.9921
tp2113
asI231
(lp2114
(S'alright'
p2115
g3
F0.9864
tp2116
asI232
(lp2117
(S'but'
p2118
g285
F0.995
tp2119
a(S'all'
p2120
g497
F0.6366
tp2121
a(S'the'
p2122
g13
F0.9998
tp2123
a(S'kids'
p2124
g16
F0.9828
tp2125
a(S'didn'
p2126
g10
F0.9574
tp2127
a(g291
g10
F0.5637
tp2128
asI233
(lp2129
(S'you'
p2130
g33
F0.9979
tp2131
a(S'do'
p2132
g10
F0.9999
tp2133
a(g170
g13
F0.9956
tp2134
a(S'great'
p2135
g43
F0.9994
tp2136
a(S'job'
p2137
g16
F0.995
tp2138
a(S'in'
p2139
g30
F0.9974
tp2140
a(S'school'
p2141
g16
F0.9967
tp2142
asI234
(lp2143
(S'and'
p2144
g285
F0.9987
tp2145
a(S'then'
p2146
g7
F0.9364
tp2147
a(S'my'
p2148
g13
F0.9925
tp2149
a(S'team'
p2150
g16
F0.9991
tp2151
a(S'then'
p2152
g7
F0.6695
tp2153
a(S'the'
p2154
g13
F0.9983
tp2155
a(S'other'
p2156
g43
F0.9755
tp2157
a(S'team'
p2158
g16
F0.9972
tp2159
a(S'was'
p2160
g10
F0.9967
tp2161
a(S'coloring'
p2162
g10
F0.8007
tp2163
asI235
(lp2164
(S'really'
p2165
g7
F0.9938
tp2166
asI236
(lp2167
(S'mommy'
p2168
g16
F0.8045
tp2169
a(g306
g33
F0.7131
tp2170
a(S'mommy'
p2171
g16
F0.3295
tp2172
asI237
(lp2173
(S'yeah'
p2174
g3
F0.9988
tp2175
asI238
(lp2176
(g306
g33
F0.9914
tp2177
a(S'was'
p2178
g10
F0.9998
tp2179
a(S'at'
p2180
g30
F0.9961
tp2181
a(S'the'
p2182
g13
F0.9992
tp2183
a(S'yellow'
p2184
g43
F0.9436
tp2185
a(S'table'
p2186
g16
F0.9989
tp2187
a(S'today'
p2188
g16
F0.9905
tp2189
asI239
(lp2190
(S'that'
p2191
g33
F0.473
tp2192
a(g78
g10
F0.6131
tp2193
a(S'my'
p2194
g13
F0.6671
tp2195
a(S'that'
p2196
g30
F0.5661
tp2197
a(g78
g79
F0.4957
tp2198
a(S'my'
p2199
g13
F0.994
tp2200
a(S'table'
p2201
g16
F0.998
tp2202
asI240
(lp2203
(S'you'
p2204
g33
F0.9754
tp2205
a(S're'
p2206
g10
F0.6103
tp2207
a(S'at'
p2208
g30
F0.9946
tp2209
a(g170
g13
F0.999
tp2210
a(S'new'
p2211
g43
F0.9987
tp2212
a(S'table'
p2213
g16
F0.9877
tp2214
asI241
(lp2215
(S'yeah'
p2216
g3
F0.9988
tp2217
asI242
(lp2218
(S'no'
p2219
g13
F0.5584
tp2220
a(S'orange'
p2221
g16
F0.5729
tp2222
asI243
(lp2223
(S'no'
p2224
g3
F0.4113
tp2225
a(S'more'
p2226
g43
F0.7881
tp2227
a(S'orange'
p2228
g43
F0.6335
tp2229
asI244
(lp2230
(S'no'
p2231
g13
F0.4023
tp2232
a(S'more'
p2233
g43
F0.8147
tp2234
a(S'orange'
p2235
g43
F0.9244
tp2236
a(S'table'
p2237
g16
F0.9989
tp2238
asI245
(lp2239
(S'you'
p2240
g33
F0.998
tp2241
a(S'got'
p2242
g10
F0.9998
tp2243
a(g170
g13
F0.9959
tp2244
a(S'yellow'
p2245
g43
F0.976
tp2246
a(S'table'
p2247
g16
F0.9977
tp2248
a(S'now'
p2249
g7
F0.9913
tp2250
asI246
(lp2251
(S'uhhuh'
p2252
g3
F0.9892
tp2253
asI247
(lp2254
(S'that'
p2255
g33
F0.473
tp2256
a(g78
g10
F0.5844
tp2257
a(g170
g13
F0.9908
tp2258
a(S'gold'
p2259
g43
F0.5252
tp2260
asI248
(lp2261
(g306
g33
F0.953
tp2262
a(S'm'
p2263
g10
F0.9842
tp2264
a(S'at'
p2265
g30
F0.9983
tp2266
a(S'the'
p2267
g13
F0.9988
tp2268
a(S'gold'
p2269
g43
F0.6207
tp2270
a(S'table'
p2271
g16
F0.9985
tp2272
asI249
(lp2273
(S'are'
p2274
g10
F0.9964
tp2275
a(S'you'
p2276
g33
F0.9949
tp2277
a(S'happy'
p2278
g43
F0.924
tp2279
a(S'that'
p2280
g30
F0.9545
tp2281
a(S'you'
p2282
g33
F0.9996
tp2283
a(S'changed'
p2284
g10
F0.9627
tp2285
a(S'tables'
p2286
g16
F0.9861
tp2287
asI250
(lp2288
(S'uhhuh'
p2289
g3
F0.9892
tp2290
asI251
(lp2291
(S'yeah'
p2292
g3
F0.9988
tp2293
asI252
(lp2294
(g306
g33
F0.9844
tp2295
a(S'sit'
p2296
g10
F0.9989
tp2297
a(S'next'
p2298
g43
F0.5568
tp2299
a(S'to'
p2300
g30
F0.9954
tp2301
a(S'paula'
p2302
g54
F0.9802
tp2303
asI253
(lp2304
(S'you'
p2305
g33
F0.9969
tp2306
a(S'do'
p2307
g10
F0.9993
tp2308
asI254
(lp2309
(S'you'
p2310
g33
F0.9948
tp2311
a(S'love'
p2312
g10
F0.9753
tp2313
a(S'paula'
p2314
g54
F0.9826
tp2315
a(S'huh'
p2316
g3
F0.9528
tp2317
asI255
(lp2318
(S'and'
p2319
g285
F0.9973
tp2320
a(S'and'
p2321
g285
F0.9954
tp2322
a(S'and'
p2323
g285
F0.9978
tp2324
a(S'david'
p2325
g54
F0.9866
tp2326
a(S'sits'
p2327
g10
F0.9817
tp2328
a(S'sits'
p2329
g10
F0.9475
tp2330
a(S'next'
p2331
g7
F0.5076
tp2332
a(S'to'
p2333
g30
F0.9942
tp2334
a(S'paula'
p2335
g54
F0.932
tp2336
a(S'too'
p2337
g7
F0.9675
tp2338
asI256
(lp2339
(S'yeah'
p2340
g3
F0.9988
tp2341
asI257
(lp2342
(S'david'
p2343
g54
F0.9964
tp2344
a(S'doesn'
p2345
g10
F0.9215
tp2346
a(g291
g16
F0.2764
tp2347
a(S'know'
p2348
g10
F0.995
tp2349
a(S'the'
p2350
g13
F0.9993
tp2351
a(S'rules'
p2352
g16
F0.9959
tp2353
asI258
(lp2354
(S'what'
p2355
g33
F0.9835
tp2356
a(S'are'
p2357
g10
F0.9919
tp2358
a(S'the'
p2359
g13
F0.9979
tp2360
a(S'rules'
p2361
g16
F0.9974
tp2362
asI259
(lp2363
(S'don'
p2364
g54
F0.4468
tp2365
a(g291
g54
F0.3726
tp2366
a(S'kick'
p2367
g16
F0.6071
tp2368
asI260
(lp2369
(S'don'
p2370
g54
F0.4468
tp2371
a(g291
g54
F0.3828
tp2372
a(S'pinch'
p2373
g16
F0.5172
tp2374
asI261
(lp2375
(S'don'
p2376
g54
F0.4468
tp2377
a(g291
g54
F0.3828
tp2378
a(S'punch'
p2379
g16
F0.6955
tp2380
asI262
(lp2381
(S'he'
p2382
g33
F0.996
tp2383
a(S'does'
p2384
g10
F1.0
tp2385
a(S'all'
p2386
g13
F0.4601
tp2387
a(S'that'
p2388
g33
F0.5408
tp2389
asI263
(lp2390
(S'don'
p2391
g54
F0.4468
tp2392
a(g291
g54
F0.384
tp2393
a(S'bite'
p2394
g10
F0.7275
tp2395
asI264
(lp2396
(S'does'
p2397
g10
F0.996
tp2398
a(S'he'
p2399
g33
F0.999
tp2400
a(S'do'
p2401
g10
F0.9999
tp2402
a(S'all'
p2403
g13
F0.4934
tp2404
a(S'that'
p2405
g13
F0.9356
tp2406
a(S'stuff'
p2407
g16
F0.9986
tp2408
a(g306
g33
F0.9565
tp2409
a(S'want'
p2410
g10
F1.0
tp2411
a(S'you'
p2412
g33
F0.9988
tp2413
a(S'to'
p2414
g30
F0.9908
tp2415
a(S'eat'
p2416
g10
F0.9889
tp2417
asI265
(lp2418
(S'come'
p2419
g10
F0.9866
tp2420
a(S'now'
p2421
g7
F0.9929
tp2422
asI266
(lp2423
(S'no'
p2424
g3
F0.719
tp2425
a(S'those'
p2426
g33
F0.5486
tp2427
a(S'are'
p2428
g10
F0.9941
tp2429
a(S'the'
p2430
g13
F0.9722
tp2431
a(S'those'
p2432
g33
F0.6121
tp2433
a(S'are'
p2434
g10
F0.9918
tp2435
a(S'the'
p2436
g13
F0.998
tp2437
a(S'rules'
p2438
g16
F0.996
tp2439
a(S'that'
p2440
g30
F0.9935
tp2441
a(S'he'
p2442
g33
F0.9981
tp2443
a(S'doesn'
p2444
g10
F0.9935
tp2445
a(g291
g16
F0.291
tp2446
a(S'know'
p2447
g10
F0.9812
tp2448
asI267
(lp2449
(S'oh'
p2450
g3
F0.9988
tp2451
asI268
(lp2452
(S'the'
p2453
g13
F0.9985
tp2454
a(S'teacher'
p2455
g16
F0.9669
tp2456
a(S'says'
p2457
g10
F0.9981
tp2458
a(S'no'
p2459
g7
F0.434
tp2460
a(S'to'
p2461
g30
F0.9857
tp2462
a(S'david'
p2463
g54
F0.9943
tp2464
asI269
(lp2465
(S'come'
p2466
g10
F0.9897
tp2467
a(S'on'
p2468
g30
F0.8683
tp2469
a(S'come'
p2470
g10
F0.794
tp2471
a(S'on'
p2472
g30
F0.4899
tp2473
asI270
(lp2474
(S'and'
p2475
g285
F0.9986
tp2476
a(S'mommy'
p2477
g16
F0.851
tp2478
a(S'today'
p2479
g16
F0.992
tp2480
a(S'steven'
p2481
g54
F0.9974
tp2482
a(S'been'
p2483
g10
F0.9777
tp2484
a(S'sick'
p2485
g43
F0.9778
tp2486
asI271
(lp2487
(S'yeah'
p2488
g3
F0.9988
tp2489
asI272
(lp2490
(S'he'
p2491
g33
F0.996
tp2492
a(S'got'
p2493
g10
F0.9996
tp2494
a(S'on'
p2495
g30
F0.7941
tp2496
a(S'his'
p2497
g13
F0.998
tp2498
a(S'cot'
p2499
g16
F0.9885
tp2500
a(S'today'
p2501
g16
F0.9968
tp2502
asI273
(lp2503
(S'who'
p2504
g33
F0.9957
tp2505
a(S'was'
p2506
g10
F0.9994
tp2507
a(S'sick'
p2508
g43
F0.9888
tp2509
asI274
(lp2510
(S'steven'
p2511
g54
F0.9866
tp2512
asI275
(lp2513
(S'what'
p2514
g33
F0.9923
tp2515
a(S'was'
p2516
g10
F0.9987
tp2517
a(S'the'
p2518
g13
F0.9998
tp2519
a(S'matter'
p2520
g16
F0.9866
tp2521
a(S'with'
p2522
g30
F0.9998
tp2523
a(S'him'
p2524
g33
F0.975
tp2525
a(S'he'
p2526
g33
F0.9916
tp2527
a(S'just'
p2528
g7
F0.9998
tp2529
a(S'didn'
p2530
g10
F0.956
tp2531
a(g291
g10
F0.7473
tp2532
a(S'feel'
p2533
g10
F0.973
tp2534
a(S'good'
p2535
g43
F0.9961
tp2536
asI276
(lp2537
(S'yes'
p2538
g3
F0.9958
tp2539
asI277
(lp2540
(g306
g33
F0.9635
tp2541
a(S'don'
p2542
g10
F0.9231
tp2543
a(g291
g16
F0.2457
tp2544
a(S'know'
p2545
g10
F0.9836
tp2546
a(S'what'
p2547
g33
F0.9952
tp2548
a(S'happened'
p2549
g10
F0.9944
tp2550
asI278
(lp2551
(S'poor'
p2552
g43
F0.6677
tp2553
a(S'steven'
p2554
g54
F0.9613
tp2555
a(S'huh'
p2556
g3
F0.9629
tp2557
asI279
(lp2558
(S'he'
p2559
g33
F0.9921
tp2560
a(S'go'
p2561
g10
F0.9987
tp2562
a(S'on'
p2563
g30
F0.9811
tp2564
a(S'his'
p2565
g13
F0.9981
tp2566
a(S'cot'
p2567
g16
F0.9888
tp2568
a(S'with'
p2569
g30
F0.9996
tp2570
a(g170
g13
F0.9992
tp2571
a(S'stuffy'
p2572
g43
F0.9698
tp2573
asI280
(lp2574
(S'yeah'
p2575
g3
F0.9988
tp2576
asI281
(lp2577
(S'he'
p2578
g33
F0.996
tp2579
a(S'got'
p2580
g10
F0.9983
tp2581
a(g1005
g79
F0.2546
tp2582
a(g1007
g79
F0.9481
tp2583
a(g291
g79
F0.9218
tp2584
a(g1007
g79
F0.8459
tp2585
asI282
(lp2586
(S'did'
p2587
g10
F0.991
tp2588
a(S'he'
p2589
g33
F0.9962
tp2590
a(S'go'
p2591
g10
F0.9992
tp2592
a(S'to'
p2593
g30
F0.9816
tp2594
a(S'sleep'
p2595
g10
F0.9414
tp2596
asI283
(lp2597
(S'no'
p2598
g3
F0.9253
tp2599
asI284
(lp2600
(S'just'
p2601
g7
F0.9993
tp2602
a(S'laid'
p2603
g10
F0.9984
tp2604
a(S'down'
p2605
g372
F0.7679
tp2606
a(S'for'
p2607
g30
F0.9992
tp2608
a(g170
g13
F0.8744
tp2609
a(S'while'
p2610
g16
F0.7224
tp2611
asI285
(lp2612
(S'and'
p2613
g285
F0.9987
tp2614
a(S'then'
p2615
g7
F0.9653
tp2616
a(S'he'
p2617
g33
F0.9982
tp2618
a(S'got'
p2619
g10
F0.9999
tp2620
a(S'up'
p2621
g372
F0.9932
tp2622
asI286
(lp2623
(S'yeah'
p2624
g3
F0.9988
tp2625
asI287
(lp2626
(S'did'
p2627
g10
F0.991
tp2628
a(S'he'
p2629
g33
F0.9969
tp2630
a(S'feel'
p2631
g10
F0.9968
tp2632
a(S'better'
p2633
g7
F0.5821
tp2634
a(S'when'
p2635
g7
F0.9921
tp2636
a(S'he'
p2637
g33
F0.997
tp2638
a(S'got'
p2639
g10
F0.9999
tp2640
a(S'up'
p2641
g372
F0.9864
tp2642
asI288
(lp2643
(S'uhhuh'
p2644
g3
F0.9892
tp2645
asI289
(lp2646
(S'no'
p2647
g3
F0.8387
tp2648
a(S'he'
p2649
g33
F0.9882
tp2650
a(S'didn'
p2651
g10
F0.9868
tp2652
a(g291
g10
F0.5161
tp2653
a(S'get'
p2654
g10
F0.9997
tp2655
a(S'up'
p2656
g372
F0.9793
tp2657
asI290
(lp2658
(S'and'
p2659
g285
F0.9986
tp2660
a(S'mommy'
p2661
g16
F0.8348
tp2662
a(S'know'
p2663
g10
F0.9898
tp2664
a(S'what'
p2665
g33
F0.9919
tp2666
asI291
(lp2667
(S'what'
p2668
g33
F0.949
tp2669
asI292
(lp2670
(S'when'
p2671
g7
F0.8799
tp2672
a(S'did'
p2673
g10
F0.9941
tp2674
a(S'he'
p2675
g33
F0.9987
tp2676
a(S'got'
p2677
g10
F0.9999
tp2678
a(S'up'
p2679
g372
F0.9932
tp2680
asI293
(lp2681
(S'he'
p2682
g33
F0.9977
tp2683
a(S'did'
p2684
g10
F0.9998
tp2685
a(S'this'
p2686
g33
F0.7072
tp2687
asI294
(lp2688
(S'dodo'
p2689
g16
F0.5445
tp2690
a(g1354
g16
F0.365
tp2691
a(S'dodo'
p2692
g16
F0.8583
tp2693
a(g1354
g16
F0.449
tp2694
a(S'dodo'
p2695
g16
F0.8007
tp2696
a(g1354
g16
F0.3981
tp2697
asI295
(lp2698
(S'that'
p2699
g33
F0.5447
tp2700
a(S'what'
p2701
g33
F0.9836
tp2702
a(S'he'
p2703
g33
F0.9994
tp2704
a(S'did'
p2705
g10
F0.9984
tp2706
asI296
(lp2707
(S'come'
p2708
g10
F0.9849
tp2709
a(S'on'
p2710
g372
F0.5632
tp2711
asI297
(lp2712
(S'taking'
p2713
g10
F0.9927
tp2714
a(S'too'
p2715
g7
F0.9973
tp2716
a(S'long'
p2717
g43
F0.9382
tp2718
a(S'to'
p2719
g30
F0.9991
tp2720
a(S'eat'
p2721
g10
F0.997
tp2722
a(S'now'
p2723
g7
F0.9953
tp2724
a(S'chi'
p2725
g54
F0.4512
tp2726
a(S'let'
p2727
g10
F0.8995
tp2728
a(g78
g79
F0.447
tp2729
a(S'go'
p2730
g10
F0.9474
tp2731
asI298
(lp2732
(g170
g13
F0.9703
tp2733
a(S'h'
p2734
g16
F0.7438
tp2735
asI299
(lp2736
(S'gimme'
p2737
g89
F0.828
tp2738
a(S'give'
p2739
g10
F0.9985
tp2740
a(S'me'
p2741
g33
F0.992
tp2742
a(S'this'
p2743
g13
F0.9618
tp2744
a(S'mail'
p2745
g16
F0.9948
tp2746
a(S'this'
p2747
g33
F0.9157
tp2748
a(S'is'
p2749
g10
F0.9954
tp2750
a(S'auntie'
p2751
g16
F0.4778
tp2752
a(S'lisa'
p2753
g54
F0.7832
tp2754
a(g78
g79
F0.7494
tp2755
asI300
(lp2756
(S'no'
p2757
g13
F0.4723
tp2758
a(S'give'
p2759
g10
F0.9665
tp2760
a(S'me'
p2761
g33
F0.9989
tp2762
a(S'back'
p2763
g7
F0.8754
tp2764
a(S'xxx'
p2765
g129
F0.7605
tp2766
asI301
(lp2767
(S'xxx'
p2768
g129
F0.8437
tp2769
asI302
(lp2770
(S'come'
p2771
g10
F0.9849
tp2772
a(S'on'
p2773
g372
F0.5632
tp2774
asI303
(lp2775
(S'www'
p2776
g54
F0.345
tp2777
a(S'www'
p2778
g54
F0.8756
tp2779
asI304
(lp2780
(S'sit'
p2781
g10
F0.9948
tp2782
a(S'up'
p2783
g372
F0.9726
tp2784
a(S'right'
p2785
g7
F0.7135
tp2786
a(S'at'
p2787
g30
F0.9999
tp2788
a(S'the'
p2789
g13
F0.9991
tp2790
a(S'table'
p2791
g16
F0.995
tp2792
a(S'here'
p2793
g7
F0.9607
tp2794
asI305
(lp2795
(S'num'
p2796
g79
F0.3794
tp2797
a(S'num'
p2798
g79
F0.8943
tp2799
a(S'num'
p2800
g79
F0.8497
tp2801
asI306
(lp2802
(S'alright'
p2803
g3
F0.9864
tp2804
asI307
(lp2805
(S'chew'
p2806
g10
F0.9748
tp2807
a(S'right'
p2808
g43
F0.5657
tp2809
asI308
(lp2810
(S'with'
p2811
g30
F0.9984
tp2812
a(S'your'
p2813
g13
F0.9975
tp2814
a(S'mouth'
p2815
g16
F0.9998
tp2816
a(S'closed'
p2817
g43
F0.5239
tp2818
asI309
(lp2819
(S'don'
p2820
g54
F0.5427
tp2821
a(g291
g54
F0.6268
tp2822
a(S'want'
p2823
g10
F0.9988
tp2824
a(S'all'
p2825
g13
F0.5618
tp2826
a(S'that'
p2827
g13
F0.8948
tp2828
a(S'noise'
p2829
g16
F0.9952
tp2830
asI310
(lp2831
(S'xxx'
p2832
g129
F0.8437
tp2833
asI311
(lp2834
(S'what'
p2835
g33
F0.949
tp2836
asI312
(lp2837
(S'come'
p2838
g10
F0.9849
tp2839
a(S'on'
p2840
g30
F0.8871
tp2841
a(S'chew'
p2842
g10
F0.4771
tp2843
asI313
(lp2844
(S'mommy'
p2845
g16
F0.6334
tp2846
a(S'look'
p2847
g10
F0.9927
tp2848
a(S'it'
p2849
g33
F0.996
tp2850
asI314
(lp2851
(S'what'
p2852
g33
F0.949
tp2853
asI315
(lp2854
(S'is'
p2855
g10
F0.998
tp2856
a(S'the'
p2857
g13
F0.9995
tp2858
a(S'same'
p2859
g43
F0.9762
tp2860
a(S'chip'
p2861
g16
F0.9437
tp2862
a(S'bag'
p2863
g16
F0.9933
tp2864
a(S'with'
p2865
g30
F0.9999
tp2866
a(S'the'
p2867
g13
F0.9993
tp2868
a(S'blue'
p2869
g43
F0.7656
tp2870
a(S'and'
p2871
g285
F0.9963
tp2872
a(S'blue'
p2873
g43
F0.8572
tp2874
asI316
(lp2875
(S'oh'
p2876
g3
F0.9987
tp2877
a(S'yeah'
p2878
g3
F0.9997
tp2879
asI317
(lp2880
(S'on'
p2881
g30
F0.9931
tp2882
a(S'the'
p2883
g13
F0.9995
tp2884
a(S'picture'
p2885
g16
F0.9937
tp2886
a(S'you'
p2887
g33
F0.9959
tp2888
a(S'mean'
p2889
g10
F0.9699
tp2890
asI318
(lp2891
(S'yeah'
p2892
g3
F0.9988
tp2893
asI319
(lp2894
(S'right'
p2895
g3
F0.861
tp2896
asI320
(lp2897
(S'come'
p2898
g10
F0.9849
tp2899
a(S'on'
p2900
g372
F0.5632
tp2901
asI321
(lp2902
(S'come'
p2903
g10
F0.9897
tp2904
a(S'on'
p2905
g30
F0.5597
tp2906
a(S'and'
p2907
g285
F0.9966
tp2908
a(S'eat'
p2909
g10
F0.9602
tp2910
asI322
(lp2911
(g306
g33
F0.9586
tp2912
a(g2263
g10
F0.9706
tp2913
a(S'thirsty'
p2914
g43
F0.9878
tp2915
asI323
(lp2916
(S'alright'
p2917
g3
F0.8985
tp2918
a(S'you'
p2919
g33
F0.9983
tp2920
a(S'eat'
p2921
g10
F0.9995
tp2922
a(g170
g13
F0.9988
tp2923
a(S'little'
p2924
g43
F0.9495
tp2925
a(S'more'
p2926
g43
F0.5776
tp2927
a(S'of'
p2928
g30
F0.9984
tp2929
a(S'that'
p2930
g33
F0.8449
tp2931
asI324
(lp2932
(S'be'
p2933
g10
F0.9727
tp2934
a(S'cause'
p2935
g30
F0.7977
tp2936
a(S'then'
p2937
g7
F0.9885
tp2938
a(S'when'
p2939
g7
F0.9921
tp2940
a(S'you'
p2941
g33
F0.9922
tp2942
a(S'drink'
p2943
g10
F0.999
tp2944
a(S'you'
p2945
g33
F0.9987
tp2946
a(S'don'
p2947
g10
F0.8426
tp2948
a(g291
g30
F0.2496
tp2949
a(S'eat'
p2950
g10
F0.9542
tp2951
asI325
(lp2952
(g306
g33
F0.9586
tp2953
a(g2263
g10
F0.9849
tp2954
a(S'done'
p2955
g10
F0.9405
tp2956
asI326
(lp2957
(g306
g33
F0.953
tp2958
a(g2263
g10
F0.9849
tp2959
a(S'done'
p2960
g10
F0.9082
tp2961
a(S'mommy'
p2962
g16
F0.8074
tp2963
asI327
(lp2964
(S'no'
p2965
g3
F0.7985
tp2966
a(S'you'
p2967
g33
F0.9961
tp2968
a(S'eat'
p2969
g10
F0.9995
tp2970
a(S'this'
p2971
g13
F0.9819
tp2972
a(S'part'
p2973
g16
F0.9962
tp2974
asI328
(lp2975
(S'and'
p2976
g285
F0.9987
tp2977
a(S'then'
p2978
g7
F0.9867
tp2979
a(g306
g33
F0.989
tp2980
a(S'll'
p2981
g10
F0.6518
tp2982
a(S'get'
p2983
g10
F0.9998
tp2984
a(S'you'
p2985
g33
F0.998
tp2986
a(g170
g13
F0.9964
tp2987
a(S'drink'
p2988
g16
F0.9907
tp2989
asI329
(lp2990
(g306
g33
F0.9793
tp2991
a(S'll'
p2992
g10
F0.7217
tp2993
a(S'get'
p2994
g10
F0.9998
tp2995
a(S'you'
p2996
g33
F0.9956
tp2997
a(S'some'
p2998
g13
F0.9937
tp2999
a(S'tonic'
p3000
g16
F0.9859
tp3001
a(S'you'
p3002
g33
F0.9934
tp3003
a(S'eat'
p3004
g10
F0.9995
tp3005
a(S'that'
p3006
g13
F0.8601
tp3007
a(S'part'
p3008
g16
F0.9888
tp3009
a(S'alright'
p3010
g3
F0.8461
tp3011
asI330
(lp3012
(g306
g33
F0.9586
tp3013
a(g2263
g10
F0.9849
tp3014
a(S'done'
p3015
g10
F0.9405
tp3016
asI331
(lp3017
(S'unhunh'
p3018
g3
F0.3818
tp3019
asI332
(lp3020
(g306
g33
F0.9855
tp3021
a(S'see'
p3022
g10
F0.9996
tp3023
a(S'some'
p3024
g13
F0.9729
tp3025
a(S'more'
p3026
g43
F0.9315
tp3027
asI333
(lp3028
(g306
g33
F0.9586
tp3029
a(g2263
g10
F0.9849
tp3030
a(S'done'
p3031
g10
F0.9405
tp3032
asI334
(lp3033
(S'unhunh'
p3034
g3
F0.1984
tp3035
a(g306
g33
F0.9889
tp3036
a(S'still'
p3037
g7
F0.9886
tp3038
a(S'see'
p3039
g10
F0.9978
tp3040
a(S'it'
p3041
g33
F0.9204
tp3042
asI335
(lp3043
(g306
g33
F0.9586
tp3044
a(g2263
g10
F0.9333
tp3045
asI336
(lp3046
(g306
g33
F0.9818
tp3047
a(S'still'
p3048
g7
F0.9876
tp3049
a(S'see'
p3050
g10
F0.999
tp3051
a(S'it'
p3052
g33
F0.9223
tp3053
asI337
(lp3054
(g306
g33
F0.9586
tp3055
a(g2263
g10
F0.9849
tp3056
a(S'done'
p3057
g10
F0.9405
tp3058
asI338
(lp3059
(S'www'
p3060
g54
F0.3889
tp3061
asI339
(lp3062
(g306
g33
F0.9881
tp3063
a(S'do'
p3064
g10
F0.9996
tp3065
asI340
(lp3066
(g306
g33
F0.953
tp3067
a(g2263
g10
F0.9874
tp3068
a(S'trickin'
p3069
g10
F0.9668
tp3070
a(g1042
g10
F0.3541
tp3071
a(S'you'
p3072
g33
F0.9966
tp3073
asI341
(lp3074
(S'you'
p3075
g33
F0.9721
tp3076
a(S'better'
p3077
g43
F0.8976
tp3078
a(S'hurry'
p3079
g16
F0.6162
tp3080
a(S'up'
p3081
g372
F0.8572
tp3082
asI342
(lp3083
(g306
g33
F0.953
tp3084
a(g2263
g10
F0.9834
tp3085
a(S'going'
p3086
g10
F0.9981
tp3087
a(S'to'
p3088
g30
F0.9794
tp3089
a(S'drink'
p3090
g10
F0.9973
tp3091
a(S'all'
p3092
g497
F0.4496
tp3093
a(S'the'
p3094
g13
F0.9998
tp3095
a(S'tonic'
p3096
g16
F0.9932
tp3097
a(S'myself'
p3098
g33
F0.9563
tp3099
asI343
(lp3100
(S'what'
p3101
g33
F0.949
tp3102
asI344
(lp3103
(g306
g33
F0.9793
tp3104
a(S'll'
p3105
g10
F0.7693
tp3106
a(S'have'
p3107
g10
F0.9989
tp3108
a(S'to'
p3109
g30
F0.9951
tp3110
a(S'drink'
p3111
g10
F0.9973
tp3112
a(S'all'
p3113
g497
F0.4496
tp3114
a(S'the'
p3115
g13
F0.9998
tp3116
a(S'tonic'
p3117
g16
F0.9932
tp3118
a(S'myself'
p3119
g33
F0.9563
tp3120
asI345
(lp3121
(S'mommy'
p3122
g16
F0.5431
tp3123
a(S'could'
p3124
g10
F0.9974
tp3125
a(S'eat'
p3126
g10
F0.9977
tp3127
a(S'that'
p3128
g13
F0.778
tp3129
a(S'pickle'
p3130
g16
F0.9856
tp3131
asI346
(lp3132
(S'eat'
p3133
g10
F0.9778
tp3134
a(S'this'
p3135
g33
F0.5782
tp3136
asI347
(lp3137
(S'thank'
p3138
g10
F0.9631
tp3139
a(S'you'
p3140
g33
F0.9987
tp3141
asI348
(lp3142
(S'mm'
p3143
g3
F0.627
tp3144
asI349
(lp3145
(S'good'
p3146
g43
F0.9942
tp3147
a(S'girl'
p3148
g16
F0.9961
tp3149
asI350
(lp3150
(S'thank'
p3151
g10
F0.9631
tp3152
a(S'you'
p3153
g33
F0.9987
tp3154
asI351
(lp3155
(S'good'
p3156
g43
F0.9942
tp3157
a(S'girl'
p3158
g16
F0.9961
tp3159
asI352
(lp3160
(S'xxx'
p3161
g129
F0.8437
tp3162
asI353
(lp3163
(S'what'
p3164
g33
F0.949
tp3165
asI354
(lp3166
(g306
g33
F0.9893
tp3167
a(S'said'
p3168
g10
F0.9999
tp3169
a(S'it'
p3170
g33
F0.9935
tp3171
a(S'to'
p3172
g30
F0.9893
tp3173
a(S'gypsy'
p3174
g16
F0.5458
tp3175
asI355
(lp3176
(S'you'
p3177
g33
F0.998
tp3178
a(S'say'
p3179
g10
F0.998
tp3180
a(S'what'
p3181
g33
F0.9944
tp3182
a(S'to'
p3183
g30
F0.9905
tp3184
a(S'gypsy'
p3185
g16
F0.5458
tp3186
asI356
(lp3187
(S'it'
p3188
g33
F0.9817
tp3189
a(S'xxx'
p3190
g129
F0.6197
tp3191
asI357
(lp3192
(S'gypsy'
p3193
g16
F0.6852
tp3194
a(S'don'
p3195
g16
F0.7425
tp3196
a(g291
g79
F0.439
tp3197
asI358
(lp3198
(g306
g33
F0.9586
tp3199
a(g2263
g10
F0.9849
tp3200
a(S'done'
p3201
g10
F0.9405
tp3202
asI359
(lp3203
(S'okay'
p3204
g3
F0.9044
tp3205
a(S'start'
p3206
g10
F0.9437
tp3207
a(S'eating'
p3208
g10
F0.9983
tp3209
a(S'that'
p3210
g33
F0.7027
tp3211
asI360
(lp3212
(S'and'
p3213
g285
F0.999
tp3214
a(g306
g33
F0.9899
tp3215
a(S'll'
p3216
g10
F0.7799
tp3217
a(S'be'
p3218
g10
F0.9972
tp3219
a(S'getting'
p3220
g10
F0.9988
tp3221
a(S'the'
p3222
g13
F0.9996
tp3223
a(S'tonic'
p3224
g16
F0.9916
tp3225
a(S'for'
p3226
g30
F0.9999
tp3227
a(S'you'
p3228
g33
F0.999
tp3229
asI361
(lp3230
(S'okay'
p3231
g3
F0.9857
tp3232
asI362
(lp3233
(S'okay'
p3234
g3
F0.9857
tp3235
asI363
(lp3236
(S'go'
p3237
g10
F0.9278
tp3238
a(S'get'
p3239
g10
F0.9749
tp3240
a(S'tonic'
p3241
g16
F0.9904
tp3242
asI364
(lp3243
(S'okay'
p3244
g3
F0.9857
tp3245
asI365
(lp3246
(S'you'
p3247
g33
F0.9945
tp3248
a(S'start'
p3249
g10
F0.9987
tp3250
a(S'eating'
p3251
g10
F0.99
tp3252
asI366
(lp3253
(S'yeah'
p3254
g3
F0.9988
tp3255
asI367
(lp3256
(S'www'
p3257
g54
F0.3889
tp3258
asI368
(lp3259
(S'eating'
p3260
g10
F0.9934
tp3261
a(S'eating'
p3262
g10
F0.9874
tp3263
a(S'eating'
p3264
g10
F0.9769
tp3265
asI369
(lp3266
(S'you'
p3267
g33
F0.9945
tp3268
a(S'start'
p3269
g10
F0.9987
tp3270
a(S'eating'
p3271
g10
F0.99
tp3272
asI370
(lp3273
(S'come'
p3274
g10
F0.9843
tp3275
a(S'here'
p3276
g7
F0.9223
tp3277
a(S'puppy'
p3278
g16
F0.9146
tp3279
asI371
(lp3280
(S'get'
p3281
g10
F0.9946
tp3282
a(S'away'
p3283
g7
F0.6717
tp3284
a(S'get'
p3285
g10
F0.9975
tp3286
a(S'away'
p3287
g7
F0.6775
tp3288
a(S'gypsy'
p3289
g43
F0.3957
tp3290
asI372
(lp3291
(S'you'
p3292
g33
F0.9812
tp3293
a(S'smell'
p3294
g10
F0.9521
tp3295
a(S'awful'
p3296
g43
F0.9891
tp3297
a(S'today'
p3298
g16
F0.9983
tp3299
asI373
(lp3300
(S'cat'
p3301
g54
F0.6901
tp3302
a(S'smells'
p3303
g10
F0.9648
tp3304
a(S'awful'
p3305
g43
F0.9928
tp3306
a(S'today'
p3307
g16
F0.9983
tp3308
asI374
(lp3309
(S'smell'
p3310
g10
F0.9481
tp3311
a(S'her'
p3312
g33
F0.8341
tp3313
asI375
(lp3314
(S'cat'
p3315
g16
F0.5572
tp3316
asI376
(lp3317
(g306
g33
F0.9873
tp3318
a(S'can'
p3319
g10
F0.9996
tp3320
a(g291
g10
F0.7762
tp3321
a(S'smell'
p3322
g10
F0.9409
tp3323
a(S'the'
p3324
g13
F0.9993
tp3325
a(S'cat'
p3326
g16
F0.7724
tp3327
a(S'all'
p3328
g497
F0.6339
tp3329
a(S'the'
p3330
g13
F0.9998
tp3331
a(S'way'
p3332
g16
F0.9668
tp3333
a(S'xxx'
p3334
g129
F0.7144
tp3335
asI377
(lp3336
(S'it'
p3337
g33
F0.9888
tp3338
a(g78
g10
F0.5104
tp3339
a(S'probably'
p3340
g7
F0.9951
tp3341
a(S'the'
p3342
g13
F0.9964
tp3343
a(S'dog'
p3344
g16
F0.9983
tp3345
asI378
(lp3346
(S'the'
p3347
g13
F0.9985
tp3348
a(S'dog'
p3349
g16
F0.9986
tp3350
a(S'is'
p3351
g10
F0.9981
tp3352
a(S'underneath'
p3353
g30
F0.9961
tp3354
a(S'you'
p3355
g33
F0.9987
tp3356
asI379
(lp3357
(S'maybe'
p3358
g7
F0.9023
tp3359
a(S'the'
p3360
g13
F0.9982
tp3361
a(S'dog'
p3362
g16
F0.9992
tp3363
a(S'is'
p3364
g10
F0.9927
tp3365
asI380
(lp3366
(S'xxx'
p3367
g129
F0.4474
tp3368
a(S'around'
p3369
g30
F0.7927
tp3370
a(S'food'
p3371
g16
F0.9843
tp3372
asI381
(lp3373
(S'don'
p3374
g54
F0.5427
tp3375
a(g291
g54
F0.508
tp3376
a(S'drink'
p3377
g10
F0.9742
tp3378
a(S'all'
p3379
g13
F0.5131
tp3380
a(S'that'
p3381
g13
F0.8924
tp3382
a(S'tonic'
p3383
g16
F0.9953
tp3384
asI382
(lp3385
(S'be'
p3386
g10
F0.9727
tp3387
a(S'cause'
p3388
g30
F0.7977
tp3389
a(S'then'
p3390
g7
F0.9757
tp3391
a(S'you'
p3392
g33
F0.9994
tp3393
a(S'won'
p3394
g10
F0.978
tp3395
a(g291
g16
F0.2257
tp3396
a(S'want'
p3397
g10
F0.9957
tp3398
a(S'to'
p3399
g30
F0.9963
tp3400
a(S'eat'
p3401
g10
F0.9962
tp3402
a(S'anymore'
p3403
g7
F0.9904
tp3404
asI383
(lp3405
(S'this'
p3406
g13
F0.937
tp3407
a(S'sprite'
p3408
g16
F0.9519
tp3409
a(S'doesn'
p3410
g10
F0.8101
tp3411
a(g291
g79
F0.2915
tp3412
a(S'taste'
p3413
g10
F0.9251
tp3414
a(S'good'
p3415
g43
F0.9931
tp3416
asI384
(lp3417
(S'yes'
p3418
g3
F0.9804
tp3419
a(S'it'
p3420
g33
F0.998
tp3421
a(S'does'
p3422
g10
F0.9992
tp3423
asI385
(lp3424
(S'it'
p3425
g33
F0.9788
tp3426
a(S'tastes'
p3427
g10
F0.9844
tp3428
a(S'very'
p3429
g7
F0.9962
tp3430
a(S'good'
p3431
g43
F0.9998
tp3432
asI386
(lp3433
(S'come'
p3434
g10
F0.9849
tp3435
a(S'on'
p3436
g372
F0.5632
tp3437
asI387
(lp3438
(S'ah'
p3439
g3
F0.996
tp3440
asI388
(lp3441
(S'www'
p3442
g54
F0.3889
tp3443
asI389
(lp3444
(S'xxx'
p3445
g129
F0.8437
tp3446
asI390
(lp3447
(S'chi'
p3448
g54
F0.6516
tp3449
a(S'knock'
p3450
g10
F0.9734
tp3451
a(S'it'
p3452
g33
F0.9915
tp3453
a(S'off'
p3454
g372
F0.8862
tp3455
asI391
(lp3456
(S'ah'
p3457
g3
F0.996
tp3458
asI392
(lp3459
(S'hurry'
p3460
g10
F0.9546
tp3461
a(S'up'
p3462
g372
F0.965
tp3463
a(S'and'
p3464
g285
F0.997
tp3465
a(S'eat'
p3466
g10
F0.949
tp3467
a(S'okay'
p3468
g3
F0.7416
tp3469
asI393
(lp3470
(S'hee'
p3471
g3
F0.9795
tp3472
a(S'hee'
p3473
g3
F0.9834
tp3474
a(S'hee'
p3475
g3
F0.9724
tp3476
a(S'hee'
p3477
g3
F0.9745
tp3478
a(S'hee'
p3479
g3
F0.9658
tp3480
a(S'ah'
p3481
g3
F0.9797
tp3482
a(S'ah'
p3483
g3
F0.9904
tp3484
a(S'ah'
p3485
g3
F0.9911
tp3486
a(S'ah'
p3487
g3
F0.9932
tp3488
a(S'ah'
p3489
g3
F0.9931
tp3490
asI394
(lp3491
(S'xxx'
p3492
g129
F0.7097
tp3493
a(S'was'
p3494
g10
F0.998
tp3495
a(S'this'
p3496
g13
F0.9584
tp3497
a(S'mommy'
p3498
g16
F0.9496
tp3499
asI395
(lp3500
(S'mommy'
p3501
g16
F0.5271
tp3502
asI396
(lp3503
(S'what'
p3504
g33
F0.949
tp3505
asI397
(lp3506
(S'whose'
p3507
g89
F0.6594
tp3508
a(S'mail'
p3509
g16
F0.994
tp3510
a(S'is'
p3511
g10
F0.9987
tp3512
a(S'this'
p3513
g33
F0.7123
tp3514
asI398
(lp3515
(S'that'
p3516
g33
F0.473
tp3517
a(g78
g79
F0.6605
tp3518
a(S'uh'
p3519
g3
F0.8233
tp3520
a(S'the'
p3521
g13
F0.9918
tp3522
a(S'wrong'
p3523
g43
F0.9208
tp3524
a(S'wrong'
p3525
g43
F0.9846
tp3526
a(S'person'
p3527
g16
F0.9857
tp3528
asI399
(lp3529
(S'what'
p3530
g33
F0.8373
tp3531
a(S'kind'
p3532
g16
F0.9595
tp3533
a(S'of'
p3534
g30
F0.9927
tp3535
a(S'person'
p3536
g16
F0.957
tp3537
asI400
(lp3538
(S'what'
p3539
g33
F0.8282
tp3540
a(S'kind'
p3541
g16
F0.9595
tp3542
a(S'of'
p3543
g30
F0.9847
tp3544
asI401
(lp3545
(S'no'
p3546
g3
F0.7822
tp3547
a(S'no'
p3548
g3
F0.5387
tp3549
a(S'no'
p3550
g3
F0.7065
tp3551
asI402
(lp3552
(S'eat'
p3553
g10
F0.9797
tp3554
a(S'some'
p3555
g13
F0.9562
tp3556
a(S'more'
p3557
g43
F0.979
tp3558
a(S'food'
p3559
g16
F0.9954
tp3560
a(S'and'
p3561
g285
F0.9978
tp3562
a(S'then'
p3563
g7
F0.9839
tp3564
a(S'you'
p3565
g33
F0.9995
tp3566
a(S'can'
p3567
g10
F0.9997
tp3568
a(S'have'
p3569
g10
F0.9999
tp3570
a(S'some'
p3571
g13
F0.9963
tp3572
a(S'tonic'
p3573
g16
F0.9936
tp3574
asI403
(lp3575
(g306
g33
F0.9948
tp3576
a(S'did'
p3577
g10
F0.9993
tp3578
asI404
(lp3579
(S'unhunh'
p3580
g3
F0.3818
tp3581
asI405
(lp3582
(S'yeah'
p3583
g3
F0.9988
tp3584
asI406
(lp3585
(S'some'
p3586
g13
F0.8973
tp3587
a(S'more'
p3588
g43
F0.9752
tp3589
asI407
(lp3590
(S'chi'
p3591
g79
F0.3949
tp3592
a(S'you'
p3593
g33
F0.98
tp3594
a(S're'
p3595
g10
F0.738
tp3596
a(S'getting'
p3597
g10
F0.9992
tp3598
a(S'this'
p3599
g13
F0.9714
tp3600
a(S'mail'
p3601
g16
F0.9976
tp3602
a(S'that'
p3603
g30
F0.8584
tp3604
a(S'doesn'
p3605
g10
F0.9544
tp3606
a(g291
g10
F0.2374
tp3607
a(S'belong'
p3608
g10
F0.9921
tp3609
a(S'to'
p3610
g30
F0.9951
tp3611
a(S'us'
p3612
g33
F0.8401
tp3613
a(S'all'
p3614
g13
F0.9532
tp3615
a(S'dirty'
p3616
g43
F0.9341
tp3617
asI408
(lp3618
(g306
g33
F0.9888
tp3619
a(S'done'
p3620
g10
F0.9951
tp3621
asI409
(lp3622
(S'more'
p3623
g43
F0.4885
tp3624
asI410
(lp3625
(g306
g33
F0.9888
tp3626
a(S'done'
p3627
g10
F0.9951
tp3628
asI411
(lp3629
(S'no'
p3630
g3
F0.9253
tp3631
asI412
(lp3632
(S'alright'
p3633
g3
F0.9864
tp3634
asI413
(lp3635
(g306
g33
F0.953
tp3636
a(g2263
g10
F0.9834
tp3637
a(S'going'
p3638
g10
F0.9981
tp3639
a(S'to'
p3640
g30
F0.9861
tp3641
a(S'make'
p3642
g10
F0.9997
tp3643
a(S'you'
p3644
g33
F0.9933
tp3645
a(S'get'
p3646
g10
F0.9997
tp3647
a(S'away'
p3648
g7
F0.82
tp3649
a(S'from'
p3650
g30
F0.9997
tp3651
a(S'the'
p3652
g13
F0.9985
tp3653
a(S'table'
p3654
g16
F0.9946
tp3655
asI414
(lp3656
(S'no'
p3657
g3
F0.9253
tp3658
asI415
(lp3659
(S'finish'
p3660
g10
F0.9647
tp3661
a(S'cleaning'
p3662
g10
F0.9878
tp3663
a(S'your'
p3664
g13
F0.9911
tp3665
a(S'plate'
p3666
g16
F0.999
tp3667
asI416
(lp3668
(S'gimme'
p3669
g89
F0.828
tp3670
a(S'give'
p3671
g10
F0.9976
tp3672
a(S'me'
p3673
g33
F0.9978
tp3674
a(S'them'
p3675
g33
F0.922
tp3676
asI417
(lp3677
(S'hurry'
p3678
g10
F0.9546
tp3679
a(S'up'
p3680
g372
F0.972
tp3681
a(g306
g33
F0.9886
tp3682
a(S'll'
p3683
g10
F0.6711
tp3684
a(S'start'
p3685
g10
F0.9957
tp3686
a(S'to'
p3687
g30
F0.9828
tp3688
a(S'read'
p3689
g10
F0.9999
tp3690
a(S'you'
p3691
g33
F0.9977
tp3692
a(S'your'
p3693
g13
F0.9899
tp3694
a(S'new'
p3695
g43
F0.9965
tp3696
a(S'book'
p3697
g16
F0.9787
tp3698
asI418
(lp3699
(S'what'
p3700
g33
F0.949
tp3701
asI419
(lp3702
(S'hurry'
p3703
g10
F0.9546
tp3704
a(S'up'
p3705
g372
F0.9881
tp3706
a(S'so'
p3707
g7
F0.6326
tp3708
a(g306
g33
F0.9887
tp3709
a(S'can'
p3710
g10
F0.9998
tp3711
a(S'read'
p3712
g10
F0.9991
tp3713
a(S'to'
p3714
g30
F0.9935
tp3715
a(S'you'
p3716
g33
F0.9918
tp3717
a(S'your'
p3718
g13
F0.9899
tp3719
a(S'new'
p3720
g43
F0.9965
tp3721
a(S'book'
p3722
g16
F0.9787
tp3723
asI420
(lp3724
(S'that'
p3725
g33
F0.3839
tp3726
a(g306
g33
F0.9925
tp3727
a(S'just'
p3728
g7
F0.9991
tp3729
a(S'got'
p3730
g10
F0.9917
tp3731
asI421
(lp3732
(S'yup'
p3733
g3
F0.9978
tp3734
asI422
(lp3735
(S'did'
p3736
g10
F0.9986
tp3737
a(S'you'
p3738
g33
F0.9986
tp3739
a(S'bring'
p3740
g10
F1.0
tp3741
a(S'it'
p3742
g33
F0.9766
tp3743
a(S'in'
p3744
g30
F0.7034
tp3745
a(S'from'
p3746
g30
F0.998
tp3747
a(S'the'
p3748
g13
F0.999
tp3749
a(S'car'
p3750
g16
F0.9958
tp3751
asI423
(lp3752
(S'coupons'
p3753
g16
F0.9762
tp3754
a(S'from'
p3755
g30
F0.9977
tp3756
a(S'friendly'
p3757
g43
F0.9232
tp3758
a(g78
g79
F0.8316
tp3759
asI424
(lp3760
(S'oh'
p3761
g3
F0.9957
tp3762
a(S'goody'
p3763
g3
F0.3964
tp3764
a(S'goody'
p3765
g16
F0.7709
tp3766
asI425
(lp3767
(S'out'
p3768
g30
F0.4749
tp3769
a(S'to'
p3770
g30
F0.9651
tp3771
a(S'friendly'
p3772
g43
F0.9158
tp3773
a(g78
g79
F0.8316
tp3774
asI426
(lp3775
(S'we'
p3776
g33
F0.9962
tp3777
a(S'used'
p3778
g10
F0.9884
tp3779
a(S'to'
p3780
g30
F0.9605
tp3781
a(S'go'
p3782
g10
F0.9998
tp3783
a(S'out'
p3784
g30
F0.4287
tp3785
a(S'to'
p3786
g30
F0.9969
tp3787
a(S'eat'
p3788
g10
F0.9962
tp3789
a(S'at'
p3790
g30
F0.9865
tp3791
a(S'friendly'
p3792
g43
F0.9508
tp3793
a(g78
g79
F0.8646
tp3794
asI427
(lp3795
(S'oh'
p3796
g3
F0.9988
tp3797
asI428
(lp3798
(S'mm'
p3799
g3
F0.627
tp3800
asI429
(lp3801
(S'we'
p3802
g33
F0.9956
tp3803
a(S'always'
p3804
g7
F0.9906
tp3805
a(S'eat'
p3806
g10
F0.9936
tp3807
a(S'at'
p3808
g30
F0.9864
tp3809
a(S'friendly'
p3810
g43
F0.9148
tp3811
a(g78
g79
F0.6425
tp3812
a(S'right'
p3813
g43
F0.4893
tp3814
asI430
(lp3815
(S'xxx'
p3816
g129
F0.8437
tp3817
asI431
(lp3818
(g306
g33
F0.9793
tp3819
a(S'll'
p3820
g10
F0.7693
tp3821
a(S'have'
p3822
g10
F0.9989
tp3823
a(S'to'
p3824
g30
F0.9971
tp3825
a(S'put'
p3826
g10
F0.999
tp3827
a(S'these'
p3828
g13
F0.9932
tp3829
a(S'coupons'
p3830
g16
F0.998
tp3831
a(S'in'
p3832
g30
F0.9981
tp3833
a(S'my'
p3834
g13
F0.9987
tp3835
a(S'pocket'
p3836
g16
F0.9365
tp3837
a(S'book'
p3838
g16
F0.9514
tp3839
asI432
(lp3840
(S'come'
p3841
g10
F0.9849
tp3842
a(S'on'
p3843
g372
F0.5632
tp3844
asI433
(lp3845
(S'no'
p3846
g3
F0.9253
tp3847
asI434
(lp3848
(S'alright'
p3849
g3
F0.9864
tp3850
asI435
(lp3851
(g306
g33
F0.953
tp3852
a(g2263
g10
F0.9784
tp3853
a(S'not'
p3854
g7
F0.9958
tp3855
a(S'going'
p3856
g10
F0.9991
tp3857
a(S'to'
p3858
g30
F0.9769
tp3859
a(S'have'
p3860
g10
F0.999
tp3861
a(S'time'
p3862
g16
F0.9965
tp3863
a(S'to'
p3864
g30
F0.9978
tp3865
a(S'read'
p3866
g10
F0.9999
tp3867
a(S'you'
p3868
g33
F0.9959
tp3869
a(g170
g13
F0.9977
tp3870
a(S'story'
p3871
g16
F0.9991
tp3872
asI436
(lp3873
(S'mommy'
p3874
g16
F0.436
tp3875
a(S'how'
p3876
g7
F0.9829
tp3877
a(S'can'
p3878
g10
F0.9994
tp3879
a(S'you'
p3880
g33
F0.9995
tp3881
a(S'know'
p3882
g10
F0.9983
tp3883
a(S'xxx'
p3884
g129
F0.8283
tp3885
asI437
(lp3886
(S'hm'
p3887
g3
F0.995
tp3888
asI438
(lp3889
(S'it'
p3890
g33
F0.9899
tp3891
a(S'ain'
p3892
g10
F0.9245
tp3893
a(g291
g10
F0.4543
tp3894
a(S'dark'
p3895
g43
F0.8499
tp3896
a(S'enough'
p3897
g7
F0.621
tp3898
asI439
(lp3899
(S'it'
p3900
g33
F0.9888
tp3901
a(g78
g10
F0.6477
tp3902
a(S'getting'
p3903
g10
F0.9988
tp3904
a(S'there'
p3905
g7
F0.6682
tp3906
asI440
(lp3907
(S'it'
p3908
g33
F0.9888
tp3909
a(g78
g10
F0.5448
tp3910
a(S'late'
p3911
g43
F0.7921
tp3912
a(S'still'
p3913
g7
F0.9992
tp3914
a(S'late'
p3915
g43
F0.7938
tp3916
a(S'even'
p3917
g7
F0.9962
tp3918
a(S'though'
p3919
g30
F0.9594
tp3920
a(S'it'
p3921
g33
F0.9964
tp3922
a(g78
g10
F0.5757
tp3923
a(S'not'
p3924
g7
F0.9992
tp3925
a(S'dark'
p3926
g43
F0.7637
tp3927
asI441
(lp3928
(S'because'
p3929
g30
F0.9976
tp3930
a(S'it'
p3931
g33
F0.9991
tp3932
a(S'stays'
p3933
g10
F0.9862
tp3934
a(S'light'
p3935
g16
F0.6594
tp3936
a(S'longer'
p3937
g7
F0.9792
tp3938
a(S'now'
p3939
g7
F0.9964
tp3940
asI442
(lp3941
(S'mommy'
p3942
g16
F0.5271
tp3943
asI443
(lp3944
(S'what'
p3945
g33
F0.949
tp3946
asI444
(lp3947
(S'it'
p3948
g33
F0.9899
tp3949
a(S'ain'
p3950
g10
F0.9245
tp3951
a(g291
g10
F0.4575
tp3952
a(S'black'
p3953
g43
F0.9169
tp3954
a(S'dark'
p3955
g16
F0.787
tp3956
asI445
(lp3957
(S'it'
p3958
g33
F0.9899
tp3959
a(S'ain'
p3960
g10
F0.9245
tp3961
a(g291
g10
F0.451
tp3962
a(S'blue'
p3963
g43
F0.8951
tp3964
a(S'it'
p3965
g33
F0.9786
tp3966
a(S'ain'
p3967
g10
F0.9105
tp3968
a(g291
g10
F0.4713
tp3969
a(S'black'
p3970
g43
F0.9156
tp3971
a(g306
g33
F0.9475
tp3972
a(S'mean'
p3973
g10
F0.9894
tp3974
asI446
(lp3975
(S'no'
p3976
g3
F0.8024
tp3977
a(S'but'
p3978
g285
F0.9947
tp3979
a(S'it'
p3980
g33
F0.9981
tp3981
a(S'will'
p3982
g10
F0.9979
tp3983
a(S'be'
p3984
g10
F0.9993
tp3985
a(S'soon'
p3986
g7
F0.9747
tp3987
asI447
(lp3988
(S'see'
p3989
g10
F0.9208
tp3990
a(S'how'
p3991
g7
F0.971
tp3992
a(S'dark'
p3993
g43
F0.9146
tp3994
a(S'it'
p3995
g33
F0.9637
tp3996
a(g78
g10
F0.7364
tp3997
a(S'getting'
p3998
g10
F0.9962
tp3999
asI448
(lp4000
(S'turn'
p4001
g10
F0.9921
tp4002
a(S'the'
p4003
g13
F0.9996
tp4004
a(S'page'
p4005
g16
F0.9917
tp4006
asI449
(lp4007
(S'see'
p4008
g10
F0.8807
tp4009
a(S'what'
p4010
g33
F0.9545
tp4011
a(S'else'
p4012
g7
F0.8133
tp4013
a(S'is'
p4014
g10
F0.9984
tp4015
a(S'in'
p4016
g30
F0.8825
tp4017
a(S'here'
p4018
g7
F0.9057
tp4019
asI450
(lp4020
(S'that'
p4021
g33
F0.6201
tp4022
a(S'looks'
p4023
g10
F0.9973
tp4024
a(S'good'
p4025
g43
F0.9944
tp4026
asI451
(lp4027
(S'mm'
p4028
g3
F0.627
tp4029
asI452
(lp4030
(S'cat'
p4031
g54
F0.5684
tp4032
a(S'food'
p4033
g16
F0.7956
tp4034
asI453
(lp4035
(S'yup'
p4036
g3
F0.9978
tp4037
asI454
(lp4038
(S'it'
p4039
g33
F0.9888
tp4040
a(g78
g10
F0.7213
tp4041
a(S'on'
p4042
g30
F0.7711
tp4043
a(S'special'
p4044
g43
F0.8879
tp4045
asI455
(lp4046
(S'be'
p4047
g10
F0.9727
tp4048
a(S'cause'
p4049
g30
F0.9636
tp4050
a(S'we'
p4051
g33
F0.9975
tp4052
a(S'never'
p4053
g7
F0.997
tp4054
a(S'get'
p4055
g10
F0.9998
tp4056
a(S'this'
p4057
g33
F0.7537
tp4058
asI456
(lp4059
(g306
g33
F0.9912
tp4060
a(S'know'
p4061
g10
F0.9989
tp4062
asI457
(lp4063
(S'and'
p4064
g285
F0.9985
tp4065
a(S'cat'
p4066
g16
F0.6656
tp4067
a(S'food'
p4068
g16
F0.9943
tp4069
asI458
(lp4070
(S'this'
p4071
g33
F0.7033
tp4072
a(S'for'
p4073
g30
F0.9984
tp4074
a(S'arby'
p4075
g54
F0.906
tp4076
a(g78
g54
F0.4485
tp4077
a(S'roast'
p4078
g16
F0.5602
tp4079
a(S'beef'
p4080
g16
F0.9978
tp4081
a(S'too'
p4082
g7
F0.9059
tp4083
asI459
(lp4084
(S'come'
p4085
g10
F0.9849
tp4086
a(S'on'
p4087
g30
F0.9333
tp4088
a(S'no'
p4089
g13
F0.7387
tp4090
asI460
(lp4091
(S'no'
p4092
g3
F0.9253
tp4093
asI461
(lp4094
(S'alright'
p4095
g3
F0.9864
tp4096
asI462
(lp4097
(S'start'
p4098
g10
F0.9924
tp4099
a(S'this'
p4100
g33
F0.6938
tp4101
a(S'or'
p4102
g285
F0.9907
tp4103
a(g306
g33
F0.9831
tp4104
a(g2263
g10
F0.977
tp4105
a(S'not'
p4106
g7
F0.996
tp4107
a(S'going'
p4108
g10
F0.9992
tp4109
a(S'to'
p4110
g30
F0.9829
tp4111
a(S'read'
p4112
g10
F0.9999
tp4113
a(S'you'
p4114
g33
F0.9984
tp4115
a(S'the'
p4116
g13
F0.9996
tp4117
a(S'story'
p4118
g16
F0.999
tp4119
a(S'come'
p4120
g10
F0.9863
tp4121
a(S'on'
p4122
g30
F0.4964
tp4123
asI463
(lp4124
(S'xxx'
p4125
g129
F0.8437
tp4126
asI464
(lp4127
(S'xxx'
p4128
g129
F0.8437
tp4129
asI465
(lp4130
(S'tuna'
p4131
g16
F0.8596
tp4132
a(S'fish'
p4133
g16
F0.9968
tp4134
asI466
(lp4135
(g306
g33
F0.9888
tp4136
a(S'won'
p4137
g10
F0.9887
tp4138
a(g291
g30
F0.2822
tp4139
a(S'let'
p4140
g10
F0.9977
tp4141
a(S'you'
p4142
g33
F0.9996
tp4143
a(S'see'
p4144
g10
F0.9998
tp4145
a(S'them'
p4146
g33
F0.6171
tp4147
asI467
(lp4148
(g306
g33
F0.9875
tp4149
a(S'am'
p4150
g10
F0.998
tp4151
a(S'getting'
p4152
g10
F0.9944
tp4153
a(S'mad'
p4154
g43
F0.7822
tp4155
a(S'now'
p4156
g7
F0.9947
tp4157
asI468
(lp4158
(g306
g33
F0.953
tp4159
a(g2263
g10
F0.9629
tp4160
a(S'gonna'
p4161
g10
F0.9948
tp4162
a(S'put'
p4163
g10
F0.9987
tp4164
a(S'this'
p4165
g33
F0.6053
tp4166
a(S'back'
p4167
g7
F0.67
tp4168
a(S'in'
p4169
g30
F0.9982
tp4170
a(S'the'
p4171
g13
F0.999
tp4172
a(S'refrigerator'
p4173
g16
F0.9978
tp4174
asI469
(lp4175
(S'no'
p4176
g3
F0.9253
tp4177
asI470
(lp4178
(S'finish'
p4179
g10
F0.9909
tp4180
a(S'your'
p4181
g13
F0.9921
tp4182
a(S'supper'
p4183
g16
F0.9976
tp4184
asI471
(lp4185
(S'finish'
p4186
g10
F0.9933
tp4187
a(S'it'
p4188
g33
F0.9885
tp4189
asI472
(lp4190
(S'ow'
p4191
g3
F0.9682
tp4192
asI473
(lp4193
(S'what'
p4194
g33
F0.949
tp4195
asI474
(lp4196
(S'hurt'
p4197
g10
F0.9916
tp4198
a(S'my'
p4199
g13
F0.9117
tp4200
a(S'xxx'
p4201
g16
F0.8239
tp4202
a(S'over'
p4203
g30
F0.8888
tp4204
a(S'here'
p4205
g7
F0.9577
tp4206
asI475
(lp4207
(S'that'
p4208
g33
F0.4727
tp4209
a(g78
g79
F0.6495
tp4210
a(S'alright'
p4211
g3
F0.9186
tp4212
asI476
(lp4213
(S'it'
p4214
g33
F0.9943
tp4215
a(S'will'
p4216
g10
F0.9986
tp4217
a(S'be'
p4218
g10
F0.9985
tp4219
a(S'alright'
p4220
g7
F0.4915
tp4221
asI477
(lp4222
(S'mommy'
p4223
g16
F0.5046
tp4224
a(S'am'
p4225
g10
F0.8972
tp4226
a(g306
g33
F0.9963
tp4227
a(S'almost'
p4228
g7
F0.9942
tp4229
a(S'done'
p4230
g10
F0.9825
tp4231
asI478
(lp4232
(g306
g33
F0.9835
tp4233
a(S'always'
p4234
g7
F0.9911
tp4235
a(S'forget'
p4236
g10
F0.9992
tp4237
a(S'to'
p4238
g30
F0.9948
tp4239
a(S'put'
p4240
g10
F0.9993
tp4241
a(S'the'
p4242
g13
F0.9913
tp4243
a(S'answering'
p4244
g16
F0.5794
tp4245
a(S'machine'
p4246
g16
F0.9978
tp4247
a(S'on'
p4248
g30
F0.9792
tp4249
asI479
(lp4250
(S'come'
p4251
g10
F0.9849
tp4252
a(S'on'
p4253
g372
F0.5632
tp4254
asI480
(lp4255
(S'hurry'
p4256
g10
F0.9362
tp4257
a(S'up'
p4258
g372
F0.9889
tp4259
asI481
(lp4260
(S'www'
p4261
g54
F0.3889
tp4262
asI482
(lp4263
(S'the'
p4264
g13
F0.9981
tp4265
a(S'boat'
p4266
g16
F0.9735
tp4267
a(S'is'
p4268
g10
F0.9963
tp4269
a(S'yellow'
p4270
g43
F0.9677
tp4271
asI483
(lp4272
(S'hurry'
p4273
g10
F0.9362
tp4274
a(S'up'
p4275
g372
F0.9889
tp4276
asI484
(lp4277
(S'you'
p4278
g33
F0.992
tp4279
a(S'almost'
p4280
g7
F0.989
tp4281
a(S'done'
p4282
g10
F0.9764
tp4283
asI485
(lp4284
(S'uhhuh'
p4285
g3
F0.9892
tp4286
asI486
(lp4287
(S'do'
p4288
g10
F0.9985
tp4289
a(S'you'
p4290
g33
F0.9996
tp4291
a(S'want'
p4292
g10
F0.9999
tp4293
a(g170
g13
F0.9974
tp4294
a(S'couple'
p4295
g16
F0.8583
tp4296
a(S'more'
p4297
g43
F0.7357
tp4298
a(S'chips'
p4299
g16
F0.9941
tp4300
asI487
(lp4301
(S'nah'
p4302
g3
F0.9921
tp4303
asI488
(lp4304
(S'one'
p4305
g698
F0.9677
tp4306
a(S'more'
p4307
g43
F0.8926
tp4308
asI489
(lp4309
(S'no'
p4310
g3
F0.9253
tp4311
asI490
(lp4312
(S'alright'
p4313
g3
F0.8895
tp4314
a(S'can'
p4315
g10
F0.9821
tp4316
a(g306
g33
F0.9765
tp4317
a(S'put'
p4318
g10
F0.9986
tp4319
a(S'mine'
p4320
g33
F0.9277
tp4321
a(S'on'
p4322
g30
F0.9908
tp4323
a(S'your'
p4324
g13
F0.9951
tp4325
a(S'dish'
p4326
g16
F0.9986
tp4327
asI491
(lp4328
(S'no'
p4329
g3
F0.9253
tp4330
asI492
(lp4331
(S'you'
p4332
g33
F0.9926
tp4333
a(S'don'
p4334
g10
F0.8675
tp4335
a(g291
g16
F0.2384
tp4336
a(S'have'
p4337
g10
F0.9977
tp4338
a(S'to'
p4339
g30
F0.9959
tp4340
a(S'eat'
p4341
g10
F0.9997
tp4342
a(S'them'
p4343
g33
F0.9008
tp4344
asI493
(lp4345
(S'no'
p4346
g3
F0.9253
tp4347
asI494
(lp4348
(g306
g33
F0.9563
tp4349
a(S'xxx'
p4350
g129
F0.4706
tp4351
a(S'okay'
p4352
g3
F0.8815
tp4353
asI495
(lp4354
(S'mommy'
p4355
g16
F0.5271
tp4356
asI496
(lp4357
(S'what'
p4358
g33
F0.949
tp4359
asI497
(lp4360
(S'mhm'
p4361
g3
F0.9747
tp4362
asI498
(lp4363
(S'that'
p4364
g13
F0.8418
tp4365
a(S'dish'
p4366
g16
F0.9908
tp4367
a(S'used'
p4368
g10
F0.963
tp4369
a(S'to'
p4370
g30
F0.9865
tp4371
a(S'be'
p4372
g10
F0.9992
tp4373
a(S'damion'
p4374
g54
F0.954
tp4375
a(g78
g79
F0.5147
tp4376
a(S'when'
p4377
g7
F0.9631
tp4378
a(S'he'
p4379
g33
F0.9972
tp4380
a(S'was'
p4381
g10
F0.9994
tp4382
a(S'little'
p4383
g43
F0.9306
tp4384
asI499
(lp4385
(S'mommy'
p4386
g16
F0.5476
tp4387
a(S'who'
p4388
g33
F0.989
tp4389
a(S'got'
p4390
g10
F0.9998
tp4391
a(S'the'
p4392
g13
F0.9991
tp4393
a(S'pink'
p4394
g43
F0.5465
tp4395
a(S'on'
p4396
g30
F0.9968
tp4397
a(S'micky'
p4398
g54
F0.9862
tp4399
a(S'mouse'
p4400
g16
F0.8624
tp4401
asI500
(lp4402
(S'hm'
p4403
g3
F0.995
tp4404
asI501
(lp4405
(S'who'
p4406
g33
F0.9964
tp4407
a(S'got'
p4408
g10
F0.9997
tp4409
a(S'the'
p4410
g13
F0.9991
tp4411
a(S'pink'
p4412
g43
F0.6032
tp4413
a(S'on'
p4414
g30
F0.9942
tp4415
a(S'micky'
p4416
g54
F0.9906
tp4417
a(S'mouse'
p4418
g16
F0.8594
tp4419
asI502
(lp4420
(S'oh'
p4421
g3
F0.9843
tp4422
a(S'it'
p4423
g33
F0.9953
tp4424
a(S'peels'
p4425
g10
F0.9976
tp4426
a(S'off'
p4427
g372
F0.8008
tp4428
a(S'because'
p4429
g30
F0.9783
tp4430
a(g306
g33
F0.9966
tp4431
a(S'put'
p4432
g10
F0.9997
tp4433
a(S'it'
p4434
g33
F0.9831
tp4435
a(S'in'
p4436
g30
F0.977
tp4437
a(S'the'
p4438
g13
F0.9991
tp4439
a(S'microwave'
p4440
g16
F0.9878
tp4441
a(S'and'
p4442
g285
F0.9988
tp4443
a(g306
g33
F0.9887
tp4444
a(S'shouldn'
p4445
g10
F0.9913
tp4446
a(g291
g10
F0.7116
tp4447
a(S'have'
p4448
g10
F0.9901
tp4449
asI503
(lp4450
(S'you'
p4451
g33
F0.998
tp4452
a(S'peeled'
p4453
g10
F0.9989
tp4454
a(S'it'
p4455
g33
F0.9947
tp4456
a(S'off'
p4457
g372
F0.8862
tp4458
asI504
(lp4459
(S'by'
p4460
g30
F0.9841
tp4461
a(S'accident'
p4462
g16
F0.9807
tp4463
asI505
(lp4464
(S'oh'
p4465
g3
F0.9988
tp4466
asI506
(lp4467
(g306
g33
F0.9912
tp4468
a(S'know'
p4469
g10
F0.9989
tp4470
asI507
(lp4471
(S'damion'
p4472
g54
F0.967
tp4473
a(S'is'
p4474
g10
F0.9938
tp4475
a(S'gonna'
p4476
g10
F0.9747
tp4477
a(S'get'
p4478
g10
F0.9995
tp4479
a(S'mad'
p4480
g43
F0.9737
tp4481
asI508
(lp4482
(g306
g33
F0.953
tp4483
a(g2263
g10
F0.9864
tp4484
a(S'telling'
p4485
g10
F0.9964
tp4486
a(S'damion'
p4487
g54
F0.7504
tp4488
a(S'on'
p4489
g30
F0.9793
tp4490
a(S'you'
p4491
g33
F0.9989
tp4492
asI509
(lp4493
(S'please'
p4494
g10
F0.8691
tp4495
a(S'don'
p4496
g10
F0.4216
tp4497
a(g291
g79
F0.4526
tp4498
asI510
(lp4499
(g306
g33
F0.988
tp4500
a(S'am'
p4501
g10
F0.9952
tp4502
asI511
(lp4503
(S'please'
p4504
g10
F0.8691
tp4505
a(S'don'
p4506
g10
F0.4216
tp4507
a(g291
g79
F0.4526
tp4508
asI512
(lp4509
(g306
g33
F0.988
tp4510
a(S'am'
p4511
g10
F0.9952
tp4512
asI513
(lp4513
(S'hey'
p4514
g3
F0.9912
tp4515
a(S'you'
p4516
g33
F0.9996
tp4517
a(S'did'
p4518
g10
F0.9998
tp4519
a(S'this'
p4520
g33
F0.6209
tp4521
asI514
(lp4522
(S'hurry'
p4523
g10
F0.9546
tp4524
a(S'up'
p4525
g372
F0.9383
tp4526
a(S'you'
p4527
g33
F0.9987
tp4528
a(S'get'
p4529
g10
F0.9982
tp4530
a(S'dessert'
p4531
g16
F0.9214
tp4532
asI515
(lp4533
(g306
g33
F0.9912
tp4534
a(S'know'
p4535
g10
F0.9989
tp4536
asI516
(lp4537
(S'what'
p4538
g33
F0.9956
tp4539
a(S'is'
p4540
g10
F0.9997
tp4541
a(S'it'
p4542
g33
F0.9986
tp4543
asI517
(lp4544
(S'look'
p4545
g10
F0.8919
tp4546
a(S'what'
p4547
g33
F0.987
tp4548
a(S'we'
p4549
g33
F0.9988
tp4550
a(S'have'
p4551
g10
F0.9986
tp4552
a(S'got'
p4553
g10
F0.9445
tp4554
asI518
(lp4555
(g170
g13
F0.9879
tp4556
a(S'delicious'
p4557
g43
F0.9982
tp4558
a(S'what'
p4559
g33
F0.9755
tp4560
asI519
(lp4561
(S'ice'
p4562
g16
F0.7724
tp4563
a(S'cream'
p4564
g16
F0.9444
tp4565
asI520
(lp4566
(S'doughnut'
p4567
g16
F0.9826
tp4568
asI521
(lp4569
(g306
g33
F0.9635
tp4570
a(S'don'
p4571
g10
F0.9231
tp4572
a(g291
g16
F0.3137
tp4573
a(S'want'
p4574
g10
F0.9877
tp4575
a(S'doughnuts'
p4576
g16
F0.9052
tp4577
asI522
(lp4578
(S'you'
p4579
g33
F0.9968
tp4580
a(S'could'
p4581
g10
F0.9997
tp4582
a(S'help'
p4583
g10
F0.9989
tp4584
a(S'me'
p4585
g33
F0.9984
tp4586
a(S'eat'
p4587
g10
F0.9823
tp4588
a(S'doughnut'
p4589
g16
F0.9946
tp4590
asI523
(lp4591
(g306
g33
F0.9897
tp4592
a(S'want'
p4593
g10
F0.9998
tp4594
a(S'ice'
p4595
g16
F0.791
tp4596
a(S'cream'
p4597
g16
F0.97
tp4598
asI524
(lp4599
(S'we'
p4600
g33
F0.9943
tp4601
a(S'don'
p4602
g10
F0.8461
tp4603
a(g291
g16
F0.2384
tp4604
a(S'have'
p4605
g10
F0.9989
tp4606
a(S'any'
p4607
g13
F0.9954
tp4608
a(S'ice'
p4609
g16
F0.8869
tp4610
a(S'cream'
p4611
g16
F0.9483
tp4612
asI525
(lp4613
(S'tomorrow'
p4614
g16
F0.8782
tp4615
a(S'we'
p4616
g33
F0.9882
tp4617
a(S'll'
p4618
g10
F0.5786
tp4619
a(S'get'
p4620
g10
F0.9966
tp4621
a(S'ice'
p4622
g16
F0.5423
tp4623
a(S'cream'
p4624
g16
F0.9609
tp4625
asI526
(lp4626
(S'on'
p4627
g30
F0.9931
tp4628
a(S'the'
p4629
g13
F0.9996
tp4630
a(S'way'
p4631
g16
F0.9747
tp4632
a(S'home'
p4633
g7
F0.5075
tp4634
a(S'okay'
p4635
g3
F0.7987
tp4636
asI527
(lp4637
(S'yeah'
p4638
g3
F0.9988
tp4639
asI528
(lp4640
(S'yeah'
p4641
g3
F0.9988
tp4642
asI529
(lp4643
(S'hurry'
p4644
g10
F0.9546
tp4645
a(S'up'
p4646
g372
F0.9647
tp4647
a(S'and'
p4648
g285
F0.997
tp4649
a(S'eat'
p4650
g10
F0.9602
tp4651
asI530
(lp4652
(S'hurry'
p4653
g10
F0.9546
tp4654
a(S'up'
p4655
g372
F0.9701
tp4656
a(S'hurry'
p4657
g10
F0.8891
tp4658
a(S'up'
p4659
g372
F0.9874
tp4660
asI531
(lp4661
(S'because'
p4662
g30
F0.9981
tp4663
a(S'we'
p4664
g33
F0.9995
tp4665
a(S'got'
p4666
g10
F0.9999
tp4667
a(S'your'
p4668
g13
F0.971
tp4669
a(S'apple'
p4670
g16
F0.7246
tp4671
a(S'doughnut'
p4672
g16
F0.997
tp4673
asI532
(lp4674
(S'want'
p4675
g10
F0.9863
tp4676
a(S'milk'
p4677
g16
F0.986
tp4678
a(S'with'
p4679
g30
F0.9997
tp4680
a(S'it'
p4681
g33
F0.9969
tp4682
a(S'or'
p4683
g285
F0.9822
tp4684
a(S'tonic'
p4685
g16
F0.9928
tp4686
asI533
(lp4687
(S'tonic'
p4688
g16
F0.9763
tp4689
asI534
(lp4690
(S'sprite'
p4691
g16
F0.7685
tp4692
asI535
(lp4693
(S'alright'
p4694
g3
F0.9374
tp4695
a(S'hurry'
p4696
g10
F0.9566
tp4697
a(S'up'
p4698
g372
F0.9753
tp4699
a(S'and'
p4700
g285
F0.9965
tp4701
a(S'eat'
p4702
g10
F0.9988
tp4703
a(S'your'
p4704
g13
F0.992
tp4705
a(S'sandwich'
p4706
g16
F0.9983
tp4707
asI536
(lp4708
(S'sprite'
p4709
g16
F0.7685
tp4710
asI537
(lp4711
(S'sprite'
p4712
g16
F0.7685
tp4713
asI538
(lp4714
(S'uhhuh'
p4715
g3
F0.9892
tp4716
asI539
(lp4717
(S'okay'
p4718
g3
F0.9088
tp4719
a(S'hurry'
p4720
g10
F0.9358
tp4721
a(S'up'
p4722
g372
F0.9753
tp4723
a(S'and'
p4724
g285
F0.9965
tp4725
a(S'eat'
p4726
g10
F0.9988
tp4727
a(S'your'
p4728
g13
F0.992
tp4729
a(S'sandwich'
p4730
g16
F0.9983
tp4731
asI540
(lp4732
(S'sprite'
p4733
g16
F0.8256
tp4734
a(S'is'
p4735
g10
F0.9946
tp4736
a(S'coming'
p4737
g10
F0.9971
tp4738
a(S'up'
p4739
g372
F0.988
tp4740
asI541
(lp4741
(S'huh'
p4742
g3
F0.993
tp4743
asI542
(lp4744
(g306
g33
F0.9893
tp4745
a(S'said'
p4746
g10
F0.9987
tp4747
a(S'sprite'
p4748
g16
F0.9222
tp4749
a(S'is'
p4750
g10
F0.9909
tp4751
a(S'coming'
p4752
g10
F0.9982
tp4753
a(S'up'
p4754
g372
F0.9878
tp4755
asI543
(lp4756
(S'or'
p4757
g285
F0.9924
tp4758
a(S'you'
p4759
g33
F0.9992
tp4760
a(S'could'
p4761
g10
F0.9996
tp4762
a(S'have'
p4763
g10
F0.9906
tp4764
a(S'root'
p4765
g16
F0.9214
tp4766
a(S'beer'
p4767
g16
F0.9968
tp4768
asI544
(lp4769
(S'you'
p4770
g33
F0.998
tp4771
a(S'want'
p4772
g10
F0.9999
tp4773
a(S'some'
p4774
g13
F0.995
tp4775
a(S'root'
p4776
g16
F0.9637
tp4777
a(S'beer'
p4778
g16
F0.998
tp4779
a(S'from'
p4780
g30
F0.9999
tp4781
a(S'the'
p4782
g13
F0.986
tp4783
a(S'can'
p4784
g10
F0.4871
tp4785
asI545
(lp4786
(S'yeah'
p4787
g3
F0.9988
tp4788
asI546
(lp4789
(g170
g13
F0.9956
tp4790
a(S'little'
p4791
g43
F0.9983
tp4792
a(S'bit'
p4793
g16
F0.9562
tp4794
a(S'be'
p4795
g10
F0.9827
tp4796
a(S'cause'
p4797
g30
F0.914
tp4798
a(S'it'
p4799
g33
F0.9967
tp4800
a(g78
g10
F0.5065
tp4801
a(S'late'
p4802
g43
F0.956
tp4803
asI547
(lp4804
(S'okay'
p4805
g3
F0.9857
tp4806
asI548
(lp4807
(S'gimme'
p4808
g89
F0.828
tp4809
a(S'give'
p4810
g10
F0.9976
tp4811
a(S'me'
p4812
g33
F0.9974
tp4813
a(S'it'
p4814
g33
F0.9376
tp4815
asI549
(lp4816
(S'time'
p4817
g16
F0.9742
tp4818
a(S'to'
p4819
g30
F0.9989
tp4820
a(S'eat'
p4821
g10
F0.9996
tp4822
a(S'your'
p4823
g13
F0.9938
tp4824
a(S'sandwich'
p4825
g16
F0.9984
tp4826
a(S'hurry'
p4827
g10
F0.8811
tp4828
a(S'up'
p4829
g372
F0.9622
tp4830
a(S'and'
p4831
g285
F0.9984
tp4832
a(g306
g33
F0.9896
tp4833
a(S'll'
p4834
g10
F0.7481
tp4835
a(S'pour'
p4836
g10
F0.9781
tp4837
a(S'some'
p4838
g13
F0.7564
tp4839
a(S'in'
p4840
g30
F0.9903
tp4841
a(S'your'
p4842
g13
F0.9916
tp4843
a(S'cup'
p4844
g16
F0.9965
tp4845
asI550
(lp4846
(S'www'
p4847
g54
F0.3889
tp4848
asI551
(lp4849
(S'hurry'
p4850
g10
F0.9546
tp4851
a(S'up'
p4852
g372
F0.9701
tp4853
a(S'hurry'
p4854
g10
F0.8891
tp4855
a(S'up'
p4856
g372
F0.9874
tp4857
asI552
(lp4858
(g306
g33
F0.9902
tp4859
a(S'want'
p4860
g10
F0.9999
tp4861
a(S'the'
p4862
g13
F0.9908
tp4863
asI553
(lp4864
(S'www'
p4865
g54
F0.3889
tp4866
asI554
(lp4867
(S'you'
p4868
g33
F0.992
tp4869
a(S'almost'
p4870
g7
F0.989
tp4871
a(S'done'
p4872
g10
F0.9764
tp4873
asI555
(lp4874
(S'uhhuh'
p4875
g3
F0.9892
tp4876
asI556
(lp4877
(S'how'
p4878
g7
F0.9555
tp4879
a(S'are'
p4880
g10
F0.9948
tp4881
a(S'you'
p4882
g33
F0.9994
tp4883
a(S'doing'
p4884
g10
F0.9994
tp4885
asI557
(lp4886
(g306
g33
F0.953
tp4887
a(g2263
g10
F0.9928
tp4888
a(S'all'
p4889
g13
F0.8172
tp4890
a(S'done'
p4891
g10
F0.4507
tp4892
asI558
(lp4893
(S'is'
p4894
g10
F0.9991
tp4895
a(S'your'
p4896
g13
F0.9889
tp4897
a(S'sandwich'
p4898
g16
F0.9988
tp4899
a(S'all'
p4900
g13
F0.6862
tp4901
a(S'gone'
p4902
g43
F0.5799
tp4903
asI559
(lp4904
(S'uhhuh'
p4905
g3
F0.9892
tp4906
asI560
(lp4907
(S'let'
p4908
g10
F0.9968
tp4909
a(S'me'
p4910
g33
F0.9996
tp4911
a(S'see'
p4912
g10
F0.969
tp4913
asI561
(lp4914
(S'come'
p4915
g10
F0.9648
tp4916
a(S'get'
p4917
g10
F0.9996
tp4918
a(S'your'
p4919
g13
F0.9943
tp4920
a(S'dessert'
p4921
g16
F0.9977
tp4922
a(S'now'
p4923
g7
F0.9913
tp4924
a(S'hurry'
p4925
g10
F0.984
tp4926
a(S'up'
p4927
g372
F0.9823
tp4928
asI562
(lp4929
(S'no'
p4930
g13
F0.8105
tp4931
a(S'tonic'
p4932
g16
F0.9997
tp4933
a(S'and'
p4934
g285
F0.9977
tp4935
a(S'no'
p4936
g13
F0.937
tp4937
a(S'dessert'
p4938
g16
F0.9991
tp4939
asI563
(lp4940
(S'mommy'
p4941
g16
F0.5271
tp4942
asI564
(lp4943
(S'but'
p4944
g285
F0.9929
tp4945
a(S'but'
p4946
g285
F0.9733
tp4947
a(S'the'
p4948
g13
F0.9602
tp4949
a(S'but'
p4950
g285
F0.9858
tp4951
a(S'the'
p4952
g13
F0.9789
tp4953
asI565
(lp4954
(S'you'
p4955
g33
F0.9754
tp4956
a(S're'
p4957
g10
F0.6572
tp4958
a(S'almost'
p4959
g7
F0.9968
tp4960
a(S'done'
p4961
g10
F0.9808
tp4962
a(S'hurry'
p4963
g10
F0.9327
tp4964
a(S'up'
p4965
g372
F0.9699
tp4966
a(g306
g33
F0.9931
tp4967
a(S'want'
p4968
g10
F0.9996
tp4969
a(S'xxx'
p4970
g129
F0.7469
tp4971
asI566
(lp4972
(S'but'
p4973
g285
F0.9841
tp4974
a(S'the'
p4975
g13
F0.9976
tp4976
a(S'doughnuts'
p4977
g16
F0.9554
tp4978
a(S'gets'
p4979
g10
F0.9945
tp4980
a(S'on'
p4981
g30
F0.9454
tp4982
a(S'my'
p4983
g13
F0.9979
tp4984
a(S'hand'
p4985
g16
F0.9978
tp4986
asI567
(lp4987
(S'well'
p4988
g3
F0.7437
tp4989
a(S'just'
p4990
g7
F0.999
tp4991
a(S'eat'
p4992
g10
F0.9993
tp4993
a(S'it'
p4994
g33
F0.9919
tp4995
a(S'and'
p4996
g285
F0.9962
tp4997
a(S'it'
p4998
g33
F0.9975
tp4999
a(S'won'
p5000
g10
F0.9396
tp5001
a(g291
g79
F0.4851
tp5002
asI568
(lp5003
(g306
g33
F0.9873
tp5004
a(S'do'
p5005
g10
F0.9998
tp5006
a(S'but'
p5007
g285
F0.9772
tp5008
a(S'then'
p5009
g7
F0.9895
tp5010
a(S'it'
p5011
g33
F0.9981
tp5012
a(S'gets'
p5013
g10
F0.9998
tp5014
a(S'on'
p5015
g30
F0.9775
tp5016
a(S'my'
p5017
g13
F0.9976
tp5018
a(S'hand'
p5019
g16
F0.9985
tp5020
asI569
(lp5021
(S'hurry'
p5022
g10
F0.9362
tp5023
a(S'up'
p5024
g372
F0.9889
tp5025
asI570
(lp5026
(S'chi'
p5027
g3
F0.4684
tp5028
asI571
(lp5029
(S'uhuh'
p5030
g3
F0.9919
tp5031
asI572
(lp5032
(S'hurry'
p5033
g10
F0.9362
tp5034
a(S'up'
p5035
g372
F0.9889
tp5036
asI573
(lp5037
(S'eat'
p5038
g10
F0.979
tp5039
a(S'the'
p5040
g13
F0.9995
tp5041
a(S'tuna'
p5042
g16
F0.9726
tp5043
a(S'fish'
p5044
g16
F0.9979
tp5045
asI574
(lp5046
(S'you'
p5047
g33
F0.998
tp5048
a(S'want'
p5049
g10
F0.9999
tp5050
a(g170
g13
F0.9983
tp5051
a(S'spoon'
p5052
g16
F0.9957
tp5053
a(S'to'
p5054
g30
F0.9993
tp5055
a(S'eat'
p5056
g10
F0.9997
tp5057
a(S'it'
p5058
g33
F0.9894
tp5059
a(S'with'
p5060
g30
F0.9891
tp5061
asI575
(lp5062
(S'xxx'
p5063
g129
F0.8437
tp5064
asI576
(lp5065
(S'alright'
p5066
g3
F0.9864
tp5067
asI577
(lp5068
(S'that'
p5069
g33
F0.473
tp5070
a(g78
g10
F0.8719
tp5071
a(S'it'
p5072
g33
F0.9587
tp5073
a(S'you'
p5074
g33
F0.9844
tp5075
a(S're'
p5076
g10
F0.7653
tp5077
a(S'not'
p5078
g7
F0.996
tp5079
a(S'getting'
p5080
g10
F0.9996
tp5081
a(S'any'
p5082
g13
F0.9942
tp5083
a(S'tonic'
p5084
g16
F0.998
tp5085
asI578
(lp5086
(S'no'
p5087
g3
F0.9253
tp5088
asI579
(lp5089
(S'now'
p5090
g7
F0.9815
tp5091
a(S'hurry'
p5092
g10
F0.9841
tp5093
a(S'up'
p5094
g372
F0.9937
tp5095
asI580
(lp5096
(S'eat'
p5097
g10
F0.9797
tp5098
a(S'some'
p5099
g13
F0.9562
tp5100
a(S'more'
p5101
g43
F0.837
tp5102
a(S'of'
p5103
g30
F0.9979
tp5104
a(S'that'
p5105
g13
F0.8721
tp5106
a(S'sandwich'
p5107
g16
F0.995
tp5108
asI581
(lp5109
(g306
g33
F0.9897
tp5110
a(S'want'
p5111
g10
F1.0
tp5112
a(g170
g13
F0.9983
tp5113
a(S'spoon'
p5114
g16
F0.9883
tp5115
a(S'and'
p5116
g285
F0.9962
tp5117
a(S'eat'
p5118
g10
F0.9987
tp5119
a(S'it'
p5120
g33
F0.9949
tp5121
a(S'out'
p5122
g30
F0.7416
tp5123
a(S'of'
p5124
g30
F0.9984
tp5125
a(S'the'
p5126
g13
F0.9987
tp5127
a(S'bowl'
p5128
g16
F0.9985
tp5129
asI582
(lp5130
(S'mommy'
p5131
g16
F0.7607
tp5132
a(g306
g33
F0.9555
tp5133
a(S'want'
p5134
g10
F1.0
tp5135
a(g170
g13
F0.9984
tp5136
a(S'spoon'
p5137
g16
F0.9898
tp5138
a(S'and'
p5139
g285
F0.9962
tp5140
a(S'eat'
p5141
g10
F0.9987
tp5142
a(S'it'
p5143
g33
F0.9949
tp5144
a(S'out'
p5145
g30
F0.7416
tp5146
a(S'of'
p5147
g30
F0.9988
tp5148
a(S'the'
p5149
g13
F0.9989
tp5150
a(S'bowl'
p5151
g16
F0.9985
tp5152
asI583
(lp5153
(S'can'
p5154
g10
F0.9627
tp5155
a(g291
g10
F0.8083
tp5156
a(S'eat'
p5157
g10
F0.9965
tp5158
a(S'it'
p5159
g33
F0.9935
tp5160
a(S'out'
p5161
g30
F0.7416
tp5162
a(S'of'
p5163
g30
F0.9985
tp5164
a(S'the'
p5165
g13
F0.9989
tp5166
a(S'bowl'
p5167
g16
F0.9981
tp5168
asI584
(lp5169
(S'you'
p5170
g33
F0.998
tp5171
a(S'have'
p5172
g10
F0.9994
tp5173
a(S'to'
p5174
g30
F0.9959
tp5175
a(S'eat'
p5176
g10
F0.9989
tp5177
a(S'that'
p5178
g33
F0.4841
tp5179
a(S'right'
p5180
g7
F0.7237
tp5181
a(S'there'
p5182
g7
F0.7922
tp5183
asI585
(lp5184
(S'take'
p5185
g10
F0.9952
tp5186
a(S'the'
p5187
g13
F0.9998
tp5188
a(S'top'
p5189
g16
F0.7421
tp5190
a(S'off'
p5191
g30
F0.461
tp5192
a(S'and'
p5193
g285
F0.9972
tp5194
a(S'eat'
p5195
g10
F0.9903
tp5196
a(S'with'
p5197
g30
F0.9993
tp5198
a(S'your'
p5199
g13
F0.9957
tp5200
a(S'spoon'
p5201
g16
F0.9965
tp5202
asI586
(lp5203
(S'here'
p5204
g7
F0.7796
tp5205
asI587
(lp5206
(S'www'
p5207
g54
F0.3889
tp5208
asI588
(lp5209
(S'here'
p5210
g7
F0.9382
tp5211
a(g78
g79
F0.7745
tp5212
a(g170
g13
F0.993
tp5213
a(S'spoon'
p5214
g16
F0.9935
tp5215
a(S'for'
p5216
g30
F0.9998
tp5217
a(S'you'
p5218
g33
F0.9991
tp5219
asI589
(lp5220
(S'you'
p5221
g33
F0.998
tp5222
a(S'have'
p5223
g10
F0.9994
tp5224
a(S'to'
p5225
g30
F0.9959
tp5226
a(S'eat'
p5227
g10
F0.995
tp5228
a(S'what'
p5229
g33
F0.9896
tp5230
a(g78
g10
F0.4413
tp5231
a(S'in'
p5232
g30
F0.9788
tp5233
a(S'your'
p5234
g13
F0.9918
tp5235
a(S'dish'
p5236
g16
F0.9969
tp5237
a(S'first'
p5238
g43
F0.5917
tp5239
asI590
(lp5240
(S'and'
p5241
g285
F0.999
tp5242
a(g306
g33
F0.988
tp5243
a(S'don'
p5244
g10
F0.9187
tp5245
a(g291
g16
F0.2247
tp5246
a(S'want'
p5247
g10
F0.9957
tp5248
a(S'to'
p5249
g30
F0.9955
tp5250
a(S'hear'
p5251
g10
F0.9965
tp5252
a(S'anything'
p5253
g16
F0.989
tp5254
a(S'now'
p5255
g7
F0.9932
tp5256
a(S'you'
p5257
g33
F0.994
tp5258
a(S're'
p5259
g10
F0.6303
tp5260
a(S'being'
p5261
g10
F0.9911
tp5262
a(S'naughty'
p5263
g43
F0.9636
tp5264
asI591
(lp5265
(S'no'
p5266
g3
F0.9253
tp5267
asI592
(lp5268
(g306
g33
F0.9635
tp5269
a(S'don'
p5270
g10
F0.9231
tp5271
a(g291
g16
F0.2639
tp5272
a(S'care'
p5273
g10
F0.9812
tp5274
a(S'you'
p5275
g33
F0.9996
tp5276
a(S'know'
p5277
g10
F0.9998
tp5278
a(S'the'
p5279
g13
F0.9965
tp5280
a(S'longer'
p5281
g7
F0.6545
tp5282
a(S'you'
p5283
g33
F0.9982
tp5284
a(S'take'
p5285
g10
F0.9985
tp5286
a(S'then'
p5287
g7
F0.921
tp5288
a(S'we'
p5289
g33
F0.9974
tp5290
a(S'are'
p5291
g10
F0.9994
tp5292
a(S'not'
p5293
g7
F0.9973
tp5294
a(S'going'
p5295
g10
F0.9986
tp5296
a(S'have'
p5297
g10
F0.9991
tp5298
a(S'any'
p5299
g13
F0.9978
tp5300
a(S'time'
p5301
g16
F0.9978
tp5302
asI593
(lp5303
(g306
g33
F0.9882
tp5304
a(S'need'
p5305
g10
F0.9996
tp5306
a(S'some'
p5307
g13
F0.8448
tp5308
a(S'help'
p5309
g16
F0.8637
tp5310
asI594
(lp5311
(S'no'
p5312
g13
F0.9082
tp5313
a(S'time'
p5314
g16
F0.9998
tp5315
a(S'to'
p5316
g30
F0.9968
tp5317
a(S'read'
p5318
g10
F0.9925
tp5319
asI595
(lp5320
(S'make'
p5321
g10
F0.9747
tp5322
a(S'that'
p5323
g13
F0.3917
tp5324
a(S'go'
p5325
g10
F0.8891
tp5326
a(S'quickly'
p5327
g7
F0.9977
tp5328
asI596
(lp5329
(S'xxx'
p5330
g129
F0.6766
tp5331
a(S'help'
p5332
g10
F0.7918
tp5333
asI597
(lp5334
(S'huh'
p5335
g3
F0.993
tp5336
asI598
(lp5337
(S'help'
p5338
g10
F0.9888
tp5339
a(S'me'
p5340
g33
F0.9984
tp5341
asI599
(lp5342
(S'alright'
p5343
g3
F0.9864
tp5344
asI600
(lp5345
(g306
g33
F0.9793
tp5346
a(S'll'
p5347
g10
F0.8175
tp5348
a(S'be'
p5349
g10
F0.9982
tp5350
a(S'right'
p5351
g7
F0.848
tp5352
a(S'there'
p5353
g7
F0.8093
tp5354
asI601
(lp5355
(S'be'
p5356
g10
F0.9815
tp5357
a(S'eating'
p5358
g10
F0.9937
tp5359
a(S'until'
p5360
g30
F0.9912
tp5361
a(g306
g33
F0.9953
tp5362
a(S'get'
p5363
g10
F0.9999
tp5364
a(S'there'
p5365
g13
F0.455
tp5366
a(S'hurry'
p5367
g10
F0.5709
tp5368
a(S'up'
p5369
g372
F0.9832
tp5370
asI602
(lp5371
(S'be'
p5372
g10
F0.9793
tp5373
a(S'eating'
p5374
g10
F0.9781
tp5375
asI603
(lp5376
(S'mommy'
p5377
g16
F0.7607
tp5378
a(g306
g33
F0.9594
tp5379
a(S'can'
p5380
g10
F0.9996
tp5381
a(g291
g10
F0.4527
tp5382
asI604
(lp5383
(S'yes'
p5384
g3
F0.9836
tp5385
a(S'you'
p5386
g33
F0.9981
tp5387
a(S'can'
p5388
g10
F0.9995
tp5389
asI605
(lp5390
(g306
g33
F0.9896
tp5391
a(S'have'
p5392
g10
F0.9998
tp5393
a(S'to'
p5394
g30
F0.9941
tp5395
a(S'wait'
p5396
g10
F0.9983
tp5397
a(S'for'
p5398
g30
F0.9981
tp5399
a(S'you'
p5400
g33
F0.9991
tp5401
asI606
(lp5402
(S'no'
p5403
g3
F0.9253
tp5404
asI607
(lp5405
(S'you'
p5406
g33
F0.9966
tp5407
a(S'take'
p5408
g10
F0.9999
tp5409
a(S'another'
p5410
g13
F0.9845
tp5411
a(S'bite'
p5412
g16
F0.9243
tp5413
a(S'while'
p5414
g30
F0.6513
tp5415
a(g306
g33
F0.9926
tp5416
a(g2263
g10
F0.982
tp5417
a(S'getting'
p5418
g10
F0.9994
tp5419
a(S'the'
p5420
g13
F0.9996
tp5421
a(S'rest'
p5422
g16
F0.9979
tp5423
a(S'of'
p5424
g30
F0.9995
tp5425
a(S'the'
p5426
g13
F0.9996
tp5427
a(S'stuff'
p5428
g16
F0.9981
tp5429
a(S'here'
p5430
g7
F0.9698
tp5431
asI608
(lp5432
(S'hurry'
p5433
g10
F0.9362
tp5434
a(S'up'
p5435
g372
F0.9889
tp5436
asI609
(lp5437
(g306
g33
F0.9873
tp5438
a(S'can'
p5439
g10
F0.9996
tp5440
a(g291
g10
F0.6143
tp5441
a(g306
g33
F0.9747
tp5442
a(g2263
g10
F0.9877
tp5443
a(S'waiting'
p5444
g10
F0.9904
tp5445
asI610
(lp5446
(S'alright'
p5447
g3
F0.9864
tp5448
asI611
(lp5449
(S'no'
p5450
g13
F0.4023
tp5451
a(S'more'
p5452
g43
F0.952
tp5453
a(S'time'
p5454
g16
F0.9988
tp5455
a(S'to'
p5456
g30
F0.9979
tp5457
a(S'read'
p5458
g10
F0.9952
tp5459
a(S'and'
p5460
g285
F0.9972
tp5461
a(S'you'
p5462
g33
F0.9995
tp5463
a(S'won'
p5464
g10
F0.978
tp5465
a(g291
g16
F0.2644
tp5466
a(S'and'
p5467
g285
F0.9971
tp5468
a(S'you'
p5469
g33
F0.9991
tp5470
a(S'll'
p5471
g10
F0.694
tp5472
a(S'miss'
p5473
g10
F0.9936
tp5474
a(S'out'
p5475
g372
F0.8787
tp5476
asI612
(lp5477
(S'no'
p5478
g3
F0.9253
tp5479
asI613
(lp5480
(S'you'
p5481
g33
F0.963
tp5482
a(S're'
p5483
g10
F0.7034
tp5484
a(S'eating'
p5485
g10
F0.9911
tp5486
asI614
(lp5487
(S'no'
p5488
g3
F0.9253
tp5489
asI615
(lp5490
(S'well'
p5491
g3
F0.9502
tp5492
a(S'that'
p5493
g33
F0.813
tp5494
a(g78
g79
F0.4388
tp5495
a(S'what'
p5496
g33
F0.9794
tp5497
a(g78
g79
F0.4554
tp5498
a(S'going'
p5499
g10
F0.9966
tp5500
a(S'to'
p5501
g30
F0.9829
tp5502
a(S'happen'
p5503
g10
F0.9992
tp5504
a(g306
g33
F0.9957
tp5505
a(S'think'
p5506
g10
F0.9998
tp5507
asI616
(lp5508
(S'what'
p5509
g33
F0.9931
tp5510
a(S'do'
p5511
g10
F0.9991
tp5512
a(S'you'
p5513
g33
F0.9997
tp5514
a(S'think'
p5515
g10
F0.9972
tp5516
asI617
(lp5517
(g306
g33
F0.953
tp5518
a(g2263
g10
F0.9837
tp5519
a(S'waiting'
p5520
g10
F0.9947
tp5521
a(S'for'
p5522
g30
F0.9995
tp5523
a(S'you'
p5524
g33
F0.999
tp5525
asI618
(lp5526
(S'get'
p5527
g10
F0.9973
tp5528
a(S'the'
p5529
g13
F0.9993
tp5530
a(S'sandwich'
p5531
g16
F0.9881
tp5532
a(S'and'
p5533
g285
F0.9949
tp5534
a(S'take'
p5535
g10
F0.9984
tp5536
a(S'another'
p5537
g13
F0.9856
tp5538
a(S'bite'
p5539
g16
F0.9286
tp5540
a(S'while'
p5541
g30
F0.6513
tp5542
a(g306
g33
F0.9926
tp5543
a(g2263
g10
F0.9941
tp5544
a(S'over'
p5545
g30
F0.6753
tp5546
a(S'here'
p5547
g7
F0.9659
tp5548
a(S'because'
p5549
g30
F0.9736
tp5550
a(g306
g33
F0.9974
tp5551
a(S'got'
p5552
g10
F0.9998
tp5553
a(S'to'
p5554
g30
F0.9666
tp5555
a(S'put'
p5556
g10
F0.9957
tp5557
a(S'things'
p5558
g16
F0.9924
tp5559
a(S'in'
p5560
g30
F0.9934
tp5561
a(S'here'
p5562
g7
F0.898
tp5563
asI619
(lp5564
(g306
g33
F0.953
tp5565
a(g2263
g10
F0.9837
tp5566
a(S'waiting'
p5567
g10
F0.9947
tp5568
a(S'for'
p5569
g30
F0.9995
tp5570
a(S'you'
p5571
g33
F0.999
tp5572
asI620
(lp5573
(g306
g33
F0.9896
tp5574
a(S'have'
p5575
g10
F0.9998
tp5576
a(S'to'
p5577
g30
F0.9967
tp5578
a(S'get'
p5579
g10
F0.9991
tp5580
a(S'uh'
p5581
g3
F0.7524
tp5582
a(S'the'
p5583
g13
F0.9971
tp5584
a(S'tonic'
p5585
g16
F0.9941
tp5586
asI621
(lp5587
(S'come'
p5588
g10
F0.9849
tp5589
a(S'on'
p5590
g30
F0.8996
tp5591
a(S'chi'
p5592
g54
F0.6308
tp5593
asI622
(lp5594
(S'alright'
p5595
g3
F0.9864
tp5596
asI623
(lp5597
(g306
g33
F0.9635
tp5598
a(S'don'
p5599
g10
F0.9231
tp5600
a(g291
g10
F0.3155
tp5601
a(S'think'
p5602
g10
F0.9992
tp5603
a(S'you'
p5604
g33
F0.9996
tp5605
a(S'want'
p5606
g10
F0.9999
tp5607
a(S'any'
p5608
g13
F0.901
tp5609
a(S'more'
p5610
g43
F0.9674
tp5611
a(S'tonic'
p5612
g16
F0.9947
tp5613
a(S'either'
p5614
g285
F0.5009
tp5615
asI624
(lp5616
(g306
g33
F0.9902
tp5617
a(S'want'
p5618
g10
F0.9996
tp5619
a(S'xxx'
p5620
g129
F0.7097
tp5621
asI625
(lp5622
(S'you'
p5623
g33
F0.998
tp5624
a(S'want'
p5625
g10
F0.9998
tp5626
a(S'some'
p5627
g13
F0.9924
tp5628
a(S'tonic'
p5629
g16
F0.9945
tp5630
asI626
(lp5631
(S'yup'
p5632
g3
F0.9978
tp5633
asI627
(lp5634
(S'alright'
p5635
g3
F0.9864
tp5636
asI628
(lp5637
(S'get'
p5638
g10
F0.9991
tp5639
a(S'up'
p5640
g372
F0.9485
tp5641
a(S'there'
p5642
g7
F0.9397
tp5643
a(S'and'
p5644
g285
F0.9966
tp5645
a(S'take'
p5646
g10
F0.999
tp5647
a(S'another'
p5648
g13
F0.9815
tp5649
a(S'bite'
p5650
g16
F0.9
tp5651
asI629
(lp5652
(S'hurry'
p5653
g10
F0.9362
tp5654
a(S'up'
p5655
g372
F0.9889
tp5656
asI630
(lp5657
(g306
g33
F0.953
tp5658
a(g2263
g10
F0.9928
tp5659
a(S'all'
p5660
g13
F0.8172
tp5661
a(S'done'
p5662
g10
F0.4507
tp5663
asI631
(lp5664
(S'take'
p5665
g10
F0.9965
tp5666
a(S'another'
p5667
g13
F0.9864
tp5668
a(S'bite'
p5669
g16
F0.8898
tp5670
a(S'chi'
p5671
g16
F0.5554
tp5672
a(S'hurry'
p5673
g10
F0.9831
tp5674
a(S'up'
p5675
g372
F0.9874
tp5676
asI632
(lp5677
(g306
g33
F0.953
tp5678
a(g2263
g10
F0.9928
tp5679
a(S'all'
p5680
g13
F0.8172
tp5681
a(S'done'
p5682
g10
F0.4507
tp5683
asI633
(lp5684
(S'alright'
p5685
g3
F0.9719
tp5686
a(S'why'
p5687
g7
F0.8892
tp5688
a(S'don'
p5689
g16
F0.278
tp5690
a(g291
g10
F0.5356
tp5691
a(S'you'
p5692
g33
F0.9992
tp5693
a(S'get'
p5694
g10
F0.9997
tp5695
a(S'away'
p5696
g7
F0.82
tp5697
a(S'from'
p5698
g30
F0.9997
tp5699
a(S'the'
p5700
g13
F0.9986
tp5701
a(S'table'
p5702
g16
F0.989
tp5703
a(S'and'
p5704
g285
F0.9949
tp5705
a(S'get'
p5706
g10
F0.9977
tp5707
a(S'undressed'
p5708
g10
F0.8878
tp5709
asI634
(lp5710
(S'no'
p5711
g3
F0.9253
tp5712
asI635
(lp5713
(g306
g33
F0.9635
tp5714
a(S'don'
p5715
g10
F0.9231
tp5716
a(g291
g16
F0.3137
tp5717
a(S'want'
p5718
g10
F0.9906
tp5719
a(S'to'
p5720
g30
F0.9492
tp5721
asI636
(lp5722
(S'then'
p5723
g7
F0.977
tp5724
a(S'where'
p5725
g7
F0.9481
tp5726
a(S'are'
p5727
g10
F0.9922
tp5728
a(S'you'
p5729
g33
F0.9967
tp5730
a(S'chi'
p5731
g10
F0.293
tp5732
asI637
(lp5733
(S'where'
p5734
g7
F0.9333
tp5735
a(S'are'
p5736
g10
F0.9864
tp5737
a(S'you'
p5738
g33
F0.9977
tp5739
asI638
(lp5740
(g306
g33
F0.953
tp5741
a(g2263
g10
F0.9873
tp5742
a(S'on'
p5743
g30
F0.9637
tp5744
a(S'the'
p5745
g13
F0.9994
tp5746
a(S'floor'
p5747
g16
F0.994
tp5748
asI639
(lp5749
(S'get'
p5750
g10
F0.9936
tp5751
a(S'on'
p5752
g30
F0.9343
tp5753
a(S'your'
p5754
g13
F0.9959
tp5755
a(S'feet'
p5756
g16
F0.9992
tp5757
asI640
(lp5758
(S'get'
p5759
g10
F0.9991
tp5760
a(S'up'
p5761
g372
F0.9605
tp5762
a(S'at'
p5763
g30
F0.9994
tp5764
a(S'the'
p5765
g13
F0.9991
tp5766
a(S'table'
p5767
g16
F0.989
tp5768
a(S'and'
p5769
g285
F0.9973
tp5770
a(S'finish'
p5771
g10
F0.9969
tp5772
a(S'your'
p5773
g13
F0.9911
tp5774
a(S'supper'
p5775
g16
F0.9971
tp5776
asI641
(lp5777
(g306
g33
F0.9892
tp5778
a(S'got'
p5779
g10
F0.9993
tp5780
a(S'tuna'
p5781
g16
F0.9091
tp5782
a(S'fishes'
p5783
g16
F0.813
tp5784
a(g170
g13
F0.7883
tp5785
a(S'haha'
p5786
g3
F0.9133
tp5787
a(S'x'
p5788
g129
F0.7244
tp5789
a(S'2'
p5790
g698
F0.4475
tp5791
asI642
(lp5792
(g306
g33
F0.953
tp5793
a(g2263
g10
F0.961
tp5794
a(S'feeling'
p5795
g10
F0.9955
tp5796
a(S'sick'
p5797
g43
F0.9862
tp5798
asI643
(lp5799
(g306
g33
F0.953
tp5800
a(g2263
g10
F0.9629
tp5801
a(S'gonna'
p5802
g10
F0.9946
tp5803
a(S'throw'
p5804
g10
F0.9978
tp5805
a(S'up'
p5806
g372
F0.9929
tp5807
asI644
(lp5808
(S'what'
p5809
g33
F0.949
tp5810
asI645
(lp5811
(g306
g33
F0.953
tp5812
a(g2263
g10
F0.9629
tp5813
a(S'gonna'
p5814
g10
F0.9946
tp5815
a(S'throw'
p5816
g10
F0.9978
tp5817
a(S'up'
p5818
g372
F0.9929
tp5819
asI646
(lp5820
(S'no'
p5821
g3
F0.7985
tp5822
a(S'you'
p5823
g33
F0.978
tp5824
a(S're'
p5825
g10
F0.6994
tp5826
a(S'not'
p5827
g7
F0.9941
tp5828
asI647
(lp5829
(S'yes'
p5830
g3
F0.9899
tp5831
a(g306
g33
F0.9934
tp5832
a(S'am'
p5833
g10
F0.999
tp5834
a(S'if'
p5835
g30
F0.9762
tp5836
a(g306
g33
F0.9962
tp5837
a(S'eat'
p5838
g10
F0.9997
tp5839
a(S'all'
p5840
g13
F0.9065
tp5841
a(S'of'
p5842
g30
F0.9947
tp5843
a(S'this'
p5844
g13
F0.7673
tp5845
a(g306
g33
F0.9612
tp5846
a(g2263
g10
F0.9607
tp5847
a(S'gonna'
p5848
g10
F0.9946
tp5849
a(S'throw'
p5850
g10
F0.9987
tp5851
a(S'up'
p5852
g372
F0.9888
tp5853
asI648
(lp5854
(S'well'
p5855
g3
F0.7958
tp5856
a(S'then'
p5857
g7
F0.9869
tp5858
a(g306
g33
F0.9938
tp5859
a(S'guess'
p5860
g10
F1.0
tp5861
a(S'you'
p5862
g33
F0.9987
tp5863
a(S'don'
p5864
g10
F0.8626
tp5865
a(g291
g16
F0.2172
tp5866
a(S'have'
p5867
g10
F0.999
tp5868
a(S'any'
p5869
g13
F0.9973
tp5870
a(S'room'
p5871
g16
F0.9957
tp5872
a(S'for'
p5873
g30
F0.9996
tp5874
a(S'tonic'
p5875
g16
F0.9516
tp5876
a(S'either'
p5877
g285
F0.483
tp5878
asI649
(lp5879
(S'mommy'
p5880
g16
F0.7607
tp5881
a(g306
g33
F0.8587
tp5882
a(g2263
g10
F0.9866
tp5883
a(S'sick'
p5884
g43
F0.9853
tp5885
asI650
(lp5886
(g306
g33
F0.953
tp5887
a(g2263
g10
F0.9629
tp5888
a(S'gonna'
p5889
g10
F0.9911
tp5890
a(S'get'
p5891
g10
F0.9991
tp5892
a(S'real'
p5893
g43
F0.7302
tp5894
a(S'sick'
p5895
g43
F0.9875
tp5896
asI651
(lp5897
(S'no'
p5898
g3
F0.9253
tp5899
asI652
(lp5900
(S'ma'
p5901
g13
F0.5636
tp5902
a(g306
g33
F0.9401
tp5903
a(g2263
g10
F0.9644
tp5904
a(S'gonna'
p5905
g10
F0.9954
tp5906
a(S'be'
p5907
g10
F0.9993
tp5908
a(S'real'
p5909
g7
F0.8347
tp5910
a(S'sick'
p5911
g43
F0.9992
tp5912
asI653
(lp5913
(S'okay'
p5914
g3
F0.9804
tp5915
a(S'that'
p5916
g33
F0.5697
tp5917
a(g78
g10
F0.8584
tp5918
a(S'it'
p5919
g33
F0.9913
tp5920
asI654
(lp5921
(S'you'
p5922
g33
F0.9754
tp5923
a(S're'
p5924
g10
F0.7708
tp5925
a(S'going'
p5926
g10
F0.9976
tp5927
a(S'to'
p5928
g30
F0.9764
tp5929
a(S'bed'
p5930
g16
F0.62
tp5931
asI655
(lp5932
(S'why'
p5933
g7
F0.8527
tp5934
asI656
(lp5935
(S'if'
p5936
g30
F0.9977
tp5937
a(S'you'
p5938
g33
F0.9982
tp5939
a(S're'
p5940
g10
F0.8568
tp5941
a(S'sick'
p5942
g43
F0.8843
tp5943
a(S'you'
p5944
g33
F0.9985
tp5945
a(S'have'
p5946
g10
F0.9995
tp5947
a(S'to'
p5948
g30
F0.9898
tp5949
a(S'go'
p5950
g10
F0.9991
tp5951
a(S'to'
p5952
g30
F0.9756
tp5953
a(S'bed'
p5954
g16
F0.5789
tp5955
asI657
(lp5956
(S'so'
p5957
g30
F0.8061
tp5958
a(S'get'
p5959
g10
F0.9821
tp5960
a(S'going'
p5961
g10
F0.9896
tp5962
asI658
(lp5963
(S'no'
p5964
g3
F0.7822
tp5965
a(S'no'
p5966
g3
F0.5387
tp5967
a(S'no'
p5968
g3
F0.7065
tp5969
asI659
(lp5970
(S'get'
p5971
g10
F0.9977
tp5972
a(S'over'
p5973
g30
F0.7418
tp5974
a(S'there'
p5975
g7
F0.9147
tp5976
a(S'and'
p5977
g285
F0.9984
tp5978
a(g306
g33
F0.9896
tp5979
a(S'll'
p5980
g10
F0.7524
tp5981
a(S'bring'
p5982
g10
F0.9998
tp5983
a(S'the'
p5984
g13
F0.9996
tp5985
a(S'tonic'
p5986
g16
F0.9969
tp5987
a(S'over'
p5988
g30
F0.9774
tp5989
a(S'there'
p5990
g7
F0.7699
tp5991
a(S'you'
p5992
g33
F0.9983
tp5993
a(S'take'
p5994
g10
F0.9999
tp5995
a(S'it'
p5996
g33
F0.9245
tp5997
a(S'right'
p5998
g7
F0.7055
tp5999
a(S'with'
p6000
g30
F0.9998
tp6001
a(S'your'
p6002
g13
F0.9947
tp6003
a(S'food'
p6004
g16
F0.9981
tp6005
asI660
(lp6006
(g306
g33
F0.9948
tp6007
a(S'did'
p6008
g10
F0.9993
tp6009
asI661
(lp6010
(g306
g33
F0.9948
tp6011
a(S'did'
p6012
g10
F0.9989
tp6013
a(S'mommy'
p6014
g16
F0.5398
tp6015
asI662
(lp6016
(S'xxx'
p6017
g129
F0.8437
tp6018
asI663
(lp6019
(S'no'
p6020
g3
F0.9253
tp6021
asI664
(lp6022
(g306
g33
F0.9896
tp6023
a(S'have'
p6024
g10
F0.9999
tp6025
a(S'the'
p6026
g13
F0.9997
tp6027
a(S'dog'
p6028
g16
F0.9985
tp6029
a(S'xxx'
p6030
g129
F0.8537
tp6031
asI665
(lp6032
(S'where'
p6033
g7
F0.9711
tp6034
a(g78
g79
F0.6001
tp6035
a(S'your'
p6036
g13
F0.9613
tp6037
a(S'cup'
p6038
g16
F0.9934
tp6039
a(S'chi'
p6040
g79
F0.4969
tp6041
asI666
(lp6042
(S'on'
p6043
g30
F0.993
tp6044
a(S'the'
p6045
g13
F0.9994
tp6046
a(S'couch'
p6047
g16
F0.9974
tp6048
asI667
(lp6049
(S'well'
p6050
g3
F0.6502
tp6051
a(S'get'
p6052
g10
F0.9984
tp6053
a(S'your'
p6054
g13
F0.993
tp6055
a(S'cup'
p6056
g16
F0.9968
tp6057
asI668
(lp6058
(S'here'
p6059
g7
F0.7796
tp6060
asI669
(lp6061
(S'wait'
p6062
g10
F0.9922
tp6063
a(g170
g13
F0.994
tp6064
a(S'minute'
p6065
g16
F0.9771
tp6066
a(S'here'
p6067
g7
F0.9454
tp6068
asI670
(lp6069
(S'mm'
p6070
g3
F0.627
tp6071
asI671
(lp6072
(S'hurry'
p6073
g10
F0.9546
tp6074
a(S'up'
p6075
g372
F0.9383
tp6076
a(S'you'
p6077
g33
F0.9985
tp6078
a(S'only'
p6079
g7
F0.8594
tp6080
a(S'have'
p6081
g10
F0.9995
tp6082
a(g170
g13
F0.9987
tp6083
a(S'little'
p6084
g43
F0.9648
tp6085
a(S'more'
p6086
g43
F0.7511
tp6087
asI672
(lp6088
(S'this'
p6089
g33
F0.5083
tp6090
a(S'eat'
p6091
g10
F0.9908
tp6092
a(S'this'
p6093
g33
F0.6094
tp6094
asI673
(lp6095
(S'this'
p6096
g13
F0.9705
tp6097
a(S'one'
p6098
g698
F0.8689
tp6099
a(S'right'
p6100
g7
F0.6844
tp6101
a(S'here'
p6102
g7
F0.9752
tp6103
asI674
(lp6104
(S'come'
p6105
g10
F0.9897
tp6106
a(S'on'
p6107
g30
F0.9533
tp6108
a(S'you'
p6109
g33
F0.9961
tp6110
a(S're'
p6111
g16
F0.5494
tp6112
a(S'gonna'
p6113
g10
F0.9915
tp6114
a(S'xxx'
p6115
g129
F0.6653
tp6116
asI675
(lp6117
(g306
g33
F0.9586
tp6118
a(g2263
g10
F0.9836
tp6119
a(S'choking'
p6120
g10
F0.9962
tp6121
asI676
(lp6122
(S'www'
p6123
g54
F0.3889
tp6124
asI677
(lp6125
(S'no'
p6126
g13
F0.5303
tp6127
a(S'chew'
p6128
g10
F0.9014
tp6129
a(S'it'
p6130
g33
F0.9878
tp6131
asI678
(lp6132
(S'mommy'
p6133
g16
F0.5169
tp6134
a(S'look'
p6135
g10
F0.9446
tp6136
a(S'at'
p6137
g30
F0.9987
tp6138
a(S'the'
p6139
g13
F0.9994
tp6140
a(S'note'
p6141
g16
F0.9945
tp6142
asI679
(lp6143
(S'xxx'
p6144
g129
F0.8437
tp6145
asI680
(lp6146
(S'no'
p6147
g3
F0.6532
tp6148
a(g306
g33
F0.9625
tp6149
a(S'said'
p6150
g10
F0.9996
tp6151
a(S'only'
p6152
g7
F0.8256
tp6153
a(g170
g13
F0.9928
tp6154
a(S'little'
p6155
g43
F0.9968
tp6156
a(S'bit'
p6157
g16
F0.8937
tp6158
a(S'chi'
p6159
g79
F0.3391
tp6160
a(S'because'
p6161
g30
F0.9981
tp6162
a(S'it'
p6163
g33
F0.9984
tp6164
a(g78
g79
F0.5571
tp6165
a(S'very'
p6166
g7
F0.9914
tp6167
a(S'late'
p6168
g43
F0.9948
tp6169
asI681
(lp6170
(S'no'
p6171
g3
F0.9253
tp6172
asI682
(lp6173
(g306
g33
F0.9635
tp6174
a(S'don'
p6175
g10
F0.9231
tp6176
a(g291
g16
F0.2503
tp6177
a(S'want'
p6178
g10
F0.9989
tp6179
a(g170
g13
F0.9986
tp6180
a(S'little'
p6181
g43
F0.9967
tp6182
a(S'bit'
p6183
g16
F0.8899
tp6184
asI683
(lp6185
(S'you'
p6186
g33
F0.9926
tp6187
a(S'don'
p6188
g10
F0.8675
tp6189
a(g291
g16
F0.3137
tp6190
a(S'want'
p6191
g10
F0.9972
tp6192
a(S'this'
p6193
g33
F0.6061
tp6194
asI684
(lp6195
(S'alright'
p6196
g3
F0.7453
tp6197
a(S'fine'
p6198
g43
F0.9808
tp6199
asI685
(lp6200
(S'yes'
p6201
g3
F0.9958
tp6202
asI686
(lp6203
(S'xxx'
p6204
g129
F0.5895
tp6205
a(S'here'
p6206
g7
F0.9485
tp6207
a(S'eat'
p6208
g10
F0.9281
tp6209
a(S'the'
p6210
g13
F0.9995
tp6211
a(S'tuna'
p6212
g16
F0.9282
tp6213
a(S'part'
p6214
g16
F0.9908
tp6215
asI687
(lp6216
(S'no'
p6217
g3
F0.9253
tp6218
asI688
(lp6219
(S'no'
p6220
g3
F0.9253
tp6221
asI689
(lp6222
(S'xxx'
p6223
g129
F0.6078
tp6224
a(S'in'
p6225
g30
F0.9716
tp6226
a(S'here'
p6227
g7
F0.9398
tp6228
a(S'you'
p6229
g33
F0.9998
tp6230
a(S'know'
p6231
g10
F0.9983
tp6232
asI690
(lp6233
(S'you'
p6234
g33
F0.9754
tp6235
a(S're'
p6236
g10
F0.7834
tp6237
a(S'starting'
p6238
g10
F0.9954
tp6239
a(S'to'
p6240
g30
F0.9963
tp6241
a(S'whine'
p6242
g10
F0.9871
tp6243
a(S'now'
p6244
g7
F0.9951
tp6245
asI691
(lp6246
(S'what'
p6247
g33
F0.9965
tp6248
a(S'did'
p6249
g10
F0.9698
tp6250
a(g306
g33
F0.994
tp6251
a(S'tell'
p6252
g10
F0.9998
tp6253
a(S'you'
p6254
g33
F0.9994
tp6255
a(S'about'
p6256
g30
F0.9056
tp6257
a(S'whining'
p6258
g10
F0.9939
tp6259
asI692
(lp6260
(S'huh'
p6261
g3
F0.993
tp6262
asI693
(lp6263
(S'no'
p6264
g3
F0.9253
tp6265
asI694
(lp6266
(S'okay'
p6267
g3
F0.9804
tp6268
a(S'that'
p6269
g33
F0.5697
tp6270
a(g78
g10
F0.8584
tp6271
a(S'it'
p6272
g33
F0.9913
tp6273
asI695
(lp6274
(S'all'
p6275
g13
F0.7806
tp6276
a(S'done'
p6277
g43
F0.4992
tp6278
asI696
(lp6279
(S'let'
p6280
g10
F0.9975
tp6281
a(S'me'
p6282
g33
F0.9994
tp6283
a(S'get'
p6284
g10
F0.9995
tp6285
a(S'you'
p6286
g33
F0.998
tp6287
a(S'your'
p6288
g13
F0.9879
tp6289
a(S'doughnut'
p6290
g16
F0.9994
tp6291
asI697
(lp6292
(S'don'
p6293
g54
F0.5427
tp6294
a(g291
g54
F0.5622
tp6295
a(S'do'
p6296
g10
F0.9976
tp6297
a(S'that'
p6298
g33
F0.8591
tp6299
a(S'with'
p6300
g30
F0.9993
tp6301
a(S'the'
p6302
g13
F0.9994
tp6303
a(S'cup'
p6304
g16
F0.9794
tp6305
a(S'because'
p6306
g30
F0.9999
tp6307
a(S'the'
p6308
g13
F0.9991
tp6309
a(S'tonic'
p6310
g16
F0.994
tp6311
a(S'is'
p6312
g10
F0.9848
tp6313
a(S'gonna'
p6314
g10
F0.9634
tp6315
a(S'spill'
p6316
g10
F0.8598
tp6317
asI698
(lp6318
(S'you'
p6319
g33
F0.9926
tp6320
a(S'don'
p6321
g10
F0.8675
tp6322
a(g291
g10
F0.3075
tp6323
a(S'squeeze'
p6324
g10
F0.8751
tp6325
a(S'the'
p6326
g13
F0.9993
tp6327
a(S'cup'
p6328
g16
F0.9845
tp6329
asI699
(lp6330
(S'the'
p6331
g13
F0.9984
tp6332
a(S'tonic'
p6333
g16
F0.994
tp6334
a(S'will'
p6335
g10
F0.96
tp6336
a(S'spill'
p6337
g10
F0.9849
tp6338
a(S'out'
p6339
g372
F0.7731
tp6340
a(S'all'
p6341
g13
F0.6854
tp6342
a(S'over'
p6343
g30
F0.9649
tp6344
a(S'you'
p6345
g33
F0.9998
tp6346
a(S'and'
p6347
g285
F0.9937
tp6348
a(S'then'
p6349
g7
F0.9839
tp6350
a(S'you'
p6351
g33
F0.9995
tp6352
a(S'won'
p6353
g10
F0.978
tp6354
a(g291
g79
F0.2107
tp6355
a(S'have'
p6356
g10
F0.9972
tp6357
a(S'any'
p6358
g13
F0.9976
tp6359
a(S'tonic'
p6360
g16
F0.9967
tp6361
a(S'left'
p6362
g10
F0.7815
tp6363
asI700
(lp6364
(S'put'
p6365
g10
F0.9811
tp6366
a(S'the'
p6367
g13
F0.9994
tp6368
a(S'cup'
p6369
g16
F0.989
tp6370
a(S'on'
p6371
g30
F0.9992
tp6372
a(S'the'
p6373
g13
F0.9993
tp6374
a(S'table'
p6375
g16
F0.9833
tp6376
a(S'chi'
p6377
g79
F0.4014
tp6378
asI701
(lp6379
(S'www'
p6380
g54
F0.3889
tp6381
asI702
(lp6382
(S'want'
p6383
g10
F0.9973
tp6384
a(g170
g13
F0.9987
tp6385
a(S'little'
p6386
g43
F0.9922
tp6387
a(S'milk'
p6388
g16
F0.999
tp6389
a(S'to'
p6390
g30
F0.9979
tp6391
a(S'go'
p6392
g10
F0.9993
tp6393
a(S'with'
p6394
g30
F0.9995
tp6395
a(S'your'
p6396
g13
F0.9036
tp6397
a(S'um'
p6398
g79
F0.4616
tp6399
a(S'doughnut'
p6400
g16
F0.963
tp6401
asI703
(lp6402
(S'yep'
p6403
g3
F0.9926
tp6404
a(S'but'
p6405
g285
F0.9919
tp6406
a(S'two'
p6407
g698
F0.9457
tp6408
a(S'drinks'
p6409
g16
F0.9983
tp6410
a(g306
g33
F0.9447
tp6411
a(S'want'
p6412
g10
F0.9997
tp6413
asI704
(lp6414
(S'www'
p6415
g54
F0.3889
tp6416
asI705
(lp6417
(S'how'
p6418
g7
F0.9834
tp6419
a(S'you'
p6420
g33
F0.9996
tp6421
a(S'doing'
p6422
g10
F0.9996
tp6423
asI706
(lp6424
(S'xxx'
p6425
g129
F0.7728
tp6426
a(g306
g33
F0.9492
tp6427
a(S'drinkted'
p6428
g10
F0.9486
tp6429
a(g1354
g10
F0.6464
tp6430
a(S'all'
p6431
g497
F0.6707
tp6432
a(S'my'
p6433
g13
F0.9994
tp6434
a(S'tonic'
p6435
g16
F0.998
tp6436
asI707
(lp6437
(S'you'
p6438
g33
F0.9754
tp6439
a(S're'
p6440
g10
F0.94
tp6441
a(S'all'
p6442
g13
F0.757
tp6443
a(S'done'
p6444
g10
F0.4507
tp6445
asI708
(lp6446
(S'okay'
p6447
g3
F0.9857
tp6448
asI709
(lp6449
(S'you'
p6450
g33
F0.998
tp6451
a(S'want'
p6452
g10
F0.9997
tp6453
a(S'to'
p6454
g30
F0.9738
tp6455
a(S'go'
p6456
g10
F0.9975
tp6457
a(S'get'
p6458
g10
F0.9977
tp6459
a(S'another'
p6460
g13
F0.9969
tp6461
a(S'little'
p6462
g43
F0.9965
tp6463
a(S'cup'
p6464
g16
F0.9895
tp6465
a(S'and'
p6466
g285
F0.9985
tp6467
a(g306
g33
F0.9896
tp6468
a(S'll'
p6469
g10
F0.6615
tp6470
a(S'get'
p6471
g10
F0.9998
tp6472
a(S'you'
p6473
g33
F0.9959
tp6474
a(S'some'
p6475
g13
F0.9936
tp6476
a(S'milk'
p6477
g16
F0.9965
tp6478
asI710
(lp6479
(g306
g33
F0.9897
tp6480
a(S'want'
p6481
g10
F1.0
tp6482
a(S'some'
p6483
g13
F0.9397
tp6484
a(S'more'
p6485
g43
F0.8769
tp6486
a(S'of'
p6487
g30
F0.9988
tp6488
a(S'this'
p6489
g33
F0.5992
tp6490
asI711
(lp6491
(S'hey'
p6492
g3
F0.9986
tp6493
asI712
(lp6494
(g306
g33
F0.9897
tp6495
a(S'want'
p6496
g10
F0.9999
tp6497
a(S'some'
p6498
g13
F0.9422
tp6499
a(S'more'
p6500
g43
F0.9315
tp6501
asI713
(lp6502
(S'no'
p6503
g3
F0.9253
tp6504
asI714
(lp6505
(S'no'
p6506
g3
F0.7608
tp6507
a(S'it'
p6508
g33
F0.9828
tp6509
a(g78
g10
F0.5412
tp6510
a(S'too'
p6511
g7
F0.998
tp6512
a(S'late'
p6513
g43
F0.9477
tp6514
asI715
(lp6515
(g306
g33
F0.9793
tp6516
a(S'll'
p6517
g10
F0.8209
tp6518
a(S'save'
p6519
g10
F0.9993
tp6520
a(S'it'
p6521
g33
F0.9848
tp6522
a(S'for'
p6523
g30
F0.9992
tp6524
a(S'you'
p6525
g33
F0.9995
tp6526
a(S'for'
p6527
g30
F0.993
tp6528
a(S'tomorrow'
p6529
g16
F0.9645
tp6530
asI716
(lp6531
(S'okay'
p6532
g3
F0.9857
tp6533
asI717
(lp6534
(S'you'
p6535
g33
F0.9968
tp6536
a(S'wanna'
p6537
g10
F0.9985
tp6538
a(S'put'
p6539
g10
F0.99
tp6540
a(S'milk'
p6541
g16
F0.9938
tp6542
a(S'in'
p6543
g30
F0.9945
tp6544
a(S'that'
p6545
g13
F0.8851
tp6546
a(S'cup'
p6547
g16
F0.9858
tp6548
asI718
(lp6549
(g306
g33
F0.9897
tp6550
a(S'want'
p6551
g10
F1.0
tp6552
a(g170
g13
F0.9985
tp6553
a(S'new'
p6554
g43
F0.9978
tp6555
a(S'cup'
p6556
g16
F0.9717
tp6557
asI719
(lp6558
(S'alright'
p6559
g3
F0.8235
tp6560
a(S'go'
p6561
g10
F0.9143
tp6562
a(S'get'
p6563
g10
F0.9825
tp6564
a(S'one'
p6565
g698
F0.784
tp6566
asI720
(lp6567
(S'put'
p6568
g10
F0.9661
tp6569
a(S'that'
p6570
g13
F0.7937
tp6571
a(S'one'
p6572
g698
F0.9262
tp6573
a(S'in'
p6574
g30
F0.9985
tp6575
a(S'the'
p6576
g13
F0.9991
tp6577
a(S'bucket'
p6578
g16
F0.9804
tp6579
a(S'alright'
p6580
g3
F0.8459
tp6581
asI721
(lp6582
(S'no'
p6583
g3
F0.7985
tp6584
a(S'you'
p6585
g33
F0.9967
tp6586
a(S'got'
p6587
g10
F0.9973
tp6588
a(S'one'
p6589
g698
F0.9488
tp6590
a(S'in'
p6591
g30
F0.9986
tp6592
a(S'the'
p6593
g13
F0.9996
tp6594
a(S'other'
p6595
g43
F0.9673
tp6596
a(S'xxx'
p6597
g16
F0.3633
tp6598
a(S'downstairs'
p6599
g16
F0.8209
tp6600
asI722
(lp6601
(S'what'
p6602
g33
F0.949
tp6603
asI723
(lp6604
(S'you'
p6605
g33
F0.998
tp6606
a(S'have'
p6607
g10
F0.9994
tp6608
a(S'to'
p6609
g30
F0.9967
tp6610
a(S'get'
p6611
g10
F0.9999
tp6612
a(S'another'
p6613
g13
F0.9875
tp6614
a(S'one'
p6615
g698
F0.8069
tp6616
asI724
(lp6617
(S'oh'
p6618
g3
F0.9978
tp6619
a(S'that'
p6620
g33
F0.571
tp6621
a(g78
g10
F0.5498
tp6622
a(S'the'
p6623
g13
F0.9986
tp6624
a(S'one'
p6625
g698
F0.9529
tp6626
a(S'from'
p6627
g30
F0.9973
tp6628
a(S'down'
p6629
g7
F0.7713
tp6630
a(S'here'
p6631
g7
F0.9926
tp6632
a(S'alright'
p6633
g3
F0.6955
tp6634
asI725
(lp6635
(g306
g33
F0.9914
tp6636
a(S'was'
p6637
g10
F0.9998
tp6638
a(S'thinking'
p6639
g10
F0.9987
tp6640
a(S'that'
p6641
g30
F0.8659
tp6642
a(S'it'
p6643
g33
F0.9992
tp6644
a(S'was'
p6645
g10
F0.9995
tp6646
a(S'the'
p6647
g13
F0.9995
tp6648
a(S'one'
p6649
g698
F0.9508
tp6650
a(S'from'
p6651
g30
F0.9981
tp6652
a(S'upstairs'
p6653
g16
F0.5849
tp6654
asI726
(lp6655
(S'okay'
p6656
g3
F0.9857
tp6657
asI727
(lp6658
(S'www'
p6659
g54
F0.3889
tp6660
asI728
(lp6661
(S'okay'
p6662
g3
F0.9395
tp6663
a(S'go'
p6664
g10
F0.8916
tp6665
a(S'ahead'
p6666
g7
F0.9326
tp6667
asI729
(lp6668
(S'go'
p6669
g10
F0.9637
tp6670
a(S'sit'
p6671
g10
F0.9828
tp6672
a(S'down'
p6673
g372
F0.8775
tp6674
a(S'chi'
p6675
g54
F0.5723
tp6676
a(S'will'
p6677
g10
F0.9983
tp6678
a(S'you'
p6679
g33
F0.9987
tp6680
a(S'please'
p6681
g10
F0.9941
tp6682
asI730
(lp6683
(S'www'
p6684
g54
F0.3889
tp6685
asI731
(lp6686
(S'mommy'
p6687
g16
F0.7607
tp6688
a(g306
g33
F0.9429
tp6689
a(S'wanted'
p6690
g10
F0.9999
tp6691
a(S'you'
p6692
g33
F0.9978
tp6693
a(S'to'
p6694
g30
F0.9929
tp6695
a(S'get'
p6696
g10
F0.9995
tp6697
a(S'new'
p6698
g43
F0.9991
tp6699
a(S'cup'
p6700
g16
F0.9767
tp6701
asI732
(lp6702
(S'go'
p6703
g10
F0.9568
tp6704
a(S'sit'
p6705
g10
F0.9769
tp6706
a(S'down'
p6707
g372
F0.9538
tp6708
asI733
(lp6709
(S'www'
p6710
g54
F0.345
tp6711
a(S'www'
p6712
g54
F0.8756
tp6713
asI734
(lp6714
(S'or'
p6715
g285
F0.9929
tp6716
a(g306
g33
F0.9855
tp6717
a(g2263
g10
F0.9644
tp6718
a(S'gonna'
p6719
g10
F0.9944
tp6720
a(S'make'
p6721
g10
F0.9998
tp6722
a(S'you'
p6723
g33
F0.9933
tp6724
a(S'get'
p6725
g10
F0.9994
tp6726
a(S'go'
p6727
g10
F0.9841
tp6728
a(S'to'
p6729
g30
F0.9756
tp6730
a(S'bed'
p6731
g16
F0.548
tp6732
a(S'chi'
p6733
g79
F0.4726
tp6734
asI735
(lp6735
(S'get'
p6736
g10
F0.9804
tp6737
a(S'get'
p6738
g10
F0.9983
tp6739
a(S'over'
p6740
g30
F0.6356
tp6741
a(S'there'
p6742
g7
F0.9137
tp6743
a(S'and'
p6744
g285
F0.9975
tp6745
a(S'sit'
p6746
g10
F0.9941
tp6747
a(S'down'
p6748
g372
F0.8745
tp6749
asI736
(lp6750
(S'www'
p6751
g54
F0.3889
tp6752
asI737
(lp6753
(S'sit'
p6754
g10
F0.8568
tp6755
asI738
(lp6756
(S'no'
p6757
g3
F0.8455
tp6758
a(S'the'
p6759
g13
F0.9981
tp6760
a(S'book'
p6761
g16
F0.9763
tp6762
a(S'can'
p6763
g10
F0.9901
tp6764
a(g291
g10
F0.7959
tp6765
a(S'stay'
p6766
g10
F0.8693
tp6767
a(S'at'
p6768
g30
F0.9984
tp6769
a(S'the'
p6770
g13
F0.9992
tp6771
a(S'table'
p6772
g16
F0.9934
tp6773
a(S'it'
p6774
g33
F0.9767
tp6775
a(S'will'
p6776
g10
F0.9975
tp6777
a(S'get'
p6778
g10
F0.9999
tp6779
a(S'all'
p6780
g13
F0.9937
tp6781
a(S'dirty'
p6782
g43
F0.9341
tp6783
asI739
(lp6784
(g306
g33
F0.9793
tp6785
a(S'll'
p6786
g10
F0.7573
tp6787
a(S'read'
p6788
g10
F0.9993
tp6789
a(S'you'
p6790
g33
F0.998
tp6791
a(S'the'
p6792
g13
F0.9995
tp6793
a(S'book'
p6794
g16
F0.9819
tp6795
a(S'when'
p6796
g7
F0.9935
tp6797
a(S'when'
p6798
g7
F0.9957
tp6799
a(S'after'
p6800
g30
F0.8366
tp6801
a(g306
g33
F0.9966
tp6802
a(S'change'
p6803
g10
F0.999
tp6804
a(S'you'
p6805
g33
F0.9964
tp6806
a(S'okay'
p6807
g43
F0.4897
tp6808
asI740
(lp6809
(S'here'
p6810
g7
F0.9172
tp6811
a(S'you'
p6812
g33
F0.9996
tp6813
a(S'go'
p6814
g10
F0.9953
tp6815
asI741
(lp6816
(S'here'
p6817
g7
F0.9172
tp6818
a(S'you'
p6819
g33
F0.9996
tp6820
a(S'go'
p6821
g10
F0.9953
tp6822
asI742
(lp6823
(S'there'
p6824
g7
F0.5362
tp6825
a(S'you'
p6826
g33
F0.9982
tp6827
a(S'go'
p6828
g10
F0.9938
tp6829
a(S'mm'
p6830
g79
F0.2525
tp6831
asI743
(lp6832
(S'what'
p6833
g33
F0.9905
tp6834
a(S'was'
p6835
g10
F0.9986
tp6836
a(S'this'
p6837
g33
F0.5094
tp6838
asI744
(lp6839
(S'apple'
p6840
g54
F0.7763
tp6841
a(S'doughnut'
p6842
g16
F0.9815
tp6843
asI745
(lp6844
(g306
g33
F0.9635
tp6845
a(S'don'
p6846
g10
F0.9231
tp6847
a(g291
g16
F0.2503
tp6848
a(S'want'
p6849
g10
F0.9988
tp6850
a(S'any'
p6851
g13
F0.9831
tp6852
a(S'apple'
p6853
g16
F0.5834
tp6854
a(S'doughnut'
p6855
g16
F0.9971
tp6856
asI746
(lp6857
(S'an'
p6858
g13
F0.9396
tp6859
a(S'apple'
p6860
g16
F0.6953
tp6861
a(S'doughnut'
p6862
g16
F0.9979
tp6863
asI747
(lp6864
(S'xxx'
p6865
g129
F0.8437
tp6866
asI748
(lp6867
(S'where'
p6868
g7
F0.9711
tp6869
a(g78
g79
F0.671
tp6870
a(S'the'
p6871
g13
F0.9989
tp6872
a(S'other'
p6873
g43
F0.9645
tp6874
a(S'dessert'
p6875
g16
F0.9893
tp6876
asI749
(lp6877
(S'hm'
p6878
g3
F0.995
tp6879
asI750
(lp6880
(S'where'
p6881
g7
F0.9711
tp6882
a(g78
g79
F0.671
tp6883
a(S'the'
p6884
g13
F0.9989
tp6885
a(S'other'
p6886
g43
F0.9645
tp6887
a(S'dessert'
p6888
g16
F0.9893
tp6889
asI751
(lp6890
(S'that'
p6891
g33
F0.4727
tp6892
a(g78
g10
F0.8579
tp6893
a(S'it'
p6894
g33
F0.9919
tp6895
asI752
(lp6896
(S'no'
p6897
g3
F0.8391
tp6898
a(S'where'
p6899
g7
F0.9685
tp6900
a(g78
g79
F0.6889
tp6901
a(S'the'
p6902
g13
F0.9989
tp6903
a(S'baby'
p6904
g16
F0.9923
tp6905
a(S'food'
p6906
g16
F0.9951
tp6907
asI753
(lp6908
(S'oh'
p6909
g3
F0.9978
tp6910
a(S'that'
p6911
g33
F0.571
tp6912
a(g78
g10
F0.7425
tp6913
a(S'over'
p6914
g30
F0.8278
tp6915
a(S'there'
p6916
g7
F0.7142
tp6917
asI754
(lp6918
(S'you'
p6919
g33
F0.998
tp6920
a(S'have'
p6921
g10
F0.9995
tp6922
a(S'that'
p6923
g33
F0.5852
tp6924
a(S'tomorrow'
p6925
g16
F0.942
tp6926
asI755
(lp6927
(S'eat'
p6928
g10
F0.9835
tp6929
a(S'over'
p6930
g30
F0.9346
tp6931
a(S'the'
p6932
g13
F0.9992
tp6933
a(S'table'
p6934
g16
F0.9954
tp6935
asI756
(lp6936
(S'take'
p6937
g10
F0.9921
tp6938
a(g170
g13
F0.9906
tp6939
a(S'bite'
p6940
g16
F0.9845
tp6941
asI757
(lp6942
(S'don'
p6943
g54
F0.5427
tp6944
a(g291
g54
F0.3809
tp6945
a(S'lick'
p6946
g10
F0.9761
tp6947
a(S'it'
p6948
g33
F0.9829
tp6949
asI758
(lp6950
(S'take'
p6951
g10
F0.9921
tp6952
a(g170
g13
F0.9906
tp6953
a(S'bite'
p6954
g16
F0.9845
tp6955
asI759
(lp6956
(g306
g33
F0.9793
tp6957
a(S'll'
p6958
g10
F0.8021
tp6959
a(S'take'
p6960
g10
F0.999
tp6961
a(S'all'
p6962
g13
F0.919
tp6963
a(S'of'
p6964
g30
F0.9927
tp6965
a(S'these'
p6966
g33
F0.6311
tp6967
a(S'off'
p6968
g372
F0.4726
tp6969
asI760
(lp6970
(S'no'
p6971
g3
F0.9253
tp6972
asI761
(lp6973
(S'don'
p6974
g54
F0.5427
tp6975
a(g291
g54
F0.4522
tp6976
a(S'take'
p6977
g10
F0.9961
tp6978
a(S'all'
p6979
g13
F0.7004
tp6980
a(S'that'
p6981
g33
F0.599
tp6982
asI762
(lp6983
(S'just'
p6984
g7
F0.9991
tp6985
a(S'take'
p6986
g10
F0.9994
tp6987
a(g170
g13
F0.986
tp6988
a(S'bite'
p6989
g16
F0.9819
tp6990
asI763
(lp6991
(S'mommy'
p6992
g16
F0.5271
tp6993
asI764
(lp6994
(S'want'
p6995
g10
F0.9993
tp6996
a(S'me'
p6997
g33
F0.9985
tp6998
a(S'to'
p6999
g30
F0.9701
tp7000
a(S'break'
p7001
g10
F0.9996
tp7002
a(S'it'
p7003
g33
F0.9916
tp7004
a(S'for'
p7005
g30
F0.9992
tp7006
a(S'you'
p7007
g33
F0.9994
tp7008
a(S'so'
p7009
g30
F0.4513
tp7010
a(S'that'
p7011
g30
F0.6599
tp7012
a(S'you'
p7013
g33
F0.9996
tp7014
a(S'can'
p7015
g10
F0.9995
tp7016
a(S'get'
p7017
g10
F0.9998
tp7018
a(S'to'
p7019
g30
F0.9946
tp7020
a(S'the'
p7021
g13
F0.999
tp7022
a(S'apples'
p7023
g16
F0.9962
tp7024
asI765
(lp7025
(g306
g33
F0.9873
tp7026
a(S'can'
p7027
g10
F0.9998
tp7028
a(S'always'
p7029
g7
F0.9902
tp7030
a(S'break'
p7031
g10
F0.9914
tp7032
a(S'everything'
p7033
g16
F0.9791
tp7034
asI766
(lp7035
(S'whoo'
p7036
g3
F0.9875
tp7037
a(S'ps'
p7038
g3
F0.9364
tp7039
asI767
(lp7040
(S'www'
p7041
g54
F0.3889
tp7042
asI768
(lp7043
(S'apple'
p7044
g54
F0.5968
tp7045
asI769
(lp7046
(S'haha'
p7047
g3
F0.9993
tp7048
asI770
(lp7049
(S'good'
p7050
g43
F0.9953
tp7051
a(S'stuff'
p7052
g16
F0.9974
tp7053
a(S'huh'
p7054
g3
F0.9467
tp7055
asI771
(lp7056
(S'apple'
p7057
g54
F0.5968
tp7058
asI772
(lp7059
(S'mommy'
p7060
g16
F0.5271
tp7061
asI773
(lp7062
(S'what'
p7063
g33
F0.949
tp7064
asI774
(lp7065
(g306
g33
F0.9908
tp7066
a(S'hate'
p7067
g10
F1.0
tp7068
a(S'the'
p7069
g13
F0.9996
tp7070
a(S'sloppy'
p7071
g43
F0.9814
tp7072
a(S'down'
p7073
g7
F0.4775
tp7074
a(S'there'
p7075
g7
F0.8873
tp7076
asI775
(lp7077
(S'the'
p7078
g13
F0.9794
tp7079
a(S'what'
p7080
g33
F0.9836
tp7081
asI776
(lp7082
(S'the'
p7083
g13
F0.9987
tp7084
a(S'sloppy'
p7085
g43
F0.9944
tp7086
a(S'xxx'
p7087
g129
F0.5657
tp7088
asI777
(lp7089
(S'yeah'
p7090
g3
F0.9988
tp7091
asI778
(lp7092
(S'yeah'
p7093
g3
F0.9903
tp7094
a(S'it'
p7095
g33
F0.9951
tp7096
a(g78
g10
F0.5588
tp7097
a(S'disgusting'
p7098
g43
F0.9901
tp7099
asI779
(lp7100
(S'it'
p7101
g33
F0.9888
tp7102
a(g78
g10
F0.4245
tp7103
a(S'real'
p7104
g7
F0.5446
tp7105
a(S'disgusting'
p7106
g43
F0.9991
tp7107
asI780
(lp7108
(S'www'
p7109
g54
F0.3889
tp7110
asI781
(lp7111
(S'excuse'
p7112
g10
F0.9631
tp7113
a(S'me'
p7114
g33
F0.9987
tp7115
asI782
(lp7116
(S'you'
p7117
g33
F0.9754
tp7118
a(S're'
p7119
g10
F0.7849
tp7120
a(S'not'
p7121
g7
F0.997
tp7122
a(S'supposed'
p7123
g43
F0.7064
tp7124
a(S'to'
p7125
g30
F0.9888
tp7126
a(S'do'
p7127
g10
F0.9999
tp7128
a(S'that'
p7129
g33
F0.804
tp7130
asI783
(lp7131
(g306
g33
F0.9893
tp7132
a(S'said'
p7133
g10
F0.9988
tp7134
a(S'xxx'
p7135
g129
F0.2993
tp7136
a(S'that'
p7137
g33
F0.704
tp7138
a(S'at'
p7139
g30
F0.9975
tp7140
a(S'the'
p7141
g13
F0.9987
tp7142
a(S'table'
p7143
g16
F0.9931
tp7144
asI784
(lp7145
(S'sit'
p7146
g10
F0.993
tp7147
a(S'up'
p7148
g372
F0.9846
tp7149
a(S'huh'
p7150
g3
F0.9624
tp7151
asI785
(lp7152
(S'xxx'
p7153
g129
F0.6561
tp7154
a(S'does'
p7155
g10
F0.9986
tp7156
a(S'that'
p7157
g33
F0.9348
tp7158
a(S'at'
p7159
g30
F0.9988
tp7160
a(S'the'
p7161
g13
F0.9991
tp7162
a(S'table'
p7163
g16
F0.9925
tp7164
asI786
(lp7165
(S'yeah'
p7166
g3
F0.9962
tp7167
a(S'but'
p7168
g285
F0.9926
tp7169
a(S'he'
p7170
g33
F0.9991
tp7171
a(S'is'
p7172
g10
F0.9997
tp7173
a(S'not'
p7174
g7
F0.9979
tp7175
a(S'supposed'
p7176
g43
F0.6864
tp7177
a(S'to'
p7178
g30
F0.9928
tp7179
asI787
(lp7180
(S'it'
p7181
g33
F0.9887
tp7182
a(S'just'
p7183
g7
F0.9976
tp7184
asI788
(lp7185
(S'that'
p7186
g33
F0.473
tp7187
a(g78
g79
F0.4353
tp7188
a(S'not'
p7189
g7
F0.9981
tp7190
a(S'nice'
p7191
g43
F0.9917
tp7192
asI789
(lp7193
(S'mommy'
p7194
g16
F0.5271
tp7195
asI790
(lp7196
(S'what'
p7197
g33
F0.949
tp7198
asI791
(lp7199
(S'when'
p7200
g7
F0.9576
tp7201
a(S'everybody'
p7202
g16
F0.883
tp7203
a(S'drinks'
p7204
g16
F0.8481
tp7205
a(S'they'
p7206
g33
F0.9813
tp7207
a(S'do'
p7208
g10
F0.9999
tp7209
a(g170
g13
F0.956
tp7210
a(S'they'
p7211
g33
F0.9911
tp7212
a(S'do'
p7213
g10
F0.9999
tp7214
a(g170
g13
F0.9881
tp7215
a(S'burp'
p7216
g16
F0.8746
tp7217
a(S'and'
p7218
g285
F0.9975
tp7219
a(S'they'
p7220
g33
F0.9966
tp7221
a(S'say'
p7222
g10
F0.9985
tp7223
a(S'excuse'
p7224
g10
F0.9814
tp7225
a(S'me'
p7226
g33
F0.9985
tp7227
asI792
(lp7228
(S'oh'
p7229
g3
F0.9988
tp7230
asI793
(lp7231
(S'alright'
p7232
g3
F0.9061
tp7233
a(S'eat'
p7234
g10
F0.8558
tp7235
asI794
(lp7236
(S'come'
p7237
g10
F0.9897
tp7238
a(S'on'
p7239
g30
F0.9407
tp7240
a(S'it'
p7241
g33
F0.9974
tp7242
a(g78
g10
F0.6701
tp7243
a(S'getting'
p7244
g10
F0.9972
tp7245
a(S'look'
p7246
g10
F0.9393
tp7247
a(S'at'
p7248
g30
F0.9932
tp7249
a(S'how'
p7250
g7
F0.937
tp7251
a(S'dark'
p7252
g43
F0.9382
tp7253
a(S'it'
p7254
g33
F0.9916
tp7255
a(S'is'
p7256
g10
F0.9992
tp7257
a(S'getting'
p7258
g10
F0.9987
tp7259
a(S'out'
p7260
g372
F0.8547
tp7261
asI795
(lp7262
(S'you'
p7263
g33
F0.9953
tp7264
a(S'can'
p7265
g10
F0.9992
tp7266
a(g291
g10
F0.5963
tp7267
asI796
(lp7268
(S'it'
p7269
g33
F0.9888
tp7270
a(g78
g10
F0.6742
tp7271
a(S'getting'
p7272
g10
F0.9977
tp7273
a(S'almost'
p7274
g7
F0.9783
tp7275
a(S'your'
p7276
g13
F0.9387
tp7277
a(S'bed'
p7278
g16
F0.9853
tp7279
a(S'time'
p7280
g16
F0.996
tp7281
asI797
(lp7282
(S'you'
p7283
g33
F0.9969
tp7284
a(S'can'
p7285
g10
F0.9994
tp7286
a(g291
g10
F0.7223
tp7287
a(S'just'
p7288
g7
F0.9995
tp7289
a(S'wait'
p7290
g10
F0.9972
tp7291
asI798
(lp7292
(S'so'
p7293
g30
F0.7512
tp7294
a(S'that'
p7295
g33
F0.6676
tp7296
a(g306
g33
F0.9934
tp7297
a(S'could'
p7298
g10
F0.9998
tp7299
a(S'do'
p7300
g10
F0.9999
tp7301
a(S'it'
p7302
g33
F0.9931
tp7303
asI799
(lp7304
(S'hey'
p7305
g3
F0.9911
tp7306
a(S'mommy'
p7307
g16
F0.562
tp7308
asI800
(lp7309
(S'what'
p7310
g33
F0.949
tp7311
asI801
(lp7312
(g306
g33
F0.9795
tp7313
a(S'eated'
p7314
g10
F0.9942
tp7315
a(g2021
g285
F0.8615
tp7316
a(S'this'
p7317
g33
F0.6528
tp7318
a(S'before'
p7319
g30
F0.7373
tp7320
asI802
(lp7321
(S'right'
p7322
g3
F0.861
tp7323
asI803
(lp7324
(S'the'
p7325
g13
F0.9982
tp7326
a(S'doughnut'
p7327
g16
F0.9986
tp7328
asI804
(lp7329
(S'that'
p7330
g13
F0.6976
tp7331
a(S'kind'
p7332
g16
F0.9727
tp7333
a(S'of'
p7334
g30
F0.9945
tp7335
a(S'doughnut'
p7336
g16
F0.9942
tp7337
asI805
(lp7338
(S'yeah'
p7339
g3
F0.99
tp7340
a(S'be'
p7341
g10
F0.9754
tp7342
a(S'cause'
p7343
g30
F0.6855
tp7344
a(S'mommy'
p7345
g16
F0.8397
tp7346
a(g306
g33
F0.94
tp7347
a(S'tasted'
p7348
g10
F0.9998
tp7349
a(S'this'
p7350
g33
F0.6642
tp7351
a(S'before'
p7352
g30
F0.8292
tp7353
asI806
(lp7354
(S'uh'
p7355
g3
F0.9878
tp7356
a(S'huh'
p7357
g3
F0.9956
tp7358
asI807
(lp7359
(S'yeah'
p7360
g3
F0.9988
tp7361
asI808
(lp7362
(S'num'
p7363
g79
F0.641
tp7364
a(S'o'
p7365
g79
F0.6734
tp7366
a(S'num'
p7367
g79
F0.9034
tp7368
a(g7365
g79
F0.734
tp7369
a(S'num'
p7370
g79
F0.9097
tp7371
a(g7365
g79
F0.6082
tp7372
asI809
(lp7373
(S'xxx'
p7374
g129
F0.69
tp7375
a(S'break'
p7376
g10
F0.9931
tp7377
a(S'it'
p7378
g33
F0.9936
tp7379
a(S'up'
p7380
g372
F0.9845
tp7381
asI810
(lp7382
(S'xxx'
p7383
g129
F0.8437
tp7384
asI811
(lp7385
(S'what'
p7386
g33
F0.949
tp7387
asI812
(lp7388
(S'um'
p7389
g3
F0.9262
tp7390
a(S'michael'
p7391
g54
F0.9942
tp7392
a(S'angelas'
p7393
g54
F0.9843
tp7394
asI813
(lp7395
(S'hmhm'
p7396
g3
F0.9929
tp7397
asI814
(lp7398
(S'he'
p7399
g33
F0.9905
tp7400
a(g78
g10
F0.766
tp7401
a(S'the'
p7402
g13
F0.9915
tp7403
a(S'inja'
p7404
g54
F0.5391
tp7405
a(g1354
g54
F0.5778
tp7406
a(S'ninja'
p7407
g54
F0.939
tp7408
a(S'nuna'
p7409
g54
F0.7552
tp7410
a(g1354
g54
F0.279
tp7411
a(S'mutant'
p7412
g43
F0.9761
tp7413
a(S'turtle'
p7414
g16
F0.9879
tp7415
asI815
(lp7416
(S'he'
p7417
g33
F0.9888
tp7418
a(g78
g10
F0.628
tp7419
a(S'what'
p7420
g33
F0.9938
tp7421
asI816
(lp7422
(S'he'
p7423
g33
F0.9905
tp7424
a(g78
g10
F0.766
tp7425
a(S'the'
p7426
g13
F0.9915
tp7427
a(S'inja'
p7428
g54
F0.5391
tp7429
a(g1354
g54
F0.5778
tp7430
a(S'ninja'
p7431
g54
F0.939
tp7432
a(S'nuna'
p7433
g54
F0.7552
tp7434
a(g1354
g54
F0.2756
tp7435
a(S'mutant'
p7436
g43
F0.9685
tp7437
a(S'turtle'
p7438
g16
F0.9904
tp7439
a(S'he'
p7440
g33
F0.9903
tp7441
a(S'has'
p7442
g10
F0.9999
tp7443
a(S'the'
p7444
g13
F0.9961
tp7445
a(S'stick'
p7446
g16
F0.973
tp7447
asI817
(lp7448
(S'he'
p7449
g33
F0.9959
tp7450
a(S'has'
p7451
g10
F0.9999
tp7452
a(S'the'
p7453
g13
F0.9928
tp7454
a(S'inja'
p7455
g54
F0.5391
tp7456
a(g1354
g54
F0.5778
tp7457
a(S'ninja'
p7458
g54
F0.8755
tp7459
a(g170
g13
F0.9904
tp7460
a(S'nuna'
p7461
g16
F0.8894
tp7462
a(g1354
g79
F0.2519
tp7463
a(S'mutant'
p7464
g43
F0.993
tp7465
a(S'turtle'
p7466
g16
F0.9952
tp7467
a(S'stick'
p7468
g10
F0.7215
tp7469
asI818
(lp7470
(S'he'
p7471
g33
F0.9959
tp7472
a(S'has'
p7473
g10
F0.9999
tp7474
a(S'the'
p7475
g13
F0.9991
tp7476
a(S'ninja'
p7477
g16
F0.6382
tp7478
a(S'turtle'
p7479
g16
F0.9844
tp7480
a(S'stick'
p7481
g10
F0.7262
tp7482
asI819
(lp7483
(S'yup'
p7484
g3
F0.9875
tp7485
a(S'and'
p7486
g285
F0.9988
tp7487
a(S'he'
p7488
g33
F0.996
tp7489
a(S'walks'
p7490
g10
F0.9997
tp7491
a(S'with'
p7492
g30
F0.999
tp7493
a(S'it'
p7494
g33
F0.9972
tp7495
a(S'be'
p7496
g10
F0.9979
tp7497
a(S'cause'
p7498
g30
F0.8753
tp7499
a(S'be'
p7500
g10
F0.976
tp7501
a(S'cause'
p7502
g30
F0.9727
tp7503
a(S'he'
p7504
g33
F0.9982
tp7505
a(S'has'
p7506
g10
F0.9999
tp7507
a(g170
g13
F0.9787
tp7508
a(S'broken'
p7509
g43
F0.9784
tp7510
a(S'foot'
p7511
g16
F0.9984
tp7512
asI820
(lp7513
(S'he'
p7514
g33
F0.9955
tp7515
a(S'has'
p7516
g10
F0.999
tp7517
a(S'crutches'
p7518
g16
F0.5854
tp7519
asI821
(lp7520
(S'oh'
p7521
g3
F0.9987
tp7522
a(S'yeah'
p7523
g3
F0.9997
tp7524
asI822
(lp7525
(S'yes'
p7526
g3
F0.9958
tp7527
asI823
(lp7528
(S'he'
p7529
g33
F0.9702
tp7530
a(S'he'
p7531
g33
F0.9857
tp7532
a(S'cut'
p7533
g10
F0.9662
tp7534
a(S'off'
p7535
g372
F0.6342
tp7536
a(S'his'
p7537
g13
F0.9997
tp7538
a(S'leg'
p7539
g16
F0.9948
tp7540
a(S'and'
p7541
g285
F0.9978
tp7542
a(S'then'
p7543
g7
F0.9784
tp7544
a(S'he'
p7545
g33
F0.9964
tp7546
a(S'put'
p7547
g10
F0.9926
tp7548
a(S'on'
p7549
g30
F0.8238
tp7550
a(g170
g13
F0.9885
tp7551
a(S'stick'
p7552
g16
F0.9795
tp7553
asI824
(lp7554
(S'who'
p7555
g33
F0.9764
tp7556
asI825
(lp7557
(S'the'
p7558
g13
F0.9987
tp7559
a(S'turtle'
p7560
g16
F0.9811
tp7561
asI826
(lp7562
(S'no'
p7563
g3
F0.9253
tp7564
asI827
(lp7565
(S'michael'
p7566
g54
F0.9925
tp7567
a(S'angela'
p7568
g54
F0.9733
tp7569
asI828
(lp7570
(S'michael'
p7571
g54
F0.9925
tp7572
a(S'angela'
p7573
g54
F0.9733
tp7574
asI829
(lp7575
(S'is'
p7576
g10
F0.9981
tp7577
a(S'that'
p7578
g13
F0.7999
tp7579
a(S'kid'
p7580
g16
F0.96
tp7581
a(S'in'
p7582
g30
F0.9991
tp7583
a(S'your'
p7584
g13
F0.9925
tp7585
a(S'room'
p7586
g16
F0.998
tp7587
asI830
(lp7588
(S'no'
p7589
g3
F0.9253
tp7590
asI831
(lp7591
(S'who'
p7592
g33
F0.9978
tp7593
a(S'is'
p7594
g10
F1.0
tp7595
a(S'it'
p7596
g33
F0.9986
tp7597
asI832
(lp7598
(S'he'
p7599
g33
F0.9905
tp7600
a(g78
g10
F0.766
tp7601
a(S'the'
p7602
g13
F0.9915
tp7603
a(S'inja'
p7604
g54
F0.5391
tp7605
a(g1354
g54
F0.5778
tp7606
a(S'ninja'
p7607
g54
F0.939
tp7608
a(S'nuna'
p7609
g54
F0.7552
tp7610
a(g1354
g54
F0.279
tp7611
a(S'mutant'
p7612
g43
F0.9761
tp7613
a(S'turtle'
p7614
g16
F0.9879
tp7615
asI833
(lp7616
(S'he'
p7617
g33
F0.9905
tp7618
a(g78
g10
F0.7461
tp7619
a(S'the'
p7620
g13
F0.9843
tp7621
a(S'what'
p7622
g33
F0.9771
tp7623
asI834
(lp7624
(S'the'
p7625
g13
F0.9871
tp7626
a(S'inja'
p7627
g54
F0.5141
tp7628
a(g1354
g54
F0.6588
tp7629
a(S'ninja'
p7630
g54
F0.9428
tp7631
a(S'nuna'
p7632
g54
F0.7552
tp7633
a(g1354
g54
F0.3328
tp7634
a(S'mutant'
p7635
g43
F0.9798
tp7636
a(S'turtle'
p7637
g16
F0.9919
tp7638
asI835
(lp7639
(S'inja'
p7640
g79
F0.3378
tp7641
a(g1354
g79
F0.6403
tp7642
a(S'ninja'
p7643
g54
F0.4797
tp7644
a(S'nuna'
p7645
g54
F0.7711
tp7646
a(g1354
g54
F0.296
tp7647
a(S'mutant'
p7648
g43
F0.9617
tp7649
a(S'turtle'
p7650
g16
F0.9916
tp7651
asI836
(lp7652
(S'yeah'
p7653
g3
F0.9958
tp7654
a(S'he'
p7655
g33
F0.9981
tp7656
a(S'has'
p7657
g10
F0.9999
tp7658
a(S'some'
p7659
g13
F0.8995
tp7660
a(S'inja'
p7661
g79
F0.3175
tp7662
a(g1354
g79
F0.6512
tp7663
a(S'ninja'
p7664
g54
F0.4061
tp7665
a(S'nuna'
p7666
g54
F0.7552
tp7667
a(g1354
g54
F0.2756
tp7668
a(S'mutant'
p7669
g43
F0.9685
tp7670
a(S'turtle'
p7671
g16
F0.9842
tp7672
a(S'stuff'
p7673
g16
F0.992
tp7674
a(S'remember'
p7675
g10
F0.9784
tp7676
a(g306
g33
F0.9957
tp7677
a(S'told'
p7678
g10
F1.0
tp7679
a(S'you'
p7680
g33
F0.9965
tp7681
a(S'that'
p7682
g13
F0.4355
tp7683
asI837
(lp7684
(S'yeah'
p7685
g3
F0.9962
tp7686
a(S'but'
p7687
g285
F0.991
tp7688
a(S'where'
p7689
g7
F0.9669
tp7690
a(S'did'
p7691
g10
F0.9985
tp7692
a(S'you'
p7693
g33
F0.9986
tp7694
a(S'see'
p7695
g10
F0.9998
tp7696
a(S'him'
p7697
g33
F0.8955
tp7698
asI838
(lp7699
(g306
g33
F0.9756
tp7700
a(S'didn'
p7701
g10
F0.9919
tp7702
a(g291
g10
F0.7723
tp7703
a(S'see'
p7704
g10
F0.9964
tp7705
a(S'him'
p7706
g33
F0.9162
tp7707
asI839
(lp7708
(S'we'
p7709
g33
F0.9953
tp7710
a(S'were'
p7711
g10
F0.9985
tp7712
a(S'talking'
p7713
g10
F0.9629
tp7714
a(S'about'
p7715
g30
F0.9903
tp7716
a(S'him'
p7717
g33
F0.9956
tp7718
asI840
(lp7719
(S'you'
p7720
g33
F0.9945
tp7721
a(S'were'
p7722
g10
F0.9984
tp7723
a(S'talking'
p7724
g10
F0.9725
tp7725
a(S'about'
p7726
g30
F0.9903
tp7727
a(S'him'
p7728
g33
F0.9972
tp7729
a(S'where'
p7730
g7
F0.9932
tp7731
asI841
(lp7732
(S'yeah'
p7733
g3
F0.9988
tp7734
asI842
(lp7735
(S'when'
p7736
g7
F0.9604
tp7737
a(S'we'
p7738
g33
F0.9964
tp7739
a(S'were'
p7740
g10
F0.9986
tp7741
a(S'playing'
p7742
g10
F0.9941
tp7743
a(S'inja'
p7744
g79
F0.2513
tp7745
a(g1354
g79
F0.6512
tp7746
a(S'ninja'
p7747
g54
F0.4061
tp7748
a(S'nuna'
p7749
g54
F0.7552
tp7750
a(g1354
g79
F0.2519
tp7751
a(S'mutant'
p7752
g43
F0.993
tp7753
a(S'turtle'
p7754
g16
F0.9935
tp7755
asI843
(lp7756
(S'www'
p7757
g54
F0.3889
tp7758
asI844
(lp7759
(S'who'
p7760
g33
F0.9965
tp7761
a(S'was'
p7762
g10
F0.9996
tp7763
a(S'playing'
p7764
g10
F0.9954
tp7765
a(S'inja'
p7766
g79
F0.2231
tp7767
a(g1354
g79
F0.6512
tp7768
a(S'ninja'
p7769
g54
F0.4061
tp7770
a(S'nuna'
p7771
g54
F0.7552
tp7772
a(g1354
g54
F0.279
tp7773
a(S'mutant'
p7774
g43
F0.9761
tp7775
a(S'turtle'
p7776
g16
F0.9879
tp7777
asI845
(lp7778
(S'me'
p7779
g33
F0.9967
tp7780
a(S'and'
p7781
g285
F0.9931
tp7782
a(S'david'
p7783
g54
F0.9843
tp7784
asI846
(lp7785
(S'and'
p7786
g285
F0.9992
tp7787
a(S'me'
p7788
g33
F0.9987
tp7789
a(S'and'
p7790
g285
F0.9914
tp7791
a(S'tyrone'
p7792
g54
F0.9907
tp7793
a(S'were'
p7794
g10
F0.9791
tp7795
a(S'playing'
p7796
g10
F0.9996
tp7797
a(S'my'
p7798
g13
F0.9966
tp7799
a(S'tape'
p7800
g16
F0.999
tp7801
a(S'that'
p7802
g30
F0.864
tp7803
a(g306
g33
F0.9959
tp7804
a(S'got'
p7805
g10
F0.9997
tp7806
a(S'at'
p7807
g30
F0.994
tp7808
a(S'the'
p7809
g13
F0.9993
tp7810
a(S'tape'
p7811
g16
F0.9947
tp7812
a(S'store'
p7813
g16
F0.9842
tp7814
asI847
(lp7815
(S'you'
p7816
g33
F0.9945
tp7817
a(S'were'
p7818
g10
F0.9985
tp7819
a(S'watching'
p7820
g10
F0.9988
tp7821
a(S'the'
p7822
g13
F0.9996
tp7823
a(S'tape'
p7824
g16
F0.9979
tp7825
a(S'on'
p7826
g30
F0.9969
tp7827
a(S'tv'
p7828
g16
F0.9531
tp7829
asI848
(lp7830
(S'ninja'
p7831
g54
F0.637
tp7832
a(S'turtle'
p7833
g16
F0.5879
tp7834
asI849
(lp7835
(S'not'
p7836
g7
F0.9912
tp7837
a(S'not'
p7838
g7
F0.9951
tp7839
a(S'today'
p7840
g16
F0.9831
tp7841
asI850
(lp7842
(S'so'
p7843
g30
F0.9492
tp7844
a(S'the'
p7845
g13
F0.9973
tp7846
a(S'ninja'
p7847
g16
F0.6019
tp7848
a(S'turtles'
p7849
g16
F0.9611
tp7850
a(S'have'
p7851
g10
F0.9996
tp7852
a(g170
g13
F0.9817
tp7853
a(S'broken'
p7854
g43
F0.9881
tp7855
a(S'leg'
p7856
g16
F0.9939
tp7857
asI851
(lp7858
(S'huh'
p7859
g3
F0.993
tp7860
asI852
(lp7861
(S'no'
p7862
g3
F0.9253
tp7863
asI853
(lp7864
(S'no'
p7865
g3
F0.9253
tp7866
asI854
(lp7867
(g306
g33
F0.953
tp7868
a(g2263
g10
F0.9415
tp7869
a(S'sorry'
p7870
g43
F0.8556
tp7871
a(g306
g33
F0.9618
tp7872
a(S'don'
p7873
g10
F0.9198
tp7874
a(g291
g16
F0.225
tp7875
a(S'know'
p7876
g10
F0.9916
tp7877
a(S'what'
p7878
g33
F0.9829
tp7879
a(S'you'
p7880
g33
F0.9996
tp7881
a(S'mean'
p7882
g10
F0.9576
tp7883
asI855
(lp7884
(S'michael'
p7885
g54
F0.9943
tp7886
a(S'angelop'
p7887
g54
F0.3966
tp7888
asI856
(lp7889
(S'michael'
p7890
g54
F0.9943
tp7891
a(S'angelop'
p7892
g54
F0.3966
tp7893
asI857
(lp7894
(S'yeah'
p7895
g3
F0.9988
tp7896
asI858
(lp7897
(S'who'
p7898
g33
F0.9905
tp7899
a(g78
g79
F0.638
tp7900
a(S'michael'
p7901
g54
F0.9913
tp7902
a(S'angelop'
p7903
g54
F0.4894
tp7904
asI859
(lp7905
(g306
g33
F0.9811
tp7906
a(S'just'
p7907
g7
F0.999
tp7908
a(S'told'
p7909
g10
F0.9998
tp7910
a(S'you'
p7911
g33
F0.9985
tp7912
a(S'about'
p7913
g30
F0.8602
tp7914
a(S'him'
p7915
g33
F0.9962
tp7916
asI860
(lp7917
(S'michael'
p7918
g54
F0.9965
tp7919
a(S'angelop'
p7920
g54
F0.7877
tp7921
a(S'is'
p7922
g10
F0.9988
tp7923
a(g170
g13
F0.9983
tp7924
a(S'turtle'
p7925
g16
F0.9908
tp7926
asI861
(lp7927
(S'yeah'
p7928
g3
F0.9988
tp7929
asI862
(lp7930
(S'the'
p7931
g13
F0.9985
tp7932
a(S'turtle'
p7933
g16
F0.9148
tp7934
a(g78
g79
F0.7231
tp7935
a(S'name'
p7936
g16
F0.9948
tp7937
a(S'is'
p7938
g10
F0.998
tp7939
a(S'michael'
p7940
g54
F0.993
tp7941
a(S'angelop'
p7942
g54
F0.5344
tp7943
asI863
(lp7944
(S'yeah'
p7945
g3
F0.9988
tp7946
asI864
(lp7947
(S'and'
p7948
g285
F0.9977
tp7949
a(S'the'
p7950
g13
F0.9988
tp7951
a(S'turtle'
p7952
g16
F0.9421
tp7953
a(S'named'
p7954
g10
F0.9935
tp7955
a(S'michael'
p7956
g54
F0.9973
tp7957
a(S'angelop'
p7958
g54
F0.7854
tp7959
a(S'has'
p7960
g10
F0.9974
tp7961
a(g170
g13
F0.9723
tp7962
a(S'broken'
p7963
g43
F0.977
tp7964
a(S'leg'
p7965
g16
F0.9897
tp7966
asI865
(lp7967
(S'they'
p7968
g33
F0.9794
tp7969
a(S'cut'
p7970
g10
F0.9746
tp7971
a(S'off'
p7972
g372
F0.7938
tp7973
a(S'it'
p7974
g33
F0.9918
tp7975
a(S'and'
p7976
g285
F0.9962
tp7977
a(S'they'
p7978
g33
F0.9915
tp7979
a(S'put'
p7980
g10
F0.9993
tp7981
a(S'it'
p7982
g33
F0.972
tp7983
a(S'on'
p7984
g30
F0.9794
tp7985
a(S'the'
p7986
g13
F0.9968
tp7987
a(S'stick'
p7988
g16
F0.9781
tp7989
asI866
(lp7990
(S'oh'
p7991
g3
F0.995
tp7992
a(S'he'
p7993
g33
F0.9962
tp7994
a(S'got'
p7995
g10
F0.9999
tp7996
a(S'it'
p7997
g33
F0.99
tp7998
a(S'cut'
p7999
g10
F0.964
tp8000
a(S'off'
p8001
g372
F0.7042
tp8002
a(S'and'
p8003
g285
F0.9979
tp8004
a(S'he'
p8005
g33
F0.9976
tp8006
a(S'has'
p8007
g10
F0.9999
tp8008
a(g170
g13
F0.987
tp8009
a(S'stick'
p8010
g16
F0.9642
tp8011
a(S'on'
p8012
g30
F0.9993
tp8013
a(S'the'
p8014
g13
F0.9988
tp8015
a(S'end'
p8016
g16
F0.9974
tp8017
a(S'of'
p8018
g30
F0.9985
tp8019
a(S'it'
p8020
g33
F0.997
tp8021
asI867
(lp8022
(S'instead'
p8023
g7
F0.8893
tp8024
a(S'of'
p8025
g30
F0.9974
tp8026
a(g170
g13
F0.9989
tp8027
a(S'leg'
p8028
g16
F0.9909
tp8029
a(S'he'
p8030
g33
F0.9922
tp8031
a(S'has'
p8032
g10
F0.9999
tp8033
a(g170
g13
F0.9884
tp8034
a(S'stick'
p8035
g16
F0.9755
tp8036
asI868
(lp8037
(S'like'
p8038
g30
F0.876
tp8039
a(S'um'
p8040
g3
F0.6159
tp8041
asI869
(lp8042
(S'so'
p8043
g7
F0.6013
tp8044
a(S'so'
p8045
g30
F0.7807
tp8046
a(S'he'
p8047
g33
F0.9984
tp8048
a(S'has'
p8049
g10
F0.9998
tp8050
a(S'to'
p8051
g30
F0.9919
tp8052
a(S'walk'
p8053
g10
F0.9958
tp8054
a(S'easy'
p8055
g43
F0.8985
tp8056
a(S'he'
p8057
g33
F0.9924
tp8058
a(S'can'
p8059
g10
F0.9993
tp8060
a(g291
g10
F0.8146
tp8061
a(S'run'
p8062
g10
F0.9743
tp8063
asI870
(lp8064
(S'is'
p8065
g10
F0.9981
tp8066
a(S'that'
p8067
g33
F0.968
tp8068
a(S'on'
p8069
g30
F0.9753
tp8070
a(g170
g13
F0.9893
tp8071
a(S'video'
p8072
g16
F0.9977
tp8073
a(S'tape'
p8074
g16
F0.9879
tp8075
asI871
(lp8076
(S'oh'
p8077
g3
F0.9988
tp8078
asI872
(lp8079
(g170
g13
F0.9916
tp8080
a(S'ninja'
p8081
g16
F0.8011
tp8082
a(S'turtle'
p8083
g16
F0.9842
tp8084
a(S'cartoon'
p8085
g16
F0.9739
tp8086
a(S'tape'
p8087
g16
F0.9911
tp8088
asI873
(lp8089
(S'yeah'
p8090
g3
F0.9988
tp8091
asI874
(lp8092
(S'www'
p8093
g54
F0.3889
tp8094
asI875
(lp8095
(g306
g33
F0.9887
tp8096
a(S'played'
p8097
g10
F0.999
tp8098
a(g306
g33
F0.9916
tp8099
a(S'played'
p8100
g10
F0.9994
tp8101
a(S'inja'
p8102
g30
F0.4233
tp8103
a(g1354
g79
F0.2659
tp8104
a(S'ninja'
p8105
g54
F0.4061
tp8106
a(S'nuna'
p8107
g54
F0.7552
tp8108
a(g1354
g79
F0.2519
tp8109
a(S'mutant'
p8110
g43
F0.993
tp8111
a(S'turtle'
p8112
g16
F0.9935
tp8113
asI876
(lp8114
(S'is'
p8115
g10
F0.998
tp8116
a(S'that'
p8117
g33
F0.8554
tp8118
a(S'right'
p8119
g43
F0.3686
tp8120
asI877
(lp8121
(S'hurry'
p8122
g10
F0.9546
tp8123
a(S'up'
p8124
g372
F0.9383
tp8125
a(S'you'
p8126
g33
F0.9913
tp8127
a(S're'
p8128
g16
F0.4994
tp8129
a(S'almost'
p8130
g7
F0.995
tp8131
a(S'done'
p8132
g10
F0.9709
tp8133
asI878
(lp8134
(S'xxx'
p8135
g129
F0.7509
tp8136
a(S'then'
p8137
g7
F0.9669
tp8138
a(S'help'
p8139
g10
F0.9963
tp8140
a(S'you'
p8141
g33
F0.9958
tp8142
a(S'wash'
p8143
g10
F0.9982
tp8144
a(S'you'
p8145
g33
F0.9993
tp8146
a(S'out'
p8147
g372
F0.4357
tp8148
asI879
(lp8149
(S'all'
p8150
g13
F0.7806
tp8151
a(S'done'
p8152
g43
F0.4992
tp8153
asI880
(lp8154
(S'some'
p8155
g13
F0.8973
tp8156
a(S'more'
p8157
g43
F0.9925
tp8158
a(S'milk'
p8159
g16
F0.9993
tp8160
asI881
(lp8161
(S'some'
p8162
g13
F0.8973
tp8163
a(S'more'
p8164
g43
F0.9925
tp8165
a(S'milk'
p8166
g16
F0.9993
tp8167
asI882
(lp8168
(S'give'
p8169
g10
F0.9985
tp8170
a(S'me'
p8171
g33
F0.9965
tp8172
a(S'your'
p8173
g13
F0.9575
tp8174
a(S'cup'
p8175
g16
F0.9937
tp8176
a(S'and'
p8177
g285
F0.9985
tp8178
a(g306
g33
F0.9896
tp8179
a(S'll'
p8180
g10
F0.6615
tp8181
a(S'get'
p8182
g10
F0.9998
tp8183
a(S'you'
p8184
g33
F0.9964
tp8185
a(S'some'
p8186
g13
F0.9454
tp8187
asI883
(lp8188
(S'you'
p8189
g33
F0.9968
tp8190
a(S'gonna'
p8191
g10
F0.9997
tp8192
a(S'finish'
p8193
g10
F0.9998
tp8194
a(S'your'
p8195
g13
F0.9924
tp8196
a(S'doughnut'
p8197
g16
F0.9997
tp8198
a(S'or'
p8199
g285
F0.9812
tp8200
a(S'are'
p8201
g10
F0.9982
tp8202
a(S'you'
p8203
g33
F0.9997
tp8204
a(S'done'
p8205
g10
F0.9911
tp8206
asI884
(lp8207
(S'done'
p8208
g10
F0.8666
tp8209
asI885
(lp8210
(S'huh'
p8211
g3
F0.993
tp8212
asI886
(lp8213
(S'done'
p8214
g10
F0.8666
tp8215
asI887
(lp8216
(S'you'
p8217
g33
F0.9754
tp8218
a(S're'
p8219
g10
F0.9541
tp8220
a(S'all'
p8221
g13
F0.7564
tp8222
a(S'done'
p8223
g10
F0.9688
tp8224
a(S'you'
p8225
g33
F0.9969
tp8226
a(S'don'
p8227
g10
F0.8626
tp8228
a(g291
g16
F0.2294
tp8229
a(S'want'
p8230
g10
F0.9989
tp8231
a(g170
g13
F0.9901
tp8232
a(S'bite'
p8233
g16
F0.994
tp8234
a(S'of'
p8235
g30
F0.9992
tp8236
a(S'the'
p8237
g13
F0.9991
tp8238
a(S'apples'
p8239
g16
F0.9947
tp8240
asI888
(lp8241
(S'nah'
p8242
g3
F0.9921
tp8243
asI889
(lp8244
(S'alright'
p8245
g3
F0.9864
tp8246
asI890
(lp8247
(S'wait'
p8248
g10
F0.9922
tp8249
a(g170
g13
F0.9943
tp8250
a(S'minute'
p8251
g16
F0.9811
tp8252
a(g306
g33
F0.9109
tp8253
a(S'fix'
p8254
g10
F0.9999
tp8255
a(S'it'
p8256
g33
F0.9936
tp8257
a(S'see'
p8258
g10
F0.9944
tp8259
a(S'what'
p8260
g33
F0.9186
tp8261
a(S'you'
p8262
g33
F0.9998
tp8263
a(S'did'
p8264
g10
F0.999
tp8265
asI891
(lp8266
(S'xxx'
p8267
g129
F0.8252
tp8268
a(S'xxx'
p8269
g129
F0.9158
tp8270
a(S'on'
p8271
g30
F0.9933
tp8272
a(S'the'
p8273
g13
F0.9994
tp8274
a(S'floor'
p8275
g16
F0.9878
tp8276
a(S'chi'
p8277
g79
F0.4794
tp8278
asI892
(lp8279
(S'can'
p8280
g10
F0.9627
tp8281
a(g291
g10
F0.7757
tp8282
a(S'have'
p8283
g10
F0.9995
tp8284
a(S'it'
p8285
g33
F0.9848
tp8286
a(S'on'
p8287
g30
F0.9596
tp8288
a(S'the'
p8289
g13
F0.9991
tp8290
a(S'floor'
p8291
g16
F0.9939
tp8292
asI893
(lp8293
(S'you'
p8294
g33
F0.9754
tp8295
a(S're'
p8296
g10
F0.9541
tp8297
a(S'all'
p8298
g13
F0.757
tp8299
a(S'done'
p8300
g10
F0.7423
tp8301
a(S'now'
p8302
g7
F0.9935
tp8303
asI894
(lp8304
(g306
g33
F0.9891
tp8305
a(S'ripped'
p8306
g10
F0.9999
tp8307
a(S'it'
p8308
g33
F0.9766
tp8309
asI895
(lp8310
(S'chi'
p8311
g54
F0.7269
tp8312
a(S'do'
p8313
g10
F0.999
tp8314
a(S'you'
p8315
g33
F0.9997
tp8316
a(S'want'
p8317
g10
F0.9999
tp8318
a(g170
g13
F0.9986
tp8319
a(S'last'
p8320
g43
F0.955
tp8321
a(S'bite'
p8322
g16
F0.9691
tp8323
asI896
(lp8324
(S'no'
p8325
g3
F0.9253
tp8326
asI897
(lp8327
(S'okay'
p8328
g3
F0.9857
tp8329
as.