(dp0
I0
(lp1
(S'this'
p2
S'D'
p3
F0.9739
tp4
a(S'old'
p5
S'A'
p6
F0.9991
tp7
a(S'man'
p8
S'N'
p9
F0.9879
tp10
a(S'laughing'
p11
S'V'
p12
F0.9548
tp13
asI1
(lp14
(S'www'
p15
S'^'
p16
F0.5483
tp17
a(S'laughing'
p18
g12
F0.7751
tp19
asI2
(lp20
(S'he'
p21
S'O'
p22
F0.9945
tp23
a(S'played'
p24
g12
F0.9947
tp25
a(S'eight'
p26
S'$'
p27
F0.3453
tp28
a(S'laughing'
p29
g12
F0.6899
tp30
asI3
(lp31
(S'laugh'
p32
g12
F0.7009
tp33
asI4
(lp34
(S'he'
p35
g22
F0.9945
tp36
a(S'played'
p37
g12
F0.9988
tp38
a(S'knick'
p39
g16
F0.6037
tp40
a(S'knack'
p41
g9
F0.9087
tp42
a(S'on'
p43
S'P'
p44
F0.9986
tp45
a(S'our'
p46
g3
F0.997
tp47
a(S'gate'
p48
g9
F0.9934
tp49
a(S'laughing'
p50
g12
F0.9262
tp51
a(S'and'
p52
S'&'
p53
F0.9978
tp54
a(S'singing'
p55
g12
F0.9995
tp56
asI5
(lp57
(S'he'
p58
g22
F0.9945
tp59
a(S'played'
p60
g12
F0.9988
tp61
a(S'knick'
p62
g16
F0.6037
tp63
a(S'knack'
p64
g9
F0.9087
tp65
a(S'on'
p66
g44
F0.9986
tp67
a(S'our'
p68
g3
F0.9961
tp69
a(S'gate'
p70
g9
F0.9917
tp71
a(S'singing'
p72
g12
F0.9974
tp73
asI6
(lp74
(S'with'
p75
g44
F0.9963
tp76
a(S'a'
p77
g3
F0.9961
tp78
a(S'knick'
p79
g9
F0.6574
tp80
a(S'knack'
p81
g9
F0.9869
tp82
a(S'paddy'
p83
g16
F0.7409
tp84
a(S'whack'
p85
g6
F0.4904
tp86
a(S'singing'
p87
g12
F0.9286
tp88
asI7
(lp89
(S'with'
p90
g44
F0.9963
tp91
a(g77
g3
F0.9884
tp92
a(S'paddy'
p93
g16
F0.7886
tp94
a(S'whack'
p95
g6
F0.7575
tp96
asI8
(lp97
(S'give'
p98
g12
F0.9947
tp99
a(g77
g3
F0.9983
tp100
a(S'dog'
p101
g9
F0.9983
tp102
a(g77
g3
F0.982
tp103
a(S'bone'
p104
g9
F0.9968
tp105
a(S'singing'
p106
g12
F0.9976
tp107
asI9
(lp108
(S'give'
p109
g12
F0.9947
tp110
a(g77
g3
F0.9983
tp111
a(S'dog'
p112
g9
F0.9983
tp113
a(g77
g3
F0.982
tp114
a(S'bone'
p115
g9
F0.9968
tp116
a(S'singing'
p117
g12
F0.9976
tp118
asI10
(lp119
(S'this'
p120
g3
F0.9739
tp121
a(S'old'
p122
g6
F0.9986
tp123
a(S'man'
p124
g9
F0.9837
tp125
a(S'laughing'
p126
g12
F0.9923
tp127
a(S'came'
p128
g12
F0.9612
tp129
a(S'rolling'
p130
g12
F0.9774
tp131
a(S'home'
p132
g9
F0.8896
tp133
a(S'singing'
p134
g12
F0.997
tp135
asI11
(lp136
(S'this'
p137
g22
F0.5914
tp138
a(S'laughing'
p139
g12
F0.9253
tp140
a(S'old'
p141
g6
F0.9941
tp142
a(S'man'
p143
g9
F0.9769
tp144
a(S'came'
p145
g12
F0.9844
tp146
a(S'rolling'
p147
g12
F0.9774
tp148
a(S'home'
p149
g9
F0.8896
tp150
a(S'singing'
p151
g12
F0.997
tp152
asI12
(lp153
(S'may'
p154
g12
F0.6073
tp155
a(S'i'
p156
g22
F0.9902
tp157
a(S'have'
p158
g12
F1.0
tp159
a(S'the'
p160
g3
F0.9995
tp161
a(S'pink'
p162
g6
F0.8753
tp163
a(S'scissors'
p164
g9
F0.9982
tp165
a(S'laughing'
p166
g12
F0.9829
tp167
asI13
(lp168
(S'you'
p169
g22
F0.9406
tp170
a(S'guys'
p171
g9
F0.9445
tp172
a(S'come'
p173
g12
F0.9983
tp174
a(S'coming'
p175
g12
F0.9881
tp176
a(S'and'
p177
g53
F0.9953
tp178
a(S'sitting'
p179
g12
F0.9987
tp180
a(S'down'
p181
S'T'
p182
F0.7139
tp183
asI14
(lp184
(S'please'
p185
g12
F0.9618
tp186
a(S'sit'
p187
g12
F0.9968
tp188
a(S'down'
p189
g182
F0.9538
tp190
asI15
(lp191
(g156
g22
F0.9708
tp192
a(S'like'
p193
g12
F0.6732
tp194
a(S'the'
p195
g3
F0.9838
tp196
a(S'charlie'
p197
g16
F0.9961
tp198
a(S'brown'
p199
g16
F0.9096
tp200
a(S'xxx'
p201
S'E'
p202
F0.7598
tp203
asI16
(lp204
(S'they'
p205
g22
F0.9862
tp206
a(S'll'
p207
g12
F0.6837
tp208
a(S'be'
p209
g12
F0.9967
tp210
a(S'hot'
p211
g6
F0.9767
tp212
asI17
(lp213
(S'so'
p214
g44
F0.8698
tp215
a(S'they'
p216
g22
F0.9722
tp217
a(S're'
p218
g12
F0.5473
tp219
a(S'gonna'
p220
g12
F0.9907
tp221
a(S'have'
p222
g12
F0.9997
tp223
a(S'to'
p224
g44
F0.9708
tp225
a(S'cool'
p226
g6
F0.916
tp227
a(S'first'
p228
g6
F0.6434
tp229
a(S'chi'
p230
g9
F0.4742
tp231
asI18
(lp232
(S'www'
p233
g16
F0.5097
tp234
a(S'chi'
p235
g16
F0.9283
tp236
a(S'singing'
p237
g12
F0.998
tp238
asI19
(lp239
(S'they'
p240
g22
F0.9926
tp241
a(S'have'
p242
g12
F0.9994
tp243
a(S'so'
p244
S'R'
p245
F0.7337
tp246
a(S'many'
p247
g6
F0.8775
tp248
a(S'little'
p249
g6
F0.9956
tp250
a(S'lizards'
p251
g9
F0.986
tp252
a(S'and'
p253
g53
F0.9983
tp254
a(S'things'
p255
g9
F0.9763
tp256
a(S'around'
p257
g44
F0.9833
tp258
a(S'their'
p259
g3
F0.9929
tp260
a(S'house'
p261
g9
F0.9958
tp262
a(S'laughing'
p263
g12
F0.971
tp264
asI20
(lp265
(S'lizard'
p266
g9
F0.728
tp267
a(S'what'
p268
g22
F0.9488
tp269
asI21
(lp270
(S'lizardy'
p271
g16
F0.4444
tp272
a(S'things'
p273
g9
F0.9569
tp274
asI22
(lp275
(S'they'
p276
g22
F0.9926
tp277
a(S'have'
p278
g12
F0.9999
tp279
a(g77
g3
F0.9452
tp280
a(S'an'
p281
g3
F0.9315
tp282
a(S'iguana'
p283
g9
F0.7493
tp284
asI23
(lp285
(S'xxx'
p286
g202
F0.8437
tp287
asI24
(lp288
(S'and'
p289
g53
F0.9991
tp290
a(S'its'
p291
S'L'
p292
F0.9925
tp293
a(S'kinda'
p294
g245
F0.8845
tp295
a(S'kind'
p296
g6
F0.4516
tp297
a(S'of'
p298
g44
F0.9878
tp299
a(S'big'
p300
g6
F0.8645
tp301
asI25
(lp302
(S'it'
p303
g22
F0.9956
tp304
a(S'was'
p305
g12
F0.9975
tp306
a(S'much'
p307
g245
F0.8362
tp308
a(S'bigger'
p309
g6
F0.996
tp310
a(S'than'
p311
g44
F0.986
tp312
a(S'last'
p313
g6
F0.9948
tp314
a(S'time'
p315
g9
F0.9997
tp316
a(g156
g22
F0.9644
tp317
a(S'saw'
p318
g12
F0.9999
tp319
a(S'it'
p320
g22
F0.985
tp321
asI26
(lp322
(S'mm'
p323
S'!'
p324
F0.627
tp325
asI27
(lp326
(S'and'
p327
g53
F0.9991
tp328
a(S'they'
p329
g22
F0.9967
tp330
a(S'have'
p331
g12
F0.9986
tp332
a(S'snakes'
p333
g9
F0.9796
tp334
a(S'but'
p335
g53
F0.9796
tp336
a(S'those'
p337
g22
F0.8286
tp338
a(S'are'
p339
g12
F0.9975
tp340
a(S'in'
p341
g44
F0.9787
tp342
a(g77
g3
F0.9966
tp343
a(S'cage'
p344
g9
F0.9979
tp345
asI28
(lp346
(S'those'
p347
g22
F0.6322
tp348
a(S'are'
p349
g12
F0.9977
tp350
a(S'in'
p351
g44
F0.9912
tp352
a(S'the'
p353
g3
F0.9995
tp354
a(S'boys'
p355
g9
F0.9978
tp356
a(S's'
p357
S'G'
p358
F0.6782
tp359
a(S'room'
p360
g9
F0.9563
tp361
asI29
(lp362
(S'they'
p363
g22
F0.9886
tp364
a(S'just'
p365
g245
F0.9997
tp366
a(S'catch'
p367
g12
F0.983
tp368
a(S'snakes'
p369
g9
F0.9808
tp370
asI30
(lp371
(S'snakes'
p372
g9
F0.95
tp373
asI31
(lp374
(S'and'
p375
g53
F0.9991
tp376
a(S'they'
p377
g22
F0.9972
tp378
a(S'have'
p379
g12
F0.9998
tp380
a(S'um'
p381
g324
F0.8411
tp382
asI32
(lp383
(S'and'
p384
g53
F0.9982
tp385
a(S'lizards'
p386
g9
F0.9642
tp387
asI33
(lp388
(S'oh'
p389
g324
F0.9988
tp390
asI34
(lp391
(g77
g3
F0.9956
tp392
a(S'little'
p393
g6
F0.9982
tp394
a(S'baby'
p395
g9
F0.9988
tp396
a(S'snapping'
p397
g12
F0.9704
tp398
a(S'turtle'
p399
g9
F0.9407
tp400
asI35
(lp401
(S'it'
p402
g22
F0.9888
tp403
a(g357
g12
F0.5248
tp404
a(S'so'
p405
g245
F0.9514
tp406
a(S'cute'
p407
g6
F0.9978
tp408
asI36
(lp409
(S'that'
p410
g22
F0.4727
tp411
a(g357
g12
F0.3913
tp412
a(S'nice'
p413
g6
F0.9891
tp414
asI37
(lp415
(S'you'
p416
g22
F0.9969
tp417
a(S'can'
p418
g12
F0.9998
tp419
a(S'hold'
p420
g12
F0.9999
tp421
a(S'it'
p422
g22
F0.9654
tp423
a(S'in'
p424
g44
F0.9631
tp425
a(S'your'
p426
g3
F0.9962
tp427
a(S'hand'
p428
g9
F0.9985
tp429
a(S'and'
p430
g53
F0.9974
tp431
a(S'it'
p432
g22
F0.9974
tp433
a(S'doesn'
p434
g12
F0.991
tp435
a(S't'
p436
g9
F0.3165
tp437
a(S'bite'
p438
g12
F0.6307
tp439
a(S'or'
p440
g53
F0.9846
tp441
a(S'anything'
p442
g9
F0.9954
tp443
asI38
(lp444
(S'0do'
p445
g44
F0.4517
tp446
a(S'you'
p447
g22
F0.9995
tp448
a(S'know'
p449
g12
F0.9989
tp450
a(S'what'
p451
g22
F0.934
tp452
a(S'iguana'
p453
g9
F0.8382
tp454
a(S'is'
p455
g12
F0.9903
tp456
a(S'chi'
p457
g16
F0.4174
tp458
asI39
(lp459
(S'its'
p460
g292
F0.9935
tp461
a(g77
g3
F0.9816
tp462
a(S'kind'
p463
g9
F0.8959
tp464
a(S'o'
p465
g44
F0.8988
tp466
a(S'f'
p467
g358
F0.3249
tp468
a(S'lizard'
p469
g9
F0.6825
tp470
asI40
(lp471
(S'oh'
p472
g324
F0.9987
tp473
a(S'yeah'
p474
g324
F0.9997
tp475
asI41
(lp476
(g156
g22
F0.9912
tp477
a(S'know'
p478
g12
F0.9989
tp479
asI42
(lp480
(S'and'
p481
g53
F0.9991
tp482
a(S'its'
p483
g292
F0.9917
tp484
a(S'this'
p485
g3
F0.9251
tp486
a(S'big'
p487
g6
F0.8887
tp488
asI43
(lp489
(S'but'
p490
g53
F0.9946
tp491
a(S'its'
p492
g292
F0.9919
tp493
a(S'only'
p494
g245
F0.6226
tp495
a(S'this'
p496
g3
F0.6005
tp497
a(S'wide'
p498
g6
F0.9611
tp499
asI44
(lp500
(S'is'
p501
g12
F0.9993
tp502
a(S'it'
p503
g22
F0.9895
tp504
a(S'this'
p505
g3
F0.9716
tp506
a(S'big'
p507
g6
F0.8887
tp508
asI45
(lp509
(S'its'
p510
g292
F0.9868
tp511
a(S'got'
p512
g12
F0.9955
tp513
a(g77
g3
F0.9969
tp514
a(S'long'
p515
g6
F0.9969
tp516
a(S'tail'
p517
g9
F0.9992
tp518
a(S'right'
p519
g245
F0.3539
tp520
asI46
(lp521
(S'pretty'
p522
g245
F0.9851
tp523
a(S'long'
p524
g6
F0.996
tp525
asI47
(lp526
(S'mm'
p527
g324
F0.627
tp528
asI48
(lp529
(S'this'
p530
g3
F0.9738
tp531
a(S'big'
p532
g6
F0.9508
tp533
asI49
(lp534
(g156
g22
F0.9888
tp535
a(S'tried'
p536
g12
F0.9987
tp537
a(S'to'
p538
g44
F0.9824
tp539
a(S'pet'
p540
g12
F0.6999
tp541
a(S'her'
p542
g22
F0.7572
tp543
a(S'but'
p544
g53
F0.9757
tp545
a(S'he'
p546
g22
F0.9968
tp547
a(g357
g12
F0.8918
tp548
a(S'all'
p549
g3
F0.9316
tp550
a(S'scaly'
p551
g6
F0.8889
tp552
asI50
(lp553
(S'www'
p554
g16
F0.5612
tp555
a(S'giggle'
p556
g12
F0.356
tp557
asI51
(lp558
(S'yep'
p559
g324
F0.9977
tp560
asI52
(lp561
(S'sis'
p562
g9
F0.8652
tp563
asI53
(lp564
(S'does'
p565
g12
F0.9971
tp566
a(S'they'
p567
g22
F0.9972
tp568
a(S'have'
p569
g12
F0.9999
tp570
a(g77
g3
F0.9461
tp571
a(S'like'
p572
g44
F0.7658
tp573
a(S'um'
p574
g358
F0.4039
tp575
a(S'um'
p576
g358
F0.4944
tp577
a(S'um'
p578
g358
F0.4944
tp579
a(S'um'
p580
g358
F0.4944
tp581
a(S'um'
p582
g358
F0.4835
tp583
a(S'uh'
p584
g324
F0.7122
tp585
a(S'um'
p586
g324
F0.9646
tp587
a(S'um'
p588
g324
F0.8454
tp589
a(S'jay'
p590
g16
F0.9925
tp591
a(S'jay'
p592
g16
F0.9987
tp593
a(S'wagstep'
p594
g16
F0.751
tp595
a(g357
g358
F0.4838
tp596
a(S'house'
p597
g9
F0.8801
tp598
asI54
(lp599
(S'www'
p600
g16
F0.5483
tp601
a(S'laughing'
p602
g12
F0.9374
tp603
a(S'no'
p604
g3
F0.6216
tp605
asI55
(lp606
(S'who'
p607
g22
F0.9764
tp608
asI56
(lp609
(S'they'
p610
g22
F0.9795
tp611
a(S'didn'
p612
g12
F0.9891
tp613
a(g436
g12
F0.7501
tp614
a(S'have'
p615
g12
F0.9981
tp616
a(S'that'
p617
g3
F0.6828
tp618
a(S'many'
p619
g6
F0.9774
tp620
a(S'animals'
p621
g9
F0.9941
tp622
asI57
(lp623
(S'the'
p624
g3
F0.999
tp625
a(S'new'
p626
g6
F0.9996
tp627
a(S'one'
p628
g27
F0.8534
tp629
asI58
(lp630
(S'who'
p631
g22
F0.9905
tp632
a(g357
g358
F0.6067
tp633
a(S'jay'
p634
g16
F0.9756
tp635
a(S'jay'
p636
g16
F0.9985
tp637
a(S'wagstaff'
p638
g16
F0.8527
tp639
asI59
(lp640
(S'xxx'
p641
g202
F0.6484
tp642
a(S'sloppy'
p643
g6
F0.9995
tp644
a(S'dog'
p645
g9
F0.9995
tp646
asI60
(lp647
(S'sloppy'
p648
g6
F0.9831
tp649
asI61
(lp650
(S'xxx'
p651
g202
F0.6465
tp652
a(g77
g3
F0.9905
tp653
a(S'rich'
p654
g6
F0.9921
tp655
a(S'guy'
p656
g9
F0.991
tp657
asI62
(lp658
(S'oh'
p659
g324
F0.9988
tp660
asI63
(lp661
(S'very'
p662
g245
F0.9655
tp663
a(S'very'
p664
g245
F0.8614
tp665
a(S'rich'
p666
g6
F0.9989
tp667
asI64
(lp668
(S'very'
p669
g245
F0.99
tp670
a(S'rich'
p671
g6
F0.9995
tp672
a(S'of'
p673
g44
F0.9871
tp674
a(S'animals'
p675
g9
F0.9636
tp676
asI65
(lp677
(S'why'
p678
g245
F0.9375
tp679
a(S'don'
p680
g9
F0.2525
tp681
a(g436
g12
F0.5898
tp682
a(S'you'
p683
g22
F0.999
tp684
a(S'start'
p685
g12
F0.9991
tp686
a(S'on'
p687
g44
F0.9335
tp688
a(S'your'
p689
g3
F0.9933
tp690
a(S'tomatoes'
p691
g9
F0.9981
tp692
a(S'chi'
p693
g358
F0.3762
tp694
a(S'because'
p695
g44
F0.9931
tp696
a(S'everything'
p697
g9
F0.9368
tp698
a(S'here'
p699
g245
F0.9862
tp700
a(S'on'
p701
g44
F0.9951
tp702
a(S'your'
p703
g3
F0.9945
tp704
a(S'plate'
p705
g9
F0.999
tp706
a(S'is'
p707
g12
F0.9967
tp708
a(S'too'
p709
g245
F0.9983
tp710
a(S'hot'
p711
g6
F0.948
tp712
a(S'yet'
p713
g245
F0.941
tp714
asI66
(lp715
(S'xxx'
p716
g202
F0.8437
tp717
asI67
(lp718
(S'is'
p719
g12
F0.998
tp720
a(S'the'
p721
g3
F0.9992
tp722
a(S'ketchup'
p723
g9
F0.998
tp724
a(S'too'
p725
g245
F0.9803
tp726
a(S'hot'
p727
g6
F0.9901
tp728
asI68
(lp729
(S'no'
p730
g3
F0.4436
tp731
a(S'laughing'
p732
g12
F0.5107
tp733
asI69
(lp734
(S'hot'
p735
g6
F0.9434
tp736
a(S'ketchup'
p737
g9
F0.9968
tp738
asI70
(lp739
(S'www'
p740
g16
F0.5369
tp741
a(S'humming'
p742
g12
F0.9174
tp743
asI71
(lp744
(S'how'
p745
g245
F0.9581
tp746
a(S'was'
p747
g12
F0.9819
tp748
a(S'xxx'
p749
g202
F0.6812
tp750
asI72
(lp751
(S'what'
p752
g22
F0.9835
tp753
a(S'are'
p754
g12
F0.9978
tp755
a(S'you'
p756
g22
F0.9862
tp757
a(S'guys'
p758
g9
F0.9572
tp759
a(S'doing'
p760
g12
F0.9995
tp761
asI73
(lp762
(g156
g22
F0.953
tp763
a(S'm'
p764
g12
F0.9787
tp765
a(S'copying'
p766
g12
F0.9968
tp767
a(S'her'
p768
g22
F0.7057
tp769
asI74
(lp770
(S'and'
p771
g53
F0.9988
tp772
a(S'what'
p773
g22
F0.996
tp774
a(S'are'
p775
g12
F0.9985
tp776
a(S'you'
p777
g22
F0.9993
tp778
a(S'doing'
p779
g12
F0.9998
tp780
asI75
(lp781
(g156
g22
F0.953
tp782
a(g764
g12
F0.9827
tp783
a(S'copying'
p784
g12
F0.9968
tp785
a(S'her'
p786
g22
F0.7634
tp787
a(S'laughing'
p788
g12
F0.987
tp789
asI76
(lp790
(S'you'
p791
g22
F0.9969
tp792
a(S'can'
p793
g12
F0.9994
tp794
a(g436
g12
F0.9146
tp795
a(S'both'
p796
g22
F0.6724
tp797
a(S'be'
p798
g12
F0.9948
tp799
a(S'copying'
p800
g12
F0.9912
tp801
a(S'each'
p802
g3
F0.9894
tp803
a(S'other'
p804
g6
F0.9691
tp805
asI77
(lp806
(S'www'
p807
g16
F0.5483
tp808
a(S'laughing'
p809
g12
F0.7751
tp810
asI78
(lp811
(S'yes'
p812
g324
F0.9958
tp813
asI79
(lp814
(S'well'
p815
g324
F0.9664
tp816
asI80
(lp817
(S'alright'
p818
g324
F0.9197
tp819
a(S'hold'
p820
g12
F0.9946
tp821
a(S'up'
p822
g182
F0.9967
tp823
asI81
(lp824
(S'www'
p825
g16
F0.5483
tp826
a(S'laughing'
p827
g12
F0.7751
tp828
asI82
(lp829
(S'pour'
p830
g12
F0.8776
tp831
a(S'the'
p832
g3
F0.9995
tp833
a(S'salad'
p834
g9
F0.9858
tp835
a(S'dressing'
p836
g12
F0.9884
tp837
a(S'right'
p838
g245
F0.7861
tp839
a(S'on'
p840
g44
F0.9975
tp841
a(S'it'
p842
g22
F0.9969
tp843
asI83
(lp844
(S'do'
p845
g12
F0.9985
tp846
a(S'you'
p847
g22
F0.9996
tp848
a(S'want'
p849
g12
F0.9999
tp850
a(S'some'
p851
g3
F0.9806
tp852
a(S'blue'
p853
g6
F0.939
tp854
a(S'cheese'
p855
g9
F0.9993
tp856
a(S'or'
p857
g53
F0.9851
tp858
a(S'italian'
p859
g6
F0.5499
tp860
a(S'italian'
p861
g9
F0.7336
tp862
asI84
(lp863
(g156
g22
F0.9897
tp864
a(S'mean'
p865
g12
F0.9814
tp866
a(g156
g22
F0.9957
tp867
a(S'mean'
p868
g12
F0.9965
tp869
a(S'do'
p870
g12
F0.9985
tp871
a(S'it'
p872
g22
F0.9917
tp873
a(S'on'
p874
g44
F0.8537
tp875
a(S'xxx'
p876
g202
F0.2289
tp877
a(S'chicken'
p878
g9
F0.8187
tp879
a(S'laughing'
p880
g12
F0.9792
tp881
a(S'really'
p882
g245
F0.9998
tp883
a(S'hard'
p884
g6
F0.9348
tp885
asI85
(lp886
(S'what'
p887
g22
F0.9835
tp888
a(S'are'
p889
g12
F0.9978
tp890
a(S'you'
p891
g22
F0.9964
tp892
a(g77
g3
F0.9966
tp893
a(S'chicken'
p894
g9
F0.9701
tp895
asI86
(lp896
(S'no'
p897
g324
F0.8465
tp898
a(S'we'
p899
g22
F0.9763
tp900
a(S're'
p901
g12
F0.9062
tp902
a(g77
g3
F0.9953
tp903
a(S'gorilla'
p904
g9
F0.934
tp905
a(S'laughing'
p906
g12
F0.9716
tp907
asI87
(lp908
(S'oh'
p909
g324
F0.9988
tp910
asI88
(lp911
(g156
g22
F0.9869
tp912
a(S'gotta'
p913
g12
F0.9997
tp914
a(S'tell'
p915
g12
F0.9989
tp916
a(S'you'
p917
g22
F0.9991
tp918
asI89
(lp919
(S'stan'
p920
g16
F0.9968
tp921
a(S'had'
p922
g12
F0.9961
tp923
a(S'clipped'
p924
g12
F0.9964
tp925
a(g77
g3
F0.9976
tp926
a(S'bunch'
p927
g9
F0.9973
tp928
a(S'of'
p929
g44
F0.9822
tp930
a(S'far'
p931
g6
F0.6864
tp932
a(S'side'
p933
g9
F0.9788
tp934
a(S'cartoons'
p935
g9
F0.9888
tp936
a(S'from'
p937
g44
F0.9999
tp938
a(S'the'
p939
g3
F0.9989
tp940
a(S'paper'
p941
g9
F0.9927
tp942
asI90
(lp943
(S'mhm'
p944
g324
F0.9747
tp945
asI91
(lp946
(S'and'
p947
g53
F0.998
tp948
a(S'one'
p949
g27
F0.971
tp950
a(S'of'
p951
g44
F0.998
tp952
a(S'them'
p953
g22
F0.9395
tp954
a(S'it'
p955
g22
F0.9931
tp956
a(S'showed'
p957
g12
F0.9998
tp958
a(S'this'
p959
g3
F0.9749
tp960
a(S'guy'
p961
g9
F0.9807
tp962
a(S'who'
p963
g22
F0.9882
tp964
a(S'was'
p965
g12
F0.9997
tp966
a(S'like'
p967
g44
F0.5466
tp968
a(S'photographing'
p969
g12
F0.9923
tp970
a(S'these'
p971
g3
F0.9909
tp972
a(S'chickens'
p973
g9
F0.9809
tp974
a(S'in'
p975
g44
F0.9943
tp976
a(g77
g3
F0.8948
tp977
a(S'in'
p978
g44
F0.8948
tp979
a(g77
g3
F0.9874
tp980
a(S'hen'
p981
g9
F0.6017
tp982
a(S'house'
p983
g9
F0.9272
tp984
asI92
(lp985
(S'www'
p986
g16
F0.6376
tp987
a(S'singing'
p988
g12
F0.9823
tp989
a(S'nonsense'
p990
g9
F0.9437
tp991
a(S'syllables'
p992
g9
F0.9904
tp993
asI93
(lp994
(S'and'
p995
g53
F0.9994
tp996
a(S'it'
p997
g22
F0.9974
tp998
a(S'goes'
p999
g12
F0.9987
tp1000
a(S'as'
p1001
g44
F0.955
tp1002
a(S'he'
p1003
g22
F0.9987
tp1004
a(S'stared'
p1005
g12
F0.9979
tp1006
a(S'at'
p1007
g44
F0.9979
tp1008
a(S'me'
p1009
g22
F0.9945
tp1010
a(g156
g22
F0.9734
tp1011
a(S'felt'
p1012
g12
F0.9999
tp1013
a(g77
g3
F0.9959
tp1014
a(S'strange'
p1015
g6
F0.9995
tp1016
a(S'sense'
p1017
g9
F0.9972
tp1018
a(S'of'
p1019
g44
F0.9955
tp1020
a(S'understanding'
p1021
g9
F0.6351
tp1022
asI94
(lp1023
(S'they'
p1024
g22
F0.9866
tp1025
a(S'were'
p1026
g12
F0.9959
tp1027
a(S'beautiful'
p1028
g6
F0.9972
tp1029
a(S'those'
p1030
g3
F0.9526
tp1031
a(S'chickens'
p1032
g9
F0.9809
tp1033
a(S'in'
p1034
g44
F0.9991
tp1035
a(S'the'
p1036
g3
F0.999
tp1037
a(S'mist'
p1038
g9
F0.9946
tp1039
asI95
(lp1040
(S'www'
p1041
g16
F0.5483
tp1042
a(S'laughing'
p1043
g12
F0.7751
tp1044
asI96
(lp1045
(S'mm'
p1046
g324
F0.627
tp1047
asI97
(lp1048
(S'tomato'
p1049
g9
F0.9668
tp1050
asI98
(lp1051
(S'isn'
p1052
g358
F0.5578
tp1053
a(g436
g358
F0.7091
tp1054
a(S'that'
p1055
g3
F0.4197
tp1056
a(S'funny'
p1057
g6
F0.9973
tp1058
asI99
(lp1059
(S'well'
p1060
g245
F0.5612
tp1061
a(S'now'
p1062
g245
F0.9924
tp1063
a(S'that'
p1064
g44
F0.8258
tp1065
a(S'you'
p1066
g22
F0.9997
tp1067
a(S'got'
p1068
g12
F0.9999
tp1069
a(S'it'
p1070
g22
F0.9906
tp1071
a(S'in'
p1072
g44
F0.9631
tp1073
a(S'your'
p1074
g3
F0.9963
tp1075
a(S'mouth'
p1076
g9
F0.9996
tp1077
a(S'how'
p1078
g245
F0.9843
tp1079
a(g357
g358
F0.6012
tp1080
a(S'about'
p1081
g44
F0.9663
tp1082
a(S'if'
p1083
g44
F0.9954
tp1084
a(S'you'
p1085
g22
F0.9997
tp1086
a(S'eat'
p1087
g12
F0.9998
tp1088
a(S'it'
p1089
g22
F0.9894
tp1090
asI100
(lp1091
(S'yes'
p1092
g324
F0.9958
tp1093
asI101
(lp1094
(g156
g22
F0.9891
tp1095
a(S'found'
p1096
g12
F0.9999
tp1097
a(g77
g3
F0.9604
tp1098
a(S'who'
p1099
g22
F0.9712
tp1100
a(S'le'
p1101
g12
F0.4279
tp1102
asI102
(lp1103
(S'oh'
p1104
g324
F0.9988
tp1105
asI103
(lp1106
(g156
g22
F0.9891
tp1107
a(S'found'
p1108
g12
F0.9999
tp1109
a(g77
g3
F0.9976
tp1110
a(S'whole'
p1111
g6
F0.9904
tp1112
a(S'bunch'
p1113
g9
F0.9962
tp1114
a(S'of'
p1115
g44
F0.9976
tp1116
a(S'mica'
p1117
g9
F0.7312
tp1118
asI104
(lp1119
(S'we'
p1120
g22
F0.9971
tp1121
a(S'took'
p1122
g12
F0.9998
tp1123
a(S'some'
p1124
g3
F0.5679
tp1125
a(S'off'
p1126
g44
F0.5064
tp1127
a(S'of'
p1128
g44
F0.997
tp1129
a(S'the'
p1130
g3
F0.9988
tp1131
a(S'rock'
p1132
g9
F0.9612
tp1133
a(S'at'
p1134
g44
F0.9998
tp1135
a(S'the'
p1136
g3
F0.9931
tp1137
a(S'xxx'
p1138
g9
F0.5912
tp1139
a(S'commons'
p1140
g9
F0.9929
tp1141
a(S'and'
p1142
g53
F0.9978
tp1143
a(S'it'
p1144
g22
F0.9971
tp1145
a(g357
g12
F0.7731
tp1146
a(S'in'
p1147
g44
F0.979
tp1148
a(S'my'
p1149
g3
F0.9988
tp1150
a(S'pocket'
p1151
g9
F0.9906
tp1152
a(S'upstairs'
p1153
g9
F0.5709
tp1154
asI105
(lp1155
(S'you'
p1156
g22
F0.9974
tp1157
a(S'know'
p1158
g12
F0.9967
tp1159
asI106
(lp1160
(S'did'
p1161
g12
F0.9986
tp1162
a(S'you'
p1163
g22
F0.9987
tp1164
a(S'eat'
p1165
g12
F0.9984
tp1166
a(S'at'
p1167
g44
F0.9986
tp1168
a(S'their'
p1169
g3
F0.9961
tp1170
a(S'house'
p1171
g9
F0.9946
tp1172
asI107
(lp1173
(g156
g22
F0.9896
tp1174
a(S'had'
p1175
g12
F0.9996
tp1176
a(S'breakfast'
p1177
g9
F0.9778
tp1178
a(S'at'
p1179
g44
F0.9999
tp1180
a(S'their'
p1181
g3
F0.9961
tp1182
a(S'house'
p1183
g9
F0.9946
tp1184
asI108
(lp1185
(g156
g22
F0.9896
tp1186
a(S'had'
p1187
g12
F0.9996
tp1188
a(S'french'
p1189
g6
F0.6487
tp1190
a(S'toast'
p1191
g9
F0.9998
tp1192
asI109
(lp1193
(S'but'
p1194
g53
F0.9962
tp1195
a(S'it'
p1196
g22
F0.9988
tp1197
a(S'was'
p1198
g12
F0.9995
tp1199
a(S'like'
p1200
g245
F0.4525
tp1201
a(S'frozen'
p1202
g6
F0.8961
tp1203
a(S'but'
p1204
g53
F0.9912
tp1205
a(S'it'
p1206
g22
F0.9988
tp1207
a(S'was'
p1208
g12
F0.9977
tp1209
a(S'pretty'
p1210
g245
F0.9957
tp1211
a(S'good'
p1212
g6
F0.9991
tp1213
asI110
(lp1214
(S'www'
p1215
g16
F0.5483
tp1216
a(S'laughing'
p1217
g12
F0.7751
tp1218
asI111
(lp1219
(S'is'
p1220
g12
F0.9983
tp1221
a(S'this'
p1222
g3
F0.9683
tp1223
a(S'stuff'
p1224
g9
F0.9952
tp1225
a(S'sharp'
p1226
g6
F0.9748
tp1227
asI112
(lp1228
(S'its'
p1229
g292
F0.9768
tp1230
a(S'good'
p1231
g6
F0.9992
tp1232
asI113
(lp1233
(S'what'
p1234
g22
F0.9956
tp1235
a(S'is'
p1236
g12
F0.9997
tp1237
a(S'it'
p1238
g22
F0.9986
tp1239
asI114
(lp1240
(S'extra'
p1241
g6
F0.8855
tp1242
a(S'virgin'
p1243
g9
F0.7367
tp1244
a(S'olive'
p1245
g6
F0.94
tp1246
a(S'oil'
p1247
g9
F0.9966
tp1248
a(S'and'
p1249
g53
F0.9982
tp1250
a(S'balsamic'
p1251
g9
F0.8127
tp1252
a(S'vinegar'
p1253
g9
F0.9992
tp1254
asI115
(lp1255
(S'can'
p1256
g12
F0.9701
tp1257
a(g156
g22
F0.9836
tp1258
a(S'see'
p1259
g12
F0.9984
tp1260
asI116
(lp1261
(S'vinegarette'
p1262
g324
F0.2962
tp1263
asI117
(lp1264
(S'can'
p1265
g12
F0.9701
tp1266
a(g156
g22
F0.9836
tp1267
a(S'see'
p1268
g12
F0.9984
tp1269
asI118
(lp1270
(S'its'
p1271
g292
F0.9885
tp1272
a(S'called'
p1273
g12
F0.9797
tp1274
a(S'vinegarette'
p1275
g16
F0.3088
tp1276
asI119
(lp1277
(S'vinegarette'
p1278
g324
F0.2962
tp1279
asI120
(lp1280
(S'vinegarette'
p1281
g324
F0.2962
tp1282
asI121
(lp1283
(S'sis'
p1284
g9
F0.8589
tp1285
a(S'pass'
p1286
g12
F0.9126
tp1287
a(S'the'
p1288
g3
F0.9994
tp1289
a(S'ketchup'
p1290
g9
F0.9933
tp1291
asI122
(lp1292
(S'that'
p1293
g22
F0.4727
tp1294
a(g357
g358
F0.3685
tp1295
a(S'fish'
p1296
g9
F0.9843
tp1297
asI123
(lp1298
(S'that'
p1299
g22
F0.4727
tp1300
a(g357
g358
F0.3685
tp1301
a(S'fish'
p1302
g9
F0.9843
tp1303
asI124
(lp1304
(S'yes'
p1305
g324
F0.9939
tp1306
a(S'that'
p1307
g22
F0.6742
tp1308
a(g357
g358
F0.425
tp1309
a(S'fish'
p1310
g9
F0.9822
tp1311
asI125
(lp1312
(S'that'
p1313
g22
F0.473
tp1314
a(g357
g12
F0.6947
tp1315
a(S'that'
p1316
g3
F0.7754
tp1317
a(S'dad'
p1318
g9
F0.9902
tp1319
a(S'that'
p1320
g44
F0.873
tp1321
a(S'doesn'
p1322
g12
F0.9544
tp1323
a(g436
g9
F0.2144
tp1324
a(S'look'
p1325
g12
F0.9815
tp1326
a(S'the'
p1327
g3
F0.9992
tp1328
a(S'kind'
p1329
g9
F0.981
tp1330
a(S'of'
p1331
g44
F0.9973
tp1332
a(S'fish'
p1333
g9
F0.9829
tp1334
a(S'laughing'
p1335
g12
F0.9442
tp1336
asI126
(lp1337
(S'yeah'
p1338
g324
F0.9976
tp1339
a(S'well'
p1340
g324
F0.848
tp1341
a(S'you'
p1342
g22
F0.9972
tp1343
asI127
(lp1344
(S'that'
p1345
g22
F0.473
tp1346
a(g357
g358
F0.4316
tp1347
a(S'how'
p1348
g245
F0.9817
tp1349
a(S'you'
p1350
g22
F0.9989
tp1351
asI128
(lp1352
(S'would'
p1353
g12
F0.9987
tp1354
a(S'you'
p1355
g22
F0.9962
tp1356
a(S'use'
p1357
g12
F0.997
tp1358
a(g77
g3
F0.9976
tp1359
a(S'fork'
p1360
g9
F0.9952
tp1361
a(S'please'
p1362
g12
F0.9729
tp1363
asI129
(lp1364
(S'carrot'
p1365
g9
F0.9717
tp1366
a(S'sticks'
p1367
g9
F0.6289
tp1368
asI130
(lp1369
(S'would'
p1370
g12
F0.9987
tp1371
a(S'you'
p1372
g22
F0.9962
tp1373
a(S'use'
p1374
g12
F0.997
tp1375
a(g77
g3
F0.9979
tp1376
a(S'fork'
p1377
g9
F0.9976
tp1378
a(S'too'
p1379
g245
F0.924
tp1380
a(S'sis'
p1381
g9
F0.5467
tp1382
asI131
(lp1383
(S'for'
p1384
g44
F0.9969
tp1385
a(S'carrot'
p1386
g9
F0.9737
tp1387
a(S'sticks'
p1388
g9
F0.688
tp1389
asI132
(lp1390
(S'do'
p1391
g12
F0.9985
tp1392
a(S'you'
p1393
g22
F0.9996
tp1394
a(S'want'
p1395
g12
F1.0
tp1396
a(S'me'
p1397
g22
F0.9981
tp1398
a(S'to'
p1399
g44
F0.9785
tp1400
a(S'cut'
p1401
g12
F0.9789
tp1402
a(S'this'
p1403
g22
F0.8172
tp1404
a(S'up'
p1405
g182
F0.9837
tp1406
a(S'so'
p1407
g44
F0.8593
tp1408
a(S'it'
p1409
g22
F0.9967
tp1410
a(S'll'
p1411
g245
F0.7393
tp1412
a(S'cool'
p1413
g6
F0.9804
tp1414
asI133
(lp1415
(S'we'
p1416
g22
F0.9943
tp1417
a(S'don'
p1418
g12
F0.8461
tp1419
a(g436
g358
F0.2421
tp1420
a(S'use'
p1421
g12
F0.5532
tp1422
a(S'forks'
p1423
g9
F0.9313
tp1424
asI134
(lp1425
(S'no'
p1426
g324
F0.7972
tp1427
a(S'for'
p1428
g44
F0.9935
tp1429
a(S'french'
p1430
g16
F0.5166
tp1431
a(S'fries'
p1432
g9
F0.7403
tp1433
a(S'and'
p1434
g53
F0.9984
tp1435
a(S'fish'
p1436
g9
F0.9849
tp1437
asI135
(lp1438
(S'no'
p1439
g3
F0.4436
tp1440
a(S'whining'
p1441
g12
F0.9613
tp1442
asI136
(lp1443
(S'oh'
p1444
g324
F0.998
tp1445
a(S'alright'
p1446
g324
F0.9964
tp1447
asI137
(lp1448
(g156
g22
F0.9643
tp1449
a(S'willn'
p1450
g12
F0.7072
tp1451
a(g436
g9
F0.3506
tp1452
a(S'touch'
p1453
g12
F0.8486
tp1454
a(S'it'
p1455
g22
F0.9852
tp1456
asI138
(lp1457
(S'xxx'
p1458
g202
F0.7669
tp1459
a(S'touchin'
p1460
g12
F0.6209
tp1461
a(S'g'
p1462
g12
F0.7093
tp1463
a(S'it'
p1464
g22
F0.9874
tp1465
a(S'with'
p1466
g44
F0.9982
tp1467
a(S'your'
p1468
g3
F0.997
tp1469
a(S'fingers'
p1470
g9
F0.9955
tp1471
asI139
(lp1472
(g156
g22
F0.9914
tp1473
a(S'was'
p1474
g12
F0.9998
tp1475
a(S'movin'
p1476
g12
F0.4383
tp1477
a(g1462
g12
F0.6057
tp1478
a(S'it'
p1479
g22
F0.9898
tp1480
asI140
(lp1481
(g156
g22
F0.9811
tp1482
a(S'just'
p1483
g245
F0.9991
tp1484
a(S'kept'
p1485
g12
F0.9993
tp1486
a(S'makin'
p1487
g12
F0.7025
tp1488
a(g1462
g12
F0.5662
tp1489
a(S'my'
p1490
g3
F0.8199
tp1491
a(S'xxx'
p1492
g9
F0.5436
tp1493
asI141
(lp1494
(S'so'
p1495
g44
F0.728
tp1496
a(S'chi'
p1497
g358
F0.5467
tp1498
asI142
(lp1499
(S'how'
p1500
g245
F0.9627
tp1501
a(S'was'
p1502
g12
F0.981
tp1503
a(S'school'
p1504
g9
F0.9916
tp1505
a(S'today'
p1506
g9
F0.9974
tp1507
asI143
(lp1508
(S'good'
p1509
g6
F0.9644
tp1510
asI144
(lp1511
(S'yeah'
p1512
g324
F0.9988
tp1513
asI145
(lp1514
(S'it'
p1515
g22
F0.9956
tp1516
a(S'was'
p1517
g12
F0.9992
tp1518
a(S'danielle'
p1519
g16
F0.9938
tp1520
a(g357
g358
F0.4131
tp1521
a(S'last'
p1522
g6
F0.9933
tp1523
a(S'day'
p1524
g9
F0.9988
tp1525
a(S'huh'
p1526
g324
F0.9389
tp1527
asI146
(lp1528
(S'mhm'
p1529
g324
F0.9747
tp1530
asI147
(lp1531
(S'we'
p1532
g22
F0.9971
tp1533
a(S'gave'
p1534
g12
F0.9999
tp1535
a(S'her'
p1536
g22
F0.6733
tp1537
a(g77
g3
F0.9175
tp1538
a(S'going'
p1539
g12
F0.8012
tp1540
a(S'away'
p1541
g245
F0.9808
tp1542
a(S'present'
p1543
g6
F0.891
tp1544
asI148
(lp1545
(S'yeah'
p1546
g324
F0.9988
tp1547
asI149
(lp1548
(S'what'
p1549
g22
F0.9965
tp1550
a(S'did'
p1551
g12
F0.9994
tp1552
a(S'you'
p1553
g22
F0.999
tp1554
a(S'give'
p1555
g12
F0.9997
tp1556
a(S'her'
p1557
g22
F0.6667
tp1558
asI150
(lp1559
(g77
g3
F0.9947
tp1560
a(S'dog'
p1561
g9
F0.9991
tp1562
asI151
(lp1563
(S'what'
p1564
g22
F0.949
tp1565
asI152
(lp1566
(g77
g3
F0.9947
tp1567
a(S'dog'
p1568
g9
F0.9991
tp1569
asI153
(lp1570
(S'mhm'
p1571
g324
F0.9747
tp1572
asI154
(lp1573
(S'you'
p1574
g22
F0.9981
tp1575
a(S'mean'
p1576
g12
F0.994
tp1577
a(g77
g3
F0.9978
tp1578
a(S'real'
p1579
g6
F0.9828
tp1580
a(S'dog'
p1581
g9
F0.9986
tp1582
asI155
(lp1583
(S'it'
p1584
g22
F0.9944
tp1585
a(S'was'
p1586
g12
F0.9995
tp1587
a(S'like'
p1588
g245
F0.3885
tp1589
asI156
(lp1590
(S'mhm'
p1591
g324
F0.9747
tp1592
asI157
(lp1593
(S'it'
p1594
g22
F0.9944
tp1595
a(S'was'
p1596
g12
F0.9986
tp1597
a(S'white'
p1598
g6
F0.8974
tp1599
asI158
(lp1600
(S'and'
p1601
g53
F0.9994
tp1602
a(S'it'
p1603
g22
F0.9985
tp1604
a(S'was'
p1605
g12
F0.9989
tp1606
a(S'called'
p1607
g12
F0.9861
tp1608
a(S'scandral'
p1609
g16
F0.3329
tp1610
asI159
(lp1611
(S'and'
p1612
g53
F0.9994
tp1613
a(S'it'
p1614
g22
F0.9985
tp1615
a(S'was'
p1616
g12
F0.999
tp1617
a(S'made'
p1618
g12
F0.9918
tp1619
a(S'out'
p1620
g44
F0.6583
tp1621
a(S'of'
p1622
g44
F0.9947
tp1623
a(g77
g3
F0.9632
tp1624
a(g77
g3
F0.9261
tp1625
a(S'hanger'
p1626
g9
F0.937
tp1627
a(S'clothes'
p1628
g9
F0.9666
tp1629
a(S'hanger'
p1630
g9
F0.9021
tp1631
asI160
(lp1632
(S'oh'
p1633
g324
F0.9988
tp1634
asI161
(lp1635
(S'so'
p1636
g44
F0.8513
tp1637
a(S'it'
p1638
g22
F0.9989
tp1639
a(S'was'
p1640
g12
F0.9981
tp1641
a(S'hand'
p1642
g9
F0.9594
tp1643
a(S'made'
p1644
g12
F0.9835
tp1645
asI162
(lp1646
(S'then'
p1647
g245
F0.9396
tp1648
a(S'th'
p1649
g358
F0.3778
tp1650
a(S'there'
p1651
g245
F0.5041
tp1652
a(S'was'
p1653
g12
F0.9991
tp1654
a(S'it'
p1655
g22
F0.9982
tp1656
a(S'was'
p1657
g12
F0.999
tp1658
a(S'bendeded'
p1659
g12
F0.2424
tp1660
a(S'bent'
p1661
g12
F0.5605
tp1662
a(S'and'
p1663
g53
F0.9988
tp1664
a(S'it'
p1665
g22
F0.9986
tp1666
a(S'was'
p1667
g12
F0.9966
tp1668
a(S'hand'
p1669
g9
F0.9457
tp1670
a(S'made'
p1671
g12
F0.9733
tp1672
asI163
(lp1673
(S'it'
p1674
g22
F0.9944
tp1675
a(S'was'
p1676
g12
F0.9984
tp1677
a(S'curly'
p1678
g6
F0.9728
tp1679
asI164
(lp1680
(S'you'
p1681
g22
F0.9968
tp1682
a(S'could'
p1683
g12
F0.9995
tp1684
a(S'hardly'
p1685
g245
F0.9984
tp1686
a(S'see'
p1687
g12
F0.9973
tp1688
a(S'its'
p1689
g3
F0.7552
tp1690
a(S'eyes'
p1691
g9
F0.9955
tp1692
a(S'talking'
p1693
g12
F0.9365
tp1694
a(S'in'
p1695
g44
F0.9504
tp1696
a(g77
g3
F0.9953
tp1697
a(S'high'
p1698
g6
F0.5179
tp1699
a(S'sad'
p1700
g6
F0.978
tp1701
a(S'voice'
p1702
g9
F0.997
tp1703
asI165
(lp1704
(S'it'
p1705
g22
F0.9961
tp1706
a(S'had'
p1707
g12
F0.9998
tp1708
a(g77
g3
F0.9969
tp1709
a(S'lot'
p1710
g9
F0.908
tp1711
a(g465
g44
F0.9105
tp1712
a(g467
g358
F0.4769
tp1713
a(S'curly'
p1714
g6
F0.9923
tp1715
a(S'yarn'
p1716
g9
F0.9977
tp1717
a(S'for'
p1718
g44
F0.9993
tp1719
a(S'fur'
p1720
g9
F0.912
tp1721
asI166
(lp1722
(S'mm'
p1723
g324
F0.627
tp1724
asI167
(lp1725
(S'0do'
p1726
g44
F0.4517
tp1727
a(S'you'
p1728
g22
F0.9995
tp1729
a(S'know'
p1730
g12
F0.9983
tp1731
a(S'who'
p1732
g22
F0.9983
tp1733
a(S'made'
p1734
g12
F0.9999
tp1735
a(S'it'
p1736
g22
F0.9896
tp1737
asI168
(lp1738
(S'uhuh'
p1739
g324
F0.9919
tp1740
asI169
(lp1741
(S'was'
p1742
g12
F0.9989
tp1743
a(S'it'
p1744
g22
F0.9039
tp1745
a(S'one'
p1746
g27
F0.9795
tp1747
a(S'of'
p1748
g44
F0.999
tp1749
a(S'your'
p1750
g3
F0.996
tp1751
a(S'teachers'
p1752
g9
F0.9955
tp1753
asI170
(lp1754
(S'no'
p1755
g324
F0.9253
tp1756
asI171
(lp1757
(S'oh'
p1758
g324
F0.9988
tp1759
asI172
(lp1760
(S'the'
p1761
g3
F0.9985
tp1762
a(S'teacher'
p1763
g9
F0.9453
tp1764
a(g357
g358
F0.7464
tp1765
a(S'got'
p1766
g12
F0.9971
tp1767
a(S'it'
p1768
g22
F0.9858
tp1769
asI173
(lp1770
(S'they'
p1771
g22
F0.9665
tp1772
a(S'they'
p1773
g22
F0.9873
tp1774
a(S'got'
p1775
g12
F1.0
tp1776
a(S'it'
p1777
g22
F0.9923
tp1778
a(S'at'
p1779
g44
F0.9965
tp1780
a(g77
g3
F0.998
tp1781
a(S'craft'
p1782
g9
F0.9955
tp1783
a(S'fair'
p1784
g9
F0.6908
tp1785
a(S'or'
p1786
g53
F0.9909
tp1787
a(S'something'
p1788
g9
F0.9916
tp1789
asI174
(lp1790
(S'maybe'
p1791
g245
F0.9308
tp1792
asI175
(lp1793
(S'0do'
p1794
g27
F0.2398
tp1795
a(S'0you'
p1796
g22
F0.5496
tp1797
a(S'want'
p1798
g12
F0.9995
tp1799
a(S'some'
p1800
g3
F0.985
tp1801
a(S'lemon'
p1802
g9
F0.8165
tp1803
a(S'in'
p1804
g44
F0.9985
tp1805
a(S'your'
p1806
g3
F0.9396
tp1807
a(S'xxx'
p1808
g9
F0.4104
tp1809
asI176
(lp1810
(S'maybe'
p1811
g245
F0.9389
tp1812
a(S'they'
p1813
g22
F0.9951
tp1814
a(S'won'
p1815
g12
F0.9992
tp1816
a(S'it'
p1817
g22
F0.9756
tp1818
asI177
(lp1819
(S'won'
p1820
g12
F0.9744
tp1821
a(S'it'
p1822
g22
F0.9797
tp1823
asI178
(lp1824
(S'mm'
p1825
g324
F0.627
tp1826
asI179
(lp1827
(S'that'
p1828
g22
F0.4727
tp1829
a(g357
g12
F0.5502
tp1830
a(S'possible'
p1831
g6
F0.9743
tp1832
asI180
(lp1833
(S'xxx'
p1834
g202
F0.8437
tp1835
asI181
(lp1836
(S'like'
p1837
g44
F0.8448
tp1838
a(S'you'
p1839
g22
F0.9998
tp1840
a(S'won'
p1841
g12
F0.999
tp1842
a(S'your'
p1843
g3
F0.9597
tp1844
a(S'ms'
p1845
g9
F0.4092
tp1846
a(S'piggy'
p1847
g9
F0.7762
tp1848
asI182
(lp1849
(S'xxx'
p1850
g202
F0.8437
tp1851
asI183
(lp1852
(S'mhm'
p1853
g324
F0.9747
tp1854
asI184
(lp1855
(S'she'
p1856
g22
F0.9941
tp1857
a(S'picked'
p1858
g12
F0.9999
tp1859
a(S'you'
p1860
g22
F0.9992
tp1861
a(S'out'
p1862
g44
F0.7771
tp1863
a(S'of'
p1864
g44
F0.9955
tp1865
a(S'all'
p1866
g3
F0.5386
tp1867
a(S'those'
p1868
g3
F0.9688
tp1869
a(S'people'
p1870
g9
F0.9986
tp1871
a(S'because'
p1872
g44
F0.9995
tp1873
a(S'you'
p1874
g22
F0.9978
tp1875
a(S're'
p1876
g12
F0.4839
tp1877
a(S'so'
p1878
g245
F0.9462
tp1879
a(S'cute'
p1880
g6
F0.997
tp1881
asI185
(lp1882
(S'so'
p1883
g44
F0.5209
tp1884
a(S'was'
p1885
g12
F0.9885
tp1886
a(S'she'
p1887
g22
F0.9959
tp1888
asI186
(lp1889
(S'be'
p1890
g12
F0.9727
tp1891
a(S'cause'
p1892
g44
F0.7105
tp1893
a(g156
g22
F0.9963
tp1894
a(S'was'
p1895
g12
F0.9998
tp1896
a(S'smiling'
p1897
g12
F0.9997
tp1898
a(S'the'
p1899
g3
F0.9997
tp1900
a(S'best'
p1901
g6
F0.9871
tp1902
asI187
(lp1903
(S'she'
p1904
g22
F0.9969
tp1905
a(S'asked'
p1906
g12
F0.9996
tp1907
a(S'all'
p1908
S'X'
p1909
F0.5491
tp1910
a(S'the'
p1911
g3
F0.9998
tp1912
a(S'kids'
p1913
g9
F0.9909
tp1914
a(S'to'
p1915
g44
F0.9977
tp1916
a(S'smile'
p1917
g12
F0.9058
tp1918
a(S'huh'
p1919
g324
F0.9271
tp1920
asI188
(lp1921
(S'oh'
p1922
g324
F0.9979
tp1923
a(S'what'
p1924
g22
F0.8847
tp1925
a(g77
g3
F0.9415
tp1926
a(S'pretty'
p1927
g6
F0.894
tp1928
a(S'smile'
p1929
g9
F0.8183
tp1930
asI189
(lp1931
(S'so'
p1932
g44
F0.5176
tp1933
a(S'was'
p1934
g12
F0.9803
tp1935
a(S'danielle'
p1936
g16
F0.9479
tp1937
a(S'sad'
p1938
g6
F0.9756
tp1939
a(S'all'
p1940
g3
F0.9893
tp1941
a(S'day'
p1942
g9
F0.9972
tp1943
a(S'or'
p1944
g53
F0.9886
tp1945
a(S'did'
p1946
g12
F0.9966
tp1947
a(S'she'
p1948
g22
F0.9971
tp1949
a(S'get'
p1950
g12
F0.9998
tp1951
a(S'over'
p1952
g44
F0.8663
tp1953
a(S'it'
p1954
g22
F0.9984
tp1955
asI190
(lp1956
(S'she'
p1957
g22
F0.9971
tp1958
a(S'got'
p1959
g12
F0.9995
tp1960
a(S'over'
p1961
g182
F0.4806
tp1962
a(S'it'
p1963
g22
F0.9977
tp1964
asI191
(lp1965
(S'that'
p1966
g22
F0.4727
tp1967
a(g357
g12
F0.4689
tp1968
a(S'good'
p1969
g6
F0.991
tp1970
asI192
(lp1971
(g156
g22
F0.953
tp1972
a(g764
g12
F0.9629
tp1973
a(S'gonna'
p1974
g12
F0.993
tp1975
a(S'come'
p1976
g12
F0.9992
tp1977
a(S'have'
p1978
g12
F0.9895
tp1979
a(S'lunch'
p1980
g9
F0.968
tp1981
a(S'with'
p1982
g44
F0.9999
tp1983
a(S'you'
p1984
g22
F0.9777
tp1985
a(S'next'
p1986
g6
F0.9534
tp1987
a(S'week'
p1988
g9
F0.9929
tp1989
asI193
(lp1990
(S'next'
p1991
g6
F0.7072
tp1992
a(S'monday'
p1993
g9
F0.5422
tp1994
asI194
(lp1995
(S'next'
p1996
g6
F0.9295
tp1997
a(S'week'
p1998
g9
F0.9931
tp1999
asI195
(lp2000
(S'oh'
p2001
g324
F0.9878
tp2002
a(S'you'
p2003
g22
F0.9937
tp2004
a(S'can'
p2005
g12
F0.9999
tp2006
a(S'do'
p2007
g12
F0.9999
tp2008
a(S'that'
p2009
g44
F0.5253
tp2010
a(S'every'
p2011
g3
F0.9864
tp2012
a(S'day'
p2013
g9
F0.9989
tp2014
asI196
(lp2015
(g156
g22
F0.9893
tp2016
a(S'thought'
p2017
g12
F0.9998
tp2018
a(S'that'
p2019
g22
F0.8852
tp2020
a(S'was'
p2021
g12
F0.998
tp2022
a(S'just'
p2023
g245
F0.9998
tp2024
a(g77
g3
F0.987
tp2025
a(S'special'
p2026
g6
F0.9947
tp2027
a(S'thing'
p2028
g9
F0.9985
tp2029
asI197
(lp2030
(S'yeah'
p2031
g324
F0.9956
tp2032
a(S'on'
p2033
g44
F0.9653
tp2034
a(S'wednesday'
p2035
g16
F0.8023
tp2036
asI198
(lp2037
(S'well'
p2038
g324
F0.7553
tp2039
a(S'it'
p2040
g22
F0.9978
tp2041
a(g357
g12
F0.5203
tp2042
a(S'special'
p2043
g6
F0.9365
tp2044
a(S'for'
p2045
g44
F0.9986
tp2046
a(S'two'
p2047
g27
F0.9641
tp2048
a(S'weeks'
p2049
g9
F0.9809
tp2050
asI199
(lp2051
(S'oh'
p2052
g324
F0.9988
tp2053
asI200
(lp2054
(g156
g22
F0.9901
tp2055
a(S'have'
p2056
g12
F0.999
tp2057
asI201
(lp2058
(S'parent'
p2059
g9
F0.9678
tp2060
a(S'lunch'
p2061
g9
F0.881
tp2062
a(S'week'
p2063
g9
F0.9967
tp2064
asI202
(lp2065
(g156
g22
F0.9896
tp2066
a(S'have'
p2067
g12
F0.9992
tp2068
a(S'wednesday'
p2069
g9
F0.6335
tp2070
a(S'off'
p2071
g44
F0.7832
tp2072
a(S'because'
p2073
g44
F0.9704
tp2074
a(g156
g22
F0.9976
tp2075
a(S'have'
p2076
g12
F0.9998
tp2077
a(S'to'
p2078
g44
F0.995
tp2079
a(S'work'
p2080
g12
F0.9437
tp2081
a(S'the'
p2082
g3
F0.9991
tp2083
a(S'next'
p2084
g6
F0.9284
tp2085
a(S'saturday'
p2086
g16
F0.5787
tp2087
asI203
(lp2088
(S'was'
p2089
g12
F0.9964
tp2090
a(S'that'
p2091
g3
F0.9603
tp2092
a(S'fun'
p2093
g9
F0.8676
tp2094
a(S'when'
p2095
g245
F0.9935
tp2096
a(S'mom'
p2097
g9
F0.8361
tp2098
a(S'came'
p2099
g12
F0.9964
tp2100
a(S'to'
p2101
g44
F0.98
tp2102
a(S'lunch'
p2103
g9
F0.6618
tp2104
asI204
(lp2105
(S'www'
p2106
g16
F0.5889
tp2107
a(S'giggles'
p2108
g9
F0.5855
tp2109
asI205
(lp2110
(S'what'
p2111
g22
F0.9965
tp2112
a(S'did'
p2113
g12
F0.9994
tp2114
a(S'you'
p2115
g22
F0.9719
tp2116
a(S'guys'
p2117
g9
F0.948
tp2118
a(S'do'
p2119
g12
F0.999
tp2120
asI206
(lp2121
(S'mm'
p2122
g22
F0.2464
tp2123
a(S'ate'
p2124
g12
F0.9901
tp2125
a(S'laughs'
p2126
g12
F0.9372
tp2127
asI207
(lp2128
(S'did'
p2129
g12
F0.9986
tp2130
a(S'you'
p2131
g22
F0.9993
tp2132
a(S'have'
p2133
g12
F0.9977
tp2134
a(S'fun'
p2135
g9
F0.7902
tp2136
a(S'and'
p2137
g53
F0.9973
tp2138
a(S'talk'
p2139
g12
F0.9184
tp2140
asI208
(lp2141
(S'mhm'
p2142
g324
F0.9747
tp2143
asI209
(lp2144
(S'xxx'
p2145
g202
F0.6793
tp2146
a(S'see'
p2147
g12
F0.9943
tp2148
a(S'all'
p2149
g3
F0.6871
tp2150
a(S'the'
p2151
g3
F0.9991
tp2152
a(S'kids'
p2153
g9
F0.9866
tp2154
a(S'before'
p2155
g44
F0.993
tp2156
a(S'they'
p2157
g22
F0.9924
tp2158
a(S'lined'
p2159
g12
F0.9999
tp2160
a(S'up'
p2161
g182
F0.9521
tp2162
a(S'for'
p2163
g44
F0.9987
tp2164
a(S'lunch'
p2165
g9
F0.8972
tp2166
asI210
(lp2167
(S'they'
p2168
g22
F0.9926
tp2169
a(S'have'
p2170
g12
F0.9997
tp2171
a(S'to'
p2172
g44
F0.9967
tp2173
a(S'get'
p2174
g12
F0.9997
tp2175
a(S'quiet'
p2176
g6
F0.9589
tp2177
a(S'before'
p2178
g44
F0.9931
tp2179
a(S'they'
p2180
g22
F0.7691
tp2181
a(S'line'
p2182
g12
F0.8568
tp2183
a(S'up'
p2184
g182
F0.8535
tp2185
a(S'right'
p2186
g245
F0.4511
tp2187
asI211
(lp2188
(S'and'
p2189
g53
F0.9981
tp2190
a(S'th'
p2191
g358
F0.2893
tp2192
a(S'they'
p2193
g22
F0.9857
tp2194
a(S'go'
p2195
g12
F0.9996
tp2196
a(S'down'
p2197
g245
F0.8737
tp2198
a(S'to'
p2199
g44
F0.9993
tp2200
a(S'the'
p2201
g3
F0.9991
tp2202
a(S'lunch'
p2203
g9
F0.932
tp2204
a(S'room'
p2205
g9
F0.9964
tp2206
a(S'and'
p2207
g53
F0.9909
tp2208
a(S'the'
p2209
g3
F0.9987
tp2210
a(S'table'
p2211
g9
F0.9825
tp2212
a(g357
g358
F0.5277
tp2213
a(S'all'
p2214
g3
F0.7496
tp2215
a(S'set'
p2216
g9
F0.7338
tp2217
asI212
(lp2218
(S'sometimes'
p2219
g245
F0.9228
tp2220
a(S'we'
p2221
g22
F0.9985
tp2222
a(S'have'
p2223
g12
F0.9997
tp2224
a(S'to'
p2225
g44
F0.9899
tp2226
a(S'xxx'
p2227
g12
F0.9144
tp2228
a(S'our'
p2229
g3
F0.9894
tp2230
a(S'class'
p2231
g9
F0.9853
tp2232
a(S'rooms'
p2233
g9
F0.989
tp2234
asI213
(lp2235
(S'because'
p2236
g44
F0.9991
tp2237
a(S'the'
p2238
g3
F0.9991
tp2239
a(S'kids'
p2240
g9
F0.9489
tp2241
a(S'aren'
p2242
g44
F0.3111
tp2243
a(g436
g12
F0.3217
tp2244
a(S'being'
p2245
g12
F0.9917
tp2246
a(S'quiet'
p2247
g6
F0.932
tp2248
asI214
(lp2249
(S'right'
p2250
g324
F0.861
tp2251
asI215
(lp2252
(S'or'
p2253
g53
F0.9951
tp2254
a(S'some'
p2255
g3
F0.6568
tp2256
a(S'of'
p2257
g44
F0.9903
tp2258
a(S'them'
p2259
g22
F0.9079
tp2260
a(S'xxx'
p2261
g202
F0.7269
tp2262
asI216
(lp2263
(S'mhm'
p2264
g324
F0.9747
tp2265
asI217
(lp2266
(S'it'
p2267
g22
F0.9956
tp2268
a(S'was'
p2269
g12
F0.9989
tp2270
a(S'fun'
p2271
g9
F0.4627
tp2272
a(S'be'
p2273
g12
F0.9941
tp2274
a(S'cause'
p2275
g44
F0.914
tp2276
a(S'it'
p2277
g22
F0.9986
tp2278
a(S'was'
p2279
g12
F0.9991
tp2280
a(S'kim'
p2281
g16
F0.9863
tp2282
a(g357
g358
F0.3459
tp2283
a(S'birthday'
p2284
g9
F0.9634
tp2285
a(S'that'
p2286
g44
F0.713
tp2287
a(S'day'
p2288
g9
F0.9908
tp2289
asI218
(lp2290
(S'mhm'
p2291
g324
F0.9747
tp2292
asI219
(lp2293
(S'and'
p2294
g53
F0.9991
tp2295
a(S'they'
p2296
g22
F0.9951
tp2297
a(S'sang'
p2298
g12
F0.9994
tp2299
a(S'happy'
p2300
g6
F0.9945
tp2301
a(S'birthday'
p2302
g9
F0.9972
tp2303
a(S'to'
p2304
g44
F0.9996
tp2305
a(S'her'
p2306
g22
F0.8307
tp2307
a(S'after'
p2308
g44
F0.9234
tp2309
a(S'lunch'
p2310
g9
F0.9578
tp2311
asI220
(lp2312
(S'yep'
p2313
g324
F0.9977
tp2314
asI221
(lp2315
(S'this'
p2316
g3
F0.9674
tp2317
a(S'food'
p2318
g9
F0.9969
tp2319
a(S'is'
p2320
g12
F0.9968
tp2321
a(S'good'
p2322
g6
F0.998
tp2323
asI222
(lp2324
(S'wasn'
p2325
g12
F0.3512
tp2326
a(g436
g358
F0.3449
tp2327
a(g77
g3
F0.8606
tp2328
a(S'wasn'
p2329
g9
F0.4149
tp2330
a(g436
g9
F0.5463
tp2331
a(S'after'
p2332
g44
F0.994
tp2333
a(S'it'
p2334
g22
F0.9998
tp2335
a(S'was'
p2336
g12
F0.9994
tp2337
a(S'during'
p2338
g44
F0.8609
tp2339
a(S'um'
p2340
g324
F0.4135
tp2341
a(S'it'
p2342
g22
F0.9973
tp2343
a(S'was'
p2344
g12
F0.9994
tp2345
a(S'during'
p2346
g44
F0.8609
tp2347
a(S'um'
p2348
g324
F0.6239
tp2349
a(S'um'
p2350
g324
F0.8427
tp2351
a(S'dessert'
p2352
g9
F0.7646
tp2353
a(S'time'
p2354
g9
F0.9955
tp2355
asI223
(lp2356
(S'oh'
p2357
g324
F0.9988
tp2358
asI224
(lp2359
(S'how'
p2360
g245
F0.9856
tp2361
a(S'old'
p2362
g6
F0.9939
tp2363
a(S'is'
p2364
g12
F0.9549
tp2365
a(S'kim'
p2366
g16
F0.9752
tp2367
asI225
(lp2368
(S'did'
p2369
g12
F0.99
tp2370
a(S'she'
p2371
g22
F0.9989
tp2372
a(S'say'
p2373
g12
F0.9908
tp2374
asI226
(lp2375
(S'she'
p2376
g22
F0.9971
tp2377
a(S'said'
p2378
g12
F0.9991
tp2379
a(S'she'
p2380
g22
F0.9991
tp2381
a(S'was'
p2382
g12
F0.9982
tp2383
a(S'three'
p2384
g27
F0.5188
tp2385
a(S'laughing'
p2386
g12
F0.8058
tp2387
asI227
(lp2388
(S'three'
p2389
g27
F0.8066
tp2390
a(S'laughs'
p2391
g12
F0.7036
tp2392
asI228
(lp2393
(S'yeah'
p2394
g324
F0.9945
tp2395
a(S'laughs'
p2396
g12
F0.9273
tp2397
asI229
(lp2398
(S'she'
p2399
g22
F0.997
tp2400
a(S'has'
p2401
g12
F0.9988
tp2402
a(S'got'
p2403
g12
F0.9958
tp2404
a(S'to'
p2405
g44
F0.9219
tp2406
a(S'be'
p2407
g12
F0.9996
tp2408
a(S'older'
p2409
g6
F0.9795
tp2410
a(S'than'
p2411
g44
F0.9955
tp2412
a(S'three'
p2413
g27
F0.7923
tp2414
asI230
(lp2415
(g156
g22
F0.989
tp2416
a(S'think'
p2417
g12
F0.9999
tp2418
a(S'she'
p2419
g22
F0.9971
tp2420
a(g357
g12
F0.6157
tp2421
a(S'pulling'
p2422
g12
F0.9995
tp2423
a(S'you'
p2424
g22
F0.9589
tp2425
a(S'leg'
p2426
g9
F0.8938
tp2427
asI231
(lp2428
(S'nuhhuh'
p2429
g324
F0.533
tp2430
asI232
(lp2431
(S'she'
p2432
g22
F0.9912
tp2433
a(g357
g12
F0.475
tp2434
a(S'three'
p2435
g27
F0.7735
tp2436
asI233
(lp2437
(g156
g22
F0.953
tp2438
a(g764
g12
F0.9864
tp2439
a(S'telling'
p2440
g12
F0.999
tp2441
a(S'the'
p2442
g3
F0.9996
tp2443
a(S'truth'
p2444
g9
F0.9256
tp2445
asI234
(lp2446
(S'that'
p2447
g22
F0.7898
tp2448
a(S'mean'
p2449
g12
F0.8764
tp2450
a(S'would'
p2451
g12
F0.9933
tp2452
a(S'mean'
p2453
g12
F0.9983
tp2454
a(S'she'
p2455
g22
F0.9967
tp2456
a(g357
g358
F0.461
tp2457
a(S'littler'
p2458
g6
F0.5435
tp2459
a(S'then'
p2460
g245
F0.9482
tp2461
a(S'you'
p2462
g22
F0.9979
tp2463
asI235
(lp2464
(S'oh'
p2465
g324
F0.9914
tp2466
a(S'sis'
p2467
g9
F0.9032
tp2468
a(g156
g22
F0.9324
tp2469
a(S'just'
p2470
g245
F0.9995
tp2471
a(S'got'
p2472
g12
F0.9987
tp2473
a(S'squirted'
p2474
g12
F0.9934
tp2475
a(S'with'
p2476
g44
F0.9973
tp2477
a(S'lemon'
p2478
g9
F0.5129
tp2479
asI236
(lp2480
(S'sorry'
p2481
g6
F0.6377
tp2482
a(S'laughs'
p2483
g12
F0.4951
tp2484
asI237
(lp2485
(S'but'
p2486
g53
F0.9936
tp2487
a(S'she'
p2488
g22
F0.9995
tp2489
a(S'is'
p2490
g12
F0.9995
tp2491
a(S'three'
p2492
g27
F0.7019
tp2493
asI238
(lp2494
(S'maybe'
p2495
g245
F0.9378
tp2496
a(S'she'
p2497
g22
F0.9965
tp2498
a(g357
g12
F0.6325
tp2499
a(g77
g3
F0.9921
tp2500
a(S'three'
p2501
g27
F0.9879
tp2502
a(S'with'
p2503
g44
F0.9992
tp2504
a(g77
g3
F0.9974
tp2505
a(S'zero'
p2506
g27
F0.5196
tp2507
a(S'after'
p2508
g44
F0.996
tp2509
a(S'the'
p2510
g3
F0.9914
tp2511
a(S'three'
p2512
g27
F0.7798
tp2513
asI239
(lp2514
(S'www'
p2515
g16
F0.4824
tp2516
a(S'sneezes'
p2517
g12
F0.3948
tp2518
asI240
(lp2519
(S'hm'
p2520
g324
F0.995
tp2521
asI241
(lp2522
(S'that'
p2523
g22
F0.7305
tp2524
a(S'would'
p2525
g12
F0.999
tp2526
a(S'be'
p2527
g12
F0.9997
tp2528
a(S'thirty'
p2529
g6
F0.4448
tp2530
asI242
(lp2531
(S'she'
p2532
g22
F0.9912
tp2533
a(g357
g12
F0.454
tp2534
a(S'thirty'
p2535
g6
F0.3563
tp2536
asI243
(lp2537
(S'she'
p2538
g22
F0.9917
tp2539
a(g357
g358
F0.4691
tp2540
a(S'not'
p2541
g245
F0.9809
tp2542
a(S'that'
p2543
g3
F0.5653
tp2544
a(S'old'
p2545
g6
F0.9296
tp2546
a(S'is'
p2547
g12
F0.9465
tp2548
a(S'she'
p2549
g22
F0.9974
tp2550
asI244
(lp2551
(g156
g22
F0.9893
tp2552
a(S'thought'
p2553
g12
F0.9993
tp2554
a(S'she'
p2555
g22
F0.9986
tp2556
a(S'was'
p2557
g12
F0.9988
tp2558
a(S'like'
p2559
g245
F0.3724
tp2560
a(S'twenty'
p2561
g27
F0.5543
tp2562
asI245
(lp2563
(S'maybe'
p2564
g245
F0.9378
tp2565
a(S'she'
p2566
g22
F0.9986
tp2567
a(S'wishes'
p2568
g12
F0.9996
tp2569
a(S'she'
p2570
g22
F0.9989
tp2571
a(S'was'
p2572
g12
F0.9992
tp2573
a(S'three'
p2574
g27
F0.7653
tp2575
asI246
(lp2576
(S'twenty'
p2577
g27
F0.646
tp2578
asI247
(lp2579
(S'0'
p2580
g27
F0.9638
tp2581
asI248
(lp2582
(S'maybe'
p2583
g245
F0.9389
tp2584
a(S'they'
p2585
g22
F0.9938
tp2586
a(S'just'
p2587
g245
F0.9998
tp2588
a(S'put'
p2589
g12
F0.9704
tp2590
a(S'three'
p2591
g27
F0.8644
tp2592
a(S'candles'
p2593
g9
F0.9823
tp2594
a(S'be'
p2595
g12
F0.9945
tp2596
a(S'cause'
p2597
g44
F0.9535
tp2598
a(S'they'
p2599
g22
F0.9908
tp2600
a(S'didn'
p2601
g12
F0.9875
tp2602
a(g436
g12
F0.6363
tp2603
a(S'have'
p2604
g12
F0.9932
tp2605
a(S'enough'
p2606
g9
F0.4857
tp2607
asI249
(lp2608
(S'they'
p2609
g22
F0.9814
tp2610
a(S'put'
p2611
g12
F0.9891
tp2612
a(S'one'
p2613
g27
F0.7593
tp2614
asI250
(lp2615
(S'oh'
p2616
g324
F0.9988
tp2617
asI251
(lp2618
(S'so'
p2619
g44
F0.9008
tp2620
a(S'she'
p2621
g22
F0.9971
tp2622
a(g357
g12
F0.4902
tp2623
a(S'one'
p2624
g27
F0.9632
tp2625
a(S'years'
p2626
g9
F0.9313
tp2627
a(S'old'
p2628
g6
F0.9817
tp2629
asI252
(lp2630
(S'she'
p2631
g22
F0.997
tp2632
a(S'has'
p2633
g12
F0.9996
tp2634
a(S'to'
p2635
g44
F0.9895
tp2636
a(S'take'
p2637
g12
F0.9997
tp2638
a(g77
g3
F0.9974
tp2639
a(S'nap'
p2640
g9
F0.9899
tp2641
a(S'all'
p2642
g1909
F0.6332
tp2643
a(S'the'
p2644
g3
F0.9998
tp2645
a(S'time'
p2646
g9
F0.9962
tp2647
a(S'and'
p2648
g53
F0.9974
tp2649
a(S'be'
p2650
g12
F0.9983
tp2651
a(g77
g3
F0.9939
tp2652
a(S'baby'
p2653
g9
F0.9978
tp2654
asI253
(lp2655
(S'she'
p2656
g22
F0.9972
tp2657
a(S'says'
p2658
g12
F0.9997
tp2659
a(S'she'
p2660
g22
F0.9992
tp2661
a(S'wants'
p2662
g12
F0.9996
tp2663
a(S'to'
p2664
g44
F0.9374
tp2665
asI254
(lp2666
(S'she'
p2667
g22
F0.9941
tp2668
a(S'll'
p2669
g245
F0.4453
tp2670
a(S'only'
p2671
g245
F0.9038
tp2672
a(S'take'
p2673
g12
F0.9994
tp2674
a(g77
g3
F0.9974
tp2675
a(S'nap'
p2676
g9
F0.9972
tp2677
a(S'at'
p2678
g44
F0.9991
tp2679
a(S'nap'
p2680
g9
F0.8716
tp2681
a(S'time'
p2682
g9
F0.9949
tp2683
asI255
(lp2684
(S'she'
p2685
g22
F0.9889
tp2686
a(S'willn'
p2687
g12
F0.3882
tp2688
a(g436
g12
F0.2769
tp2689
a(S'fall'
p2690
g12
F0.827
tp2691
a(S'asleep'
p2692
g245
F0.9558
tp2693
a(S'right'
p2694
g245
F0.9319
tp2695
a(S'now'
p2696
g245
F0.9967
tp2697
a(S'laughs'
p2698
g12
F0.9848
tp2699
a(S'today'
p2700
g9
F0.9828
tp2701
asI256
(lp2702
(S'right'
p2703
g324
F0.6387
tp2704
a(S'this'
p2705
g3
F0.9648
tp2706
a(S'minute'
p2707
g9
F0.9668
tp2708
asI257
(lp2709
(S'right'
p2710
g324
F0.6387
tp2711
a(S'this'
p2712
g3
F0.9648
tp2713
a(S'minute'
p2714
g9
F0.9668
tp2715
asI258
(lp2716
(S'yeah'
p2717
g324
F0.9988
tp2718
asI259
(lp2719
(S'right'
p2720
g324
F0.6387
tp2721
a(S'this'
p2722
g3
F0.9648
tp2723
a(S'minute'
p2724
g9
F0.9668
tp2725
asI260
(lp2726
(S'do'
p2727
g12
F0.9985
tp2728
a(S'you'
p2729
g22
F0.9996
tp2730
a(S'think'
p2731
g12
F0.9998
tp2732
a(S'that'
p2733
g22
F0.5016
tp2734
a(g357
g358
F0.4628
tp2735
a(S'what'
p2736
g22
F0.954
tp2737
a(S'your'
p2738
g3
F0.9813
tp2739
a(S'teachers'
p2740
g9
F0.9954
tp2741
a(S'do'
p2742
g12
F0.9973
tp2743
a(S'when'
p2744
g245
F0.9693
tp2745
a(S'they'
p2746
g22
F0.9755
tp2747
a(S'go'
p2748
g12
F0.9991
tp2749
a(S'home'
p2750
g9
F0.682
tp2751
a(S'from'
p2752
g44
F0.9996
tp2753
a(g77
g3
F0.9962
tp2754
a(S'hard'
p2755
g6
F0.9894
tp2756
a(S'day'
p2757
g9
F0.9969
tp2758
asI261
(lp2759
(S'www'
p2760
g16
F0.3267
tp2761
a(S'no'
p2762
g324
F0.6124
tp2763
asI262
(lp2764
(S'they'
p2765
g22
F0.9889
tp2766
a(S'can'
p2767
g12
F0.9998
tp2768
a(S'fall'
p2769
g12
F0.9848
tp2770
a(S'asleep'
p2771
g245
F0.9401
tp2772
a(S'in'
p2773
g44
F0.9885
tp2774
a(S'school'
p2775
g9
F0.997
tp2776
asI263
(lp2777
(S'yeah'
p2778
g324
F0.9945
tp2779
a(S'laughs'
p2780
g12
F0.9273
tp2781
asI264
(lp2782
(S'do'
p2783
g12
F0.9945
tp2784
a(S'they'
p2785
g22
F0.9902
tp2786
a(S'take'
p2787
g12
F0.9993
tp2788
a(S'naps'
p2789
g9
F0.9854
tp2790
a(S'when'
p2791
g245
F0.9819
tp2792
a(S'you'
p2793
g22
F0.9987
tp2794
a(S'take'
p2795
g12
F0.9982
tp2796
a(S'naps'
p2797
g9
F0.9901
tp2798
asI265
(lp2799
(g2580
g27
F0.9638
tp2800
asI266
(lp2801
(g156
g22
F0.9893
tp2802
a(S'thought'
p2803
g12
F0.9995
tp2804
a(S'they'
p2805
g22
F0.9937
tp2806
a(S'just'
p2807
g245
F0.9998
tp2808
a(S'sat'
p2809
g12
F0.9198
tp2810
a(S'at'
p2811
g44
F0.9988
tp2812
a(S'the'
p2813
g3
F0.9997
tp2814
a(S'tables'
p2815
g9
F0.9944
tp2816
a(S'and'
p2817
g53
F0.9966
tp2818
a(S'talked'
p2819
g12
F0.998
tp2820
a(S'quietly'
p2821
g245
F0.9775
tp2822
asI267
(lp2823
(S'they'
p2824
g22
F0.9789
tp2825
a(S'rub'
p2826
g12
F0.9996
tp2827
a(S'us'
p2828
g22
F0.9788
tp2829
asI268
(lp2830
(S'oh'
p2831
g324
F0.9988
tp2832
asI269
(lp2833
(S'aw'
p2834
g324
F0.9971
tp2835
asI270
(lp2836
(S'on'
p2837
g44
F0.9889
tp2838
a(S'your'
p2839
g3
F0.8524
tp2840
a(S'back'
p2841
g9
F0.8644
tp2842
asI271
(lp2843
(S'mhm'
p2844
g324
F0.9747
tp2845
asI272
(lp2846
(S'rubbing'
p2847
g12
F0.9778
tp2848
a(S'is'
p2849
g12
F0.9889
tp2850
a(S'good'
p2851
g6
F0.9975
tp2852
a(S'but'
p2853
g53
F0.9937
tp2854
a(g156
g22
F0.9949
tp2855
a(S'can'
p2856
g12
F0.9998
tp2857
a(S'hardly'
p2858
g245
F0.9984
tp2859
a(S'ever'
p2860
g245
F0.9855
tp2861
a(S'move'
p2862
g12
F0.9641
tp2863
a(S'laughing'
p2864
g12
F0.9622
tp2865
asI273
(lp2866
(S'gets'
p2867
g12
F0.9972
tp2868
a(S'in'
p2869
g44
F0.9835
tp2870
a(S'the'
p2871
g3
F0.9974
tp2872
a(S'right'
p2873
g6
F0.8205
tp2874
a(S'position'
p2875
g9
F0.9989
tp2876
asI274
(lp2877
(S'you'
p2878
g22
F0.998
tp2879
a(S'slept'
p2880
g12
F0.9987
tp2881
a(S'in'
p2882
g44
F0.8088
tp2883
a(S'chrissy'
p2884
g16
F0.9968
tp2885
a(S'brother'
p2886
g9
F0.7745
tp2887
a(g357
g358
F0.8153
tp2888
a(S'bed'
p2889
g9
F0.9156
tp2890
asI275
(lp2891
(S'because'
p2892
g44
F0.988
tp2893
a(S'chrissy'
p2894
g16
F0.9982
tp2895
a(g357
g358
F0.359
tp2896
a(S'bed'
p2897
g9
F0.9149
tp2898
a(S'was'
p2899
g12
F0.993
tp2900
a(S'too'
p2901
g245
F0.9975
tp2902
a(S'small'
p2903
g6
F0.9939
tp2904
asI276
(lp2905
(S'oh'
p2906
g324
F0.9987
tp2907
a(S'yeah'
p2908
g324
F0.9997
tp2909
asI277
(lp2910
(S'and'
p2911
g53
F0.9992
tp2912
a(S'her'
p2913
g3
F0.9002
tp2914
a(S'mother'
p2915
g9
F0.9983
tp2916
a(S'slept'
p2917
g12
F0.9955
tp2918
a(S'in'
p2919
g44
F0.9351
tp2920
a(S'her'
p2921
g3
F0.9265
tp2922
a(S'bed'
p2923
g9
F0.9968
tp2924
asI278
(lp2925
(S'no'
p2926
g324
F0.8403
tp2927
a(S'she'
p2928
g22
F0.9929
tp2929
a(S'slept'
p2930
g12
F0.9981
tp2931
a(S'on'
p2932
g44
F0.9786
tp2933
a(S'the'
p2934
g3
F0.9994
tp2935
a(S'couch'
p2936
g9
F0.9952
tp2937
asI279
(lp2938
(g156
g22
F0.9894
tp2939
a(S'guess'
p2940
g12
F0.9999
tp2941
a(S'she'
p2942
g22
F0.9987
tp2943
a(S'likes'
p2944
g12
F0.9995
tp2945
a(S'to'
p2946
g44
F0.9924
tp2947
a(S'sleep'
p2948
g12
F0.9499
tp2949
a(S'on'
p2950
g44
F0.9924
tp2951
a(S'the'
p2952
g3
F0.9992
tp2953
a(S'couch'
p2954
g9
F0.9974
tp2955
asI280
(lp2956
(S'oh'
p2957
g324
F0.9988
tp2958
asI281
(lp2959
(S'so'
p2960
g245
F0.5403
tp2961
a(S'how'
p2962
g245
F0.9872
tp2963
a(S'was'
p2964
g12
F0.9884
tp2965
asI282
(lp2966
(g156
g22
F0.9635
tp2967
a(S'don'
p2968
g12
F0.9231
tp2969
a(g436
g358
F0.2839
tp2970
a(S'even'
p2971
g245
F0.9939
tp2972
a(S'know'
p2973
g12
F0.9953
tp2974
a(S'chrissy'
p2975
g16
F0.9918
tp2976
a(g156
g22
F0.9302
tp2977
a(S'don'
p2978
g12
F0.9198
tp2979
a(g436
g9
F0.225
tp2980
a(S'know'
p2981
g12
F0.9916
tp2982
a(S'what'
p2983
g22
F0.9903
tp2984
a(S'chrissy'
p2985
g16
F0.9835
tp2986
a(S'looks'
p2987
g12
F0.9933
tp2988
a(S'like'
p2989
g44
F0.8615
tp2990
asI283
(lp2991
(S'you'
p2992
g22
F0.9983
tp2993
a(S'know'
p2994
g12
F0.9999
tp2995
a(S'her'
p2996
g22
F0.7304
tp2997
a(S'she'
p2998
g22
F0.995
tp2999
a(S'has'
p3000
g12
F0.998
tp3001
a(S'red'
p3002
g6
F0.9932
tp3003
a(S'hair'
p3004
g9
F0.9975
tp3005
asI284
(lp3006
(S'her'
p3007
g3
F0.9685
tp3008
a(S'hair'
p3009
g9
F0.9995
tp3010
a(S'got'
p3011
g12
F0.9893
tp3012
a(S'long'
p3013
g6
F0.9778
tp3014
asI285
(lp3015
(S'she'
p3016
g22
F0.9972
tp3017
a(S'was'
p3018
g12
F0.9987
tp3019
a(S'here'
p3020
g245
F0.9966
tp3021
a(S'once'
p3022
g245
F0.9913
tp3023
a(S'before'
p3024
g44
F0.651
tp3025
asI286
(lp3026
(g156
g22
F0.9895
tp3027
a(S'think'
p3028
g12
F0.9994
tp3029
a(S'xxx'
p3030
g202
F0.7064
tp3031
asI287
(lp3032
(g156
g22
F0.9899
tp3033
a(S'forgot'
p3034
g12
F0.9994
tp3035
asI288
(lp3036
(S'remember'
p3037
g12
F0.9975
tp3038
a(S'her'
p3039
g3
F0.8602
tp3040
a(S'red'
p3041
g6
F0.8937
tp3042
a(S'hair'
p3043
g9
F0.9983
tp3044
asI289
(lp3045
(g156
g22
F0.9899
tp3046
a(S'forgot'
p3047
g12
F1.0
tp3048
a(S'her'
p3049
g22
F0.8425
tp3050
asI290
(lp3051
(S'oh'
p3052
g324
F0.9948
tp3053
a(S'no'
p3054
g324
F0.9841
tp3055
asI291
(lp3056
(g156
g22
F0.9897
tp3057
a(S'want'
p3058
g12
F0.9999
tp3059
a(S'to'
p3060
g44
F0.9954
tp3061
a(S'get'
p3062
g12
F0.9998
tp3063
a(g77
g3
F0.9983
tp3064
a(S'straw'
p3065
g9
F0.9938
tp3066
asI292
(lp3067
(S'well'
p3068
g324
F0.6242
tp3069
a(S'since'
p3070
g44
F0.9875
tp3071
a(S'you'
p3072
g22
F0.999
tp3073
a(S've'
p3074
g12
F0.7524
tp3075
a(S'been'
p3076
g12
F0.9946
tp3077
a(S'over'
p3078
g44
F0.5613
tp3079
a(S'here'
p3080
g245
F0.9683
tp3081
a(S'for'
p3082
g44
F0.9987
tp3083
a(g77
g3
F0.9977
tp3084
a(S'year'
p3085
g9
F0.9636
tp3086
asI293
(lp3087
(S'okay'
p3088
g324
F0.9857
tp3089
asI294
(lp3090
(S'mommy'
p3091
g9
F0.5271
tp3092
asI295
(lp3093
(S'what'
p3094
g22
F0.949
tp3095
asI296
(lp3096
(S'tomorrow'
p3097
g9
F0.9182
tp3098
a(S'do'
p3099
g12
F0.9948
tp3100
a(S'one'
p3101
g27
F0.9106
tp3102
a(S'pony'
p3103
g9
F0.9852
tp3104
a(S'tail'
p3105
g9
F0.9986
tp3106
a(S'and'
p3107
g53
F0.9986
tp3108
a(g156
g22
F0.9896
tp3109
a(S'll'
p3110
g12
F0.718
tp3111
a(S'have'
p3112
g12
F0.9972
tp3113
a(S'kim'
p3114
g16
F0.9904
tp3115
a(S'do'
p3116
g12
F0.9987
tp3117
a(g77
g3
F0.9887
tp3118
a(S'braid'
p3119
g9
F0.9046
tp3120
a(S'laughing'
p3121
g12
F0.9753
tp3122
asI297
(lp3123
(S'tomorrow'
p3124
g9
F0.8637
tp3125
a(g357
g358
F0.8514
tp3126
a(S'not'
p3127
g245
F0.9791
tp3128
a(g77
g3
F0.9873
tp3129
a(S'school'
p3130
g9
F0.9905
tp3131
a(S'day'
p3132
g9
F0.995
tp3133
asI298
(lp3134
(S'0i'
p3135
g16
F0.4037
tp3136
a(S'forgot'
p3137
g12
F0.9811
tp3138
asI299
(lp3139
(S'0i'
p3140
g16
F0.4037
tp3141
a(S'forgot'
p3142
g12
F0.9811
tp3143
asI300
(lp3144
(S'huh'
p3145
g324
F0.993
tp3146
asI301
(lp3147
(S'nothin'
p3148
g9
F0.9504
tp3149
a(g1462
g12
F0.3564
tp3150
a(S'laughing'
p3151
g12
F0.9701
tp3152
asI302
(lp3153
(S'need'
p3154
g12
F0.9879
tp3155
a(S'any'
p3156
g3
F0.9383
tp3157
a(S'help'
p3158
g9
F0.7186
tp3159
a(S'getting'
p3160
g12
F0.9994
tp3161
a(g77
g3
F0.9987
tp3162
a(S'straw'
p3163
g9
F0.9877
tp3164
a(S'chi'
p3165
g358
F0.3665
tp3166
asI303
(lp3167
(S'no'
p3168
g324
F0.9253
tp3169
asI304
(lp3170
(S'how'
p3171
g245
F0.9547
tp3172
a(S'did'
p3173
g12
F0.997
tp3174
a(S'that'
p3175
g44
F0.5797
tp3176
a(g77
g3
F0.9919
tp3177
a(S'dressing'
p3178
g9
F0.8914
tp3179
a(S'get'
p3180
g12
F0.9874
tp3181
a(S'half'
p3182
g22
F0.3383
tp3183
a(S'finished'
p3184
g12
F0.9844
tp3185
asI305
(lp3186
(g156
g22
F0.9896
tp3187
a(S'found'
p3188
g12
F1.0
tp3189
a(S'it'
p3190
g22
F0.9904
tp3191
asI306
(lp3192
(g156
g22
F0.9635
tp3193
a(S'don'
p3194
g12
F0.9231
tp3195
a(g436
g9
F0.2842
tp3196
a(S'remember'
p3197
g12
F0.9953
tp3198
a(S'we'
p3199
g22
F0.9969
tp3200
a(S've'
p3201
g12
F0.7931
tp3202
a(S'had'
p3203
g12
F0.9857
tp3204
a(S'xxx'
p3205
g202
F0.7474
tp3206
asI307
(lp3207
(S'okay'
p3208
g324
F0.9857
tp3209
asI308
(lp3210
(S'and'
p3211
g53
F0.9994
tp3212
a(S'it'
p3213
g22
F0.9985
tp3214
a(S'was'
p3215
g12
F0.9988
tp3216
a(S'just'
p3217
g245
F0.9998
tp3218
a(S'gone'
p3219
g12
F0.7652
tp3220
a(S'one'
p3221
g27
F0.9551
tp3222
a(S'day'
p3223
g9
F0.9938
tp3224
asI309
(lp3225
(S'xxx'
p3226
g202
F0.8308
tp3227
a(S'what'
p3228
g22
F0.9717
tp3229
asI310
(lp3230
(S'the'
p3231
g3
F0.9959
tp3232
a(S'dressing'
p3233
g12
F0.8656
tp3234
a(S'you'
p3235
g22
F0.9991
tp3236
a(S'had'
p3237
g12
F0.9975
tp3238
a(S'half'
p3239
g245
F0.2704
tp3240
a(S'finished'
p3241
g12
F0.9507
tp3242
asI311
(lp3243
(S'these'
p3244
g3
F0.9867
tp3245
a(S'straws'
p3246
g9
F0.995
tp3247
a(S'are'
p3248
g12
F0.9924
tp3249
a(S'hard'
p3250
g6
F0.9591
tp3251
asI312
(lp3252
(S'that'
p3253
g22
F0.8288
tp3254
a(S'was'
p3255
g12
F0.9985
tp3256
a(S'what'
p3257
g22
F0.9838
tp3258
a(S'linda'
p3259
g16
F0.9086
tp3260
a(S'brought'
p3261
g12
F0.9778
tp3262
asI313
(lp3263
(S'wouldn'
p3264
g12
F0.5459
tp3265
a(g436
g12
F0.7588
tp3266
a(S'what'
p3267
g22
F0.9987
tp3268
a(S'did'
p3269
g12
F0.9986
tp3270
a(S'you'
p3271
g22
F0.9993
tp3272
a(S'say'
p3273
g12
F0.9957
tp3274
asI314
(lp3275
(S'oh'
p3276
g324
F0.9988
tp3277
asI315
(lp3278
(S'half'
p3279
g9
F0.3823
tp3280
a(S'of'
p3281
g44
F0.9985
tp3282
a(S'it'
p3283
g22
F0.9976
tp3284
a(S'in'
p3285
g44
F0.9457
tp3286
a(S'one'
p3287
g27
F0.9241
tp3288
a(S'salad'
p3289
g9
F0.9934
tp3290
asI316
(lp3291
(S'people'
p3292
g9
F0.9937
tp3293
a(S'put'
p3294
g12
F0.9979
tp3295
a(S'it'
p3296
g22
F0.9619
tp3297
a(S'on'
p3298
g44
F0.9688
tp3299
a(S'their'
p3300
g3
F0.9936
tp3301
a(S'own'
p3302
g9
F0.6483
tp3303
asI317
(lp3304
(S'too'
p3305
g245
F0.9985
tp3306
a(S'much'
p3307
g6
F0.9215
tp3308
a(S'xxx'
p3309
g202
F0.5905
tp3310
asI318
(lp3311
(S'www'
p3312
g16
F0.345
tp3313
a(S'www'
p3314
g16
F0.7707
tp3315
a(S'www'
p3316
g16
F0.9024
tp3317
asI319
(lp3318
(S'do'
p3319
g12
F0.9985
tp3320
a(S'you'
p3321
g22
F0.9993
tp3322
a(S'get'
p3323
g12
F0.9995
tp3324
a(S'silly'
p3325
g6
F0.9979
tp3326
a(S'when'
p3327
g245
F0.9778
tp3328
a(S'you'
p3329
g22
F0.9993
tp3330
a(S'have'
p3331
g12
F0.9998
tp3332
a(g77
g3
F0.9972
tp3333
a(S'silly'
p3334
g6
F0.9983
tp3335
a(S'straw'
p3336
g9
F0.99
tp3337
asI320
(lp3338
(S'mhm'
p3339
g324
F0.9747
tp3340
asI321
(lp3341
(S'mhm'
p3342
g324
F0.9747
tp3343
asI322
(lp3344
(g2580
g27
F0.9638
tp3345
asI323
(lp3346
(S'okay'
p3347
g324
F0.9857
tp3348
asI324
(lp3349
(S'would'
p3350
g12
F0.9987
tp3351
a(S'you'
p3352
g22
F0.9948
tp3353
a(S'like'
p3354
g12
F0.7931
tp3355
a(S'more'
p3356
g6
F0.7464
tp3357
a(S'milk'
p3358
g9
F0.9986
tp3359
asI325
(lp3360
(S'yes'
p3361
g324
F0.9811
tp3362
a(S'laughs'
p3363
g12
F0.9129
tp3364
asI326
(lp3365
(S'xxx'
p3366
g202
F0.8437
tp3367
asI327
(lp3368
(S'xxx'
p3369
g202
F0.6697
tp3370
a(S'an'
p3371
g3
F0.9756
tp3372
a(S'easy'
p3373
g6
F0.9868
tp3374
a(S'straw'
p3375
g9
F0.9967
tp3376
asI328
(lp3377
(S'where'
p3378
g245
F0.9164
tp3379
a(S'did'
p3380
g12
F0.9985
tp3381
a(S'my'
p3382
g3
F0.9966
tp3383
a(S'straw'
p3384
g9
F0.9972
tp3385
a(S'go'
p3386
g12
F0.9763
tp3387
asI329
(lp3388
(S'alright'
p3389
g324
F0.9864
tp3390
asI330
(lp3391
(S'ah'
p3392
g324
F0.9372
tp3393
a(S'finishing'
p3394
g12
F0.9788
tp3395
a(S'drinking'
p3396
g12
F0.8737
tp3397
asI331
(lp3398
(g156
g22
F0.9897
tp3399
a(S'want'
p3400
g12
F1.0
tp3401
a(S'you'
p3402
g22
F0.9989
tp3403
a(S'to'
p3404
g44
F0.9719
tp3405
a(S'work'
p3406
g12
F0.7035
tp3407
a(S'on'
p3408
g44
F0.9765
tp3409
a(S'the'
p3410
g3
F0.9994
tp3411
a(S'rest'
p3412
g9
F0.9979
tp3413
a(S'of'
p3414
g44
F0.999
tp3415
a(S'your'
p3416
g3
F0.9938
tp3417
a(S'food'
p3418
g9
F0.9984
tp3419
asI332
(lp3420
(S'it'
p3421
g22
F0.9888
tp3422
a(g357
g12
F0.585
tp3423
a(S'not'
p3424
g245
F0.9957
tp3425
a(S'going'
p3426
g12
F0.9991
tp3427
a(S'to'
p3428
g44
F0.975
tp3429
a(S'work'
p3430
g12
F0.8481
tp3431
a(S'that'
p3432
g3
F0.7683
tp3433
a(S'way'
p3434
g9
F0.953
tp3435
asI333
(lp3436
(S'yeah'
p3437
g324
F0.9945
tp3438
a(S'laughs'
p3439
g12
F0.9273
tp3440
asI334
(lp3441
(S'is'
p3442
g12
F0.9926
tp3443
a(S'too'
p3444
g245
F0.9753
tp3445
asI335
(lp3446
(S'no'
p3447
g324
F0.568
tp3448
a(S'don'
p3449
g9
F0.8031
tp3450
a(g436
g9
F0.3298
tp3451
a(S'do'
p3452
g12
F0.9992
tp3453
a(S'it'
p3454
g22
F0.992
tp3455
a(S'that'
p3456
g3
F0.652
tp3457
a(S'way'
p3458
g9
F0.9538
tp3459
asI336
(lp3460
(S'um'
p3461
g324
F0.979
tp3462
asI337
(lp3463
(S'it'
p3464
g22
F0.9943
tp3465
a(S'will'
p3466
g12
F0.9973
tp3467
a(S'tip'
p3468
g12
F0.8649
tp3469
a(S'the'
p3470
g3
F0.9989
tp3471
a(S'glass'
p3472
g9
F0.9834
tp3473
asI338
(lp3474
(S'hm'
p3475
g324
F0.995
tp3476
asI339
(lp3477
(S'alright'
p3478
g324
F0.8879
tp3479
a(S'would'
p3480
g12
F0.9988
tp3481
a(S'you'
p3482
g22
F0.9979
tp3483
a(S'sit'
p3484
g12
F0.9998
tp3485
a(S'up'
p3486
g182
F0.9916
tp3487
a(S'on'
p3488
g44
F0.9946
tp3489
a(S'your'
p3490
g3
F0.993
tp3491
a(S'chair'
p3492
g9
F0.9982
tp3493
a(S'and'
p3494
g53
F0.996
tp3495
a(S'eat'
p3496
g12
F0.9967
tp3497
a(S'some'
p3498
g3
F0.9945
tp3499
a(S'food'
p3500
g9
F0.994
tp3501
a(S'now'
p3502
g245
F0.9944
tp3503
a(S'too'
p3504
g245
F0.9902
tp3505
asI340
(lp3506
(S'that'
p3507
g22
F0.473
tp3508
a(g357
g12
F0.5365
tp3509
a(S'the'
p3510
g3
F0.9994
tp3511
a(S'way'
p3512
g9
F0.9828
tp3513
a(g156
g22
F0.9395
tp3514
a(S'wanted'
p3515
g12
F0.999
tp3516
a(S'to'
p3517
g44
F0.99
tp3518
a(S'be'
p3519
g12
F0.9992
tp3520
a(S'laughing'
p3521
g12
F0.89
tp3522
asI341
(lp3523
(S'it'
p3524
g22
F0.9922
tp3525
a(S'doesn'
p3526
g12
F0.991
tp3527
a(g436
g9
F0.2865
tp3528
a(S'go'
p3529
g12
F0.9959
tp3530
a(S'this'
p3531
g3
F0.9457
tp3532
a(S'way'
p3533
g9
F0.952
tp3534
a(S'laughing'
p3535
g12
F0.9838
tp3536
asI342
(lp3537
(S'it'
p3538
g22
F0.9922
tp3539
a(S'doesn'
p3540
g12
F0.991
tp3541
a(g436
g9
F0.2865
tp3542
a(S'go'
p3543
g12
F0.993
tp3544
a(S'this'
p3545
g3
F0.9457
tp3546
a(S'way'
p3547
g9
F0.9586
tp3548
asI343
(lp3549
(S'so'
p3550
g44
F0.7418
tp3551
a(S'what'
p3552
g22
F0.9989
tp3553
a(S'did'
p3554
g12
F0.9993
tp3555
a(S'you'
p3556
g22
F0.9993
tp3557
a(S'do'
p3558
g12
F0.9999
tp3559
a(S'out'
p3560
g182
F0.9432
tp3561
a(S'on'
p3562
g44
F0.9978
tp3563
a(S'the'
p3564
g3
F0.993
tp3565
a(S'play'
p3566
g9
F0.7151
tp3567
a(S'ground'
p3568
g9
F0.7451
tp3569
a(S'chi'
p3570
g358
F0.5205
tp3571
asI344
(lp3572
(S'played'
p3573
g12
F0.9927
tp3574
a(S'in'
p3575
g44
F0.9975
tp3576
a(S'the'
p3577
g3
F0.9992
tp3578
a(S'sand'
p3579
g9
F0.9132
tp3580
a(S'box'
p3581
g9
F0.9825
tp3582
asI345
(lp3583
(S'hm'
p3584
g324
F0.995
tp3585
asI346
(lp3586
(S'played'
p3587
g12
F0.9927
tp3588
a(S'in'
p3589
g44
F0.9975
tp3590
a(S'the'
p3591
g3
F0.9992
tp3592
a(S'sand'
p3593
g9
F0.9132
tp3594
a(S'box'
p3595
g9
F0.9825
tp3596
asI347
(lp3597
(S'oh'
p3598
g324
F0.9988
tp3599
asI348
(lp3600
(S'did'
p3601
g12
F0.9986
tp3602
a(S'you'
p3603
g22
F0.9986
tp3604
a(S'make'
p3605
g12
F0.9987
tp3606
a(S'something'
p3607
g9
F0.9971
tp3608
a(S'in'
p3609
g44
F0.9988
tp3610
a(S'the'
p3611
g3
F0.999
tp3612
a(S'sand'
p3613
g9
F0.8743
tp3614
a(S'box'
p3615
g9
F0.9862
tp3616
asI349
(lp3617
(S'www'
p3618
g16
F0.3889
tp3619
asI350
(lp3620
(S'www'
p3621
g16
F0.3889
tp3622
asI351
(lp3623
(S'no'
p3624
g324
F0.9253
tp3625
asI352
(lp3626
(S'well'
p3627
g324
F0.9522
tp3628
a(S'what'
p3629
g22
F0.9993
tp3630
a(S'did'
p3631
g12
F0.9993
tp3632
a(S'you'
p3633
g22
F0.9993
tp3634
a(S'do'
p3635
g12
F0.9998
tp3636
a(S'in'
p3637
g44
F0.9666
tp3638
a(S'the'
p3639
g3
F0.9993
tp3640
a(S'sand'
p3641
g9
F0.879
tp3642
a(S'box'
p3643
g9
F0.9887
tp3644
asI353
(lp3645
(S'www'
p3646
g16
F0.3889
tp3647
asI354
(lp3648
(S'did'
p3649
g12
F0.9986
tp3650
a(S'you'
p3651
g22
F0.9988
tp3652
a(S'eat'
p3653
g12
F0.9962
tp3654
a(S'sand'
p3655
g9
F0.9693
tp3656
asI355
(lp3657
(S'www'
p3658
g16
F0.3889
tp3659
asI356
(lp3660
(S'alright'
p3661
g324
F0.9864
tp3662
asI357
(lp3663
(S'www'
p3664
g16
F0.3889
tp3665
asI358
(lp3666
(g156
g22
F0.9635
tp3667
a(S'don'
p3668
g12
F0.9231
tp3669
a(g436
g9
F0.2457
tp3670
a(S'know'
p3671
g12
F0.9915
tp3672
a(S'what'
p3673
g22
F0.9785
tp3674
a(S'you'
p3675
g22
F0.9964
tp3676
a(S're'
p3677
g12
F0.7954
tp3678
a(S'saying'
p3679
g12
F0.9984
tp3680
a(S'if'
p3681
g44
F0.9991
tp3682
a(S'your'
p3683
g3
F0.9588
tp3684
a(S'mouth'
p3685
g9
F0.9998
tp3686
a(S'is'
p3687
g12
F0.996
tp3688
a(S'full'
p3689
g6
F0.9602
tp3690
a(S'of'
p3691
g44
F0.9933
tp3692
a(S'milk'
p3693
g9
F0.9897
tp3694
asI359
(lp3695
(S'that'
p3696
g22
F0.473
tp3697
a(g357
g12
F0.4687
tp3698
a(S'enough'
p3699
g9
F0.4917
tp3700
a(S'of'
p3701
g44
F0.997
tp3702
a(S'that'
p3703
g22
F0.804
tp3704
asI360
(lp3705
(S'www'
p3706
g16
F0.3889
tp3707
asI361
(lp3708
(S'0i'
p3709
g16
F0.3217
tp3710
a(S'played'
p3711
g12
F0.99
tp3712
a(S'with'
p3713
g44
F0.9978
tp3714
a(S'danielle'
p3715
g16
F0.9965
tp3716
asI362
(lp3717
(S'oh'
p3718
g324
F0.9988
tp3719
asI363
(lp3720
(S'what'
p3721
g22
F0.9923
tp3722
a(S'was'
p3723
g12
F0.9986
tp3724
a(S'that'
p3725
g3
F0.873
tp3726
a(S'blonde'
p3727
g6
F0.994
tp3728
a(S'girl'
p3729
g9
F0.9966
tp3730
a(g357
g358
F0.7359
tp3731
a(S'name'
p3732
g9
F0.9899
tp3733
a(S'again'
p3734
g245
F0.9732
tp3735
asI364
(lp3736
(S'the'
p3737
g3
F0.9981
tp3738
a(S'one'
p3739
g27
F0.9549
tp3740
a(S'that'
p3741
g44
F0.6227
tp3742
a(S'told'
p3743
g12
F0.9996
tp3744
a(S'you'
p3745
g22
F0.999
tp3746
a(S'to'
p3747
g44
F0.9875
tp3748
a(S'bring'
p3749
g12
F1.0
tp3750
a(S'you'
p3751
g22
F0.9665
tp3752
a(S'pony'
p3753
g9
F0.7987
tp3754
a(S'sixteen'
p3755
g27
F0.84
tp3756
a(S'more'
p3757
g6
F0.8956
tp3758
a(S'times'
p3759
g9
F0.9955
tp3760
asI365
(lp3761
(S'uh'
p3762
g324
F0.9741
tp3763
a(S'katie'
p3764
g16
F0.9813
tp3765
asI366
(lp3766
(S'katie'
p3767
g16
F0.9868
tp3768
a(S'she'
p3769
g22
F0.9915
tp3770
a(g357
g358
F0.4625
tp3771
a(S'cute'
p3772
g6
F0.9948
tp3773
asI367
(lp3774
(S'yeah'
p3775
g324
F0.994
tp3776
a(S'bring'
p3777
g12
F0.992
tp3778
a(S'what'
p3779
g22
F0.9915
tp3780
asI368
(lp3781
(S'sixty'
p3782
g27
F0.243
tp3783
a(S'more'
p3784
g6
F0.9654
tp3785
a(S'times'
p3786
g9
F0.9969
tp3787
asI369
(lp3788
(S'bring'
p3789
g12
F0.9994
tp3790
a(S'my'
p3791
g3
F0.9982
tp3792
a(S'pony'
p3793
g9
F0.9941
tp3794
a(S'sixty'
p3795
g9
F0.2802
tp3796
a(S'more'
p3797
g6
F0.7305
tp3798
a(S'times'
p3799
g9
F0.9946
tp3800
asI370
(lp3801
(S'oh'
p3802
g324
F0.9988
tp3803
asI371
(lp3804
(S'is'
p3805
g12
F0.9965
tp3806
a(S'she'
p3807
g22
F0.9971
tp3808
a(S'your'
p3809
g3
F0.9785
tp3810
a(S'friend'
p3811
g9
F0.9958
tp3812
asI372
(lp3813
(S'she'
p3814
g22
F0.9912
tp3815
a(g357
g12
F0.4504
tp3816
a(S'adorable'
p3817
g6
F0.9963
tp3818
asI373
(lp3819
(S'mhm'
p3820
g324
F0.9747
tp3821
asI374
(lp3822
(S'there'
p3823
g1909
F0.4664
tp3824
a(g357
g358
F0.6539
tp3825
a(g77
g3
F0.9893
tp3826
a(S'bunch'
p3827
g9
F0.9969
tp3828
a(S'of'
p3829
g44
F0.9953
tp3830
a(S'other'
p3831
g6
F0.9903
tp3832
a(S'kids'
p3833
g9
F0.9941
tp3834
a(S'around'
p3835
g44
F0.8085
tp3836
a(S'too'
p3837
g245
F0.9868
tp3838
asI375
(lp3839
(S'is'
p3840
g12
F0.9965
tp3841
a(S'she'
p3842
g22
F0.9977
tp3843
a(S'the'
p3844
g3
F0.9979
tp3845
a(S'one'
p3846
g27
F0.9517
tp3847
a(S'whose'
p3848
g292
F0.5505
tp3849
a(S'picture'
p3850
g9
F0.9416
tp3851
a(S'was'
p3852
g12
F0.9968
tp3853
a(S'in'
p3854
g44
F0.9829
tp3855
a(S'the'
p3856
g3
F0.9993
tp3857
a(S'paper'
p3858
g9
F0.9864
tp3859
asI376
(lp3860
(S'yeah'
p3861
g324
F0.9988
tp3862
asI377
(lp3863
(S'katie'
p3864
g16
F0.9872
tp3865
asI378
(lp3866
(S'mhm'
p3867
g324
F0.9747
tp3868
asI379
(lp3869
(S'what'
p3870
g22
F0.9965
tp3871
a(S'did'
p3872
g12
F0.9955
tp3873
a(S'she'
p3874
g22
F0.999
tp3875
a(S'do'
p3876
g12
F0.9978
tp3877
asI380
(lp3878
(S'she'
p3879
g22
F0.9917
tp3880
a(g357
g12
F0.5423
tp3881
a(S'the'
p3882
g3
F0.9988
tp3883
a(S'one'
p3884
g27
F0.9392
tp3885
a(S'who'
p3886
g22
F0.9825
tp3887
a(g357
g12
F0.5615
tp3888
a(S'always'
p3889
g245
F0.9962
tp3890
a(S'wanting'
p3891
g12
F0.9994
tp3892
a(S'to'
p3893
g44
F0.9947
tp3894
a(S'come'
p3895
g12
F0.9999
tp3896
a(S'over'
p3897
g44
F0.5538
tp3898
a(S'here'
p3899
g245
F0.9423
tp3900
asI381
(lp3901
(S'mhm'
p3902
g324
F0.9747
tp3903
asI382
(lp3904
(S'mhm'
p3905
g324
F0.9747
tp3906
asI383
(lp3907
(S'so'
p3908
g245
F0.5696
tp3909
a(S'maybe'
p3910
g245
F0.9843
tp3911
a(S'we'
p3912
g22
F0.9974
tp3913
a(S'll'
p3914
g12
F0.6863
tp3915
a(S'do'
p3916
g12
F0.9996
tp3917
a(S'that'
p3918
g22
F0.856
tp3919
asI384
(lp3920
(S'mm'
p3921
g324
F0.627
tp3922
asI385
(lp3923
(S'would'
p3924
g12
F0.9987
tp3925
a(S'you'
p3926
g22
F0.999
tp3927
a(S'want'
p3928
g12
F0.9997
tp3929
a(S'to'
p3930
g44
F0.9765
tp3931
a(S'do'
p3932
g12
F0.9999
tp3933
a(S'that'
p3934
g22
F0.8603
tp3935
a(S'sometime'
p3936
g245
F0.9365
tp3937
asI386
(lp3938
(S'mm'
p3939
g324
F0.627
tp3940
asI387
(lp3941
(S'maybe'
p3942
g245
F0.9023
tp3943
a(S'the'
p3944
g3
F0.9989
tp3945
a(S'next'
p3946
g6
F0.9695
tp3947
a(S'time'
p3948
g9
F0.9992
tp3949
a(g156
g22
F0.9213
tp3950
a(S'see'
p3951
g12
F0.9998
tp3952
a(S'her'
p3953
g3
F0.9902
tp3954
a(S'mother'
p3955
g9
F0.999
tp3956
a(g156
g22
F0.9083
tp3957
a(S'll'
p3958
g12
F0.7497
tp3959
a(S'ask'
p3960
g12
F0.9991
tp3961
a(S'her'
p3962
g22
F0.7869
tp3963
a(S'if'
p3964
g44
F0.9988
tp3965
a(S'we'
p3966
g22
F0.9992
tp3967
a(S'can'
p3968
g12
F0.9997
tp3969
a(S'bring'
p3970
g12
F1.0
tp3971
a(S'her'
p3972
g3
F0.6861
tp3973
a(S'home'
p3974
g9
F0.9952
tp3975
a(S'with'
p3976
g44
F0.9997
tp3977
a(S'us'
p3978
g22
F0.9754
tp3979
asI388
(lp3980
(S'okay'
p3981
g324
F0.9857
tp3982
asI389
(lp3983
(S'and'
p3984
g53
F0.9985
tp3985
a(S'have'
p3986
g12
F0.9995
tp3987
a(S'her'
p3988
g22
F0.792
tp3989
a(S'over'
p3990
g44
F0.679
tp3991
a(S'for'
p3992
g44
F0.9723
tp3993
a(S'dinner'
p3994
g9
F0.9424
tp3995
asI390
(lp3996
(S'coughs'
p3997
g9
F0.5349
tp3998
asI391
(lp3999
(S'do'
p4000
g12
F0.9985
tp4001
a(S'you'
p4002
g22
F0.9996
tp4003
a(S'think'
p4004
g12
F0.9997
tp4005
a(S'she'
p4006
g22
F0.9931
tp4007
a(S'd'
p4008
g12
F0.4201
tp4009
a(S'taste'
p4010
g12
F0.9141
tp4011
a(S'good'
p4012
g6
F0.9961
tp4013
asI392
(lp4014
(S'stop'
p4015
g12
F0.8731
tp4016
a(S'laughs'
p4017
g12
F0.9439
tp4018
asI393
(lp4019
(S'were'
p4020
g12
F0.9548
tp4021
a(S'not'
p4022
g245
F0.9897
tp4023
a(S'have'
p4024
g12
F0.9965
tp4025
a(S'katie'
p4026
g16
F0.986
tp4027
a(S'dinner'
p4028
g9
F0.8238
tp4029
asI394
(lp4030
(S'we'
p4031
g22
F0.9952
tp4032
a(S'are'
p4033
g12
F0.9995
tp4034
a(S'having'
p4035
g12
F0.9994
tp4036
a(S'her'
p4037
g22
F0.8561
tp4038
a(S'over'
p4039
g44
F0.5472
tp4040
asI395
(lp4041
(S'so'
p4042
g44
F0.9008
tp4043
a(S'she'
p4044
g22
F0.9985
tp4045
a(S'can'
p4046
g12
F0.9993
tp4047
a(S'eat'
p4048
g12
F0.9979
tp4049
a(S'with'
p4050
g44
F0.9978
tp4051
a(S'us'
p4052
g22
F0.9753
tp4053
asI396
(lp4054
(S'oh'
p4055
g324
F0.9983
tp4056
a(g156
g22
F0.992
tp4057
a(S'see'
p4058
g12
F0.9984
tp4059
asI397
(lp4060
(S'silly'
p4061
g6
F0.9973
tp4062
a(S'dad'
p4063
g9
F0.9955
tp4064
a(S'laughing'
p4065
g12
F0.9821
tp4066
asI398
(lp4067
(S'www'
p4068
g16
F0.345
tp4069
a(S'www'
p4070
g16
F0.8756
tp4071
asI399
(lp4072
(S'mommy'
p4073
g9
F0.4798
tp4074
a(S'this'
p4075
g22
F0.6263
tp4076
a(S'looks'
p4077
g12
F0.995
tp4078
a(S'like'
p4079
g44
F0.9742
tp4080
a(g77
g3
F0.9884
tp4081
a(S'crow'
p4082
g9
F0.939
tp4083
a(S'head'
p4084
g9
F0.993
tp4085
asI400
(lp4086
(S'yeah'
p4087
g324
F0.9988
tp4088
asI401
(lp4089
(S'there'
p4090
g1909
F0.8572
tp4091
a(S'is'
p4092
g12
F0.9986
tp4093
a(S'that'
p4094
g22
F0.7619
tp4095
a(S'the'
p4096
g3
F0.9989
tp4097
a(S'beak'
p4098
g9
F0.9279
tp4099
asI402
(lp4100
(S'yep'
p4101
g324
F0.9977
tp4102
asI403
(lp4103
(S'but'
p4104
g53
F0.993
tp4105
a(S'you'
p4106
g22
F0.9969
tp4107
a(S're'
p4108
g12
F0.7324
tp4109
a(S'eating'
p4110
g12
F0.9979
tp4111
a(S'the'
p4112
g3
F0.9994
tp4113
a(S'beak'
p4114
g9
F0.9317
tp4115
asI404
(lp4116
(S'yeah'
p4117
g324
F0.9958
tp4118
a(S'well'
p4119
g324
F0.8205
tp4120
a(S'just'
p4121
g245
F0.9994
tp4122
a(S'don'
p4123
g12
F0.6155
tp4124
a(g436
g9
F0.2121
tp4125
a(S'turn'
p4126
g12
F0.9966
tp4127
a(S'the'
p4128
g3
F0.9995
tp4129
a(S'glass'
p4130
g9
F0.9913
tp4131
a(S'over'
p4132
g44
F0.9587
tp4133
a(S'please'
p4134
g12
F0.9707
tp4135
asI405
(lp4136
(S'hm'
p4137
g324
F0.995
tp4138
asI406
(lp4139
(S'mom'
p4140
g9
F0.7121
tp4141
a(S'this'
p4142
g3
F0.564
tp4143
a(S'isn'
p4144
g358
F0.5454
tp4145
a(g436
g358
F0.8708
tp4146
a(S'the'
p4147
g3
F0.9964
tp4148
a(S'beak'
p4149
g9
F0.9317
tp4150
asI407
(lp4151
(S'this'
p4152
g3
F0.6044
tp4153
a(S'isn'
p4154
g358
F0.555
tp4155
a(g436
g358
F0.8568
tp4156
a(S'the'
p4157
g3
F0.9957
tp4158
a(S'beak'
p4159
g9
F0.9279
tp4160
asI408
(lp4161
(S'it'
p4162
g22
F0.9979
tp4163
a(S'is'
p4164
g12
F0.9997
tp4165
a(S'the'
p4166
g3
F0.9988
tp4167
a(S'beak'
p4168
g9
F0.9559
tp4169
asI409
(lp4170
(S'which'
p4171
g3
F0.9912
tp4172
a(S'one'
p4173
g27
F0.7513
tp4174
a(S'is'
p4175
g12
F0.9958
tp4176
a(S'that'
p4177
g22
F0.9272
tp4178
asI410
(lp4179
(S'that'
p4180
g22
F0.473
tp4181
a(g357
g12
F0.5782
tp4182
a(S'nothin'
p4183
g9
F0.9743
tp4184
a(g1462
g358
F0.5282
tp4185
asI411
(lp4186
(S'this'
p4187
g22
F0.9526
tp4188
a(S'is'
p4189
g12
F0.9987
tp4190
a(S'the'
p4191
g3
F0.9988
tp4192
a(S'beak'
p4193
g9
F0.9559
tp4194
asI412
(lp4195
(S'oh'
p4196
g324
F0.9988
tp4197
asI413
(lp4198
(S'this'
p4199
g22
F0.9526
tp4200
a(S'is'
p4201
g12
F0.9987
tp4202
a(S'its'
p4203
g3
F0.5268
tp4204
a(S'head'
p4205
g9
F0.9947
tp4206
asI414
(lp4207
(S'yeah'
p4208
g324
F0.9988
tp4209
asI415
(lp4210
(S'right'
p4211
g245
F0.7549
tp4212
a(S'here'
p4213
g245
F0.9427
tp4214
a(S'is'
p4215
g12
F0.9944
tp4216
a(S'its'
p4217
g3
F0.5067
tp4218
a(S'eye'
p4219
g9
F0.9914
tp4220
asI416
(lp4221
(S'oh'
p4222
g324
F0.9988
tp4223
asI417
(lp4224
(S'where'
p4225
g245
F0.9711
tp4226
a(g357
g358
F0.5571
tp4227
a(S'its'
p4228
g292
F0.8234
tp4229
a(S'brain'
p4230
g9
F0.9875
tp4231
asI418
(lp4232
(S'huh'
p4233
g324
F0.993
tp4234
asI419
(lp4235
(S'where'
p4236
g245
F0.9711
tp4237
a(g357
g358
F0.5571
tp4238
a(S'its'
p4239
g292
F0.8234
tp4240
a(S'brain'
p4241
g9
F0.9875
tp4242
asI420
(lp4243
(S'laughs'
p4244
g12
F0.9102
tp4245
asI421
(lp4246
(S'alright'
p4247
g324
F0.9864
tp4248
asI422
(lp4249
(S'don'
p4250
g16
F0.5427
tp4251
a(g436
g16
F0.5416
tp4252
a(S'know'
p4253
g12
F0.971
tp4254
a(S'laughs'
p4255
g12
F0.888
tp4256
asI423
(lp4257
(S'careful'
p4258
g6
F0.786
tp4259
asI424
(lp4260
(S'do'
p4261
g12
F0.9985
tp4262
a(S'you'
p4263
g22
F0.9996
tp4264
a(S'think'
p4265
g12
F0.9999
tp4266
a(S'you'
p4267
g22
F0.9992
tp4268
a(S'could'
p4269
g12
F0.9996
tp4270
a(S'stop'
p4271
g12
F0.9802
tp4272
a(S'experimenting'
p4273
g12
F0.9989
tp4274
a(S'with'
p4275
g44
F0.9994
tp4276
a(S'the'
p4277
g3
F0.9996
tp4278
a(S'straw'
p4279
g9
F0.9886
tp4280
a(S'and'
p4281
g53
F0.9981
tp4282
a(S'work'
p4283
g9
F0.8122
tp4284
a(S'on'
p4285
g44
F0.9915
tp4286
a(S'eating'
p4287
g12
F0.9851
tp4288
a(S'some'
p4289
g3
F0.8496
tp4290
a(S'of'
p4291
g44
F0.9966
tp4292
a(S'your'
p4293
g3
F0.9926
tp4294
a(S'french'
p4295
g16
F0.3805
tp4296
a(S'fries'
p4297
g9
F0.6825
tp4298
a(S'and'
p4299
g53
F0.9982
tp4300
a(S'tomatoes'
p4301
g9
F0.9693
tp4302
a(S'there'
p4303
g245
F0.739
tp4304
asI425
(lp4305
(S'when'
p4306
g245
F0.9219
tp4307
a(S'the'
p4308
g3
F0.999
tp4309
a(S'milk'
p4310
g9
F0.9964
tp4311
a(S'comes'
p4312
g12
F0.9976
tp4313
a(S'up'
p4314
g182
F0.9697
tp4315
a(S'it'
p4316
g22
F0.9963
tp4317
a(S'will'
p4318
g12
F0.9988
tp4319
a(S'be'
p4320
g12
F0.9999
tp4321
a(S'his'
p4322
g3
F0.998
tp4323
a(S'brain'
p4324
g9
F0.9959
tp4325
asI426
(lp4326
(S'ugh'
p4327
g324
F0.9949
tp4328
asI427
(lp4329
(S'chi'
p4330
g324
F0.4684
tp4331
asI428
(lp4332
(S'you'
p4333
g22
F0.9754
tp4334
a(S're'
p4335
g12
F0.7708
tp4336
a(S'going'
p4337
g12
F0.9981
tp4338
a(S'to'
p4339
g44
F0.9794
tp4340
a(S'drink'
p4341
g12
F0.998
tp4342
a(S'his'
p4343
g3
F0.9989
tp4344
a(S'brain'
p4345
g9
F0.9979
tp4346
a(S'laughing'
p4347
g12
F0.9633
tp4348
asI429
(lp4349
(S'alright'
p4350
g324
F0.8763
tp4351
a(S'let'
p4352
g12
F0.9099
tp4353
a(g357
g358
F0.388
tp4354
a(S'put'
p4355
g12
F0.98
tp4356
a(S'this'
p4357
g3
F0.9765
tp4358
a(S'straw'
p4359
g9
F0.9953
tp4360
a(S'away'
p4361
g245
F0.9729
tp4362
a(S'for'
p4363
g44
F0.9991
tp4364
a(g77
g3
F0.9985
tp4365
a(S'little'
p4366
g6
F0.9734
tp4367
a(S'while'
p4368
g44
F0.5829
tp4369
asI430
(lp4370
(S'no'
p4371
g324
F0.6855
tp4372
a(S'whines'
p4373
g12
F0.5148
tp4374
asI431
(lp4375
(S'now'
p4376
g245
F0.9901
tp4377
a(g156
g22
F0.9937
tp4378
a(S'want'
p4379
g12
F1.0
tp4380
a(S'you'
p4381
g22
F0.9987
tp4382
a(S'to'
p4383
g44
F0.9716
tp4384
a(S'work'
p4385
g12
F0.7035
tp4386
a(S'on'
p4387
g44
F0.9765
tp4388
a(S'the'
p4389
g3
F0.9994
tp4390
a(S'food'
p4391
g9
F0.9873
tp4392
a(S'and'
p4393
g53
F0.9978
tp4394
a(S'then'
p4395
g245
F0.9839
tp4396
a(S'you'
p4397
g22
F0.9995
tp4398
a(S'can'
p4399
g12
F0.9997
tp4400
a(S'have'
p4401
g12
F0.9999
tp4402
a(S'some'
p4403
g3
F0.9768
tp4404
a(S'more'
p4405
g6
F0.7888
tp4406
a(S'okay'
p4407
g324
F0.811
tp4408
asI432
(lp4409
(S'mm'
p4410
g324
F0.627
tp4411
asI433
(lp4412
(S'come'
p4413
g12
F0.9897
tp4414
a(S'on'
p4415
g44
F0.9533
tp4416
a(S'you'
p4417
g22
F0.9989
tp4418
a(S'don'
p4419
g12
F0.8611
tp4420
a(g436
g9
F0.2294
tp4421
a(S'want'
p4422
g12
F0.9997
tp4423
a(S'us'
p4424
g22
F0.9711
tp4425
a(S'drinking'
p4426
g12
F0.9982
tp4427
a(S'your'
p4428
g3
F0.9834
tp4429
a(S'milk'
p4430
g9
F0.9988
tp4431
asI434
(lp4432
(S'fine'
p4433
g6
F0.9079
tp4434
asI435
(lp4435
(S'so'
p4436
g44
F0.706
tp4437
a(S'milk'
p4438
g9
F0.9683
tp4439
a(g357
g358
F0.7896
tp4440
a(S'good'
p4441
g6
F0.9894
tp4442
a(S'for'
p4443
g44
F0.9995
tp4444
a(S'you'
p4445
g22
F0.9991
tp4446
asI436
(lp4447
(S'milk'
p4448
g9
F0.9848
tp4449
a(S'is'
p4450
g12
F0.9972
tp4451
a(S'good'
p4452
g6
F0.9975
tp4453
a(S'but'
p4454
g53
F0.9865
tp4455
a(S'you'
p4456
g22
F0.9997
tp4457
a(S'need'
p4458
g12
F0.9995
tp4459
a(S'the'
p4460
g3
F0.9994
tp4461
a(S'food'
p4462
g9
F0.9971
tp4463
a(S'too'
p4464
g245
F0.9448
tp4465
asI437
(lp4466
(S'food'
p4467
g9
F0.8591
tp4468
a(S'it'
p4469
g22
F0.9828
tp4470
a(S'does'
p4471
g12
F0.9999
tp4472
a(g77
g3
F0.9985
tp4473
a(S'body'
p4474
g9
F0.9905
tp4475
a(S'good'
p4476
g6
F0.9858
tp4477
asI438
(lp4478
(S'pass'
p4479
g12
F0.9438
tp4480
a(S'it'
p4481
g22
F0.9826
tp4482
a(S'on'
p4483
g182
F0.6569
tp4484
asI439
(lp4485
(S'you'
p4486
g22
F0.9969
tp4487
a(S'can'
p4488
g12
F0.9997
tp4489
a(S'have'
p4490
g12
F1.0
tp4491
a(S'you'
p4492
g22
F0.9989
tp4493
a(S'can'
p4494
g12
F0.9997
tp4495
a(S'have'
p4496
g12
F1.0
tp4497
a(S'it'
p4498
g22
F0.9926
tp4499
a(S'back'
p4500
g245
F0.672
tp4501
a(S'if'
p4502
g44
F0.999
tp4503
a(S'you'
p4504
g22
F0.9996
tp4505
a(S'promise'
p4506
g12
F0.9997
tp4507
a(S'me'
p4508
g22
F0.9986
tp4509
a(S'to'
p4510
g44
F0.9767
tp4511
a(S'work'
p4512
g12
F0.7035
tp4513
a(S'on'
p4514
g44
F0.9735
tp4515
a(S'the'
p4516
g3
F0.9994
tp4517
a(S'food'
p4518
g9
F0.9885
tp4519
asI440
(lp4520
(g156
g22
F0.9764
tp4521
a(S'promise'
p4522
g12
F0.9988
tp4523
a(S'www'
p4524
g16
F0.4306
tp4525
a(g156
g22
F0.9241
tp4526
a(S'promise'
p4527
g12
F0.9987
tp4528
a(S'www'
p4529
g16
F0.3528
tp4530
a(g156
g22
F0.9344
tp4531
a(S'promise'
p4532
g12
F0.9988
tp4533
a(S'singing'
p4534
g12
F0.9994
tp4535
a(S'to'
p4536
g44
F0.9927
tp4537
a(S'tune'
p4538
g12
F0.8412
tp4539
a(S'of'
p4540
g44
F0.9426
tp4541
a(S'happy'
p4542
g6
F0.9958
tp4543
a(S'birthday'
p4544
g9
F0.9952
tp4545
asI441
(lp4546
(g156
g22
F0.9776
tp4547
a(S'promise'
p4548
g12
F0.9962
tp4549
asI442
(lp4550
(S'prom'
p4551
g9
F0.3349
tp4552
a(S'c'
p4553
g9
F0.625
tp4554
a(S'prom'
p4555
g9
F0.6796
tp4556
a(g4553
g9
F0.6631
tp4557
asI443
(lp4558
(S'www'
p4559
g16
F0.3889
tp4560
asI444
(lp4561
(S'chi'
p4562
g16
F0.6883
tp4563
a(S'chew'
p4564
g12
F0.9963
tp4565
a(S'your'
p4566
g3
F0.9904
tp4567
a(S'food'
p4568
g9
F0.9965
tp4569
a(S'and'
p4570
g53
F0.9981
tp4571
a(S'then'
p4572
g245
F0.9873
tp4573
a(S'talk'
p4574
g12
F0.941
tp4575
asI445
(lp4576
(S'pretty'
p4577
g6
F0.6383
tp4578
a(S'candles'
p4579
g9
F0.987
tp4580
asI446
(lp4581
(S'mhm'
p4582
g324
F0.9747
tp4583
asI447
(lp4584
(S'when'
p4585
g245
F0.8799
tp4586
a(S'did'
p4587
g12
F0.9947
tp4588
a(S'we'
p4589
g22
F0.9987
tp4590
a(S'get'
p4591
g12
F0.9998
tp4592
a(S'those'
p4593
g22
F0.6788
tp4594
asI448
(lp4595
(S'don'
p4596
g16
F0.5427
tp4597
a(g436
g16
F0.3103
tp4598
a(S'like'
p4599
g44
F0.8966
tp4600
a(S'these'
p4601
g3
F0.9805
tp4602
a(S'flowers'
p4603
g9
F0.991
tp4604
asI449
(lp4605
(g156
g22
F0.9635
tp4606
a(S'don'
p4607
g12
F0.9231
tp4608
a(g436
g358
F0.5827
tp4609
a(S'mm'
p4610
g358
F0.5168
tp4611
a(g156
g22
F0.9398
tp4612
a(S'like'
p4613
g12
F0.8783
tp4614
a(S'flowers'
p4615
g9
F0.9909
tp4616
a(g156
g22
F0.859
tp4617
a(S'don'
p4618
g12
F0.9198
tp4619
a(g436
g12
F0.4265
tp4620
a(S'like'
p4621
g44
F0.938
tp4622
a(S'the'
p4623
g3
F0.9989
tp4624
a(S'french'
p4625
g16
F0.6287
tp4626
a(S'fries'
p4627
g9
F0.754
tp4628
a(S'is'
p4629
g12
F0.995
tp4630
a(S'what'
p4631
g22
F0.9857
tp4632
a(g156
g22
F0.993
tp4633
a(S'meant'
p4634
g12
F0.9992
tp4635
a(S'to'
p4636
g44
F0.8581
tp4637
a(S'say'
p4638
g12
F0.9982
tp4639
a(S'laughing'
p4640
g12
F0.9324
tp4641
asI450
(lp4642
(S'gees'
p4643
g12
F0.2343
tp4644
a(g4553
g9
F0.3639
tp4645
a(S'laughs'
p4646
g12
F0.959
tp4647
asI451
(lp4648
(S'are'
p4649
g12
F0.9926
tp4650
a(S'those'
p4651
g22
F0.5631
tp4652
a(S'hyacinths'
p4653
g9
F0.8361
tp4654
asI452
(lp4655
(S'yep'
p4656
g324
F0.9977
tp4657
asI453
(lp4658
(g156
g22
F0.9897
tp4659
a(S'thought'
p4660
g12
F0.999
tp4661
a(S'so'
p4662
g245
F0.6475
tp4663
asI454
(lp4664
(S'grandma'
p4665
g9
F0.766
tp4666
a(S'thought'
p4667
g12
F0.9767
tp4668
a(S'so'
p4669
g245
F0.6956
tp4670
a(S'too'
p4671
g245
F0.9954
tp4672
a(S'when'
p4673
g245
F0.9957
tp4674
a(S'when'
p4675
g245
F0.9852
tp4676
a(S'we'
p4677
g22
F0.9975
tp4678
a(S'will'
p4679
g12
F0.9993
tp4680
a(S'when'
p4681
g245
F0.9788
tp4682
a(S'we'
p4683
g22
F0.9965
tp4684
a(S'were'
p4685
g12
F0.9982
tp4686
a(S'going'
p4687
g12
F0.9898
tp4688
a(S'to'
p4689
g44
F0.9864
tp4690
a(S'sturbridge'
p4691
g16
F0.8788
tp4692
a(S'village'
p4693
g9
F0.7774
tp4694
a(S'and'
p4695
g53
F0.9984
tp4696
a(S'grandpa'
p4697
g9
F0.6723
tp4698
a(S'said'
p4699
g12
F0.9983
tp4700
a(S'that'
p4701
g44
F0.8306
tp4702
a(S'they'
p4703
g22
F0.9773
tp4704
a(S'weren'
p4705
g12
F0.9717
tp4706
a(g436
g358
F0.296
tp4707
a(S'hyacinths'
p4708
g9
F0.5195
tp4709
asI455
(lp4710
(S'but'
p4711
g53
F0.9944
tp4712
a(S'we'
p4713
g22
F0.9988
tp4714
a(S'knew'
p4715
g12
F0.9997
tp4716
a(S'that'
p4717
g44
F0.7604
tp4718
a(S'they'
p4719
g22
F0.9936
tp4720
a(S'were'
p4721
g12
F0.9982
tp4722
a(S'hyacinths'
p4723
g9
F0.7456
tp4724
a(S'xxx'
p4725
g202
F0.7489
tp4726
asI456
(lp4727
(S'yeah'
p4728
g324
F0.9979
tp4729
a(S'we'
p4730
g22
F0.9994
tp4731
a(S'did'
p4732
g12
F0.9989
tp4733
asI457
(lp4734
(S'see'
p4735
g12
F0.8966
tp4736
a(S'grandpa'
p4737
g9
F0.6307
tp4738
a(S'doesn'
p4739
g12
F0.9557
tp4740
a(g436
g9
F0.3185
tp4741
a(S'know'
p4742
g12
F0.9972
tp4743
a(S'everything'
p4744
g9
F0.9691
tp4745
asI458
(lp4746
(S'mm'
p4747
g324
F0.627
tp4748
asI459
(lp4749
(S'see'
p4750
g12
F0.8889
tp4751
a(S'sis'
p4752
g9
F0.9436
tp4753
asI460
(lp4754
(S'grandpa'
p4755
g9
F0.3183
tp4756
a(S'doesn'
p4757
g12
F0.9564
tp4758
a(g436
g9
F0.3406
tp4759
a(S'know'
p4760
g12
F0.9911
tp4761
a(S'everything'
p4762
g9
F0.9551
tp4763
asI461
(lp4764
(S'what'
p4765
g22
F0.9965
tp4766
a(S'did'
p4767
g12
F0.9962
tp4768
a(S'he'
p4769
g22
F0.9983
tp4770
a(S'think'
p4771
g12
F0.9996
tp4772
a(S'they'
p4773
g22
F0.9948
tp4774
a(S'were'
p4775
g12
F0.9972
tp4776
asI462
(lp4777
(S'he'
p4778
g22
F0.9959
tp4779
a(S'thought'
p4780
g12
F0.9993
tp4781
a(S'they'
p4782
g22
F0.9948
tp4783
a(S'were'
p4784
g12
F0.9956
tp4785
asI463
(lp4786
(S'he'
p4787
g22
F0.99
tp4788
a(S'didn'
p4789
g12
F0.9881
tp4790
a(g436
g12
F0.7449
tp4791
a(S'know'
p4792
g12
F0.9818
tp4793
a(S'but'
p4794
g53
F0.9803
tp4795
a(S'he'
p4796
g22
F0.9965
tp4797
a(S'didn'
p4798
g12
F0.9863
tp4799
a(g436
g12
F0.8502
tp4800
a(S'think'
p4801
g12
F0.9972
tp4802
a(S'they'
p4803
g22
F0.9929
tp4804
a(S'were'
p4805
g12
F0.9975
tp4806
a(S'hyacinths'
p4807
g9
F0.7863
tp4808
asI464
(lp4809
(S'but'
p4810
g53
F0.993
tp4811
a(S'he'
p4812
g22
F0.9991
tp4813
a(S'did'
p4814
g12
F0.9995
tp4815
a(S'not'
p4816
g245
F0.9925
tp4817
a(S'say'
p4818
g12
F0.9864
tp4819
a(S'hyacinth'
p4820
g16
F0.4042
tp4821
asI465
(lp4822
(S'so'
p4823
g245
F0.5039
tp4824
a(S'xxx'
p4825
g202
F0.6702
tp4826
asI466
(lp4827
(g156
g22
F0.9635
tp4828
a(S'don'
p4829
g12
F0.9231
tp4830
a(g436
g12
F0.4066
tp4831
a(S'like'
p4832
g44
F0.8877
tp4833
a(S'peas'
p4834
g9
F0.9508
tp4835
asI467
(lp4836
(S'well'
p4837
g324
F0.9664
tp4838
asI468
(lp4839
(S'come'
p4840
g12
F0.9849
tp4841
a(S'on'
p4842
g182
F0.5632
tp4843
asI469
(lp4844
(S'tomato'
p4845
g9
F0.9598
tp4846
a(S'in'
p4847
g44
F0.9986
tp4848
a(S'my'
p4849
g3
F0.9972
tp4850
a(S'tomato'
p4851
g9
F0.9982
tp4852
a(S'in'
p4853
g44
F0.9985
tp4854
a(S'my'
p4855
g3
F0.9964
tp4856
a(S'ketchup'
p4857
g9
F0.9971
tp4858
a(S'singing'
p4859
g12
F0.9935
tp4860
asI470
(lp4861
(S'hums'
p4862
g12
F0.3637
tp4863
asI471
(lp4864
(S'how'
p4865
g245
F0.9802
tp4866
a(S'come'
p4867
g12
F0.9946
tp4868
a(S'on'
p4869
g44
F0.9346
tp4870
a(S'the'
p4871
g3
F0.9995
tp4872
a(S'phone'
p4873
g9
F0.9926
tp4874
a(S'book'
p4875
g12
F0.608
tp4876
a(S'it'
p4877
g22
F0.9941
tp4878
a(S'says'
p4879
g12
F0.9989
tp4880
a(S'worcester'
p4881
g16
F0.6191
tp4882
a(S'massachusetts'
p4883
g16
F0.9901
tp4884
a(S'east'
p4885
g6
F0.4473
tp4886
asI472
(lp4887
(S'we'
p4888
g22
F0.9831
tp4889
a(S're'
p4890
g12
F0.7345
tp4891
a(S'east'
p4892
g6
F0.5151
tp4893
asI473
(lp4894
(S'west'
p4895
g16
F0.5656
tp4896
a(S'massachusetts'
p4897
g16
F0.9983
tp4898
a(S'isn'
p4899
g358
F0.5691
tp4900
a(g436
g358
F0.7591
tp4901
a(S'in'
p4902
g44
F0.9692
tp4903
a(S'there'
p4904
g245
F0.5783
tp4905
asI474
(lp4906
(S'it'
p4907
g22
F0.9949
tp4908
a(S'used'
p4909
g12
F0.9706
tp4910
a(S'to'
p4911
g44
F0.9783
tp4912
a(S'be'
p4913
g12
F0.9988
tp4914
a(S'cause'
p4915
g44
F0.7529
tp4916
a(S'xxx'
p4917
g202
F0.6389
tp4918
a(S'jillie'
p4919
g16
F0.8445
tp4920
a(g357
g16
F0.4143
tp4921
a(S'number'
p4922
g9
F0.9119
tp4923
a(S'in'
p4924
g44
F0.9966
tp4925
a(S'there'
p4926
g245
F0.5188
tp4927
asI475
(lp4928
(S'any'
p4929
g3
F0.9578
tp4930
a(S'western'
p4931
g6
F0.9844
tp4932
a(S'worcester'
p4933
g9
F0.8661
tp4934
asI476
(lp4935
(S'no'
p4936
g324
F0.9253
tp4937
asI477
(lp4938
(g156
g22
F0.9858
tp4939
a(S'wonder'
p4940
g12
F0.9844
tp4941
a(S'what'
p4942
g22
F0.9707
tp4943
a(S'um'
p4944
g324
F0.743
tp4945
a(S'um'
p4946
g324
F0.9286
tp4947
a(S'ah'
p4948
g324
F0.9686
tp4949
a(S'um'
p4950
g324
F0.9702
tp4951
a(S'ah'
p4952
g324
F0.9877
tp4953
asI478
(lp4954
(S'what'
p4955
g22
F0.9931
tp4956
a(S'do'
p4957
g12
F0.9991
tp4958
a(S'you'
p4959
g22
F0.9996
tp4960
a(S'wonder'
p4961
g12
F0.911
tp4962
asI479
(lp4963
(S'chrissie'
p4964
g16
F0.9965
tp4965
a(g357
g358
F0.3726
tp4966
a(S'house'
p4967
g9
F0.9358
tp4968
a(S'gets'
p4969
g12
F0.9982
tp4970
a(S'like'
p4971
g44
F0.6782
tp4972
asI480
(lp4973
(S'she'
p4974
g22
F0.997
tp4975
a(S'has'
p4976
g12
F0.9997
tp4977
a(S'an'
p4978
g3
F0.993
tp4979
a(S'apartment'
p4980
g9
F0.998
tp4981
asI481
(lp4982
(S'oh'
p4983
g324
F0.9988
tp4984
asI482
(lp4985
(S'mm'
p4986
g324
F0.627
tp4987
asI483
(lp4988
(S'yeah'
p4989
g324
F0.9933
tp4990
a(S'and'
p4991
g53
F0.999
tp4992
a(S'she'
p4993
g22
F0.9914
tp4994
a(S'she'
p4995
g22
F0.9942
tp4996
a(S'has'
p4997
g12
F0.9998
tp4998
a(S'her'
p4999
g3
F0.9453
tp5000
a(S'own'
p5001
g6
F0.5794
tp5002
a(S'room'
p5003
g9
F0.993
tp5004
asI484
(lp5005
(S'mhm'
p5006
g324
F0.9747
tp5007
asI485
(lp5008
(S'and'
p5009
g53
F0.9992
tp5010
a(S'her'
p5011
g3
F0.9482
tp5012
a(S'brothers'
p5013
g9
F0.9945
tp5014
a(S'share'
p5015
g12
F0.9572
tp5016
a(g77
g3
F0.9987
tp5017
a(S'room'
p5018
g9
F0.9925
tp5019
a(S'and'
p5020
g53
F0.9978
tp5021
a(S'her'
p5022
g3
F0.9
tp5023
a(S'mother'
p5024
g9
F0.998
tp5025
a(S'has'
p5026
g12
F0.9992
tp5027
a(S'her'
p5028
g3
F0.9594
tp5029
a(S'own'
p5030
g9
F0.5298
tp5031
a(S'room'
p5032
g9
F0.9882
tp5033
asI486
(lp5034
(S'and'
p5035
g53
F0.9991
tp5036
a(S'they'
p5037
g22
F0.9967
tp5038
a(S'have'
p5039
g12
F0.9999
tp5040
a(g77
g3
F0.9976
tp5041
a(S'bath'
p5042
g9
F0.9937
tp5043
a(S'room'
p5044
g9
F0.9922
tp5045
a(S'and'
p5046
g53
F0.999
tp5047
a(g77
g3
F0.9921
tp5048
a(S'kitchen'
p5049
g9
F0.9902
tp5050
asI487
(lp5051
(S'well'
p5052
g324
F0.7646
tp5053
a(S'everyone'
p5054
g9
F0.8677
tp5055
a(S'has'
p5056
g12
F0.9986
tp5057
a(g77
g3
F0.9961
tp5058
a(S'bath'
p5059
g9
F0.9931
tp5060
a(S'room'
p5061
g9
F0.9905
tp5062
asI488
(lp5063
(S'and'
p5064
g53
F0.9996
tp5065
a(g77
g3
F0.959
tp5066
a(S'living'
p5067
g6
F0.5515
tp5068
a(S'room'
p5069
g9
F0.9981
tp5070
asI489
(lp5071
(S'mm'
p5072
g324
F0.627
tp5073
asI490
(lp5074
(S'and'
p5075
g53
F0.9987
tp5076
a(S'then'
p5077
g245
F0.9659
tp5078
a(S'they'
p5079
g22
F0.9965
tp5080
a(S'have'
p5081
g12
F0.9999
tp5082
a(S'the'
p5083
g3
F0.9997
tp5084
a(S'table'
p5085
g9
F0.9931
tp5086
a(S'where'
p5087
g245
F0.9693
tp5088
a(S'they'
p5089
g22
F0.9933
tp5090
a(S'eat'
p5091
g12
F0.9963
tp5092
asI491
(lp5093
(S'they'
p5094
g22
F0.9926
tp5095
a(S'have'
p5096
g12
F0.9997
tp5097
a(S'like'
p5098
g44
F0.9609
tp5099
a(g77
g3
F0.9967
tp5100
a(S'little'
p5101
g6
F0.9744
tp5102
a(g77
g3
F0.9888
tp5103
a(S'little'
p5104
g6
F0.9959
tp5105
a(S'kitchen'
p5106
g9
F0.9727
tp5107
a(S'it'
p5108
g22
F0.9526
tp5109
a(g357
g12
F0.7561
tp5110
a(S'like'
p5111
g44
F0.9011
tp5112
a(g77
g3
F0.9939
tp5113
a(S'pantry'
p5114
g9
F0.9905
tp5115
a(S'and'
p5116
g53
F0.9982
tp5117
a(S'then'
p5118
g245
F0.9559
tp5119
a(S'the'
p5120
g3
F0.9978
tp5121
a(S'table'
p5122
g9
F0.9927
tp5123
a(S'is'
p5124
g12
F0.9995
tp5125
a(S'out'
p5126
g245
F0.3941
tp5127
a(S'near'
p5128
g44
F0.9986
tp5129
a(S'the'
p5130
g3
F0.9919
tp5131
a(S'living'
p5132
g9
F0.3197
tp5133
a(S'room'
p5134
g9
F0.996
tp5135
asI492
(lp5136
(S'mm'
p5137
g324
F0.627
tp5138
asI493
(lp5139
(S'may'
p5140
g12
F0.6073
tp5141
a(g156
g22
F0.9866
tp5142
a(S'please'
p5143
g12
F0.9994
tp5144
a(S'be'
p5145
g12
F0.9954
tp5146
a(S'excused'
p5147
g12
F0.9287
tp5148
asI494
(lp5149
(S'well'
p5150
g324
F0.9268
tp5151
a(S'why'
p5152
g245
F0.9262
tp5153
a(S'don'
p5154
g9
F0.278
tp5155
a(g436
g12
F0.5356
tp5156
a(S'you'
p5157
g22
F0.9992
tp5158
a(S'sit'
p5159
g12
F0.9982
tp5160
a(S'here'
p5161
g245
F0.9881
tp5162
a(S'and'
p5163
g53
F0.9968
tp5164
a(S'talk'
p5165
g12
F0.9606
tp5166
a(S'to'
p5167
g44
F0.9973
tp5168
a(S'us'
p5169
g22
F0.9432
tp5170
a(S'for'
p5171
g44
F0.9991
tp5172
a(g77
g3
F0.8703
tp5173
a(S'while'
p5174
g9
F0.74
tp5175
asI495
(lp5176
(S'xxx'
p5177
g202
F0.7728
tp5178
a(g156
g22
F0.9829
tp5179
a(S'can'
p5180
g12
F0.9996
tp5181
a(g436
g12
F0.6239
tp5182
a(S'talk'
p5183
g12
F0.9536
tp5184
asI496
(lp5185
(g156
g22
F0.9873
tp5186
a(S'can'
p5187
g12
F0.9996
tp5188
a(g436
g12
F0.7452
tp5189
a(S'talk'
p5190
g12
F0.8517
tp5191
asI497
(lp5192
(S'www'
p5193
g16
F0.3889
tp5194
asI498
(lp5195
(S'didn'
p5196
g12
F0.598
tp5197
a(g436
g12
F0.9478
tp5198
a(S'you'
p5199
g22
F0.9972
tp5200
a(S'sleep'
p5201
g12
F0.9341
tp5202
a(S'at'
p5203
g44
F0.994
tp5204
a(S'nap'
p5205
g9
F0.8638
tp5206
a(S'time'
p5207
g9
F0.9943
tp5208
asI499
(lp5209
(g2580
g27
F0.9638
tp5210
asI500
(lp5211
(S'no'
p5212
g324
F0.9253
tp5213
asI501
(lp5214
(S'no'
p5215
g3
F0.4436
tp5216
a(S'whining'
p5217
g12
F0.9847
tp5218
a(S'softly'
p5219
g245
F0.8959
tp5220
asI502
(lp5221
(S'did'
p5222
g12
F0.9986
tp5223
a(S'you'
p5224
g22
F0.9986
tp5225
a(S'get'
p5226
g12
F0.9999
tp5227
a(g77
g3
F0.9863
tp5228
a(S'rub'
p5229
g9
F0.7281
tp5230
a(g77
g3
F0.9846
tp5231
a(S'dub'
p5232
g9
F0.9884
tp5233
asI503
(lp5234
(S'gee'
p5235
g324
F0.8601
tp5236
a(S'you'
p5237
g22
F0.9958
tp5238
a(S'were'
p5239
g12
F0.9998
tp5240
a(S'up'
p5241
g182
F0.922
tp5242
a(S'so'
p5243
g245
F0.958
tp5244
a(S'late'
p5245
g6
F0.862
tp5246
a(S'last'
p5247
g6
F0.9863
tp5248
a(S'night'
p5249
g9
F0.9963
tp5250
a(g156
g22
F0.9758
tp5251
a(S'figure'
p5252
g12
F0.9996
tp5253
a(S'you'
p5254
g22
F0.9969
tp5255
a(g4008
g12
F0.6236
tp5256
a(S'take'
p5257
g12
F0.9975
tp5258
a(g77
g3
F0.9974
tp5259
a(S'nap'
p5260
g9
F0.9965
tp5261
a(S'today'
p5262
g9
F0.9956
tp5263
asI504
(lp5264
(S'you'
p5265
g22
F0.9754
tp5266
a(S're'
p5267
g12
F0.5918
tp5268
a(S'gonna'
p5269
g12
F0.9939
tp5270
a(S'be'
p5271
g12
F0.9994
tp5272
a(S'tired'
p5273
g6
F0.8355
tp5274
a(S'tonight'
p5275
g9
F0.6891
tp5276
a(S'huh'
p5277
g324
F0.9307
tp5278
asI505
(lp5279
(S'mhm'
p5280
g324
F0.9747
tp5281
asI506
(lp5282
(S'mhm'
p5283
g324
F0.9747
tp5284
asI507
(lp5285
(g156
g22
F0.9891
tp5286
a(S'took'
p5287
g12
F0.9999
tp5288
a(g77
g3
F0.9943
tp5289
a(S'long'
p5290
g6
F0.9955
tp5291
a(S'nap'
p5292
g9
F0.997
tp5293
a(S'yesterday'
p5294
g9
F0.9374
tp5295
asI508
(lp5296
(S'that'
p5297
g22
F0.473
tp5298
a(g357
g358
F0.472
tp5299
a(S'why'
p5300
g245
F0.9629
tp5301
a(g156
g22
F0.9961
tp5302
a(S'was'
p5303
g12
F0.9997
tp5304
a(S'too'
p5305
g245
F0.9998
tp5306
a(S'much'
p5307
g245
F0.5782
tp5308
a(S'awake'
p5309
g6
F0.9911
tp5310
asI509
(lp5311
(S'come'
p5312
g12
F0.9888
tp5313
a(S'here'
p5314
g245
F0.9942
tp5315
a(S'and'
p5316
g53
F0.9963
tp5317
a(S'sit'
p5318
g12
F0.9859
tp5319
a(S'on'
p5320
g44
F0.8339
tp5321
a(S'my'
p5322
g3
F0.9979
tp5323
a(S'lap'
p5324
g9
F0.9974
tp5325
asI510
(lp5326
(S'that'
p5327
g22
F0.473
tp5328
a(g357
g358
F0.472
tp5329
a(S'why'
p5330
g245
F0.9575
tp5331
a(S'you'
p5332
g22
F0.9987
tp5333
a(S'couldn'
p5334
g12
F0.9883
tp5335
a(g436
g12
F0.7925
tp5336
a(S'fall'
p5337
g12
F0.8281
tp5338
a(S'asleep'
p5339
g245
F0.9253
tp5340
a(S'last'
p5341
g6
F0.9934
tp5342
a(S'night'
p5343
g9
F0.9886
tp5344
asI511
(lp5345
(S'mhm'
p5346
g324
F0.9747
tp5347
asI512
(lp5348
(S'be'
p5349
g12
F0.9727
tp5350
a(S'cause'
p5351
g44
F0.9443
tp5352
a(S'you'
p5353
g22
F0.9996
tp5354
a(S'took'
p5355
g12
F0.9992
tp5356
a(S'too'
p5357
g245
F0.9983
tp5358
a(S'long'
p5359
g6
F0.949
tp5360
a(g77
g3
F0.9711
tp5361
a(S'nap'
p5362
g9
F0.9953
tp5363
a(S'yesterday'
p5364
g9
F0.9294
tp5365
asI513
(lp5366
(S'mhm'
p5367
g324
F0.9747
tp5368
asI514
(lp5369
(S'that'
p5370
g22
F0.5553
tp5371
a(S'happens'
p5372
g12
F0.9965
tp5373
asI515
(lp5374
(S'but'
p5375
g53
F0.993
tp5376
a(S'you'
p5377
g22
F0.999
tp5378
a(S'didn'
p5379
g12
F0.9885
tp5380
a(g436
g12
F0.7957
tp5381
a(S'take'
p5382
g12
F0.9971
tp5383
a(S'any'
p5384
g3
F0.995
tp5385
a(S'nap'
p5386
g9
F0.9957
tp5387
a(S'today'
p5388
g9
F0.9754
tp5389
a(S'right'
p5390
g245
F0.5526
tp5391
asI516
(lp5392
(S'right'
p5393
g324
F0.861
tp5394
asI517
(lp5395
(S'so'
p5396
g44
F0.8338
tp5397
a(S'you'
p5398
g22
F0.9992
tp5399
a(S'll'
p5400
g12
F0.5577
tp5401
a(S'probably'
p5402
g245
F0.9996
tp5403
a(S'be'
p5404
g12
F0.9971
tp5405
a(S'ready'
p5406
g6
F0.9602
tp5407
a(S'to'
p5408
g44
F0.9991
tp5409
a(S'fall'
p5410
g12
F0.9826
tp5411
a(S'asleep'
p5412
g245
F0.9826
tp5413
a(S'tonight'
p5414
g245
F0.979
tp5415
a(S'right'
p5416
g6
F0.4194
tp5417
asI518
(lp5418
(S'right'
p5419
g324
F0.4239
tp5420
a(S'laughs'
p5421
g12
F0.8332
tp5422
asI519
(lp5423
(S'right'
p5424
g245
F0.5118
tp5425
a(S'www'
p5426
g16
F0.3914
tp5427
asI520
(lp5428
(S'push'
p5429
g12
F0.8818
tp5430
a(S'over'
p5431
g44
F0.8017
tp5432
a(S'it'
p5433
g22
F0.9995
tp5434
a(S'laughing'
p5435
g12
F0.9793
tp5436
asI521
(lp5437
(S'push'
p5438
g12
F0.8291
tp5439
a(S'over'
p5440
g44
F0.8017
tp5441
a(S'it'
p5442
g22
F0.9989
tp5443
asI522
(lp5444
(g156
g22
F0.9897
tp5445
a(S'want'
p5446
g12
F0.9999
tp5447
a(S'to'
p5448
g44
F0.9763
tp5449
a(S'xxx'
p5450
g12
F0.7539
tp5451
a(S'on'
p5452
g44
F0.9076
tp5453
a(S'that'
p5454
g3
F0.8887
tp5455
a(S'thing'
p5456
g9
F0.9974
tp5457
asI523
(lp5458
(S'oh'
p5459
g324
F0.9843
tp5460
a(S'it'
p5461
g22
F0.9972
tp5462
a(S'is'
p5463
g12
F0.9988
tp5464
a(S'time'
p5465
g9
F0.9767
tp5466
a(S'for'
p5467
g44
F0.9994
tp5468
a(S'dessert'
p5469
g9
F0.9779
tp5470
a(g156
g22
F0.9336
tp5471
a(S'guess'
p5472
g12
F0.9995
tp5473
asI524
(lp5474
(S'you'
p5475
g22
F0.9754
tp5476
a(S're'
p5477
g12
F0.7849
tp5478
a(S'not'
p5479
g245
F0.997
tp5480
a(S'going'
p5481
g12
F0.9991
tp5482
a(S'to'
p5483
g44
F0.9806
tp5484
a(S'finish'
p5485
g12
F0.9997
tp5486
a(S'your'
p5487
g3
F0.993
tp5488
a(S'salad'
p5489
g9
F0.9969
tp5490
a(S'sis'
p5491
g9
F0.9833
tp5492
asI525
(lp5493
(S'yeah'
p5494
g324
F0.9988
tp5495
asI526
(lp5496
(g156
g22
F0.9635
tp5497
a(S'don'
p5498
g12
F0.9231
tp5499
a(g436
g12
F0.4437
tp5500
a(S'like'
p5501
g44
F0.9423
tp5502
a(S'the'
p5503
g3
F0.9944
tp5504
a(S'dressing'
p5505
g12
F0.518
tp5506
a(S'that'
p5507
g245
F0.4093
tp5508
a(S'much'
p5509
g6
F0.8898
tp5510
asI527
(lp5511
(S'xxx'
p5512
g202
F0.8437
tp5513
asI528
(lp5514
(g77
g3
F0.9953
tp5515
a(S'little'
p5516
g6
F0.9989
tp5517
a(S'bit'
p5518
g9
F0.954
tp5519
asI529
(lp5520
(S'it'
p5521
g22
F0.9888
tp5522
a(g357
g12
F0.5832
tp5523
a(S'sweet'
p5524
g6
F0.9931
tp5525
a(S'or'
p5526
g53
F0.9919
tp5527
a(S'something'
p5528
g9
F0.9921
tp5529
asI530
(lp5530
(S'xxx'
p5531
g202
F0.8437
tp5532
asI531
(lp5533
(S'is'
p5534
g12
F0.9963
tp5535
a(S'everybody'
p5536
g9
F0.7031
tp5537
a(S'having'
p5538
g12
F0.9982
tp5539
a(S'cake'
p5540
g9
F0.9946
tp5541
asI532
(lp5542
(S'what'
p5543
g22
F0.8282
tp5544
a(S'kind'
p5545
g9
F0.8221
tp5546
asI533
(lp5547
(S'hm'
p5548
g324
F0.995
tp5549
asI534
(lp5550
(S'chocolate'
p5551
g9
F0.9231
tp5552
a(S'mousse'
p5553
g9
F0.9966
tp5554
asI535
(lp5555
(S'sure'
p5556
g6
F0.8345
tp5557
asI536
(lp5558
(S'you'
p5559
g22
F0.9754
tp5560
a(S're'
p5561
g12
F0.7849
tp5562
a(S'not'
p5563
g245
F0.9929
tp5564
a(S'having'
p5565
g12
F0.9979
tp5566
a(S'cake'
p5567
g9
F0.9901
tp5568
asI537
(lp5569
(g156
g22
F0.9897
tp5570
a(S'want'
p5571
g12
F1.0
tp5572
a(g77
g3
F0.9971
tp5573
a(S'chocolate'
p5574
g9
F0.9862
tp5575
asI538
(lp5576
(S'fifteen'
p5577
g27
F0.8655
tp5578
a(S'minutes'
p5579
g9
F0.9887
tp5580
a(S'and'
p5581
g53
F0.9983
tp5582
a(S'it'
p5583
g22
F0.9966
tp5584
a(g357
g358
F0.4534
tp5585
a(S'still'
p5586
g245
F0.9808
tp5587
a(S'wasn'
p5588
g12
F0.77
tp5589
a(g436
g358
F0.5985
tp5590
a(S'xxx'
p5591
g202
F0.5468
tp5592
asI539
(lp5593
(S'mommy'
p5594
g9
F0.5676
tp5595
a(S'mommy'
p5596
g9
F0.8707
tp5597
asI540
(lp5598
(S'if'
p5599
g44
F0.9977
tp5600
a(S'you'
p5601
g22
F0.9998
tp5602
a(S'want'
p5603
g12
F0.9994
tp5604
a(S'cake'
p5605
g9
F0.9796
tp5606
a(S'raise'
p5607
g12
F0.996
tp5608
a(S'your'
p5609
g3
F0.9964
tp5610
a(S'hand'
p5611
g9
F0.9987
tp5612
asI541
(lp5613
(g156
g22
F0.9897
tp5614
a(S'mean'
p5615
g12
F0.9962
tp5616
a(S'if'
p5617
g44
F0.9983
tp5618
a(S'you'
p5619
g22
F0.9994
tp5620
a(S'don'
p5621
g12
F0.8626
tp5622
a(g436
g9
F0.2294
tp5623
a(S'want'
p5624
g12
F0.9929
tp5625
a(S'cake'
p5626
g9
F0.9817
tp5627
a(S'raise'
p5628
g12
F0.9923
tp5629
a(S'your'
p5630
g3
F0.9969
tp5631
a(S'hand'
p5632
g9
F0.999
tp5633
asI542
(lp5634
(g156
g22
F0.9635
tp5635
a(S'don'
p5636
g12
F0.9231
tp5637
a(g436
g9
F0.2418
tp5638
a(S'see'
p5639
g12
F0.994
tp5640
a(S'any'
p5641
g3
F0.9971
tp5642
a(S'hands'
p5643
g9
F0.9944
tp5644
a(S'raised'
p5645
g12
F0.9136
tp5646
asI543
(lp5647
(S'the'
p5648
g3
F0.9981
tp5649
a(S'napkin'
p5650
g9
F0.9932
tp5651
a(g357
g358
F0.5948
tp5652
a(S'raising'
p5653
g12
F0.9967
tp5654
a(S'its'
p5655
g3
F0.5518
tp5656
a(S'hand'
p5657
g9
F0.996
tp5658
asI544
(lp5659
(S'well'
p5660
g324
F0.8754
tp5661
a(S'chi'
p5662
g16
F0.6527
tp5663
a(g357
g16
F0.6644
tp5664
a(S'raising'
p5665
g12
F0.9982
tp5666
a(S'her'
p5667
g22
F0.6274
tp5668
a(g357
g358
F0.8215
tp5669
asI545
(lp5670
(S'you'
p5671
g22
F0.9926
tp5672
a(S'don'
p5673
g12
F0.8675
tp5674
a(g436
g9
F0.2503
tp5675
a(S'want'
p5676
g12
F0.9974
tp5677
a(S'any'
p5678
g3
F0.9942
tp5679
a(S'cake'
p5680
g9
F0.9954
tp5681
asI546
(lp5682
(S'hm'
p5683
g324
F0.995
tp5684
asI547
(lp5685
(g2580
g27
F0.9682
tp5686
a(S'do'
p5687
g12
F0.9935
tp5688
a(S'you'
p5689
g22
F0.9997
tp5690
a(S'want'
p5691
g12
F0.9998
tp5692
a(S'something'
p5693
g9
F0.9796
tp5694
a(S'else'
p5695
g245
F0.9805
tp5696
a(S'instead'
p5697
g245
F0.9297
tp5698
asI548
(lp5699
(S'mhm'
p5700
g324
F0.9747
tp5701
asI549
(lp5702
(S'what'
p5703
g22
F0.949
tp5704
asI550
(lp5705
(S'www'
p5706
g16
F0.3889
tp5707
asI551
(lp5708
(S'take'
p5709
g12
F0.9973
tp5710
a(S'your'
p5711
g3
F0.997
tp5712
a(S'fingers'
p5713
g9
F0.9979
tp5714
a(S'out'
p5715
g44
F0.9866
tp5716
a(S'of'
p5717
g44
F0.9974
tp5718
a(S'your'
p5719
g3
F0.9972
tp5720
a(S'mouth'
p5721
g9
F0.9996
tp5722
a(S'and'
p5723
g53
F0.9959
tp5724
a(S'talk'
p5725
g12
F0.9536
tp5726
a(S'to'
p5727
g44
F0.998
tp5728
a(S'me'
p5729
g22
F0.9985
tp5730
asI552
(lp5731
(S'www'
p5732
g16
F0.3889
tp5733
asI553
(lp5734
(g156
g22
F0.9635
tp5735
a(S'don'
p5736
g12
F0.9231
tp5737
a(g436
g9
F0.3703
tp5738
a(S'understand'
p5739
g12
F0.9819
tp5740
a(S'www'
p5741
g16
F0.4862
tp5742
asI554
(lp5743
(S'www'
p5744
g16
F0.3889
tp5745
asI555
(lp5746
(S'she'
p5747
g22
F0.997
tp5748
a(S'said'
p5749
g12
F0.9953
tp5750
a(S'www'
p5751
g16
F0.3003
tp5752
asI556
(lp5753
(S'how'
p5754
g245
F0.9793
tp5755
a(S'would'
p5756
g12
F0.9991
tp5757
a(S'it'
p5758
g22
F0.9847
tp5759
a(S'be'
p5760
g12
F0.9994
tp5761
a(S'if'
p5762
g44
F0.9986
tp5763
a(S'we'
p5764
g22
F0.9952
tp5765
a(S'all'
p5766
g3
F0.4487
tp5767
a(S'talked'
p5768
g12
F0.9326
tp5769
a(S'to'
p5770
g44
F0.9963
tp5771
a(S'you'
p5772
g22
F0.9972
tp5773
a(S'like'
p5774
g12
F0.7727
tp5775
a(S'that'
p5776
g22
F0.9042
tp5777
asI557
(lp5778
(S'you'
p5779
g22
F0.9911
tp5780
a(S'wouldn'
p5781
g12
F0.9872
tp5782
a(g436
g12
F0.7409
tp5783
a(S'know'
p5784
g12
F0.9856
tp5785
a(S'what'
p5786
g22
F0.9976
tp5787
a(S'was'
p5788
g12
F0.9945
tp5789
a(S'going'
p5790
g12
F0.979
tp5791
a(S'on'
p5792
g182
F0.6049
tp5793
asI558
(lp5794
(S'www'
p5795
g16
F0.3889
tp5796
asI559
(lp5797
(S'www'
p5798
g16
F0.3889
tp5799
asI560
(lp5800
(S'www'
p5801
g16
F0.3889
tp5802
asI561
(lp5803
(S'www'
p5804
g16
F0.3889
tp5805
asI562
(lp5806
(S'www'
p5807
g16
F0.3889
tp5808
asI563
(lp5809
(S'www'
p5810
g16
F0.3889
tp5811
asI564
(lp5812
(S'www'
p5813
g16
F0.3889
tp5814
asI565
(lp5815
(S'www'
p5816
g16
F0.3889
tp5817
asI566
(lp5818
(S'alright'
p5819
g324
F0.9807
tp5820
a(S'that'
p5821
g22
F0.5804
tp5822
a(g357
g12
F0.4875
tp5823
a(S'enough'
p5824
g245
F0.4168
tp5825
a(S'of'
p5826
g44
F0.9932
tp5827
a(S'that'
p5828
g22
F0.8208
tp5829
asI567
(lp5830
(S'www'
p5831
g16
F0.3889
tp5832
asI568
(lp5833
(S'www'
p5834
g16
F0.3889
tp5835
asI569
(lp5836
(S'hi'
p5837
g324
F0.993
tp5838
asI570
(lp5839
(S'so'
p5840
g44
F0.6
tp5841
a(S'who'
p5842
g22
F0.9981
tp5843
a(S'put'
p5844
g12
F0.9982
tp5845
a(S'this'
p5846
g3
F0.7171
tp5847
a(S'braid'
p5848
g9
F0.8819
tp5849
a(S'in'
p5850
g44
F0.9945
tp5851
a(S'your'
p5852
g3
F0.9962
tp5853
a(S'hair'
p5854
g9
F0.9992
tp5855
a(S'today'
p5856
g9
F0.9947
tp5857
asI571
(lp5858
(S'karen'
p5859
g16
F0.9447
tp5860
asI572
(lp5861
(S'www'
p5862
g16
F0.3889
tp5863
asI573
(lp5864
(S'xxx'
p5865
g202
F0.8437
tp5866
asI574
(lp5867
(S'well'
p5868
g324
F0.8954
tp5869
a(S'she'
p5870
g22
F0.9996
tp5871
a(S'did'
p5872
g12
F0.996
tp5873
a(S'very'
p5874
g245
F0.9674
tp5875
a(S'xxx'
p5876
g202
F0.4859
tp5877
a(S'nice'
p5878
g6
F0.9987
tp5879
a(S'job'
p5880
g9
F0.9908
tp5881
asI575
(lp5882
(S'huh'
p5883
g324
F0.993
tp5884
asI576
(lp5885
(S'xxx'
p5886
g202
F0.8437
tp5887
asI577
(lp5888
(S'what'
p5889
g22
F0.9931
tp5890
a(S'do'
p5891
g12
F0.9993
tp5892
a(S'you'
p5893
g22
F0.9994
tp5894
a(S'call'
p5895
g12
F0.998
tp5896
a(S'it'
p5897
g22
F0.9863
tp5898
asI578
(lp5899
(S'what'
p5900
g22
F0.8373
tp5901
a(S'kind'
p5902
g9
F0.9635
tp5903
a(S'of'
p5904
g44
F0.9972
tp5905
a(S'braid'
p5906
g9
F0.5627
tp5907
a(S'is'
p5908
g12
F0.9998
tp5909
a(S'it'
p5910
g22
F0.9984
tp5911
asI579
(lp5912
(S'french'
p5913
g16
F0.6819
tp5914
a(S'and'
p5915
g53
F0.9983
tp5916
a(S'uh'
p5917
g324
F0.9182
tp5918
asI580
(lp5919
(g156
g22
F0.953
tp5920
a(g764
g12
F0.9864
tp5921
a(S'askin'
p5922
g12
F0.9923
tp5923
a(g1462
g12
F0.4096
tp5924
a(S'her'
p5925
g22
F0.8055
tp5926
asI581
(lp5927
(S'french'
p5928
g16
F0.6747
tp5929
asI582
(lp5930
(S'what'
p5931
g22
F0.8235
tp5932
a(S'french'
p5933
g6
F0.7644
tp5934
asI583
(lp5935
(S'it'
p5936
g22
F0.9888
tp5937
a(g357
g12
F0.7442
tp5938
a(S'an'
p5939
g3
F0.7926
tp5940
a(S'under'
p5941
g44
F0.8028
tp5942
a(S'french'
p5943
g16
F0.7255
tp5944
a(S'braid'
p5945
g16
F0.5222
tp5946
asI584
(lp5947
(S'under'
p5948
g44
F0.9263
tp5949
a(S'french'
p5950
g16
F0.4752
tp5951
asI585
(lp5952
(S'why'
p5953
g245
F0.7746
tp5954
a(S'is'
p5955
g12
F0.9993
tp5956
a(S'it'
p5957
g22
F0.9989
tp5958
a(S'under'
p5959
g44
F0.9272
tp5960
asI586
(lp5961
(S'is'
p5962
g12
F0.9993
tp5963
a(S'it'
p5964
g22
F0.9985
tp5965
a(S'like'
p5966
g12
F0.6027
tp5967
a(S'underwear'
p5968
g9
F0.9952
tp5969
a(S'or'
p5970
g53
F0.9904
tp5971
asI587
(lp5972
(g2580
g27
F0.9755
tp5973
a(S'sighs'
p5974
g9
F0.6844
tp5975
a(S'laughs'
p5976
g12
F0.9246
tp5977
asI588
(lp5978
(S'under'
p5979
g44
F0.916
tp5980
asI589
(lp5981
(S'because'
p5982
g44
F0.9976
tp5983
a(S'it'
p5984
g22
F0.9984
tp5985
a(g357
g12
F0.9199
tp5986
a(S'it'
p5987
g22
F0.9938
tp5988
a(g357
g12
F0.7194
tp5989
a(S'braided'
p5990
g6
F0.5402
tp5991
asI590
(lp5992
(S'you'
p5993
g22
F0.9966
tp5994
a(S'put'
p5995
g12
F0.9991
tp5996
a(S'the'
p5997
g3
F0.9998
tp5998
a(S'hair'
p5999
g9
F0.9983
tp6000
a(S'under'
p6001
g44
F0.9998
tp6002
a(S'the'
p6003
g3
F0.9997
tp6004
a(S'hair'
p6005
g9
F0.9967
tp6006
a(S'instead'
p6007
g245
F0.8531
tp6008
a(S'of'
p6009
g44
F0.9956
tp6010
a(S'putting'
p6011
g12
F0.9956
tp6012
a(S'the'
p6013
g3
F0.9998
tp6014
a(S'hair'
p6015
g9
F0.9984
tp6016
a(S'over'
p6017
g44
F0.998
tp6018
a(S'the'
p6019
g3
F0.9997
tp6020
a(S'hair'
p6021
g9
F0.9982
tp6022
asI591
(lp6023
(S'like'
p6024
g44
F0.8448
tp6025
a(S'you'
p6026
g22
F0.9997
tp6027
a(S'take'
p6028
g12
F0.9998
tp6029
a(g77
g3
F0.9975
tp6030
a(S'piece'
p6031
g9
F0.9918
tp6032
a(S'and'
p6033
g53
F0.9968
tp6034
a(S'you'
p6035
g22
F0.9993
tp6036
a(S'put'
p6037
g12
F0.9993
tp6038
a(S'it'
p6039
g22
F0.98
tp6040
a(S'under'
p6041
g44
F0.8735
tp6042
a(S'and'
p6043
g53
F0.9983
tp6044
a(S'then'
p6045
g245
F0.9839
tp6046
a(S'you'
p6047
g22
F0.9993
tp6048
a(S'take'
p6049
g12
F0.9998
tp6050
a(S'the'
p6051
g3
F0.9998
tp6052
a(S'next'
p6053
g6
F0.9377
tp6054
a(S'piece'
p6055
g9
F0.9947
tp6056
a(S'and'
p6057
g53
F0.9968
tp6058
a(S'you'
p6059
g22
F0.9993
tp6060
a(S'put'
p6061
g12
F0.9993
tp6062
a(S'it'
p6063
g22
F0.9844
tp6064
a(S'under'
p6065
g44
F0.9503
tp6066
asI592
(lp6067
(S'oh'
p6068
g324
F0.9878
tp6069
a(S'you'
p6070
g22
F0.9963
tp6071
a(S'mean'
p6072
g12
F0.9813
tp6073
a(S'when'
p6074
g245
F0.9834
tp6075
a(S'you'
p6076
g22
F0.9924
tp6077
a(S're'
p6078
g12
F0.7982
tp6079
a(S'weaving'
p6080
g12
F0.9994
tp6081
a(S'it'
p6082
g22
F0.9823
tp6083
a(S'in'
p6084
g44
F0.7034
tp6085
a(S'from'
p6086
g44
F0.9986
tp6087
a(S'the'
p6088
g3
F0.9993
tp6089
a(S'sides'
p6090
g9
F0.9977
tp6091
asI593
(lp6092
(S'yeah'
p6093
g324
F0.9988
tp6094
asI594
(lp6095
(S'mhm'
p6096
g324
F0.9747
tp6097
asI595
(lp6098
(S'so'
p6099
g44
F0.5357
tp6100
a(S'if'
p6101
g44
F0.9958
tp6102
a(S'you'
p6103
g22
F0.9996
tp6104
a(S'are'
p6105
g12
F0.9991
tp6106
a(S'coming'
p6107
g12
F0.9893
tp6108
a(S'in'
p6109
g44
F0.6552
tp6110
a(S'from'
p6111
g44
F0.9625
tp6112
a(S'over'
p6113
g44
F0.9252
tp6114
a(S'it'
p6115
g22
F0.9994
tp6116
a(S'would'
p6117
g12
F0.9994
tp6118
a(S'be'
p6119
g12
F0.9999
tp6120
a(S'an'
p6121
g3
F0.6488
tp6122
a(S'over'
p6123
g44
F0.4347
tp6124
a(S'french'
p6125
g16
F0.6656
tp6126
asI596
(lp6127
(S'well'
p6128
g324
F0.741
tp6129
a(S'you'
p6130
g22
F0.9994
tp6131
a(S'would'
p6132
g12
F0.9996
tp6133
a(S'just'
p6134
g245
F0.999
tp6135
a(S'call'
p6136
g12
F0.9981
tp6137
a(S'it'
p6138
g22
F0.9587
tp6139
a(g77
g3
F0.9954
tp6140
a(S'regular'
p6141
g6
F0.9861
tp6142
a(S'french'
p6143
g6
F0.5706
tp6144
a(S'braid'
p6145
g9
F0.9615
tp6146
asI597
(lp6147
(S'oh'
p6148
g324
F0.9913
tp6149
a(S'regular'
p6150
g6
F0.9814
tp6151
a(S'french'
p6152
g6
F0.4265
tp6153
a(S'and'
p6154
g53
F0.9875
tp6155
a(S'under'
p6156
g44
F0.7048
tp6157
a(S'french'
p6158
g16
F0.771
tp6159
asI598
(lp6160
(S'are'
p6161
g12
F0.9964
tp6162
a(S'you'
p6163
g22
F0.999
tp6164
a(S'sharin'
p6165
g12
F0.995
tp6166
a(g1462
g12
F0.3963
tp6167
a(S'that'
p6168
g3
F0.5242
tp6169
a(S'cake'
p6170
g9
F0.991
tp6171
a(S'with'
p6172
g44
F0.9986
tp6173
a(S'dad'
p6174
g9
F0.9456
tp6175
asI599
(lp6176
(g156
g22
F0.9899
tp6177
a(S'guess'
p6178
g12
F0.9994
tp6179
asI600
(lp6180
(S'the'
p6181
g3
F0.9981
tp6182
a(S'mousse'
p6183
g9
F0.9892
tp6184
a(S'is'
p6185
g12
F0.9933
tp6186
a(S'still'
p6187
g245
F0.9989
tp6188
a(S'cold'
p6189
g6
F0.9943
tp6190
a(S'and'
p6191
g53
F0.9962
tp6192
a(S'hard'
p6193
g6
F0.8685
tp6194
asI601
(lp6195
(S'hm'
p6196
g324
F0.995
tp6197
asI602
(lp6198
(S'hm'
p6199
g324
F0.995
tp6200
asI603
(lp6201
(S'well'
p6202
g324
F0.6724
tp6203
a(S'let'
p6204
g12
F0.9966
tp6205
a(S'it'
p6206
g22
F0.9961
tp6207
a(S'sit'
p6208
g12
F0.9977
tp6209
a(S'there'
p6210
g245
F0.8784
tp6211
a(S'for'
p6212
g44
F0.9994
tp6213
a(g77
g3
F0.9979
tp6214
a(S'few'
p6215
g6
F0.9322
tp6216
a(S'minutes'
p6217
g9
F0.9978
tp6218
asI604
(lp6219
(S'it'
p6220
g22
F0.9974
tp6221
a(S'is'
p6222
g12
F0.999
tp6223
asI605
(lp6224
(S'mm'
p6225
g324
F0.627
tp6226
asI606
(lp6227
(S'www'
p6228
g16
F0.3889
tp6229
asI607
(lp6230
(S'0are'
p6231
g12
F0.5067
tp6232
a(S'you'
p6233
g22
F0.9992
tp6234
a(S'eating'
p6235
g12
F1.0
tp6236
a(S'it'
p6237
g22
F0.9824
tp6238
a(S'all'
p6239
g3
F0.5906
tp6240
a(S'yourself'
p6241
g22
F0.9728
tp6242
asI608
(lp6243
(S'you'
p6244
g22
F0.9949
tp6245
a(S'get'
p6246
g12
F0.9999
tp6247
a(S'yours'
p6248
g22
F0.9771
tp6249
asI609
(lp6250
(S'it'
p6251
g22
F0.9858
tp6252
a(g357
g12
F0.7321
tp6253
a(S'mine'
p6254
g22
F0.9658
tp6255
asI610
(lp6256
(g156
g22
F0.9894
tp6257
a(S'guess'
p6258
g12
F0.9999
tp6259
a(S'that'
p6260
g22
F0.5957
tp6261
a(g357
g12
F0.7071
tp6262
a(S'hers'
p6263
g22
F0.6015
tp6264
a(S'honey'
p6265
g9
F0.7848
tp6266
asI611
(lp6267
(S'it'
p6268
g22
F0.9888
tp6269
a(g357
g12
F0.4791
tp6270
a(S'never'
p6271
g245
F0.9935
tp6272
a(S'going'
p6273
g12
F0.9971
tp6274
a(S'to'
p6275
g44
F0.9561
tp6276
a(S'thaw'
p6277
g12
F0.7004
tp6278
asI612
(lp6279
(S'if'
p6280
g44
F0.9977
tp6281
a(S'you'
p6282
g22
F0.9998
tp6283
a(S'say'
p6284
g12
F0.9998
tp6285
a(S'you'
p6286
g22
F0.9981
tp6287
a(S'are'
p6288
g12
F0.9992
tp6289
a(S'going'
p6290
g12
F0.9772
tp6291
a(S'to'
p6292
g44
F0.9882
tp6293
a(S'eat'
p6294
g12
F0.9997
tp6295
a(S'it'
p6296
g22
F0.9588
tp6297
a(S'you'
p6298
g22
F0.9684
tp6299
a(S'better'
p6300
g245
F0.5587
tp6301
a(S'eat'
p6302
g12
F0.9897
tp6303
a(S'it'
p6304
g22
F0.9903
tp6305
a(S'xxx'
p6306
g202
F0.6115
tp6307
asI613
(lp6308
(g156
g22
F0.988
tp6309
a(S'am'
p6310
g12
F0.9952
tp6311
asI614
(lp6312
(S'alright'
p6313
g324
F0.9864
tp6314
asI615
(lp6315
(S'xxx'
p6316
g202
F0.581
tp6317
a(S'is'
p6318
g12
F0.9952
tp6319
a(S'cold'
p6320
g6
F0.997
tp6321
asI616
(lp6322
(S'do'
p6323
g12
F0.9688
tp6324
a(g156
g22
F0.9972
tp6325
a(S'have'
p6326
g12
F0.9998
tp6327
a(S'to'
p6328
g44
F0.9975
tp6329
a(S'eat'
p6330
g12
F0.9994
tp6331
a(S'the'
p6332
g3
F0.9994
tp6333
a(S'chocolate'
p6334
g9
F0.9832
tp6335
asI617
(lp6336
(S'do'
p6337
g12
F0.9985
tp6338
a(S'you'
p6339
g22
F0.9996
tp6340
a(S'have'
p6341
g12
F0.9996
tp6342
a(S'to'
p6343
g44
F0.9975
tp6344
a(S'eat'
p6345
g12
F0.9994
tp6346
a(S'the'
p6347
g3
F0.9994
tp6348
a(S'chocolate'
p6349
g9
F0.9832
tp6350
asI618
(lp6351
(S'yeah'
p6352
g324
F0.9945
tp6353
a(S'laughs'
p6354
g12
F0.9273
tp6355
asI619
(lp6356
(g156
g22
F0.9893
tp6357
a(S'thought'
p6358
g12
F0.9995
tp6359
a(S'the'
p6360
g3
F0.9989
tp6361
a(S'chocolate'
p6362
g9
F0.9812
tp6363
a(S'was'
p6364
g12
F0.9928
tp6365
a(S'the'
p6366
g3
F0.9998
tp6367
a(S'part'
p6368
g9
F0.995
tp6369
a(S'you'
p6370
g22
F0.9871
tp6371
a(S'like'
p6372
g12
F0.913
tp6373
a(S'to'
p6374
g44
F0.9926
tp6375
a(S'eat'
p6376
g12
F0.9889
tp6377
asI620
(lp6378
(S'it'
p6379
g22
F0.9888
tp6380
a(g357
g12
F0.5598
tp6381
a(S'freezing'
p6382
g12
F0.7489
tp6383
a(S'cold'
p6384
g6
F0.9916
tp6385
a(S'who'
p6386
g22
F0.9893
tp6387
a(S'would'
p6388
g12
F0.9996
tp6389
a(S'want'
p6390
g12
F0.9999
tp6391
a(S'to'
p6392
g44
F0.9963
tp6393
a(S'eat'
p6394
g12
F0.9998
tp6395
a(S'it'
p6396
g22
F0.9864
tp6397
asI621
(lp6398
(S'it'
p6399
g22
F0.9888
tp6400
a(g357
g12
F0.7704
tp6401
a(S'like'
p6402
g44
F0.672
tp6403
a(S'ice'
p6404
g9
F0.8696
tp6405
a(S'cream'
p6406
g9
F0.953
tp6407
asI622
(lp6408
(S'no'
p6409
g324
F0.7608
tp6410
a(S'it'
p6411
g22
F0.9737
tp6412
a(S'isn'
p6413
g358
F0.3504
tp6414
a(g436
g358
F0.9177
tp6415
asI623
(lp6416
(S'ice'
p6417
g9
F0.6333
tp6418
a(S'mousse'
p6419
g9
F0.9961
tp6420
asI624
(lp6421
(S'but'
p6422
g53
F0.9962
tp6423
a(S'it'
p6424
g22
F0.9972
tp6425
a(g357
g12
F0.5245
tp6426
a(S'frozen'
p6427
g6
F0.6854
tp6428
a(S'cold'
p6429
g6
F0.9828
tp6430
a(S'chocolate'
p6431
g9
F0.9896
tp6432
a(S'mousse'
p6433
g9
F0.9965
tp6434
asI625
(lp6435
(S'mom'
p6436
g9
F0.7613
tp6437
a(S'xxx'
p6438
g12
F0.5096
tp6439
a(S'you'
p6440
g22
F0.9989
tp6441
a(S'go'
p6442
g12
F0.9953
tp6443
a(S'ahead'
p6444
g245
F0.9856
tp6445
a(S'and'
p6446
g53
F0.9977
tp6447
a(S'xxx'
p6448
g202
F0.7586
tp6449
asI626
(lp6450
(S'no'
p6451
g324
F0.7608
tp6452
a(S'it'
p6453
g22
F0.9844
tp6454
a(g357
g12
F0.5254
tp6455
a(S'fine'
p6456
g6
F0.9673
tp6457
asI627
(lp6458
(S'no'
p6459
g324
F0.7385
tp6460
a(S'really'
p6461
g245
F0.9941
tp6462
a(g156
g22
F0.9583
tp6463
a(S'don'
p6464
g12
F0.9208
tp6465
a(g436
g12
F0.2545
tp6466
a(S'want'
p6467
g12
F0.9995
tp6468
a(S'it'
p6469
g22
F0.99
tp6470
asI628
(lp6471
(S'so'
p6472
g44
F0.7418
tp6473
a(S'what'
p6474
g22
F0.994
tp6475
a(g357
g358
F0.594
tp6476
a(S'the'
p6477
g3
F0.9986
tp6478
a(S'matter'
p6479
g9
F0.988
tp6480
a(S'now'
p6481
g245
F0.9962
tp6482
a(S'xxx'
p6483
g202
F0.8405
tp6484
asI629
(lp6485
(S'oh'
p6486
g324
F0.995
tp6487
a(S'this'
p6488
g22
F0.7999
tp6489
a(S'xxx'
p6490
g202
F0.6392
tp6491
asI630
(lp6492
(S'was'
p6493
g12
F0.9989
tp6494
a(S'it'
p6495
g22
F0.9606
tp6496
a(S'good'
p6497
g6
F0.9823
tp6498
a(S'when'
p6499
g245
F0.9817
tp6500
a(S'it'
p6501
g22
F0.9934
tp6502
a(S'wasn'
p6503
g12
F0.9046
tp6504
a(g436
g358
F0.2547
tp6505
a(S'frozen'
p6506
g6
F0.8051
tp6507
asI631
(lp6508
(S'beside'
p6509
g44
F0.7596
tp6510
a(S'certain'
p6511
g6
F0.9583
tp6512
a(S'xxx'
p6513
g9
F0.2735
tp6514
a(S'it'
p6515
g22
F0.9873
tp6516
a(S'probably'
p6517
g245
F0.9989
tp6518
asI632
(lp6519
(S'kind'
p6520
g9
F0.8947
tp6521
a(S'of'
p6522
g44
F0.9911
tp6523
asI633
(lp6524
(S'kind'
p6525
g9
F0.8947
tp6526
a(S'of'
p6527
g44
F0.9911
tp6528
asI634
(lp6529
(S'was'
p6530
g12
F0.9989
tp6531
a(S'it'
p6532
g22
F0.9606
tp6533
a(S'good'
p6534
g6
F0.9817
tp6535
a(S'at'
p6536
g44
F0.9997
tp6537
a(S'the'
p6538
g3
F0.9994
tp6539
a(S'party'
p6540
g9
F0.9882
tp6541
asI635
(lp6542
(S'you'
p6543
g22
F0.9942
tp6544
a(S'just'
p6545
g245
F0.9991
tp6546
a(S'have'
p6547
g12
F0.9989
tp6548
a(S'to'
p6549
g44
F0.9969
tp6550
a(S'let'
p6551
g12
F0.9999
tp6552
a(S'it'
p6553
g22
F0.9968
tp6554
a(S'sit'
p6555
g12
F0.9979
tp6556
a(S'for'
p6557
g44
F0.9972
tp6558
a(g77
g3
F0.9965
tp6559
a(S'minute'
p6560
g9
F0.9274
tp6561
asI636
(lp6562
(g156
g22
F0.9843
tp6563
a(S'let'
p6564
g12
F0.9999
tp6565
a(S'it'
p6566
g22
F0.9969
tp6567
a(S'sit'
p6568
g12
F0.9958
tp6569
a(S'for'
p6570
g44
F0.9705
tp6571
asI637
(lp6572
(S'four'
p6573
g27
F0.7882
tp6574
a(S'or'
p6575
g53
F0.9879
tp6576
a(S'five'
p6577
g27
F0.7041
tp6578
a(S'hours'
p6579
g9
F0.9941
tp6580
asI638
(lp6581
(S'yeah'
p6582
g324
F0.9945
tp6583
a(S'laughs'
p6584
g12
F0.9273
tp6585
asI639
(lp6586
(S'mm'
p6587
g324
F0.2328
tp6588
a(S'this'
p6589
g22
F0.9793
tp6590
a(S'is'
p6591
g12
F0.9963
tp6592
a(S'so'
p6593
g245
F0.9875
tp6594
a(S'hard'
p6595
g6
F0.6386
tp6596
a(S'to'
p6597
g44
F0.9992
tp6598
a(S'get'
p6599
g12
F0.9991
tp6600
asI640
(lp6601
(S'mm'
p6602
g324
F0.627
tp6603
asI641
(lp6604
(S'gee'
p6605
g324
F0.8566
tp6606
a(S'need'
p6607
g12
F0.9833
tp6608
a(g77
g3
F0.9321
tp6609
a(S'saw'
p6610
g9
F0.7716
tp6611
asI642
(lp6612
(S'you'
p6613
g22
F0.998
tp6614
a(S'have'
p6615
g12
F0.9994
tp6616
a(S'to'
p6617
g44
F0.9952
tp6618
a(S'put'
p6619
g12
F0.9997
tp6620
a(S'it'
p6621
g22
F0.9831
tp6622
a(S'in'
p6623
g44
F0.977
tp6624
a(S'the'
p6625
g3
F0.9993
tp6626
a(S'oven'
p6627
g9
F0.9736
tp6628
a(S'for'
p6629
g44
F0.9998
tp6630
a(g77
g3
F0.9974
tp6631
a(S'few'
p6632
g6
F0.9091
tp6633
a(S'minutes'
p6634
g9
F0.9976
tp6635
asI643
(lp6636
(S'yeah'
p6637
g324
F0.9988
tp6638
asI644
(lp6639
(S'it'
p6640
g22
F0.9974
tp6641
a(S'is'
p6642
g12
F0.9991
tp6643
a(S'freezing'
p6644
g6
F0.7348
tp6645
asI645
(lp6646
(S'would'
p6647
g12
F0.9987
tp6648
a(S'you'
p6649
g22
F0.9948
tp6650
a(S'like'
p6651
g12
F0.9047
tp6652
a(S'me'
p6653
g22
F0.9991
tp6654
a(S'to'
p6655
g44
F0.9785
tp6656
a(S'cut'
p6657
g12
F0.9838
tp6658
a(g77
g3
F0.9971
tp6659
a(S'piece'
p6660
g9
F0.9974
tp6661
a(S'off'
p6662
g44
F0.6093
tp6663
a(S'for'
p6664
g44
F0.9991
tp6665
a(S'you'
p6666
g22
F0.999
tp6667
asI646
(lp6668
(S'hm'
p6669
g324
F0.995
tp6670
asI647
(lp6671
(S'okay'
p6672
g324
F0.9857
tp6673
asI648
(lp6674
(S'would'
p6675
g12
F0.9987
tp6676
a(S'you'
p6677
g22
F0.998
tp6678
a(S'let'
p6679
g12
F0.9999
tp6680
a(S'me'
p6681
g22
F0.9993
tp6682
a(S'cut'
p6683
g12
F0.9434
tp6684
a(g77
g3
F0.9971
tp6685
a(S'piece'
p6686
g9
F0.9974
tp6687
a(S'off'
p6688
g44
F0.6693
tp6689
a(S'for'
p6690
g44
F0.9979
tp6691
a(S'me'
p6692
g22
F0.9986
tp6693
asI649
(lp6694
(S'we'
p6695
g22
F0.996
tp6696
a(S'get'
p6697
g12
F0.9994
tp6698
a(S'five'
p6699
g27
F0.6593
tp6700
a(S'degrees'
p6701
g9
F0.9815
tp6702
a(S'that'
p6703
g44
F0.9285
tp6704
a(g357
g358
F0.5616
tp6705
a(S'what'
p6706
g22
F0.9608
tp6707
a(S'we'
p6708
g22
F0.9989
tp6709
a(S'gotta'
p6710
g12
F0.9998
tp6711
a(S'do'
p6712
g12
F0.9987
tp6713
asI650
(lp6714
(g156
g22
F0.9866
tp6715
a(S'will'
p6716
g12
F0.9993
tp6717
asI651
(lp6718
(S'you'
p6719
g22
F0.9927
tp6720
a(S'll'
p6721
g12
F0.728
tp6722
a(S'cut'
p6723
g12
F0.9334
tp6724
a(g77
g3
F0.997
tp6725
a(S'piece'
p6726
g9
F0.9941
tp6727
a(S'for'
p6728
g44
F0.9998
tp6729
a(S'me'
p6730
g22
F0.9986
tp6731
asI652
(lp6732
(S'mhm'
p6733
g324
F0.9747
tp6734
asI653
(lp6735
(S'five'
p6736
g27
F0.8551
tp6737
a(S'degrees'
p6738
g9
F0.9862
tp6739
a(S'wouldn'
p6740
g12
F0.8345
tp6741
a(g436
g12
F0.8306
tp6742
a(S'be'
p6743
g12
F0.9808
tp6744
a(S'very'
p6745
g245
F0.9971
tp6746
a(S'hot'
p6747
g6
F0.9992
tp6748
asI654
(lp6749
(S'wait'
p6750
g12
F0.9897
tp6751
a(g77
g3
F0.994
tp6752
a(S'minute'
p6753
g9
F0.9741
tp6754
asI655
(lp6755
(S'whoop'
p6756
g324
F0.7591
tp6757
a(S'you'
p6758
g22
F0.9985
tp6759
a(S'dropped'
p6760
g12
F1.0
tp6761
a(S'it'
p6762
g22
F0.9734
tp6763
asI656
(lp6764
(S'oops'
p6765
g324
F0.9905
tp6766
asI657
(lp6767
(S'who'
p6768
g22
F0.9956
tp6769
a(S'dropped'
p6770
g12
F0.9994
tp6771
a(S'what'
p6772
g22
F0.989
tp6773
asI658
(lp6774
(S'xxx'
p6775
g202
F0.6351
tp6776
a(S'did'
p6777
g12
F0.9737
tp6778
asI659
(lp6779
(S'where'
p6780
g245
F0.9592
tp6781
a(S'does'
p6782
g12
F0.999
tp6783
a(S'the'
p6784
g3
F0.9992
tp6785
a(S'oven'
p6786
g9
F0.9798
tp6787
a(S'start'
p6788
g12
F0.9412
tp6789
a(S'at'
p6790
g44
F0.9927
tp6791
a(S'two'
p6792
g27
F0.9474
tp6793
a(S'hundred'
p6794
g27
F0.3755
tp6795
asI660
(lp6796
(S'okay'
p6797
g324
F0.8923
tp6798
a(S'wait'
p6799
g12
F0.987
tp6800
a(g77
g3
F0.9929
tp6801
a(S'minute'
p6802
g9
F0.9646
tp6803
asI661
(lp6804
(g156
g22
F0.9586
tp6805
a(g764
g12
F0.9805
tp6806
a(S'waiting'
p6807
g12
F0.9884
tp6808
asI662
(lp6809
(g156
g22
F0.989
tp6810
a(S'think'
p6811
g12
F0.9989
tp6812
a(S'one'
p6813
g27
F0.8874
tp6814
a(S'fifty'
p6815
g27
F0.413
tp6816
asI663
(lp6817
(g156
g22
F0.9873
tp6818
a(S'can'
p6819
g12
F0.9996
tp6820
a(g436
g12
F0.8392
tp6821
a(S'cut'
p6822
g9
F0.6245
tp6823
a(S'between'
p6824
g44
F0.9933
tp6825
a(S'them'
p6826
g22
F0.949
tp6827
asI664
(lp6828
(S'sis'
p6829
g9
F0.9299
tp6830
a(S'cut'
p6831
g9
F0.8015
tp6832
asI665
(lp6833
(S'no'
p6834
g324
F0.9253
tp6835
asI666
(lp6836
(S'can'
p6837
g12
F0.9701
tp6838
a(g156
g22
F0.9855
tp6839
a(S'try'
p6840
g12
F0.999
tp6841
asI667
(lp6842
(S'no'
p6843
g324
F0.6532
tp6844
a(g156
g22
F0.947
tp6845
a(S'll'
p6846
g12
F0.7388
tp6847
a(S'try'
p6848
g12
F0.9621
tp6849
asI668
(lp6850
(S'thank'
p6851
g12
F0.9631
tp6852
a(S'you'
p6853
g22
F0.9987
tp6854
asI669
(lp6855
(S'xxx'
p6856
g202
F0.676
tp6857
a(S'and'
p6858
g53
F0.9986
tp6859
a(S'you'
p6860
g22
F0.9993
tp6861
a(S'get'
p6862
g12
F0.9999
tp6863
a(g77
g3
F0.997
tp6864
a(S'nice'
p6865
g6
F0.9946
tp6866
a(S'and'
p6867
g53
F0.9977
tp6868
a(S'large'
p6869
g6
F0.9924
tp6870
a(S'piece'
p6871
g9
F0.9972
tp6872
asI670
(lp6873
(S'thank'
p6874
g12
F0.9631
tp6875
a(S'you'
p6876
g22
F0.9987
tp6877
asI671
(lp6878
(S'can'
p6879
g12
F0.9755
tp6880
a(g156
g22
F0.987
tp6881
a(S'have'
p6882
g12
F1.0
tp6883
a(g77
g3
F0.998
tp6884
a(S'fork'
p6885
g9
F0.9952
tp6886
a(S'please'
p6887
g12
F0.9729
tp6888
asI672
(lp6889
(S'mm'
p6890
g358
F0.2933
tp6891
a(S'you'
p6892
g22
F0.9984
tp6893
a(S'made'
p6894
g12
F0.9998
tp6895
a(S'the'
p6896
g3
F0.9994
tp6897
a(S'fork'
p6898
g9
F0.989
tp6899
a(S'green'
p6900
g6
F0.9186
tp6901
asI673
(lp6902
(S'mhm'
p6903
g324
F0.9747
tp6904
asI674
(lp6905
(S'so'
p6906
g245
F0.5494
tp6907
a(S'how'
p6908
g245
F0.9996
tp6909
a(S'late'
p6910
g6
F0.9246
tp6911
a(S'did'
p6912
g12
F0.9785
tp6913
a(S'you'
p6914
g22
F0.9987
tp6915
a(S'stay'
p6916
g12
F0.9991
tp6917
a(S'up'
p6918
g182
F0.9201
tp6919
a(S'sis'
p6920
g9
F0.927
tp6921
asI675
(lp6922
(S'midnight'
p6923
g9
F0.8275
tp6924
asI676
(lp6925
(S'midnight'
p6926
g9
F0.8275
tp6927
asI677
(lp6928
(S'mhm'
p6929
g324
F0.9652
tp6930
a(S'that'
p6931
g22
F0.6083
tp6932
a(g357
g358
F0.4697
tp6933
a(S'only'
p6934
g245
F0.6297
tp6935
a(S'an'
p6936
g3
F0.9786
tp6937
a(S'hour'
p6938
g9
F0.9976
tp6939
a(S'later'
p6940
g245
F0.7632
tp6941
a(S'than'
p6942
g44
F0.9966
tp6943
a(S'you'
p6944
g22
F0.9999
tp6945
a(S'stayed'
p6946
g12
F0.9986
tp6947
a(S'up'
p6948
g182
F0.9804
tp6949
asI678
(lp6950
(S'it'
p6951
g22
F0.9888
tp6952
a(g357
g12
F0.585
tp6953
a(S'not'
p6954
g245
F0.9963
tp6955
a(S'even'
p6956
g245
F0.9944
tp6957
a(S'that'
p6958
g245
F0.3104
tp6959
a(S'much'
p6960
g6
F0.5716
tp6961
a(S'later'
p6962
g245
F0.7503
tp6963
a(S'then'
p6964
g245
F0.9454
tp6965
a(S'she'
p6966
g22
F0.9974
tp6967
a(S'stayed'
p6968
g12
F0.9988
tp6969
a(S'up'
p6970
g182
F0.9804
tp6971
asI679
(lp6972
(S'mm'
p6973
g324
F0.627
tp6974
asI680
(lp6975
(g156
g22
F0.9635
tp6976
a(S'don'
p6977
g12
F0.9231
tp6978
a(g436
g12
F0.3155
tp6979
a(S'think'
p6980
g12
F0.9964
tp6981
a(S'she'
p6982
g22
F0.9972
tp6983
a(S'fell'
p6984
g12
F0.9897
tp6985
a(S'asleep'
p6986
g245
F0.8729
tp6987
a(S'until'
p6988
g44
F0.9952
tp6989
a(S'about'
p6990
g44
F0.7448
tp6991
a(S'eleven'
p6992
g27
F0.8009
tp6993
a(S'thirty'
p6994
g6
F0.4722
tp6995
a(S'quarter'
p6996
g9
F0.9989
tp6997
a(S'to'
p6998
g44
F0.9978
tp6999
a(S'twelve'
p7000
g27
F0.698
tp7001
asI681
(lp7002
(S'mhm'
p7003
g324
F0.9747
tp7004
asI682
(lp7005
(S'goodness'
p7006
g9
F0.3653
tp7007
a(S'gracious'
p7008
g6
F0.9328
tp7009
asI683
(lp7010
(S'www'
p7011
g16
F0.7976
tp7012
a(S'clears'
p7013
g12
F0.8811
tp7014
a(S'throat'
p7015
g9
F0.7319
tp7016
a(S'you'
p7017
g22
F0.9928
tp7018
a(S'were'
p7019
g12
F0.9995
tp7020
a(g77
g3
F0.9976
tp7021
a(S'night'
p7022
g9
F0.9876
tp7023
a(S'owl'
p7024
g9
F0.6939
tp7025
a(S'last'
p7026
g6
F0.9764
tp7027
a(S'night'
p7028
g9
F0.9886
tp7029
asI684
(lp7030
(S'mm'
p7031
g324
F0.627
tp7032
asI685
(lp7033
(S'oh'
p7034
g324
F0.9988
tp7035
asI686
(lp7036
(S'this'
p7037
g3
F0.5062
tp7038
a(S'xxx'
p7039
g9
F0.379
tp7040
a(S'cake'
p7041
g9
F0.9958
tp7042
asI687
(lp7043
(S'xxx'
p7044
g202
F0.8437
tp7045
asI688
(lp7046
(S'it'
p7047
g22
F0.9858
tp7048
a(g357
g12
F0.476
tp7049
a(S'frozen'
p7050
g6
F0.6898
tp7051
asI689
(lp7052
(S'me'
p7053
g22
F0.9974
tp7054
a(S'and'
p7055
g53
F0.9936
tp7056
a(S'chrissy'
p7057
g16
F0.9979
tp7058
a(S'were'
p7059
g12
F0.9795
tp7060
a(S'playing'
p7061
g12
F0.9947
tp7062
a(S'ouiji'
p7063
g16
F0.2906
tp7064
a(S'and'
p7065
g53
F0.999
tp7066
a(g156
g22
F0.9938
tp7067
a(S'asked'
p7068
g12
F0.9999
tp7069
a(S'it'
p7070
g22
F0.9877
tp7071
a(S'what'
p7072
g22
F0.9394
tp7073
a(g156
g22
F0.9963
tp7074
a(S'was'
p7075
g12
F0.9997
tp7076
a(S'going'
p7077
g12
F0.994
tp7078
a(S'to'
p7079
g44
F0.9724
tp7080
a(S'be'
p7081
g12
F0.9992
tp7082
a(S'for'
p7083
g44
F0.9986
tp7084
a(g77
g3
F0.9977
tp7085
a(S'job'
p7086
g9
F0.9918
tp7087
a(S'when'
p7088
g245
F0.9931
tp7089
a(g156
g22
F0.9894
tp7090
a(S'grow'
p7091
g12
F0.9999
tp7092
a(S'up'
p7093
g182
F0.9848
tp7094
asI690
(lp7095
(S'and'
p7096
g53
F0.9984
tp7097
a(S'eat'
p7098
g12
F0.9985
tp7099
a(S'it'
p7100
g22
F0.9922
tp7101
a(S'xxx'
p7102
g202
F0.7275
tp7103
asI691
(lp7104
(S'xxx'
p7105
g202
F0.6253
tp7106
a(S'chrissy'
p7107
g16
F0.9952
tp7108
a(S'had'
p7109
g12
F0.9957
tp7110
a(S'moved'
p7111
g12
F0.9869
tp7112
a(S'it'
p7113
g22
F0.9699
tp7114
a(S'so'
p7115
g44
F0.8143
tp7116
a(S'it'
p7117
g22
F0.9985
tp7118
a(S'would'
p7119
g12
F0.9991
tp7120
a(S'so'
p7121
g12
F0.5871
tp7122
a(S'it'
p7123
g22
F0.9986
tp7124
a(S'would'
p7125
g12
F0.9992
tp7126
a(S'say'
p7127
g12
F0.9992
tp7128
a(S'evil'
p7129
g6
F0.9612
tp7130
a(S'q'
p7131
g9
F0.7528
tp7132
asI692
(lp7133
(S'she'
p7134
g22
F0.9945
tp7135
a(S'even'
p7136
g245
F0.9965
tp7137
a(S'said'
p7138
g12
F0.9929
tp7139
a(S'so'
p7140
g44
F0.7307
tp7141
a(S'laughing'
p7142
g12
F0.9189
tp7143
asI693
(lp7144
(S'sis'
p7145
g9
F0.8652
tp7146
asI694
(lp7147
(S'what'
p7148
g22
F0.949
tp7149
asI695
(lp7150
(S'does'
p7151
g12
F0.9984
tp7152
a(S'this'
p7153
g22
F0.5631
tp7154
a(S'taste'
p7155
g12
F0.8978
tp7156
a(S'like'
p7157
g44
F0.9088
tp7158
a(S'ice'
p7159
g9
F0.834
tp7160
a(S'cream'
p7161
g9
F0.9609
tp7162
asI696
(lp7163
(S'sounds'
p7164
g12
F0.9523
tp7165
a(S'like'
p7166
g44
F0.9825
tp7167
a(S'she'
p7168
g22
F0.9985
tp7169
a(g357
g12
F0.5497
tp7170
a(S'the'
p7171
g3
F0.9993
tp7172
a(S'evil'
p7173
g6
F0.9793
tp7174
a(S'one'
p7175
g27
F0.8571
tp7176
asI697
(lp7177
(S'mm'
p7178
g324
F0.5463
tp7179
a(S'how'
p7180
g245
F0.9944
tp7181
a(S'rude'
p7182
g6
F0.998
tp7183
asI698
(lp7184
(S'how'
p7185
g245
F0.9953
tp7186
a(S'rude'
p7187
g6
F0.9992
tp7188
asI699
(lp7189
(S'so'
p7190
g44
F0.6302
tp7191
a(S'is'
p7192
g12
F0.9941
tp7193
a(S'she'
p7194
g22
F0.9991
tp7195
a(S'still'
p7196
g245
F0.9953
tp7197
a(S'she'
p7198
g22
F0.9919
tp7199
a(S'still'
p7200
g245
F0.9975
tp7201
a(S'antiman'
p7202
g12
F0.3592
tp7203
a(S'wp'
p7204
g9
F0.3592
tp7205
a(S'as'
p7206
g44
F0.9944
tp7207
a(S'she'
p7208
g22
F0.999
tp7209
a(S'used'
p7210
g12
F0.9728
tp7211
a(S'to'
p7212
g44
F0.9883
tp7213
a(S'be'
p7214
g12
F0.9984
tp7215
asI700
(lp7216
(S'how'
p7217
g245
F0.9953
tp7218
a(S'rude'
p7219
g6
F0.9992
tp7220
asI701
(lp7221
(S'what'
p7222
g22
F0.949
tp7223
asI702
(lp7224
(S'is'
p7225
g12
F0.9965
tp7226
a(S'she'
p7227
g22
F0.9992
tp7228
a(S'still'
p7229
g245
F0.9977
tp7230
a(S'antimen'
p7231
g245
F0.5144
tp7232
a(S'wp'
p7233
g6
F0.5862
tp7234
a(S'as'
p7235
g44
F0.9911
tp7236
a(S'she'
p7237
g22
F0.999
tp7238
a(S'used'
p7239
g12
F0.975
tp7240
a(S'to'
p7241
g44
F0.9862
tp7242
a(S'be'
p7243
g12
F0.999
tp7244
asI703
(lp7245
(S'men'
p7246
g9
F0.9145
tp7247
asI704
(lp7248
(g156
g22
F0.9635
tp7249
a(S'don'
p7250
g12
F0.9156
tp7251
a(g436
g9
F0.3074
tp7252
a(S'know'
p7253
g12
F0.965
tp7254
asI705
(lp7255
(S'how'
p7256
g245
F0.9953
tp7257
a(S'rude'
p7258
g6
F0.9992
tp7259
asI706
(lp7260
(S'oh'
p7261
g324
F0.9963
tp7262
a(S'xxx'
p7263
g202
F0.6977
tp7264
asI707
(lp7265
(S'she'
p7266
g22
F0.9955
tp7267
a(S'plays'
p7268
g12
F0.9957
tp7269
a(S'with'
p7270
g44
F0.997
tp7271
a(S'her'
p7272
g3
F0.9862
tp7273
a(S'brothers'
p7274
g9
F0.9959
tp7275
asI708
(lp7276
(g156
g22
F0.9858
tp7277
a(S'see'
p7278
g12
F0.9977
tp7279
asI709
(lp7280
(S'mm'
p7281
g324
F0.627
tp7282
asI710
(lp7283
(S'good'
p7284
g6
F0.9644
tp7285
asI711
(lp7286
(S'xxx'
p7287
g202
F0.8437
tp7288
asI712
(lp7289
(S'good'
p7290
g6
F0.9844
tp7291
a(S'more'
p7292
g6
F0.7892
tp7293
asI713
(lp7294
(g156
g22
F0.9583
tp7295
a(g156
g22
F0.9329
tp7296
a(S'cut'
p7297
g12
F0.9944
tp7298
a(S'off'
p7299
g182
F0.6342
tp7300
a(S'his'
p7301
g3
F0.9997
tp7302
a(S'hand'
p7303
g9
F0.9901
tp7304
a(S'more'
p7305
g6
F0.5798
tp7306
asI714
(lp7307
(g77
g3
F0.9947
tp7308
a(S'mole'
p7309
g9
F0.9972
tp7310
asI715
(lp7311
(S'www'
p7312
g16
F0.6048
tp7313
a(S'laughs'
p7314
g12
F0.7501
tp7315
a(S'mhm'
p7316
g324
F0.774
tp7317
asI716
(lp7318
(S'what'
p7319
g22
F0.9931
tp7320
a(S'does'
p7321
g12
F0.9978
tp7322
a(S'that'
p7323
g22
F0.9433
tp7324
a(S'mean'
p7325
g12
F0.8345
tp7326
asI717
(lp7327
(S'mm'
p7328
g324
F0.627
tp7329
asI718
(lp7330
(S'you'
p7331
g22
F0.9926
tp7332
a(S'don'
p7333
g12
F0.85
tp7334
a(g436
g9
F0.3074
tp7335
a(S'know'
p7336
g12
F0.965
tp7337
asI719
(lp7338
(g156
g22
F0.9756
tp7339
a(S'didn'
p7340
g12
F0.9919
tp7341
a(g436
g12
F0.7486
tp7342
a(S'mean'
p7343
g12
F0.8814
tp7344
a(S'to'
p7345
g44
F0.9494
tp7346
asI720
(lp7347
(S'stop'
p7348
g12
F0.9446
tp7349
a(S'nuzzling'
p7350
g12
F0.8142
tp7351
a(S'laughs'
p7352
g12
F0.9961
tp7353
a(S'me'
p7354
g22
F0.9982
tp7355
asI721
(lp7356
(S'oh'
p7357
g324
F0.9952
tp7358
a(S'but'
p7359
g53
F0.9921
tp7360
a(S'you'
p7361
g22
F0.9972
tp7362
a(S're'
p7363
g12
F0.6287
tp7364
a(S'so'
p7365
g245
F0.7258
tp7366
a(S'nuzzlable'
p7367
g358
F0.3406
tp7368
a(g467
g358
F0.7235
tp7369
asI722
(lp7370
(S'mm'
p7371
g324
F0.627
tp7372
asI723
(lp7373
(S'you'
p7374
g22
F0.963
tp7375
a(S're'
p7376
g12
F0.5036
tp7377
a(S'xxx'
p7378
g202
F0.7533
tp7379
asI724
(lp7380
(S'you'
p7381
g22
F0.9754
tp7382
a(S're'
p7383
g12
F0.9443
tp7384
a(S'the'
p7385
g3
F0.9985
tp7386
a(S'one'
p7387
g27
F0.9646
tp7388
a(S'that'
p7389
g44
F0.8848
tp7390
a(g357
g358
F0.6066
tp7391
a(S'snugglable'
p7392
g16
F0.3785
tp7393
a(g467
g358
F0.3714
tp7394
asI725
(lp7395
(S'seek'
p7396
g12
F0.867
tp7397
a(S'xxx'
p7398
g202
F0.6948
tp7399
asI726
(lp7400
(S'so'
p7401
g44
F0.7264
tp7402
a(S'chi'
p7403
g16
F0.4034
tp7404
a(S'checking'
p7405
g12
F0.9991
tp7406
a(S'out'
p7407
g182
F0.5721
tp7408
a(S'the'
p7409
g3
F0.9992
tp7410
a(S'tomatoes'
p7411
g9
F0.9945
tp7412
a(S'all'
p7413
g3
F0.9791
tp7414
a(S'week'
p7415
g9
F0.9875
tp7416
asI727
(lp7417
(S'oh'
p7418
g324
F0.9948
tp7419
a(S'no'
p7420
g324
F0.7832
tp7421
a(S'laughing'
p7422
g12
F0.9173
tp7423
asI728
(lp7424
(S'man'
p7425
g324
F0.8651
tp7426
asI729
(lp7427
(S'this'
p7428
g22
F0.9521
tp7429
a(S'is'
p7430
g12
F0.9954
tp7431
a(S'frozen'
p7432
g6
F0.9319
tp7433
asI730
(lp7434
(S'tastes'
p7435
g12
F0.9714
tp7436
a(S'like'
p7437
g44
F0.9218
tp7438
a(S'ice'
p7439
g9
F0.903
tp7440
a(S'cream'
p7441
g9
F0.97
tp7442
asI731
(lp7443
(S'so'
p7444
g245
F0.5124
tp7445
a(S'xxx'
p7446
g202
F0.3438
tp7447
a(S'ice'
p7448
g9
F0.7626
tp7449
a(S'cream'
p7450
g9
F0.97
tp7451
asI732
(lp7452
(S'you'
p7453
g22
F0.9923
tp7454
a(S'like'
p7455
g12
F0.7647
tp7456
a(S'ice'
p7457
g9
F0.8718
tp7458
a(S'cream'
p7459
g9
F0.9407
tp7460
a(S'don'
p7461
g9
F0.5042
tp7462
a(g436
g12
F0.5075
tp7463
a(S'you'
p7464
g22
F0.9968
tp7465
asI733
(lp7466
(S'uhuh'
p7467
g324
F0.9919
tp7468
asI734
(lp7469
(S'no'
p7470
g324
F0.557
tp7471
a(S'laughs'
p7472
g12
F0.7527
tp7473
asI735
(lp7474
(S'www'
p7475
g16
F0.3889
tp7476
asI736
(lp7477
(S'www'
p7478
g16
F0.3889
tp7479
asI737
(lp7480
(S'www'
p7481
g16
F0.3889
tp7482
asI738
(lp7483
(S'www'
p7484
g16
F0.3889
tp7485
asI739
(lp7486
(S'you'
p7487
g22
F0.9969
tp7488
a(S'can'
p7489
g12
F0.9994
tp7490
a(g436
g12
F0.7725
tp7491
a(S'talk'
p7492
g12
F0.9732
tp7493
a(S'with'
p7494
g44
F0.9996
tp7495
a(S'your'
p7496
g3
F0.9972
tp7497
a(S'mouth'
p7498
g9
F0.999
tp7499
a(S'full'
p7500
g6
F0.9777
tp7501
asI740
(lp7502
(S'www'
p7503
g16
F0.3889
tp7504
asI741
(lp7505
(S'it'
p7506
g22
F0.9888
tp7507
a(g357
g12
F0.8444
tp7508
a(S'our'
p7509
g3
F0.9899
tp7510
a(S'secret'
p7511
g6
F0.9358
tp7512
a(S'language'
p7513
g9
F0.9974
tp7514
asI742
(lp7515
(S'mhm'
p7516
g324
F0.9747
tp7517
asI743
(lp7518
(S'mhm'
p7519
g324
F0.9747
tp7520
asI744
(lp7521
(S'0do'
p7522
g44
F0.4517
tp7523
a(S'you'
p7524
g22
F0.9994
tp7525
a(S'want'
p7526
g12
F0.9997
tp7527
a(S'to'
p7528
g44
F0.9904
tp7529
a(S'know'
p7530
g12
F0.9989
tp7531
a(S'what'
p7532
g22
F0.9853
tp7533
a(S'the'
p7534
g3
F0.9984
tp7535
a(S'secret'
p7536
g9
F0.8339
tp7537
a(S'is'
p7538
g12
F0.9824
tp7539
asI745
(lp7540
(S'don'
p7541
g16
F0.5427
tp7542
a(g436
g16
F0.4893
tp7543
a(S'mind'
p7544
g9
F0.4692
tp7545
a(S'telling'
p7546
g12
F0.9984
tp7547
a(S'me'
p7548
g22
F0.9986
tp7549
asI746
(lp7550
(S'0do'
p7551
g44
F0.4517
tp7552
a(S'you'
p7553
g22
F0.9994
tp7554
a(S'want'
p7555
g12
F0.9996
tp7556
a(S'more'
p7557
g6
F0.8621
tp7558
a(S'milk'
p7559
g9
F0.9984
tp7560
a(S'xxx'
p7561
g202
F0.8
tp7562
asI747
(lp7563
(S'huh'
p7564
g324
F0.993
tp7565
asI748
(lp7566
(S'mm'
p7567
g324
F0.2494
tp7568
a(S'laughs'
p7569
g12
F0.9387
tp7570
asI749
(lp7571
(S'my'
p7572
g3
F0.9977
tp7573
a(S'mouth'
p7574
g9
F0.9998
tp7575
a(S'is'
p7576
g12
F0.9956
tp7577
a(S'frozen'
p7578
g6
F0.9581
tp7579
asI750
(lp7580
(S'can'
p7581
g12
F0.9755
tp7582
a(g156
g22
F0.987
tp7583
a(S'have'
p7584
g12
F1.0
tp7585
a(S'another'
p7586
g3
F0.9872
tp7587
a(S'bite'
p7588
g9
F0.9531
tp7589
a(S'of'
p7590
g44
F0.9964
tp7591
a(S'that'
p7592
g22
F0.7443
tp7593
asI751
(lp7594
(g156
g22
F0.9901
tp7595
a(S'mean'
p7596
g12
F0.977
tp7597
a(S'www'
p7598
g16
F0.42
tp7599
asI752
(lp7600
(S'www'
p7601
g16
F0.3889
tp7602
asI753
(lp7603
(S'you'
p7604
g22
F0.9969
tp7605
a(S'can'
p7606
g12
F0.9997
tp7607
a(S'have'
p7608
g12
F0.9999
tp7609
a(S'all'
p7610
g3
F0.933
tp7611
a(S'of'
p7612
g44
F0.9919
tp7613
a(S'it'
p7614
g22
F0.9973
tp7615
asI754
(lp7616
(S'not'
p7617
g245
F0.9778
tp7618
a(S'all'
p7619
g3
F0.6701
tp7620
a(S'of'
p7621
g44
F0.9894
tp7622
a(S'it'
p7623
g22
F0.9966
tp7624
asI755
(lp7625
(S'all'
p7626
g3
F0.9491
tp7627
a(g156
g22
F0.9849
tp7628
a(S'need'
p7629
g12
F0.9972
tp7630
a(S'is'
p7631
g12
F0.9976
tp7632
a(g77
g3
F0.9987
tp7633
a(S'little'
p7634
g6
F0.9964
tp7635
a(S'piece'
p7636
g9
F0.9946
tp7637
asI756
(lp7638
(S'www'
p7639
g16
F0.3889
tp7640
asI757
(lp7641
(S'no'
p7642
g324
F0.7985
tp7643
a(S'you'
p7644
g22
F0.9964
tp7645
a(S'can'
p7646
g12
F0.9997
tp7647
a(S'have'
p7648
g12
F0.9999
tp7649
a(S'all'
p7650
g3
F0.9349
tp7651
a(S'of'
p7652
g44
F0.9951
tp7653
a(S'it'
p7654
g22
F0.9964
tp7655
asI758
(lp7656
(S'www'
p7657
g16
F0.3889
tp7658
asI759
(lp7659
(S'www'
p7660
g16
F0.3889
tp7661
asI760
(lp7662
(S'alright'
p7663
g324
F0.9029
tp7664
a(S'both'
p7665
g22
F0.4403
tp7666
a(S'of'
p7667
g44
F0.9896
tp7668
a(S'you'
p7669
g22
F0.9985
tp7670
asI761
(lp7671
(S'how'
p7672
g245
F0.9802
tp7673
a(S'come'
p7674
g12
F0.9975
tp7675
a(S'they'
p7676
g22
F0.9665
tp7677
a(S'spell'
p7678
g12
F0.9707
tp7679
a(S'blue'
p7680
g6
F0.8358
tp7681
a(S'b'
p7682
g9
F0.867
tp7683
a(S'l'
p7684
g12
F0.411
tp7685
a(S'u'
p7686
g22
F0.9969
tp7687
a(g7684
g358
F0.363
tp7688
asI762
(lp7689
(S'www'
p7690
g16
F0.3889
tp7691
asI763
(lp7692
(g156
g22
F0.9586
tp7693
a(g764
g12
F0.9838
tp7694
a(S'humming'
p7695
g12
F0.9793
tp7696
asI764
(lp7697
(S'xxx'
p7698
g202
F0.8437
tp7699
asI765
(lp7700
(g156
g22
F0.9894
tp7701
a(S'guess'
p7702
g12
F0.9999
tp7703
a(S'that'
p7704
g22
F0.5957
tp7705
a(g357
g12
F0.534
tp7706
a(S'supposed'
p7707
g6
F0.8501
tp7708
a(S'to'
p7709
g44
F0.998
tp7710
a(S'be'
p7711
g12
F0.999
tp7712
a(S'french'
p7713
g6
F0.7026
tp7714
asI766
(lp7715
(S'www'
p7716
g16
F0.3889
tp7717
asI767
(lp7718
(S'www'
p7719
g16
F0.7976
tp7720
a(S'clears'
p7721
g12
F0.8811
tp7722
a(S'throat'
p7723
g9
F0.9326
tp7724
a(S'xxx'
p7725
g44
F0.4391
tp7726
a(S'the'
p7727
g3
F0.999
tp7728
a(S'french'
p7729
g16
F0.714
tp7730
a(S'are'
p7731
g12
F0.9152
tp7732
a(S'blue'
p7733
g6
F0.9597
tp7734
a(S'in'
p7735
g44
F0.9841
tp7736
a(S'color'
p7737
g9
F0.9763
tp7738
asI768
(lp7739
(S'chunky'
p7740
g6
F0.9643
tp7741
a(S'bold'
p7742
g6
F0.9977
tp7743
a(S'www'
p7744
g9
F0.6275
tp7745
a(S'laughs'
p7746
g12
F0.5998
tp7747
asI769
(lp7748
(S'www'
p7749
g16
F0.3889
tp7750
asI770
(lp7751
(S'cordon'
p7752
g9
F0.8317
tp7753
a(S'bleu'
p7754
g9
F0.9859
tp7755
a(g357
g358
F0.9266
tp7756
a(S'fra'
p7757
g358
F0.5546
tp7758
a(S'is'
p7759
g12
F0.9965
tp7760
a(S'blu'
p7761
g16
F0.8161
tp7762
a(S'k'
p7763
g16
F0.4168
tp7764
a(S'too'
p7765
g245
F0.9845
tp7766
a(S'right'
p7767
g245
F0.5375
tp7768
asI771
(lp7769
(S'oh'
p7770
g324
F0.9964
tp7771
a(S'please'
p7772
g12
F0.6636
tp7773
asI772
(lp7774
(S'come'
p7775
g12
F0.9897
tp7776
a(S'on'
p7777
g44
F0.7241
tp7778
a(S'not'
p7779
g245
F0.9955
tp7780
a(S'while'
p7781
g44
F0.9612
tp7782
a(S'we'
p7783
g22
F0.9976
tp7784
a(S're'
p7785
g12
F0.633
tp7786
a(S'eating'
p7787
g12
F0.9948
tp7788
a(S'laughing'
p7789
g12
F0.8843
tp7790
asI773
(lp7791
(S'laughs'
p7792
g12
F0.9102
tp7793
asI774
(lp7794
(S'you'
p7795
g22
F0.9813
tp7796
a(S've'
p7797
g12
F0.7656
tp7798
a(S'been'
p7799
g12
F0.9917
tp7800
a(S'humming'
p7801
g12
F0.9995
tp7802
a(S'that'
p7803
g3
F0.8267
tp7804
a(S'song'
p7805
g9
F0.9971
tp7806
a(S'for'
p7807
g44
F0.9995
tp7808
a(S'two'
p7809
g27
F0.9575
tp7810
a(S'days'
p7811
g9
F0.9934
tp7812
a(S'there'
p7813
g245
F0.8102
tp7814
asI775
(lp7815
(S'hum'
p7816
g324
F0.7014
tp7817
asI776
(lp7818
(S'chi'
p7819
g16
F0.8274
tp7820
a(S'has'
p7821
g12
F0.9862
tp7822
a(S'been'
p7823
g12
F0.9896
tp7824
a(S'humming'
p7825
g12
F0.9995
tp7826
a(S'that'
p7827
g3
F0.8267
tp7828
a(S'song'
p7829
g9
F0.9935
tp7830
a(S'that'
p7831
g44
F0.9921
tp7832
a(S'you'
p7833
g22
F0.9996
tp7834
a(S'play'
p7835
g12
F0.9952
tp7836
asI777
(lp7837
(S'let'
p7838
g12
F0.8948
tp7839
a(g357
g358
F0.4065
tp7840
a(S'stop'
p7841
g12
F0.9294
tp7842
a(S'laughing'
p7843
g12
F0.9041
tp7844
asI778
(lp7845
(S'stop'
p7846
g12
F0.867
tp7847
a(S'stop'
p7848
g12
F0.9317
tp7849
a(S'laughing'
p7850
g12
F0.9489
tp7851
asI779
(lp7852
(S'you'
p7853
g22
F0.9963
tp7854
a(S'messed'
p7855
g12
F0.9999
tp7856
a(S'up'
p7857
g182
F0.974
tp7858
a(S'our'
p7859
g3
F0.9975
tp7860
a(S'rhythm'
p7861
g9
F0.9943
tp7862
asI780
(lp7863
(S'yeah'
p7864
g324
F0.9988
tp7865
asI781
(lp7866
(S'alright'
p7867
g324
F0.8524
tp7868
a(S'enough'
p7869
g6
F0.5303
tp7870
asI782
(lp7871
(S'really'
p7872
g245
F0.9977
tp7873
a(S'come'
p7874
g12
F0.9992
tp7875
a(S'on'
p7876
g182
F0.7116
tp7877
asI783
(lp7878
(S'you'
p7879
g22
F0.9983
tp7880
a(S'know'
p7881
g12
F0.9999
tp7882
a(S'you'
p7883
g22
F0.9959
tp7884
a(S're'
p7885
g12
F0.7717
tp7886
a(S'not'
p7887
g245
F0.9972
tp7888
a(S'supposed'
p7889
g6
F0.6677
tp7890
a(S'to'
p7891
g44
F0.9989
tp7892
a(S'sing'
p7893
g12
F0.9993
tp7894
a(S'while'
p7895
g44
F0.958
tp7896
a(S'we'
p7897
g22
F0.9964
tp7898
a(S're'
p7899
g12
F0.5228
tp7900
a(S'eating'
p7901
g12
F0.9917
tp7902
asI784
(lp7903
(S'we'
p7904
g22
F0.9849
tp7905
a(S're'
p7906
g12
F0.6464
tp7907
a(S'not'
p7908
g245
F0.9948
tp7909
a(S'singing'
p7910
g12
F0.9988
tp7911
asI785
(lp7912
(S'there'
p7913
g1909
F0.4664
tp7914
a(g357
g358
F0.5367
tp7915
a(S'no'
p7916
g3
F0.9488
tp7917
a(S'words'
p7918
g9
F0.9995
tp7919
a(S'to'
p7920
g44
F0.9977
tp7921
a(S'it'
p7922
g22
F0.9963
tp7923
asI786
(lp7924
(S'well'
p7925
g324
F0.8275
tp7926
a(S'humming'
p7927
g12
F0.9763
tp7928
a(S'then'
p7929
g245
F0.9685
tp7930
asI787
(lp7931
(S'making'
p7932
g12
F0.9814
tp7933
a(S'music'
p7934
g9
F0.9976
tp7935
asI788
(lp7936
(S'we'
p7937
g22
F0.9849
tp7938
a(S're'
p7939
g12
F0.7075
tp7940
a(S'not'
p7941
g245
F0.9963
tp7942
a(S'making'
p7943
g12
F0.9932
tp7944
a(S'music'
p7945
g9
F0.9959
tp7946
a(S'laughing'
p7947
g12
F0.9627
tp7948
asI789
(lp7949
(g156
g22
F0.9643
tp7950
a(S'willn'
p7951
g12
F0.7072
tp7952
a(g436
g12
F0.2498
tp7953
a(S'argue'
p7954
g12
F0.9883
tp7955
a(S'with'
p7956
g44
F0.9958
tp7957
a(S'that'
p7958
g22
F0.8051
tp7959
asI790
(lp7960
(S'it'
p7961
g22
F0.9953
tp7962
a(S'has'
p7963
g12
F0.999
tp7964
a(S'flowing'
p7965
g12
F0.9477
tp7966
asI791
(lp7967
(S'flowing'
p7968
g12
F0.8924
tp7969
asI792
(lp7970
(S'chi'
p7971
g16
F0.3954
tp7972
a(g156
g22
F0.9728
tp7973
a(S'want'
p7974
g12
F1.0
tp7975
a(S'you'
p7976
g22
F0.9987
tp7977
a(S'to'
p7978
g44
F0.983
tp7979
a(S'stop'
p7980
g12
F0.9792
tp7981
a(g156
g22
F0.9956
tp7982
a(S'mean'
p7983
g12
F0.9987
tp7984
a(S'it'
p7985
g22
F0.9908
tp7986
asI793
(lp7987
(S'chi'
p7988
g324
F0.4684
tp7989
asI794
(lp7990
(g156
g22
F0.9901
tp7991
a(S'mean'
p7992
g12
F0.998
tp7993
a(S'it'
p7994
g22
F0.9902
tp7995
asI795
(lp7996
(S'just'
p7997
g245
F0.9991
tp7998
a(S'talk'
p7999
g12
F0.9961
tp8000
a(S'to'
p8001
g44
F0.9957
tp8002
a(S'us'
p8003
g22
F0.9341
tp8004
a(S'for'
p8005
g44
F0.9962
tp8006
a(S'pete'
p8007
g16
F0.9918
tp8008
a(g357
g16
F0.4372
tp8009
a(S'sake'
p8010
g9
F0.649
tp8011
asI796
(lp8012
(S'hm'
p8013
g324
F0.9748
tp8014
a(S'laughs'
p8015
g12
F0.9251
tp8016
asI797
(lp8017
(S'why'
p8018
g245
F0.9496
tp8019
a(S'not'
p8020
g245
F0.9871
tp8021
asI798
(lp8022
(S'don'
p8023
g16
F0.5427
tp8024
a(g436
g16
F0.5078
tp8025
a(S'stick'
p8026
g12
F0.9696
tp8027
a(S'that'
p8028
g44
F0.4845
tp8029
a(S'in'
p8030
g44
F0.976
tp8031
a(S'your'
p8032
g3
F0.9952
tp8033
a(S'mouth'
p8034
g9
F0.9996
tp8035
asI799
(lp8036
(S'xxx'
p8037
g202
F0.8437
tp8038
asI800
(lp8039
(S'take'
p8040
g12
F0.9969
tp8041
a(S'it'
p8042
g22
F0.9469
tp8043
a(S'out'
p8044
g182
F0.9729
tp8045
asI801
(lp8046
(S'no'
p8047
g324
F0.9253
tp8048
asI802
(lp8049
(S'alright'
p8050
g324
F0.9117
tp8051
a(S'get'
p8052
g12
F0.9969
tp8053
a(S'down'
p8054
g182
F0.9204
tp8055
asI803
(lp8056
(g156
g22
F0.953
tp8057
a(g764
g12
F0.9784
tp8058
a(S'not'
p8059
g245
F0.9958
tp8060
a(S'going'
p8061
g12
F0.9991
tp8062
a(S'to'
p8063
g44
F0.9769
tp8064
a(S'have'
p8065
g12
F1.0
tp8066
a(S'you'
p8067
g22
F0.9967
tp8068
a(S'sittin'
p8069
g12
F0.9928
tp8070
a(g1462
g12
F0.397
tp8071
a(S'on'
p8072
g44
F0.9718
tp8073
a(S'my'
p8074
g3
F0.9983
tp8075
a(S'lap'
p8076
g9
F0.9992
tp8077
a(S'while'
p8078
g44
F0.9915
tp8079
a(S'you'
p8080
g22
F0.9982
tp8081
a(S're'
p8082
g12
F0.8171
tp8083
a(S'humming'
p8084
g12
F0.9947
tp8085
a(S'in'
p8086
g44
F0.9733
tp8087
a(S'my'
p8088
g3
F0.9989
tp8089
a(S'ear'
p8090
g9
F0.9981
tp8091
asI804
(lp8092
(S'come'
p8093
g12
F0.9849
tp8094
a(S'on'
p8095
g182
F0.5632
tp8096
asI805
(lp8097
(g156
g22
F0.9793
tp8098
a(S'll'
p8099
g12
F0.7855
tp8100
a(S'sit'
p8101
g12
F0.995
tp8102
a(S'with'
p8103
g44
F0.998
tp8104
a(S'you'
p8105
g22
F0.9994
tp8106
a(S'on'
p8107
g44
F0.9943
tp8108
a(S'the'
p8109
g3
F0.9994
tp8110
a(S'couch'
p8111
g9
F0.9954
tp8112
asI806
(lp8113
(S'come'
p8114
g12
F0.9849
tp8115
a(S'on'
p8116
g182
F0.5632
tp8117
asI807
(lp8118
(S'the'
p8119
g3
F0.9972
tp8120
a(S'end'
p8121
g9
F0.9855
tp8122
as.