(dp0
I0
(lp1
(S'now'
p2
S'R'
p3
F0.9689
tp4
a(S'that'
p5
S'O'
p6
F0.3901
tp7
a(S'i'
p8
g6
F0.9938
tp9
a(S'have'
p10
S'V'
p11
F0.9998
tp12
a(S'both'
p13
S'D'
p14
F0.376
tp15
a(S'of'
p16
S'P'
p17
F0.9965
tp18
a(S'you'
p19
g6
F0.9985
tp20
a(S'all'
p21
g14
F0.9959
tp22
a(S'attention'
p23
S'N'
p24
F0.9894
tp25
a(S'what'
p26
g6
F0.9625
tp27
a(S'are'
p28
g11
F0.9927
tp29
a(S'we'
p30
g6
F0.9986
tp31
a(S'having'
p32
g11
F0.9999
tp33
a(S'for'
p34
g17
F0.997
tp35
a(S'dinner'
p36
g24
F0.9537
tp37
asI1
(lp38
(S'what'
p39
g6
F0.9965
tp40
a(S'did'
p41
g11
F0.9992
tp42
a(S'you'
p43
g6
F0.9995
tp44
a(S'say'
p45
g11
F0.9924
tp46
asI2
(lp47
(S'what'
p48
g6
F0.9898
tp49
a(S'would'
p50
g11
F0.9997
tp51
a(S'you'
p52
g6
F0.9947
tp53
a(S'like'
p54
g11
F0.5787
tp55
a(S'spaghetti'
p56
g24
F0.9894
tp57
a(S'right'
p58
g3
F0.3575
tp59
asI3
(lp60
(S'yeah'
p61
S'!'
p62
F0.9988
tp63
asI4
(lp64
(S'okay'
p65
g62
F0.896
tp66
a(S'make'
p67
g11
F0.9795
tp68
a(S'some'
p69
g14
F0.9939
tp70
a(S'garlic'
p71
g24
F0.9866
tp72
a(S'toast'
p73
g24
F0.9962
tp74
a(S'xxx'
p75
S'E'
p76
F0.8
tp77
asI5
(lp78
(S'that'
p79
g6
F0.473
tp80
a(S's'
p81
g11
F0.6947
tp82
a(S'that'
p83
g6
F0.5826
tp84
a(g81
g11
F0.6999
tp85
a(S'that'
p86
g6
F0.5245
tp87
a(g81
S'G'
p88
F0.4628
tp89
a(S'what'
p90
g6
F0.9645
tp91
a(g8
g6
F0.9971
tp92
a(S'was'
p93
g11
F0.9997
tp94
a(S'saying'
p95
g11
F0.9895
tp96
asI6
(lp97
(S'that'
p98
g6
F0.473
tp99
a(g81
g88
F0.4404
tp100
a(S'what'
p101
g6
F0.9509
tp102
a(S'you'
p103
g6
F0.9992
tp104
a(S'were'
p105
g11
F0.9978
tp106
a(S'saying'
p107
g11
F0.9899
tp108
a(S'let'
p109
g11
F0.9974
tp110
a(S'me'
p111
g6
F0.9994
tp112
a(S'get'
p113
g11
F0.9991
tp114
a(S'this'
p115
g14
F0.9726
tp116
a(S'girl'
p117
g24
F0.9931
tp118
a(S'on'
p119
g17
F0.9987
tp120
a(S'her'
p121
g14
F0.9525
tp122
a(S'bottle'
p123
g24
F0.9972
tp124
asI7
(lp125
(S'what'
p126
g6
F0.9835
tp127
a(S'are'
p128
g11
F0.9978
tp129
a(S'you'
p130
g6
F0.9996
tp131
a(S'trying'
p132
g11
F0.9997
tp133
a(S'to'
p134
g17
F0.98
tp135
a(S'do'
p136
g11
F0.9995
tp137
a(S'go'
p138
g11
F0.9848
tp139
a(S'in'
p140
g17
F0.9897
tp141
a(S'the'
p142
g14
F0.9993
tp143
a(S'refrigerator'
p144
g24
F0.9953
tp145
a(S'and'
p146
S'&'
p147
F0.996
tp148
a(S'eat'
p149
g11
F0.9984
tp150
a(S'up'
p151
S'T'
p152
F0.8991
tp153
a(S'things'
p154
g24
F0.9904
tp155
asI8
(lp156
(S'yeah'
p157
g62
F0.9988
tp158
asI9
(lp159
(S'we'
p160
g6
F0.9971
tp161
a(S'got'
p162
g11
F0.9976
tp163
a(S'xxx'
p164
g76
F0.6451
tp165
asI10
(lp166
(S'okay'
p167
g62
F0.9857
tp168
asI11
(lp169
(S'alright'
p170
g62
F0.9677
tp171
a(S'boopdeboop'
p172
S'A'
p173
F0.166
tp174
a(S'wp'
p175
g24
F0.835
tp176
asI12
(lp177
(g8
g6
F0.9156
tp178
a(S've'
p179
g11
F0.8726
tp180
a(S'got'
p181
g11
F0.996
tp182
a(S'something'
p183
g24
F0.9863
tp184
a(S'for'
p185
g17
F0.9998
tp186
a(S'you'
p187
g6
F0.9994
tp188
a(S'to'
p189
g17
F0.9852
tp190
a(S'hang'
p191
g11
F0.9993
tp192
a(S'on'
p193
g17
F0.7095
tp194
a(S'to'
p195
g17
F0.9581
tp196
a(S'while'
p197
g11
F0.5452
tp198
a(S'we'
p199
g6
F0.9995
tp200
a(S'get'
p201
g11
F0.9999
tp202
a(S'this'
p203
g14
F0.9152
tp204
a(S'spaghetti'
p205
g24
F0.9979
tp206
asI13
(lp207
(S'what'
p208
g6
F0.9798
tp209
a(S'else'
p210
g3
F0.7975
tp211
a(S'do'
p212
g11
F0.9974
tp213
a(S'we'
p214
g6
F0.9982
tp215
asI14
(lp216
(S'laughing'
p217
g11
F0.9384
tp218
asI15
(lp219
(S'stop'
p220
g11
F0.9902
tp221
a(S'it'
p222
g6
F0.9896
tp223
asI16
(lp224
(S'you'
p225
g6
F0.9754
tp226
a(S're'
p227
g11
F0.7708
tp228
a(S'going'
p229
g11
F0.9981
tp230
a(S'to'
p231
g17
F0.9788
tp232
a(S'fall'
p233
g11
F0.9221
tp234
a(S'and'
p235
g147
F0.9967
tp236
a(S'bust'
p237
g11
F0.9632
tp238
a(S'your'
p239
g14
F0.995
tp240
a(S'head'
p241
g24
F0.9974
tp242
a(S'and'
p243
g147
F0.9944
tp244
a(S'pretend'
p245
g11
F0.9987
tp246
a(S'it'
p247
g6
F0.9931
tp248
a(g81
g11
F0.7233
tp249
a(S'somebody'
p250
g24
F0.9736
tp251
a(S'else'
p252
g3
F0.9514
tp253
a(g81
g88
F0.5743
tp254
a(S'fault'
p255
g24
F0.8915
tp256
asI17
(lp257
(S'you'
p258
g6
F0.998
tp259
a(S'want'
p260
g11
F0.9997
tp261
a(S'to'
p262
g17
F0.9904
tp263
a(S'come'
p264
g11
F0.9993
tp265
a(S'help'
p266
g11
F0.9983
tp267
a(S'me'
p268
g6
F0.9985
tp269
a(S'set'
p270
g11
F0.9734
tp271
a(S'the'
p272
g14
F0.9992
tp273
a(S'table'
p274
g24
F0.9965
tp275
asI18
(lp276
(S'huh'
p277
g62
F0.993
tp278
asI19
(lp279
(S'you'
p280
g6
F0.9979
tp281
a(S'going'
p282
g11
F0.9995
tp283
a(S'to'
p284
g17
F0.9712
tp285
a(S'come'
p286
g11
F0.9993
tp287
a(S'help'
p288
g11
F0.9983
tp289
a(S'me'
p290
g6
F0.9985
tp291
a(S'set'
p292
g11
F0.9734
tp293
a(S'the'
p294
g14
F0.9992
tp295
a(S'table'
p296
g24
F0.9965
tp297
asI20
(lp298
(S'what'
p299
g6
F0.9965
tp300
a(S'did'
p301
g11
F0.9994
tp302
a(S'you'
p303
g6
F0.9995
tp304
a(S'say'
p305
g11
F0.9927
tp306
a(S'mommy'
p307
g24
F0.4733
tp308
asI21
(lp309
(g8
g6
F0.9793
tp310
a(S'll'
p311
g11
F0.9059
tp312
a(S'wait'
p313
g11
F0.9917
tp314
a(S'un'
p315
S'^'
p316
F0.3187
tp317
a(S'til'
p318
g17
F0.9729
tp319
a(S'you'
p320
g6
F0.9993
tp321
a(S'come'
p322
g11
F0.9999
tp323
a(S'out'
p324
g152
F0.877
tp325
asI22
(lp326
(S'huh'
p327
g62
F0.993
tp328
asI23
(lp329
(g8
g6
F0.989
tp330
a(S'asked'
p331
g11
F0.9986
tp332
a(S'are'
p333
g11
F0.9957
tp334
a(S'you'
p335
g6
F0.9995
tp336
a(S'going'
p337
g11
F0.9997
tp338
a(S'to'
p339
g17
F0.9806
tp340
a(S'help'
p341
g11
F0.9997
tp342
a(S'me'
p343
g6
F0.9985
tp344
a(S'set'
p345
g11
F0.9815
tp346
a(S'the'
p347
g14
F0.9994
tp348
a(S'table'
p349
g24
F0.9946
tp350
asI24
(lp351
(S'okay'
p352
g62
F0.9857
tp353
asI25
(lp354
(S'mommy'
p355
g24
F0.5271
tp356
asI26
(lp357
(S'yes'
p358
g62
F0.9796
tp359
a(S'honey'
p360
g24
F0.6909
tp361
asI27
(lp362
(S'on'
p363
g17
F0.9692
tp364
a(S'monday'
p365
g316
F0.9236
tp366
a(S'you'
p367
g6
F0.994
tp368
a(S'not'
p369
g3
F0.9977
tp370
a(S'xxx'
p371
g11
F0.3741
tp372
a(S'home'
p373
g24
F0.7451
tp374
a(S'when'
p375
g3
F0.9889
tp376
a(S'xxx'
p377
g76
F0.46
tp378
a(S'say'
p379
g11
F0.9932
tp380
a(S'the'
p381
g14
F0.9909
tp382
a(S'xxx'
p383
g24
F0.6205
tp384
a(S'said'
p385
g11
F0.994
tp386
a(S'nuhhuh'
p387
g62
F0.3837
tp388
a(S'that'
p389
g6
F0.5503
tp390
a(g81
g88
F0.4438
tp391
a(S'not'
p392
g3
F0.9731
tp393
a(S'your'
p394
g14
F0.9719
tp395
a(S'phone'
p396
g24
F0.9989
tp397
a(S'number'
p398
g24
F0.9826
tp399
asI28
(lp400
(S'you'
p401
g6
F0.9968
tp402
a(S'should'
p403
g11
F0.999
tp404
a(S'what'
p405
g6
F0.998
tp406
a(S'did'
p407
g11
F0.9993
tp408
a(S'you'
p409
g6
F0.9985
tp410
a(S'tell'
p411
g11
F0.9996
tp412
a(S'her'
p413
g6
F0.8088
tp414
asI29
(lp415
(g8
g6
F0.9893
tp416
a(S'said'
p417
g11
F0.9981
tp418
a(S'two'
p419
S'$'
p420
F0.8812
tp421
a(S'nine'
p422
g173
F0.5742
tp423
a(S'three'
p424
g420
F0.8735
tp425
a(S'four'
p426
g420
F0.6313
tp427
a(S'one'
p428
g420
F0.9749
tp429
a(S'o'
p430
g17
F0.799
tp431
a(S'l'
p432
g24
F0.376
tp433
a(S'seven'
p434
g420
F0.7689
tp435
asI30
(lp436
(S'then'
p437
g3
F0.9662
tp438
a(S'you'
p439
g6
F0.9994
tp440
a(S'should'
p441
g11
F0.9997
tp442
a(S'tell'
p443
g11
F0.9996
tp444
a(S'her'
p445
g6
F0.9382
tp446
a(S'to'
p447
g17
F0.9827
tp448
a(S'go'
p449
g11
F0.9987
tp450
a(S'check'
p451
g11
F0.9646
tp452
a(S'the'
p453
g14
F0.9996
tp454
a(S'books'
p455
g24
F0.9583
tp456
a(S'because'
p457
g17
F0.999
tp458
a(S'that'
p459
g6
F0.9728
tp460
a(S'is'
p461
g11
F0.9999
tp462
a(S'your'
p463
g14
F0.9936
tp464
a(S'phone'
p465
g24
F0.9992
tp466
a(S'number'
p467
g24
F0.9769
tp468
asI31
(lp469
(S'so'
p470
g3
F0.7843
tp471
a(S'next'
p472
g173
F0.973
tp473
a(S'time'
p474
g24
F0.9979
tp475
a(S'she'
p476
g6
F0.983
tp477
a(S'tell'
p478
g11
F0.9991
tp479
a(S'you'
p480
g6
F0.9989
tp481
a(S'that'
p482
g17
F0.5442
tp483
a(g81
g88
F0.5711
tp484
a(S'not'
p485
g3
F0.9731
tp486
a(S'your'
p487
g14
F0.9768
tp488
a(S'phone'
p489
g24
F0.999
tp490
a(S'number'
p491
g24
F0.9746
tp492
a(S'tell'
p493
g11
F0.9922
tp494
a(S'her'
p495
g6
F0.9382
tp496
a(S'to'
p497
g17
F0.9827
tp498
a(S'go'
p499
g11
F0.9993
tp500
a(S'in'
p501
g17
F0.9897
tp502
a(S'the'
p503
g14
F0.9993
tp504
a(S'office'
p505
g24
F0.9607
tp506
a(S'and'
p507
g147
F0.9975
tp508
a(S'look'
p509
g11
F0.9975
tp510
a(S'it'
p511
g6
F0.9973
tp512
a(S'up'
p513
g152
F0.9535
tp514
a(S'for'
p515
g17
F0.9996
tp516
a(S'you'
p517
g6
F0.9994
tp518
a(S'because'
p519
g17
F0.9932
tp520
a(S'you'
p521
g6
F0.9998
tp522
a(S'know'
p523
g11
F0.9997
tp524
a(S'that'
p525
g6
F0.5465
tp526
a(S'that'
p527
g6
F0.613
tp528
a(g81
g11
F0.6874
tp529
a(S'your'
p530
g14
F0.9887
tp531
a(S'phone'
p532
g24
F0.999
tp533
a(S'number'
p534
g24
F0.9649
tp535
a(S'okay'
p536
g62
F0.8617
tp537
asI32
(lp538
(S'you'
p539
g6
F0.9969
tp540
a(S'can'
p541
g11
F0.9998
tp542
a(S'be'
p543
g11
F0.9997
tp544
a(S'right'
p545
g3
F0.8296
tp546
a(S'too'
p547
g3
F0.7709
tp548
a(S'you'
p549
g6
F0.9996
tp550
a(S'know'
p551
g11
F0.9983
tp552
a(S'just'
p553
g3
F0.9992
tp554
a(S'because'
p555
g17
F0.9992
tp556
a(S'the'
p557
g14
F0.9992
tp558
a(S'teacher'
p559
g24
F0.9688
tp560
a(S'says'
p561
g11
F0.9991
tp562
a(S'you'
p563
g6
F0.9957
tp564
a(S're'
p565
g11
F0.8583
tp566
a(S'wrong'
p567
g173
F0.8366
tp568
a(S'the'
p569
g14
F0.9993
tp570
a(S'teacher'
p571
g24
F0.9727
tp572
a(S'can'
p573
g11
F0.9965
tp574
a(S'be'
p575
g11
F0.9996
tp576
a(S'wrong'
p577
g173
F0.9606
tp578
a(S'too'
p579
g3
F0.9472
tp580
asI33
(lp581
(S'did'
p582
g11
F0.9923
tp583
a(S'she'
p584
g6
F0.9987
tp585
a(S'have'
p586
g11
F0.9998
tp587
a(S'a'
p588
g14
F0.9986
tp589
a(S'sheet'
p590
g24
F0.9997
tp591
a(S'of'
p592
g17
F0.995
tp593
a(S'numbers'
p594
g24
F0.9793
tp595
a(S'in'
p596
g17
F0.9922
tp597
a(S'front'
p598
g24
F0.9775
tp599
a(S'of'
p600
g17
F0.9992
tp601
a(S'her'
p602
g6
F0.5718
tp603
asI34
(lp604
(S'yeah'
p605
g62
F0.9988
tp606
asI35
(lp607
(S'well'
p608
g62
F0.7961
tp609
a(S'maybe'
p610
g3
F0.9468
tp611
a(S'somebody'
p612
g24
F0.8914
tp613
a(S'wrote'
p614
g11
F0.9993
tp615
a(S'our'
p616
g14
F0.997
tp617
a(S'phone'
p618
g24
F0.9968
tp619
a(S'number'
p620
g24
F0.9315
tp621
a(S'down'
p622
g3
F0.6347
tp623
a(S'wrong'
p624
g173
F0.9583
tp625
asI36
(lp626
(g8
g6
F0.9793
tp627
a(S'll'
p628
g11
F0.7693
tp629
a(S'have'
p630
g11
F0.9989
tp631
a(S'to'
p632
g17
F0.9894
tp633
a(S'go'
p634
g11
F0.9971
tp635
a(S'and'
p636
g147
F0.9897
tp637
a(S'check'
p638
g11
F0.8657
tp639
asI37
(lp640
(g8
g6
F0.9908
tp641
a(S'know'
p642
g11
F0.9998
tp643
a(S'they'
p644
g6
F0.9971
tp645
a(S'know'
p646
g11
F0.9985
tp647
a(S'how'
p648
g3
F0.9928
tp649
a(S'to'
p650
g17
F0.9944
tp651
a(S'call'
p652
g11
F0.999
tp653
a(S'me'
p654
g6
F0.9988
tp655
asI38
(lp656
(S'mommy'
p657
g24
F0.5271
tp658
asI39
(lp659
(S'yes'
p660
g62
F0.9796
tp661
a(S'honey'
p662
g24
F0.6909
tp663
asI40
(lp664
(S'xxx'
p665
g76
F0.663
tp666
a(S'can'
p667
g11
F0.9962
tp668
a(S'watch'
p669
g11
F0.9963
tp670
a(S'television'
p671
g24
F0.9698
tp672
a(S'by'
p673
g17
F0.999
tp674
a(S'themselves'
p675
g6
F0.8837
tp676
a(S'huh'
p677
g62
F0.9173
tp678
asI41
(lp679
(S'uh'
p680
g62
F0.9849
tp681
a(g8
g6
F0.9956
tp682
a(S'guess'
p683
g11
F0.9996
tp684
a(S'so'
p685
g3
F0.6166
tp686
asI42
(lp687
(S'okay'
p688
g62
F0.9857
tp689
asI43
(lp690
(S'what'
p691
g6
F0.9835
tp692
a(S'are'
p693
g11
F0.9933
tp694
a(S'we'
p695
g6
F0.9986
tp696
a(S'having'
p697
g11
F0.9998
tp698
a(S'for'
p699
g17
F0.9959
tp700
a(S'dessert'
p701
g24
F0.9431
tp702
asI44
(lp703
(S'what'
p704
g6
F0.9835
tp705
a(S'are'
p706
g11
F0.9933
tp707
a(S'we'
p708
g6
F0.9986
tp709
a(S'having'
p710
g11
F0.9998
tp711
a(S'for'
p712
g17
F0.9959
tp713
a(S'dessert'
p714
g24
F0.9431
tp715
asI45
(lp716
(S'yeah'
p717
g62
F0.9988
tp718
asI46
(lp719
(S'want'
p720
g11
F0.9863
tp721
a(S'garlic'
p722
g24
F0.9653
tp723
a(S'bread'
p724
g24
F0.9985
tp725
a(S'with'
p726
g17
F0.9999
tp727
a(S'the'
p728
g14
F0.9995
tp729
a(S'spaghetti'
p730
g24
F0.9957
tp731
asI47
(lp732
(S'huh'
p733
g62
F0.993
tp734
asI48
(lp735
(S'you'
p736
g6
F0.998
tp737
a(S'want'
p738
g11
F0.9993
tp739
a(S'garlic'
p740
g24
F0.9701
tp741
a(S'bread'
p742
g24
F0.9982
tp743
a(S'with'
p744
g17
F0.9998
tp745
a(S'the'
p746
g14
F0.9993
tp747
a(S'spaghetti'
p748
g24
F0.9961
tp749
asI49
(lp750
(S'nuhhuh'
p751
g62
F0.533
tp752
asI50
(lp753
(S'you'
p754
g6
F0.9926
tp755
a(S'don'
p756
g11
F0.8675
tp757
a(S't'
p758
g24
F0.2503
tp759
a(S'want'
p760
g11
F0.9986
tp761
a(S'no'
p762
g14
F0.9572
tp763
a(S'garlic'
p764
g24
F0.9994
tp765
a(S'toast'
p766
g24
F0.9973
tp767
asI51
(lp768
(S'no'
p769
g62
F0.9253
tp770
asI52
(lp771
(S'no'
p772
g62
F0.9253
tp773
asI53
(lp774
(g8
g6
F0.9897
tp775
a(S'want'
p776
g11
F0.9998
tp777
a(S'spaghetti'
p778
g24
F0.9844
tp779
a(S'and'
p780
g147
F0.9975
tp781
a(S'then'
p782
g3
F0.98
tp783
a(S'we'
p784
g6
F0.9981
tp785
a(S'could'
p786
g11
F0.9996
tp787
a(S'have'
p788
g11
F0.9972
tp789
a(S'cheese'
p790
g24
F0.9934
tp791
a(S'popcorn'
p792
g24
F0.9726
tp793
a(S'after'
p794
g17
F0.9883
tp795
a(S'that'
p796
g6
F0.9718
tp797
asI54
(lp798
(S'that'
p799
g6
F0.473
tp800
a(g81
g88
F0.6317
tp801
a(S'okay'
p802
g62
F0.7675
tp803
a(S'you'
p804
g6
F0.9986
tp805
a(S'can'
p806
g11
F0.9996
tp807
a(S'cheese'
p808
g24
F0.8272
tp809
a(S'popcorn'
p810
g24
F0.9717
tp811
a(S'for'
p812
g17
F0.9993
tp813
a(S'dessert'
p814
g24
F0.8974
tp815
a(S'but'
p816
g147
F0.9715
tp817
a(S'you'
p818
g6
F0.9991
tp819
a(S'don'
p820
g11
F0.8626
tp821
a(g758
g24
F0.2294
tp822
a(S'want'
p823
g11
F0.9985
tp824
a(S'no'
p825
g14
F0.9683
tp826
a(S'garlic'
p827
g24
F0.9994
tp828
a(S'toast'
p829
g24
F0.9951
tp830
a(S'with'
p831
g17
F0.9998
tp832
a(S'your'
p833
g14
F0.9076
tp834
a(S'um'
p835
g88
F0.4304
tp836
a(S'spaghetti'
p837
g24
F0.9711
tp838
asI55
(lp839
(g8
g6
F0.9635
tp840
a(S'don'
p841
g11
F0.9231
tp842
a(g758
g11
F0.4066
tp843
a(S'like'
p844
g17
F0.8699
tp845
a(S'it'
p846
g6
F0.9986
tp847
asI56
(lp848
(S'okay'
p849
g62
F0.9064
tp850
a(S'now'
p851
g3
F0.9778
tp852
a(S'that'
p853
g6
F0.483
tp854
a(g81
g11
F0.5426
tp855
a(S'the'
p856
g14
F0.9994
tp857
a(S'third'
p858
g173
F0.995
tp859
a(S'time'
p860
g24
F0.994
tp861
a(S'you'
p862
g6
F0.9787
tp863
a(S've'
p864
g11
F0.7943
tp865
a(S'said'
p866
g11
F0.9973
tp867
a(S'that'
p868
g6
F0.6125
tp869
a(S'now'
p870
g3
F0.9979
tp871
a(S'when'
p872
g3
F0.9958
tp873
a(g8
g6
F0.9872
tp874
a(S'make'
p875
g11
F0.9998
tp876
a(S'some'
p877
g14
F0.9938
tp878
a(S'garlic'
p879
g24
F0.9829
tp880
a(S'toast'
p881
g24
F0.9977
tp882
a(S'and'
p883
g147
F0.9978
tp884
a(S'it'
p885
g6
F0.9972
tp886
a(S'looks'
p887
g11
F0.997
tp888
a(S'real'
p889
g3
F0.6386
tp890
a(S'good'
p891
g173
F0.999
tp892
a(g8
g6
F0.8754
tp893
a(S'm'
p894
g11
F0.9822
tp895
a(S'going'
p896
g11
F0.9976
tp897
a(S'to'
p898
g17
F0.9755
tp899
a(S'say'
p900
g11
F0.9951
tp901
a(S'well'
p902
g62
F0.5492
tp903
a(S'chi'
p904
g316
F0.2948
tp905
a(S'you'
p906
g6
F0.9985
tp907
a(S'told'
p908
g11
F0.9999
tp909
a(S'me'
p910
g6
F0.9959
tp911
a(S'you'
p912
g6
F0.9934
tp913
a(S'didn'
p914
g11
F0.9878
tp915
a(g758
g11
F0.7402
tp916
a(S'want'
p917
g11
F0.9988
tp918
a(S'any'
p919
g14
F0.928
tp920
asI57
(lp921
(S'xxx'
p922
g76
F0.8252
tp923
a(S'xxx'
p924
g76
F0.8951
tp925
a(S'looking'
p926
g11
F0.9878
tp927
a(S'at'
p928
g17
F0.9992
tp929
a(S'you'
p930
g6
F0.9721
tp931
a(S'sis'
p932
g24
F0.8366
tp933
asI58
(lp934
(S'who'
p935
g6
F0.9916
tp936
a(S'are'
p937
g11
F0.9997
tp938
a(S'you'
p939
g6
F0.9977
tp940
asI59
(lp941
(S'who'
p942
g6
F0.9764
tp943
asI60
(lp944
(S'you'
p945
g6
F0.9627
tp946
asI61
(lp947
(S'when'
p948
g3
F0.9425
tp949
asI62
(lp950
(S'today'
p951
g24
F0.9895
tp952
asI63
(lp953
(S'hey'
p954
g62
F0.9912
tp955
a(S'you'
p956
g6
F0.9966
tp957
a(S'didn'
p958
g11
F0.9885
tp959
a(g758
g11
F0.7272
tp960
a(S'almost'
p961
g3
F0.9914
tp962
a(S'notice'
p963
g11
F0.9951
tp964
a(S'me'
p965
g6
F0.9993
tp966
a(S'coming'
p967
g11
F0.9986
tp968
a(S'by'
p969
g17
F0.953
tp970
a(S'and'
p971
g147
F0.9975
tp972
a(S'kiss'
p973
g11
F0.9908
tp974
a(S'you'
p975
g6
F0.9988
tp976
a(S'on'
p977
g17
F0.988
tp978
a(S'your'
p979
g14
F0.9967
tp980
a(S'cheek'
p981
g24
F0.9991
tp982
a(S'huh'
p983
g62
F0.9387
tp984
asI64
(lp985
(S'no'
p986
g62
F0.9253
tp987
asI65
(lp988
(g8
g6
F0.9756
tp989
a(S'didn'
p990
g11
F0.9919
tp991
a(g758
g11
F0.7449
tp992
a(S'know'
p993
g11
F0.9818
tp994
a(S'but'
p995
g147
F0.9886
tp996
a(g8
g6
F0.9911
tp997
a(S'didn'
p998
g11
F0.9913
tp999
a(g758
g11
F0.7348
tp1000
a(S'know'
p1001
g11
F0.9981
tp1002
a(S'you'
p1003
g6
F0.9956
tp1004
a(S'that'
p1005
g14
F0.672
tp1006
a(g8
g6
F0.9914
tp1007
a(S'thought'
p1008
g11
F0.9998
tp1009
a(S'that'
p1010
g6
F0.8642
tp1011
a(S'was'
p1012
g11
F0.9998
tp1013
a(S'my'
p1014
g14
F0.9987
tp1015
a(S'daddy'
p1016
g24
F0.9975
tp1017
asI66
(lp1018
(g8
g6
F0.9914
tp1019
a(S'was'
p1020
g11
F0.9998
tp1021
a(S'sneaking'
p1022
g11
F0.9993
tp1023
a(S'up'
p1024
g152
F0.9814
tp1025
a(S'on'
p1026
g17
F0.991
tp1027
a(S'you'
p1028
g6
F0.9989
tp1029
asI67
(lp1030
(g8
g6
F0.8915
tp1031
a(S'mommy'
p1032
g24
F0.3929
tp1033
a(g8
g6
F0.9489
tp1034
a(S'thought'
p1035
g11
F0.9997
tp1036
a(S'that'
p1037
g6
F0.8642
tp1038
a(S'was'
p1039
g11
F0.9998
tp1040
a(S'my'
p1041
g14
F0.9988
tp1042
a(S'daddy'
p1043
g24
F0.9986
tp1044
a(S'sneaking'
p1045
g11
F0.9998
tp1046
a(S'up'
p1047
g152
F0.9808
tp1048
a(S'on'
p1049
g17
F0.9926
tp1050
a(S'me'
p1051
g6
F0.9982
tp1052
asI68
(lp1053
(S'oh'
p1054
g62
F0.9878
tp1055
a(S'you'
p1056
g6
F0.9978
tp1057
a(S'did'
p1058
g11
F0.9983
tp1059
a(S'huh'
p1060
g62
F0.9831
tp1061
asI69
(lp1062
(S'yeah'
p1063
g62
F0.9968
tp1064
a(g8
g6
F0.991
tp1065
a(S'didn'
p1066
g11
F0.9915
tp1067
a(g758
g11
F0.7488
tp1068
a(S'know'
p1069
g11
F0.996
tp1070
a(S'that'
p1071
g6
F0.5465
tp1072
a(S'that'
p1073
g6
F0.8651
tp1074
a(S'was'
p1075
g11
F0.9998
tp1076
a(S'you'
p1077
g6
F0.9983
tp1078
asI70
(lp1079
(S'you'
p1080
g6
F0.9945
tp1081
a(S'were'
p1082
g11
F0.9998
tp1083
a(S'my'
p1084
g14
F0.9959
tp1085
a(S'daddy'
p1086
g24
F0.9992
tp1087
a(g8
g6
F0.8982
tp1088
a(S'didn'
p1089
g11
F0.9913
tp1090
a(g758
g11
F0.716
tp1091
a(S'know'
p1092
g11
F0.9672
tp1093
a(S'xxx'
p1094
g76
F0.7338
tp1095
asI71
(lp1096
(S'singing'
p1097
g11
F0.9945
tp1098
asI72
(lp1099
(S'oh'
p1100
g62
F0.9975
tp1101
a(S'yeah'
p1102
g62
F0.9985
tp1103
a(S'you'
p1104
g6
F0.9984
tp1105
a(S'having'
p1106
g11
F0.9993
tp1107
a(S'fun'
p1108
g24
F0.6811
tp1109
asI73
(lp1110
(S'no'
p1111
g62
F0.9253
tp1112
asI74
(lp1113
(S'no'
p1114
g62
F0.9253
tp1115
asI75
(lp1116
(S'no'
p1117
g62
F0.9253
tp1118
asI76
(lp1119
(S'huh'
p1120
g62
F0.993
tp1121
asI77
(lp1122
(S'nuhhuh'
p1123
g62
F0.533
tp1124
asI78
(lp1125
(S'you'
p1126
g6
F0.9946
tp1127
a(S'look'
p1128
g11
F0.9982
tp1129
a(S'like'
p1130
g17
F0.9432
tp1131
a(S'you'
p1132
g6
F0.998
tp1133
a(S're'
p1134
g11
F0.8231
tp1135
a(S'having'
p1136
g11
F0.9967
tp1137
a(S'fun'
p1138
g24
F0.5696
tp1139
asI79
(lp1140
(S'babbles'
p1141
g24
F0.4202
tp1142
asI80
(lp1143
(S'yes'
p1144
g62
F0.9629
tp1145
a(S'say'
p1146
g11
F0.8286
tp1147
a(g8
g6
F0.991
tp1148
a(S'didn'
p1149
g11
F0.9911
tp1150
a(g758
g11
F0.6731
tp1151
a(S'get'
p1152
g11
F0.9985
tp1153
a(S'no'
p1154
g14
F0.984
tp1155
a(S'tea'
p1156
g24
F0.9974
tp1157
a(S'this'
p1158
g14
F0.975
tp1159
a(S'morning'
p1160
g24
F0.9869
tp1161
a(S'hun'
p1162
g24
F0.8907
tp1163
a(S'd'
p1164
g88
F0.5499
tp1165
asI81
(lp1166
(S'say'
p1167
g11
F0.9819
tp1168
a(S'no'
p1169
g14
F0.8727
tp1170
a(S'tea'
p1171
g24
F0.9995
tp1172
asI82
(lp1173
(S'everybody'
p1174
g24
F0.8363
tp1175
a(S'have'
p1176
g11
F0.9978
tp1177
a(S'such'
p1178
S'X'
p1179
F0.4328
tp1180
a(g588
g14
F0.9958
tp1181
a(S'good'
p1182
g173
F0.9933
tp1183
a(S'xxx'
p1184
g76
F0.7235
tp1185
a(S'xxx'
p1186
g76
F0.9594
tp1187
a(S'kiss'
p1188
g11
F0.7074
tp1189
asI83
(lp1190
(S'oh'
p1191
g62
F0.9896
tp1192
a(S'those'
p1193
g14
F0.8754
tp1194
a(S'little'
p1195
g173
F0.9972
tp1196
a(S'lips'
p1197
g24
F0.9961
tp1198
asI84
(lp1199
(S'mm'
p1200
g62
F0.4566
tp1201
a(S'mm'
p1202
g62
F0.7507
tp1203
asI85
(lp1204
(S'yeah'
p1205
g62
F0.9983
tp1206
a(S'that'
p1207
g6
F0.6675
tp1208
a(g81
g88
F0.3543
tp1209
a(S'mama'
p1210
g24
F0.9109
tp1211
a(g81
g88
F0.7976
tp1212
a(S'boob'
p1213
g24
F0.5858
tp1214
asI86
(lp1215
(S'yeah'
p1216
g62
F0.9988
tp1217
asI87
(lp1218
(S'you'
p1219
g6
F0.9721
tp1220
a(S'better'
p1221
g173
F0.6502
tp1222
a(S'take'
p1223
g11
F0.7345
tp1224
a(S'that'
p1225
g14
F0.9131
tp1226
a(S'chicken'
p1227
g24
F0.9573
tp1228
a(S'out'
p1229
g17
F0.9613
tp1230
a(S'your'
p1231
g14
F0.9944
tp1232
a(S'mouth'
p1233
g24
F0.9997
tp1234
a(S'like'
p1235
g17
F0.9632
tp1236
a(S'that'
p1237
g6
F0.7655
tp1238
a(S'yeah'
p1239
g62
F0.9722
tp1240
asI88
(lp1241
(S'be'
p1242
g11
F0.9367
tp1243
a(S'fore'
p1244
g17
F0.8503
tp1245
a(S'you'
p1246
g6
F0.9991
tp1247
a(S'start'
p1248
g11
F0.9987
tp1249
a(S'coughing'
p1250
g11
F0.9823
tp1251
asI89
(lp1252
(S'0'
p1253
g420
F0.9644
tp1254
a(S'demonstrates'
p1255
g11
F0.9821
tp1256
a(S'coughing'
p1257
g11
F0.9514
tp1258
asI90
(lp1259
(S'you'
p1260
g6
F0.9968
tp1261
a(S'wanna'
p1262
g11
F0.9975
tp1263
a(S'start'
p1264
g11
F0.9983
tp1265
a(S'coughing'
p1266
g11
F0.944
tp1267
asI91
(lp1268
(S'huh'
p1269
g62
F0.993
tp1270
asI92
(lp1271
(S'you'
p1272
g6
F0.9968
tp1273
a(S'wanna'
p1274
g11
F0.9975
tp1275
a(S'start'
p1276
g11
F0.9983
tp1277
a(S'coughing'
p1278
g11
F0.944
tp1279
asI93
(lp1280
(S'babbles'
p1281
g24
F0.4202
tp1282
asI94
(lp1283
(S'mhm'
p1284
g62
F0.9747
tp1285
asI95
(lp1286
(S'mhm'
p1287
g62
F0.9747
tp1288
asI96
(lp1289
(S'you'
p1290
g6
F0.9954
tp1291
a(S'shaking'
p1292
g11
F1.0
tp1293
a(S'your'
p1294
g14
F0.9954
tp1295
a(S'head'
p1296
g24
F0.9974
tp1297
a(S'no'
p1298
g62
F0.7472
tp1299
asI97
(lp1300
(S'if'
p1301
g17
F0.984
tp1302
a(g8
g6
F0.9945
tp1303
a(S'wasn'
p1304
g11
F0.9743
tp1305
a(g758
g24
F0.1883
tp1306
a(S'looking'
p1307
g11
F0.9868
tp1308
a(S'was'
p1309
g11
F0.9814
tp1310
a(g8
g6
F0.9956
tp1311
a(S'supposed'
p1312
g11
F0.7476
tp1313
a(S'to'
p1314
g17
F0.9961
tp1315
a(S'hear'
p1316
g11
F0.9994
tp1317
a(S'your'
p1318
g14
F0.9975
tp1319
a(S'brains'
p1320
g24
F0.9932
tp1321
a(S'rattle'
p1322
g24
F0.5589
tp1323
asI98
(lp1324
(S'you'
p1325
g6
F0.9971
tp1326
a(S'say'
p1327
g11
F0.9992
tp1328
a(S'no'
p1329
g62
F0.7335
tp1330
asI99
(lp1331
(g1253
g420
F0.9876
tp1332
a(S'soft'
p1333
g173
F0.9849
tp1334
a(S'vocalizing'
p1335
g24
F0.7572
tp1336
asI100
(lp1337
(S'chi'
p1338
g88
F0.3949
tp1339
a(S'you'
p1340
g6
F0.9975
tp1341
a(S'pick'
p1342
g11
F0.9997
tp1343
a(S'up'
p1344
g152
F0.9339
tp1345
a(S'the'
p1346
g14
F0.9997
tp1347
a(S'stuff'
p1348
g24
F0.9987
tp1349
a(S'out'
p1350
g17
F0.9746
tp1351
a(S'of'
p1352
g17
F0.9975
tp1353
a(S'your'
p1354
g14
F0.9935
tp1355
a(S'room'
p1356
g24
F0.9968
tp1357
asI101
(lp1358
(S'huh'
p1359
g62
F0.993
tp1360
asI102
(lp1361
(S'you'
p1362
g6
F0.9954
tp1363
a(S'putting'
p1364
g11
F0.9999
tp1365
a(S'the'
p1366
g14
F0.9998
tp1367
a(S'stuff'
p1368
g24
F0.9977
tp1369
a(S'up'
p1370
g17
F0.5729
tp1371
a(S'in'
p1372
g17
F0.9924
tp1373
a(S'your'
p1374
g14
F0.9929
tp1375
a(S'room'
p1376
g24
F0.9979
tp1377
asI103
(lp1378
(S'xxx'
p1379
g76
F0.6507
tp1380
a(S'no'
p1381
g62
F0.8686
tp1382
asI104
(lp1383
(S'well'
p1384
g62
F0.8573
tp1385
a(g8
g6
F0.9974
tp1386
a(S'wish'
p1387
g11
F0.9999
tp1388
a(S'you'
p1389
g6
F0.9993
tp1390
a(S'would'
p1391
g11
F0.9995
tp1392
asI105
(lp1393
(S'xxx'
p1394
g76
F0.8437
tp1395
asI106
(lp1396
(S'huh'
p1397
g62
F0.9383
tp1398
a(S'say'
p1399
g11
F0.975
tp1400
a(S'she'
p1401
g6
F0.9985
tp1402
a(S'got'
p1403
g11
F0.9993
tp1404
a(S'to'
p1405
g17
F0.8905
tp1406
a(S'clean'
p1407
g11
F0.9851
tp1408
a(S'up'
p1409
g152
F0.8267
tp1410
a(S'her'
p1411
g14
F0.9458
tp1412
a(S'room'
p1413
g24
F0.999
tp1414
asI107
(lp1415
(S'xxx'
p1416
g76
F0.8437
tp1417
asI108
(lp1418
(S'unhunh'
p1419
g316
F0.3101
tp1420
a(S'but'
p1421
g147
F0.9952
tp1422
a(g8
g6
F0.9928
tp1423
a(S'still'
p1424
g3
F0.9927
tp1425
a(S'want'
p1426
g11
F0.9996
tp1427
a(S'that'
p1428
g14
F0.6209
tp1429
a(S'room'
p1430
g24
F0.9934
tp1431
a(S'done'
p1432
g11
F0.9502
tp1433
asI109
(lp1434
(S'ouch'
p1435
g62
F0.9968
tp1436
asI110
(lp1437
(S'say'
p1438
g11
F0.9468
tp1439
a(S'hot'
p1440
g173
F0.9974
tp1441
a(S'stuff'
p1442
g24
F0.9987
tp1443
asI111
(lp1444
(S'hot'
p1445
g173
F0.981
tp1446
a(S'stuff'
p1447
g24
F0.9972
tp1448
asI112
(lp1449
(g1253
g420
F0.9815
tp1450
a(S'mimics'
p1451
g24
F0.5247
tp1452
a(S'sis'
p1453
g24
F0.9514
tp1454
a(g81
g88
F0.85
tp1455
a(S'vocalizing'
p1456
g11
F0.405
tp1457
asI113
(lp1458
(S'xxx'
p1459
g76
F0.4315
tp1460
a(S'down'
p1461
g173
F0.2979
tp1462
a(S'yeah'
p1463
g62
F0.965
tp1464
asI114
(lp1465
(S'yeah'
p1466
g62
F0.9988
tp1467
asI115
(lp1468
(S'are'
p1469
g11
F0.9964
tp1470
a(S'you'
p1471
g6
F0.9992
tp1472
a(S'having'
p1473
g11
F0.9997
tp1474
a(S'fun'
p1475
g24
F0.8237
tp1476
a(S'miss'
p1477
g11
F0.9602
tp1478
a(S'sis'
p1479
g24
F0.9131
tp1480
asI116
(lp1481
(S'coos'
p1482
g24
F0.5375
tp1483
asI117
(lp1484
(S'no'
p1485
g62
F0.9253
tp1486
asI118
(lp1487
(S'why'
p1488
g3
F0.9496
tp1489
a(S'not'
p1490
g3
F0.9891
tp1491
a(S'yes'
p1492
g62
F0.9492
tp1493
asI119
(lp1494
(S'xxx'
p1495
g76
F0.8437
tp1496
asI120
(lp1497
(S'xxx'
p1498
g76
F0.8437
tp1499
asI121
(lp1500
(S'yes'
p1501
g62
F0.9958
tp1502
asI122
(lp1503
(S'yes'
p1504
g62
F0.9629
tp1505
a(S'say'
p1506
g11
F0.8286
tp1507
a(g8
g6
F0.9871
tp1508
a(g894
g11
F0.9821
tp1509
a(S'enjoying'
p1510
g11
F0.9997
tp1511
a(S'this'
p1512
g14
F0.7237
tp1513
a(S'chuckles'
p1514
g24
F0.8654
tp1515
asI123
(lp1516
(S'no'
p1517
g62
F0.8465
tp1518
a(S'we'
p1519
g6
F0.9867
tp1520
a(S'not'
p1521
g3
F0.9977
tp1522
a(S'going'
p1523
g11
F0.9991
tp1524
a(S'to'
p1525
g17
F0.9862
tp1526
a(S'give'
p1527
g11
F0.9999
tp1528
a(S'you'
p1529
g6
F0.9985
tp1530
a(S'xxx'
p1531
g76
F0.4504
tp1532
a(S'xxx'
p1533
g76
F0.9453
tp1534
a(S'they'
p1535
g6
F0.9837
tp1536
a(S'get'
p1537
g11
F0.9999
tp1538
a(S'all'
p1539
g14
F0.9918
tp1540
a(S'mushy'
p1541
g173
F0.9774
tp1542
a(S'all'
p1543
g14
F0.9346
tp1544
a(S'full'
p1545
g173
F0.9123
tp1546
a(S'of'
p1547
g17
F0.9928
tp1548
a(S'food'
p1549
g24
F0.9509
tp1550
asI124
(lp1551
(S'mommy'
p1552
g24
F0.5271
tp1553
asI125
(lp1554
(S'mm'
p1555
g62
F0.627
tp1556
asI126
(lp1557
(S'babbles'
p1558
g24
F0.4202
tp1559
asI127
(lp1560
(g1253
g420
F0.9812
tp1561
a(S'mimics'
p1562
g24
F0.5925
tp1563
a(S'sis'
p1564
g24
F0.9714
tp1565
asI128
(lp1566
(g8
g6
F0.9908
tp1567
a(S'know'
p1568
g11
F0.9999
tp1569
a(S'you'
p1570
g6
F0.999
tp1571
a(S'help'
p1572
g11
F0.9998
tp1573
a(S'me'
p1574
g6
F0.9986
tp1575
a(S'eat'
p1576
g11
F0.9976
tp1577
a(S'up'
p1578
g152
F0.8694
tp1579
a(S'some'
p1580
g14
F0.9938
tp1581
a(S'garlic'
p1582
g24
F0.9875
tp1583
a(S'toast'
p1584
g24
F0.9953
tp1585
a(S'huh'
p1586
g62
F0.8959
tp1587
asI129
(lp1588
(S'yeah'
p1589
g62
F0.9942
tp1590
a(S'xxx'
p1591
g11
F0.3403
tp1592
a(S'you'
p1593
g6
F0.9991
tp1594
a(S'up'
p1595
g152
F0.7522
tp1596
asI130
(lp1597
(S'yeah'
p1598
g62
F0.995
tp1599
a(S'only'
p1600
g3
F0.6238
tp1601
a(S'gonna'
p1602
g11
F0.9988
tp1603
a(S'give'
p1604
g11
F0.9999
tp1605
a(S'you'
p1606
g6
F0.9963
tp1607
a(g588
g14
F0.9962
tp1608
a(S'little'
p1609
g173
F0.9968
tp1610
a(S'bit'
p1611
g24
F0.9759
tp1612
a(S'of'
p1613
g17
F0.9972
tp1614
a(S'garlic'
p1615
g24
F0.9666
tp1616
asI131
(lp1617
(S'okay'
p1618
g62
F0.9857
tp1619
asI132
(lp1620
(S'say'
p1621
g11
F0.8511
tp1622
a(S'oo'
p1623
g62
F0.988
tp1624
a(g430
g62
F0.7623
tp1625
asI133
(lp1626
(S'you'
p1627
g6
F0.9931
tp1628
a(S'not'
p1629
g3
F0.9956
tp1630
a(S'getting'
p1631
g11
F0.9997
tp1632
a(S'no'
p1633
g14
F0.9693
tp1634
a(S'drink'
p1635
g24
F0.97
tp1636
asI134
(lp1637
(S'xxx'
p1638
g76
F0.7259
tp1639
a(S'mommy'
p1640
g24
F0.7933
tp1641
a(S'want'
p1642
g11
F0.9949
tp1643
a(S'to'
p1644
g17
F0.9824
tp1645
a(S'mommy'
p1646
g24
F0.5338
tp1647
a(S'needs'
p1648
g11
F0.9946
tp1649
a(S'something'
p1650
g24
F0.9568
tp1651
a(g588
g14
F0.991
tp1652
a(S'little'
p1653
g173
F0.9542
tp1654
a(S'big'
p1655
g173
F0.9104
tp1656
asI135
(lp1657
(S'should'
p1658
g11
F0.9691
tp1659
a(S've'
p1660
g11
F0.7994
tp1661
a(S'stopped'
p1662
g11
F0.9926
tp1663
a(S'and'
p1664
g147
F0.9968
tp1665
a(S'got'
p1666
g11
F0.9991
tp1667
a(g588
g14
F0.9976
tp1668
a(S'soda'
p1669
g24
F0.9927
tp1670
asI136
(lp1671
(S'ginger'
p1672
g316
F0.5371
tp1673
a(S'ale'
p1674
g24
F0.9078
tp1675
asI137
(lp1676
(S'yes'
p1677
g62
F0.9958
tp1678
asI138
(lp1679
(S'you'
p1680
g6
F0.9968
tp1681
a(S'would'
p1682
g11
F0.9998
tp1683
a(S'like'
p1684
g11
F0.9641
tp1685
a(S'some'
p1686
g14
F0.9616
tp1687
a(S'ginger'
p1688
g173
F0.359
tp1689
a(S'ale'
p1690
g24
F0.9957
tp1691
asI139
(lp1692
(S'yes'
p1693
g62
F0.9958
tp1694
asI140
(lp1695
(S'uhoh'
p1696
g62
F0.9931
tp1697
asI141
(lp1698
(S'vocalizes'
p1699
g24
F0.1391
tp1700
asI142
(lp1701
(S'uhoh'
p1702
g62
F0.9931
tp1703
asI143
(lp1704
(S'mhm'
p1705
g62
F0.9747
tp1706
asI144
(lp1707
(g8
g6
F0.9756
tp1708
a(S'didn'
p1709
g11
F0.9919
tp1710
a(g758
g11
F0.7336
tp1711
a(S'say'
p1712
g11
F0.9503
tp1713
a(S'mhm'
p1714
g62
F0.9427
tp1715
a(g8
g6
F0.9942
tp1716
a(S'said'
p1717
g11
F0.9976
tp1718
a(S'uhoh'
p1719
g62
F0.9926
tp1720
asI145
(lp1721
(S'uhoh'
p1722
g62
F0.9931
tp1723
asI146
(lp1724
(S'xxx'
p1725
g76
F0.8437
tp1726
asI147
(lp1727
(S'aw'
p1728
g62
F0.9886
tp1729
a(S'look'
p1730
g11
F0.9172
tp1731
a(S'at'
p1732
g17
F0.9958
tp1733
a(S'that'
p1734
g14
F0.937
tp1735
a(S'little'
p1736
g173
F0.9851
tp1737
a(S'charmer'
p1738
g24
F0.963
tp1739
asI148
(lp1740
(g1253
g420
F0.9834
tp1741
a(S'babbles'
p1742
g24
F0.8071
tp1743
a(S'softly'
p1744
g3
F0.9543
tp1745
a(S'then'
p1746
g3
F0.9853
tp1747
a(S'laughs'
p1748
g11
F0.9858
tp1749
asI149
(lp1750
(S'uhoh'
p1751
g62
F0.9931
tp1752
asI150
(lp1753
(S'dada'
p1754
g316
F0.6112
tp1755
asI151
(lp1756
(S'dada'
p1757
g316
F0.6112
tp1758
asI152
(lp1759
(S'xxx'
p1760
g76
F0.8252
tp1761
a(S'xxx'
p1762
g76
F0.9142
tp1763
a(S'this'
p1764
g6
F0.6309
tp1765
a(S'pretty'
p1766
g173
F0.7477
tp1767
a(S'smile'
p1768
g24
F0.8183
tp1769
asI153
(lp1770
(S'babbles'
p1771
g24
F0.4202
tp1772
asI154
(lp1773
(g1253
g420
F0.9877
tp1774
a(S'answers'
p1775
g24
F0.904
tp1776
a(S'sis'
p1777
g24
F0.9382
tp1778
a(g81
g88
F0.8247
tp1779
a(S'babble'
p1780
g24
F0.4893
tp1781
asI155
(lp1782
(S'babbles'
p1783
g24
F0.4202
tp1784
asI156
(lp1785
(g1253
g420
F0.9877
tp1786
a(S'answers'
p1787
g24
F0.904
tp1788
a(S'sis'
p1789
g24
F0.9382
tp1790
a(g81
g88
F0.8247
tp1791
a(S'babble'
p1792
g24
F0.4893
tp1793
asI157
(lp1794
(S'babbles'
p1795
g24
F0.4202
tp1796
asI158
(lp1797
(S'oh'
p1798
g62
F0.9987
tp1799
a(S'yeah'
p1800
g62
F0.9997
tp1801
asI159
(lp1802
(S'yeah'
p1803
g62
F0.9988
tp1804
asI160
(lp1805
(S'oh'
p1806
g62
F0.9987
tp1807
a(S'yeah'
p1808
g62
F0.9997
tp1809
asI161
(lp1810
(S'yeah'
p1811
g62
F0.9988
tp1812
asI162
(lp1813
(S'yeah'
p1814
g62
F0.9988
tp1815
asI163
(lp1816
(S'yeah'
p1817
g62
F0.9988
tp1818
asI164
(lp1819
(S'yeah'
p1820
g62
F0.9988
tp1821
asI165
(lp1822
(S'aye'
p1823
g62
F0.9883
tp1824
a(S'yeah'
p1825
g62
F0.9989
tp1826
asI166
(lp1827
(S'aye'
p1828
g62
F0.9883
tp1829
a(S'yeah'
p1830
g62
F0.9989
tp1831
asI167
(lp1832
(S'hi'
p1833
g62
F0.9926
tp1834
a(S'yeah'
p1835
g62
F0.9991
tp1836
asI168
(lp1837
(S'chi'
p1838
g62
F0.4684
tp1839
asI169
(lp1840
(S'what'
p1841
g6
F0.949
tp1842
asI170
(lp1843
(S'chi'
p1844
g62
F0.4684
tp1845
asI171
(lp1846
(S'what'
p1847
g6
F0.949
tp1848
asI172
(lp1849
(S'where'
p1850
g3
F0.9322
tp1851
a(S'what'
p1852
g6
F0.9932
tp1853
a(S'are'
p1854
g11
F0.9985
tp1855
a(S'you'
p1856
g6
F0.9993
tp1857
a(S'doing'
p1858
g11
F0.9998
tp1859
asI173
(lp1860
(S'nothing'
p1861
g24
F0.9678
tp1862
asI174
(lp1863
(S'then'
p1864
g3
F0.9654
tp1865
a(S'get'
p1866
g11
F0.9979
tp1867
a(S'in'
p1868
g17
F0.8013
tp1869
a(S'here'
p1870
g3
F0.9638
tp1871
a(S'and'
p1872
g147
F0.9964
tp1873
a(S'eat'
p1874
g11
F0.9728
tp1875
asI175
(lp1876
(S'uh'
p1877
g62
F0.9927
tp1878
asI176
(lp1879
(S'sighs'
p1880
g11
F0.7567
tp1881
asI177
(lp1882
(S'what'
p1883
g6
F0.9674
tp1884
a(S'xxx'
p1885
g76
F0.6988
tp1886
asI178
(lp1887
(S'you'
p1888
g6
F0.9945
tp1889
a(S'were'
p1890
g11
F0.9984
tp1891
a(S'supposed'
p1892
g173
F0.9537
tp1893
a(S'to'
p1894
g17
F0.9979
tp1895
a(S'be'
p1896
g11
F0.9995
tp1897
a(S'cleaning'
p1898
g11
F0.9859
tp1899
a(S'up'
p1900
g152
F0.9224
tp1901
a(S'your'
p1902
g14
F0.9905
tp1903
a(S'room'
p1904
g24
F0.9987
tp1905
a(S'not'
p1906
g3
F0.9932
tp1907
a(S'nothing'
p1908
g24
F0.9892
tp1909
asI179
(lp1910
(S'humming'
p1911
g11
F0.9303
tp1912
asI180
(lp1913
(S'laughing'
p1914
g11
F0.9384
tp1915
asI181
(lp1916
(g8
g6
F0.9855
tp1917
a(S'see'
p1918
g11
F0.9998
tp1919
a(S'you'
p1920
g6
F0.8034
tp1921
a(S'gal'
p1922
g24
F0.9141
tp1923
asI182
(lp1924
(S'babbling'
p1925
g11
F0.9317
tp1926
asI183
(lp1927
(S'what'
p1928
g6
F0.9835
tp1929
a(S'are'
p1930
g11
F0.9976
tp1931
a(S'you'
p1932
g6
F0.9994
tp1933
a(S'getting'
p1934
g11
F0.9994
tp1935
asI184
(lp1936
(S'xxx'
p1937
g76
F0.8437
tp1938
asI185
(lp1939
(S'can'
p1940
g11
F0.9755
tp1941
a(g8
g6
F0.9789
tp1942
a(S'leave'
p1943
g11
F0.9999
tp1944
a(S'the'
p1945
g14
F0.9995
tp1946
a(S'table'
p1947
g24
F0.989
tp1948
a(S'and'
p1949
g147
F0.9962
tp1950
a(S'watch'
p1951
g11
F0.9624
tp1952
a(S'tv'
p1953
g24
F0.9685
tp1954
a(S'huh'
p1955
g62
F0.9156
tp1956
asI186
(lp1957
(S'you'
p1958
g6
F0.9926
tp1959
a(S'don'
p1960
g11
F0.8675
tp1961
a(g758
g11
F0.3329
tp1962
a(S'seem'
p1963
g11
F0.9494
tp1964
a(S'to'
p1965
g17
F0.9952
tp1966
a(S'eat'
p1967
g11
F0.9993
tp1968
a(S'all'
p1969
g14
F0.8549
tp1970
a(S'your'
p1971
g14
F0.9875
tp1972
a(S'food'
p1973
g24
F0.9977
tp1974
a(S'when'
p1975
g3
F0.9682
tp1976
a(S'you'
p1977
g6
F0.9987
tp1978
a(S'watch'
p1979
g11
F0.9936
tp1980
a(S'tv'
p1981
g24
F0.9626
tp1982
a(S'how'
p1983
g3
F0.9757
tp1984
a(g588
g14
F0.9731
tp1985
a(S'bout'
p1986
g24
F0.4036
tp1987
a(S'if'
p1988
g17
F0.9995
tp1989
a(S'you'
p1990
g6
F0.9997
tp1991
a(S'eat'
p1992
g11
F0.9981
tp1993
a(S'before'
p1994
g17
F0.8253
tp1995
a(S'xxx'
p1996
g24
F0.3857
tp1997
a(S'then'
p1998
g3
F0.8982
tp1999
a(S'we'
p2000
g6
F0.9972
tp2001
a(S'turn'
p2002
g11
F0.9998
tp2003
a(S'it'
p2004
g6
F0.9478
tp2005
a(S'on'
p2006
g17
F0.5817
tp2007
asI187
(lp2008
(g8
g6
F0.9835
tp2009
a(S'always'
p2010
g3
F0.9879
tp2011
a(S'eat'
p2012
g11
F0.9985
tp2013
a(S'my'
p2014
g14
F0.9979
tp2015
a(S'food'
p2016
g24
F0.9974
tp2017
asI188
(lp2018
(S'yeah'
p2019
g62
F0.9962
tp2020
a(S'but'
p2021
g147
F0.9927
tp2022
a(S'you'
p2023
g6
F0.9991
tp2024
a(S'don'
p2025
g11
F0.8611
tp2026
a(g758
g11
F0.3199
tp2027
a(S'seem'
p2028
g11
F0.9505
tp2029
a(S'to'
p2030
g17
F0.9746
tp2031
a(S'never'
p2032
g3
F0.9445
tp2033
a(S'want'
p2034
g11
F0.9994
tp2035
a(S'to'
p2036
g17
F0.9847
tp2037
a(S'when'
p2038
g3
F0.821
tp2039
a(S'the'
p2040
g14
F0.9992
tp2041
a(S'tv'
p2042
g24
F0.96
tp2043
a(g81
g88
F0.7133
tp2044
a(S'on'
p2045
g17
F0.9021
tp2046
asI189
(lp2047
(S'you'
p2048
g6
F0.9754
tp2049
a(S're'
p2050
g11
F0.6442
tp2051
a(S'so'
p2052
g3
F0.9769
tp2053
a(S'busy'
p2054
g173
F0.9763
tp2055
a(S'watching'
p2056
g11
F0.9118
tp2057
a(S'tv'
p2058
g24
F0.9796
tp2059
asI190
(lp2060
(S'don'
p2061
g316
F0.5427
tp2062
a(g758
g316
F0.4597
tp2063
a(S'don'
p2064
g316
F0.8741
tp2065
a(g758
g88
F0.4524
tp2066
asI191
(lp2067
(S'show'
p2068
g11
F0.869
tp2069
a(S'me'
p2070
g6
F0.9956
tp2071
a(S'where'
p2072
g3
F0.9873
tp2073
a(S'the'
p2074
g14
F0.9989
tp2075
a(S'holes'
p2076
g24
F0.9935
tp2077
a(S'are'
p2078
g11
F0.9907
tp2079
asI192
(lp2080
(S'huh'
p2081
g62
F0.993
tp2082
asI193
(lp2083
(S'that'
p2084
g6
F0.473
tp2085
a(g81
g88
F0.472
tp2086
a(S'why'
p2087
g3
F0.9575
tp2088
a(S'you'
p2089
g6
F0.9996
tp2090
a(S'have'
p2091
g11
F0.9969
tp2092
a(S'holes'
p2093
g24
F0.9954
tp2094
a(S'in'
p2095
g17
F0.9991
tp2096
a(S'the'
p2097
g14
F0.9993
tp2098
a(S'side'
p2099
g24
F0.9953
tp2100
a(S'so'
p2101
g17
F0.9524
tp2102
a(S'you'
p2103
g6
F0.9989
tp2104
a(S'don'
p2105
g11
F0.8626
tp2106
a(g758
g24
F0.2856
tp2107
a(S'dump'
p2108
g11
F0.6993
tp2109
a(S'so'
p2110
g3
F0.9797
tp2111
a(S'much'
p2112
g3
F0.5492
tp2113
asI194
(lp2114
(S'gotta'
p2115
g11
F0.9909
tp2116
a(S'shake'
p2117
g11
F0.9862
tp2118
a(S'shake'
p2119
g11
F0.8893
tp2120
a(S'shake'
p2121
g11
F0.7175
tp2122
asI195
(lp2123
(S'you'
p2124
g6
F0.9979
tp2125
a(S'going'
p2126
g11
F0.9995
tp2127
a(S'to'
p2128
g17
F0.9502
tp2129
a(S'say'
p2130
g11
F0.9915
tp2131
a(S'grace'
p2132
g316
F0.9372
tp2133
asI196
(lp2134
(S'thank'
p2135
g11
F0.9661
tp2136
a(S'you'
p2137
g6
F0.9993
tp2138
a(S'for'
p2139
g17
F0.9993
tp2140
a(S'the'
p2141
g14
F0.9992
tp2142
a(S'food'
p2143
g24
F0.9914
tp2144
a(S'we'
p2145
g6
F0.9825
tp2146
a(S'eat'
p2147
g11
F0.9957
tp2148
asI197
(lp2149
(S'thank'
p2150
g11
F0.9661
tp2151
a(S'you'
p2152
g6
F0.9965
tp2153
a(S'god'
p2154
g11
F0.5798
tp2155
a(S'for'
p2156
g17
F0.9983
tp2157
a(S'being'
p2158
g11
F0.996
tp2159
a(S'great'
p2160
g173
F0.9951
tp2161
a(S'amen'
p2162
g62
F0.7797
tp2163
asI198
(lp2164
(S'amen'
p2165
g62
F0.9835
tp2166
asI199
(lp2167
(S'amen'
p2168
g62
F0.9835
tp2169
asI200
(lp2170
(S'well'
p2171
g62
F0.8271
tp2172
a(S'when'
p2173
g3
F0.8857
tp2174
a(S'are'
p2175
g11
F0.9959
tp2176
a(S'you'
p2177
g6
F0.9995
tp2178
a(S'going'
p2179
g11
F0.9998
tp2180
a(S'to'
p2181
g17
F0.9822
tp2182
a(S'finish'
p2183
g11
F0.9925
tp2184
asI201
(lp2185
(S'grunts'
p2186
g11
F0.6753
tp2187
asI202
(lp2188
(S'what'
p2189
g6
F0.9784
tp2190
a(g81
g88
F0.5951
tp2191
a(S'the'
p2192
g14
F0.9988
tp2193
a(S'matter'
p2194
g24
F0.9914
tp2195
a(S'with'
p2196
g17
F0.9998
tp2197
a(S'you'
p2198
g6
F0.9988
tp2199
asI203
(lp2200
(S'nothing'
p2201
g24
F0.9843
tp2202
a(S'xxx'
p2203
g76
F0.7755
tp2204
asI204
(lp2205
(S'you'
p2206
g6
F0.998
tp2207
a(S'want'
p2208
g11
F0.9996
tp2209
a(S'to'
p2210
g17
F0.9699
tp2211
a(S'xxx'
p2212
g76
F0.5952
tp2213
asI205
(lp2214
(S'thank'
p2215
g11
F0.9661
tp2216
a(S'you'
p2217
g6
F0.9882
tp2218
a(S'lord'
p2219
g11
F0.4609
tp2220
a(S'for'
p2221
g17
F0.9997
tp2222
a(S'the'
p2223
g14
F0.9993
tp2224
a(S'food'
p2225
g24
F0.9933
tp2226
a(S'we'
p2227
g6
F0.9824
tp2228
a(S'eat'
p2229
g11
F0.9955
tp2230
a(S'amen'
p2231
g62
F0.5448
tp2232
a(S'xxx'
p2233
g76
F0.7649
tp2234
a(S'how'
p2235
g3
F0.9972
tp2236
a(S'about'
p2237
g17
F0.9831
tp2238
a(S'that'
p2239
g6
F0.9072
tp2240
asI206
(lp2241
(S'coughs'
p2242
g24
F0.5349
tp2243
asI207
(lp2244
(S'oh'
p2245
g62
F0.9884
tp2246
a(S'get'
p2247
g11
F0.9975
tp2248
a(S'over'
p2249
g17
F0.4426
tp2250
a(S'here'
p2251
g3
F0.8919
tp2252
a(S'gal'
p2253
g24
F0.7756
tp2254
asI208
(lp2255
(S'being'
p2256
g11
F0.9862
tp2257
a(S'piggie'
p2258
g24
F0.6061
tp2259
asI209
(lp2260
(S'what'
p2261
g6
F0.949
tp2262
asI210
(lp2263
(S'what'
p2264
g6
F0.9965
tp2265
a(S'did'
p2266
g11
F0.9994
tp2267
a(S'you'
p2268
g6
F0.9994
tp2269
a(S'do'
p2270
g11
F0.9999
tp2271
a(S'all'
p2272
g14
F0.9945
tp2273
a(S'day'
p2274
g24
F0.9983
tp2275
a(S'at'
p2276
g17
F0.9997
tp2277
a(S'school'
p2278
g24
F0.988
tp2279
asI211
(lp2280
(S'what'
p2281
g6
F0.9965
tp2282
a(S'did'
p2283
g11
F0.9994
tp2284
a(S'you'
p2285
g6
F0.9995
tp2286
a(S'do'
p2287
g11
F0.9991
tp2288
a(S'today'
p2289
g24
F0.9689
tp2290
asI212
(lp2291
(g8
g6
F0.9891
tp2292
a(S'ate'
p2293
g11
F0.9996
tp2294
a(S'some'
p2295
g14
F0.8277
tp2296
a(S'xxx'
p2297
g76
F0.6335
tp2298
asI213
(lp2299
(S'okay'
p2300
g62
F0.9454
tp2301
a(S'just'
p2302
g3
F0.9973
tp2303
a(S'the'
p2304
g14
F0.9985
tp2305
a(S'plastic'
p2306
g24
F0.8647
tp2307
asI214
(lp2308
(S'xxx'
p2309
g76
F0.742
tp2310
a(S'um'
p2311
g62
F0.8456
tp2312
a(S'xxx'
p2313
g76
F0.7263
tp2314
asI215
(lp2315
(S'you'
p2316
g6
F0.9911
tp2317
a(S'didn'
p2318
g11
F0.9886
tp2319
a(g758
g11
F0.8348
tp2320
a(S'do'
p2321
g11
F0.9972
tp2322
a(S'no'
p2323
g14
F0.9182
tp2324
a(S'work'
p2325
g24
F0.9994
tp2326
a(S'today'
p2327
g24
F0.9981
tp2328
asI216
(lp2329
(S'no'
p2330
g62
F0.9253
tp2331
asI217
(lp2332
(S'oh'
p2333
g62
F0.9878
tp2334
a(S'you'
p2335
g6
F0.9797
tp2336
a(S'didn'
p2337
g11
F0.9885
tp2338
a(g758
g11
F0.7529
tp2339
a(S'have'
p2340
g11
F0.9762
tp2341
a(S'pen'
p2342
g24
F0.9206
tp2343
a(S'time'
p2344
g24
F0.9928
tp2345
a(S'today'
p2346
g24
F0.9841
tp2347
asI218
(lp2348
(S'no'
p2349
g62
F0.8455
tp2350
a(S'the'
p2351
g14
F0.9982
tp2352
a(S'teacher'
p2353
g24
F0.9744
tp2354
a(S'had'
p2355
g11
F0.9849
tp2356
a(S'xxx'
p2357
g76
F0.5122
tp2358
a(S'lay'
p2359
g11
F0.9507
tp2360
a(S'down'
p2361
g152
F0.7071
tp2362
asI219
(lp2363
(S'we'
p2364
g6
F0.9954
tp2365
a(S'laid'
p2366
g11
F0.9996
tp2367
a(S'down'
p2368
g152
F0.818
tp2369
a(S'our'
p2370
g14
F0.9394
tp2371
a(S'xxx'
p2372
g24
F0.4289
tp2373
a(S'shared'
p2374
g11
F0.8728
tp2375
asI220
(lp2376
(S'did'
p2377
g11
F0.9986
tp2378
a(S'you'
p2379
g6
F0.9985
tp2380
a(S'read'
p2381
g11
F0.9955
tp2382
a(S'story'
p2383
g24
F0.9938
tp2384
asI221
(lp2385
(S'yes'
p2386
g62
F0.9762
tp2387
a(S'and'
p2388
g147
F0.9989
tp2389
a(g8
g6
F0.9933
tp2390
a(S'helped'
p2391
g11
F1.0
tp2392
a(S'the'
p2393
g14
F0.9896
tp2394
a(S'xxx'
p2395
g24
F0.73
tp2396
a(S'in'
p2397
g17
F0.998
tp2398
a(S'the'
p2399
g14
F0.999
tp2400
a(S'bowl'
p2401
g24
F0.9988
tp2402
a(S'in'
p2403
g17
F0.999
tp2404
a(S'the'
p2405
g14
F0.9993
tp2406
a(S'room'
p2407
g24
F0.9907
tp2408
a(S'and'
p2409
g147
F0.9985
tp2410
a(S'um'
p2411
g62
F0.5239
tp2412
a(S'my'
p2413
g14
F0.8305
tp2414
a(S'xxx'
p2415
g88
F0.3922
tp2416
a(S'my'
p2417
g14
F0.8643
tp2418
a(S'xxx'
p2419
g24
F0.4911
tp2420
asI222
(lp2421
(S'all'
p2422
g1179
F0.437
tp2423
a(S'you'
p2424
g6
F0.999
tp2425
a(S'did'
p2426
g11
F0.9987
tp2427
a(S'today'
p2428
g24
F0.9463
tp2429
a(S'was'
p2430
g11
F0.9947
tp2431
a(S'just'
p2432
g3
F0.9997
tp2433
a(S'have'
p2434
g11
F0.9855
tp2435
a(S'stories'
p2436
g24
F0.9954
tp2437
a(S'read'
p2438
g11
F0.9578
tp2439
a(S'to'
p2440
g17
F0.995
tp2441
a(S'you'
p2442
g6
F0.9984
tp2443
asI223
(lp2444
(S'they'
p2445
g6
F0.9962
tp2446
a(S'did'
p2447
g11
F0.9999
tp2448
a(S'the'
p2449
g14
F0.9823
tp2450
a(S'helping'
p2451
g24
F0.557
tp2452
a(S'too'
p2453
g3
F0.9607
tp2454
asI224
(lp2455
(S'and'
p2456
g147
F0.9985
tp2457
a(S'help'
p2458
g11
F0.9961
tp2459
a(S'them'
p2460
g6
F0.9495
tp2461
asI225
(lp2462
(S'the'
p2463
g14
F0.9812
tp2464
a(S'xxx'
p2465
g24
F0.4638
tp2466
asI226
(lp2467
(S'you'
p2468
g6
F0.9911
tp2469
a(S'didn'
p2470
g11
F0.9886
tp2471
a(g758
g11
F0.8348
tp2472
a(S'do'
p2473
g11
F0.9955
tp2474
a(S'no'
p2475
g14
F0.8785
tp2476
a(S'coloring'
p2477
g24
F0.9734
tp2478
asI227
(lp2479
(S'nuhhuh'
p2480
g62
F0.533
tp2481
asI228
(lp2482
(S'you'
p2483
g6
F0.9911
tp2484
a(S'didn'
p2485
g11
F0.9886
tp2486
a(g758
g11
F0.8348
tp2487
a(S'do'
p2488
g11
F0.9955
tp2489
a(S'no'
p2490
g14
F0.9781
tp2491
a(S'numbers'
p2492
g24
F0.9996
tp2493
asI229
(lp2494
(S'no'
p2495
g62
F0.8444
tp2496
a(g588
g14
F0.884
tp2497
a(g432
g24
F0.8065
tp2498
a(S'b'
p2499
g11
F0.5084
tp2500
a(g432
g88
F0.587
tp2501
a(S'c'
p2502
g88
F0.8576
tp2503
a(g432
g88
F0.8412
tp2504
asI230
(lp2505
(S'just'
p2506
g3
F0.9994
tp2507
a(S'read'
p2508
g11
F0.9887
tp2509
a(S'and'
p2510
g147
F0.9954
tp2511
a(S'play'
p2512
g11
F0.9478
tp2513
a(S'games'
p2514
g24
F0.9871
tp2515
asI231
(lp2516
(S'yeah'
p2517
g62
F0.9963
tp2518
a(S'we'
p2519
g6
F0.9984
tp2520
a(S'played'
p2521
g11
F0.9968
tp2522
a(S'puzzles'
p2523
g24
F0.9884
tp2524
asI232
(lp2525
(S'xxx'
p2526
g76
F0.6311
tp2527
a(S'puzzles'
p2528
g24
F0.977
tp2529
asI233
(lp2530
(S'and'
p2531
g147
F0.9988
tp2532
a(S'what'
p2533
g6
F0.9926
tp2534
a(S'else'
p2535
g3
F0.779
tp2536
a(S'that'
p2537
g6
F0.7691
tp2538
a(S'was'
p2539
g11
F0.9999
tp2540
a(S'it'
p2541
g6
F0.9952
tp2542
asI234
(lp2543
(S'yeah'
p2544
g62
F0.9988
tp2545
asI235
(lp2546
(S'didn'
p2547
g11
F0.598
tp2548
a(g758
g11
F0.755
tp2549
a(S'have'
p2550
g11
F0.9989
tp2551
a(g588
g14
F0.998
tp2552
a(S'puppet'
p2553
g24
F0.9938
tp2554
a(S'show'
p2555
g24
F0.8959
tp2556
asI236
(lp2557
(S'what'
p2558
g6
F0.7839
tp2559
a(S'puppet'
p2560
g24
F0.9903
tp2561
a(S'show'
p2562
g24
F0.9244
tp2563
asI237
(lp2564
(S'did'
p2565
g11
F0.9986
tp2566
a(S'you'
p2567
g6
F0.9984
tp2568
a(S'go'
p2569
g11
F0.9994
tp2570
a(S'outside'
p2571
g3
F0.9023
tp2572
a(S'and'
p2573
g147
F0.9962
tp2574
a(S'play'
p2575
g11
F0.9697
tp2576
asI238
(lp2577
(S'mommy'
p2578
g62
F0.3225
tp2579
a(S'what'
p2580
g6
F0.7818
tp2581
a(S'puppet'
p2582
g24
F0.9906
tp2583
a(S'show'
p2584
g24
F0.9364
tp2585
a(g81
g88
F0.4718
tp2586
a(S'that'
p2587
g6
F0.6614
tp2588
asI239
(lp2589
(g8
g6
F0.9811
tp2590
a(S'just'
p2591
g3
F0.999
tp2592
a(S'threw'
p2593
g11
F0.9984
tp2594
a(S'that'
p2595
g6
F0.6456
tp2596
a(S'in'
p2597
g17
F0.9697
tp2598
a(S'there'
p2599
g3
F0.6989
tp2600
a(g8
g6
F0.9918
tp2601
a(S'figured'
p2602
g11
F1.0
tp2603
a(S'you'
p2604
g6
F0.9996
tp2605
a(S'had'
p2606
g11
F0.9997
tp2607
a(S'to'
p2608
g17
F0.9635
tp2609
a(S'do'
p2610
g11
F0.9998
tp2611
a(S'something'
p2612
g24
F0.9246
tp2613
a(S'all'
p2614
g14
F0.9871
tp2615
a(S'day'
p2616
g24
F0.9954
tp2617
a(S'besides'
p2618
g17
F0.8065
tp2619
a(S'just'
p2620
g3
F0.9994
tp2621
a(S'read'
p2622
g11
F0.9939
tp2623
asI240
(lp2624
(S'you'
p2625
g6
F0.9963
tp2626
a(S'listen'
p2627
g11
F0.9998
tp2628
a(S'to'
p2629
g17
F0.9754
tp2630
a(S'story'
p2631
g24
F0.9568
tp2632
a(S'and'
p2633
g147
F0.997
tp2634
a(S'play'
p2635
g11
F0.9697
tp2636
a(S'puzzles'
p2637
g24
F0.9932
tp2638
asI241
(lp2639
(S'don'
p2640
g316
F0.5427
tp2641
a(g758
g316
F0.544
tp2642
a(S'want'
p2643
g11
F0.9994
tp2644
a(S'it'
p2645
g6
F0.9896
tp2646
asI242
(lp2647
(S'oh'
p2648
g62
F0.9978
tp2649
a(S'that'
p2650
g6
F0.571
tp2651
a(g81
g11
F0.706
tp2652
a(S'that'
p2653
g6
F0.7296
tp2654
a(S'for'
p2655
g17
F0.997
tp2656
a(S'that'
p2657
g14
F0.8902
tp2658
a(S'bone'
p2659
g24
F0.9945
tp2660
asI243
(lp2661
(S'yeah'
p2662
g62
F0.9922
tp2663
a(S'you'
p2664
g6
F0.9989
tp2665
a(S'got'
p2666
g11
F0.9982
tp2667
a(S'half'
p2668
g24
F0.1805
tp2669
a(S'the'
p2670
g14
F0.9971
tp2671
a(S'chicken'
p2672
g24
F0.9629
tp2673
a(S'off'
p2674
g17
F0.8767
tp2675
a(S'of'
p2676
g17
F0.9939
tp2677
a(S'it'
p2678
g6
F0.9971
tp2679
asI244
(lp2680
(S'babbles'
p2681
g24
F0.4202
tp2682
asI245
(lp2683
(S'yeah'
p2684
g62
F0.9988
tp2685
asI246
(lp2686
(S'babbles'
p2687
g24
F0.4202
tp2688
asI247
(lp2689
(g8
g6
F0.9892
tp2690
a(S'got'
p2691
g11
F0.9998
tp2692
a(S'something'
p2693
g24
F0.9905
tp2694
a(S'for'
p2695
g17
F0.9998
tp2696
a(S'you'
p2697
g6
F0.999
tp2698
asI248
(lp2699
(S'mm'
p2700
g62
F0.627
tp2701
asI249
(lp2702
(g8
g6
F0.989
tp2703
a(S'think'
p2704
g11
F1.0
tp2705
a(S'you'
p2706
g6
F0.9966
tp2707
a(S're'
p2708
g11
F0.7576
tp2709
a(S'going'
p2710
g11
F0.9976
tp2711
a(S'to'
p2712
g17
F0.941
tp2713
a(S'like'
p2714
g11
F0.9033
tp2715
a(S'this'
p2716
g14
F0.737
tp2717
a(S'sis'
p2718
g24
F0.9847
tp2719
asI250
(lp2720
(S'it'
p2721
g6
F0.9888
tp2722
a(g81
g11
F0.6536
tp2723
a(S'good'
p2724
g173
F0.9825
tp2725
a(S'for'
p2726
g17
F0.9997
tp2727
a(S'you'
p2728
g6
F0.999
tp2729
asI251
(lp2730
(S'huh'
p2731
g62
F0.993
tp2732
asI252
(lp2733
(S'xxx'
p2734
g76
F0.8437
tp2735
asI253
(lp2736
(S'doesn'
p2737
g11
F0.8416
tp2738
a(g758
g11
F0.3188
tp2739
a(S'like'
p2740
g17
F0.7772
tp2741
a(S'spaghetti'
p2742
g24
F0.9964
tp2743
asI254
(lp2744
(S'no'
p2745
g62
F0.8691
tp2746
a(S'not'
p2747
g3
F0.9722
tp2748
a(S'no'
p2749
g62
F0.4781
tp2750
asI255
(lp2751
(S'she'
p2752
g6
F0.9939
tp2753
a(S'go'
p2754
g11
F0.9981
tp2755
a(S'like'
p2756
g17
F0.8487
tp2757
a(S'that'
p2758
g6
F0.8781
tp2759
a(S'spitting'
p2760
g11
F0.9999
tp2761
a(S'her'
p2762
g14
F0.9587
tp2763
a(S'spaghetti'
p2764
g24
F0.9993
tp2765
asI256
(lp2766
(S'that'
p2767
g6
F0.473
tp2768
a(g81
g88
F0.4404
tp2769
a(S'what'
p2770
g6
F0.95
tp2771
a(S'she'
p2772
g6
F0.9968
tp2773
a(g81
g11
F0.6652
tp2774
a(S'eating'
p2775
g11
F0.9954
tp2776
a(S'now'
p2777
g3
F0.9913
tp2778
asI257
(lp2779
(S'oh'
p2780
g62
F0.9988
tp2781
asI258
(lp2782
(S'and'
p2783
g147
F0.9988
tp2784
a(S'garlic'
p2785
g24
F0.9756
tp2786
a(S'toast'
p2787
g24
F0.9983
tp2788
asI259
(lp2789
(S'why'
p2790
g3
F0.9573
tp2791
a(S'you'
p2792
g6
F0.9996
tp2793
a(S'think'
p2794
g11
F0.9998
tp2795
a(S'that'
p2796
g6
F0.6961
tp2797
a(S'xxx'
p2798
g11
F0.3434
tp2799
a(S'chicken'
p2800
g24
F0.7859
tp2801
a(S'fell'
p2802
g11
F0.8956
tp2803
a(S'to'
p2804
g17
F0.9973
tp2805
a(S'the'
p2806
g14
F0.999
tp2807
a(S'floor'
p2808
g24
F0.9917
tp2809
asI260
(lp2810
(S'she'
p2811
g6
F0.9969
tp2812
a(S'found'
p2813
g11
F0.9995
tp2814
a(S'something'
p2815
g24
F0.9647
tp2816
a(S'new'
p2817
g173
F0.9345
tp2818
a(S'to'
p2819
g17
F0.9966
tp2820
a(S'chew'
p2821
g11
F0.9983
tp2822
a(S'on'
p2823
g17
F0.7267
tp2824
asI261
(lp2825
(S'laughs'
p2826
g11
F0.9102
tp2827
asI262
(lp2828
(S'how'
p2829
g3
F0.9957
tp2830
a(S'about'
p2831
g17
F0.9894
tp2832
a(g588
g14
F0.9985
tp2833
a(S'little'
p2834
g173
F0.9973
tp2835
a(S'bit'
p2836
g24
F0.9784
tp2837
a(S'of'
p2838
g17
F0.9976
tp2839
a(S'spaghetti'
p2840
g24
F0.9835
tp2841
asI263
(lp2842
(S'mm'
p2843
g62
F0.2621
tp2844
a(S'tasty'
p2845
g173
F0.9932
tp2846
a(S'huh'
p2847
g62
F0.9156
tp2848
asI264
(lp2849
(S'yeah'
p2850
g62
F0.9988
tp2851
asI265
(lp2852
(S'oh'
p2853
g62
F0.9848
tp2854
a(S'say'
p2855
g11
F0.8076
tp2856
a(S'mm'
p2857
g62
F0.2443
tp2858
a(S'mm'
p2859
g62
F0.4061
tp2860
a(S'mm'
p2861
g62
F0.6957
tp2862
asI266
(lp2863
(S'say'
p2864
g11
F0.8263
tp2865
a(S'mm'
p2866
g62
F0.365
tp2867
a(S'mm'
p2868
g62
F0.472
tp2869
a(S'mm'
p2870
g62
F0.5656
tp2871
asI267
(lp2872
(S'yeah'
p2873
g62
F0.9988
tp2874
asI268
(lp2875
(S'you'
p2876
g6
F0.9454
tp2877
a(S'little'
p2878
g173
F0.9932
tp2879
a(S'charmer'
p2880
g24
F0.9786
tp2881
asI269
(lp2882
(S'you'
p2883
g6
F0.998
tp2884
a(S'got'
p2885
g11
F0.9999
tp2886
a(S'your'
p2887
g14
F0.8602
tp2888
a(S'pretty'
p2889
g3
F0.8938
tp2890
a(S'little'
p2891
g173
F0.984
tp2892
a(S'smiles'
p2893
g24
F0.7123
tp2894
asI270
(lp2895
(S'there'
p2896
g3
F0.5362
tp2897
a(S'you'
p2898
g6
F0.998
tp2899
a(S'go'
p2900
g11
F0.9908
tp2901
a(S'boop'
p2902
g62
F0.5099
tp2903
a(S'f'
p2904
g62
F0.3156
tp2905
asI271
(lp2906
(S'xxx'
p2907
g76
F0.6759
tp2908
a(S'give'
p2909
g11
F0.995
tp2910
a(S'that'
p2911
g6
F0.8767
tp2912
a(S'to'
p2913
g17
F0.9903
tp2914
a(S'me'
p2915
g6
F0.9982
tp2916
asI272
(lp2917
(S'oh'
p2918
g62
F0.9951
tp2919
a(S'nice'
p2920
g173
F0.9733
tp2921
asI273
(lp2922
(S'oh'
p2923
g62
F0.9975
tp2924
a(S'yeah'
p2925
g62
F0.997
tp2926
a(S'one'
p2927
g420
F0.9728
tp2928
a(S'of'
p2929
g17
F0.9991
tp2930
a(S'those'
p2931
g14
F0.978
tp2932
a(S'little'
p2933
g173
F0.9969
tp2934
a(S'ebony'
p2935
g24
F0.7196
tp2936
a(S'xxx'
p2937
g76
F0.7479
tp2938
asI274
(lp2939
(g8
g6
F0.9748
tp2940
a(S'maybe'
p2941
g3
F0.9891
tp2942
a(g8
g6
F0.9898
tp2943
a(S'll'
p2944
g11
F0.7201
tp2945
a(S'eat'
p2946
g11
F0.9981
tp2947
a(S'all'
p2948
g14
F0.8177
tp2949
a(S'this'
p2950
g14
F0.989
tp2951
a(S'real'
p2952
g173
F0.8282
tp2953
a(S'fast'
p2954
g173
F0.9496
tp2955
asI275
(lp2956
(S'why'
p2957
g3
F0.9609
tp2958
a(S'so'
p2959
g17
F0.9091
tp2960
a(S'you'
p2961
g6
F0.9996
tp2962
a(S'can'
p2963
g11
F0.9993
tp2964
a(S'rush'
p2965
g11
F0.9175
tp2966
a(S'in'
p2967
g17
F0.9506
tp2968
a(S'there'
p2969
g3
F0.8695
tp2970
a(S'and'
p2971
g147
F0.9967
tp2972
a(S'clean'
p2973
g11
F0.8547
tp2974
a(S'up'
p2975
g152
F0.8048
tp2976
a(S'your'
p2977
g14
F0.9909
tp2978
a(S'room'
p2979
g24
F0.9984
tp2980
asI276
(lp2981
(S'uhhuh'
p2982
g62
F0.9892
tp2983
asI277
(lp2984
(S'alright'
p2985
g62
F0.9864
tp2986
asI278
(lp2987
(S'then'
p2988
g3
F0.9855
tp2989
a(S'when'
p2990
g3
F0.9863
tp2991
a(S'you'
p2992
g6
F0.9985
tp2993
a(S'go'
p2994
g11
F0.9985
tp2995
a(S'in'
p2996
g17
F0.9454
tp2997
a(S'there'
p2998
g3
F0.8695
tp2999
a(S'and'
p3000
g147
F0.9967
tp3001
a(S'clean'
p3002
g11
F0.8547
tp3003
a(S'up'
p3004
g152
F0.8484
tp3005
a(S'your'
p3006
g14
F0.9905
tp3007
a(S'room'
p3008
g24
F0.996
tp3009
a(S'what'
p3010
g6
F0.7708
tp3011
a(S'you'
p3012
g6
F0.9995
tp3013
a(S'could'
p3014
g11
F0.9998
tp3015
a(S'do'
p3016
g11
F0.9934
tp3017
a(S'is'
p3018
g11
F0.9911
tp3019
a(S'come'
p3020
g11
F0.9947
tp3021
a(S'out'
p3022
g152
F0.7845
tp3023
a(S'and'
p3024
g147
F0.9955
tp3025
a(S'see'
p3026
g11
F0.9961
tp3027
a(S'some'
p3028
g14
F0.996
tp3029
a(S'tv'
p3030
g24
F0.989
tp3031
asI279
(lp3032
(S'xxx'
p3033
g76
F0.8437
tp3034
asI280
(lp3035
(S'yeah'
p3036
g62
F0.9962
tp3037
a(S'but'
p3038
g147
F0.9927
tp3039
a(S'you'
p3040
g6
F0.9997
tp3041
a(S'got'
p3042
g11
F0.9996
tp3043
a(S'to'
p3044
g17
F0.8905
tp3045
a(S'clean'
p3046
g11
F0.982
tp3047
a(S'it'
p3048
g6
F0.9881
tp3049
a(S'up'
p3050
g152
F0.8824
tp3051
a(S'first'
p3052
g3
F0.5278
tp3053
asI281
(lp3054
(S'so'
p3055
g17
F0.7374
tp3056
a(S'eat'
p3057
g11
F0.9817
tp3058
a(S'all'
p3059
g14
F0.9049
tp3060
a(S'of'
p3061
g17
F0.9959
tp3062
a(S'your'
p3063
g14
F0.9937
tp3064
a(S'dinner'
p3065
g24
F0.9888
tp3066
a(S'first'
p3067
g173
F0.7077
tp3068
asI282
(lp3069
(S'don'
p3070
g316
F0.5427
tp3071
a(g758
g316
F0.3809
tp3072
a(S'push'
p3073
g11
F0.9728
tp3074
a(S'it'
p3075
g6
F0.9829
tp3076
asI283
(lp3077
(S'while'
p3078
g17
F0.922
tp3079
a(S'you'
p3080
g6
F0.9995
tp3081
a(S'after'
p3082
g17
F0.9322
tp3083
a(S'you'
p3084
g6
F0.9998
tp3085
a(S'clean'
p3086
g11
F0.9298
tp3087
a(S'up'
p3088
g152
F0.8484
tp3089
a(S'your'
p3090
g14
F0.9905
tp3091
a(S'room'
p3092
g24
F0.9974
tp3093
a(S'and'
p3094
g147
F0.9982
tp3095
a(S'it'
p3096
g6
F0.9972
tp3097
a(S'looks'
p3098
g11
F0.9991
tp3099
a(S'like'
p3100
g17
F0.9651
tp3101
a(S'you'
p3102
g6
F0.9982
tp3103
a(S're'
p3104
g11
F0.9095
tp3105
a(S'about'
p3106
g17
F0.7646
tp3107
a(S'ready'
p3108
g173
F0.9696
tp3109
a(S'to'
p3110
g17
F0.9993
tp3111
a(S'make'
p3112
g11
F0.9973
tp3113
a(S'to'
p3114
g17
F0.9866
tp3115
a(S'watch'
p3116
g11
F0.9942
tp3117
a(S'movies'
p3118
g24
F0.9858
tp3119
a(S'then'
p3120
g3
F0.9882
tp3121
a(g8
g6
F0.9889
tp3122
a(S'll'
p3123
g11
F0.7524
tp3124
a(S'make'
p3125
g11
F0.997
tp3126
a(S'some'
p3127
g14
F0.9884
tp3128
a(S'popcorn'
p3129
g24
F0.8821
tp3130
asI284
(lp3131
(S'okay'
p3132
g62
F0.9857
tp3133
asI285
(lp3134
(S'mommy'
p3135
g24
F0.7607
tp3136
a(g8
g6
F0.9519
tp3137
a(S'got'
p3138
g11
F0.9998
tp3139
a(S'to'
p3140
g17
F0.8686
tp3141
a(S'go'
p3142
g11
F0.9993
tp3143
a(S'to'
p3144
g17
F0.9984
tp3145
a(S'the'
p3146
g14
F0.999
tp3147
a(S'bath'
p3148
g24
F0.9941
tp3149
a(S'room'
p3150
g24
F0.9916
tp3151
asI286
(lp3152
(S'cheese'
p3153
g24
F0.9694
tp3154
a(S'popcorn'
p3155
g24
F0.9722
tp3156
asI287
(lp3157
(S'go'
p3158
g11
F0.9589
tp3159
a(S'ahead'
p3160
g3
F0.8755
tp3161
asI288
(lp3162
(S'hm'
p3163
g62
F0.995
tp3164
asI289
(lp3165
(S'mm'
p3166
g88
F0.3762
tp3167
a(S'xxx'
p3168
g76
F0.3951
tp3169
a(S'eat'
p3170
g11
F0.9979
tp3171
a(S'em'
p3172
g6
F0.9774
tp3173
a(S'up'
p3174
g152
F0.7629
tp3175
a(S'it'
p3176
g6
F0.993
tp3177
a(g81
g11
F0.6201
tp3178
a(S'good'
p3179
g173
F0.9948
tp3180
asI290
(lp3181
(S'eat'
p3182
g11
F0.994
tp3183
a(S'em'
p3184
g6
F0.9848
tp3185
a(S'up'
p3186
g152
F0.9643
tp3187
asI291
(lp3188
(S'xxx'
p3189
g76
F0.6467
tp3190
a(S'little'
p3191
g173
F0.9591
tp3192
a(S'eat'
p3193
g11
F0.9545
tp3194
a(S'em'
p3195
g6
F0.9825
tp3196
a(S'up'
p3197
g152
F0.8589
tp3198
a(S'gal'
p3199
g24
F0.9565
tp3200
asI292
(lp3201
(S'yeah'
p3202
g62
F0.9988
tp3203
asI293
(lp3204
(g8
g6
F0.9894
tp3205
a(S'guess'
p3206
g11
F1.0
tp3207
a(S'you'
p3208
g6
F0.999
tp3209
a(S'are'
p3210
g11
F0.9997
tp3211
a(S'you'
p3212
g6
F0.9968
tp3213
a(S'an'
p3214
g14
F0.9695
tp3215
a(S'eat'
p3216
g11
F0.9803
tp3217
a(S'em'
p3218
g6
F0.9859
tp3219
a(S'up'
p3220
g152
F0.7723
tp3221
a(S'gal'
p3222
g24
F0.9267
tp3223
asI294
(lp3224
(S'we'
p3225
g6
F0.9954
tp3226
a(S'tell'
p3227
g11
F0.9997
tp3228
a(S'your'
p3229
g14
F0.9911
tp3230
a(S'grandmother'
p3231
g24
F0.9907
tp3232
a(S'you'
p3233
g6
F0.9577
tp3234
a(S'you'
p3235
g6
F0.9877
tp3236
a(S'tell'
p3237
g11
F0.9997
tp3238
a(S'your'
p3239
g14
F0.9889
tp3240
a(S'grandmother'
p3241
g24
F0.9959
tp3242
a(S'xxx'
p3243
g76
F0.7432
tp3244
asI295
(lp3245
(S'yes'
p3246
g62
F0.987
tp3247
a(S'indeedy'
p3248
g62
F0.3489
tp3249
a(S'wp'
p3250
g316
F0.3327
tp3251
a(S'what'
p3252
g6
F0.9525
tp3253
asI296
(lp3254
(S'xxx'
p3255
g76
F0.8437
tp3256
asI297
(lp3257
(S'what'
p3258
g6
F0.9348
tp3259
a(S'you'
p3260
g6
F0.9996
tp3261
a(S'say'
p3262
g11
F0.9957
tp3263
asI298
(lp3264
(S'yes'
p3265
g62
F0.9846
tp3266
a(S'no'
p3267
g62
F0.9348
tp3268
asI299
(lp3269
(S'that'
p3270
g6
F0.7298
tp3271
a(S'might'
p3272
g11
F0.9968
tp3273
a(S'not'
p3274
g3
F0.9955
tp3275
a(S'be'
p3276
g11
F0.9991
tp3277
a(S'all'
p3278
g3
F0.331
tp3279
a(S'that'
p3280
g14
F0.8119
tp3281
a(S'bad'
p3282
g173
F0.9925
tp3283
a(S'mommy'
p3284
g24
F0.9458
tp3285
asI300
(lp3286
(S'gasps'
p3287
g24
F0.5201
tp3288
asI301
(lp3289
(S'mm'
p3290
g62
F0.4566
tp3291
a(S'mm'
p3292
g62
F0.6289
tp3293
a(S'mm'
p3294
g62
F0.6167
tp3295
asI302
(lp3296
(S'xxx'
p3297
g76
F0.8437
tp3298
asI303
(lp3299
(S'you'
p3300
g6
F0.998
tp3301
a(S'need'
p3302
g11
F0.9988
tp3303
a(S'some'
p3304
g14
F0.975
tp3305
a(S'drink'
p3306
g24
F0.9472
tp3307
asI304
(lp3308
(S'drink'
p3309
g11
F0.4759
tp3310
asI305
(lp3311
(S'you'
p3312
g6
F0.9983
tp3313
a(S'know'
p3314
g11
F0.9988
tp3315
a(S'how'
p3316
g3
F0.9927
tp3317
a(S'to'
p3318
g17
F0.994
tp3319
a(S'nod'
p3320
g11
F0.6931
tp3321
a(S'yes'
p3322
g62
F0.7777
tp3323
a(S'on'
p3324
g17
F0.98
tp3325
a(S'that'
p3326
g14
F0.7315
tp3327
a(S'one'
p3328
g420
F0.8389
tp3329
a(S'huh'
p3330
g62
F0.9479
tp3331
asI306
(lp3332
(S'mm'
p3333
g62
F0.627
tp3334
asI307
(lp3335
(S'babbles'
p3336
g24
F0.4202
tp3337
asI308
(lp3338
(S'mm'
p3339
g62
F0.627
tp3340
asI309
(lp3341
(S'don'
p3342
g316
F0.5427
tp3343
a(g758
g316
F0.6311
tp3344
a(S'worry'
p3345
g11
F0.9502
tp3346
a(S'xxx'
p3347
g76
F0.4662
tp3348
a(S'mamma'
p3349
g24
F0.9352
tp3350
a(S'gotchu'
p3351
g11
F0.8915
tp3352
a(S'got'
p3353
g11
F0.9984
tp3354
a(S'you'
p3355
g6
F0.9965
tp3356
a(S'drink'
p3357
g11
F0.9992
tp3358
a(S'them'
p3359
g6
F0.9492
tp3360
asI310
(lp3361
(S'babbles'
p3362
g24
F0.4202
tp3363
asI311
(lp3364
(g1253
g420
F0.9845
tp3365
a(S'echoes'
p3366
g24
F0.9799
tp3367
a(S'sis'
p3368
g24
F0.9723
tp3369
a(g81
g88
F0.8375
tp3370
a(S'vocalization'
p3371
g24
F0.8012
tp3372
asI312
(lp3373
(S'say'
p3374
g11
F0.8063
tp3375
a(S'mm'
p3376
g62
F0.5009
tp3377
asI313
(lp3378
(S'how'
p3379
g3
F0.9957
tp3380
a(S'about'
p3381
g17
F0.9917
tp3382
a(S'some'
p3383
g14
F0.9717
tp3384
a(S'drink'
p3385
g24
F0.8023
tp3386
a(S'in'
p3387
g17
F0.9765
tp3388
a(S'between'
p3389
g17
F0.9759
tp3390
a(S'all'
p3391
g14
F0.6164
tp3392
a(S'that'
p3393
g14
F0.855
tp3394
a(S'spaghetti'
p3395
g24
F0.9956
tp3396
a(S'and'
p3397
g147
F0.9978
tp3398
a(S'garlic'
p3399
g24
F0.9792
tp3400
a(S'toast'
p3401
g24
F0.9976
tp3402
asI314
(lp3403
(S'looks'
p3404
g11
F0.9905
tp3405
a(S'like'
p3406
g17
F0.9377
tp3407
a(S'it'
p3408
g6
F0.9978
tp3409
a(S'tastes'
p3410
g11
F0.9921
tp3411
a(S'xxx'
p3412
g76
F0.544
tp3413
a(S'to'
p3414
g17
F0.9978
tp3415
a(S'you'
p3416
g6
F0.9981
tp3417
asI315
(lp3418
(S'mm'
p3419
g62
F0.627
tp3420
asI316
(lp3421
(S'laughs'
p3422
g11
F0.9102
tp3423
asI317
(lp3424
(S'xxx'
p3425
g76
F0.7123
tp3426
a(S'getting'
p3427
g11
F0.9944
tp3428
a(S'bottle'
p3429
g24
F0.8339
tp3430
a(S'for'
p3431
g17
F0.9999
tp3432
a(S'you'
p3433
g6
F0.9991
tp3434
a(S'today'
p3435
g24
F0.9424
tp3436
asI318
(lp3437
(S'mm'
p3438
g62
F0.3838
tp3439
a(g8
g6
F0.992
tp3440
a(S'see'
p3441
g11
F0.9999
tp3442
a(S'you'
p3443
g6
F0.9886
tp3444
asI319
(lp3445
(g8
g6
F0.9858
tp3446
a(S'see'
p3447
g11
F0.9998
tp3448
a(S'you'
p3449
g6
F0.9906
tp3450
asI320
(lp3451
(g8
g6
F0.9858
tp3452
a(S'see'
p3453
g11
F0.9998
tp3454
a(S'you'
p3455
g6
F0.9906
tp3456
asI321
(lp3457
(g8
g6
F0.9855
tp3458
a(S'see'
p3459
g11
F0.9998
tp3460
a(S'you'
p3461
g6
F0.9967
tp3462
a(S'laughing'
p3463
g11
F0.9866
tp3464
asI322
(lp3465
(g8
g6
F0.9858
tp3466
a(S'see'
p3467
g11
F0.9998
tp3468
a(S'you'
p3469
g6
F0.9906
tp3470
asI323
(lp3471
(S'laughs'
p3472
g11
F0.9102
tp3473
asI324
(lp3474
(g8
g6
F0.9858
tp3475
a(S'see'
p3476
g11
F0.9998
tp3477
a(S'you'
p3478
g6
F0.9906
tp3479
asI325
(lp3480
(S'laughs'
p3481
g11
F0.9102
tp3482
asI326
(lp3483
(S'yeah'
p3484
g62
F0.9988
tp3485
asI327
(lp3486
(S'what'
p3487
g6
F0.9784
tp3488
a(g81
g11
F0.7653
tp3489
a(S'up'
p3490
g152
F0.981
tp3491
a(S'with'
p3492
g17
F0.9985
tp3493
a(S'that'
p3494
g6
F0.7885
tp3495
asI328
(lp3496
(S'what'
p3497
g6
F0.9739
tp3498
a(g81
g11
F0.4505
tp3499
a(S'that'
p3500
g6
F0.8603
tp3501
asI329
(lp3502
(S'mm'
p3503
g62
F0.627
tp3504
asI330
(lp3505
(S'want'
p3506
g11
F0.9975
tp3507
a(S'some'
p3508
g14
F0.9464
tp3509
a(S'more'
p3510
g173
F0.9782
tp3511
a(S'spaghetti'
p3512
g24
F0.9991
tp3513
asI331
(lp3514
(S'you'
p3515
g6
F0.9754
tp3516
a(S're'
p3517
g11
F0.7849
tp3518
a(S'not'
p3519
g3
F0.9964
tp3520
a(S'gonna'
p3521
g11
F0.9976
tp3522
a(S'put'
p3523
g11
F0.9995
tp3524
a(S'your'
p3525
g14
F0.9977
tp3526
a(S'face'
p3527
g24
F0.9983
tp3528
a(S'on'
p3529
g17
F0.999
tp3530
a(S'it'
p3531
g6
F0.9899
tp3532
a(S'you'
p3533
g6
F0.9984
tp3534
a(S'have'
p3535
g11
F0.9995
tp3536
a(S'to'
p3537
g17
F0.998
tp3538
a(S'get'
p3539
g11
F0.9999
tp3540
a(S'the'
p3541
g14
F0.9993
tp3542
a(S'bottle'
p3543
g24
F0.9943
tp3544
a(S'out'
p3545
g17
F0.9322
tp3546
a(S'your'
p3547
g14
F0.9933
tp3548
a(S'mouth'
p3549
g24
F0.9996
tp3550
asI332
(lp3551
(S'no'
p3552
g62
F0.6766
tp3553
a(S'and'
p3554
g147
F0.9959
tp3555
a(g8
g6
F0.9869
tp3556
a(S'don'
p3557
g11
F0.9208
tp3558
a(g758
g11
F0.4265
tp3559
a(S'like'
p3560
g17
F0.8852
tp3561
a(S'you'
p3562
g6
F0.9997
tp3563
a(S'playing'
p3564
g11
F1.0
tp3565
a(S'it'
p3566
g6
F0.9908
tp3567
a(S'neither'
p3568
g14
F0.4043
tp3569
asI333
(lp3570
(S'mm'
p3571
g88
F0.3707
tp3572
a(S'mm'
p3573
g88
F0.7576
tp3574
a(S'mm'
p3575
g88
F0.799
tp3576
a(S'mm'
p3577
g88
F0.7129
tp3578
a(S'whoo'
p3579
g62
F0.9586
tp3580
asI334
(lp3581
(S'baby'
p3582
g24
F0.9504
tp3583
a(S'like'
p3584
g17
F0.9603
tp3585
asI335
(lp3586
(S'hey'
p3587
g62
F0.9858
tp3588
a(S'give'
p3589
g11
F0.9978
tp3590
a(S'it'
p3591
g6
F0.9888
tp3592
a(S'back'
p3593
g3
F0.9266
tp3594
a(S'here'
p3595
g3
F0.9812
tp3596
a(S'xxx'
p3597
g76
F0.8508
tp3598
a(S'xxx'
p3599
g76
F0.988
tp3600
asI336
(lp3601
(S'you'
p3602
g6
F0.9945
tp3603
a(S'let'
p3604
g11
F0.9967
tp3605
a(S'go'
p3606
g11
F0.9287
tp3607
asI337
(lp3608
(S'laughing'
p3609
g11
F0.9384
tp3610
asI338
(lp3611
(S'oh'
p3612
g62
F0.9948
tp3613
a(S'no'
p3614
g62
F0.9841
tp3615
asI339
(lp3616
(S'mm'
p3617
g6
F0.2742
tp3618
a(S'say'
p3619
g11
F0.9983
tp3620
a(S'all'
p3621
g14
F0.4706
tp3622
a(S'that'
p3623
g14
F0.8563
tp3624
a(S'meat'
p3625
g24
F0.9752
tp3626
a(S'sauce'
p3627
g24
F0.9974
tp3628
a(S'xxx'
p3629
g76
F0.4402
tp3630
a(S'love'
p3631
g11
F0.9612
tp3632
a(S'it'
p3633
g6
F0.9964
tp3634
a(S'laughs'
p3635
g11
F0.9978
tp3636
asI340
(lp3637
(g8
g6
F0.9893
tp3638
a(S'wish'
p3639
g11
F0.9967
tp3640
a(g8
g6
F0.9955
tp3641
a(S'took'
p3642
g11
F0.9999
tp3643
a(g588
g14
F0.998
tp3644
a(S'picture'
p3645
g24
F0.9959
tp3646
asI341
(lp3647
(S'yeah'
p3648
g62
F0.9988
tp3649
asI342
(lp3650
(S'you'
p3651
g6
F0.9968
tp3652
a(S'gonna'
p3653
g11
F0.9997
tp3654
a(S'be'
p3655
g11
F0.9998
tp3656
a(g588
g14
F0.9924
tp3657
a(S'little'
p3658
g173
F0.9925
tp3659
a(S'charmer'
p3660
g24
F0.9205
tp3661
a(S'aren'
p3662
g17
F0.3963
tp3663
a(g758
g11
F0.474
tp3664
a(S'you'
p3665
g6
F0.9967
tp3666
asI343
(lp3667
(S'mm'
p3668
g62
F0.627
tp3669
asI344
(lp3670
(S'xxx'
p3671
g76
F0.8437
tp3672
asI345
(lp3673
(S'could'
p3674
g11
F0.9703
tp3675
a(g8
g6
F0.9933
tp3676
a(S'have'
p3677
g11
F0.9999
tp3678
a(S'some'
p3679
g14
F0.8698
tp3680
a(S'of'
p3681
g17
F0.9929
tp3682
a(S'yours'
p3683
g6
F0.9656
tp3684
asI346
(lp3685
(S'ah'
p3686
g62
F0.996
tp3687
asI347
(lp3688
(S'ah'
p3689
g62
F0.996
tp3690
asI348
(lp3691
(S'give'
p3692
g11
F0.9612
tp3693
a(S'mommy'
p3694
g24
F0.7693
tp3695
a(S'taste'
p3696
g11
F0.631
tp3697
asI349
(lp3698
(S'yes'
p3699
g62
F0.9958
tp3700
asI350
(lp3701
(S'well'
p3702
g62
F0.8271
tp3703
a(S'when'
p3704
g3
F0.9802
tp3705
a(S'you'
p3706
g6
F0.999
tp3707
a(S'gonna'
p3708
g11
F0.9996
tp3709
a(S'put'
p3710
g11
F0.9991
tp3711
a(S'the'
p3712
g14
F0.9996
tp3713
a(S'bread'
p3714
g24
F0.9979
tp3715
a(S'over'
p3716
g17
F0.9424
tp3717
a(S'here'
p3718
g3
F0.968
tp3719
asI351
(lp3720
(S'don'
p3721
g316
F0.5427
tp3722
a(g758
g316
F0.4679
tp3723
a(S'nod'
p3724
g11
F0.7632
tp3725
a(S'your'
p3726
g14
F0.9936
tp3727
a(S'head'
p3728
g24
F0.998
tp3729
a(S'yes'
p3730
g62
F0.8897
tp3731
a(S'and'
p3732
g147
F0.9974
tp3733
a(S'don'
p3734
g11
F0.3408
tp3735
a(g758
g11
F0.2282
tp3736
a(S'give'
p3737
g11
F0.9803
tp3738
a(S'mommy'
p3739
g24
F0.7887
tp3740
a(S'no'
p3741
g62
F0.4621
tp3742
a(S'taste'
p3743
g24
F0.7564
tp3744
asI352
(lp3745
(S'laughs'
p3746
g11
F0.9102
tp3747
asI353
(lp3748
(S'here'
p3749
g3
F0.9346
tp3750
a(S'you'
p3751
g6
F0.9996
tp3752
a(S'go'
p3753
g11
F0.9908
tp3754
a(S'boop'
p3755
g62
F0.5099
tp3756
a(g2904
g62
F0.3156
tp3757
asI354
(lp3758
(g8
g6
F0.9892
tp3759
a(S'got'
p3760
g11
F0.9999
tp3761
a(S'your'
p3762
g14
F0.9908
tp3763
a(S'hat'
p3764
g24
F0.9942
tp3765
asI355
(lp3766
(S'oh'
p3767
g62
F0.9971
tp3768
a(g8
g6
F0.9927
tp3769
a(S'wish'
p3770
g11
F0.9999
tp3771
a(S'you'
p3772
g6
F0.9964
tp3773
a(g1164
g11
F0.6046
tp3774
a(S'let'
p3775
g11
F0.9988
tp3776
a(S'me'
p3777
g6
F0.9998
tp3778
a(S'know'
p3779
g11
F0.9869
tp3780
a(S'before'
p3781
g17
F0.9751
tp3782
a(S'you'
p3783
g6
F0.9995
tp3784
a(S'pull'
p3785
g11
F0.9993
tp3786
a(S'my'
p3787
g14
F0.999
tp3788
a(S'hair'
p3789
g24
F0.9985
tp3790
a(S'with'
p3791
g17
F0.9999
tp3792
a(S'it'
p3793
g6
F0.9968
tp3794
asI356
(lp3795
(S'huh'
p3796
g62
F0.993
tp3797
asI357
(lp3798
(S'pick'
p3799
g11
F0.9936
tp3800
a(S'it'
p3801
g6
F0.9934
tp3802
a(S'up'
p3803
g152
F0.9923
tp3804
asI358
(lp3805
(S'xxx'
p3806
g76
F0.6791
tp3807
a(S'pull'
p3808
g11
F0.9869
tp3809
a(S'my'
p3810
g14
F0.999
tp3811
a(S'hair'
p3812
g24
F0.9989
tp3813
a(S'with'
p3814
g17
F0.9998
tp3815
a(S'it'
p3816
g6
F0.9973
tp3817
asI359
(lp3818
(S'you'
p3819
g6
F0.998
tp3820
a(S'have'
p3821
g11
F0.9974
tp3822
a(S'xxx'
p3823
g24
F0.4049
tp3824
a(S'want'
p3825
g11
F0.9995
tp3826
a(S'you'
p3827
g6
F0.9988
tp3828
a(S'go'
p3829
g11
F0.9986
tp3830
a(S'to'
p3831
g17
F0.9817
tp3832
a(S'sleep'
p3833
g11
F0.9642
tp3834
a(S'early'
p3835
g173
F0.7244
tp3836
asI360
(lp3837
(S'everybody'
p3838
g24
F0.8767
tp3839
a(S'go'
p3840
g11
F0.9939
tp3841
a(S'to'
p3842
g17
F0.9745
tp3843
a(S'sleep'
p3844
g11
F0.9693
tp3845
a(S'early'
p3846
g173
F0.5257
tp3847
a(S'go'
p3848
g11
F0.7412
tp3849
a(S'to'
p3850
g17
F0.9817
tp3851
a(S'sleep'
p3852
g11
F0.896
tp3853
asI361
(lp3854
(S'oh'
p3855
g62
F0.9903
tp3856
a(S'don'
p3857
g316
F0.5133
tp3858
a(g758
g316
F0.52
tp3859
a(S'be'
p3860
g11
F0.9779
tp3861
a(S'so'
p3862
g3
F0.9855
tp3863
a(S'greedy'
p3864
g173
F0.9996
tp3865
a(S'xxx'
p3866
g76
F0.7749
tp3867
asI362
(lp3868
(S'boy'
p3869
g24
F0.9421
tp3870
a(S'boy'
p3871
g24
F0.9727
tp3872
asI363
(lp3873
(S'well'
p3874
g62
F0.8573
tp3875
a(g8
g6
F0.996
tp3876
a(S'thank'
p3877
g11
F0.9988
tp3878
a(S'you'
p3879
g6
F0.9992
tp3880
a(S'for'
p3881
g17
F0.9991
tp3882
a(S'the'
p3883
g14
F0.9987
tp3884
a(S'compliment'
p3885
g24
F0.9983
tp3886
asI364
(lp3887
(g8
g6
F0.9895
tp3888
a(S'believe'
p3889
g11
F0.9999
tp3890
a(S'that'
p3891
g14
F0.6543
tp3892
a(S'bread'
p3893
g24
F0.9948
tp3894
a(S'must'
p3895
g11
F0.9604
tp3896
a(S'be'
p3897
g11
F0.9985
tp3898
a(S'pretty'
p3899
g3
F0.9913
tp3900
a(S'good'
p3901
g173
F0.9991
tp3902
a(S'or'
p3903
g147
F0.9909
tp3904
a(S'you'
p3905
g6
F0.9986
tp3906
a(S'wouldn'
p3907
g11
F0.9866
tp3908
a(g758
g11
F0.8226
tp3909
a(S'be'
p3910
g11
F0.9937
tp3911
a(S'sliding'
p3912
g11
F0.9933
tp3913
a(S'that'
p3914
g14
F0.854
tp3915
a(S'bottle'
p3916
g24
F0.959
tp3917
a(S'out'
p3918
g17
F0.9576
tp3919
a(S'of'
p3920
g17
F0.9984
tp3921
a(S'the'
p3922
g14
F0.9995
tp3923
a(S'way'
p3924
g24
F0.9767
tp3925
a(S'to'
p3926
g17
F0.9992
tp3927
a(S'get'
p3928
g11
F0.9997
tp3929
a(S'to'
p3930
g17
F0.9907
tp3931
a(S'it'
p3932
g6
F0.9959
tp3933
asI365
(lp3934
(S'laughs'
p3935
g11
F0.9102
tp3936
asI366
(lp3937
(S'what'
p3938
g6
F0.949
tp3939
asI367
(lp3940
(S'who'
p3941
g6
F0.9905
tp3942
a(g81
g11
F0.7279
tp3943
a(S'playing'
p3944
g11
F0.996
tp3945
a(S'xxx'
p3946
g76
F0.7313
tp3947
asI368
(lp3948
(S'mm'
p3949
g62
F0.627
tp3950
asI369
(lp3951
(S'what'
p3952
g6
F0.9461
tp3953
a(S'you'
p3954
g6
F0.9987
tp3955
a(S'planning'
p3956
g11
F0.9994
tp3957
a(S'on'
p3958
g17
F0.942
tp3959
a(S'doing'
p3960
g11
F0.9552
tp3961
a(S'tomorrow'
p3962
g24
F0.9574
tp3963
asI370
(lp3964
(S'huh'
p3965
g62
F0.993
tp3966
asI371
(lp3967
(S'what'
p3968
g6
F0.9962
tp3969
a(S'is'
p3970
g11
F0.9997
tp3971
a(S'your'
p3972
g14
F0.9857
tp3973
a(S'class'
p3974
g24
F0.9978
tp3975
a(S'planning'
p3976
g11
F0.9631
tp3977
a(S'on'
p3978
g17
F0.9446
tp3979
a(S'doing'
p3980
g11
F0.9106
tp3981
a(S'tomorrow'
p3982
g24
F0.952
tp3983
asI372
(lp3984
(S'what'
p3985
g6
F0.8379
tp3986
a(S'class'
p3987
g24
F0.9957
tp3988
asI373
(lp3989
(S'oh'
p3990
g62
F0.9903
tp3991
a(S'my'
p3992
g14
F0.9879
tp3993
a(S'day'
p3994
g24
F0.9992
tp3995
a(S'care'
p3996
g11
F0.5436
tp3997
asI374
(lp3998
(S'yeah'
p3999
g62
F0.9988
tp4000
asI375
(lp4001
(S'we'
p4002
g6
F0.9849
tp4003
a(S're'
p4004
g11
F0.6919
tp4005
a(S'going'
p4006
g11
F0.9981
tp4007
a(S'to'
p4008
g17
F0.979
tp4009
a(S'have'
p4010
g11
F0.9994
tp4011
a(S'spaghetti'
p4012
g24
F0.9967
tp4013
asI376
(lp4014
(S'and'
p4015
g147
F0.9986
tp4016
a(S'what'
p4017
g6
F0.9938
tp4018
a(S'else'
p4019
g3
F0.8213
tp4020
asI377
(lp4021
(S'potato'
p4022
g24
F0.9135
tp4023
a(S'chips'
p4024
g24
F0.996
tp4025
a(S'and'
p4026
g147
F0.9979
tp4027
a(S'juices'
p4028
g11
F0.5343
tp4029
asI378
(lp4030
(S'oh'
p4031
g62
F0.9987
tp4032
a(S'yeah'
p4033
g62
F0.9997
tp4034
asI379
(lp4035
(S'yeah'
p4036
g62
F0.9968
tp4037
a(S'xxx'
p4038
g76
F0.7849
tp4039
asI380
(lp4040
(S'and'
p4041
g147
F0.9987
tp4042
a(S'then'
p4043
g3
F0.9675
tp4044
a(S'we'
p4045
g6
F0.9935
tp4046
a(S're'
p4047
g11
F0.6784
tp4048
a(S'going'
p4049
g11
F0.9976
tp4050
a(S'to'
p4051
g17
F0.9757
tp4052
a(S'going'
p4053
g11
F0.9999
tp4054
a(S'to'
p4055
g17
F0.9769
tp4056
a(S'have'
p4057
g11
F0.9995
tp4058
a(S'going'
p4059
g11
F0.9948
tp4060
a(S'to'
p4061
g17
F0.9769
tp4062
a(S'have'
p4063
g11
F0.9991
tp4064
a(S'bread'
p4065
g24
F0.996
tp4066
a(S'and'
p4067
g147
F0.9965
tp4068
a(S'and'
p4069
g147
F0.9985
tp4070
a(S'cake'
p4071
g24
F0.9805
tp4072
asI381
(lp4073
(g8
g6
F0.9892
tp4074
a(S'got'
p4075
g11
F0.9998
tp4076
a(g588
g14
F0.9976
tp4077
a(S'lot'
p4078
g24
F0.9809
tp4079
a(S'of'
p4080
g17
F0.9973
tp4081
a(S'bread'
p4082
g24
F0.9822
tp4083
a(S'xxx'
p4084
g76
F0.3967
tp4085
a(S'red'
p4086
g173
F0.9892
tp4087
a(S'and'
p4088
g147
F0.9961
tp4089
a(S'black'
p4090
g173
F0.9132
tp4091
asI382
(lp4092
(S'red'
p4093
g173
F0.9628
tp4094
a(S'and'
p4095
g147
F0.9969
tp4096
a(S'white'
p4097
g173
F0.7685
tp4098
asI383
(lp4099
(S'do'
p4100
g11
F0.9985
tp4101
a(S'you'
p4102
g6
F0.9997
tp4103
a(S'know'
p4104
g11
F0.9989
tp4105
a(S'what'
p4106
g6
F0.9931
tp4107
a(S'tomorrow'
p4108
g24
F0.9829
tp4109
a(S'is'
p4110
g11
F0.9962
tp4111
asI384
(lp4112
(S'yes'
p4113
g62
F0.9958
tp4114
asI385
(lp4115
(S'what'
p4116
g6
F0.9739
tp4117
a(g81
g88
F0.4807
tp4118
a(S'tomorrow'
p4119
g24
F0.9684
tp4120
asI386
(lp4121
(g588
g14
F0.9959
tp4122
a(S'birthday'
p4123
g24
F0.996
tp4124
a(S'xxx'
p4125
g76
F0.7455
tp4126
asI387
(lp4127
(S'no'
p4128
g62
F0.5217
tp4129
a(S'tomorrow'
p4130
g24
F0.9945
tp4131
a(g81
g88
F0.8351
tp4132
a(S'valentine'
p4133
g316
F0.8188
tp4134
a(g81
g88
F0.6731
tp4135
a(S'day'
p4136
g24
F0.969
tp4137
a(S'that'
p4138
g17
F0.9446
tp4139
a(g81
g88
F0.596
tp4140
a(S'why'
p4141
g3
F0.9561
tp4142
a(S'you'
p4143
g6
F0.9962
tp4144
a(S're'
p4145
g11
F0.7397
tp4146
a(S'having'
p4147
g11
F0.9991
tp4148
a(g588
g14
F0.9963
tp4149
a(S'party'
p4150
g24
F0.9926
tp4151
asI388
(lp4152
(S'we'
p4153
g6
F0.9973
tp4154
a(S'have'
p4155
g11
F0.9977
tp4156
a(S'party'
p4157
g24
F0.98
tp4158
a(S'hats'
p4159
g24
F0.9983
tp4160
a(S'too'
p4161
g3
F0.9718
tp4162
asI389
(lp4163
(S'no'
p4164
g62
F0.787
tp4165
a(S'not'
p4166
g3
F0.9805
tp4167
a(S'for'
p4168
g17
F0.9967
tp4169
a(S'valentine'
p4170
g316
F0.8989
tp4171
a(g81
g88
F0.6731
tp4172
a(S'day'
p4173
g24
F0.9733
tp4174
a(S'valentine'
p4175
g24
F0.4507
tp4176
a(g81
g88
F0.9089
tp4177
asI390
(lp4178
(S'xxx'
p4179
g76
F0.5769
tp4180
a(S'his'
p4181
g14
F0.9958
tp4182
a(S'mom'
p4183
g24
F0.9909
tp4184
a(S'told'
p4185
g11
F0.9961
tp4186
a(S'xxx'
p4187
g76
F0.3149
tp4188
a(S'my'
p4189
g14
F0.9949
tp4190
a(S'teacher'
p4191
g24
F0.9948
tp4192
a(S'xxx'
p4193
g76
F0.5915
tp4194
a(S'mother'
p4195
g24
F0.9299
tp4196
a(S'that'
p4197
g17
F0.871
tp4198
a(S'xxx'
p4199
g11
F0.3565
tp4200
a(S'needed'
p4201
g11
F0.9939
tp4202
a(g588
g14
F0.9974
tp4203
a(S'party'
p4204
g24
F0.936
tp4205
a(S'hat'
p4206
g24
F0.9837
tp4207
a(S'too'
p4208
g3
F0.9327
tp4209
asI391
(lp4210
(S'well'
p4211
g62
F0.7961
tp4212
a(S'maybe'
p4213
g3
F0.94
tp4214
a(S'that'
p4215
g6
F0.5013
tp4216
a(g81
g11
F0.6355
tp4217
a(S'because'
p4218
g17
F0.989
tp4219
a(S'xxx'
p4220
g76
F0.3537
tp4221
a(S'mother'
p4222
g24
F0.9716
tp4223
a(S'bring'
p4224
g11
F0.999
tp4225
a(S'something'
p4226
g24
F0.9932
tp4227
a(S'to'
p4228
g17
F0.9996
tp4229
a(S'the'
p4230
g14
F0.9989
tp4231
a(S'school'
p4232
g24
F0.9993
tp4233
a(S'yet'
p4234
g3
F0.9377
tp4235
asI392
(lp4236
(S'well'
p4237
g62
F0.6526
tp4238
a(S'see'
p4239
g11
F0.846
tp4240
a(S'xxx'
p4241
g76
F0.2702
tp4242
a(S'mother'
p4243
g24
F0.9672
tp4244
a(S'just'
p4245
g3
F0.9996
tp4246
a(S'probably'
p4247
g3
F0.9991
tp4248
a(S'asked'
p4249
g11
F0.9976
tp4250
a(S'her'
p4251
g6
F0.7236
tp4252
a(S'what'
p4253
g6
F0.9644
tp4254
a(S'else'
p4255
g3
F0.9316
tp4256
a(S'would'
p4257
g11
F0.9979
tp4258
a(S'she'
p4259
g6
F0.9779
tp4260
a(S'like'
p4261
g11
F0.782
tp4262
a(S'them'
p4263
g6
F0.9945
tp4264
a(S'to'
p4265
g17
F0.9875
tp4266
a(S'have'
p4267
g11
F0.9985
tp4268
a(S'and'
p4269
g147
F0.9969
tp4270
a(S'they'
p4271
g6
F0.9964
tp4272
a(S'figured'
p4273
g11
F0.9998
tp4274
a(S'they'
p4275
g6
F0.996
tp4276
a(S'had'
p4277
g11
F0.9996
tp4278
a(S'enough'
p4279
g173
F0.7596
tp4280
a(S'potato'
p4281
g24
F0.9919
tp4282
a(S'chips'
p4283
g24
F0.9954
tp4284
a(S'and'
p4285
g147
F0.9981
tp4286
a(S'candy'
p4287
g24
F0.8227
tp4288
a(S'and'
p4289
g147
F0.9981
tp4290
a(S'cheese'
p4291
g24
F0.9817
tp4292
a(S'puffs'
p4293
g24
F0.9654
tp4294
a(S'and'
p4295
g147
F0.9975
tp4296
a(S'junk'
p4297
g24
F0.9592
tp4298
a(S'food'
p4299
g24
F0.9899
tp4300
a(S'like'
p4301
g17
F0.9421
tp4302
a(S'that'
p4303
g6
F0.9032
tp4304
a(S'so'
p4305
g17
F0.8192
tp4306
a(S'she'
p4307
g6
F0.998
tp4308
a(S'probably'
p4309
g3
F0.9997
tp4310
a(S'asked'
p4311
g11
F0.9958
tp4312
a(S'the'
p4313
g14
F0.9994
tp4314
a(S'teacher'
p4315
g24
F0.9875
tp4316
a(S'in'
p4317
g17
F0.9961
tp4318
a(S'order'
p4319
g24
F0.9295
tp4320
a(S'to'
p4321
g17
F0.9992
tp4322
a(S'get'
p4323
g11
F0.9999
tp4324
a(S'the'
p4325
g14
F0.9994
tp4326
a(S'party'
p4327
g24
F0.9712
tp4328
a(S'hats'
p4329
g24
F0.9964
tp4330
asI393
(lp4331
(S'see'
p4332
g11
F0.8807
tp4333
a(S'what'
p4334
g6
F0.8811
tp4335
a(g8
g6
F0.9945
tp4336
a(S'mean'
p4337
g11
F0.9774
tp4338
asI394
(lp4339
(S'what'
p4340
g6
F0.9777
tp4341
a(S'about'
p4342
g17
F0.9649
tp4343
a(S'cheese'
p4344
g24
F0.9903
tp4345
a(S'popcorn'
p4346
g24
F0.9782
tp4347
asI395
(lp4348
(S'what'
p4349
g6
F0.9725
tp4350
a(S'about'
p4351
g17
F0.9788
tp4352
a(S'that'
p4353
g6
F0.9424
tp4354
asI396
(lp4355
(S'is'
p4356
g11
F0.9981
tp4357
a(S'that'
p4358
g6
F0.9698
tp4359
a(S'at'
p4360
g17
F0.9979
tp4361
a(S'the'
p4362
g14
F0.9993
tp4363
a(S'school'
p4364
g24
F0.9991
tp4365
a(S'already'
p4366
g3
F0.9902
tp4367
asI397
(lp4368
(S'no'
p4369
g62
F0.9253
tp4370
asI398
(lp4371
(S'well'
p4372
g62
F0.7961
tp4373
a(S'maybe'
p4374
g3
F0.9468
tp4375
a(S'somebody'
p4376
g24
F0.9181
tp4377
a(S'else'
p4378
g3
F0.9569
tp4379
a(S'will'
p4380
g11
F0.9916
tp4381
a(S'bring'
p4382
g11
F1.0
tp4383
a(S'the'
p4384
g14
F0.9996
tp4385
a(S'cheese'
p4386
g24
F0.9928
tp4387
a(S'popcorn'
p4388
g24
F0.9759
tp4389
a(S'then'
p4390
g3
F0.9704
tp4391
asI399
(lp4392
(S'oh'
p4393
g62
F0.9988
tp4394
asI400
(lp4395
(S'did'
p4396
g11
F0.982
tp4397
a(S'miss'
p4398
g11
F0.8805
tp4399
a(S'moore'
p4400
g316
F0.6608
tp4401
a(S'like'
p4402
g17
F0.6944
tp4403
a(S'her'
p4404
g14
F0.9109
tp4405
a(S'sweetheart'
p4406
g24
F0.9991
tp4407
a(S'box'
p4408
g24
F0.94
tp4409
asI401
(lp4410
(S'oh'
p4411
g62
F0.9987
tp4412
a(S'yeah'
p4413
g62
F0.9997
tp4414
asI402
(lp4415
(S'yeah'
p4416
g62
F0.9882
tp4417
a(S'did'
p4418
g11
F0.9935
tp4419
a(S'she'
p4420
g6
F0.9971
tp4421
a(S'give'
p4422
g11
F0.9996
tp4423
a(S'the'
p4424
g14
F0.9997
tp4425
a(S'other'
p4426
g173
F0.981
tp4427
a(S'teacher'
p4428
g24
F0.9766
tp4429
a(g81
g88
F0.5865
tp4430
a(S'some'
p4431
g14
F0.7542
tp4432
asI403
(lp4433
(S'nuhhuh'
p4434
g62
F0.533
tp4435
asI404
(lp4436
(S'she'
p4437
g6
F0.9926
tp4438
a(S'didn'
p4439
g11
F0.9724
tp4440
a(g758
g11
F0.7152
tp4441
a(S'want'
p4442
g11
F0.9931
tp4443
a(S'to'
p4444
g17
F0.9492
tp4445
asI405
(lp4446
(S'laughs'
p4447
g11
F0.9102
tp4448
asI406
(lp4449
(S'well'
p4450
g62
F0.8573
tp4451
a(g8
g6
F0.9974
tp4452
a(S'told'
p4453
g11
F1.0
tp4454
a(S'you'
p4455
g6
F0.9988
tp4456
a(S'to'
p4457
g17
F0.9868
tp4458
a(S'give'
p4459
g11
F0.9999
tp4460
a(S'it'
p4461
g6
F0.9905
tp4462
a(S'to'
p4463
g17
F0.9938
tp4464
a(S'your'
p4465
g14
F0.9874
tp4466
a(S'favorite'
p4467
g173
F0.9226
tp4468
a(S'teacher'
p4469
g24
F0.9939
tp4470
asI407
(lp4471
(g8
g6
F0.984
tp4472
a(S'already'
p4473
g3
F0.9931
tp4474
a(S'did'
p4475
g11
F0.9966
tp4476
asI408
(lp4477
(S'miss'
p4478
g11
F0.7681
tp4479
a(S'moore'
p4480
g316
F0.9638
tp4481
a(S'is'
p4482
g11
F0.9997
tp4483
a(S'your'
p4484
g14
F0.9934
tp4485
a(S'favorite'
p4486
g173
F0.8758
tp4487
a(S'teacher'
p4488
g24
F0.9916
tp4489
asI409
(lp4490
(S'yes'
p4491
g62
F0.9958
tp4492
asI410
(lp4493
(S'xxx'
p4494
g76
F0.7113
tp4495
a(S'let'
p4496
g11
F0.9985
tp4497
a(S'me'
p4498
g6
F0.9995
tp4499
a(S'help'
p4500
g11
F0.9164
tp4501
a(S'too'
p4502
g3
F0.9816
tp4503
asI411
(lp4504
(S'unhunh'
p4505
g62
F0.3818
tp4506
asI412
(lp4507
(S'miss'
p4508
g11
F0.832
tp4509
a(S'wanda'
p4510
g316
F0.9855
tp4511
asI413
(lp4512
(S'don'
p4513
g316
F0.5427
tp4514
a(g758
g11
F0.4091
tp4515
a(S'you'
p4516
g6
F0.9986
tp4517
a(S'like'
p4518
g11
F0.6807
tp4519
a(S'miss'
p4520
g11
F0.7252
tp4521
a(S'moore'
p4522
g316
F0.7596
tp4523
a(S'the'
p4524
g14
F0.9986
tp4525
a(S'best'
p4526
g173
F0.9847
tp4527
asI414
(lp4528
(S'yes'
p4529
g62
F0.9958
tp4530
asI415
(lp4531
(S'mommy'
p4532
g24
F0.4181
tp4533
a(S're'
p4534
g24
F0.875
tp4535
a(S'member'
p4536
g24
F0.9837
tp4537
a(S'last'
p4538
g173
F0.9849
tp4539
a(S'night'
p4540
g24
F0.9893
tp4541
asI416
(lp4542
(S'xxx'
p4543
g76
F0.676
tp4544
a(S'and'
p4545
g147
F0.9985
tp4546
a(S'miss'
p4547
g11
F0.9168
tp4548
a(S'moore'
p4549
g316
F0.9055
tp4550
a(S'was'
p4551
g11
F0.9946
tp4552
a(S'sitting'
p4553
g11
F0.9951
tp4554
a(S'with'
p4555
g17
F0.9991
tp4556
a(S'me'
p4557
g6
F0.9989
tp4558
asI417
(lp4559
(S'unhunh'
p4560
g62
F0.3818
tp4561
asI418
(lp4562
(S'that'
p4563
g6
F0.473
tp4564
a(g81
g88
F0.472
tp4565
a(S'why'
p4566
g3
F0.9629
tp4567
a(g8
g6
F0.9946
tp4568
a(S'got'
p4569
g11
F0.9999
tp4570
a(S'you'
p4571
g6
F0.9991
tp4572
a(S'to'
p4573
g17
F0.9893
tp4574
a(S'carry'
p4575
g11
F0.9996
tp4576
a(S'it'
p4577
g6
F0.9791
tp4578
asI419
(lp4579
(S'what'
p4580
g6
F0.949
tp4581
asI420
(lp4582
(S'so'
p4583
g17
F0.8338
tp4584
a(S'you'
p4585
g6
F0.9996
tp4586
a(S'can'
p4587
g11
F0.9998
tp4588
a(S'give'
p4589
g11
F0.9999
tp4590
a(S'it'
p4591
g6
F0.9905
tp4592
a(S'to'
p4593
g17
F0.9968
tp4594
a(S'the'
p4595
g14
F0.9992
tp4596
a(S'teacher'
p4597
g24
F0.9885
tp4598
a(S'that'
p4599
g17
F0.9542
tp4600
a(S'that'
p4601
g6
F0.9108
tp4602
a(S'likes'
p4603
g11
F0.9997
tp4604
a(S'this'
p4605
g6
F0.8881
tp4606
a(S'that'
p4607
g6
F0.8147
tp4608
a(S'likes'
p4609
g11
F0.9989
tp4610
a(S'to'
p4611
g17
F0.9921
tp4612
a(S'help'
p4613
g11
F0.9995
tp4614
a(S'you'
p4615
g6
F0.9993
tp4616
a(S'out'
p4617
g17
F0.7761
tp4618
a(S'the'
p4619
g14
F0.9978
tp4620
a(S'most'
p4621
g173
F0.5499
tp4622
asI421
(lp4623
(S'but'
p4624
g147
F0.9841
tp4625
a(S'the'
p4626
g14
F0.999
tp4627
a(S'choice'
p4628
g24
F0.995
tp4629
a(S'had'
p4630
g11
F0.9948
tp4631
a(S'to'
p4632
g17
F0.9861
tp4633
a(S'be'
p4634
g11
F0.9999
tp4635
a(S'yours'
p4636
g6
F0.9026
tp4637
a(S'on'
p4638
g17
F0.974
tp4639
a(S'which'
p4640
g14
F0.9946
tp4641
a(S'one'
p4642
g420
F0.9343
tp4643
a(S'of'
p4644
g17
F0.999
tp4645
a(S'your'
p4646
g14
F0.9961
tp4647
a(S'teachers'
p4648
g24
F0.9935
tp4649
a(S'you'
p4650
g6
F0.9949
tp4651
a(S'give'
p4652
g11
F0.9999
tp4653
a(S'it'
p4654
g6
F0.9892
tp4655
a(S'to'
p4656
g17
F0.9356
tp4657
asI422
(lp4658
(S'okay'
p4659
g62
F0.9857
tp4660
asI423
(lp4661
(g8
g6
F0.953
tp4662
a(g894
g11
F0.9438
tp4663
a(S'sup'
p4664
g11
F0.6919
tp4665
a(S'posed'
p4666
g11
F0.9141
tp4667
a(S'to'
p4668
g17
F0.9891
tp4669
a(S'give'
p4670
g11
F0.9978
tp4671
asI424
(lp4672
(g8
g6
F0.9908
tp4673
a(S'know'
p4674
g11
F0.9996
tp4675
a(S'there'
p4676
g3
F0.6955
tp4677
a(g81
g88
F0.5701
tp4678
a(g588
g14
F0.9894
tp4679
a(S'couple'
p4680
g24
F0.9919
tp4681
a(S'of'
p4682
g17
F0.9987
tp4683
a(S'them'
p4684
g6
F0.9146
tp4685
a(S'xxx'
p4686
g76
F0.5204
tp4687
a(g8
g6
F0.9689
tp4688
a(S'll'
p4689
g11
F0.7365
tp4690
a(S'show'
p4691
g11
F0.9498
tp4692
a(S'it'
p4693
g6
F0.9779
tp4694
a(S'to'
p4695
g17
F0.9881
tp4696
a(S'them'
p4697
g6
F0.9516
tp4698
asI425
(lp4699
(S'mommy'
p4700
g24
F0.5271
tp4701
asI426
(lp4702
(S'uh'
p4703
g62
F0.9927
tp4704
asI427
(lp4705
(S'that'
p4706
g6
F0.4727
tp4707
a(g81
g11
F0.8579
tp4708
a(S'it'
p4709
g6
F0.9919
tp4710
asI428
(lp4711
(S'um'
p4712
g62
F0.9584
tp4713
a(g8
g6
F0.973
tp4714
a(g894
g11
F0.9838
tp4715
a(S'going'
p4716
g11
F0.9973
tp4717
a(S'to'
p4718
g17
F0.9916
tp4719
a(S'get'
p4720
g11
F0.9999
tp4721
a(S'the'
p4722
g14
F0.9679
tp4723
a(S'like'
p4724
g17
F0.335
tp4725
a(S'to'
p4726
g17
F0.996
tp4727
a(S'my'
p4728
g14
F0.9967
tp4729
a(S'teacher'
p4730
g24
F0.996
tp4731
a(S'miss'
p4732
g11
F0.845
tp4733
a(S'moore'
p4734
g316
F0.8452
tp4735
asI429
(lp4736
(S'yeah'
p4737
g62
F0.9968
tp4738
a(g8
g6
F0.9761
tp4739
a(S've'
p4740
g11
F0.8746
tp4741
a(S'heard'
p4742
g11
F0.9987
tp4743
a(g588
g14
F0.9965
tp4744
a(S'lot'
p4745
g24
F0.9842
tp4746
a(S'of'
p4747
g17
F0.9858
tp4748
a(S'good'
p4749
g173
F0.9944
tp4750
a(S'things'
p4751
g24
F0.9993
tp4752
a(S'from'
p4753
g17
F0.9995
tp4754
a(S'miss'
p4755
g316
F0.4103
tp4756
a(S'moore'
p4757
g316
F0.974
tp4758
a(S'about'
p4759
g17
F0.9847
tp4760
a(S'you'
p4761
g6
F0.9996
tp4762
asI430
(lp4763
(S'and'
p4764
g147
F0.9989
tp4765
a(S'you'
p4766
g6
F0.9992
tp4767
a(S'tell'
p4768
g11
F0.9998
tp4769
a(S'me'
p4770
g6
F0.9979
tp4771
a(g588
g14
F0.987
tp4772
a(S'lot'
p4773
g24
F0.9842
tp4774
a(S'of'
p4775
g17
F0.9858
tp4776
a(S'good'
p4777
g173
F0.9944
tp4778
a(S'things'
p4779
g24
F0.9973
tp4780
a(S'about'
p4781
g17
F0.9936
tp4782
a(S'miss'
p4783
g11
F0.5428
tp4784
a(S'moore'
p4785
g316
F0.841
tp4786
asI431
(lp4787
(S'the'
p4788
g14
F0.999
tp4789
a(S'other'
p4790
g173
F0.9958
tp4791
a(S'ones'
p4792
g24
F0.9572
tp4793
a(S'keep'
p4794
g11
F0.9832
tp4795
a(S'picking'
p4796
g11
F0.9913
tp4797
a(S'on'
p4798
g17
F0.9666
tp4799
a(S'you'
p4800
g6
F0.9992
tp4801
a(S'sometimes'
p4802
g3
F0.9871
tp4803
a(S'though'
p4804
g17
F0.6232
tp4805
asI432
(lp4806
(S'mommy'
p4807
g24
F0.5271
tp4808
asI433
(lp4809
(S'whose'
p4810
S'L'
p4811
F0.6409
tp4812
a(S'teacher'
p4813
g24
F0.9689
tp4814
a(S'is'
p4815
g11
F0.9964
tp4816
a(S'miss'
p4817
g11
F0.6261
tp4818
a(S'redding'
p4819
g11
F0.5347
tp4820
asI434
(lp4821
(S'whose'
p4822
g4811
F0.6409
tp4823
a(S'teacher'
p4824
g24
F0.9689
tp4825
a(S'is'
p4826
g11
F0.9964
tp4827
a(S'miss'
p4828
g11
F0.6261
tp4829
a(S'redding'
p4830
g11
F0.5347
tp4831
asI435
(lp4832
(S'do'
p4833
g11
F0.9985
tp4834
a(S'you'
p4835
g6
F0.9992
tp4836
a(S'sit'
p4837
g11
F0.9976
tp4838
a(S'at'
p4839
g17
F0.9822
tp4840
a(S'miss'
p4841
g316
F0.537
tp4842
a(S'redding'
p4843
g316
F0.9628
tp4844
a(g81
g316
F0.4061
tp4845
a(S'table'
p4846
g24
F0.792
tp4847
asI436
(lp4848
(S'no'
p4849
g62
F0.8403
tp4850
a(S'she'
p4851
g6
F0.9692
tp4852
a(S'she'
p4853
g6
F0.9891
tp4854
a(S'wouldn'
p4855
g11
F0.963
tp4856
a(g758
g11
F0.8049
tp4857
a(S'last'
p4858
g173
F0.9932
tp4859
a(S'week'
p4860
g24
F0.9974
tp4861
asI437
(lp4862
(S'she'
p4863
g6
F0.9969
tp4864
a(S'took'
p4865
g11
F0.9998
tp4866
a(S'the'
p4867
g14
F0.9956
tp4868
a(S'home'
p4869
g24
F0.9966
tp4870
a(S'xxx'
p4871
g76
F0.7932
tp4872
asI438
(lp4873
(S'she'
p4874
g6
F0.9953
tp4875
a(S'at'
p4876
g17
F0.9865
tp4877
a(S'home'
p4878
g24
F0.9657
tp4879
asI439
(lp4880
(S'yep'
p4881
g62
F0.9918
tp4882
a(S'she'
p4883
g6
F0.9961
tp4884
a(S'didn'
p4885
g11
F0.9699
tp4886
a(g758
g11
F0.7537
tp4887
a(S'want'
p4888
g11
F0.9966
tp4889
a(S'to'
p4890
g17
F0.9944
tp4891
a(S'come'
p4892
g11
F0.9995
tp4893
a(S'back'
p4894
g3
F0.8503
tp4895
asI440
(lp4896
(S'laughs'
p4897
g11
F0.9102
tp4898
asI441
(lp4899
(S'ahhah'
p4900
g62
F0.9984
tp4901
asI442
(lp4902
(S'laughs'
p4903
g11
F0.9102
tp4904
asI443
(lp4905
(S'yeah'
p4906
g62
F0.9968
tp4907
a(g8
g6
F0.9964
tp4908
a(S'told'
p4909
g11
F1.0
tp4910
a(S'ya'
p4911
g6
F0.6406
tp4912
asI444
(lp4913
(g8
g6
F0.9894
tp4914
a(S'knew'
p4915
g11
F0.9998
tp4916
a(S'that'
p4917
g14
F0.6241
tp4918
a(S'cheese'
p4919
g24
F0.9913
tp4920
a(S'toast'
p4921
g24
F0.998
tp4922
a(S'was'
p4923
g11
F0.989
tp4924
a(S'going'
p4925
g11
F0.994
tp4926
a(S'to'
p4927
g17
F0.9826
tp4928
a(S'start'
p4929
g11
F0.9983
tp4930
a(S'looking'
p4931
g11
F0.9887
tp4932
a(S'good'
p4933
g173
F0.9888
tp4934
asI445
(lp4935
(S'laughs'
p4936
g11
F0.9102
tp4937
asI446
(lp4938
(S'do'
p4939
g11
F0.9985
tp4940
a(S'you'
p4941
g6
F0.9996
tp4942
a(S'want'
p4943
g11
F0.9999
tp4944
a(g588
g14
F0.9972
tp4945
a(S'piece'
p4946
g24
F0.9958
tp4947
asI447
(lp4948
(S'yes'
p4949
g62
F0.9958
tp4950
asI448
(lp4951
(S'yeah'
p4952
g62
F0.9906
tp4953
a(S'now'
p4954
g3
F0.9741
tp4955
a(S'xxx'
p4956
g76
F0.6976
tp4957
a(S'what'
p4958
g6
F0.9762
tp4959
a(S'if'
p4960
g17
F0.9871
tp4961
a(g8
g6
F0.9822
tp4962
a(g1164
g11
F0.6983
tp4963
a(S'just'
p4964
g3
F0.999
tp4965
a(S'made'
p4966
g11
F0.9989
tp4967
a(S'that'
p4968
g14
F0.6463
tp4969
a(S'one'
p4970
g420
F0.8705
tp4971
a(S'toast'
p4972
g24
F0.9972
tp4973
asI449
(lp4974
(S'then'
p4975
g3
F0.9662
tp4976
a(S'you'
p4977
g6
F0.9969
tp4978
a(g1164
g11
F0.5828
tp4979
a(S'been'
p4980
g11
F0.9666
tp4981
a(S'awfully'
p4982
g3
F0.9993
tp4983
a(S'upset'
p4984
g173
F0.9051
tp4985
a(S'be'
p4986
g11
F0.8861
tp4987
a(S'cause'
p4988
g17
F0.9033
tp4989
a(S'me'
p4990
g6
F0.999
tp4991
a(S'and'
p4992
g147
F0.9911
tp4993
a(S'sis'
p4994
g24
F0.9538
tp4995
a(S'would'
p4996
g11
F0.999
tp4997
a(g588
g14
F0.8602
tp4998
a(S'ate'
p4999
g11
F0.7714
tp5000
a(S'up'
p5001
g152
F0.9504
tp5002
a(S'all'
p5003
g14
F0.8898
tp5004
a(S'of'
p5005
g17
F0.9941
tp5006
a(S'them'
p5007
g6
F0.937
tp5008
a(S'all'
p5009
g14
F0.7173
tp5010
a(S'by'
p5011
g17
F0.9965
tp5012
a(S'ourselves'
p5013
g6
F0.9701
tp5014
asI450
(lp5015
(S'huh'
p5016
g62
F0.9667
tp5017
a(S'sis'
p5018
g24
F0.864
tp5019
asI451
(lp5020
(S'say'
p5021
g11
F0.8211
tp5022
a(g8
g6
F0.988
tp5023
a(S'like'
p5024
g11
F0.7277
tp5025
a(S'the'
p5026
g14
F0.9988
tp5027
a(S'cheese'
p5028
g24
F0.9918
tp5029
a(S'toast'
p5030
g24
F0.9989
tp5031
a(g8
g6
F0.9385
tp5032
a(S'mean'
p5033
g11
F0.9855
tp5034
a(g8
g6
F0.9876
tp5035
a(S'like'
p5036
g11
F0.653
tp5037
a(S'the'
p5038
g14
F0.9987
tp5039
a(S'garlic'
p5040
g24
F0.9904
tp5041
a(S'toast'
p5042
g24
F0.9976
tp5043
a(S'huh'
p5044
g62
F0.9035
tp5045
asI452
(lp5046
(S'yeah'
p5047
g62
F0.9988
tp5048
asI453
(lp5049
(S'she'
p5050
g6
F0.9972
tp5051
a(S'likes'
p5052
g11
F0.9995
tp5053
a(S'to'
p5054
g17
F0.987
tp5055
a(S'rub'
p5056
g11
F0.9992
tp5057
a(S'it'
p5058
g6
F0.991
tp5059
a(S'up'
p5060
g152
F0.9677
tp5061
a(S'against'
p5062
g17
F0.9984
tp5063
a(S'her'
p5064
g14
F0.9804
tp5065
a(S'gums'
p5066
g24
F0.9971
tp5067
a(S'because'
p5068
g17
F0.9998
tp5069
a(S'it'
p5070
g6
F0.9984
tp5071
a(g81
g11
F0.5619
tp5072
a(S'nice'
p5073
g173
F0.9955
tp5074
a(S'and'
p5075
g147
F0.9981
tp5076
a(S'chewy'
p5077
g173
F0.5407
tp5078
asI454
(lp5079
(g8
g6
F0.9563
tp5080
a(S'xxx'
p5081
g76
F0.605
tp5082
asI455
(lp5083
(S'mommy'
p5084
g24
F0.5271
tp5085
asI456
(lp5086
(g8
g6
F0.9891
tp5087
a(S'started'
p5088
g11
F0.9996
tp5089
a(S'to'
p5090
g17
F0.977
tp5091
a(S'wanting'
p5092
g11
F0.9999
tp5093
a(S'to'
p5094
g17
F0.996
tp5095
a(S'use'
p5096
g11
F0.9958
tp5097
a(S'the'
p5098
g14
F0.9973
tp5099
a(S'rolls'
p5100
g24
F0.9463
tp5101
a(S'instead'
p5102
g3
F0.9078
tp5103
a(S'of'
p5104
g17
F0.9993
tp5105
a(S'the'
p5106
g14
F0.9996
tp5107
a(S'regular'
p5108
g173
F0.9611
tp5109
a(S'bread'
p5110
g24
F0.999
tp5111
a(S'be'
p5112
g11
F0.971
tp5113
a(S'cause'
p5114
g17
F0.9046
tp5115
a(S'see'
p5116
g11
F0.9858
tp5117
a(S'this'
p5118
g14
F0.7184
tp5119
a(S'the'
p5120
g14
F0.9912
tp5121
a(S'roll'
p5122
g24
F0.9861
tp5123
a(S'is'
p5124
g11
F0.9969
tp5125
a(S'chewier'
p5126
g173
F0.2245
tp5127
asI457
(lp5128
(S'mommy'
p5129
g24
F0.5271
tp5130
asI458
(lp5131
(S'uh'
p5132
g62
F0.9927
tp5133
asI459
(lp5134
(S'the'
p5135
g14
F0.9981
tp5136
a(S'cheese'
p5137
g24
F0.9959
tp5138
a(S'is'
p5139
g11
F0.9933
tp5140
a(S'just'
p5141
g3
F0.9991
tp5142
a(S'um'
p5143
g62
F0.6449
tp5144
a(g8
g6
F0.9703
tp5145
a(g8
g6
F0.9315
tp5146
a(S'xxx'
p5147
g11
F0.8405
tp5148
a(g588
g14
F0.9525
tp5149
a(S'xxx'
p5150
g24
F0.6739
tp5151
a(S'to'
p5152
g17
F0.9983
tp5153
a(S'my'
p5154
g14
F0.9047
tp5155
a(S'xxx'
p5156
g24
F0.7067
tp5157
a(S'means'
p5158
g11
F0.997
tp5159
a(g588
g14
F0.9969
tp5160
a(S'big'
p5161
g173
F0.9963
tp5162
a(S'one'
p5163
g420
F0.9435
tp5164
a(S'xxx'
p5165
g76
F0.5141
tp5166
a(S'like'
p5167
g17
F0.8654
tp5168
a(S'you'
p5169
g6
F0.9998
tp5170
a(S'have'
p5171
g11
F0.9981
tp5172
asI460
(lp5173
(S'you'
p5174
g6
F0.9813
tp5175
a(S've'
p5176
g11
F0.8008
tp5177
a(S'got'
p5178
g11
F0.9966
tp5179
a(S'to'
p5180
g17
F0.9394
tp5181
a(S'brush'
p5182
g11
F0.992
tp5183
a(S'your'
p5184
g14
F0.9949
tp5185
a(S'teeth'
p5186
g24
F0.9997
tp5187
a(S'after'
p5188
g17
F0.9985
tp5189
a(S'you'
p5190
g6
F0.9999
tp5191
a(S'finish'
p5192
g11
F0.9997
tp5193
a(S'this'
p5194
g6
F0.5676
tp5195
asI461
(lp5196
(S'huh'
p5197
g62
F0.9428
tp5198
a(S'boo'
p5199
g62
F0.6585
tp5200
asI462
(lp5201
(S'yeah'
p5202
g62
F0.9963
tp5203
a(S'we'
p5204
g6
F0.9958
tp5205
a(S've'
p5206
g11
F0.8271
tp5207
a(S'got'
p5208
g11
F0.9963
tp5209
a(S'to'
p5210
g17
F0.9781
tp5211
a(S'get'
p5212
g11
F1.0
tp5213
a(S'you'
p5214
g6
F0.9979
tp5215
a(g588
g14
F0.9962
tp5216
a(S'little'
p5217
g173
F0.9971
tp5218
a(S'toothbrush'
p5219
g24
F0.9943
tp5220
a(S'you'
p5221
g6
F0.9965
tp5222
a(S'got'
p5223
g11
F0.9979
tp5224
a(S'four'
p5225
g420
F0.5046
tp5226
a(S'teeth'
p5227
g24
F0.9952
tp5228
a(S'hanging'
p5229
g11
F0.9978
tp5230
a(S'in'
p5231
g17
F0.9064
tp5232
a(S'there'
p5233
g3
F0.6799
tp5234
asI463
(lp5235
(S'hm'
p5236
g62
F0.995
tp5237
asI464
(lp5238
(S'she'
p5239
g6
F0.9945
tp5240
a(S'just'
p5241
g3
F0.9996
tp5242
a(S'had'
p5243
g11
F0.9951
tp5244
a(S'one'
p5245
g420
F0.8221
tp5246
asI465
(lp5247
(g8
g6
F0.9908
tp5248
a(S'know'
p5249
g11
F0.9998
tp5250
a(S'we'
p5251
g6
F0.9984
tp5252
a(S'have'
p5253
g11
F0.9996
tp5254
a(S'to'
p5255
g17
F0.998
tp5256
a(S'get'
p5257
g11
F1.0
tp5258
a(S'her'
p5259
g6
F0.7276
tp5260
a(g588
g14
F0.9949
tp5261
a(S'baby'
p5262
g24
F0.9639
tp5263
a(S'one'
p5264
g420
F0.8914
tp5265
asI466
(lp5266
(g588
g14
F0.9956
tp5267
a(S'little'
p5268
g173
F0.9843
tp5269
a(S'little'
p5270
g173
F0.9606
tp5271
a(S'tiny'
p5272
g173
F0.9837
tp5273
a(S'one'
p5274
g420
F0.86
tp5275
asI467
(lp5276
(S'mommy'
p5277
g24
F0.579
tp5278
a(S'sis'
p5279
g24
F0.9693
tp5280
a(S'could'
p5281
g11
F0.9969
tp5282
a(S'use'
p5283
g11
F0.9437
tp5284
a(S'mine'
p5285
g6
F0.9812
tp5286
asI468
(lp5287
(S'yeah'
p5288
g62
F0.9968
tp5289
a(g8
g6
F0.9963
tp5290
a(S'know'
p5291
g11
F0.9993
tp5292
a(S'but'
p5293
g147
F0.9882
tp5294
a(S'it'
p5295
g6
F0.9971
tp5296
a(g81
g11
F0.5675
tp5297
a(S'not'
p5298
g3
F0.9994
tp5299
a(S'nice'
p5300
g173
F0.9885
tp5301
a(S'to'
p5302
g17
F0.9988
tp5303
a(S'use'
p5304
g11
F0.9891
tp5305
a(S'somebody'
p5306
g24
F0.9586
tp5307
a(S'else'
p5308
g3
F0.9546
tp5309
a(g81
g88
F0.6419
tp5310
a(S'toothbrush'
p5311
g24
F0.9834
tp5312
a(S'be'
p5313
g11
F0.9877
tp5314
a(S'cause'
p5315
g17
F0.81
tp5316
a(S'everybody'
p5317
g24
F0.8368
tp5318
a(S'has'
p5319
g11
F0.9919
tp5320
a(S'different'
p5321
g173
F0.9965
tp5322
a(S'germs'
p5323
g24
F0.9948
tp5324
a(S'in'
p5325
g17
F0.9982
tp5326
a(S'their'
p5327
g14
F0.9972
tp5328
a(S'mouth'
p5329
g24
F0.9998
tp5330
asI469
(lp5331
(S'oh'
p5332
g62
F0.9988
tp5333
asI470
(lp5334
(S'see'
p5335
g11
F0.9695
tp5336
a(S'if'
p5337
g17
F0.9991
tp5338
a(S'you'
p5339
g6
F0.9998
tp5340
a(S'have'
p5341
g11
F0.9998
tp5342
a(g588
g14
F0.9976
tp5343
a(S'cold'
p5344
g173
F0.9985
tp5345
a(S'bug'
p5346
g24
F0.9876
tp5347
a(S'right'
p5348
g173
F0.3615
tp5349
asI471
(lp5350
(S'and'
p5351
g147
F0.9989
tp5352
a(S'you'
p5353
g6
F0.9976
tp5354
a(S'brush'
p5355
g11
F0.9947
tp5356
a(S'your'
p5357
g14
F0.9949
tp5358
a(S'teeth'
p5359
g24
F0.999
tp5360
a(S'and'
p5361
g147
F0.9929
tp5362
a(S'you'
p5363
g6
F0.9993
tp5364
a(S'get'
p5365
g11
F0.9999
tp5366
a(S'the'
p5367
g14
F0.9992
tp5368
a(S'cold'
p5369
g173
F0.9976
tp5370
a(S'germs'
p5371
g24
F0.9962
tp5372
a(S'on'
p5373
g17
F0.9983
tp5374
a(S'it'
p5375
g6
F0.9985
tp5376
a(S'and'
p5377
g147
F0.996
tp5378
a(S'all'
p5379
g14
F0.5702
tp5380
a(S'the'
p5381
g14
F0.9996
tp5382
a(S'different'
p5383
g173
F0.9868
tp5384
a(S'food'
p5385
g24
F0.9956
tp5386
a(S'and'
p5387
g147
F0.998
tp5388
a(S'stuff'
p5389
g24
F0.8929
tp5390
a(S'out'
p5391
g17
F0.9746
tp5392
a(S'of'
p5393
g17
F0.9974
tp5394
a(S'your'
p5395
g14
F0.997
tp5396
a(S'teeth'
p5397
g24
F0.9994
tp5398
a(S'on'
p5399
g17
F0.9988
tp5400
a(S'that'
p5401
g14
F0.8647
tp5402
a(S'toothbrush'
p5403
g24
F0.996
tp5404
a(S'and'
p5405
g147
F0.9984
tp5406
a(S'sis'
p5407
g24
F0.9785
tp5408
a(S'get'
p5409
g11
F0.9988
tp5410
a(S'all'
p5411
g14
F0.6871
tp5412
a(S'that'
p5413
g14
F0.9356
tp5414
a(S'stuff'
p5415
g24
F0.9851
tp5416
a(S'all'
p5417
g1179
F0.6255
tp5418
a(S'the'
p5419
g14
F0.9998
tp5420
a(S'germs'
p5421
g24
F0.9932
tp5422
a(S'off'
p5423
g17
F0.5081
tp5424
a(S'after'
p5425
g17
F0.9752
tp5426
a(S'she'
p5427
g6
F0.9997
tp5428
a(S'uses'
p5429
g11
F0.9993
tp5430
a(S'your'
p5431
g14
F0.9955
tp5432
a(S'toothbrush'
p5433
g24
F0.9988
tp5434
asI472
(lp5435
(S'and'
p5436
g147
F0.999
tp5437
a(g8
g6
F0.994
tp5438
a(S'mean'
p5439
g11
F0.9955
tp5440
a(S'even'
p5441
g3
F0.9965
tp5442
a(S'though'
p5443
g17
F0.9678
tp5444
a(S'you'
p5445
g6
F0.9969
tp5446
a(S'rinse'
p5447
g11
F0.9959
tp5448
a(S'it'
p5449
g6
F0.9909
tp5450
a(S'out'
p5451
g152
F0.5675
tp5452
a(S'you'
p5453
g6
F0.9994
tp5454
a(S'might'
p5455
g11
F0.9988
tp5456
a(S'not'
p5457
g3
F0.9865
tp5458
a(S'that'
p5459
g14
F0.367
tp5460
a(S'good'
p5461
g173
F0.9816
tp5462
a(S'and'
p5463
g147
F0.9976
tp5464
a(S'so'
p5465
g3
F0.9462
tp5466
a(S'on'
p5467
g17
F0.8232
tp5468
a(S'and'
p5469
g147
F0.9977
tp5470
a(S'so'
p5471
g3
F0.9462
tp5472
a(S'on'
p5473
g17
F0.8232
tp5474
a(S'and'
p5475
g147
F0.9977
tp5476
a(S'so'
p5477
g3
F0.9353
tp5478
a(S'on'
p5479
g17
F0.9015
tp5480
asI473
(lp5481
(S'not'
p5482
g3
F0.9771
tp5483
a(g588
g14
F0.983
tp5484
a(S'good'
p5485
g173
F0.9983
tp5486
a(S'idea'
p5487
g24
F0.9853
tp5488
a(S'to'
p5489
g17
F0.9992
tp5490
a(S'share'
p5491
g11
F0.9937
tp5492
a(S'somebody'
p5493
g24
F0.9745
tp5494
a(S'else'
p5495
g3
F0.9593
tp5496
a(g81
g88
F0.6527
tp5497
a(S'toothbrush'
p5498
g24
F0.9616
tp5499
asI474
(lp5500
(g8
g6
F0.989
tp5501
a(S'used'
p5502
g11
F0.9974
tp5503
a(S'it'
p5504
g6
F0.9766
tp5505
asI475
(lp5506
(S'yeah'
p5507
g62
F0.9949
tp5508
a(S'just'
p5509
g3
F0.9985
tp5510
a(S'you'
p5511
g6
F0.9974
tp5512
a(S'by'
p5513
g17
F0.9858
tp5514
a(S'yourself'
p5515
g6
F0.9937
tp5516
a(S'that'
p5517
g17
F0.6175
tp5518
a(g81
g88
F0.5567
tp5519
a(S'how'
p5520
g3
F0.9822
tp5521
a(S'come'
p5522
g11
F0.9967
tp5523
a(S'we'
p5524
g6
F0.9973
tp5525
a(S'buy'
p5526
g11
F0.9995
tp5527
a(S'you'
p5528
g6
F0.9963
tp5529
a(g588
g14
F0.9973
tp5530
a(S'toothbrush'
p5531
g24
F0.9969
tp5532
a(S'xxx'
p5533
g76
F0.443
tp5534
a(S'by'
p5535
g17
F0.9968
tp5536
a(S'yourself'
p5537
g6
F0.9889
tp5538
asI476
(lp5539
(S'what'
p5540
g6
F0.9784
tp5541
a(g81
g11
F0.7653
tp5542
a(S'up'
p5543
g152
F0.9488
tp5544
a(S'there'
p5545
g14
F0.5881
tp5546
a(S'gal'
p5547
g24
F0.9842
tp5548
asI477
(lp5549
(S'hum'
p5550
g62
F0.7014
tp5551
asI478
(lp5552
(S'what'
p5553
g6
F0.9784
tp5554
a(g81
g11
F0.7653
tp5555
a(S'up'
p5556
g152
F0.9488
tp5557
a(S'there'
p5558
g14
F0.5547
tp5559
a(S'lady'
p5560
g24
F0.9882
tp5561
asI479
(lp5562
(S'laughs'
p5563
g11
F0.9102
tp5564
asI480
(lp5565
(S'okay'
p5566
g62
F0.9857
tp5567
asI481
(lp5568
(S'you'
p5569
g6
F0.9979
tp5570
a(S'looking'
p5571
g11
F0.9977
tp5572
a(S'at'
p5573
g17
F0.9977
tp5574
a(S'your'
p5575
g14
F0.9966
tp5576
a(S'sister'
p5577
g24
F0.9989
tp5578
asI482
(lp5579
(g8
g6
F0.9586
tp5580
a(g894
g11
F0.9845
tp5581
a(S'gone'
p5582
g11
F0.8109
tp5583
asI483
(lp5584
(S'she'
p5585
g6
F0.9917
tp5586
a(g81
g11
F0.6336
tp5587
a(S'hiding'
p5588
g11
F0.9999
tp5589
a(S'out'
p5590
g152
F0.9088
tp5591
a(S'from'
p5592
g17
F0.9995
tp5593
a(S'you'
p5594
g6
F0.9985
tp5595
a(S'huh'
p5596
g62
F0.8389
tp5597
asI484
(lp5598
(S'say'
p5599
g11
F0.9389
tp5600
a(S'where'
p5601
g3
F0.9653
tp5602
a(S'she'
p5603
g6
F0.9979
tp5604
a(S'go'
p5605
g11
F0.9885
tp5606
asI485
(lp5607
(S'where'
p5608
g3
F0.9663
tp5609
a(S'she'
p5610
g6
F0.9988
tp5611
a(S'say'
p5612
g11
F0.9814
tp5613
a(g8
g6
F0.9927
tp5614
a(S'hear'
p5615
g11
F0.9973
tp5616
a(S'something'
p5617
g24
F0.9866
tp5618
a(S'but'
p5619
g147
F0.9875
tp5620
a(g8
g6
F0.9949
tp5621
a(S'can'
p5622
g11
F0.9996
tp5623
a(g758
g11
F0.8204
tp5624
a(S'see'
p5625
g11
F0.9953
tp5626
a(S'it'
p5627
g6
F0.9078
tp5628
asI486
(lp5629
(S'oh'
p5630
g62
F0.9878
tp5631
a(S'you'
p5632
g6
F0.9937
tp5633
a(S'see'
p5634
g11
F0.9997
tp5635
a(S'her'
p5636
g14
F0.8462
tp5637
a(S'huh'
p5638
g24
F0.4987
tp5639
a(S'laughs'
p5640
g11
F0.9458
tp5641
a(S'say'
p5642
g11
F0.8446
tp5643
a(g8
g6
F0.9937
tp5644
a(S'see'
p5645
g11
F0.9998
tp5646
a(S'her'
p5647
g14
F0.8471
tp5648
a(S'yeah'
p5649
g62
F0.8914
tp5650
asI487
(lp5651
(S'yeah'
p5652
g62
F0.9988
tp5653
asI488
(lp5654
(S'laughs'
p5655
g11
F0.9102
tp5656
asI489
(lp5657
(S'come'
p5658
g11
F0.9897
tp5659
a(S'on'
p5660
g17
F0.8114
tp5661
a(S'over'
p5662
g17
F0.6329
tp5663
a(S'here'
p5664
g3
F0.969
tp5665
a(S'boo'
p5666
g24
F0.5603
tp5667
a(S'and'
p5668
g147
F0.9961
tp5669
a(S'finish'
p5670
g11
F0.9709
tp5671
a(S'eating'
p5672
g11
F0.9992
tp5673
a(S'your'
p5674
g14
F0.9897
tp5675
a(S'dinner'
p5676
g24
F0.9951
tp5677
asI490
(lp5678
(S'come'
p5679
g11
F0.9897
tp5680
a(S'on'
p5681
g17
F0.8348
tp5682
a(S'up'
p5683
g152
F0.5109
tp5684
a(S'here'
p5685
g3
F0.9935
tp5686
a(S'and'
p5687
g147
F0.9959
tp5688
a(S'get'
p5689
g11
F0.9975
tp5690
a(S'on'
p5691
g17
F0.8484
tp5692
a(S'up'
p5693
g152
F0.5134
tp5694
a(S'off'
p5695
g17
F0.6027
tp5696
a(S'that'
p5697
g14
F0.8966
tp5698
a(S'floor'
p5699
g24
F0.9957
tp5700
asI491
(lp5701
(S'come'
p5702
g11
F0.9849
tp5703
a(S'on'
p5704
g152
F0.5632
tp5705
asI492
(lp5706
(S'coughs'
p5707
g24
F0.5349
tp5708
asI493
(lp5709
(S'she'
p5710
g6
F0.9962
tp5711
a(S'came'
p5712
g11
F0.9974
tp5713
a(S'to'
p5714
g17
F0.9812
tp5715
a(S'get'
p5716
g11
F0.9999
tp5717
a(S'your'
p5718
g14
F0.9944
tp5719
a(S'bottle'
p5720
g24
F0.9962
tp5721
asI494
(lp5722
(S'you'
p5723
g6
F0.9923
tp5724
a(S'like'
p5725
g11
F0.806
tp5726
a(S'your'
p5727
g14
F0.983
tp5728
a(S'sister'
p5729
g24
F0.9993
tp5730
asI495
(lp5731
(S'say'
p5732
g11
F0.8211
tp5733
a(g8
g6
F0.9938
tp5734
a(S'love'
p5735
g11
F0.9994
tp5736
a(S'my'
p5737
g14
F0.9943
tp5738
a(S'sister'
p5739
g24
F0.9979
tp5740
asI496
(lp5741
(S'say'
p5742
g11
F0.8211
tp5743
a(g8
g6
F0.9879
tp5744
a(g894
g11
F0.9838
tp5745
a(S'going'
p5746
g11
F0.9973
tp5747
a(S'to'
p5748
g17
F0.9825
tp5749
a(S'try'
p5750
g11
F0.9937
tp5751
a(S'and'
p5752
g147
F0.9929
tp5753
a(S'keep'
p5754
g11
F0.9961
tp5755
a(S'up'
p5756
g152
F0.9818
tp5757
a(S'with'
p5758
g17
F0.9995
tp5759
a(S'my'
p5760
g14
F0.9987
tp5761
a(S'big'
p5762
g173
F0.9839
tp5763
a(S'sister'
p5764
g24
F0.9981
tp5765
asI497
(lp5766
(S'but'
p5767
g147
F0.9885
tp5768
a(S'until'
p5769
g17
F0.9987
tp5770
a(S'you'
p5771
g6
F0.9996
tp5772
a(S'keep'
p5773
g11
F0.9954
tp5774
a(S'on'
p5775
g17
F0.8748
tp5776
a(S'trying'
p5777
g11
F0.9769
tp5778
a(S'walking'
p5779
g11
F0.9963
tp5780
a(S'like'
p5781
g17
F0.9562
tp5782
a(S'you'
p5783
g6
F0.9998
tp5784
a(S'do'
p5785
g11
F0.9999
tp5786
a(S'you'
p5787
g6
F0.9996
tp5788
a(S'won'
p5789
g11
F0.978
tp5790
a(g758
g17
F0.304
tp5791
a(S'be'
p5792
g11
F0.9946
tp5793
a(S'able'
p5794
g173
F0.97
tp5795
a(S'to'
p5796
g17
F0.9914
tp5797
asI498
(lp5798
(S'you'
p5799
g6
F0.998
tp5800
a(S'ran'
p5801
g11
F0.9985
tp5802
a(S'right'
p5803
g3
F0.7703
tp5804
a(S'behind'
p5805
g17
F0.9979
tp5806
a(S'her'
p5807
g6
F0.6751
tp5808
asI499
(lp5809
(S'yes'
p5810
g62
F0.9958
tp5811
asI500
(lp5812
(S'here'
p5813
g3
F0.9346
tp5814
a(S'you'
p5815
g6
F0.9996
tp5816
a(S'go'
p5817
g11
F0.9972
tp5818
a(S'get'
p5819
g11
F0.9929
tp5820
a(S'some'
p5821
g14
F0.9884
tp5822
a(S'bread'
p5823
g24
F0.9947
tp5824
asI501
(lp5825
(S'you'
p5826
g6
F0.9819
tp5827
a(S'xxx'
p5828
g76
F0.4566
tp5829
asI502
(lp5830
(g1253
g420
F0.9859
tp5831
a(S'small'
p5832
g173
F0.9795
tp5833
a(S'high'
p5834
g24
F0.5437
tp5835
a(S'pitched'
p5836
g11
F0.7871
tp5837
a(S'scream'
p5838
g11
F0.9883
tp5839
asI503
(lp5840
(S'what'
p5841
g6
F0.9835
tp5842
a(S'are'
p5843
g11
F0.9976
tp5844
a(S'you'
p5845
g6
F0.9994
tp5846
a(S'doing'
p5847
g11
F0.9994
tp5848
asI504
(lp5849
(g8
g6
F0.9914
tp5850
a(S'was'
p5851
g11
F0.9998
tp5852
a(S'going'
p5853
g11
F0.9955
tp5854
a(S'to'
p5855
g17
F0.9553
tp5856
a(S'xxx'
p5857
g11
F0.9367
tp5858
a(S'you'
p5859
g6
F0.9981
tp5860
a(S'xxx'
p5861
g76
F0.5533
tp5862
asI505
(lp5863
(S'now'
p5864
g3
F0.9893
tp5865
a(S'look'
p5866
g11
F0.9511
tp5867
asI506
(lp5868
(S'uhhuh'
p5869
g62
F0.9293
tp5870
a(S'now'
p5871
g3
F0.9874
tp5872
a(S'put'
p5873
g11
F0.9963
tp5874
a(S'it'
p5875
g6
F0.9865
tp5876
a(S'down'
p5877
g152
F0.842
tp5878
asI507
(lp5879
(S'put'
p5880
g11
F0.9914
tp5881
a(S'it'
p5882
g6
F0.9886
tp5883
a(S'down'
p5884
g152
F0.5787
tp5885
a(S'and'
p5886
g147
F0.9965
tp5887
a(S'come'
p5888
g11
F0.9938
tp5889
a(S'eat'
p5890
g11
F0.9963
tp5891
a(S'your'
p5892
g14
F0.9947
tp5893
a(S'dinner'
p5894
g24
F0.9966
tp5895
asI508
(lp5896
(S'xxx'
p5897
g76
F0.8402
tp5898
a(S'what'
p5899
g6
F0.9954
tp5900
a(S'is'
p5901
g11
F0.9983
tp5902
a(S'wrong'
p5903
g173
F0.9776
tp5904
a(S'with'
p5905
g17
F0.9994
tp5906
a(S'it'
p5907
g6
F0.9973
tp5908
asI509
(lp5909
(S'yeah'
p5910
g62
F0.9988
tp5911
asI510
(lp5912
(S'vocalizing'
p5913
g62
F0.4009
tp5914
asI511
(lp5915
(S'come'
p5916
g11
F0.9865
tp5917
a(S'eat'
p5918
g11
F0.9971
tp5919
a(S'your'
p5920
g14
F0.9927
tp5921
a(S'dinner'
p5922
g24
F0.9975
tp5923
a(S'boo'
p5924
g24
F0.897
tp5925
asI512
(lp5926
(S'laughs'
p5927
g11
F0.9102
tp5928
asI513
(lp5929
(S'you'
p5930
g6
F0.9956
tp5931
a(S'play'
p5932
g11
F0.9959
tp5933
a(S'afterwards'
p5934
g3
F0.9313
tp5935
asI514
(lp5936
(S'you'
p5937
g6
F0.9754
tp5938
a(S're'
p5939
g11
F0.6572
tp5940
a(S'always'
p5941
g3
F0.997
tp5942
a(S'in'
p5943
g17
F0.979
tp5944
a(g588
g14
F0.9985
tp5945
a(S'playful'
p5946
g173
F0.9959
tp5947
a(S'mood'
p5948
g24
F0.9973
tp5949
asI515
(lp5950
(S'where'
p5951
g3
F0.9711
tp5952
a(g81
g88
F0.6962
tp5953
a(S'my'
p5954
g14
F0.824
tp5955
a(S'where'
p5956
g3
F0.9614
tp5957
a(g81
g88
F0.6567
tp5958
a(S'my'
p5959
g14
F0.8614
tp5960
asI516
(lp5961
(S'why'
p5962
g3
F0.9573
tp5963
a(S'you'
p5964
g6
F0.9993
tp5965
a(S'always'
p5966
g3
F0.9932
tp5967
a(S'in'
p5968
g17
F0.979
tp5969
a(g588
g14
F0.9985
tp5970
a(S'playful'
p5971
g173
F0.9959
tp5972
a(S'mood'
p5973
g24
F0.9973
tp5974
asI517
(lp5975
(S'where'
p5976
g3
F0.9711
tp5977
a(g81
g88
F0.7123
tp5978
a(S'my'
p5979
g14
F0.9926
tp5980
a(S'bread'
p5981
g24
F0.9991
tp5982
asI518
(lp5983
(S'what'
p5984
g6
F0.8318
tp5985
a(S'bread'
p5986
g24
F0.9966
tp5987
asI519
(lp5988
(S'my'
p5989
g14
F0.9932
tp5990
a(S'bread'
p5991
g24
F0.9984
tp5992
asI520
(lp5993
(g8
g6
F0.9891
tp5994
a(S'ate'
p5995
g11
F0.9999
tp5996
a(S'it'
p5997
g6
F0.9913
tp5998
a(S'and'
p5999
g147
F0.995
tp6000
a(S'then'
p6001
g3
F0.9686
tp6002
a(S'it'
p6003
g6
F0.9973
tp6004
a(S'felled'
p6005
g11
F0.9955
tp6006
a(S'n'
p6007
g147
F0.6546
tp6008
a(S'on'
p6009
g17
F0.9939
tp6010
a(S'the'
p6011
g14
F0.9993
tp6012
a(S'floor'
p6013
g24
F0.9955
tp6014
asI521
(lp6015
(S'you'
p6016
g6
F0.9971
tp6017
a(S'was'
p6018
g11
F0.9997
tp6019
a(S'eating'
p6020
g11
F0.9991
tp6021
a(S'it'
p6022
g6
F0.992
tp6023
a(S'then'
p6024
g3
F0.9344
tp6025
a(S'it'
p6026
g6
F0.996
tp6027
a(S'fell'
p6028
g11
F0.9889
tp6029
a(S'on'
p6030
g17
F0.977
tp6031
a(S'the'
p6032
g14
F0.9994
tp6033
a(S'floor'
p6034
g24
F0.9917
tp6035
asI522
(lp6036
(S'yes'
p6037
g62
F0.9958
tp6038
asI523
(lp6039
(S'well'
p6040
g62
F0.7734
tp6041
a(S'look'
p6042
g11
F0.9391
tp6043
a(S'on'
p6044
g17
F0.9862
tp6045
a(S'the'
p6046
g14
F0.9994
tp6047
a(S'floor'
p6048
g24
F0.994
tp6049
asI524
(lp6050
(g8
g6
F0.984
tp6051
a(S'already'
p6052
g3
F0.9931
tp6053
a(S'did'
p6054
g11
F0.9966
tp6055
asI525
(lp6056
(S'is'
p6057
g11
F0.9993
tp6058
a(S'it'
p6059
g6
F0.9991
tp6060
a(S'down'
p6061
g152
F0.7354
tp6062
a(S'there'
p6063
g3
F0.8035
tp6064
asI526
(lp6065
(S'no'
p6066
g62
F0.9253
tp6067
asI527
(lp6068
(S'it'
p6069
g6
F0.9888
tp6070
a(g81
g88
F0.4341
tp6071
a(g8
g6
F0.9853
tp6072
a(S'threw'
p6073
g11
F0.9999
tp6074
a(S'it'
p6075
g6
F0.9917
tp6076
a(S'in'
p6077
g17
F0.9789
tp6078
a(S'the'
p6079
g14
F0.9993
tp6080
a(S'garbage'
p6081
g24
F0.9944
tp6082
asI528
(lp6083
(S'oh'
p6084
g62
F0.9957
tp6085
a(S'well'
p6086
g62
F0.9872
tp6087
a(S'that'
p6088
g6
F0.8363
tp6089
a(g81
g11
F0.4237
tp6090
a(S'how'
p6091
g3
F0.9823
tp6092
a(S'come'
p6093
g11
F0.9993
tp6094
a(S'you'
p6095
g6
F0.9989
tp6096
a(S'don'
p6097
g11
F0.8626
tp6098
a(g758
g24
F0.2172
tp6099
a(S'have'
p6100
g11
F0.9991
tp6101
a(S'no'
p6102
g14
F0.9851
tp6103
a(S'bread'
p6104
g24
F0.9999
tp6105
asI529
(lp6106
(S'laughs'
p6107
g11
F0.9102
tp6108
asI530
(lp6109
(S'it'
p6110
g6
F0.9888
tp6111
a(g81
g11
F0.6711
tp6112
a(S'supposed'
p6113
g173
F0.802
tp6114
a(S'to'
p6115
g17
F0.9961
tp6116
a(S'go'
p6117
g11
F0.9993
tp6118
a(S'in'
p6119
g17
F0.9905
tp6120
a(S'the'
p6121
g14
F0.9993
tp6122
a(S'garbage'
p6123
g24
F0.9944
tp6124
asI531
(lp6125
(S'come'
p6126
g11
F0.9844
tp6127
a(S'sit'
p6128
g11
F0.9968
tp6129
a(S'down'
p6130
g152
F0.8371
tp6131
a(S'and'
p6132
g147
F0.9957
tp6133
a(S'eat'
p6134
g11
F0.9821
tp6135
asI532
(lp6136
(S'mama'
p6137
g24
F0.7716
tp6138
asI533
(lp6139
(S'chi'
p6140
g62
F0.4684
tp6141
asI534
(lp6142
(S'uh'
p6143
g62
F0.9878
tp6144
a(S'huh'
p6145
g62
F0.9956
tp6146
asI535
(lp6147
(S'you'
p6148
g6
F0.9754
tp6149
a(S're'
p6150
g11
F0.7708
tp6151
a(S'going'
p6152
g11
F0.9981
tp6153
a(S'to'
p6154
g17
F0.9713
tp6155
a(S'be'
p6156
g11
F0.9999
tp6157
a(S'up'
p6158
g152
F0.7382
tp6159
a(S'here'
p6160
g3
F0.9973
tp6161
a(S'late'
p6162
g173
F0.8213
tp6163
a(S'un'
p6164
g24
F0.661
tp6165
a(S'til'
p6166
g17
F0.8665
tp6167
a(S'in'
p6168
g17
F0.9895
tp6169
a(S'the'
p6170
g14
F0.9995
tp6171
a(S'night'
p6172
g24
F0.9948
tp6173
a(S'cleaning'
p6174
g11
F0.9967
tp6175
a(S'up'
p6176
g152
F0.9603
tp6177
a(S'that'
p6178
g14
F0.7478
tp6179
a(S'room'
p6180
g24
F0.9912
tp6181
asI536
(lp6182
(S'my'
p6183
g14
F0.9975
tp6184
a(S'advice'
p6185
g24
F0.9994
tp6186
a(S'is'
p6187
g11
F0.9996
tp6188
a(S'to'
p6189
g17
F0.9848
tp6190
a(S'eat'
p6191
g11
F0.9962
tp6192
a(S'first'
p6193
g173
F0.7033
tp6194
asI537
(lp6195
(S'so'
p6196
g17
F0.8338
tp6197
a(S'you'
p6198
g6
F0.9996
tp6199
a(S'can'
p6200
g11
F0.9996
tp6201
a(S'get'
p6202
g11
F0.9998
tp6203
a(S'in'
p6204
g17
F0.8971
tp6205
a(S'there'
p6206
g3
F0.8695
tp6207
a(S'and'
p6208
g147
F0.9971
tp6209
a(S'pick'
p6210
g11
F0.9973
tp6211
a(S'up'
p6212
g152
F0.9661
tp6213
a(S'all'
p6214
g14
F0.7624
tp6215
a(S'them'
p6216
g14
F0.9515
tp6217
a(S'toys'
p6218
g24
F0.9921
tp6219
a(S'and'
p6220
g147
F0.9975
tp6221
a(S'all'
p6222
g14
F0.6137
tp6223
a(S'those'
p6224
g14
F0.9769
tp6225
a(S'different'
p6226
g173
F0.9961
tp6227
a(S'blankets'
p6228
g24
F0.9763
tp6229
a(S'every'
p6230
g14
F0.8769
tp6231
a(S'teddy'
p6232
g24
F0.9408
tp6233
a(S'bear'
p6234
g24
F0.8156
tp6235
a(S'doll'
p6236
g24
F0.9866
tp6237
a(S'etcetera'
p6238
g88
F0.4589
tp6239
a(S'etcetera'
p6240
g88
F0.7815
tp6241
a(S'etcetera'
p6242
g88
F0.6591
tp6243
asI538
(lp6244
(S'and'
p6245
g147
F0.9986
tp6246
a(S'straighten'
p6247
g11
F0.9986
tp6248
a(S'up'
p6249
g152
F0.969
tp6250
a(S'your'
p6251
g14
F0.9952
tp6252
a(S'shoes'
p6253
g24
F0.9983
tp6254
asI539
(lp6255
(S'xxx'
p6256
g76
F0.4267
tp6257
a(S'you'
p6258
g6
F0.9983
tp6259
a(S'had'
p6260
g11
F0.9999
tp6261
a(S'all'
p6262
g14
F0.5328
tp6263
a(S'that'
p6264
g14
F0.9356
tp6265
a(S'stuff'
p6266
g24
F0.9966
tp6267
a(S'in'
p6268
g17
F0.9964
tp6269
a(S'there'
p6270
g3
F0.6528
tp6271
a(S'last'
p6272
g173
F0.9965
tp6273
a(S'night'
p6274
g24
F0.9886
tp6275
asI540
(lp6276
(S'next'
p6277
g173
F0.9335
tp6278
a(S'time'
p6279
g24
F0.9992
tp6280
a(g8
g6
F0.9233
tp6281
a(S'tell'
p6282
g11
F0.9998
tp6283
a(S'you'
p6284
g6
F0.9992
tp6285
a(S'what'
p6286
g6
F0.6355
tp6287
a(S'you'
p6288
g6
F0.9996
tp6289
a(S'ought'
p6290
g11
F0.9969
tp6291
a(S'to'
p6292
g17
F0.9789
tp6293
a(S'do'
p6294
g11
F0.9996
tp6295
asI541
(lp6296
(S'you'
p6297
g6
F0.9981
tp6298
a(S'ought'
p6299
g11
F0.9976
tp6300
a(S'to'
p6301
g17
F0.9924
tp6302
a(S'draw'
p6303
g11
F0.9987
tp6304
a(g588
g14
F0.9977
tp6305
a(S'picture'
p6306
g24
F0.9989
tp6307
a(S'of'
p6308
g17
F0.9985
tp6309
a(g588
g14
F0.9973
tp6310
a(S'tv'
p6311
g24
F0.9973
tp6312
asI542
(lp6313
(S'what'
p6314
g6
F0.8078
tp6315
a(S'tv'
p6316
g24
F0.9921
tp6317
asI543
(lp6318
(S'just'
p6319
g3
F0.9992
tp6320
a(S'draw'
p6321
g11
F0.9984
tp6322
a(g588
g14
F0.9976
tp6323
a(S'picture'
p6324
g24
F0.9965
tp6325
a(S'make'
p6326
g11
F0.9845
tp6327
a(g588
g14
F0.9977
tp6328
a(S'picture'
p6329
g24
F0.9913
tp6330
a(S'and'
p6331
g147
F0.9966
tp6332
a(S'make'
p6333
g11
F0.9976
tp6334
a(S'it'
p6335
g6
F0.9132
tp6336
a(S'look'
p6337
g11
F0.9956
tp6338
a(S'like'
p6339
g17
F0.9674
tp6340
a(g588
g14
F0.9937
tp6341
a(S'tv'
p6342
g24
F0.996
tp6343
a(S'set'
p6344
g24
F0.6913
tp6345
asI544
(lp6346
(S'and'
p6347
g147
F0.9988
tp6348
a(S'paste'
p6349
g11
F0.991
tp6350
a(S'it'
p6351
g6
F0.9909
tp6352
a(S'up'
p6353
g152
F0.9508
tp6354
a(S'in'
p6355
g17
F0.9944
tp6356
a(S'your'
p6357
g14
F0.9925
tp6358
a(S'room'
p6359
g24
F0.9991
tp6360
a(S'so'
p6361
g17
F0.9333
tp6362
a(S'that'
p6363
g17
F0.6087
tp6364
a(S'your'
p6365
g14
F0.9919
tp6366
a(S'doll'
p6367
g24
F0.9935
tp6368
a(S'babies'
p6369
g24
F0.944
tp6370
a(S'all'
p6371
g14
F0.5829
tp6372
a(S'don'
p6373
g24
F0.4252
tp6374
a(g758
g24
F0.3869
tp6375
a(S'have'
p6376
g11
F0.9978
tp6377
a(S'to'
p6378
g17
F0.9965
tp6379
a(S'crawl'
p6380
g11
F0.9954
tp6381
a(S'into'
p6382
g17
F0.9986
tp6383
a(S'the'
p6384
g14
F0.9993
tp6385
a(S'front'
p6386
g24
F0.7924
tp6387
a(S'room'
p6388
g24
F0.9931
tp6389
a(S'to'
p6390
g17
F0.999
tp6391
a(S'see'
p6392
g11
F0.9946
tp6393
a(S'tv'
p6394
g24
F0.9738
tp6395
asI545
(lp6396
(S'you'
p6397
g6
F0.998
tp6398
a(S'want'
p6399
g11
F1.0
tp6400
a(S'me'
p6401
g6
F0.9983
tp6402
a(S'to'
p6403
g17
F0.9777
tp6404
a(S'paint'
p6405
g11
F0.9995
tp6406
a(S'it'
p6407
g6
F0.9847
tp6408
asI546
(lp6409
(S'no'
p6410
g62
F0.7432
tp6411
a(S'just'
p6412
g3
F0.998
tp6413
a(S'draw'
p6414
g11
F0.9991
tp6415
a(S'it'
p6416
g6
F0.9874
tp6417
asI547
(lp6418
(S'you'
p6419
g6
F0.9969
tp6420
a(S'can'
p6421
g11
F0.9997
tp6422
a(S'use'
p6423
g11
F0.9772
tp6424
a(S'crayon'
p6425
g24
F0.544
tp6426
asI548
(lp6427
(g8
g6
F0.9635
tp6428
a(S'don'
p6429
g11
F0.9231
tp6430
a(g758
g24
F0.2503
tp6431
a(S'want'
p6432
g11
F0.9959
tp6433
a(S'to'
p6434
g17
F0.9906
tp6435
a(S'draw'
p6436
g11
F0.9994
tp6437
a(S'it'
p6438
g6
F0.9885
tp6439
asI549
(lp6440
(g8
g6
F0.9635
tp6441
a(S'don'
p6442
g11
F0.9231
tp6443
a(g758
g24
F0.2457
tp6444
a(S'know'
p6445
g11
F0.9914
tp6446
a(S'how'
p6447
g3
F0.9928
tp6448
a(S'to'
p6449
g17
F0.9951
tp6450
a(S'draw'
p6451
g11
F0.9993
tp6452
a(S'it'
p6453
g6
F0.9585
tp6454
a(S'mommy'
p6455
g24
F0.4568
tp6456
asI550
(lp6457
(S'you'
p6458
g6
F0.998
tp6459
a(S'got'
p6460
g11
F0.9996
tp6461
a(S'to'
p6462
g17
F0.9424
tp6463
a(S'teach'
p6464
g11
F0.9999
tp6465
a(S'me'
p6466
g6
F0.9985
tp6467
a(S'how'
p6468
g3
F0.9992
tp6469
a(S'to'
p6470
g17
F0.9952
tp6471
a(S'draw'
p6472
g11
F0.9994
tp6473
a(S'it'
p6474
g6
F0.9896
tp6475
asI551
(lp6476
(S'just'
p6477
g3
F0.9992
tp6478
a(S'draw'
p6479
g11
F0.9978
tp6480
a(g588
g14
F0.9969
tp6481
a(S'picture'
p6482
g24
F0.997
tp6483
asI552
(lp6484
(S'want'
p6485
g11
F0.9993
tp6486
a(S'me'
p6487
g6
F0.9987
tp6488
a(S'get'
p6489
g11
F0.9997
tp6490
a(S'it'
p6491
g6
F0.9928
tp6492
asI553
(lp6493
(S'no'
p6494
g62
F0.7985
tp6495
a(S'you'
p6496
g6
F0.9973
tp6497
a(S'have'
p6498
g11
F0.9996
tp6499
a(S'to'
p6500
g17
F0.9959
tp6501
a(S'finish'
p6502
g11
F0.9966
tp6503
a(S'eating'
p6504
g11
F0.996
tp6505
a(S'to'
p6506
g17
F0.9824
tp6507
a(S'do'
p6508
g11
F0.9998
tp6509
a(S'anything'
p6510
g24
F0.9837
tp6511
asI554
(lp6512
(S'huh'
p6513
g62
F0.9864
tp6514
a(S'boopdeboop'
p6515
g173
F0.1748
tp6516
a(S'wp'
p6517
g24
F0.835
tp6518
asI555
(lp6519
(S'yeah'
p6520
g62
F0.9988
tp6521
asI556
(lp6522
(S'what'
p6523
g6
F0.9348
tp6524
a(S'you'
p6525
g6
F0.9996
tp6526
a(S'think'
p6527
g11
F0.9983
tp6528
asI557
(lp6529
(S'quarter'
p6530
g24
F0.9797
tp6531
a(S'to'
p6532
g17
F0.9977
tp6533
a(S'six'
p6534
g420
F0.5421
tp6535
asI558
(lp6536
(S'you'
p6537
g6
F0.9925
tp6538
a(S'ain'
p6539
g11
F0.9464
tp6540
a(g758
g11
F0.5581
tp6541
a(S'kidding'
p6542
g11
F0.9956
tp6543
asI559
(lp6544
(S'that'
p6545
g6
F0.473
tp6546
a(g81
g88
F0.4197
tp6547
a(S'how'
p6548
g3
F0.9822
tp6549
a(S'come'
p6550
g11
F0.9993
tp6551
a(S'your'
p6552
g14
F0.9698
tp6553
a(S'mommy'
p6554
g24
F0.9367
tp6555
a(S'isn'
p6556
g88
F0.4461
tp6557
a(g758
g88
F0.69
tp6558
a(S'in'
p6559
g17
F0.9955
tp6560
a(S'the'
p6561
g14
F0.9992
tp6562
a(S'military'
p6563
g173
F0.5283
tp6564
a(S'today'
p6565
g24
F0.9994
tp6566
asI560
(lp6567
(S'is'
p6568
g11
F0.9892
tp6569
a(S'what'
p6570
g6
F0.9888
tp6571
a(S'you'
p6572
g6
F0.9992
tp6573
a(S'call'
p6574
g11
F0.9874
tp6575
a(S'bureaucratic'
p6576
g173
F0.9195
tp6577
a(S'underhanded'
p6578
g173
F0.9814
tp6579
a(g2499
g24
F0.7888
tp6580
a(g81
g88
F0.8476
tp6581
asI561
(lp6582
(S'your'
p6583
g14
F0.9678
tp6584
a(S'mother'
p6585
g24
F0.9972
tp6586
a(S'has'
p6587
g11
F0.9954
tp6588
a(S'got'
p6589
g11
F0.9955
tp6590
a(S'to'
p6591
g17
F0.9664
tp6592
a(S'teach'
p6593
g11
F0.9999
tp6594
a(S'you'
p6595
g6
F0.9985
tp6596
a(S'how'
p6597
g3
F0.9975
tp6598
a(S'to'
p6599
g17
F0.9974
tp6600
a(S'get'
p6601
g11
F0.9999
tp6602
a(S'around'
p6603
g17
F0.7559
tp6604
a(S'that'
p6605
g6
F0.748
tp6606
a(S'too'
p6607
g3
F0.9655
tp6608
a(S'be'
p6609
g11
F0.9485
tp6610
a(S'cause'
p6611
g17
F0.8783
tp6612
a(S'that'
p6613
g6
F0.597
tp6614
a(g81
g88
F0.6618
tp6615
a(S'exactly'
p6616
g3
F0.8267
tp6617
a(S'what'
p6618
g6
F0.9685
tp6619
a(S'you'
p6620
g6
F0.9964
tp6621
a(S're'
p6622
g11
F0.7505
tp6623
a(S'going'
p6624
g11
F0.9976
tp6625
a(S'to'
p6626
g17
F0.9724
tp6627
a(S'be'
p6628
g11
F0.9991
tp6629
a(S'coming'
p6630
g11
F0.9987
tp6631
a(S'up'
p6632
g152
F0.9812
tp6633
a(S'against'
p6634
g17
F0.9882
tp6635
asI562
(lp6636
(S'huh'
p6637
g62
F0.993
tp6638
asI563
(lp6639
(S'say'
p6640
g11
F0.9709
tp6641
a(S'she'
p6642
g6
F0.9963
tp6643
a(g81
g88
F0.533
tp6644
a(S'always'
p6645
g3
F0.9922
tp6646
a(S'going'
p6647
g11
F0.9989
tp6648
a(S'to'
p6649
g17
F0.9724
tp6650
a(S'be'
p6651
g11
F0.9991
tp6652
a(S'too'
p6653
g3
F0.9983
tp6654
a(S'dark'
p6655
g173
F0.9574
tp6656
a(S'for'
p6657
g17
F0.9991
tp6658
a(S'something'
p6659
g24
F0.9888
tp6660
asI564
(lp6661
(S'except'
p6662
g11
F0.3807
tp6663
a(S'for'
p6664
g17
F0.9965
tp6665
a(S'fighting'
p6666
g11
F0.9991
tp6667
a(S'for'
p6668
g17
F0.9994
tp6669
a(S'this'
p6670
g14
F0.9688
tp6671
a(S'place'
p6672
g24
F0.9953
tp6673
asI565
(lp6674
(S'xxx'
p6675
g76
F0.6498
tp6676
a(S'say'
p6677
g11
F0.9884
tp6678
a(S'they'
p6679
g6
F0.995
tp6680
a(S'have'
p6681
g11
F0.9997
tp6682
a(S'to'
p6683
g17
F0.9676
tp6684
a(S'good'
p6685
g173
F0.9434
tp6686
a(S'hearts'
p6687
g24
F0.9722
tp6688
a(S'to'
p6689
g17
F0.9983
tp6690
a(S'be'
p6691
g11
F0.9991
tp6692
a(S'having'
p6693
g11
F0.9991
tp6694
a(S'all'
p6695
g1179
F0.5922
tp6696
a(S'these'
p6697
g14
F0.9969
tp6698
a(S'babies'
p6699
g24
F0.9945
tp6700
asI566
(lp6701
(S'yeah'
p6702
g62
F0.989
tp6703
a(S'say'
p6704
g11
F0.982
tp6705
a(S'that'
p6706
g6
F0.6186
tp6707
a(g81
g11
F0.6174
tp6708
a(g588
g14
F0.9973
tp6709
a(S'job'
p6710
g24
F0.9947
tp6711
a(S'in'
p6712
g17
F0.9975
tp6713
a(S'itself'
p6714
g6
F0.9852
tp6715
asI567
(lp6716
(S'oh'
p6717
g62
F0.9961
tp6718
a(S'oh'
p6719
g62
F0.9989
tp6720
a(S'chapoochypoo'
p6721
g62
F0.4632
tp6722
a(g2904
g24
F0.4196
tp6723
a(S'kiss'
p6724
g11
F0.8585
tp6725
asI568
(lp6726
(S'no'
p6727
g62
F0.787
tp6728
a(S'not'
p6729
g3
F0.9855
tp6730
a(S'in'
p6731
g17
F0.9912
tp6732
a(S'this'
p6733
g14
F0.977
tp6734
a(S'case'
p6735
g24
F0.9947
tp6736
asI569
(lp6737
(S'say'
p6738
g11
F0.9946
tp6739
a(S'you'
p6740
g6
F0.998
tp6741
a(S'just'
p6742
g3
F0.9996
tp6743
a(S'have'
p6744
g11
F0.9984
tp6745
a(S'to'
p6746
g17
F0.9975
tp6747
a(S'learn'
p6748
g11
F0.9993
tp6749
a(S'how'
p6750
g3
F0.9946
tp6751
a(S'to'
p6752
g17
F0.9974
tp6753
a(S'get'
p6754
g11
F0.9999
tp6755
a(S'around'
p6756
g17
F0.7818
tp6757
a(S'all'
p6758
g14
F0.5772
tp6759
a(S'that'
p6760
g14
F0.9246
tp6761
a(S'stereotypical'
p6762
g173
F0.9927
tp6763
a(S'stuff'
p6764
g24
F0.998
tp6765
asI570
(lp6766
(S'huh'
p6767
g62
F0.9428
tp6768
a(S'boo'
p6769
g62
F0.6585
tp6770
asI571
(lp6771
(S'say'
p6772
g11
F0.9389
tp6773
a(S'where'
p6774
g3
F0.9779
tp6775
a(S'there'
p6776
g3
F0.7391
tp6777
a(g81
g88
F0.5701
tp6778
a(g588
g14
F0.9217
tp6779
a(S'will'
p6780
g11
F0.5408
tp6781
a(S'there'
p6782
g3
F0.7475
tp6783
a(g81
g88
F0.6367
tp6784
a(g588
g14
F0.9929
tp6785
a(S'way'
p6786
g24
F0.9535
tp6787
asI572
(lp6788
(S'and'
p6789
g147
F0.9986
tp6790
a(S'mommy'
p6791
g24
F0.7712
tp6792
a(S'has'
p6793
g11
F0.9986
tp6794
a(S'to'
p6795
g17
F0.9932
tp6796
a(S'teach'
p6797
g11
F0.9998
tp6798
a(S'ya'
p6799
g6
F0.7151
tp6800
a(S'all'
p6801
g1179
F0.4698
tp6802
a(S'the'
p6803
g14
F0.9998
tp6804
a(S'way'
p6805
g24
F0.9757
tp6806
asI573
(lp6807
(S'huh'
p6808
g62
F0.993
tp6809
asI574
(lp6810
(S'yes'
p6811
g62
F0.9958
tp6812
asI575
(lp6813
(S'not'
p6814
g3
F0.9913
tp6815
a(S'very'
p6816
g3
F0.9967
tp6817
a(S'nice'
p6818
g173
F0.9997
tp6819
a(S'xxx'
p6820
g76
F0.7745
tp6821
asI576
(lp6822
(S'xxx'
p6823
g76
F0.8437
tp6824
asI577
(lp6825
(S'you'
p6826
g6
F0.9911
tp6827
a(S'didn'
p6828
g11
F0.9886
tp6829
a(g758
g11
F0.8184
tp6830
a(S'give'
p6831
g11
F0.9992
tp6832
a(S'me'
p6833
g6
F0.9926
tp6834
a(S'no'
p6835
g3
F0.6518
tp6836
a(S'kiss'
p6837
g11
F0.5482
tp6838
asI578
(lp6839
(S'no'
p6840
g62
F0.9253
tp6841
asI579
(lp6842
(S'well'
p6843
g62
F0.6724
tp6844
a(S'let'
p6845
g11
F0.9973
tp6846
a(S'me'
p6847
g6
F0.9994
tp6848
a(S'get'
p6849
g11
F0.9995
tp6850
a(S'my'
p6851
g14
F0.9909
tp6852
a(S'good'
p6853
g173
F0.9985
tp6854
a(S'seat'
p6855
g24
F0.9982
tp6856
a(S'in'
p6857
g17
F0.9957
tp6858
a(S'here'
p6859
g3
F0.9336
tp6860
asI580
(lp6861
(S'oh'
p6862
g62
F0.9962
tp6863
a(S'haha'
p6864
g62
F0.9994
tp6865
a(S'x'
p6866
g76
F0.5913
tp6867
a(S'2'
p6868
g17
F0.7838
tp6869
a(S'give'
p6870
g11
F0.9997
tp6871
a(S'me'
p6872
g6
F0.9986
tp6873
a(S'give'
p6874
g11
F0.9993
tp6875
a(S'me'
p6876
g6
F0.9986
tp6877
a(S'give'
p6878
g11
F0.9993
tp6879
a(S'me'
p6880
g6
F0.9986
tp6881
a(S'give'
p6882
g11
F0.9993
tp6883
a(S'me'
p6884
g6
F0.9975
tp6885
a(S'kiss'
p6886
g11
F0.8639
tp6887
a(S'kiss'
p6888
g24
F0.6362
tp6889
a(S'kiss'
p6890
g24
F0.7847
tp6891
a(S'kiss'
p6892
g24
F0.7559
tp6893
a(S'kiss'
p6894
g24
F0.5172
tp6895
asI581
(lp6896
(S'laughing'
p6897
g11
F0.9384
tp6898
asI582
(lp6899
(g8
g6
F0.9891
tp6900
a(S'gave'
p6901
g11
F0.9999
tp6902
a(S'you'
p6903
g6
F0.9989
tp6904
a(S'kiss'
p6905
g11
F0.9571
tp6906
asI583
(lp6907
(g8
g6
F0.9897
tp6908
a(S'want'
p6909
g11
F1.0
tp6910
a(S'another'
p6911
g14
F0.9923
tp6912
a(S'one'
p6913
g420
F0.7267
tp6914
asI584
(lp6915
(S'laughs'
p6916
g11
F0.9102
tp6917
asI585
(lp6918
(S'give'
p6919
g11
F0.9985
tp6920
a(S'me'
p6921
g6
F0.9987
tp6922
a(S'give'
p6923
g11
F0.9994
tp6924
a(S'me'
p6925
g6
F0.9979
tp6926
a(S'xxx'
p6927
g76
F0.5008
tp6928
a(S'kiss'
p6929
g11
F0.7053
tp6930
asI586
(lp6931
(S'what'
p6932
g6
F0.9784
tp6933
a(g81
g88
F0.5184
tp6934
a(g588
g14
F0.926
tp6935
a(S'what'
p6936
g6
F0.9798
tp6937
a(g81
g88
F0.5392
tp6938
a(g588
g14
F0.963
tp6939
a(S'kiss'
p6940
g24
F0.9359
tp6941
a(S'baby'
p6942
g24
F0.9972
tp6943
asI587
(lp6944
(S'yeah'
p6945
g62
F0.9922
tp6946
a(S'you'
p6947
g6
F0.9902
tp6948
a(S've'
p6949
g11
F0.8253
tp6950
a(S'got'
p6951
g11
F0.9963
tp6952
a(S'to'
p6953
g17
F0.9601
tp6954
a(S'stand'
p6955
g11
F0.9977
tp6956
a(S'up'
p6957
g152
F0.9328
tp6958
a(S'and'
p6959
g147
F0.997
tp6960
a(S'give'
p6961
g11
F0.9995
tp6962
a(S'me'
p6963
g6
F0.9962
tp6964
a(g588
g14
F0.9629
tp6965
a(S'kiss'
p6966
g24
F0.9845
tp6967
a(S'come'
p6968
g11
F0.9362
tp6969
a(S'come'
p6970
g11
F0.9976
tp6971
a(S'on'
p6972
g17
F0.8307
tp6973
a(S'now'
p6974
g3
F0.9919
tp6975
asI588
(lp6976
(g1253
g420
F0.9849
tp6977
a(S'belly'
p6978
g24
F0.9931
tp6979
a(S'laugh'
p6980
g11
F0.7564
tp6981
asI589
(lp6982
(S'wait'
p6983
g11
F0.9922
tp6984
a(g588
g14
F0.9943
tp6985
a(S'minute'
p6986
g24
F0.9459
tp6987
a(S'all'
p6988
g1179
F0.4846
tp6989
a(S'this'
p6990
g14
F0.8202
tp6991
a(S'giggling'
p6992
g11
F0.9768
tp6993
a(S'ain'
p6994
g11
F0.3993
tp6995
a(g758
g11
F0.5073
tp6996
a(S'going'
p6997
g11
F0.9983
tp6998
a(S'to'
p6999
g17
F0.9916
tp7000
a(S'get'
p7001
g11
F1.0
tp7002
a(S'us'
p7003
g6
F0.9953
tp7004
a(S'nowhere'
p7005
g3
F0.9985
tp7006
a(S'where'
p7007
g3
F0.9911
tp7008
a(g81
g88
F0.7102
tp7009
a(S'the'
p7010
g14
F0.994
tp7011
a(S'kiss'
p7012
g24
F0.9468
tp7013
asI590
(lp7014
(g8
g6
F0.9891
tp7015
a(S'gave'
p7016
g11
F0.9999
tp7017
a(S'you'
p7018
g6
F0.9865
tp7019
a(S'one'
p7020
g420
F0.7735
tp7021
asI591
(lp7022
(S'nope'
p7023
g62
F0.9936
tp7024
a(S'that'
p7025
g6
F0.6083
tp7026
a(g81
g11
F0.4491
tp7027
a(S'not'
p7028
g3
F0.9823
tp7029
a(S'the'
p7030
g14
F0.9983
tp7031
a(S'kind'
p7032
g24
F0.981
tp7033
a(S'of'
p7034
g17
F0.9985
tp7035
a(S'kiss'
p7036
g24
F0.848
tp7037
a(g8
g6
F0.9696
tp7038
a(S'want'
p7039
g11
F0.9998
tp7040
asI592
(lp7041
(g8
g6
F0.9897
tp7042
a(S'want'
p7043
g11
F1.0
tp7044
a(g588
g14
F0.9881
tp7045
a(S'kiss'
p7046
g24
F0.9927
tp7047
a(S'kiss'
p7048
g24
F0.4985
tp7049
asI593
(lp7050
(S'xxx'
p7051
g76
F0.6914
tp7052
a(S'we'
p7053
g6
F0.9883
tp7054
a(S'mushing'
p7055
g11
F0.9986
tp7056
a(S'up'
p7057
g152
F0.9277
tp7058
a(S'your'
p7059
g14
F0.9923
tp7060
a(S'sister'
p7061
g24
F0.9988
tp7062
a(S'huh'
p7063
g62
F0.9394
tp7064
asI594
(lp7065
(S'say'
p7066
g11
F0.969
tp7067
a(S'we'
p7068
g6
F0.9988
tp7069
a(S'want'
p7070
g11
F0.998
tp7071
a(S'kiss'
p7072
g24
F0.6399
tp7073
a(S'kiss'
p7074
g24
F0.4985
tp7075
asI595
(lp7076
(g1253
g420
F0.9638
tp7077
asI596
(lp7078
(S'laughing'
p7079
g11
F0.9384
tp7080
asI597
(lp7081
(S'ah'
p7082
g62
F0.9885
tp7083
a(S'haha'
p7084
g62
F0.9989
tp7085
a(g6866
g76
F0.6114
tp7086
a(g6868
g420
F0.3782
tp7087
asI598
(lp7088
(S'moosh'
p7089
g316
F0.8663
tp7090
a(g2904
g88
F0.3847
tp7091
a(S'moosh'
p7092
g88
F0.4976
tp7093
a(g2904
g88
F0.7339
tp7094
asI599
(lp7095
(S'laughing'
p7096
g11
F0.9384
tp7097
asI600
(lp7098
(S'moosh'
p7099
g316
F0.8663
tp7100
a(g2904
g88
F0.3857
tp7101
a(S'moosh'
p7102
g316
F0.5539
tp7103
a(g2904
g88
F0.3583
tp7104
a(S'moosh'
p7105
g88
F0.4705
tp7106
a(g2904
g88
F0.7616
tp7107
a(S'moosh'
p7108
g88
F0.4705
tp7109
a(g2904
g88
F0.7616
tp7110
a(S'moosh'
p7111
g88
F0.4705
tp7112
a(g2904
g88
F0.7965
tp7113
a(S'moosh'
p7114
g88
F0.4858
tp7115
a(g2904
g88
F0.7035
tp7116
asI601
(lp7117
(S'we'
p7118
g6
F0.9849
tp7119
a(S're'
p7120
g11
F0.8017
tp7121
a(S'mooshing'
p7122
g11
F0.891
tp7123
a(g2904
g17
F0.4643
tp7124
a(S'her'
p7125
g6
F0.9002
tp7126
a(S'up'
p7127
g152
F0.849
tp7128
a(S'sis'
p7129
g24
F0.9309
tp7130
asI602
(lp7131
(S'yeah'
p7132
g62
F0.9942
tp7133
a(S'xxx'
p7134
g76
F0.5939
tp7135
a(S'we'
p7136
g6
F0.9833
tp7137
a(S're'
p7138
g11
F0.7916
tp7139
a(S'mooshing'
p7140
g11
F0.8791
tp7141
a(g2904
g17
F0.4681
tp7142
a(S'her'
p7143
g6
F0.8835
tp7144
a(S'up'
p7145
g152
F0.902
tp7146
asI603
(lp7147
(S'kiss'
p7148
g11
F0.5323
tp7149
a(S'kiss'
p7150
g24
F0.6112
tp7151
a(S'kiss'
p7152
g24
F0.7702
tp7153
a(S'kiss'
p7154
g24
F0.7136
tp7155
a(S'woo'
p7156
g62
F0.5806
tp7157
a(S'we'
p7158
g6
F0.9916
tp7159
a(S're'
p7160
g24
F0.4919
tp7161
a(S'xxx'
p7162
g76
F0.6695
tp7163
asI604
(lp7164
(S'laughing'
p7165
g11
F0.9384
tp7166
asI605
(lp7167
(S'you'
p7168
g6
F0.998
tp7169
a(S'want'
p7170
g11
F0.9997
tp7171
a(S'to'
p7172
g17
F0.9954
tp7173
a(S'get'
p7174
g11
F0.9999
tp7175
a(S'her'
p7176
g14
F0.9151
tp7177
a(S'sis'
p7178
g24
F0.9944
tp7179
asI606
(lp7180
(S'say'
p7181
g11
F0.8211
tp7182
a(g8
g6
F0.9879
tp7183
a(g894
g11
F0.9794
tp7184
a(S'not'
p7185
g3
F0.9942
tp7186
a(S'xxx'
p7187
g76
F0.371
tp7188
a(S'say'
p7189
g11
F0.8969
tp7190
a(g8
g6
F0.987
tp7191
a(g894
g11
F0.9883
tp7192
a(S'in'
p7193
g17
F0.9881
tp7194
a(S'the'
p7195
g14
F0.996
tp7196
a(S'walker'
p7197
g316
F0.9037
tp7198
asI607
(lp7199
(S'say'
p7200
g11
F0.8211
tp7201
a(g8
g6
F0.9879
tp7202
a(g894
g11
F0.9794
tp7203
a(S'not'
p7204
g3
F0.9972
tp7205
a(S'in'
p7206
g17
F0.9976
tp7207
a(S'the'
p7208
g14
F0.9962
tp7209
a(S'walker'
p7210
g316
F0.9404
tp7211
a(S'mommy'
p7212
g24
F0.4926
tp7213
a(S'see'
p7214
g11
F0.9782
tp7215
a(S'see'
p7216
g11
F0.9278
tp7217
a(S'see'
p7218
g11
F0.7845
tp7219
a(S'kiss'
p7220
g24
F0.6163
tp7221
a(S'kiss'
p7222
g24
F0.645
tp7223
asI608
(lp7224
(S'xxx'
p7225
g76
F0.706
tp7226
a(S'look'
p7227
g11
F0.9388
tp7228
a(S'at'
p7229
g17
F0.9992
tp7230
a(S'the'
p7231
g14
F0.9997
tp7232
a(S'little'
p7233
g173
F0.9929
tp7234
a(S'legs'
p7235
g24
F0.9936
tp7236
asI609
(lp7237
(S'can'
p7238
g11
F0.9755
tp7239
a(g8
g6
F0.987
tp7240
a(S'have'
p7241
g11
F1.0
tp7242
a(g588
g14
F0.9763
tp7243
a(S'xxx'
p7244
g76
F0.5231
tp7245
asI610
(lp7246
(S'xxx'
p7247
g76
F0.7101
tp7248
a(S'not'
p7249
g3
F0.9724
tp7250
asI611
(lp7251
(S'bad'
p7252
g173
F0.937
tp7253
asI612
(lp7254
(g8
g6
F0.9586
tp7255
a(g894
g11
F0.9739
tp7256
a(S'bad'
p7257
g173
F0.9711
tp7258
asI613
(lp7259
(S'yeah'
p7260
g62
F0.99
tp7261
a(S'be'
p7262
g11
F0.9656
tp7263
a(S'cause'
p7264
g17
F0.6209
tp7265
a(S'xxx'
p7266
g76
F0.8428
tp7267
asI614
(lp7268
(S'let'
p7269
g11
F0.9975
tp7270
a(S'me'
p7271
g6
F0.9995
tp7272
a(S'see'
p7273
g11
F0.9949
tp7274
a(S'the'
p7275
g14
F0.9997
tp7276
a(S'legs'
p7277
g24
F0.9901
tp7278
asI615
(lp7279
(g8
g6
F0.9897
tp7280
a(S'want'
p7281
g11
F0.9999
tp7282
a(S'to'
p7283
g17
F0.9929
tp7284
a(S'see'
p7285
g11
F0.9997
tp7286
a(S'you'
p7287
g6
F0.9976
tp7288
a(S'got'
p7289
g11
F0.9997
tp7290
a(S'any'
p7291
g14
F0.9932
tp7292
a(S'new'
p7293
g173
F0.9987
tp7294
a(S'scars'
p7295
g24
F0.9965
tp7296
asI616
(lp7297
(S'uh'
p7298
g62
F0.9878
tp7299
a(S'huh'
p7300
g62
F0.9956
tp7301
asI617
(lp7302
(S'let'
p7303
g11
F0.9968
tp7304
a(S'me'
p7305
g6
F0.9996
tp7306
a(S'see'
p7307
g11
F0.969
tp7308
asI618
(lp7309
(S'ah'
p7310
g62
F0.9769
tp7311
a(S'they'
p7312
g6
F0.992
tp7313
a(S'be'
p7314
g11
F0.9995
tp7315
a(S'looking'
p7316
g11
F0.9787
tp7317
a(S'like'
p7318
g17
F0.9647
tp7319
a(S'they'
p7320
g6
F0.975
tp7321
a(S're'
p7322
g11
F0.6948
tp7323
a(S'healing'
p7324
g11
F0.8371
tp7325
a(S'up'
p7326
g152
F0.7417
tp7327
a(S'better'
p7328
g173
F0.5509
tp7329
asI619
(lp7330
(S'this'
p7331
g14
F0.9705
tp7332
a(S'one'
p7333
g420
F0.8387
tp7334
a(S'don'
p7335
g24
F0.5508
tp7336
a(g758
g24
F0.3221
tp7337
a(S'look'
p7338
g11
F0.9711
tp7339
a(S'as'
p7340
g3
F0.8228
tp7341
a(S'bad'
p7342
g173
F0.9922
tp7343
a(S'as'
p7344
g17
F0.9911
tp7345
a(S'it'
p7346
g6
F0.999
tp7347
a(S'used'
p7348
g11
F0.9806
tp7349
a(S'to'
p7350
g17
F0.9587
tp7351
asI620
(lp7352
(S'let'
p7353
g11
F0.9975
tp7354
a(S'me'
p7355
g6
F0.9995
tp7356
a(S'see'
p7357
g11
F0.9947
tp7358
a(S'that'
p7359
g14
F0.7476
tp7360
a(S'one'
p7361
g420
F0.7262
tp7362
asI621
(lp7363
(S'there'
p7364
g1179
F0.4664
tp7365
a(g81
g88
F0.4358
tp7366
a(S'one'
p7367
g420
F0.9427
tp7368
a(S'that'
p7369
g17
F0.8561
tp7370
a(S'looks'
p7371
g11
F0.9921
tp7372
a(S'great'
p7373
g173
F0.9919
tp7374
a(S'look'
p7375
g24
F0.7896
tp7376
a(S'at'
p7377
g17
F0.9998
tp7378
a(S'this'
p7379
g14
F0.5172
tp7380
a(g588
g14
F0.9444
tp7381
a(S'lot'
p7382
g24
F0.9019
tp7383
a(g588
g14
F0.9846
tp7384
a(S'whole'
p7385
g173
F0.9866
tp7386
a(S'lot'
p7387
g24
F0.8731
tp7388
asI622
(lp7389
(S'you'
p7390
g6
F0.9942
tp7391
a(S'only'
p7392
g3
F0.7336
tp7393
a(S'got'
p7394
g11
F0.9991
tp7395
a(S'that'
p7396
g14
F0.8252
tp7397
a(S'one'
p7398
g420
F0.9234
tp7399
a(S'little'
p7400
g173
F0.9725
tp7401
asI623
(lp7402
(S'all'
p7403
g1179
F0.7572
tp7404
a(S'the'
p7405
g14
F0.9999
tp7406
a(S'scars'
p7407
g24
F0.9955
tp7408
a(S'are'
p7409
g11
F0.9823
tp7410
a(S'going'
p7411
g11
F0.9949
tp7412
a(S'away'
p7413
g3
F0.9233
tp7414
asI624
(lp7415
(S'see'
p7416
g11
F0.8247
tp7417
a(g8
g6
F0.9815
tp7418
a(S'told'
p7419
g11
F1.0
tp7420
a(S'you'
p7421
g6
F0.9985
tp7422
a(S'as'
p7423
g17
F0.8915
tp7424
a(S'you'
p7425
g6
F0.9996
tp7426
a(S'get'
p7427
g11
F0.9995
tp7428
a(S'bigger'
p7429
g173
F0.9837
tp7430
a(S'all'
p7431
g14
F0.5523
tp7432
a(S'your'
p7433
g14
F0.9894
tp7434
a(S'little'
p7435
g173
F0.9628
tp7436
a(S'scratches'
p7437
g24
F0.9801
tp7438
a(S'and'
p7439
g147
F0.9975
tp7440
a(S'stuff'
p7441
g24
F0.9865
tp7442
a(S'will'
p7443
g11
F0.9948
tp7444
a(S'go'
p7445
g11
F0.999
tp7446
a(S'away'
p7447
g3
F0.9946
tp7448
a(S'you'
p7449
g6
F0.9983
tp7450
a(S'only'
p7451
g3
F0.8618
tp7452
a(S'got'
p7453
g11
F0.9992
tp7454
a(S'this'
p7455
g14
F0.9575
tp7456
a(S'one'
p7457
g420
F0.9447
tp7458
a(S'little'
p7459
g173
F0.9969
tp7460
a(S'one'
p7461
g420
F0.9679
tp7462
a(S'what'
p7463
g6
F0.9671
tp7464
a(g81
g11
F0.5047
tp7465
a(S'that'
p7466
g6
F0.8097
tp7467
a(S'from'
p7468
g17
F0.9856
tp7469
asI625
(lp7470
(S'you'
p7471
g6
F0.9876
tp7472
a(S'fall'
p7473
g11
F0.9641
tp7474
a(S'at'
p7475
g17
F0.9934
tp7476
a(S'school'
p7477
g24
F0.9918
tp7478
asI626
(lp7479
(S'no'
p7480
g62
F0.9253
tp7481
asI627
(lp7482
(S'where'
p7483
g3
F0.9806
tp7484
a(S'you'
p7485
g6
F0.9991
tp7486
a(S'get'
p7487
g11
F0.9999
tp7488
a(S'that'
p7489
g6
F0.9185
tp7490
a(S'at'
p7491
g17
F0.9632
tp7492
asI628
(lp7493
(S'nope'
p7494
g62
F0.9882
tp7495
a(S'xxx'
p7496
g76
F0.787
tp7497
asI629
(lp7498
(S'let'
p7499
g11
F0.9975
tp7500
a(S'me'
p7501
g6
F0.9995
tp7502
a(S'see'
p7503
g11
F0.9944
tp7504
a(S'the'
p7505
g14
F0.9998
tp7506
a(S'other'
p7507
g173
F0.9884
tp7508
a(S'leg'
p7509
g24
F0.9896
tp7510
asI630
(lp7511
(S'now'
p7512
g3
F0.9935
tp7513
a(S'put'
p7514
g11
F0.9953
tp7515
a(S'it'
p7516
g6
F0.9866
tp7517
a(S'down'
p7518
g152
F0.828
tp7519
asI631
(lp7520
(S'let'
p7521
g11
F0.9975
tp7522
a(S'me'
p7523
g6
F0.9995
tp7524
a(S'see'
p7525
g11
F0.9944
tp7526
a(S'the'
p7527
g14
F0.9998
tp7528
a(S'other'
p7529
g173
F0.9884
tp7530
a(S'leg'
p7531
g24
F0.9896
tp7532
asI632
(lp7533
(g8
g6
F0.9897
tp7534
a(S'want'
p7535
g11
F0.9999
tp7536
a(S'that'
p7537
g14
F0.8971
tp7538
a(S'leg'
p7539
g24
F0.9951
tp7540
asI633
(lp7541
(S'get'
p7542
g11
F0.9987
tp7543
a(S'your'
p7544
g14
F0.9187
tp7545
a(S'get'
p7546
g11
F0.9424
tp7547
a(S'your'
p7548
g14
F0.9275
tp7549
a(S'get'
p7550
g11
F0.945
tp7551
a(S'your'
p7552
g14
F0.9972
tp7553
a(S'legs'
p7554
g24
F0.9984
tp7555
a(S'off'
p7556
g17
F0.9481
tp7557
a(S'of'
p7558
g17
F0.9927
tp7559
a(S'me'
p7560
g6
F0.9948
tp7561
a(g8
g6
F0.9628
tp7562
a(S'just'
p7563
g3
F0.9995
tp7564
a(S'want'
p7565
g11
F0.9994
tp7566
a(S'to'
p7567
g17
F0.9952
tp7568
a(S'see'
p7569
g11
F0.9962
tp7570
a(S'one'
p7571
g420
F0.8507
tp7572
asI634
(lp7573
(S'laughs'
p7574
g11
F0.9102
tp7575
asI635
(lp7576
(S'get'
p7577
g11
F0.9974
tp7578
a(S'off'
p7579
g17
F0.4564
tp7580
a(S'of'
p7581
g17
F0.9894
tp7582
a(S'me'
p7583
g6
F0.9983
tp7584
a(S'let'
p7585
g11
F0.9988
tp7586
a(S'me'
p7587
g6
F0.9995
tp7588
a(S'see'
p7589
g11
F0.9919
tp7590
a(S'this'
p7591
g14
F0.9959
tp7592
a(S'leg'
p7593
g24
F0.9934
tp7594
asI636
(lp7595
(g8
g6
F0.9897
tp7596
a(S'want'
p7597
g11
F0.9999
tp7598
a(S'to'
p7599
g17
F0.9929
tp7600
a(S'see'
p7601
g11
F0.9919
tp7602
a(g8
g6
F0.9812
tp7603
a(S'want'
p7604
g11
F0.9999
tp7605
a(S'to'
p7606
g17
F0.9963
tp7607
a(S'see'
p7608
g11
F0.9925
tp7609
asI637
(lp7610
(S'turn'
p7611
g11
F0.9848
tp7612
a(S'around'
p7613
g3
F0.4699
tp7614
a(g8
g6
F0.9936
tp7615
a(S'can'
p7616
g11
F0.9996
tp7617
a(g758
g11
F0.8017
tp7618
a(S'see'
p7619
g11
F0.997
tp7620
a(S'it'
p7621
g6
F0.949
tp7622
a(S'to'
p7623
g17
F0.9968
tp7624
a(S'the'
p7625
g14
F0.9991
tp7626
a(S'side'
p7627
g24
F0.9937
tp7628
a(S'turn'
p7629
g11
F0.9853
tp7630
a(S'around'
p7631
g152
F0.443
tp7632
a(S'this'
p7633
g14
F0.9846
tp7634
a(S'way'
p7635
g24
F0.9637
tp7636
asI638
(lp7637
(S'put'
p7638
g11
F0.9896
tp7639
a(S'your'
p7640
g14
F0.9969
tp7641
a(S'leg'
p7642
g24
F0.9985
tp7643
a(S'up'
p7644
g17
F0.6272
tp7645
a(S'here'
p7646
g3
F0.9601
tp7647
asI639
(lp7648
(S'turn'
p7649
g11
F0.9848
tp7650
a(S'around'
p7651
g3
F0.5969
tp7652
a(S'and'
p7653
g147
F0.9958
tp7654
a(S'put'
p7655
g11
F0.996
tp7656
a(S'your'
p7657
g14
F0.9972
tp7658
a(S'leg'
p7659
g24
F0.9976
tp7660
a(S'up'
p7661
g17
F0.6819
tp7662
a(S'here'
p7663
g3
F0.9572
tp7664
asI640
(lp7665
(S'alright'
p7666
g62
F0.9217
tp7667
a(S'this'
p7668
g6
F0.8594
tp7669
a(S'ain'
p7670
g11
F0.71
tp7671
a(g758
g11
F0.517
tp7672
a(S'going'
p7673
g11
F0.9983
tp7674
a(S'to'
p7675
g17
F0.9538
tp7676
a(S'go'
p7677
g11
F0.9993
tp7678
a(S'away'
p7679
g3
F0.9971
tp7680
a(S'for'
p7681
g17
F0.9991
tp7682
a(g588
g14
F0.9963
tp7683
a(S'long'
p7684
g173
F0.9985
tp7685
a(S'time'
p7686
g24
F0.9991
tp7687
asI641
(lp7688
(S'what'
p7689
g6
F0.949
tp7690
asI642
(lp7691
(S'see'
p7692
g11
F0.9216
tp7693
a(S'see'
p7694
g11
F0.9805
tp7695
a(S'that'
p7696
g14
F0.6403
tp7697
a(S'right'
p7698
g3
F0.4028
tp7699
a(S'there'
p7700
g3
F0.8093
tp7701
as.