(dp0
I0
(lp1
(S'xxx'
p2
S'E'
p3
F0.8437
tp4
asI1
(lp5
(S'xxx'
p6
g3
F0.6526
tp7
a(S'real'
p8
S'A'
p9
F0.988
tp10
a(S'meat'
p11
S'N'
p12
F0.9948
tp13
a(S'heads'
p14
g12
F0.8267
tp15
asI2
(lp16
(S'www'
p17
S'^'
p18
F0.5722
tp19
a(S'sings'
p20
S'V'
p21
F0.4863
tp22
asI3
(lp23
(S'did'
p24
g21
F0.9986
tp25
a(S'you'
p26
S'O'
p27
F0.9987
tp28
a(S'hear'
p29
g21
F0.9992
tp30
a(S'me'
p31
g27
F0.9971
tp32
asI4
(lp33
(S'yeah'
p34
S'!'
p35
F0.998
tp36
a(S'i'
p37
g27
F0.997
tp38
a(S'know'
p39
g21
F0.9992
tp40
asI5
(lp41
(S'xxx'
p42
g3
F0.8437
tp43
asI6
(lp44
(S'do'
p45
g21
F0.9985
tp46
a(S'you'
p47
g27
F0.9996
tp48
a(S'want'
p49
g21
F0.9997
tp50
a(S'to'
p51
S'P'
p52
F0.9957
tp53
a(S'hear'
p54
g21
F0.9996
tp55
a(S'me'
p56
g27
F0.9977
tp57
asI7
(lp58
(S'listen'
p59
g21
F0.9782
tp60
asI8
(lp61
(S'www'
p62
g18
F0.6152
tp63
a(S'noise'
p64
g12
F0.9363
tp65
asI9
(lp66
(S'xxx'
p67
g3
F0.7054
tp68
a(S'chi'
p69
g18
F0.4077
tp70
a(S's'
p71
g18
F0.5798
tp72
a(S'tape'
p73
g12
F0.8568
tp74
a(S'recorder'
p75
g12
F0.9919
tp76
a(S'diary'
p77
g12
F0.996
tp78
a(S'here'
p79
S'R'
p80
F0.964
tp81
asI10
(lp82
(S'so'
p83
g52
F0.7373
tp84
a(S'speak'
p85
g21
F0.9903
tp86
a(S'up'
p87
S'T'
p88
F0.9705
tp89
a(S'valerie'
p90
g18
F0.9759
tp91
asI11
(lp92
(S'time'
p93
g12
F0.9742
tp94
a(S'to'
p95
g52
F0.9982
tp96
a(S'hit'
p97
g21
F0.9994
tp98
a(S'the'
p99
S'D'
p100
F0.9996
tp101
a(S'boys'
p102
g12
F0.999
tp103
asI12
(lp104
(S'okay'
p105
g35
F0.9414
tp106
a(S'your'
p107
g100
F0.945
tp108
a(S'life'
p109
g12
F0.998
tp110
a(S'story'
p111
g12
F0.9975
tp112
a(S'please'
p113
g21
F0.9793
tp114
asI13
(lp115
(S'nice'
p116
g9
F0.9926
tp117
a(S'and'
p118
S'&'
p119
F0.997
tp120
a(S'loud'
p121
g9
F0.8109
tp122
a(S'like'
p123
g52
F0.9942
tp124
a(S'this'
p125
g27
F0.8142
tp126
a(S'hi'
p127
g35
F0.809
tp128
a(S'okay'
p129
g9
F0.6879
tp130
a(S'one'
p131
S'$'
p132
F0.9227
tp133
a(S'two'
p134
g132
F0.9205
tp135
a(S'three'
p136
g132
F0.9021
tp137
a(S'now'
p138
g80
F0.993
tp139
a(S'said'
p140
g21
F0.9965
tp141
a(S'in'
p142
g52
F0.916
tp143
a(S'deep'
p144
g9
F0.9794
tp145
a(S'voice'
p146
g12
F0.9983
tp147
asI14
(lp148
(S'hi'
p149
g35
F0.9803
tp150
a(g37
g27
F0.9841
tp151
a(S'm'
p152
g21
F0.9837
tp153
a(S'doing'
p154
g21
F0.9994
tp155
a(S'this'
p156
g100
F0.817
tp157
a(S'report'
p158
g12
F0.9914
tp159
a(S'xxx'
p160
g3
F0.7206
tp161
a(S'xxx'
p162
g3
F0.9818
tp163
asI15
(lp164
(S'we'
p165
g27
F0.9849
tp166
a(S're'
p167
g21
F0.4911
tp168
a(S'gonna'
p169
g21
F0.991
tp170
a(S'have'
p171
g21
F0.9999
tp172
a(S'a'
p173
g100
F0.991
tp174
a(S'report'
p175
g12
F0.9967
tp176
a(S'typed'
p177
g21
F0.9908
tp178
asI16
(lp179
(S'and'
p180
g119
F0.9982
tp181
a(S'that'
p182
g27
F0.7617
tp183
a(g71
g21
F0.5753
tp184
a(S'my'
p185
g100
F0.9979
tp186
a(S'life'
p187
g12
F0.998
tp188
asI17
(lp189
(S'is'
p190
g21
F0.9981
tp191
a(S'that'
p192
g27
F0.7448
tp193
a(S'all'
p194
g100
F0.5451
tp195
a(S'you'
p196
g27
F0.9987
tp197
a(S'have'
p198
g21
F0.9996
tp199
a(S'about'
p200
g52
F0.9982
tp201
a(S'your'
p202
g100
F0.995
tp203
a(S'life'
p204
g12
F0.9988
tp205
asI18
(lp206
(S'who'
p207
g27
F0.9963
tp208
a(S'do'
p209
g21
F0.9999
tp210
a(S'you'
p211
g27
F0.9991
tp212
a(S'like'
p213
g21
F0.6164
tp214
asI19
(lp215
(S'please'
p216
g21
F0.8246
tp217
asI20
(lp218
(S'xxx'
p219
g3
F0.581
tp220
a(S'is'
p221
g21
F0.9944
tp222
a(S'purple'
p223
g9
F0.9795
tp224
asI21
(lp225
(S'who'
p226
g27
F0.9963
tp227
a(S'do'
p228
g21
F0.9999
tp229
a(S'you'
p230
g27
F0.9991
tp231
a(S'like'
p232
g21
F0.6164
tp233
asI22
(lp234
(S'not'
p235
g80
F0.9863
tp236
a(S'who'
p237
g27
F0.9931
tp238
a(S'what'
p239
g27
F0.8081
tp240
a(S'color'
p241
g12
F0.9318
tp242
a(S'do'
p243
g21
F0.9983
tp244
a(S'you'
p245
g27
F0.9991
tp246
a(S'like'
p247
g21
F0.6438
tp248
asI23
(lp249
(S'what'
p250
g27
F0.9861
tp251
a(S'who'
p252
g27
F0.9985
tp253
a(S'do'
p254
g21
F0.9999
tp255
a(S'you'
p256
g27
F0.999
tp257
a(S'like'
p258
g21
F0.8177
tp259
asI24
(lp260
(g37
g27
F0.9776
tp261
a(S'promise'
p262
g21
F0.9962
tp263
asI25
(lp264
(g37
g27
F0.9908
tp265
a(S'know'
p266
g21
F0.9994
tp267
a(S'how'
p268
g80
F0.9927
tp269
a(S'to'
p270
g52
F0.9935
tp271
a(S'keep'
p272
g21
F0.9971
tp273
a(S'secrets'
p274
g12
F0.9844
tp275
asI26
(lp276
(g37
g27
F0.9635
tp277
a(S'don'
p278
g21
F0.9231
tp279
a(S't'
p280
g21
F0.4066
tp281
a(S'like'
p282
g52
F0.7434
tp283
a(S'anyone'
p284
g12
F0.9421
tp285
asI27
(lp286
(S'not'
p287
g80
F0.9933
tp288
a(S'even'
p289
g80
F0.9947
tp290
a(S'zack'
p291
g18
F0.9506
tp292
a(S'on'
p293
g52
F0.9606
tp294
a(S'saved'
p295
g21
F0.8482
tp296
a(S'by'
p297
g52
F0.9992
tp298
a(S'the'
p299
g100
F0.998
tp300
a(S'bell'
p301
g12
F0.8476
tp302
asI28
(lp303
(S'any'
p304
g100
F0.9907
tp305
a(S'movie'
p306
g12
F0.9954
tp307
a(S'stars'
p308
g12
F0.9746
tp309
a(S'hm'
p310
g35
F0.9224
tp311
asI29
(lp312
(S'xxx'
p313
g3
F0.8437
tp314
asI30
(lp315
(S'who'
p316
g27
F0.9963
tp317
a(S'do'
p318
g21
F0.9999
tp319
a(S'you'
p320
g27
F0.9991
tp321
a(S'like'
p322
g21
F0.5427
tp323
a(S'now'
p324
g80
F0.9973
tp325
asI31
(lp326
(S'xxx'
p327
g3
F0.8325
tp328
a(S'xxx'
p329
g3
F0.9813
tp330
asI32
(lp331
(S'oh'
p332
g35
F0.9927
tp333
a(S'mark'
p334
g18
F0.956
tp335
a(S'paul'
p336
g18
F0.9957
tp337
a(S'goosler'
p338
g18
F0.7236
tp339
a(S'right'
p340
g35
F0.3859
tp341
asI33
(lp342
(S'xxx'
p343
g3
F0.8437
tp344
asI34
(lp345
(S'that'
p346
g27
F0.473
tp347
a(g71
g21
F0.6676
tp348
a(S'his'
p349
g100
F0.9989
tp350
a(S'name'
p351
g12
F0.9973
tp352
a(S'mark'
p353
g18
F0.6363
tp354
a(S'paul'
p355
g18
F0.9971
tp356
a(S'goosler'
p357
g18
F0.8507
tp358
asI35
(lp359
(S'do'
p360
g21
F0.9985
tp361
a(S'you'
p362
g27
F0.9989
tp363
a(S'like'
p364
g21
F0.7761
tp365
a(S'any'
p366
g100
F0.9724
tp367
a(S'other'
p368
g9
F0.9437
tp369
a(S'in'
p370
g52
F0.9711
tp371
a(S'particular'
p372
g9
F0.986
tp373
a(S'movie'
p374
g12
F0.9977
tp375
a(S'stars'
p376
g12
F0.978
tp377
asI36
(lp378
(S'are'
p379
g21
F0.9964
tp380
a(S'you'
p381
g27
F0.9996
tp382
a(S'done'
p383
g21
F0.9979
tp384
a(S'talking'
p385
g21
F0.651
tp386
asI37
(lp387
(S'oh'
p388
g35
F0.9988
tp389
asI38
(lp390
(S'oh'
p391
g35
F0.9947
tp392
a(S'good'
p393
g9
F0.9861
tp394
asI39
(lp395
(S'now'
p396
g80
F0.9901
tp397
a(g37
g27
F0.9923
tp398
a(S'would'
p399
g21
F0.9999
tp400
a(S'like'
p401
g21
F0.9602
tp402
a(S'you'
p403
g27
F0.9997
tp404
a(S'to'
p405
g52
F0.8974
tp406
a(S'do'
p407
g21
F0.9998
tp408
a(S'something'
p409
g12
F0.9779
tp410
a(S'for'
p411
g52
F0.9995
tp412
a(S'me'
p413
g27
F0.9986
tp414
asI40
(lp415
(S'now'
p416
g80
F0.9901
tp417
a(g37
g27
F0.9923
tp418
a(S'would'
p419
g21
F0.9999
tp420
a(S'like'
p421
g21
F0.9602
tp422
a(S'you'
p423
g27
F0.9997
tp424
a(S'to'
p425
g52
F0.8974
tp426
a(S'do'
p427
g21
F0.9998
tp428
a(S'something'
p429
g12
F0.9779
tp430
a(S'for'
p431
g52
F0.9995
tp432
a(S'me'
p433
g27
F0.9986
tp434
asI41
(lp435
(g37
g27
F0.9866
tp436
a(S'would'
p437
g21
F0.9999
tp438
a(S'like'
p439
g21
F0.9732
tp440
a(S'you'
p441
g27
F0.9996
tp442
a(S'to'
p443
g52
F0.9868
tp444
a(S'tell'
p445
g21
F0.9998
tp446
a(S'me'
p447
g27
F0.9993
tp448
a(S'what'
p449
g27
F0.923
tp450
a(S'your'
p451
g100
F0.9784
tp452
a(S'favorite'
p453
g9
F0.9621
tp454
a(S'color'
p455
g12
F0.9979
tp456
a(S'is'
p457
g21
F0.996
tp458
asI42
(lp459
(S'what'
p460
g27
F0.9224
tp461
a(S'my'
p462
g100
F0.997
tp463
a(S'favorite'
p464
g9
F0.975
tp465
a(S'color'
p466
g12
F0.9982
tp467
a(S'is'
p468
g21
F0.9974
tp469
asI43
(lp470
(S'yes'
p471
g35
F0.9958
tp472
asI44
(lp473
(S'purple'
p474
g9
F0.8823
tp475
asI45
(lp476
(S'what'
p477
g27
F0.9962
tp478
a(S'is'
p479
g21
F0.9997
tp480
a(S'your'
p481
g100
F0.9923
tp482
a(S'favorite'
p483
g9
F0.8561
tp484
a(S'food'
p485
g12
F0.9934
tp486
asI46
(lp487
(S'xxx'
p488
g3
F0.8437
tp489
asI47
(lp490
(S'what'
p491
g27
F0.9784
tp492
a(g71
g21
F0.4928
tp493
a(S'your'
p494
g100
F0.9839
tp495
a(S'favorite'
p496
g9
F0.8561
tp497
a(S'food'
p498
g12
F0.9934
tp499
asI48
(lp500
(S'speak'
p501
g21
F0.9945
tp502
a(S'up'
p503
g88
F0.9694
tp504
asI49
(lp505
(S'speak'
p506
g21
F0.9687
tp507
a(S'in'
p508
g52
F0.9791
tp509
a(S'the'
p510
g100
F0.9992
tp511
a(S'microphone'
p512
g12
F0.9974
tp513
asI50
(lp514
(S'macaroni'
p515
g18
F0.5714
tp516
a(S'and'
p517
g119
F0.9985
tp518
a(S'cheese'
p519
g12
F0.9901
tp520
asI51
(lp521
(S'okay'
p522
g35
F0.9857
tp523
asI52
(lp524
(S'what'
p525
g27
F0.9784
tp526
a(g71
g21
F0.4928
tp527
a(S'your'
p528
g100
F0.9849
tp529
a(S'favorite'
p530
g9
F0.8982
tp531
a(S'movie'
p532
g12
F0.9968
tp533
a(S'star'
p534
g12
F0.8815
tp535
asI53
(lp536
(S'xxx'
p537
g3
F0.8437
tp538
asI54
(lp539
(S'no'
p540
g100
F0.8432
tp541
a(S'singer'
p542
g12
F0.9999
tp543
asI55
(lp544
(S'my'
p545
g100
F0.9969
tp546
a(S'favorite'
p547
g9
F0.9805
tp548
a(S'what'
p549
g27
F0.9766
tp550
asI56
(lp551
(S'sing'
p552
g21
F0.9754
tp553
a(S'singer'
p554
g12
F0.9945
tp555
asI57
(lp556
(S'like'
p557
g52
F0.8074
tp558
a(S'oh'
p559
g35
F0.9347
tp560
a(g37
g27
F0.9898
tp561
a(S'will'
p562
g21
F0.9995
tp563
a(S'always'
p564
g80
F0.9718
tp565
a(S'love'
p566
g21
F0.9963
tp567
a(S'you'
p568
g27
F0.9996
tp569
a(S'singing'
p570
g21
F0.9998
tp571
asI58
(lp572
(S'now'
p573
g80
F0.9871
tp574
a(g71
S'G'
p575
F0.8097
tp576
asI59
(lp577
(S'xxx'
p578
g3
F0.8437
tp579
asI60
(lp580
(S'www'
p581
g18
F0.6198
tp582
a(S'disgusted'
p583
g9
F0.9255
tp584
a(S'sound'
p585
g12
F0.5672
tp586
a(S'hi'
p587
g35
F0.8725
tp588
asI61
(lp589
(g37
g27
F0.953
tp590
a(g152
g21
F0.9629
tp591
a(S'gonna'
p592
g21
F0.9898
tp593
a(S'show'
p594
g21
F0.9897
tp595
a(S'you'
p596
g27
F0.9365
tp597
a(S'guys'
p598
g12
F0.7611
tp599
a(S'an'
p600
g100
F0.955
tp601
a(S'impression'
p602
g12
F0.9997
tp603
a(S'of'
p604
g52
F0.9985
tp605
a(S'me'
p606
g27
F0.9725
tp607
a(S'whitney'
p608
g18
F0.8003
tp609
a(S'houston'
p610
g18
F0.9984
tp611
asI62
(lp612
(S'and'
p613
g119
F0.999
tp614
a(g37
g27
F0.9813
tp615
a(g37
g27
F0.9235
tp616
a(g37
g27
F0.9671
tp617
a(S'will'
p618
g21
F0.9995
tp619
a(S'always'
p620
g80
F0.9744
tp621
a(S'bug'
p622
g21
F0.6539
tp623
a(S'you'
p624
g27
F0.9979
tp625
a(S'and'
p626
g119
F0.9961
tp627
a(g37
g27
F0.9927
tp628
a(S'will'
p629
g21
F0.9999
tp630
a(g173
g100
F0.9559
tp631
a(S'singing'
p632
g21
F0.5785
tp633
asI63
(lp634
(S'hm'
p635
g35
F0.995
tp636
asI64
(lp637
(S'okay'
p638
g35
F0.9616
tp639
a(S'we'
p640
g27
F0.9971
tp641
a(S'll'
p642
g21
F0.5614
tp643
a(S'just'
p644
g80
F0.9997
tp645
a(S'take'
p646
g21
F0.9993
tp647
a(S'that'
p648
g100
F0.9424
tp649
a(S'song'
p650
g12
F0.997
tp651
a(S'here'
p652
g80
F0.9548
tp653
asI65
(lp654
(S'okay'
p655
g35
F0.9554
tp656
a(S'our'
p657
g100
F0.9894
tp658
a(S'life'
p659
g12
F0.9902
tp660
a(S'story'
p661
g12
F0.9949
tp662
a(g71
g21
F0.5002
tp663
a(S'over'
p664
g52
F0.6007
tp665
asI66
(lp666
(S'would'
p667
g21
F0.9987
tp668
a(S'you'
p669
g27
F0.9948
tp670
a(S'like'
p671
g21
F0.942
tp672
a(S'to'
p673
g52
F0.9891
tp674
a(S'hear'
p675
g21
F0.9996
tp676
a(S'it'
p677
g27
F0.9814
tp678
asI67
(lp679
(S'hi'
p680
g35
F0.9779
tp681
a(S'hi'
p682
g35
F0.9708
tp683
a(S'this'
p684
g27
F0.985
tp685
a(S'is'
p686
g21
F0.9987
tp687
a(S'the'
p688
g100
F0.9996
tp689
a(S'life'
p690
g12
F0.9919
tp691
a(S'style'
p692
g12
F0.9977
tp693
a(S'of'
p694
g52
F0.9971
tp695
a(S'fri'
p696
g18
F0.9018
tp697
a(S'burke'
p698
g18
F0.9752
tp699
asI68
(lp700
(S'and'
p701
g119
F0.999
tp702
a(S'she'
p703
g27
F0.998
tp704
a(S'will'
p705
g21
F0.9984
tp706
a(S'tell'
p707
g21
F0.9996
tp708
a(S'you'
p709
g27
F0.9996
tp710
a(S'who'
p711
g27
F0.7616
tp712
a(S'she'
p713
g27
F0.9965
tp714
a(S'likes'
p715
g21
F0.9999
tp716
a(S'her'
p717
g100
F0.9544
tp718
a(S'favorite'
p719
g9
F0.8181
tp720
a(S'singer'
p721
g12
F0.995
tp722
a(S'her'
p723
g100
F0.9484
tp724
a(S'favorite'
p725
g9
F0.8686
tp726
a(S'color'
p727
g12
F0.9627
tp728
a(S'her'
p729
g100
F0.9466
tp730
a(S'favorite'
p731
g9
F0.7518
tp732
a(S'food'
p733
g12
F0.9886
tp734
a(S'what'
p735
g27
F0.7779
tp736
a(S'she'
p737
g27
F0.9989
tp738
a(S'likes'
p739
g21
F0.9996
tp740
a(S'to'
p741
g52
F0.9948
tp742
a(S'wear'
p743
g21
F0.9909
tp744
asI69
(lp745
(S'and'
p746
g119
F0.9987
tp747
a(S'who'
p748
g27
F0.9889
tp749
a(S'she'
p750
g27
F0.9964
tp751
a(S'likes'
p752
g21
F0.9963
tp753
a(S'of'
p754
g52
F0.9755
tp755
a(S'movie'
p756
g12
F0.9862
tp757
a(S'stars'
p758
g12
F0.981
tp759
a(S'or'
p760
g119
F0.9903
tp761
a(S'kids'
p762
g12
F0.9728
tp763
a(S'in'
p764
g52
F0.9978
tp765
a(S'our'
p766
g100
F0.996
tp767
a(S'class'
p768
g12
F0.9972
tp769
asI70
(lp770
(S'now'
p771
g80
F0.9943
tp772
a(S'speak'
p773
g21
F0.999
tp774
a(S'up'
p775
g88
F0.9669
tp776
a(S'because'
p777
g52
F0.999
tp778
a(S'we'
p779
g27
F0.9973
tp780
a(S're'
p781
g21
F0.662
tp782
a(S'getting'
p783
g21
F0.9975
tp784
a(S'ready'
p785
g9
F0.9539
tp786
a(S'for'
p787
g52
F1.0
tp788
a(S'the'
p789
g100
F0.9986
tp790
a(S'show'
p791
g12
F0.9976
tp792
a(S'of'
p793
g52
F0.9968
tp794
a(S'her'
p795
g100
F0.9861
tp796
a(S'life'
p797
g12
F0.9993
tp798
asI71
(lp799
(S'one'
p800
g132
F0.9496
tp801
a(S'two'
p802
g132
F0.9083
tp803
a(S'three'
p804
g132
F0.8429
tp805
asI72
(lp806
(S'hit'
p807
g21
F0.9928
tp808
a(S'it'
p809
g27
F0.9883
tp810
asI73
(lp811
(S'what'
p812
g27
F0.9962
tp813
a(S'is'
p814
g21
F0.9997
tp815
a(S'your'
p816
g100
F0.9928
tp817
a(S'favorite'
p818
g9
F0.8749
tp819
a(S'what'
p820
g27
F0.9928
tp821
a(S'is'
p822
g21
F0.9997
tp823
a(S'your'
p824
g100
F0.9937
tp825
a(S'favorite'
p826
g9
F0.956
tp827
a(S'color'
p828
g12
F0.9936
tp829
asI74
(lp830
(S'my'
p831
g100
F0.9969
tp832
a(S'favorite'
p833
g9
F0.9928
tp834
a(S'color'
p835
g12
F0.9955
tp836
asI75
(lp837
(S'yes'
p838
g35
F0.9958
tp839
asI76
(lp840
(S'xxx'
p841
g3
F0.5309
tp842
a(S'my'
p843
g100
F0.996
tp844
a(S'favorite'
p845
g9
F0.9778
tp846
a(S'color'
p847
g12
F0.9032
tp848
a(S'one'
p849
g132
F0.9862
tp850
a(S'of'
p851
g52
F0.9986
tp852
a(S'them'
p853
g27
F0.9914
tp854
a(S'is'
p855
g21
F0.9958
tp856
a(S'black'
p857
g9
F0.9741
tp858
a(S'xxx'
p859
g3
F0.6219
tp860
a(S'xxx'
p861
g3
F0.9838
tp862
asI77
(lp863
(g37
g27
F0.989
tp864
a(S'think'
p865
g21
F1.0
tp866
a(S'you'
p867
g27
F0.9995
tp868
a(S'need'
p869
g21
F0.9984
tp870
a(S'to'
p871
g52
F0.9812
tp872
a(S'speak'
p873
g21
F0.999
tp874
a(S'louder'
p875
g9
F0.98
tp876
asI78
(lp877
(S'xxx'
p878
g3
F0.8325
tp879
a(S'xxx'
p880
g3
F0.9813
tp881
asI79
(lp882
(S'is'
p883
g21
F0.998
tp884
a(S'that'
p885
g27
F0.7968
tp886
a(S'all'
p887
g100
F0.8298
tp888
asI80
(lp889
(S'xxx'
p890
g3
F0.8437
tp891
asI81
(lp892
(S'now'
p893
g80
F0.9755
tp894
a(S'your'
p895
g100
F0.9788
tp896
a(S'favorite'
p897
g9
F0.8035
tp898
a(S'food'
p899
g12
F0.9963
tp900
asI82
(lp901
(S'my'
p902
g100
F0.9969
tp903
a(S'favorite'
p904
g9
F0.9842
tp905
a(S'food'
p906
g12
F0.997
tp907
asI83
(lp908
(S'xxx'
p909
g3
F0.8252
tp910
a(S'xxx'
p911
g3
F0.966
tp912
a(g37
g27
F0.9849
tp913
a(S'have'
p914
g21
F0.9982
tp915
a(S'one'
p916
g132
F0.8928
tp917
a(S'favorite'
p918
g9
F0.9689
tp919
a(S'food'
p920
g12
F0.9941
tp921
asI84
(lp922
(S'one'
p923
g132
F0.9869
tp924
a(S'of'
p925
g52
F0.9986
tp926
a(S'them'
p927
g27
F0.9934
tp928
a(S'is'
p929
g21
F0.9892
tp930
a(S'pizza'
p931
g12
F0.9404
tp932
asI85
(lp933
(S'okay'
p934
g35
F0.9857
tp935
asI86
(lp936
(S'xxx'
p937
g3
F0.8437
tp938
asI87
(lp939
(S'excuse'
p940
g21
F0.9631
tp941
a(S'me'
p942
g27
F0.9987
tp943
asI88
(lp944
(S'hello'
p945
g35
F0.9965
tp946
asI89
(lp947
(S'now'
p948
g80
F0.9613
tp949
asI90
(lp950
(S'of'
p951
g52
F0.9838
tp952
a(g173
g100
F0.9982
tp953
a(S'movie'
p954
g12
F0.9981
tp955
a(S'star'
p956
g12
F0.9073
tp957
asI91
(lp958
(S'xxx'
p959
g3
F0.8325
tp960
a(S'xxx'
p961
g3
F0.9813
tp962
asI92
(lp963
(S'and'
p964
g119
F0.999
tp965
a(g37
g27
F0.9931
tp966
a(S'will'
p967
g21
F0.9995
tp968
a(S'always'
p969
g80
F0.9732
tp970
a(S'love'
p971
g21
F0.9966
tp972
a(S'you'
p973
g27
F0.9996
tp974
a(S'and'
p975
g119
F0.9961
tp976
a(g37
g27
F0.9927
tp977
a(S'will'
p978
g21
F0.9995
tp979
a(S'always'
p980
g80
F0.9718
tp981
a(S'love'
p982
g21
F0.9942
tp983
a(S'you'
p984
g27
F0.9996
tp985
a(S'singing'
p986
g21
F0.9998
tp987
asI93
(lp988
(S'could'
p989
g21
F0.9986
tp990
a(S'you'
p991
g27
F0.9991
tp992
a(S'hear'
p993
g21
F0.9992
tp994
a(S'me'
p995
g27
F0.9971
tp996
asI94
(lp997
(S'fri'
p998
g18
F0.6288
tp999
asI95
(lp1000
(S'could'
p1001
g21
F0.9986
tp1002
a(S'you'
p1003
g27
F0.9991
tp1004
a(S'hear'
p1005
g21
F0.9992
tp1006
a(S'me'
p1007
g27
F0.9971
tp1008
asI96
(lp1009
(S'speak'
p1010
g21
F0.9673
tp1011
a(S'as'
p1012
g80
F0.7593
tp1013
a(S'loud'
p1014
g9
F0.9821
tp1015
a(S'as'
p1016
g52
F0.9926
tp1017
a(S'you'
p1018
g27
F0.9997
tp1019
a(S'can'
p1020
g21
F0.9995
tp1021
asI97
(lp1022
(S'one'
p1023
g132
F0.9496
tp1024
a(S'two'
p1025
g132
F0.9083
tp1026
a(S'three'
p1027
g132
F0.8429
tp1028
asI98
(lp1029
(S'wait'
p1030
g21
F0.9664
tp1031
a(S'stop'
p1032
g21
F0.7903
tp1033
asI99
(lp1034
(S'stop'
p1035
g21
F0.7591
tp1036
asI100
(lp1037
(S'his'
p1038
g100
F0.9982
tp1039
a(S'name'
p1040
g12
F0.9995
tp1041
a(S'is'
p1042
g21
F0.9971
tp1043
a(S'mark'
p1044
g18
F0.903
tp1045
a(S'paul'
p1046
g18
F0.9965
tp1047
a(S'goosler'
p1048
g18
F0.872
tp1049
asI101
(lp1050
(S'say'
p1051
g21
F0.9697
tp1052
a(S'that'
p1053
g27
F0.6043
tp1054
a(S'okay'
p1055
g35
F0.6514
tp1056
asI102
(lp1057
(S'one'
p1058
g132
F0.958
tp1059
a(S'two'
p1060
g132
F0.9083
tp1061
a(S'three'
p1062
g132
F0.6975
tp1063
a(S'go'
p1064
g21
F0.707
tp1065
asI103
(lp1066
(g37
g27
F0.9708
tp1067
a(S'like'
p1068
g21
F0.8301
tp1069
a(S'mark'
p1070
g18
F0.9071
tp1071
a(S'paul'
p1072
g18
F0.9959
tp1073
a(S'goosler'
p1074
g18
F0.9033
tp1075
a(S'xxx'
p1076
g3
F0.7881
tp1077
asI104
(lp1078
(S'saved'
p1079
g21
F0.9805
tp1080
a(S'by'
p1081
g52
F0.9991
tp1082
a(S'the'
p1083
g100
F0.9977
tp1084
a(S'bell'
p1085
g12
F0.8889
tp1086
asI105
(lp1087
(S'from'
p1088
g52
F0.994
tp1089
a(S'saved'
p1090
g21
F0.9245
tp1091
a(S'by'
p1092
g52
F0.9984
tp1093
a(S'the'
p1094
g100
F0.9978
tp1095
a(S'bell'
p1096
g12
F0.8218
tp1097
asI106
(lp1098
(S'now'
p1099
g80
F0.9887
tp1100
a(S'you'
p1101
g27
F0.996
tp1102
asI107
(lp1103
(S'you'
p1104
g27
F0.9653
tp1105
a(S'bunch'
p1106
g12
F0.9324
tp1107
a(S'of'
p1108
g52
F0.9943
tp1109
a(S'bozos'
p1110
g12
F0.814
tp1111
asI108
(lp1112
(S'whatcha'
p1113
S'L'
p1114
F0.6767
tp1115
a(S'what'
p1116
g27
F0.9903
tp1117
a(S'are'
p1118
g21
F0.9982
tp1119
a(S'you'
p1120
g27
F0.9993
tp1121
a(S'doin'
p1122
g21
F0.9987
tp1123
a(S'g'
p1124
g12
F0.5786
tp1125
a(g37
g27
F0.8975
tp1126
a(g152
g21
F0.9788
tp1127
a(S'sittin'
p1128
g21
F0.8923
tp1129
a(g1124
g21
F0.3136
tp1130
a(S'here'
p1131
g80
F0.9752
tp1132
a(S'xxx'
p1133
g3
F0.5019
tp1134
a(S'and'
p1135
g119
F0.9986
tp1136
a(S'watchin'
p1137
g21
F0.8828
tp1138
a(g1124
g21
F0.3622
tp1139
a(S'the'
p1140
g100
F0.999
tp1141
a(S'snow'
p1142
g12
F0.9787
tp1143
a(S'fall'
p1144
g21
F0.5966
tp1145
a(S'on'
p1146
g52
F0.7248
tp1147
a(S'down'
p1148
g80
F0.5978
tp1149
a(S'on'
p1150
g52
F0.9982
tp1151
a(S'the'
p1152
g100
F0.9995
tp1153
a(S'ground'
p1154
g12
F0.7814
tp1155
a(S'singing'
p1156
g21
F0.9979
tp1157
asI109
(lp1158
(S'hey'
p1159
g35
F0.9965
tp1160
a(S'whatcha'
p1161
g1114
F0.6755
tp1162
a(S'what'
p1163
g27
F0.9906
tp1164
a(S'are'
p1165
g21
F0.9974
tp1166
a(S'you'
p1167
g27
F0.9994
tp1168
a(S'doin'
p1169
g21
F0.9987
tp1170
a(g1124
g575
F0.3789
tp1171
a(S'xxx'
p1172
g575
F0.383
tp1173
a(S'singing'
p1174
g21
F0.9997
tp1175
a(S'no'
p1176
g100
F0.66
tp1177
a(S'www'
p1178
g12
F0.9368
tp1179
a(S'raspberry'
p1180
g12
F0.9691
tp1181
asI110
(lp1182
(S'you'
p1183
g27
F0.9968
tp1184
a(S'off'
p1185
g52
F0.7138
tp1186
a(S'the'
p1187
g100
F0.9998
tp1188
a(S'phone'
p1189
g12
F0.9994
tp1190
a(S'yet'
p1191
g80
F0.9431
tp1192
asI111
(lp1193
(S'is'
p1194
g21
F0.9889
tp1195
a(S'xxx'
p1196
g3
F0.2433
tp1197
a(S'comin'
p1198
g21
F0.9836
tp1199
a(g1124
g21
F0.2164
tp1200
a(S'here'
p1201
g80
F0.9648
tp1202
asI112
(lp1203
(S'what'
p1204
g27
F0.9965
tp1205
a(S'did'
p1206
g21
F0.9698
tp1207
a(g37
g27
F0.9965
tp1208
a(S'say'
p1209
g21
F0.999
tp1210
a(S'to'
p1211
g52
F0.9895
tp1212
a(S'you'
p1213
g27
F0.9984
tp1214
asI113
(lp1215
(S'is'
p1216
g21
F0.9889
tp1217
a(S'xxx'
p1218
g3
F0.2395
tp1219
a(S'coming'
p1220
g21
F0.9966
tp1221
a(S'here'
p1222
g80
F0.9583
tp1223
asI114
(lp1224
(S'xxx'
p1225
g3
F0.6311
tp1226
a(S'need'
p1227
g21
F0.9928
tp1228
a(g173
g100
F0.9957
tp1229
a(S'headband'
p1230
g12
F0.8877
tp1231
a(S'you'
p1232
g27
F0.9661
tp1233
a(S're'
p1234
g21
F0.5665
tp1235
a(S'gonna'
p1236
g21
F0.9908
tp1237
a(S'need'
p1238
g21
F0.998
tp1239
a(S'gloves'
p1240
g12
F0.9495
tp1241
a(S'be'
p1242
g21
F0.9945
tp1243
a(S'cause'
p1244
g52
F0.914
tp1245
a(S'it'
p1246
g27
F0.9966
tp1247
a(g71
g21
F0.4922
tp1248
a(S'cold'
p1249
g9
F0.972
tp1250
a(S'out'
p1251
g52
F0.5546
tp1252
asI115
(lp1253
(S'for'
p1254
g52
F0.9994
tp1255
a(S'your'
p1256
g100
F0.9953
tp1257
a(S'ears'
p1258
g12
F0.9984
tp1259
asI116
(lp1260
(S'where'
p1261
g80
F0.9711
tp1262
a(g71
g575
F0.671
tp1263
a(S'the'
p1264
g100
F0.999
tp1265
a(S'purse'
p1266
g12
F0.9975
tp1267
a(S'xxx'
p1268
g3
F0.8696
tp1269
asI117
(lp1270
(S'www'
p1271
g18
F0.6048
tp1272
a(S'groans'
p1273
g21
F0.8916
tp1274
asI118
(lp1275
(S'grandma'
p1276
g12
F0.5974
tp1277
asI119
(lp1278
(S'why'
p1279
g80
F0.9441
tp1280
a(S'can'
p1281
g21
F0.9874
tp1282
a(g280
g21
F0.6143
tp1283
a(g37
g27
F0.9916
tp1284
a(S'talk'
p1285
g21
F0.9994
tp1286
a(S'to'
p1287
g52
F0.9985
tp1288
a(S'my'
p1289
g100
F0.9973
tp1290
a(S'mom'
p1291
g12
F0.9892
tp1292
asI120
(lp1293
(S'you'
p1294
g27
F0.9875
tp1295
a(S'cannot'
p1296
g21
F0.9933
tp1297
a(S'stay'
p1298
g21
F0.9952
tp1299
a(S'on'
p1300
g52
F0.9677
tp1301
a(S'the'
p1302
g100
F0.9995
tp1303
a(S'phone'
p1304
g12
F0.9984
tp1305
a(S'with'
p1306
g52
F0.9999
tp1307
a(S'your'
p1308
g100
F0.9952
tp1309
a(S'mother'
p1310
g12
F0.9981
tp1311
asI121
(lp1312
(S'your'
p1313
g100
F0.9678
tp1314
a(S'mother'
p1315
g12
F0.9986
tp1316
a(S'is'
p1317
g21
F0.9984
tp1318
a(S'at'
p1319
g52
F0.9928
tp1320
a(S'work'
p1321
g12
F0.9598
tp1322
asI122
(lp1323
(S'you'
p1324
g27
F0.998
tp1325
a(S'want'
p1326
g21
F1.0
tp1327
a(S'her'
p1328
g27
F0.8584
tp1329
a(S'to'
p1330
g52
F0.9964
tp1331
a(S'get'
p1332
g21
F0.9998
tp1333
a(S'in'
p1334
g52
F0.9352
tp1335
a(S'trouble'
p1336
g12
F0.963
tp1337
a(S'and'
p1338
g119
F0.9964
tp1339
a(S'lose'
p1340
g21
F0.9983
tp1341
a(S'her'
p1342
g100
F0.9743
tp1343
a(S'job'
p1344
g12
F0.9975
tp1345
asI123
(lp1346
(S'she'
p1347
g27
F0.9971
tp1348
a(S'said'
p1349
g21
F0.9946
tp1350
a(g37
g27
F0.9957
tp1351
a(S'could'
p1352
g21
F0.9997
tp1353
a(S'talk'
p1354
g21
F0.9911
tp1355
a(S'to'
p1356
g52
F0.9978
tp1357
a(S'her'
p1358
g27
F0.6942
tp1359
asI124
(lp1360
(S'hey'
p1361
g35
F0.9986
tp1362
asI125
(lp1363
(g37
g27
F0.9811
tp1364
a(S'just'
p1365
g80
F0.999
tp1366
a(S'asked'
p1367
g21
F0.998
tp1368
a(S'if'
p1369
g52
F0.9983
tp1370
a(S'you'
p1371
g27
F0.9996
tp1372
a(S'were'
p1373
g21
F0.9975
tp1374
a(S'still'
p1375
g80
F0.9854
tp1376
a(S'on'
p1377
g52
F0.9875
tp1378
a(S'the'
p1379
g100
F0.9995
tp1380
a(S'phone'
p1381
g12
F0.9978
tp1382
asI126
(lp1383
(g37
g27
F0.9946
tp1384
a(S'did'
p1385
g21
F0.9998
tp1386
a(S'not'
p1387
g80
F0.9913
tp1388
a(S'yell'
p1389
g21
F0.818
tp1390
a(S'at'
p1391
g52
F0.9975
tp1392
a(S'you'
p1393
g27
F0.9988
tp1394
asI127
(lp1395
(S'yes'
p1396
g35
F0.9836
tp1397
a(S'you'
p1398
g27
F0.9964
tp1399
a(S'are'
p1400
g21
F0.9991
tp1401
asI128
(lp1402
(S'if'
p1403
g52
F0.984
tp1404
a(g37
g27
F0.9967
tp1405
a(S'yelled'
p1406
g21
F0.9994
tp1407
a(S'at'
p1408
g52
F0.9987
tp1409
a(S'you'
p1410
g27
F0.9983
tp1411
a(S'you'
p1412
g27
F0.9696
tp1413
a(S'd'
p1414
g21
F0.5457
tp1415
a(S'know'
p1416
g21
F0.9988
tp1417
a(S'it'
p1418
g27
F0.9904
tp1419
asI129
(lp1420
(S'you'
p1421
g27
F0.9754
tp1422
a(S're'
p1423
g21
F0.6997
tp1424
a(S'really'
p1425
g80
F0.999
tp1426
a(S'yelling'
p1427
g21
F0.9993
tp1428
a(S'at'
p1429
g52
F0.9969
tp1430
a(S'me'
p1431
g27
F0.9985
tp1432
asI130
(lp1433
(S'oh'
p1434
g35
F0.9904
tp1435
a(S'fine'
p1436
g9
F0.9456
tp1437
a(g37
g27
F0.9592
tp1438
a(S'yelled'
p1439
g21
F0.9986
tp1440
a(S'at'
p1441
g52
F0.9978
tp1442
a(S'you'
p1443
g27
F0.9988
tp1444
asI131
(lp1445
(S'xxx'
p1446
g3
F0.7455
tp1447
a(S'sorry'
p1448
g9
F0.8771
tp1449
a(g37
g27
F0.9864
tp1450
a(S'yelled'
p1451
g21
F0.9986
tp1452
a(S'at'
p1453
g52
F0.9978
tp1454
a(S'you'
p1455
g27
F0.9988
tp1456
asI132
(lp1457
(S'xxx'
p1458
g3
F0.8437
tp1459
asI133
(lp1460
(g37
g27
F0.9914
tp1461
a(S'was'
p1462
g21
F0.9998
tp1463
a(S'being'
p1464
g21
F0.974
tp1465
a(S'angry'
p1466
g9
F0.9272
tp1467
asI134
(lp1468
(S'anyway'
p1469
g80
F0.9788
tp1470
a(g37
g27
F0.9889
tp1471
a(S'told'
p1472
g21
F1.0
tp1473
a(S'you'
p1474
g27
F0.9991
tp1475
a(S'earlier'
p1476
g80
F0.8206
tp1477
a(S'today'
p1478
g12
F0.8903
tp1479
asI135
(lp1480
(S'every'
p1481
g100
F0.9855
tp1482
a(S'day'
p1483
g12
F0.9981
tp1484
a(S'somebody'
p1485
g12
F0.996
tp1486
a(S'is'
p1487
g21
F0.9986
tp1488
a(S'not'
p1489
g80
F0.9979
tp1490
a(S'coming'
p1491
g21
F0.9995
tp1492
a(S'over'
p1493
g52
F0.5476
tp1494
asI136
(lp1495
(S'and'
p1496
g119
F0.999
tp1497
a(g37
g27
F0.9891
tp1498
a(g152
g21
F0.9197
tp1499
a(S'xxx'
p1500
g3
F0.7501
tp1501
asI137
(lp1502
(g37
g27
F0.9817
tp1503
a(S'just'
p1504
g80
F0.999
tp1505
a(S'asked'
p1506
g21
F0.9898
tp1507
asI138
(lp1508
(S'and'
p1509
g119
F0.999
tp1510
a(g37
g27
F0.9942
tp1511
a(S'had'
p1512
g21
F0.9998
tp1513
a(S'told'
p1514
g21
F0.9986
tp1515
a(S'you'
p1516
g27
F0.9992
tp1517
a(S'probably'
p1518
g80
F0.9975
tp1519
a(S'today'
p1520
g12
F0.711
tp1521
a(S'my'
p1522
g100
F0.9983
tp1523
a(S'head'
p1524
g12
F0.9991
tp1525
a(S'is'
p1526
g21
F0.996
tp1527
a(S'still'
p1528
g80
F0.9976
tp1529
a(S'sore'
p1530
g9
F0.9884
tp1531
asI139
(lp1532
(S'my'
p1533
g100
F0.9976
tp1534
a(S'head'
p1535
g12
F0.9942
tp1536
a(S'feels'
p1537
g21
F0.9933
tp1538
a(S'like'
p1539
g52
F0.9456
tp1540
a(S'it'
p1541
g27
F0.9986
tp1542
a(g71
g21
F0.4137
tp1543
a(S'gonna'
p1544
g21
F0.9923
tp1545
a(S'explode'
p1546
g21
F0.9968
tp1547
asI140
(lp1548
(g37
g27
F0.9756
tp1549
a(S'didn'
p1550
g21
F0.9919
tp1551
a(g280
g21
F0.7093
tp1552
a(S'know'
p1553
g21
F0.9926
tp1554
a(S'that'
p1555
g27
F0.836
tp1556
asI141
(lp1557
(S'yes'
p1558
g35
F0.9836
tp1559
a(S'you'
p1560
g27
F0.9988
tp1561
a(S'do'
p1562
g21
F0.9994
tp1563
asI142
(lp1564
(g37
g27
F0.8712
tp1565
a(S'haven'
p1566
g21
F0.8356
tp1567
a(g280
g575
F0.2065
tp1568
a(S'felt'
p1569
g21
F0.9869
tp1570
a(S'good'
p1571
g9
F0.9787
tp1572
a(S'all'
p1573
g100
F0.9831
tp1574
a(S'week'
p1575
g12
F0.986
tp1576
asI143
(lp1577
(S'dav'
p1578
g575
F0.5738
tp1579
a(S'david'
p1580
g18
F0.9731
tp1581
a(S'david'
p1582
g18
F0.9989
tp1583
a(S'two'
p1584
g132
F0.9631
tp1585
a(S'year'
p1586
g12
F0.7666
tp1587
a(S'old'
p1588
g9
F0.9935
tp1589
a(S'cousin'
p1590
g12
F0.9938
tp1591
a(S'doesn'
p1592
g21
F0.9529
tp1593
a(g280
g12
F0.2546
tp1594
a(S'feel'
p1595
g21
F0.9935
tp1596
a(S'good'
p1597
g9
F0.9961
tp1598
asI144
(lp1599
(S'he'
p1600
g27
F0.9888
tp1601
a(g71
g21
F0.7826
tp1602
a(S'sick'
p1603
g9
F0.9796
tp1604
asI145
(lp1605
(S'he'
p1606
g27
F0.9959
tp1607
a(S'has'
p1608
g21
F0.9995
tp1609
a(S'got'
p1610
g21
F0.9973
tp1611
a(S'the'
p1612
g100
F0.9997
tp1613
a(S'stomach'
p1614
g12
F0.9911
tp1615
a(S'thing'
p1616
g12
F0.9886
tp1617
a(S'was'
p1618
g21
F0.9969
tp1619
a(S'goin'
p1620
g21
F0.974
tp1621
a(g1124
g21
F0.5601
tp1622
a(S'around'
p1623
g52
F0.4982
tp1624
asI146
(lp1625
(S'he'
p1626
g27
F0.9959
tp1627
a(S'has'
p1628
g21
F0.9994
tp1629
a(S'been'
p1630
g21
F0.9803
tp1631
a(S'throwing'
p1632
g21
F0.9998
tp1633
a(S'up'
p1634
g88
F0.9052
tp1635
a(S'and'
p1636
g119
F0.9981
tp1637
a(S'diarrhea'
p1638
g12
F0.9748
tp1639
asI147
(lp1640
(S'xxx'
p1641
g3
F0.8437
tp1642
asI148
(lp1643
(S'go'
p1644
g21
F0.9943
tp1645
a(S'out'
p1646
g88
F0.5321
tp1647
a(S'and'
p1648
g119
F0.9948
tp1649
a(S'play'
p1650
g21
F0.9884
tp1651
a(S'with'
p1652
g52
F0.9959
tp1653
a(S'cou'
p1654
g575
F0.5573
tp1655
a(S'xxx'
p1656
g3
F0.5766
tp1657
asI149
(lp1658
(S'xxx'
p1659
g3
F0.8437
tp1660
asI150
(lp1661
(g37
g27
F0.9818
tp1662
a(S'love'
p1663
g21
F0.9997
tp1664
a(S'you'
p1665
g27
F0.9989
tp1666
a(S'very'
p1667
g80
F0.9986
tp1668
a(S'much'
p1669
g9
F0.9563
tp1670
asI151
(lp1671
(S'um'
p1672
g35
F0.9584
tp1673
a(g37
g27
F0.9778
tp1674
a(S'don'
p1675
g21
F0.9187
tp1676
a(g280
g12
F0.2208
tp1677
a(S'know'
p1678
g21
F0.9915
tp1679
a(S'why'
p1680
g80
F0.9733
tp1681
a(g37
g27
F0.9903
tp1682
a(S'couldn'
p1683
g21
F0.9916
tp1684
a(g280
g21
F0.766
tp1685
a(S'sleep'
p1686
g21
F0.9302
tp1687
a(S'over'
p1688
g52
F0.7267
tp1689
a(S'tonight'
p1690
g80
F0.5224
tp1691
asI152
(lp1692
(g37
g27
F0.9827
tp1693
a(S'love'
p1694
g21
F0.9996
tp1695
a(S'you'
p1696
g27
F0.999
tp1697
asI153
(lp1698
(S'bye'
p1699
g35
F0.8632
tp1700
a(S'sing'
p1701
g21
F0.9621
tp1702
a(S'song'
p1703
g12
F0.9946
tp1704
asI154
(lp1705
(S'sleep'
p1706
g21
F0.692
tp1707
a(S'tight'
p1708
g9
F0.9569
tp1709
a(S'www'
p1710
g12
F0.6517
tp1711
a(S'kisses'
p1712
g12
F0.685
tp1713
asI155
(lp1714
(S'love'
p1715
g21
F0.9543
tp1716
a(S'you'
p1717
g27
F0.9986
tp1718
asI156
(lp1719
(S'get'
p1720
g21
F0.9992
tp1721
a(S'me'
p1722
g27
F0.999
tp1723
a(S'xxx'
p1724
g3
F0.511
tp1725
a(S'very'
p1726
g80
F0.9952
tp1727
a(S'early'
p1728
g9
F0.9794
tp1729
asI157
(lp1730
(S'and'
p1731
g119
F0.9992
tp1732
a(S'no'
p1733
g100
F0.6041
tp1734
a(S'kissing'
p1735
g21
F0.9676
tp1736
a(S'kenny'
p1737
g18
F0.993
tp1738
asI158
(lp1739
(S'thank'
p1740
g21
F0.9631
tp1741
a(S'you'
p1742
g27
F0.9987
tp1743
asI159
(lp1744
(S'bye'
p1745
g35
F0.9774
tp1746
as.