(dp0
I0
(lp1
(S'okay'
p2
S'!'
p3
F0.916
tp4
a(S'this'
p5
S'O'
p6
F0.9891
tp7
a(S'is'
p8
S'V'
p9
F0.9969
tp10
a(S'great'
p11
S'A'
p12
F0.9981
tp13
asI1
(lp14
(S'you'
p15
g6
F0.9983
tp16
a(S'know'
p17
g9
F0.9966
tp18
a(S'i'
p19
g6
F0.9912
tp20
a(S'll'
p21
g9
F0.6383
tp22
a(S'barely'
p23
S'R'
p24
F0.9906
tp25
a(S'finish'
p26
g9
F0.9994
tp27
a(S'it'
p28
g6
F0.9874
tp29
asI2
(lp30
(S'mhm'
p31
g3
F0.9747
tp32
asI3
(lp33
(S'our'
p34
S'D'
p35
F0.9916
tp36
a(S'first'
p37
g12
F0.9952
tp38
a(S'family'
p39
S'N'
p40
F0.9829
tp41
a(S'meal'
p42
g40
F0.9989
tp43
a(S'at'
p44
S'P'
p45
F0.9998
tp46
a(S'our'
p47
g35
F0.9947
tp48
a(S'dining'
p49
g9
F0.4775
tp50
a(S'room'
p51
g40
F0.8888
tp52
a(S'table'
p53
g40
F0.9828
tp54
asI4
(lp55
(S'mom'
p56
g40
F0.6216
tp57
a(S'our'
p58
g35
F0.9847
tp59
a(S'first'
p60
g12
F0.9384
tp61
asI5
(lp62
(S'oh'
p63
g3
F0.9987
tp64
a(S'yeah'
p65
g3
F0.9993
tp66
a(S'xxx'
p67
S'E'
p68
F0.7736
tp69
asI6
(lp70
(S'that'
p71
g6
F0.473
tp72
a(S's'
p73
S'G'
p74
F0.472
tp75
a(S'why'
p76
g24
F0.9629
tp77
a(g19
g6
F0.989
tp78
a(S'didn'
p79
g9
F0.9913
tp80
a(S't'
p81
g9
F0.7402
tp82
a(S'want'
p83
g9
F0.9966
tp84
a(S'to'
p85
g45
F0.9936
tp86
a(S'invite'
p87
g9
F0.9988
tp88
a(S'anybody'
p89
g40
F0.9178
tp90
a(S'because'
p91
g45
F0.9994
tp92
a(S'it'
p93
g6
F0.9994
tp94
a(S'was'
p95
g9
F0.9999
tp96
a(S'our'
p97
g35
F0.9987
tp98
a(S'first'
p99
g12
F0.9914
tp100
a(S'one'
p101
S'$'
p102
F0.8832
tp103
asI7
(lp104
(S'yeah'
p105
g3
F0.9988
tp106
asI8
(lp107
(S'yeah'
p108
g3
F0.9988
tp109
asI9
(lp110
(S'so'
p111
g24
F0.5317
tp112
asI10
(lp113
(S'tryin'
p114
g9
F0.9189
tp115
a(S'g'
p116
g9
F0.5224
tp117
a(S'to'
p118
g45
F0.951
tp119
a(S'do'
p120
g9
F1.0
tp121
a(S'it'
p122
g6
F0.9543
tp123
a(S'tape'
p124
g40
F0.5504
tp125
a(S'recording'
p126
g9
F0.9894
tp127
a(S'like'
p128
g45
F0.5302
tp129
a(S'on'
p130
g45
F0.9733
tp131
a(S'sundays'
p132
S'^'
p133
F0.7302
tp134
a(S'is'
p135
g9
F0.997
tp136
a(S'a'
p137
g35
F0.9964
tp138
a(S'good'
p139
g12
F0.9993
tp140
a(S'time'
p141
g40
F0.999
tp142
a(S'be'
p143
g9
F0.9943
tp144
a(S'cause'
p145
g45
F0.9596
tp146
a(S'we'
p147
g6
F0.9951
tp148
a(S're'
p149
g9
F0.5257
tp150
a(S'pretty'
p151
g24
F0.9954
tp152
a(S'much'
p153
g12
F0.7744
tp154
a(S'around'
p155
g45
F0.8102
tp156
asI11
(lp157
(S'yeah'
p158
g3
F0.9988
tp159
asI12
(lp160
(S'yeah'
p161
g3
F0.9988
tp162
asI13
(lp163
(S'and'
p164
S'&'
p165
F0.999
tp166
a(g19
g6
F0.9891
tp167
a(S'm'
p168
g9
F0.9828
tp169
a(S'doing'
p170
g9
F0.9914
tp171
asI14
(lp172
(S'if'
p173
g45
F0.9977
tp174
a(S'you'
p175
g6
F0.9982
tp176
a(S're'
p177
g9
F0.7324
tp178
a(S'doin'
p179
g9
F0.9773
tp180
a(g116
g9
F0.3663
tp181
a(S'that'
p182
g35
F0.5888
tp183
a(S'art'
p184
g40
F0.9553
tp185
a(S'class'
p186
g40
F0.9982
tp187
a(S'on'
p188
g45
F0.9964
tp189
a(S'sundays'
p190
g133
F0.7564
tp191
asI15
(lp192
(S'am'
p193
g9
F0.7695
tp194
a(g19
g6
F0.9954
tp195
a(S'signed'
p196
g9
F0.9998
tp197
a(S'up'
p198
S'T'
p199
F0.9687
tp200
a(S'for'
p201
g45
F0.9985
tp202
a(S'that'
p203
g6
F0.9191
tp204
a(S'yet'
p205
g24
F0.9655
tp206
asI16
(lp207
(S'no'
p208
g3
F0.8024
tp209
a(S'but'
p210
g165
F0.9913
tp211
a(S'you'
p212
g6
F0.9995
tp213
a(S'will'
p214
g9
F0.9995
tp215
a(S'be'
p216
g9
F0.9999
tp217
a(S'this'
p218
g35
F0.9463
tp219
a(S'week'
p220
g40
F0.9936
tp221
asI17
(lp222
(S'okay'
p223
g3
F0.9857
tp224
asI18
(lp225
(S'mm'
p226
g35
F0.2333
tp227
a(S'good'
p228
g12
F0.9867
tp229
a(S'aren'
p230
g133
F0.3669
tp231
a(g81
g74
F0.5144
tp232
a(S'they'
p233
g6
F0.9834
tp234
asI19
(lp235
(S'mhm'
p236
g3
F0.9747
tp237
asI20
(lp238
(S'you'
p239
g6
F0.9406
tp240
a(S'guys'
p241
g40
F0.838
tp242
a(S'like'
p243
g9
F0.5803
tp244
a(S'that'
p245
g6
F0.9192
tp246
asI21
(lp247
(S'yeah'
p248
g3
F0.9988
tp249
asI22
(lp250
(S'and'
p251
g165
F0.9988
tp252
a(S'pork'
p253
g40
F0.9812
tp254
a(S'chops'
p255
g40
F0.9968
tp256
asI23
(lp257
(S'mhm'
p258
g3
F0.9747
tp259
asI24
(lp260
(S'this'
p261
g6
F0.9526
tp262
a(S'is'
p263
g9
F0.9835
tp264
a(S'very'
p265
g24
F0.9959
tp266
a(S'good'
p267
g12
F0.9998
tp268
asI25
(lp269
(S'what'
p270
g6
F0.9784
tp271
a(g73
g9
F0.4928
tp272
a(S'your'
p273
g35
F0.9839
tp274
a(S'favorite'
p275
g12
F0.7991
tp276
a(S'bro'
p277
g40
F0.9817
tp278
asI26
(lp279
(S'huh'
p280
g3
F0.993
tp281
asI27
(lp282
(S'um'
p283
g3
F0.9371
tp284
a(S'hm'
p285
g3
F0.9263
tp286
a(S'it'
p287
g6
F0.9942
tp288
a(g73
g9
F0.4992
tp289
a(S'strawberry'
p290
g40
F0.716
tp291
a(S'and'
p292
g165
F0.9979
tp293
a(S'corn'
p294
g40
F0.9881
tp295
a(S'and'
p296
g165
F0.9981
tp297
a(S'banana'
p298
g40
F0.9705
tp299
asI28
(lp300
(S'oh'
p301
g3
F0.9937
tp302
a(S'isn'
p303
g3
F0.2854
tp304
a(g81
g9
F0.3618
tp305
a(S'that'
p306
g6
F0.5461
tp307
a(S'what'
p308
g6
F0.9839
tp309
a(S'they'
p310
g6
F0.9968
tp311
a(S'think'
p312
g9
F0.9988
tp313
asI29
(lp314
(S'laughs'
p315
g9
F0.9102
tp316
asI30
(lp317
(S'it'
p318
g6
F0.9888
tp319
a(g73
g9
F0.5544
tp320
a(S'not'
p321
g24
F0.9884
tp322
a(S'xxx'
p323
g68
F0.7582
tp324
asI31
(lp325
(S'laughs'
p326
g9
F0.9102
tp327
asI32
(lp328
(S'my'
p329
g35
F0.9974
tp330
a(S'favorite'
p331
g12
F0.7324
tp332
a(g19
g6
F0.9716
tp333
a(S'have'
p334
g9
F0.9985
tp335
a(S'two'
p336
g102
F0.9565
tp337
a(S'favorites'
p338
g40
F0.9928
tp339
asI33
(lp340
(S'can'
p341
g9
F0.9755
tp342
a(g19
g6
F0.987
tp343
a(S'have'
p344
g9
F0.9999
tp345
a(S'some'
p346
g35
F0.9957
tp347
a(S'fruit'
p348
g40
F0.9702
tp349
a(S'salad'
p350
g40
F0.9976
tp351
a(S'please'
p352
g9
F0.9472
tp353
asI34
(lp354
(S'the'
p355
g35
F0.9984
tp356
a(S'ham'
p357
g40
F0.7589
tp358
a(S'and'
p359
g165
F0.9917
tp360
a(S'the'
p361
g35
F0.9986
tp362
a(S'coke'
p363
g40
F0.996
tp364
asI35
(lp365
(S'you'
p366
g6
F0.997
tp367
a(S'bet'
p368
g9
F0.9963
tp369
asI36
(lp370
(S'well'
p371
g3
F0.7553
tp372
a(S'it'
p373
g6
F0.998
tp374
a(S'really'
p375
g24
F0.9919
tp376
a(S'that'
p377
g45
F0.4599
tp378
a(g73
g9
F0.4441
tp379
a(S'that'
p380
g6
F0.5245
tp381
a(g73
g9
F0.769
tp382
a(S'all'
p383
S'X'
p384
F0.6184
tp385
a(S'the'
p386
g35
F0.9998
tp387
a(S'coke'
p388
g40
F0.9968
tp389
a(S'there'
p390
g384
F0.5442
tp391
a(S'is'
p392
g9
F0.9975
tp393
a(S'for'
p394
g45
F0.9907
tp395
a(S'one'
p396
g102
F0.9217
tp397
a(S'thing'
p398
g40
F0.9968
tp399
asI37
(lp400
(S'may'
p401
g9
F0.5705
tp402
a(g19
g6
F0.9835
tp403
asI38
(lp404
(S'may'
p405
g9
F0.6073
tp406
a(g19
g6
F0.9902
tp407
a(S'have'
p408
g9
F0.9999
tp409
a(S'some'
p410
g35
F0.995
tp411
a(S'chips'
p412
g40
F0.9745
tp413
asI39
(lp414
(S'you'
p415
g6
F0.9969
tp416
a(S'can'
p417
g9
F0.9997
tp418
a(S'have'
p419
g9
F1.0
tp420
a(S'my'
p421
g35
F0.9908
tp422
a(S'share'
p423
g40
F0.9265
tp424
a(S'chi'
p425
g74
F0.3878
tp426
asI40
(lp427
(S'your'
p428
g35
F0.8724
tp429
a(S'share'
p430
g40
F0.994
tp431
a(S'of'
p432
g45
F0.9919
tp433
a(S'what'
p434
g6
F0.9909
tp435
asI41
(lp436
(S'wh'
p437
g3
F0.3776
tp438
a(S'what'
p439
g6
F0.995
tp440
a(S'do'
p441
g9
F0.9993
tp442
a(S'you'
p443
g6
F0.9997
tp444
a(S'mean'
p445
g9
F0.9699
tp446
asI42
(lp447
(S'it'
p448
g6
F0.9888
tp449
a(g73
g9
F0.5138
tp450
a(S'just'
p451
g24
F0.9987
tp452
a(g137
g35
F0.9933
tp453
a(S'joke'
p454
g40
F0.9829
tp455
a(S'about'
p456
g45
F0.9994
tp457
a(S'the'
p458
g35
F0.9994
tp459
a(S'coke'
p460
g40
F0.9964
tp461
asI43
(lp462
(S'nobody'
p463
g40
F0.9604
tp464
a(S'got'
p465
g9
F0.9987
tp466
a(S'it'
p467
g6
F0.9867
tp468
asI44
(lp469
(S'yeah'
p470
g3
F0.9988
tp471
asI45
(lp472
(S'oh'
p473
g3
F0.9975
tp474
a(S'yeah'
p475
g3
F0.9991
tp476
a(S'xxx'
p477
g68
F0.461
tp478
a(S'the'
p479
g35
F0.998
tp480
a(S'coke'
p481
g40
F0.996
tp482
asI46
(lp483
(S'so'
p484
g24
F0.4912
tp485
a(S'did'
p486
g9
F0.997
tp487
a(S'you'
p488
g6
F0.9988
tp489
a(S'get'
p490
g9
F0.9999
tp491
a(S'the'
p492
g35
F0.9837
tp493
a(S'you'
p494
g6
F0.9948
tp495
a(S'get'
p496
g9
F0.9998
tp497
a(S'like'
p498
g45
F0.8163
tp499
a(S'your'
p500
g35
F0.9855
tp501
a(S'weekend'
p502
g40
F0.9921
tp503
a(S'homework'
p504
g40
F0.9692
tp505
a(S'all'
p506
g35
F0.6348
tp507
a(S'done'
p508
g9
F0.6122
tp509
asI47
(lp510
(S'do'
p511
g9
F0.9985
tp512
a(S'you'
p513
g6
F0.9996
tp514
a(S'want'
p515
g9
F0.9999
tp516
a(S'some'
p517
g35
F0.9928
tp518
a(S'fruit'
p519
g40
F0.9702
tp520
a(S'salad'
p521
g40
F0.9975
tp522
asI48
(lp523
(S'uh'
p524
g3
F0.9767
tp525
a(S'no'
p526
g3
F0.9528
tp527
asI49
(lp528
(S'do'
p529
g9
F0.9969
tp530
a(S'these'
p531
g35
F0.9888
tp532
a(S'games'
p533
g40
F0.9972
tp534
a(S'have'
p535
g9
F0.9985
tp536
a(S'to'
p537
g45
F0.9829
tp538
a(S'go'
p539
g9
F0.9992
tp540
a(S'back'
p541
g24
F0.9518
tp542
asI50
(lp543
(S'yeah'
p544
g3
F0.9988
tp545
asI51
(lp546
(S'are'
p547
g9
F0.9964
tp548
a(S'you'
p549
g6
F0.9994
tp550
a(S'gonna'
p551
g9
F0.9998
tp552
a(S'do'
p553
g9
F0.9998
tp554
a(S'that'
p555
g6
F0.5354
tp556
a(S'mot'
p557
g74
F0.368
tp558
asI52
(lp559
(S'yeah'
p560
g3
F0.9988
tp561
asI53
(lp562
(S'do'
p563
g9
F0.9929
tp564
a(S'we'
p565
g6
F0.9867
tp566
a(S'you'
p567
g6
F0.9986
tp568
a(S'have'
p569
g9
F0.9996
tp570
a(S'any'
p571
g35
F0.9967
tp572
a(S'kind'
p573
g40
F0.9803
tp574
a(S'of'
p575
g45
F0.9973
tp576
a(S'bread'
p577
g40
F0.9915
tp578
a(S'in'
p579
g45
F0.9992
tp580
a(S'the'
p581
g35
F0.9946
tp582
a(S'uh'
p583
g133
F0.2406
tp584
a(S'pantry'
p585
g40
F0.7005
tp586
asI54
(lp587
(S'there'
p588
g384
F0.4664
tp589
a(g73
g74
F0.6539
tp590
a(g137
g35
F0.994
tp591
a(S'little'
p592
g12
F0.9973
tp593
a(S'bit'
p594
g40
F0.9809
tp595
a(S'of'
p596
g45
F0.9983
tp597
a(S'that'
p598
g35
F0.8683
tp599
a(S'sourdough'
p600
g40
F0.9774
tp601
a(S'left'
p602
g40
F0.4601
tp603
a(g19
g6
F0.9645
tp604
a(S'had'
p605
g9
F0.9999
tp606
a(S'like'
p607
g45
F0.9173
tp608
a(g137
g35
F0.9919
tp609
a(S'hunk'
p610
g40
F0.9988
tp611
a(S'of'
p612
g45
F0.9987
tp613
a(S'it'
p614
g6
F0.9978
tp615
a(S'for'
p616
g45
F0.9977
tp617
a(S'lunch'
p618
g40
F0.8781
tp619
asI55
(lp620
(S'hm'
p621
g3
F0.983
tp622
a(S'maybe'
p623
g24
F0.9528
tp624
a(g19
g6
F0.9898
tp625
a(S'll'
p626
g9
F0.6316
tp627
a(S'just'
p628
g24
F0.9996
tp629
a(S'have'
p630
g9
F0.9994
tp631
a(S'the'
p632
g35
F0.9997
tp633
a(S'potatoes'
p634
g40
F0.9956
tp635
asI56
(lp636
(S'can'
p637
g9
F0.999
tp638
a(S'you'
p639
g6
F0.9985
tp640
a(S'pass'
p641
g9
F0.9963
tp642
a(S'those'
p643
g35
F0.9589
tp644
a(S'potatoes'
p645
g40
F0.9971
tp646
a(S'please'
p647
g9
F0.9568
tp648
asI57
(lp649
(S'yeah'
p650
g3
F0.9988
tp651
asI58
(lp652
(S'yep'
p653
g3
F0.9977
tp654
asI59
(lp655
(S'excuse'
p656
g9
F0.9631
tp657
a(S'me'
p658
g6
F0.9987
tp659
asI60
(lp660
(S'what'
p661
g6
F0.949
tp662
asI61
(lp663
(S'takin'
p664
g9
F0.9844
tp665
a(g116
g74
F0.3906
tp666
a(S'th'
p667
g74
F0.703
tp668
a(S'em'
p669
g6
F0.9181
tp670
a(S'before'
p671
g45
F0.6345
tp672
a(g19
g6
F0.9949
tp673
a(S'pass'
p674
g9
F0.9997
tp675
a(S'them'
p676
g6
F0.9513
tp677
asI62
(lp678
(S'you'
p679
g6
F0.9923
tp680
a(S'like'
p681
g9
F0.687
tp682
a(S'those'
p683
g6
F0.7153
tp684
a(S'chi'
p685
g74
F0.4459
tp686
asI63
(lp687
(S'mhm'
p688
g3
F0.9747
tp689
asI64
(lp690
(S'yeah'
p691
g3
F0.9988
tp692
asI65
(lp693
(S'there'
p694
g384
F0.4664
tp695
a(g73
g74
F0.4577
tp696
a(S'cheese'
p697
g40
F0.988
tp698
a(S'on'
p699
g45
F0.9986
tp700
a(S'them'
p701
g6
F0.9453
tp702
asI66
(lp703
(S'looking'
p704
g9
F0.9896
tp705
a(S'good'
p706
g12
F0.9949
tp707
asI67
(lp708
(S'you'
p709
g6
F0.9968
tp710
a(S'might'
p711
g9
F0.999
tp712
a(S'want'
p713
g9
F0.9998
tp714
a(S'to'
p715
g45
F0.9942
tp716
a(S'try'
p717
g9
F0.9999
tp718
a(S'it'
p719
g6
F0.9889
tp720
asI68
(lp721
(g19
g6
F0.9793
tp722
a(S'll'
p723
g9
F0.7295
tp724
a(S'have'
p725
g9
F0.991
tp726
a(S'one'
p727
g102
F0.8013
tp728
asI69
(lp729
(S'what'
p730
g6
F0.9835
tp731
a(S'are'
p732
g9
F0.9978
tp733
a(S'you'
p734
g6
F0.9991
tp735
a(S'lookin'
p736
g9
F0.9775
tp737
a(g116
g9
F0.4916
tp738
a(S'at'
p739
g45
F0.9814
tp740
asI70
(lp741
(S'oh'
p742
g3
F0.9981
tp743
a(S'okay'
p744
g3
F0.9822
tp745
asI71
(lp746
(S'are'
p747
g9
F0.9964
tp748
a(S'you'
p749
g6
F0.9991
tp750
a(S'eyeing'
p751
g9
F0.9999
tp752
a(S'those'
p753
g35
F0.9619
tp754
a(S'potatoes'
p755
g40
F0.9974
tp756
a(S'over'
p757
g45
F0.9796
tp758
a(S'there'
p759
g24
F0.6956
tp760
asI72
(lp761
(S'it'
p762
g6
F0.9888
tp763
a(g73
g9
F0.5186
tp764
a(S'really'
p765
g24
F0.9995
tp766
a(S'heavy'
p767
g12
F0.9475
tp768
a(S'so'
p769
g24
F0.5309
tp770
a(S'like'
p771
g45
F0.8299
tp772
a(S'pass'
p773
g9
F0.8921
tp774
a(S'it'
p775
g6
F0.9913
tp776
a(S'down'
p777
g199
F0.4939
tp778
a(S'this'
p779
g35
F0.985
tp780
a(S'way'
p781
g40
F0.9669
tp782
asI73
(lp783
(S'yes'
p784
g3
F0.9899
tp785
a(g19
g6
F0.9952
tp786
a(S'got'
p787
g9
F1.0
tp788
a(S'it'
p789
g6
F0.9865
tp790
asI74
(lp791
(g19
g6
F0.9895
tp792
a(S'got'
p793
g9
F0.9999
tp794
a(S'it'
p795
g6
F0.9867
tp796
asI75
(lp797
(S'plus'
p798
g45
F0.4497
tp799
a(S'the'
p800
g35
F0.999
tp801
a(S'bottom'
p802
g40
F0.7718
tp803
a(g73
g74
F0.7534
tp804
a(S'hot'
p805
g12
F0.9529
tp806
a(S'there'
p807
g24
F0.9366
tp808
a(S'fat'
p809
g12
F0.9965
tp810
asI76
(lp811
(g19
g6
F0.989
tp812
a(S'think'
p813
g9
F1.0
tp814
a(S'you'
p815
g6
F0.9995
tp816
a(S'had'
p817
g9
F0.9993
tp818
a(S'better'
p819
g12
F0.6817
tp820
a(S'try'
p821
g40
F0.5386
tp822
a(S'to'
p823
g45
F0.9977
tp824
a(S'keep'
p825
g9
F0.9998
tp826
a(S'it'
p827
g6
F0.9861
tp828
a(S'on'
p829
g45
F0.8269
tp830
a(S'uh'
p831
g3
F0.4419
tp832
a(S'placemats'
p833
g40
F0.7873
tp834
a(S'too'
p835
g24
F0.9633
tp836
asI77
(lp837
(S'www'
p838
g133
F0.3889
tp839
asI78
(lp840
(S'yes'
p841
g3
F0.9958
tp842
asI79
(lp843
(S'hot'
p844
g12
F0.8061
tp845
asI80
(lp846
(S'laughs'
p847
g9
F0.9102
tp848
asI81
(lp849
(S'xxx'
p850
g68
F0.8437
tp851
asI82
(lp852
(S'giggles'
p853
g9
F0.5513
tp854
asI83
(lp855
(S'did'
p856
g9
F0.9986
tp857
a(S'you'
p858
g6
F0.9924
tp859
a(S'you'
p860
g6
F0.9948
tp861
a(S'said'
p862
g9
F0.9998
tp863
a(S'you'
p864
g6
F0.9972
tp865
a(S'didn'
p866
g9
F0.9878
tp867
a(g81
g9
F0.6731
tp868
a(S'get'
p869
g9
F0.9991
tp870
a(S'all'
p871
g35
F0.8595
tp872
a(S'your'
p873
g35
F0.9908
tp874
a(S'homework'
p875
g40
F0.9997
tp876
a(S'done'
p877
g9
F0.9831
tp878
asI84
(lp879
(S'excuse'
p880
g9
F0.9631
tp881
a(S'me'
p882
g6
F0.9987
tp883
asI85
(lp884
(S'math'
p885
g40
F0.8735
tp886
asI86
(lp887
(S'and'
p888
g165
F0.9988
tp889
a(S'what'
p890
g6
F0.9926
tp891
a(S'else'
p892
g24
F0.8715
tp893
a(S'do'
p894
g9
F0.998
tp895
a(S'you'
p896
g6
F0.9996
tp897
a(S'have'
p898
g9
F0.9981
tp899
asI87
(lp900
(S'book'
p901
g40
F0.9152
tp902
a(S'report'
p903
g40
F0.9015
tp904
asI88
(lp905
(S'book'
p906
g40
F0.8497
tp907
a(S'bookie'
p908
g40
F0.7537
tp909
a(S'port'
p910
g40
F0.9769
tp911
a(S'wp'
p912
g40
F0.7306
tp913
asI89
(lp914
(S'oh'
p915
g3
F0.9903
tp916
a(S'no'
p917
g3
F0.9381
tp918
a(g19
g6
F0.9536
tp919
a(S'meant'
p920
g9
F0.9998
tp921
a(S'your'
p922
g35
F0.9945
tp923
a(S'weekend'
p924
g40
F0.992
tp925
a(S'homework'
p926
g40
F0.9916
tp927
asI90
(lp928
(S'oh'
p929
g3
F0.9988
tp930
asI91
(lp931
(S'you'
p932
g6
F0.998
tp933
a(S'have'
p934
g9
F0.9998
tp935
a(S'all'
p936
g35
F0.8659
tp937
a(S'your'
p938
g35
F0.9907
tp939
a(S'weekend'
p940
g40
F0.9921
tp941
a(S'homework'
p942
g40
F0.9902
tp943
a(S'done'
p944
g9
F0.989
tp945
a(S'right'
p946
g24
F0.455
tp947
asI92
(lp948
(S'mhm'
p949
g3
F0.9747
tp950
asI93
(lp951
(S'all'
p952
g384
F0.437
tp953
a(S'you'
p954
g6
F0.9981
tp955
a(S'had'
p956
g9
F0.999
tp957
a(S'was'
p958
g9
F0.9949
tp959
a(S'the'
p960
g35
F0.9998
tp961
a(S'math'
p962
g40
F0.9658
tp963
asI94
(lp964
(S'yeah'
p965
g3
F0.9988
tp966
asI95
(lp967
(S'hm'
p968
g3
F0.995
tp969
asI96
(lp970
(S'chi'
p971
g133
F0.4283
tp972
a(S'remem'
p973
g9
F0.4825
tp974
a(S'you'
p975
g6
F0.9971
tp976
a(S'y'
p977
g24
F0.8489
tp978
a(S'do'
p979
g9
F0.9962
tp980
a(S'you'
p981
g6
F0.9997
tp982
a(S'remember'
p983
g9
F0.9988
tp984
a(S'how'
p985
g24
F0.991
tp986
a(g19
g6
F0.9971
tp987
a(S'told'
p988
g9
F1.0
tp989
a(S'you'
p990
g6
F0.9946
tp991
a(S'um'
p992
g9
F0.5801
tp993
a(S'to'
p994
g45
F0.9881
tp995
a(S'start'
p996
g9
F0.9995
tp997
a(S'that'
p998
g35
F0.8769
tp999
a(S'book'
p1000
g40
F0.983
tp1001
a(S'report'
p1002
g40
F0.8353
tp1003
asI97
(lp1004
(S'to'
p1005
g45
F0.9946
tp1006
a(S'write'
p1007
g9
F0.9984
tp1008
a(S'down'
p1009
g199
F0.7155
tp1010
a(S'ideas'
p1011
g40
F0.9571
tp1012
asI98
(lp1013
(S'well'
p1014
g3
F0.8956
tp1015
a(S'he'
p1016
g6
F0.9989
tp1017
a(S'has'
p1018
g9
F0.9994
tp1019
a(S'got'
p1020
g9
F0.9965
tp1021
a(S'an'
p1022
g35
F0.9969
tp1023
a(S'outline'
p1024
g40
F0.9963
tp1025
a(S'for'
p1026
g45
F0.9999
tp1027
a(S'it'
p1028
g6
F0.9984
tp1029
asI99
(lp1030
(S'you'
p1031
g6
F0.9983
tp1032
a(S'know'
p1033
g9
F0.9994
tp1034
a(S'he'
p1035
g6
F0.9968
tp1036
a(S'should'
p1037
g9
F0.9995
tp1038
a(S'just'
p1039
g24
F0.9996
tp1040
a(S'go'
p1041
g9
F0.9966
tp1042
a(S'by'
p1043
g45
F0.9986
tp1044
a(S'the'
p1045
g35
F0.9991
tp1046
a(S'outline'
p1047
g40
F0.9975
tp1048
asI100
(lp1049
(S'you'
p1050
g6
F0.9969
tp1051
a(S'do'
p1052
g9
F0.9993
tp1053
asI101
(lp1054
(S'you'
p1055
g6
F0.9983
tp1056
a(S'know'
p1057
g9
F0.9995
tp1058
a(S'we'
p1059
g6
F0.9971
tp1060
a(S'll'
p1061
g9
F0.7831
tp1062
a(S'do'
p1063
g9
F0.9979
tp1064
a(S'maybe'
p1065
g24
F0.9594
tp1066
a(S'one'
p1067
g102
F0.9173
tp1068
a(S'page'
p1069
g40
F0.9984
tp1070
a(S'of'
p1071
g45
F0.9995
tp1072
a(S'the'
p1073
g35
F0.9993
tp1074
a(S'outline'
p1075
g40
F0.9935
tp1076
a(S'each'
p1077
g35
F0.9525
tp1078
a(S'day'
p1079
g40
F0.9969
tp1080
a(S'this'
p1081
g35
F0.9658
tp1082
a(S'week'
p1083
g40
F0.9956
tp1084
asI102
(lp1085
(S'yes'
p1086
g3
F0.9958
tp1087
asI103
(lp1088
(S'you'
p1089
g6
F0.9974
tp1090
a(S'know'
p1091
g9
F0.9967
tp1092
asI104
(lp1093
(S'that'
p1094
g6
F0.4727
tp1095
a(g73
g74
F0.7488
tp1096
a(S'xxx'
p1097
g68
F0.487
tp1098
asI105
(lp1099
(S'ugh'
p1100
g3
F0.9949
tp1101
asI106
(lp1102
(S'laughs'
p1103
g9
F0.9102
tp1104
asI107
(lp1105
(S'you'
p1106
g6
F0.9983
tp1107
a(S'know'
p1108
g9
F0.9986
tp1109
a(S'just'
p1110
g24
F0.9993
tp1111
a(S'cut'
p1112
g9
F0.9913
tp1113
a(S'it'
p1114
g6
F0.9918
tp1115
a(S'off'
p1116
g199
F0.7366
tp1117
a(S'and'
p1118
g165
F0.9966
tp1119
a(S'put'
p1120
g9
F0.9962
tp1121
a(S'it'
p1122
g6
F0.972
tp1123
a(S'on'
p1124
g45
F0.9766
tp1125
a(S'the'
p1126
g35
F0.9994
tp1127
a(S'side'
p1128
g40
F0.9977
tp1129
a(S'of'
p1130
g45
F0.9989
tp1131
a(S'your'
p1132
g35
F0.995
tp1133
a(S'plate'
p1134
g40
F0.9989
tp1135
asI108
(lp1136
(S'right'
p1137
g3
F0.861
tp1138
asI109
(lp1139
(S'sometimes'
p1140
g24
F0.9537
tp1141
a(S'if'
p1142
g45
F0.9987
tp1143
a(S'you'
p1144
g6
F0.9997
tp1145
a(S'eat'
p1146
g9
F0.9995
tp1147
a(S'that'
p1148
g6
F0.7709
tp1149
a(S'with'
p1150
g45
F0.9993
tp1151
a(S'the'
p1152
g35
F0.9995
tp1153
a(S'potato'
p1154
g40
F0.9937
tp1155
a(S'you'
p1156
g6
F0.9875
tp1157
a(S'don'
p1158
g9
F0.8626
tp1159
a(g81
g74
F0.3083
tp1160
a(S'even'
p1161
g24
F0.9868
tp1162
a(S'notice'
p1163
g9
F0.9931
tp1164
a(S'it'
p1165
g6
F0.989
tp1166
asI110
(lp1167
(S'no'
p1168
g3
F0.9253
tp1169
asI111
(lp1170
(S'laughs'
p1171
g9
F0.9102
tp1172
asI112
(lp1173
(S'wait'
p1174
g9
F0.9863
tp1175
a(S'till'
p1176
g45
F0.9936
tp1177
a(S'you'
p1178
g6
F0.9994
tp1179
a(S'xxx'
p1180
g9
F0.9137
tp1181
a(S'it'
p1182
g6
F0.9897
tp1183
asI113
(lp1184
(S'sometimes'
p1185
g24
F0.95
tp1186
a(S'you'
p1187
g6
F0.9987
tp1188
a(S'don'
p1189
g9
F0.851
tp1190
a(g81
g74
F0.5134
tp1191
asI114
(lp1192
(S'how'
p1193
g24
F0.9764
tp1194
a(g73
g74
F0.8998
tp1195
a(S'gabe'
p1196
g133
F0.9785
tp1197
a(S'friend'
p1198
g40
F0.9467
tp1199
a(S'of'
p1200
g45
F0.999
tp1201
a(S'chi'
p1202
g133
F0.9142
tp1203
a(S'doin'
p1204
g9
F0.9745
tp1205
a(g116
g40
F0.3198
tp1206
asI115
(lp1207
(S'good'
p1208
g12
F0.9644
tp1209
asI116
(lp1210
(S'good'
p1211
g12
F0.9722
tp1212
a(S'he'
p1213
g6
F0.9909
tp1214
a(S'looks'
p1215
g9
F0.9987
tp1216
a(S'excellent'
p1217
g12
F0.9887
tp1218
asI117
(lp1219
(S'good'
p1220
g12
F0.9644
tp1221
asI118
(lp1222
(S'xxx'
p1223
g68
F0.8437
tp1224
asI119
(lp1225
(S'what'
p1226
g6
F0.9931
tp1227
a(S'have'
p1228
g9
F0.9995
tp1229
a(S'you'
p1230
g6
F0.9993
tp1231
a(S'seen'
p1232
g9
F0.9999
tp1233
a(S'him'
p1234
g6
F0.9949
tp1235
a(S'lately'
p1236
g24
F0.993
tp1237
asI120
(lp1238
(S'mhm'
p1239
g3
F0.9747
tp1240
asI121
(lp1241
(S'he'
p1242
g6
F0.9925
tp1243
a(S'looks'
p1244
g9
F0.9996
tp1245
a(S'like'
p1246
g45
F0.9626
tp1247
a(g137
g35
F0.9683
tp1248
a(S'totally'
p1249
g24
F0.9981
tp1250
a(S'different'
p1251
g12
F0.9992
tp1252
a(S'person'
p1253
g40
F0.9897
tp1254
asI122
(lp1255
(S'he'
p1256
g6
F0.9905
tp1257
a(g73
g9
F0.78
tp1258
a(S'at'
p1259
g45
F0.9942
tp1260
a(S'school'
p1261
g40
F0.9918
tp1262
asI123
(lp1263
(S'yes'
p1264
g3
F0.9958
tp1265
asI124
(lp1266
(S'yeah'
p1267
g3
F0.9988
tp1268
asI125
(lp1269
(S'it'
p1270
g6
F0.9888
tp1271
a(g73
g9
F0.5248
tp1272
a(S'so'
p1273
g24
F0.9064
tp1274
a(S'amusing'
p1275
g12
F0.9846
tp1276
asI126
(lp1277
(S'now'
p1278
g24
F0.9939
tp1279
a(S'does'
p1280
g9
F0.9992
tp1281
a(S'he'
p1282
g6
F0.999
tp1283
a(S'have'
p1284
g9
F0.9997
tp1285
a(S'to'
p1286
g45
F0.9971
tp1287
a(S'make'
p1288
g9
F0.9993
tp1289
a(S'up'
p1290
g199
F0.9764
tp1291
a(S'all'
p1292
g35
F0.8898
tp1293
a(S'of'
p1294
g45
F0.9878
tp1295
a(S'that'
p1296
g35
F0.96
tp1297
a(S'time'
p1298
g40
F0.9968
tp1299
a(S'he'
p1300
g6
F0.9877
tp1301
a(S'missed'
p1302
g9
F0.9996
tp1303
asI127
(lp1304
(S'uhhuh'
p1305
g3
F0.9892
tp1306
asI128
(lp1307
(S'yeah'
p1308
g3
F0.9988
tp1309
asI129
(lp1310
(S'huh'
p1311
g3
F0.993
tp1312
asI130
(lp1313
(S'yep'
p1314
g3
F0.9977
tp1315
asI131
(lp1316
(g19
g6
F0.989
tp1317
a(S'think'
p1318
g9
F0.9999
tp1319
a(S'he'
p1320
g6
F0.9962
tp1321
a(g73
g9
F0.5916
tp1322
a(S'gonna'
p1323
g9
F0.9923
tp1324
a(S'repeat'
p1325
g9
F0.9763
tp1326
a(S'third'
p1327
g12
F0.9669
tp1328
a(S'www'
p1329
g40
F0.5408
tp1330
a(S'clears'
p1331
g9
F0.9388
tp1332
a(S'throat'
p1333
g40
F0.7073
tp1334
a(S'third'
p1335
g12
F0.9867
tp1336
a(S'grade'
p1337
g40
F0.9959
tp1338
asI132
(lp1339
(S'yeah'
p1340
g3
F0.9926
tp1341
a(S'dad'
p1342
g40
F0.8537
tp1343
asI133
(lp1344
(S'or'
p1345
g165
F0.9864
tp1346
a(S'or'
p1347
g165
F0.9895
tp1348
a(S'go'
p1349
g9
F0.9871
tp1350
a(S'to'
p1351
g45
F0.9892
tp1352
a(S'summer'
p1353
g40
F0.8622
tp1354
asI134
(lp1355
(S'what'
p1356
g6
F0.9492
tp1357
a(g19
g6
F0.9885
tp1358
a(S'what'
p1359
g6
F0.9605
tp1360
a(S'if'
p1361
g45
F0.9991
tp1362
a(S'he'
p1363
g6
F0.9981
tp1364
a(S'went'
p1365
g9
F0.9995
tp1366
a(S'to'
p1367
g45
F0.9846
tp1368
a(S'summer'
p1369
g40
F0.6673
tp1370
a(S'school'
p1371
g40
F0.9988
tp1372
asI135
(lp1373
(g19
g6
F0.9635
tp1374
a(S'don'
p1375
g9
F0.9231
tp1376
a(g81
g40
F0.2457
tp1377
a(S'know'
p1378
g9
F0.9915
tp1379
a(S'what'
p1380
g6
F0.9777
tp1381
a(S'he'
p1382
g6
F0.9987
tp1383
a(S'wants'
p1384
g9
F0.9999
tp1385
a(S'to'
p1386
g45
F0.9717
tp1387
a(S'do'
p1388
g9
F0.9994
tp1389
asI136
(lp1390
(g19
g6
F0.9635
tp1391
a(S'don'
p1392
g9
F0.9231
tp1393
a(g81
g40
F0.2457
tp1394
a(S'know'
p1395
g9
F0.997
tp1396
a(S'if'
p1397
g45
F0.9987
tp1398
a(S'he'
p1399
g6
F0.9988
tp1400
a(S'wants'
p1401
g9
F0.9999
tp1402
a(S'to'
p1403
g45
F0.9803
tp1404
a(S'go'
p1405
g9
F0.999
tp1406
a(S'on'
p1407
g45
F0.8407
tp1408
a(S'to'
p1409
g45
F0.9709
tp1410
a(S'fourth'
p1411
g12
F0.9321
tp1412
a(S'grade'
p1413
g40
F0.9953
tp1414
asI137
(lp1415
(S'oh'
p1416
g3
F0.9979
tp1417
a(S'oh'
p1418
g3
F0.9997
tp1419
asI138
(lp1420
(S'he'
p1421
g6
F0.99
tp1422
a(S'wouldn'
p1423
g9
F0.9856
tp1424
a(g81
g9
F0.7375
tp1425
a(S'really'
p1426
g24
F0.9986
tp1427
a(S'be'
p1428
g9
F0.9988
tp1429
a(S'prepared'
p1430
g12
F0.6685
tp1431
a(S'for'
p1432
g45
F0.9999
tp1433
a(S'it'
p1434
g6
F0.9984
tp1435
asI139
(lp1436
(S'he'
p1437
g6
F0.9913
tp1438
a(S'really'
p1439
g24
F0.9974
tp1440
a(S'missed'
p1441
g9
F0.9998
tp1442
a(g137
g35
F0.9958
tp1443
a(S'lot'
p1444
g40
F0.9347
tp1445
asI140
(lp1446
(S'yeah'
p1447
g3
F0.9988
tp1448
asI141
(lp1449
(S'but'
p1450
g165
F0.9925
tp1451
a(S'what'
p1452
g6
F0.982
tp1453
a(S'he'
p1454
g6
F0.9987
tp1455
a(S'likes'
p1456
g9
F0.9998
tp1457
a(S'what'
p1458
g6
F0.9941
tp1459
a(S'if'
p1460
g45
F0.999
tp1461
a(S'he'
p1462
g6
F0.9988
tp1463
a(S'likes'
p1464
g9
F0.9996
tp1465
a(S'summer'
p1466
g40
F0.8992
tp1467
a(S'school'
p1468
g40
F0.9975
tp1469
asI142
(lp1470
(S'unhunh'
p1471
g3
F0.3818
tp1472
asI143
(lp1473
(S'maybe'
p1474
g24
F0.9614
tp1475
a(S'if'
p1476
g45
F0.9957
tp1477
a(S'that'
p1478
g6
F0.8536
tp1479
a(g73
g74
F0.4295
tp1480
a(S'what'
p1481
g6
F0.9433
tp1482
a(S'he'
p1483
g6
F0.9987
tp1484
a(S'wants'
p1485
g9
F0.9999
tp1486
a(S'to'
p1487
g45
F0.9711
tp1488
a(S'do'
p1489
g9
F0.9996
tp1490
a(S'but'
p1491
g165
F0.9887
tp1492
a(g19
g6
F0.9956
tp1493
a(S'think'
p1494
g9
F0.9999
tp1495
a(S'they'
p1496
g6
F0.9738
tp1497
a(S're'
p1498
g9
F0.7815
tp1499
a(S'in'
p1500
g45
F0.9757
tp1501
a(S'no'
p1502
g35
F0.9547
tp1503
a(S'hurry'
p1504
g40
F0.9173
tp1505
a(S'to'
p1506
g45
F0.9883
tp1507
asI144
(lp1508
(S'right'
p1509
g3
F0.861
tp1510
asI145
(lp1511
(S'ya'
p1512
g3
F0.8536
tp1513
a(S'you'
p1514
g6
F0.9988
tp1515
a(S'know'
p1516
g9
F0.9977
tp1517
asI146
(lp1518
(S'ah'
p1519
g3
F0.996
tp1520
asI147
(lp1521
(g19
g6
F0.989
tp1522
a(S'think'
p1523
g9
F0.9999
tp1524
a(S'he'
p1525
g6
F0.9952
tp1526
a(S'still'
p1527
g24
F0.9966
tp1528
a(S'goes'
p1529
g9
F0.9981
tp1530
a(S'into'
p1531
g45
F0.9957
tp1532
a(S'the'
p1533
g35
F0.9994
tp1534
a(S'hospital'
p1535
g40
F0.9806
tp1536
a(S'and'
p1537
g165
F0.9983
tp1538
a(S'stuff'
p1539
g40
F0.9479
tp1540
asI148
(lp1541
(S'right'
p1542
g3
F0.4565
tp1543
a(S'doesn'
p1544
g9
F0.7329
tp1545
a(g81
g74
F0.3054
tp1546
a(S'he'
p1547
g6
F0.9794
tp1548
a(S'chi'
p1549
g9
F0.382
tp1550
a(S'have'
p1551
g9
F0.997
tp1552
a(S'to'
p1553
g45
F0.9842
tp1554
asI149
(lp1555
(S'he'
p1556
g6
F0.9722
tp1557
a(g116
g9
F0.8708
tp1558
a(S'he'
p1559
g6
F0.9987
tp1560
a(S'has'
p1561
g9
F0.9998
tp1562
a(S'to'
p1563
g45
F0.9956
tp1564
a(S'get'
p1565
g9
F0.9999
tp1566
a(S'some'
p1567
g35
F0.9858
tp1568
a(S'sort'
p1569
g40
F0.9891
tp1570
a(S'of'
p1571
g45
F0.995
tp1572
a(S'test'
p1573
g40
F0.9766
tp1574
a(S'blood'
p1575
g40
F0.9819
tp1576
a(S'test'
p1577
g40
F0.9292
tp1578
a(S'every'
p1579
g35
F0.8968
tp1580
a(S'coupla'
p1581
g40
F0.8673
tp1582
a(S'couple'
p1583
g40
F0.9958
tp1584
a(S'of'
p1585
g45
F0.9959
tp1586
a(S'days'
p1587
g40
F0.9877
tp1588
a(S'or'
p1589
g165
F0.9911
tp1590
a(S'twice'
p1591
g24
F0.9589
tp1592
a(g137
g35
F0.9967
tp1593
a(S'week'
p1594
g40
F0.9972
tp1595
a(S'or'
p1596
g165
F0.9911
tp1597
a(S'something'
p1598
g40
F0.9953
tp1599
asI150
(lp1600
(S'uhhuh'
p1601
g3
F0.9892
tp1602
asI151
(lp1603
(S'hm'
p1604
g3
F0.995
tp1605
asI152
(lp1606
(S'he'
p1607
g6
F0.9925
tp1608
a(S'looks'
p1609
g9
F0.9983
tp1610
a(S'fantastic'
p1611
g12
F0.9936
tp1612
a(S'though'
p1613
g45
F0.927
tp1614
asI153
(lp1615
(S'yeah'
p1616
g3
F0.9988
tp1617
asI154
(lp1618
(S'um'
p1619
g3
F0.8887
tp1620
a(S'me'
p1621
g6
F0.998
tp1622
a(S'and'
p1623
g165
F0.9901
tp1624
a(S'gee'
p1625
g3
F0.5748
tp1626
a(S'gabe'
p1627
g133
F0.9424
tp1628
a(S'we'
p1629
g6
F0.9737
tp1630
a(S're'
p1631
g9
F0.678
tp1632
a(S'on'
p1633
g45
F0.9811
tp1634
a(S'the'
p1635
g35
F0.9996
tp1636
a(S'way'
p1637
g40
F0.9586
tp1638
a(S'home'
p1639
g40
F0.5588
tp1640
a(S'we'
p1641
g6
F0.957
tp1642
a(S're'
p1643
g9
F0.6536
tp1644
a(S'having'
p1645
g9
F0.9991
tp1646
a(g137
g35
F0.981
tp1647
a(S'uh'
p1648
g40
F0.2664
tp1649
a(S'contest'
p1650
g40
F0.9768
tp1651
a(S'to'
p1652
g45
F0.9992
tp1653
a(S'see'
p1654
g9
F0.9987
tp1655
a(S'if'
p1656
g45
F0.9928
tp1657
a(g19
g6
F0.9967
tp1658
a(S'can'
p1659
g9
F0.9998
tp1660
a(S'make'
p1661
g9
F0.9999
tp1662
a(S'him'
p1663
g6
F0.9745
tp1664
a(S'say'
p1665
g9
F0.9621
tp1666
a(S'yes'
p1667
g3
F0.9741
tp1668
a(S'q'
p1669
g74
F0.3891
tp1670
asI155
(lp1671
(S'and'
p1672
g165
F0.9987
tp1673
a(S'then'
p1674
g24
F0.9837
tp1675
a(S'at'
p1676
g45
F0.9994
tp1677
a(S'the'
p1678
g35
F0.9932
tp1679
a(S'um'
p1680
g74
F0.3645
tp1681
a(S'end'
p1682
g40
F0.9554
tp1683
a(S'of'
p1684
g45
F0.9994
tp1685
a(S'the'
p1686
g35
F0.9993
tp1687
a(S'car'
p1688
g40
F0.9959
tp1689
a(S'ride'
p1690
g9
F0.8984
tp1691
a(S'when'
p1692
g24
F0.98
tp1693
a(S'he'
p1694
g6
F0.9968
tp1695
a(S'gets'
p1696
g9
F1.0
tp1697
a(S'out'
p1698
g199
F0.8244
tp1699
a(S'and'
p1700
g165
F0.995
tp1701
a(S'before'
p1702
g45
F0.9374
tp1703
a(S'he'
p1704
g6
F0.9986
tp1705
a(S'closes'
p1706
g9
F0.9998
tp1707
a(S'the'
p1708
g35
F0.9995
tp1709
a(S'door'
p1710
g40
F0.9966
tp1711
asI156
(lp1712
(S'he'
p1713
g6
F0.9728
tp1714
a(S'close'
p1715
g12
F0.6596
tp1716
a(S'and'
p1717
g165
F0.9965
tp1718
a(S'then'
p1719
g24
F0.979
tp1720
a(S'he'
p1721
g6
F0.9963
tp1722
a(S'opens'
p1723
g9
F0.9999
tp1724
a(S'it'
p1725
g6
F0.9776
tp1726
asI157
(lp1727
(S'laughs'
p1728
g9
F0.9102
tp1729
asI158
(lp1730
(S'he'
p1731
g6
F0.9945
tp1732
a(S'goes'
p1733
g9
F0.9984
tp1734
a(S'chi'
p1735
g133
F0.3143
tp1736
a(S'um'
p1737
g3
F0.7941
tp1738
a(S'chi'
p1739
g133
F0.6731
tp1740
a(S'by'
p1741
g45
F0.9992
tp1742
a(S'the'
p1743
g35
F0.9995
tp1744
a(S'way'
p1745
g40
F0.9296
tp1746
a(g977
g24
F0.7035
tp1747
a(g977
g24
F0.7388
tp1748
a(S'you'
p1749
g6
F0.9993
tp1750
a(S'didn'
p1751
g9
F0.9878
tp1752
a(g81
g9
F0.7869
tp1753
a(S'make'
p1754
g9
F0.9982
tp1755
a(S'me'
p1756
g6
F0.9941
tp1757
a(S'say'
p1758
g9
F0.9613
tp1759
a(S'yes'
p1760
g3
F0.9926
tp1761
asI159
(lp1762
(S'and'
p1763
g165
F0.999
tp1764
a(g19
g6
F0.993
tp1765
a(S'go'
p1766
g9
F0.9991
tp1767
a(S'gotcha'
p1768
g24
F0.6446
tp1769
asI160
(lp1770
(S'and'
p1771
g165
F0.9989
tp1772
a(S'he'
p1773
g6
F0.9968
tp1774
a(S'goes'
p1775
g9
F0.9983
tp1776
a(S'aw'
p1777
g3
F0.9667
tp1778
asI161
(lp1779
(S'laughs'
p1780
g9
F0.9102
tp1781
asI162
(lp1782
(S'laughs'
p1783
g9
F0.9102
tp1784
asI163
(lp1785
(S'oh'
p1786
g3
F0.9938
tp1787
a(S'laughs'
p1788
g9
F0.9068
tp1789
asI164
(lp1790
(g19
g6
F0.8981
tp1791
a(S'um'
p1792
g3
F0.5214
tp1793
a(S'in'
p1794
g45
F0.9529
tp1795
a(S'that'
p1796
g6
F0.785
tp1797
a(S'in'
p1798
g45
F0.9878
tp1799
a(S'jan'
p1800
g133
F0.9975
tp1801
a(S'in'
p1802
g45
F0.9747
tp1803
a(S'in'
p1804
g45
F0.8508
tp1805
a(S'in'
p1806
g45
F0.9478
tp1807
a(S'babysit'
p1808
g40
F0.5119
tp1809
asI165
(lp1810
(S'in'
p1811
g45
F0.8576
tp1812
asI166
(lp1813
(S'use'
p1814
g9
F0.9473
tp1815
a(S'your'
p1816
g35
F0.9927
tp1817
a(S'fork'
p1818
g40
F0.9987
tp1819
a(S'bro'
p1820
g40
F0.9814
tp1821
asI167
(lp1822
(S'xxx'
p1823
g68
F0.8111
tp1824
a(S'yes'
p1825
g3
F0.9809
tp1826
asI168
(lp1827
(S'yeah'
p1828
g3
F0.9906
tp1829
a(S'push'
p1830
g9
F0.9445
tp1831
a(S'all'
p1832
g35
F0.8324
tp1833
a(S'your'
p1834
g35
F0.986
tp1835
a(S'corn'
p1836
g40
F0.9995
tp1837
a(S'back'
p1838
g24
F0.6296
tp1839
a(S'into'
p1840
g45
F0.9996
tp1841
a(S'the'
p1842
g35
F0.9994
tp1843
a(S'middle'
p1844
g40
F0.9638
tp1845
a(S'of'
p1846
g45
F0.9992
tp1847
a(S'your'
p1848
g35
F0.9952
tp1849
a(S'plate'
p1850
g40
F0.9989
tp1851
asI169
(lp1852
(S'yes'
p1853
g3
F0.9958
tp1854
asI170
(lp1855
(S'and'
p1856
g165
F0.9987
tp1857
a(S'then'
p1858
g24
F0.9932
tp1859
a(S'and'
p1860
g165
F0.9971
tp1861
a(S'then'
p1862
g24
F0.9964
tp1863
a(S'and'
p1864
g165
F0.9976
tp1865
a(S'then'
p1866
g24
F0.9957
tp1867
a(S'like'
p1868
g45
F0.5274
tp1869
a(S'and'
p1870
g165
F0.9978
tp1871
a(S'then'
p1872
g24
F0.992
tp1873
a(g19
g6
F0.997
tp1874
a(S'did'
p1875
g9
F1.0
tp1876
a(S'it'
p1877
g6
F0.9395
tp1878
a(S'loud'
p1879
g12
F0.8156
tp1880
a(S'like'
p1881
g45
F0.9533
tp1882
asI171
(lp1883
(S'you'
p1884
g6
F0.9981
tp1885
a(S'said'
p1886
g9
F0.9936
tp1887
a(S'yes'
p1888
g3
F0.9851
tp1889
a(g1669
g40
F0.3647
tp1890
a(S'and'
p1891
g165
F0.9965
tp1892
a(S'like'
p1893
g45
F0.4502
tp1894
a(S'aw'
p1895
g3
F0.6929
tp1896
a(g1669
g74
F0.4489
tp1897
asI172
(lp1898
(S'sounds'
p1899
g9
F0.9523
tp1900
a(S'like'
p1901
g45
F0.9039
tp1902
a(S'then'
p1903
g24
F0.9641
tp1904
a(S'he'
p1905
g6
F0.9957
tp1906
a(g73
g9
F0.8374
tp1907
a(S'like'
p1908
g45
F0.8233
tp1909
a(S'aw'
p1910
g3
F0.6929
tp1911
a(g1669
g74
F0.4489
tp1912
asI173
(lp1913
(S'chuckles'
p1914
g9
F0.8006
tp1915
asI174
(lp1916
(S'did'
p1917
g9
F0.9935
tp1918
a(S'they'
p1919
g6
F0.9957
tp1920
a(S'got'
p1921
g9
F0.9999
tp1922
a(S'you'
p1923
g6
F0.9989
tp1924
a(S'to'
p1925
g45
F0.9764
tp1926
a(S'say'
p1927
g9
F0.9927
tp1928
a(S'yes'
p1929
g3
F0.9759
tp1930
a(g1669
g74
F0.3946
tp1931
asI175
(lp1932
(S'what'
p1933
g6
F0.9784
tp1934
a(g73
g9
F0.4797
tp1935
a(S'this'
p1936
g6
F0.9099
tp1937
a(S'on'
p1938
g45
F0.969
tp1939
a(S'the'
p1940
g35
F0.9915
tp1941
a(S'xxx'
p1942
g68
F0.4627
tp1943
asI176
(lp1944
(S'you'
p1945
g6
F0.9926
tp1946
a(S'don'
p1947
g9
F0.8675
tp1948
a(g81
g9
F0.4066
tp1949
a(S'like'
p1950
g45
F0.8699
tp1951
a(S'it'
p1952
g6
F0.9986
tp1953
asI177
(lp1954
(S'here'
p1955
g24
F0.9141
tp1956
a(S'use'
p1957
g9
F0.7372
tp1958
a(S'the'
p1959
g35
F0.9993
tp1960
a(S'fork'
p1961
g40
F0.9942
tp1962
a(S'to'
p1963
g45
F0.9951
tp1964
a(S'like'
p1965
g9
F0.9831
tp1966
a(S'to'
p1967
g45
F0.9761
tp1968
a(S'pile'
p1969
g9
F0.9494
tp1970
a(S'it'
p1971
g6
F0.9749
tp1972
a(S'on'
p1973
g45
F0.9415
tp1974
a(S'there'
p1975
g24
F0.5148
tp1976
asI178
(lp1977
(S'yeah'
p1978
g3
F0.9962
tp1979
a(S'but'
p1980
g165
F0.9927
tp1981
a(S'you'
p1982
g6
F0.9972
tp1983
a(S're'
p1984
g9
F0.7717
tp1985
a(S'not'
p1986
g24
F0.9956
tp1987
a(S'xxx'
p1988
g68
F0.4755
tp1989
a(S'he'
p1990
g6
F0.9961
tp1991
a(S'was'
p1992
g9
F0.9993
tp1993
a(S'just'
p1994
g24
F0.9998
tp1995
a(S'laughing'
p1996
g9
F0.9925
tp1997
a(S'at'
p1998
g45
F0.9915
tp1999
a(S'xxx'
p2000
g68
F0.5783
tp2001
asI179
(lp2002
(S'he'
p2003
g6
F0.9927
tp2004
a(S'probably'
p2005
g24
F0.9994
tp2006
a(S'didn'
p2007
g9
F0.9513
tp2008
a(g81
g9
F0.741
tp2009
a(S'even'
p2010
g24
F0.9955
tp2011
a(S'know'
p2012
g9
F0.9949
tp2013
a(S'what'
p2014
g6
F0.9785
tp2015
a(S'you'
p2016
g6
F0.9993
tp2017
a(S'were'
p2018
g9
F0.9978
tp2019
a(S'talking'
p2020
g9
F0.9831
tp2021
a(S'about'
p2022
g45
F0.9796
tp2023
a(S'laughs'
p2024
g9
F0.8623
tp2025
asI180
(lp2026
(g19
g6
F0.9635
tp2027
a(S'don'
p2028
g9
F0.9231
tp2029
a(g81
g9
F0.4066
tp2030
a(S'like'
p2031
g45
F0.8699
tp2032
a(S'it'
p2033
g6
F0.9986
tp2034
asI181
(lp2035
(S'please'
p2036
g9
F0.8727
tp2037
a(g19
g6
F0.9894
tp2038
a(g168
g9
F0.973
tp2039
a(S'just'
p2040
g24
F0.9992
tp2041
a(S'showin'
p2042
g9
F0.9396
tp2043
a(g116
g9
F0.5505
tp2044
a(S'you'
p2045
g6
F0.9968
tp2046
asI182
(lp2047
(S'you'
p2048
g6
F0.9966
tp2049
a(S'put'
p2050
g9
F0.9987
tp2051
a(S'this'
p2052
g6
F0.7333
tp2053
a(S'in'
p2054
g45
F0.8724
tp2055
a(S'here'
p2056
g24
F0.9686
tp2057
a(S'and'
p2058
g165
F0.9966
tp2059
a(S'go'
p2060
g9
F0.9921
tp2061
a(S'like'
p2062
g45
F0.9453
tp2063
a(S'this'
p2064
g6
F0.8919
tp2065
asI183
(lp2066
(S'uhhuh'
p2067
g3
F0.9892
tp2068
asI184
(lp2069
(S'look'
p2070
g9
F0.8183
tp2071
asI185
(lp2072
(S'you'
p2073
g6
F0.9963
tp2074
a(S'push'
p2075
g9
F0.9987
tp2076
a(S'it'
p2077
g6
F0.9896
tp2078
a(S'together'
p2079
g24
F0.8973
tp2080
asI186
(lp2081
(S'uhuh'
p2082
g3
F0.9688
tp2083
a(S'daddy'
p2084
g40
F0.9309
tp2085
a(S'no'
p2086
g3
F0.7585
tp2087
asI187
(lp2088
(S'would'
p2089
g9
F0.9987
tp2090
a(S'you'
p2091
g6
F0.998
tp2092
a(S'take'
p2093
g9
F0.9999
tp2094
a(S'your'
p2095
g35
F0.9964
tp2096
a(S'fork'
p2097
g40
F0.9973
tp2098
a(S'back'
p2099
g24
F0.6662
tp2100
a(S'please'
p2101
g9
F0.9419
tp2102
asI188
(lp2103
(S'www'
p2104
g133
F0.4558
tp2105
a(S'barks'
p2106
g133
F0.4859
tp2107
asI189
(lp2108
(S'take'
p2109
g9
F0.9961
tp2110
a(S'your'
p2111
g35
F0.9956
tp2112
a(S'fork'
p2113
g40
F0.9985
tp2114
asI190
(lp2115
(S'no'
p2116
g35
F0.5918
tp2117
a(S'flying'
p2118
g9
F0.9042
tp2119
a(S'silverware'
p2120
g40
F0.8269
tp2121
a(S'in'
p2122
g45
F0.998
tp2123
a(S'our'
p2124
g35
F0.9922
tp2125
a(S'dining'
p2126
g9
F0.5559
tp2127
a(S'room'
p2128
g40
F0.966
tp2129
asI191
(lp2130
(S'now'
p2131
g24
F0.994
tp2132
a(S'come'
p2133
g9
F0.9971
tp2134
a(S'on'
p2135
g45
F0.7099
tp2136
a(S'guys'
p2137
g40
F0.9964
tp2138
asI192
(lp2139
(S'laughs'
p2140
g9
F0.9102
tp2141
asI193
(lp2142
(S'okay'
p2143
g3
F0.9857
tp2144
asI194
(lp2145
(S'mhm'
p2146
g3
F0.9206
tp2147
a(S'xxx'
p2148
g68
F0.7883
tp2149
asI195
(lp2150
(S'that'
p2151
g6
F0.473
tp2152
a(g73
g9
F0.8719
tp2153
a(S'it'
p2154
g6
F0.9928
tp2155
a(S'for'
p2156
g45
F0.9982
tp2157
a(S'that'
p2158
g35
F0.8964
tp2159
a(S'bottle'
p2160
g40
F0.9966
tp2161
a(S'of'
p2162
g45
F0.9973
tp2163
a(S'coke'
p2164
g40
F0.9848
tp2165
asI196
(lp2166
(S'ram'
p2167
g40
F0.5687
tp2168
a(S'world'
p2169
g40
F0.985
tp2170
asI197
(lp2171
(S'uh'
p2172
g3
F0.9561
tp2173
a(S'bro'
p2174
g40
F0.9293
tp2175
a(S'do'
p2176
g9
F0.9977
tp2177
a(S'you'
p2178
g6
F0.9996
tp2179
a(S'do'
p2180
g9
F0.9999
tp2181
a(S'you'
p2182
g6
F0.9997
tp2183
a(S'want'
p2184
g9
F1.0
tp2185
a(S'your'
p2186
g35
F0.9707
tp2187
a(S'coca'
p2188
g40
F0.9834
tp2189
a(S'cola'
p2190
g40
F0.9852
tp2191
asI198
(lp2192
(S'yeah'
p2193
g3
F0.9988
tp2194
asI199
(lp2195
(S'chuckles'
p2196
g9
F0.8006
tp2197
asI200
(lp2198
(S'why'
p2199
g24
F0.8527
tp2200
asI201
(lp2201
(S'do'
p2202
g9
F0.9985
tp2203
a(S'you'
p2204
g6
F0.9996
tp2205
a(S'want'
p2206
g9
F0.9996
tp2207
a(S'more'
p2208
g12
F0.8268
tp2209
a(S'coca'
p2210
g40
F0.9616
tp2211
a(S'cola'
p2212
g40
F0.9916
tp2213
asI202
(lp2214
(S'laughs'
p2215
g9
F0.9102
tp2216
asI203
(lp2217
(S'yeah'
p2218
g3
F0.9945
tp2219
a(S'laughs'
p2220
g9
F0.9273
tp2221
asI204
(lp2222
(S'there'
p2223
g384
F0.4664
tp2224
a(g73
g74
F0.579
tp2225
a(S'cranberry'
p2226
g12
F0.6253
tp2227
a(S'juice'
p2228
g40
F0.9976
tp2229
asI205
(lp2230
(S'and'
p2231
g165
F0.9987
tp2232
a(S'there'
p2233
g24
F0.8037
tp2234
a(g73
g74
F0.6305
tp2235
a(S'orange'
p2236
g12
F0.9752
tp2237
a(S'juice'
p2238
g40
F0.9927
tp2239
asI206
(lp2240
(S'coke'
p2241
g40
F0.9461
tp2242
asI207
(lp2243
(S'and'
p2244
g165
F0.9988
tp2245
a(S'milk'
p2246
g40
F0.9909
tp2247
asI208
(lp2248
(S'and'
p2249
g165
F0.998
tp2250
a(S'xxx'
p2251
g68
F0.6761
tp2252
asI209
(lp2253
(S'chuckles'
p2254
g9
F0.8006
tp2255
asI210
(lp2256
(S'well'
p2257
g3
F0.6848
tp2258
a(S'can'
p2259
g9
F0.9786
tp2260
a(g19
g6
F0.9862
tp2261
a(S'have'
p2262
g9
F0.9998
tp2263
a(S'some'
p2264
g35
F0.9962
tp2265
a(S'coke'
p2266
g40
F0.9935
tp2267
asI211
(lp2268
(S'uhuh'
p2269
g3
F0.9919
tp2270
asI212
(lp2271
(S'laughs'
p2272
g9
F0.9102
tp2273
asI213
(lp2274
(S'burps'
p2275
g9
F0.4198
tp2276
asI214
(lp2277
(S'burps'
p2278
g9
F0.4198
tp2279
asI215
(lp2280
(S'mom'
p2281
g40
F0.7188
tp2282
asI216
(lp2283
(S'laughs'
p2284
g9
F0.9102
tp2285
asI217
(lp2286
(S'well'
p2287
g3
F0.8871
tp2288
a(S'my'
p2289
g35
F0.992
tp2290
a(S'mouth'
p2291
g40
F0.9998
tp2292
a(S'is'
p2293
g9
F0.9958
tp2294
a(S'full'
p2295
g12
F0.9647
tp2296
a(g19
g6
F0.8967
tp2297
a(g168
g9
F0.977
tp2298
a(S'not'
p2299
g24
F0.9953
tp2300
a(S'gonna'
p2301
g9
F0.997
tp2302
a(S'say'
p2303
g9
F0.9993
tp2304
a(S'anything'
p2305
g40
F0.9797
tp2306
asI218
(lp2307
(S'don'
p2308
g133
F0.5427
tp2309
a(g81
g133
F0.4015
tp2310
a(S'burp'
p2311
g9
F0.6232
tp2312
a(S'at'
p2313
g45
F0.9981
tp2314
a(S'the'
p2315
g35
F0.9991
tp2316
a(S'table'
p2317
g40
F0.9914
tp2318
a(S'okay'
p2319
g3
F0.7334
tp2320
asI219
(lp2321
(S'especially'
p2322
g24
F0.9967
tp2323
a(S'with'
p2324
g45
F0.9997
tp2325
a(S'the'
p2326
g35
F0.9995
tp2327
a(S'tape'
p2328
g40
F0.9988
tp2329
a(S'on'
p2330
g45
F0.9956
tp2331
a(S'laughing'
p2332
g9
F0.6433
tp2333
asI220
(lp2334
(S'ya'
p2335
g3
F0.7646
tp2336
a(S'you'
p2337
g6
F0.9987
tp2338
a(S'know'
p2339
g9
F0.9976
tp2340
a(S'other'
p2341
g12
F0.9966
tp2342
a(S'people'
p2343
g40
F0.9992
tp2344
a(S'are'
p2345
g9
F0.9922
tp2346
a(S'going'
p2347
g9
F0.9772
tp2348
a(S'to'
p2349
g45
F0.9825
tp2350
a(S'listen'
p2351
g9
F0.9998
tp2352
a(S'to'
p2353
g45
F0.9969
tp2354
a(S'our'
p2355
g35
F0.938
tp2356
asI221
(lp2357
(S'oh'
p2358
g3
F0.9909
tp2359
a(S'this'
p2360
g35
F0.9133
tp2361
a(S'tape'
p2362
g40
F0.9978
tp2363
a(g73
g74
F0.767
tp2364
a(S'on'
p2365
g45
F0.8563
tp2366
asI222
(lp2367
(S'yeah'
p2368
g3
F0.9945
tp2369
a(S'laughs'
p2370
g9
F0.9273
tp2371
asI223
(lp2372
(S'laughs'
p2373
g9
F0.9102
tp2374
asI224
(lp2375
(S'exactly'
p2376
g24
F0.9424
tp2377
a(S'laughs'
p2378
g9
F0.9765
tp2379
asI225
(lp2380
(S'xxx'
p2381
g68
F0.5414
tp2382
a(S'recorded'
p2383
g9
F0.9805
tp2384
a(S'in'
p2385
g45
F0.9672
tp2386
a(S'the'
p2387
g35
F0.9991
tp2388
a(S'good'
p2389
g12
F0.9745
tp2390
a(S'burp'
p2391
g40
F0.8698
tp2392
asI226
(lp2393
(S'burps'
p2394
g9
F0.4198
tp2395
asI227
(lp2396
(S'laughs'
p2397
g9
F0.9102
tp2398
asI228
(lp2399
(S'laughs'
p2400
g9
F0.9102
tp2401
asI229
(lp2402
(S'aw'
p2403
g3
F0.9852
tp2404
a(S'gross'
p2405
g12
F0.9879
tp2406
asI230
(lp2407
(S'burp'
p2408
g3
F0.4074
tp2409
asI231
(lp2410
(S'laughs'
p2411
g9
F0.9102
tp2412
asI232
(lp2413
(S'what'
p2414
g6
F0.9931
tp2415
a(S'do'
p2416
g9
F0.9991
tp2417
a(S'you'
p2418
g6
F0.9997
tp2419
a(S'say'
p2420
g9
F0.9924
tp2421
asI233
(lp2422
(S'would'
p2423
g9
F0.9986
tp2424
a(S'you'
p2425
g6
F0.9892
tp2426
a(S'um'
p2427
g3
F0.8005
tp2428
asI234
(lp2429
(g19
g6
F0.9897
tp2430
a(S'want'
p2431
g9
F0.9997
tp2432
a(S'people'
p2433
g40
F0.997
tp2434
a(S'to'
p2435
g45
F0.9966
tp2436
a(S'think'
p2437
g9
F0.9997
tp2438
a(S'we'
p2439
g6
F0.9985
tp2440
a(S'got'
p2441
g9
F0.9997
tp2442
a(S'some'
p2443
g35
F0.9947
tp2444
a(S'manners'
p2445
g40
F0.9898
tp2446
asI235
(lp2447
(S'www'
p2448
g133
F0.6828
tp2449
a(S'giggles'
p2450
g40
F0.7404
tp2451
a(g19
g6
F0.9767
tp2452
a(S'thought'
p2453
g9
F0.9997
tp2454
a(S'you'
p2455
g6
F0.999
tp2456
a(S'were'
p2457
g9
F0.999
tp2458
a(S'um'
p2459
g3
F0.5131
tp2460
a(S'just'
p2461
g24
F0.9996
tp2462
a(S'talking'
p2463
g9
F0.9983
tp2464
a(S'about'
p2465
g45
F0.9393
tp2466
a(S'uh'
p2467
g3
F0.5607
tp2468
a(S'doing'
p2469
g9
F0.9992
tp2470
a(S'some'
p2471
g35
F0.9929
tp2472
a(S'romantic'
p2473
g12
F0.9928
tp2474
a(S'music'
p2475
g40
F0.9991
tp2476
asI236
(lp2477
(g19
g6
F0.953
tp2478
a(g168
g9
F0.9901
tp2479
a(S'like'
p2480
g45
F0.8757
tp2481
a(S'no'
p2482
g35
F0.7384
tp2483
a(S'come'
p2484
g9
F0.6883
tp2485
a(S'on'
p2486
g45
F0.5026
tp2487
asI237
(lp2488
(S'chi'
p2489
g133
F0.7469
tp2490
a(S'would'
p2491
g9
F0.9992
tp2492
a(S'you'
p2493
g6
F0.9879
tp2494
a(S'um'
p2495
g9
F0.3248
tp2496
a(S'ask'
p2497
g9
F0.9784
tp2498
a(S'mr'
p2499
g133
F0.8831
tp2500
a(S'giampa'
p2501
g133
F0.6459
tp2502
a(S'something'
p2503
g40
F0.9808
tp2504
a(S'for'
p2505
g45
F0.9997
tp2506
a(S'me'
p2507
g6
F0.9881
tp2508
a(S'monday'
p2509
g133
F0.7009
tp2510
a(S'when'
p2511
g24
F0.9831
tp2512
a(S'you'
p2513
g6
F0.9983
tp2514
a(S'go'
p2515
g9
F0.9984
tp2516
a(S'there'
p2517
g24
F0.9687
tp2518
asI238
(lp2519
(S'no'
p2520
g3
F0.9253
tp2521
asI239
(lp2522
(S'no'
p2523
g3
F0.9253
tp2524
asI240
(lp2525
(S'maybe'
p2526
g24
F0.9308
tp2527
asI241
(lp2528
(S'ask'
p2529
g9
F0.9975
tp2530
a(S'him'
p2531
g6
F0.991
tp2532
a(S'if'
p2533
g45
F0.9989
tp2534
a(S'he'
p2535
g6
F0.9986
tp2536
a(S'has'
p2537
g9
F0.9997
tp2538
a(S'like'
p2539
g45
F0.8952
tp2540
a(g137
g35
F0.9227
tp2541
a(S'how'
p2542
g24
F0.994
tp2543
a(S'to'
p2544
g45
F0.9959
tp2545
a(S'use'
p2546
g9
F0.9319
tp2547
a(S'microscope'
p2548
g40
F0.8829
tp2549
a(S'book'
p2550
g40
F0.975
tp2551
a(S'at'
p2552
g45
F0.9999
tp2553
a(S'his'
p2554
g35
F0.999
tp2555
a(S'house'
p2556
g40
F0.99
tp2557
asI242
(lp2558
(S'doesn'
p2559
g9
F0.8416
tp2560
a(g81
g74
F0.5174
tp2561
a(S'chi'
p2562
g74
F0.7847
tp2563
a(g73
g74
F0.9687
tp2564
asI243
(lp2565
(S'um'
p2566
g3
F0.8582
tp2567
a(S'isn'
p2568
g74
F0.4461
tp2569
a(g81
g74
F0.7302
tp2570
a(S'there'
p2571
g24
F0.5248
tp2572
a(S'one'
p2573
g102
F0.9566
tp2574
a(S'with'
p2575
g45
F0.9999
tp2576
a(S'his'
p2577
g35
F0.9878
tp2578
asI244
(lp2579
(S'n'
p2580
g165
F0.9105
tp2581
a(S'no'
p2582
g35
F0.4672
tp2583
asI245
(lp2584
(S'yeah'
p2585
g3
F0.9978
tp2586
a(S'but'
p2587
g165
F0.9895
tp2588
asI246
(lp2589
(S'okay'
p2590
g3
F0.9857
tp2591
asI247
(lp2592
(S'okay'
p2593
g3
F0.9469
tp2594
a(S'you'
p2595
g6
F0.9895
tp2596
a(S'good'
p2597
g12
F0.9987
tp2598
a(S'lad'
p2599
g40
F0.9981
tp2600
asI248
(lp2601
(S'laughs'
p2602
g9
F0.9102
tp2603
asI249
(lp2604
(S'was'
p2605
g9
F0.9931
tp2606
a(S'there'
p2607
g384
F0.5903
tp2608
a(g137
g35
F0.9975
tp2609
a(S'lot'
p2610
g40
F0.9809
tp2611
a(S'of'
p2612
g45
F0.9968
tp2613
a(S'people'
p2614
g40
F0.9986
tp2615
a(S'at'
p2616
g45
F0.9999
tp2617
a(S'the'
p2618
g35
F0.9971
tp2619
a(S'arcade'
p2620
g133
F0.5965
tp2621
asI250
(lp2622
(S'yes'
p2623
g3
F0.9958
tp2624
asI251
(lp2625
(S'mortal'
p2626
g12
F0.9251
tp2627
a(S'combat'
p2628
g40
F0.9925
tp2629
a(S'two'
p2630
g102
F0.8232
tp2631
a(S'giggles'
p2632
g40
F0.8749
tp2633
asI252
(lp2634
(S'very'
p2635
g24
F0.9928
tp2636
a(S'strong'
p2637
g12
F0.9997
tp2638
a(S'smell'
p2639
g40
F0.9231
tp2640
a(S'of'
p2641
g45
F0.9974
tp2642
a(S'garlic'
p2643
g40
F0.9724
tp2644
a(S'there'
p2645
g24
F0.8379
tp2646
a(S'too'
p2647
g24
F0.9702
tp2648
asI253
(lp2649
(S'have'
p2650
g9
F0.9991
tp2651
a(S'you'
p2652
g6
F0.9992
tp2653
a(S'smelled'
p2654
g9
F0.9997
tp2655
a(S'it'
p2656
g6
F0.9831
tp2657
a(S'laughs'
p2658
g9
F0.9978
tp2659
asI254
(lp2660
(S'gross'
p2661
g12
F0.9374
tp2662
asI255
(lp2663
(S'and'
p2664
g165
F0.9983
tp2665
a(S'yucky'
p2666
g12
F0.9336
tp2667
a(S'talk'
p2668
g40
F0.8514
tp2669
a(S'too'
p2670
g24
F0.9041
tp2671
asI256
(lp2672
(S'xxx'
p2673
g68
F0.8437
tp2674
asI257
(lp2675
(S'ew'
p2676
g3
F0.9751
tp2677
a(S'that'
p2678
g6
F0.6083
tp2679
a(g73
g9
F0.5498
tp2680
a(S'the'
p2681
g35
F0.9981
tp2682
a(S'most'
p2683
g24
F0.9594
tp2684
a(S'disgusting'
p2685
g12
F0.9989
tp2686
a(S'mall'
p2687
g40
F0.9891
tp2688
asI258
(lp2689
(S'ugh'
p2690
g3
F0.9949
tp2691
asI259
(lp2692
(S'and'
p2693
g165
F0.9991
tp2694
a(S'they'
p2695
g6
F0.9626
tp2696
a(S're'
p2697
g9
F0.7546
tp2698
a(S'smoking'
p2699
g9
F0.9803
tp2700
a(S'cigarettes'
p2701
g40
F0.9572
tp2702
asI260
(lp2703
(S'the'
p2704
g35
F0.999
tp2705
a(S'worst'
p2706
g12
F0.9994
tp2707
a(S'people'
p2708
g40
F0.9997
tp2709
a(S'go'
p2710
g9
F0.9929
tp2711
a(S'there'
p2712
g24
F0.9766
tp2713
asI261
(lp2714
(S'they'
p2715
g6
F0.9104
tp2716
a(S're'
p2717
g9
F0.7878
tp2718
a(S'smoking'
p2719
g9
F0.9879
tp2720
a(S'cigarettes'
p2721
g40
F0.9788
tp2722
asI262
(lp2723
(S'well'
p2724
g3
F0.9291
tp2725
a(S'yeah'
p2726
g3
F0.998
tp2727
a(S'yeah'
p2728
g3
F0.997
tp2729
a(S'eh'
p2730
g3
F0.9207
tp2731
a(S'um'
p2732
g3
F0.9322
tp2733
a(S'some'
p2734
g35
F0.9778
tp2735
a(S'guy'
p2736
g40
F0.9351
tp2737
a(S'was'
p2738
g9
F0.9936
tp2739
a(S'smoking'
p2740
g9
F0.9827
tp2741
asI263
(lp2742
(S'in'
p2743
g45
F0.9914
tp2744
a(S'the'
p2745
g35
F0.9977
tp2746
a(S'arcade'
p2747
g133
F0.6366
tp2748
asI264
(lp2749
(S'no'
p2750
g3
F0.9253
tp2751
asI265
(lp2752
(S'some'
p2753
g35
F0.9904
tp2754
a(S'guy'
p2755
g40
F0.9387
tp2756
a(S'was'
p2757
g9
F0.9954
tp2758
a(S'smokin'
p2759
g9
F0.9189
tp2760
a(g116
g9
F0.5906
tp2761
a(S'out'
p2762
g199
F0.7091
tp2763
a(S'um'
p2764
g3
F0.551
tp2765
a(S'in'
p2766
g45
F0.9922
tp2767
a(S'the'
p2768
g35
F0.999
tp2769
a(S'hall'
p2770
g40
F0.9826
tp2771
a(S'when'
p2772
g24
F0.962
tp2773
a(S'we'
p2774
g6
F0.9965
tp2775
a(S'were'
p2776
g9
F0.9986
tp2777
a(S'walking'
p2778
g9
F0.9835
tp2779
a(S'to'
p2780
g45
F0.998
tp2781
a(S'the'
p2782
g35
F0.9962
tp2783
a(S'arcade'
p2784
g133
F0.817
tp2785
asI266
(lp2786
(S'he'
p2787
g6
F0.9912
tp2788
a(S'll'
p2789
g9
F0.6947
tp2790
a(S'be'
p2791
g9
F0.9975
tp2792
a(S'talking'
p2793
g9
F0.9753
tp2794
a(S'about'
p2795
g24
F0.5019
tp2796
a(S'bad'
p2797
g12
F0.9946
tp2798
a(S'parking'
p2799
g40
F0.9658
tp2800
a(S'lot'
p2801
g40
F0.9287
tp2802
asI267
(lp2803
(S'bro'
p2804
g40
F0.9354
tp2805
a(S'walks'
p2806
g9
F0.9934
tp2807
a(S'by'
p2808
g45
F0.9177
tp2809
a(S'and'
p2810
g165
F0.9978
tp2811
a(S'going'
p2812
g9
F0.9995
tp2813
a(S'like'
p2814
g45
F0.6932
tp2815
a(S'this'
p2816
g6
F0.8515
tp2817
asI268
(lp2818
(S'giggles'
p2819
g9
F0.5513
tp2820
asI269
(lp2821
(S'and'
p2822
g165
F0.9986
tp2823
a(S'then'
p2824
g24
F0.9712
tp2825
asI270
(lp2826
(S'waving'
p2827
g9
F0.9997
tp2828
a(S'his'
p2829
g35
F0.9996
tp2830
a(S'hands'
p2831
g40
F0.9961
tp2832
a(S'was'
p2833
g9
F0.9963
tp2834
a(S'in'
p2835
g45
F0.9218
tp2836
a(S'front'
p2837
g40
F0.9733
tp2838
a(S'of'
p2839
g45
F0.999
tp2840
a(S'him'
p2841
g6
F0.9899
tp2842
asI271
(lp2843
(S'yeah'
p2844
g3
F0.9933
tp2845
a(S'and'
p2846
g165
F0.9991
tp2847
a(S'we'
p2848
g6
F0.9922
tp2849
a(S're'
p2850
g9
F0.8287
tp2851
a(S'right'
p2852
g24
F0.7618
tp2853
a(S'in'
p2854
g45
F0.9945
tp2855
a(S'front'
p2856
g40
F0.9733
tp2857
a(S'of'
p2858
g45
F0.9996
tp2859
a(S'the'
p2860
g35
F0.9993
tp2861
a(S'cigarette'
p2862
g40
F0.994
tp2863
a(S'and'
p2864
g165
F0.9915
tp2865
a(S'the'
p2866
g35
F0.9991
tp2867
a(S'guy'
p2868
g40
F0.967
tp2869
a(S'goes'
p2870
g9
F0.9813
tp2871
asI272
(lp2872
(S'laughs'
p2873
g9
F0.9102
tp2874
asI273
(lp2875
(S'0'
p2876
g102
F0.9517
tp2877
a(S'laughs'
p2878
g9
F0.7753
tp2879
a(S'quietly'
p2880
g24
F0.9556
tp2881
asI274
(lp2882
(S'xxx'
p2883
g68
F0.5852
tp2884
a(S'that'
p2885
g6
F0.6963
tp2886
asI275
(lp2887
(S'ow'
p2888
g3
F0.9051
tp2889
a(S'bro'
p2890
g40
F0.7223
tp2891
asI276
(lp2892
(S'xxx'
p2893
g68
F0.8437
tp2894
asI277
(lp2895
(S'what'
p2896
g6
F0.9325
tp2897
a(S'he'
p2898
g6
F0.9986
tp2899
a(S'made'
p2900
g9
F0.9998
tp2901
a(g137
g35
F0.999
tp2902
a(S'face'
p2903
g40
F0.9974
tp2904
a(S'at'
p2905
g45
F0.9995
tp2906
a(S'bro'
p2907
g40
F0.9654
tp2908
asI278
(lp2909
(S'no'
p2910
g3
F0.8387
tp2911
a(S'he'
p2912
g6
F0.9918
tp2913
a(S'goes'
p2914
g9
F0.9996
tp2915
a(S'he'
p2916
g6
F0.9963
tp2917
a(S'goes'
p2918
g9
F0.9992
tp2919
asI279
(lp2920
(S'laughs'
p2921
g9
F0.9102
tp2922
asI280
(lp2923
(S'and'
p2924
g165
F0.9987
tp2925
a(S'then'
p2926
g24
F0.9486
tp2927
a(S'it'
p2928
g6
F0.9982
tp2929
a(S'had'
p2930
g9
F0.9982
tp2931
a(S'xxx'
p2932
g68
F0.3306
tp2933
a(S'in'
p2934
g45
F0.99
tp2935
a(S'it'
p2936
g6
F0.9971
tp2937
a(S'and'
p2938
g165
F0.9962
tp2939
a(S'it'
p2940
g6
F0.9968
tp2941
a(S'hit'
p2942
g9
F0.9966
tp2943
a(S'bro'
p2944
g40
F0.9596
tp2945
a(S'bro'
p2946
g40
F0.978
tp2947
asI281
(lp2948
(S'alright'
p2949
g3
F0.9706
tp2950
a(S'uh'
p2951
g3
F0.9953
tp2952
asI282
(lp2953
(S'well'
p2954
g3
F0.763
tp2955
a(S'ya'
p2956
g6
F0.5088
tp2957
a(S'you'
p2958
g6
F0.9993
tp2959
a(S'know'
p2960
g9
F0.9957
tp2961
asI283
(lp2962
(S'he'
p2963
g6
F0.9959
tp2964
a(S'has'
p2965
g9
F0.9999
tp2966
a(g137
g35
F0.9909
tp2967
a(S'right'
p2968
g12
F0.5802
tp2969
a(S'to'
p2970
g45
F0.9987
tp2971
a(S'let'
p2972
g9
F0.9981
tp2973
a(S'people'
p2974
g40
F0.9959
tp2975
a(S'know'
p2976
g9
F0.996
tp2977
a(S'he'
p2978
g6
F0.9966
tp2979
a(S'doesn'
p2980
g9
F0.9959
tp2981
a(g81
g9
F0.3393
tp2982
a(S'like'
p2983
g45
F0.9216
tp2984
a(S'smoke'
p2985
g40
F0.6431
tp2986
a(S'huh'
p2987
g3
F0.8942
tp2988
asI284
(lp2989
(S'yuck'
p2990
g3
F0.9935
tp2991
a(S'xxx'
p2992
g68
F0.7883
tp2993
asI285
(lp2994
(S'www'
p2995
g133
F0.6048
tp2996
a(S'laughs'
p2997
g9
F0.6786
tp2998
a(S'mm'
p2999
g6
F0.3098
tp3000
asI286
(lp3001
(S'laughs'
p3002
g9
F0.9102
tp3003
asI287
(lp3004
(S'xxx'
p3005
g68
F0.8325
tp3006
a(S'xxx'
p3007
g68
F0.9813
tp3008
asI288
(lp3009
(S'try'
p3010
g9
F0.9897
tp3011
a(S'those'
p3012
g35
F0.934
tp3013
a(S'potatoes'
p3014
g40
F0.9956
tp3015
a(S'chi'
p3016
g45
F0.4297
tp3017
a(S'you'
p3018
g6
F0.9992
tp3019
a(S'might'
p3020
g9
F0.999
tp3021
a(S'like'
p3022
g9
F0.9243
tp3023
a(S'them'
p3024
g6
F0.9894
tp3025
asI289
(lp3026
(S'ew'
p3027
g3
F0.9751
tp3028
a(S'that'
p3029
g6
F0.6756
tp3030
a(g73
g74
F0.7819
tp3031
a(S'xxx'
p3032
g68
F0.6136
tp3033
asI290
(lp3034
(S'laughs'
p3035
g9
F0.9102
tp3036
asI291
(lp3037
(S'eat'
p3038
g9
F0.9893
tp3039
a(S'your'
p3040
g35
F0.9924
tp3041
a(S'pork'
p3042
g40
F0.999
tp3043
asI292
(lp3044
(S'chi'
p3045
g3
F0.4684
tp3046
asI293
(lp3047
(S'what'
p3048
g6
F0.949
tp3049
asI294
(lp3050
(S'oh'
p3051
g3
F0.9988
tp3052
asI295
(lp3053
(S'laughs'
p3054
g9
F0.9102
tp3055
asI296
(lp3056
(S'what'
p3057
g6
F0.9784
tp3058
a(g73
g74
F0.5951
tp3059
a(S'the'
p3060
g35
F0.9988
tp3061
a(S'matter'
p3062
g40
F0.9854
tp3063
a(S'there'
p3064
g24
F0.7236
tp3065
a(S'he'
p3066
g6
F0.9973
tp3067
a(S'got'
p3068
g9
F0.9981
tp3069
asI297
(lp3070
(S'www'
p3071
g133
F0.3773
tp3072
a(S'gross'
p3073
g12
F0.9863
tp3074
a(S'noise'
p3075
g40
F0.995
tp3076
asI298
(lp3077
(S'corn'
p3078
g40
F0.9787
tp3079
a(S'on'
p3080
g45
F0.999
tp3081
a(S'your'
p3082
g35
F0.9922
tp3083
a(S'ham'
p3084
g40
F0.9669
tp3085
a(S'so'
p3086
g45
F0.7528
tp3087
a(S'now'
p3088
g24
F0.9987
tp3089
a(S'you'
p3090
g6
F0.9992
tp3091
a(S'can'
p3092
g9
F0.9993
tp3093
a(g81
g9
F0.7948
tp3094
a(S'eat'
p3095
g9
F0.9949
tp3096
a(S'your'
p3097
g35
F0.9942
tp3098
a(S'ham'
p3099
g40
F0.9665
tp3100
a(S'or'
p3101
g165
F0.9813
tp3102
a(S'your'
p3103
g35
F0.9337
tp3104
a(S'corn'
p3105
g40
F0.9994
tp3106
asI299
(lp3107
(S'www'
p3108
g133
F0.4885
tp3109
a(S'noises'
p3110
g40
F0.9427
tp3111
asI300
(lp3112
(S'you'
p3113
g6
F0.9953
tp3114
a(S'can'
p3115
g9
F0.9998
tp3116
a(S'um'
p3117
g3
F0.7911
tp3118
asI301
(lp3119
(S'why'
p3120
g24
F0.9441
tp3121
a(S'can'
p3122
g9
F0.9874
tp3123
a(g81
g9
F0.9558
tp3124
a(S'you'
p3125
g6
F0.9983
tp3126
a(S'use'
p3127
g9
F0.9976
tp3128
a(S'this'
p3129
g6
F0.6997
tp3130
asI302
(lp3131
(S'hunhunh'
p3132
g3
F0.5425
tp3133
asI303
(lp3134
(S'what'
p3135
g6
F0.9796
tp3136
a(S'because'
p3137
g45
F0.9935
tp3138
a(S'of'
p3139
g45
F0.9613
tp3140
a(S'that'
p3141
g6
F0.7763
tp3142
asI304
(lp3143
(S'yeah'
p3144
g3
F0.9988
tp3145
asI305
(lp3146
(S'that'
p3147
g6
F0.473
tp3148
a(g73
g9
F0.6118
tp3149
a(g137
g35
F0.9956
tp3150
a(S'piece'
p3151
g40
F0.9988
tp3152
a(S'of'
p3153
g45
F0.9974
tp3154
a(S'strawberry'
p3155
g40
F0.6588
tp3156
a(S'you'
p3157
g6
F0.9961
tp3158
a(S'know'
p3159
g9
F0.9996
tp3160
a(S'that'
p3161
g6
F0.8025
tp3162
asI306
(lp3163
(S'laughs'
p3164
g9
F0.9102
tp3165
asI307
(lp3166
(S'ew'
p3167
g3
F0.984
tp3168
asI308
(lp3169
(S'cut'
p3170
g9
F0.8288
tp3171
a(S'it'
p3172
g6
F0.9928
tp3173
a(S'out'
p3174
g199
F0.9729
tp3175
asI309
(lp3176
(S'chi'
p3177
g133
F0.5249
tp3178
a(S'there'
p3179
g384
F0.8327
tp3180
a(S'is'
p3181
g9
F0.9984
tp3182
a(g137
g35
F0.9978
tp3183
a(S'piece'
p3184
g40
F0.9988
tp3185
a(S'of'
p3186
g45
F0.9976
tp3187
a(S'strawberry'
p3188
g40
F0.6568
tp3189
asI310
(lp3190
(S'what'
p3191
g6
F0.9784
tp3192
a(g73
g74
F0.613
tp3193
a(S'the'
p3194
g35
F0.9986
tp3195
a(S'matter'
p3196
g40
F0.9916
tp3197
asI311
(lp3198
(S'ugh'
p3199
g3
F0.9949
tp3200
asI312
(lp3201
(S'xxx'
p3202
g68
F0.7405
tp3203
a(S'um'
p3204
g3
F0.8782
tp3205
a(S'k'
p3206
g133
F0.4918
tp3207
a(S'can'
p3208
g9
F0.9915
tp3209
a(S'we'
p3210
g6
F0.9892
tp3211
a(S'listen'
p3212
g9
F0.9998
tp3213
a(S'to'
p3214
g45
F0.9949
tp3215
a(S'it'
p3216
g6
F0.9847
tp3217
a(S'the'
p3218
g35
F0.9985
tp3219
a(S'audio'
p3220
g40
F0.879
tp3221
a(S'tape'
p3222
g40
F0.9984
tp3223
a(S'after'
p3224
g45
F0.9962
tp3225
a(S'we'
p3226
g6
F0.999
tp3227
a(S're'
p3228
g9
F0.7181
tp3229
a(S'done'
p3230
g9
F0.9257
tp3231
asI313
(lp3232
(S'you'
p3233
g6
F0.9953
tp3234
a(S'can'
p3235
g9
F0.9994
tp3236
asI314
(lp3237
(S'then'
p3238
g24
F0.9584
tp3239
a(S'why'
p3240
g24
F0.9069
tp3241
a(S'the'
p3242
g35
F0.9752
tp3243
a(S'are'
p3244
g9
F0.7625
tp3245
a(S'we'
p3246
g6
F0.9971
tp3247
a(S'tapin'
p3248
g9
F0.9667
tp3249
a(g116
g9
F0.6335
tp3250
a(S'it'
p3251
g6
F0.9941
tp3252
asI315
(lp3253
(S'because'
p3254
g45
F0.9981
tp3255
a(S'we'
p3256
g6
F0.9976
tp3257
a(S're'
p3258
g40
F0.53
tp3259
asI316
(lp3260
(S're'
p3261
g40
F0.7409
tp3262
a(S'member'
p3263
g40
F0.9762
tp3264
a(S'they'
p3265
g6
F0.9744
tp3266
a(S'came'
p3267
g9
F0.9935
tp3268
a(S'and'
p3269
g165
F0.9965
tp3270
a(S'visited'
p3271
g9
F0.9999
tp3272
a(S'us'
p3273
g6
F0.9739
tp3274
a(S'in'
p3275
g45
F0.9858
tp3276
a(S'november'
p3277
g133
F0.941
tp3278
asI317
(lp3279
(S'yeah'
p3280
g3
F0.9945
tp3281
a(S'laughs'
p3282
g9
F0.9273
tp3283
asI318
(lp3284
(S'coughs'
p3285
g40
F0.5349
tp3286
asI319
(lp3287
(S'excuse'
p3288
g9
F0.9631
tp3289
a(S'me'
p3290
g6
F0.9987
tp3291
asI320
(lp3292
(S'and'
p3293
g165
F0.9991
tp3294
a(S'they'
p3295
g6
F0.9957
tp3296
a(S'always'
p3297
g24
F0.9963
tp3298
a(S'want'
p3299
g9
F0.9993
tp3300
a(S'to'
p3301
g45
F0.9955
tp3302
a(S'hear'
p3303
g9
F0.9995
tp3304
a(S'our'
p3305
g35
F0.9971
tp3306
a(S'mealtime'
p3307
g40
F0.9541
tp3308
a(S'tapes'
p3309
g40
F0.9981
tp3310
asI321
(lp3311
(S'and'
p3312
g165
F0.9991
tp3313
a(S'they'
p3314
g6
F0.9957
tp3315
a(S'always'
p3316
g24
F0.9963
tp3317
a(S'want'
p3318
g9
F0.9993
tp3319
a(S'to'
p3320
g45
F0.9955
tp3321
a(S'hear'
p3322
g9
F0.9988
tp3323
a(S'the'
p3324
g35
F0.9997
tp3325
a(S'tape'
p3326
g40
F0.9995
tp3327
a(S'of'
p3328
g45
F0.9989
tp3329
a(S'our'
p3330
g35
F0.9954
tp3331
a(S'mealtime'
p3332
g40
F0.9886
tp3333
asI322
(lp3334
(S'will'
p3335
g9
F0.9979
tp3336
a(S'you'
p3337
g6
F0.9986
tp3338
a(S'pass'
p3339
g9
F0.9992
tp3340
a(S'me'
p3341
g6
F0.9966
tp3342
a(S'the'
p3343
g35
F0.9621
tp3344
a(S'um'
p3345
g74
F0.4655
tp3346
a(S'um'
p3347
g3
F0.6498
tp3348
asI323
(lp3349
(S'oh'
p3350
g3
F0.9928
tp3351
a(S'the'
p3352
g35
F0.9637
tp3353
a(S'who'
p3354
g6
F0.9738
tp3355
a(g73
g9
F0.534
tp3356
a(S'gonna'
p3357
g9
F0.9935
tp3358
a(S'care'
p3359
g9
F0.9958
tp3360
a(S'about'
p3361
g45
F0.8508
tp3362
a(S'well'
p3363
g24
F0.4166
tp3364
a(S'what'
p3365
g6
F0.9856
tp3366
a(S'about'
p3367
g45
F0.9045
tp3368
a(S'bro'
p3369
g40
F0.9794
tp3370
a(S'going'
p3371
g9
F0.9977
tp3372
a(S'www'
p3373
g133
F0.3123
tp3374
a(S'burping'
p3375
g9
F0.9087
tp3376
a(S'noises'
p3377
g40
F0.9712
tp3378
asI324
(lp3379
(S'xxx'
p3380
g68
F0.8437
tp3381
asI325
(lp3382
(S'well'
p3383
g3
F0.906
tp3384
a(S'they'
p3385
g6
F0.9853
tp3386
a(S're'
p3387
g9
F0.5473
tp3388
a(S'gonna'
p3389
g9
F0.9907
tp3390
a(S'have'
p3391
g9
F0.9997
tp3392
a(S'to'
p3393
g45
F0.9971
tp3394
a(S'hear'
p3395
g9
F0.9995
tp3396
a(S'it'
p3397
g6
F0.9751
tp3398
a(g19
g6
F0.972
tp3399
a(S'guess'
p3400
g9
F0.9999
tp3401
a(S'www'
p3402
g133
F0.627
tp3403
a(S'giggles'
p3404
g40
F0.5646
tp3405
asI326
(lp3406
(S'it'
p3407
g6
F0.9888
tp3408
a(g73
g9
F0.4037
tp3409
a(S'part'
p3410
g40
F0.9872
tp3411
a(S'of'
p3412
g45
F0.9995
tp3413
a(S'the'
p3414
g35
F0.9985
tp3415
a(S'mealtime'
p3416
g40
F0.9842
tp3417
a(S'laughing'
p3418
g9
F0.9096
tp3419
asI327
(lp3420
(S'will'
p3421
g9
F0.9979
tp3422
a(S'you'
p3423
g6
F0.9986
tp3424
a(S'pass'
p3425
g9
F0.9992
tp3426
a(S'me'
p3427
g6
F0.9951
tp3428
a(S'um'
p3429
g3
F0.8082
tp3430
a(S'the'
p3431
g35
F0.9978
tp3432
a(S'meals'
p3433
g40
F0.9896
tp3434
asI328
(lp3435
(S'the'
p3436
g35
F0.9985
tp3437
a(S'ham'
p3438
g40
F0.849
tp3439
asI329
(lp3440
(S'uh'
p3441
g3
F0.9921
tp3442
a(S'uhhuh'
p3443
g3
F0.9931
tp3444
asI330
(lp3445
(S'not'
p3446
g24
F0.9778
tp3447
a(S'all'
p3448
g384
F0.7012
tp3449
a(S'the'
p3450
g35
F0.9998
tp3451
a(S'time'
p3452
g40
F0.9976
tp3453
a(S'right'
p3454
g24
F0.5871
tp3455
asI331
(lp3456
(S'huh'
p3457
g3
F0.993
tp3458
asI332
(lp3459
(S'it'
p3460
g6
F0.9858
tp3461
a(g73
g9
F0.5041
tp3462
a(S'occasional'
p3463
g12
F0.9488
tp3464
asI333
(lp3465
(S'uhhuh'
p3466
g3
F0.9892
tp3467
asI334
(lp3468
(S'um'
p3469
g3
F0.8769
tp3470
a(S'can'
p3471
g9
F0.9866
tp3472
a(S'may'
p3473
g9
F0.9792
tp3474
a(g19
g6
F0.9887
tp3475
a(S'have'
p3476
g9
F0.9996
tp3477
a(S'dessert'
p3478
g40
F0.9845
tp3479
a(S'now'
p3480
g24
F0.9897
tp3481
asI335
(lp3482
(S'no'
p3483
g3
F0.9253
tp3484
asI336
(lp3485
(S'what'
p3486
g6
F0.949
tp3487
asI337
(lp3488
(S'eat'
p3489
g9
F0.9893
tp3490
a(S'your'
p3491
g35
F0.9867
tp3492
a(S'strawberry'
p3493
g40
F0.9847
tp3494
asI338
(lp3495
(S'oh'
p3496
g3
F0.9988
tp3497
asI339
(lp3498
(S'no'
p3499
g3
F0.8024
tp3500
a(S'but'
p3501
g165
F0.9898
tp3502
a(S'xxx'
p3503
g68
F0.3162
tp3504
a(S'on'
p3505
g45
F0.9959
tp3506
a(S'the'
p3507
g35
F0.9997
tp3508
a(S'other'
p3509
g12
F0.9774
tp3510
a(S'side'
p3511
g40
F0.978
tp3512
asI340
(lp3513
(S'look'
p3514
g9
F0.8183
tp3515
asI341
(lp3516
(S'yeah'
p3517
g3
F0.9988
tp3518
asI342
(lp3519
(S'don'
p3520
g133
F0.5427
tp3521
a(g81
g133
F0.5814
tp3522
a(S'look'
p3523
g9
F0.933
tp3524
a(S'at'
p3525
g45
F0.9991
tp3526
a(S'it'
p3527
g6
F0.997
tp3528
asI343
(lp3529
(g19
g6
F0.9583
tp3530
a(g19
g6
F0.9279
tp3531
a(g19
g6
F0.9415
tp3532
a(S'll'
p3533
g9
F0.7111
tp3534
a(S'have'
p3535
g9
F0.9935
tp3536
a(g19
g6
F0.9914
tp3537
a(S'll'
p3538
g9
F0.718
tp3539
a(S'have'
p3540
g9
F0.9994
tp3541
a(S'another'
p3542
g35
F0.9943
tp3543
a(S'strawberry'
p3544
g40
F0.9508
tp3545
asI344
(lp3546
(S'let'
p3547
g9
F0.8948
tp3548
a(g73
g74
F0.4815
tp3549
a(S'cool'
p3550
g12
F0.9546
tp3551
a(S'these'
p3552
g35
F0.9333
tp3553
a(S'two'
p3554
g102
F0.8788
tp3555
asI345
(lp3556
(S'laughs'
p3557
g9
F0.9102
tp3558
asI346
(lp3559
(S'hey'
p3560
g3
F0.9948
tp3561
a(S'don'
p3562
g133
F0.3774
tp3563
a(g81
g74
F0.4192
tp3564
asI347
(lp3565
(S'no'
p3566
g3
F0.9253
tp3567
asI348
(lp3568
(S'puttin'
p3569
g9
F0.5608
tp3570
a(g116
g9
F0.5517
tp3571
a(S'your'
p3572
g35
F0.9849
tp3573
a(S'hands'
p3574
g40
F0.9985
tp3575
a(S'on'
p3576
g45
F0.9994
tp3577
a(S'the'
p3578
g35
F0.999
tp3579
a(S'strawberries'
p3580
g40
F0.9952
tp3581
asI349
(lp3582
(S'xxx'
p3583
g68
F0.8437
tp3584
asI350
(lp3585
(S'do'
p3586
g9
F0.9985
tp3587
a(S'you'
p3588
g6
F0.9996
tp3589
a(S'want'
p3590
g9
F0.9999
tp3591
a(S'some'
p3592
g35
F0.9414
tp3593
a(S'more'
p3594
g12
F0.9699
tp3595
a(S'ham'
p3596
g40
F0.6875
tp3597
a(S'honey'
p3598
g40
F0.9706
tp3599
asI351
(lp3600
(S'just'
p3601
g24
F0.9991
tp3602
a(S'put'
p3603
g9
F0.9972
tp3604
a(g137
g35
F0.9983
tp3605
a(S'spoon'
p3606
g40
F0.9948
tp3607
a(S'in'
p3608
g45
F0.9975
tp3609
a(S'their'
p3610
g35
F0.9906
tp3611
a(S'strawberries'
p3612
g40
F0.9989
tp3613
asI352
(lp3614
(S'uhuh'
p3615
g3
F0.9919
tp3616
asI353
(lp3617
(S'www'
p3618
g133
F0.4885
tp3619
a(S'noises'
p3620
g40
F0.9427
tp3621
asI354
(lp3622
(S'yes'
p3623
g3
F0.9958
tp3624
asI355
(lp3625
(S'okay'
p3626
g3
F0.9439
tp3627
a(S'so'
p3628
g45
F0.7608
tp3629
a(S'what'
p3630
g6
F0.9934
tp3631
a(g73
g74
F0.6268
tp3632
a(S'for'
p3633
g45
F0.9972
tp3634
a(S'dessert'
p3635
g40
F0.9431
tp3636
asI356
(lp3637
(S'whatcha'
p3638
S'L'
p3639
F0.6767
tp3640
a(S'what'
p3641
g6
F0.9954
tp3642
a(S'do'
p3643
g9
F0.9993
tp3644
a(S'you'
p3645
g6
F0.9996
tp3646
a(S'want'
p3647
g9
F0.9994
tp3648
asI357
(lp3649
(S'more'
p3650
g12
F0.8209
tp3651
a(S'ham'
p3652
g40
F0.8451
tp3653
asI358
(lp3654
(g19
g6
F0.9756
tp3655
a(S'didn'
p3656
g9
F0.9919
tp3657
a(g81
g9
F0.7994
tp3658
a(S'make'
p3659
g9
F0.9864
tp3660
a(S'any'
p3661
g35
F0.9949
tp3662
a(S'cider'
p3663
g40
F0.9967
tp3664
asI359
(lp3665
(S'zip'
p3666
g40
F0.5922
tp3667
a(S'it'
p3668
g6
F0.9607
tp3669
asI360
(lp3670
(S'zip'
p3671
g40
F0.4725
tp3672
a(S'it'
p3673
g6
F0.9654
tp3674
a(S'xxx'
p3675
g9
F0.6539
tp3676
a(S'laughing'
p3677
g9
F0.9431
tp3678
asI361
(lp3679
(S'laughs'
p3680
g9
F0.9102
tp3681
asI362
(lp3682
(S'laughs'
p3683
g9
F0.9102
tp3684
asI363
(lp3685
(S'shh'
p3686
g3
F0.9933
tp3687
asI364
(lp3688
(S'do'
p3689
g9
F0.9929
tp3690
a(S'we'
p3691
g6
F0.9992
tp3692
a(S'have'
p3693
g9
F0.999
tp3694
a(S'ice'
p3695
g40
F0.9203
tp3696
a(S'cream'
p3697
g40
F0.953
tp3698
asI365
(lp3699
(S'no'
p3700
g3
F0.9253
tp3701
asI366
(lp3702
(S'oh'
p3703
g3
F0.9889
tp3704
a(S'come'
p3705
g9
F0.9859
tp3706
a(S'on'
p3707
g45
F0.6291
tp3708
a(S'man'
p3709
g40
F0.9537
tp3710
asI367
(lp3711
(S'what'
p3712
g6
F0.9784
tp3713
a(g73
g74
F0.5951
tp3714
a(S'the'
p3715
g35
F0.9983
tp3716
a(S'point'
p3717
g40
F0.9973
tp3718
a(S'of'
p3719
g45
F0.9969
tp3720
a(S'eatin'
p3721
g9
F0.3694
tp3722
a(g116
g40
F0.3889
tp3723
a(S'supper'
p3724
g40
F0.9505
tp3725
a(S'if'
p3726
g45
F0.9998
tp3727
a(S'you'
p3728
g6
F0.9997
tp3729
a(S'can'
p3730
g9
F0.9993
tp3731
a(g81
g9
F0.7665
tp3732
a(S'have'
p3733
g9
F0.9846
tp3734
a(S'dessert'
p3735
g40
F0.9891
tp3736
asI368
(lp3737
(S'well'
p3738
g3
F0.6329
tp3739
a(S'there'
p3740
g24
F0.6889
tp3741
a(g73
g74
F0.7739
tp3742
a(S'um'
p3743
g3
F0.8199
tp3744
asI369
(lp3745
(S'nutrition'
p3746
g40
F0.9692
tp3747
a(S'for'
p3748
g45
F0.9994
tp3749
a(S'one'
p3750
g102
F0.9007
tp3751
a(S'thing'
p3752
g40
F0.9976
tp3753
asI370
(lp3754
(S'cookies'
p3755
g40
F0.9814
tp3756
asI371
(lp3757
(S'what'
p3758
g6
F0.8282
tp3759
a(S'kind'
p3760
g40
F0.8221
tp3761
asI372
(lp3762
(S'uh'
p3763
g3
F0.9848
tp3764
a(S'ahem'
p3765
g3
F0.6307
tp3766
asI373
(lp3767
(S'but'
p3768
g165
F0.991
tp3769
a(S'come'
p3770
g9
F0.9922
tp3771
a(S'back'
p3772
g24
F0.9461
tp3773
a(S'and'
p3774
g165
F0.9984
tp3775
a(S'sit'
p3776
g9
F0.9947
tp3777
a(S'down'
p3778
g199
F0.7073
tp3779
a(S'and'
p3780
g165
F0.9958
tp3781
a(S'eat'
p3782
g9
F0.9703
tp3783
asI374
(lp3784
(S'oh'
p3785
g3
F0.9874
tp3786
a(S'boy'
p3787
g40
F0.8642
tp3788
a(S'there'
p3789
g24
F0.7272
tp3790
a(g73
g74
F0.8833
tp3791
a(S'xxx'
p3792
g68
F0.377
tp3793
a(S'cookies'
p3794
g40
F0.9885
tp3795
asI375
(lp3796
(S'come'
p3797
g9
F0.9924
tp3798
a(S'back'
p3799
g24
F0.9143
tp3800
a(S'and'
p3801
g165
F0.9984
tp3802
a(S'sit'
p3803
g9
F0.9948
tp3804
a(S'down'
p3805
g199
F0.7153
tp3806
a(S'and'
p3807
g165
F0.996
tp3808
a(S'eat'
p3809
g9
F0.9597
tp3810
a(S'okay'
p3811
g3
F0.552
tp3812
asI376
(lp3813
(S'yes'
p3814
g3
F0.9883
tp3815
a(S'xxx'
p3816
g68
F0.7862
tp3817
asI377
(lp3818
(S'where'
p3819
g24
F0.9711
tp3820
a(g73
g74
F0.6848
tp3821
a(S'the'
p3822
g35
F0.9773
tp3823
a(S'xxx'
p3824
g40
F0.4345
tp3825
asI378
(lp3826
(S'do'
p3827
g9
F0.9985
tp3828
a(S'you'
p3829
g6
F0.9997
tp3830
a(S'know'
p3831
g9
F0.9987
tp3832
a(S'where'
p3833
g24
F0.9715
tp3834
a(S'they'
p3835
g6
F0.994
tp3836
a(S'are'
p3837
g9
F0.9991
tp3838
asI379
(lp3839
(S'yeah'
p3840
g3
F0.9968
tp3841
a(g19
g6
F0.9963
tp3842
a(S'know'
p3843
g9
F0.9993
tp3844
a(S'where'
p3845
g24
F0.9715
tp3846
a(S'they'
p3847
g6
F0.994
tp3848
a(S'are'
p3849
g9
F0.9991
tp3850
asI380
(lp3851
(g19
g6
F0.9891
tp3852
a(S'ate'
p3853
g9
F0.9999
tp3854
a(S'it'
p3855
g6
F0.9943
tp3856
a(S'already'
p3857
g24
F0.9934
tp3858
asI381
(lp3859
(S'xxx'
p3860
g68
F0.8437
tp3861
asI382
(lp3862
(S'www'
p3863
g133
F0.5889
tp3864
a(S'squeals'
p3865
g40
F0.7061
tp3866
asI383
(lp3867
(S'chi'
p3868
g133
F0.462
tp3869
a(S'just'
p3870
g24
F0.9965
tp3871
a(S'please'
p3872
g9
F0.9949
tp3873
a(S'come'
p3874
g9
F0.9962
tp3875
a(S'on'
p3876
g199
F0.6227
tp3877
asI384
(lp3878
(S'ew'
p3879
g3
F0.984
tp3880
asI385
(lp3881
(S'ugh'
p3882
g3
F0.9949
tp3883
asI386
(lp3884
(S'oh'
p3885
g3
F0.9948
tp3886
a(S'my'
p3887
g35
F0.6735
tp3888
a(S'gosh'
p3889
g3
F0.7933
tp3890
asI387
(lp3891
(g2876
g102
F0.9876
tp3892
a(S'fake'
p3893
g12
F0.9763
tp3894
a(S'sneeze'
p3895
g40
F0.6576
tp3896
asI388
(lp3897
(S'you'
p3898
g6
F0.998
tp3899
a(S'got'
p3900
g9
F0.9998
tp3901
a(g137
g35
F0.9988
tp3902
a(S'little'
p3903
g12
F0.9973
tp3904
a(S'bit'
p3905
g40
F0.9809
tp3906
a(S'of'
p3907
g45
F0.9974
tp3908
a(S'water'
p3909
g40
F0.9813
tp3910
a(S'on'
p3911
g45
F0.9991
tp3912
a(S'your'
p3913
g35
F0.9942
tp3914
a(S'shirt'
p3915
g40
F0.9951
tp3916
asI389
(lp3917
(S'laughs'
p3918
g9
F0.9102
tp3919
asI390
(lp3920
(S'good'
p3921
g12
F0.9632
tp3922
a(S'now'
p3923
g24
F0.9842
tp3924
a(S'at'
p3925
g45
F0.9862
tp3926
a(S'least'
p3927
g12
F0.9396
tp3928
a(S'he'
p3929
g6
F0.988
tp3930
a(S'll'
p3931
g9
F0.542
tp3932
a(S'change'
p3933
g9
F0.9081
tp3934
a(S'that'
p3935
g35
F0.6819
tp3936
a(S'shirt'
p3937
g40
F0.9942
tp3938
asI391
(lp3939
(S'laughs'
p3940
g9
F0.9102
tp3941
asI392
(lp3942
(S'yeah'
p3943
g3
F0.994
tp3944
a(S'right'
p3945
g3
F0.7355
tp3946
asI393
(lp3947
(S'laughs'
p3948
g9
F0.9102
tp3949
asI394
(lp3950
(S'let'
p3951
g9
F0.8948
tp3952
a(g73
g74
F0.3976
tp3953
a(S'see'
p3954
g9
F0.9524
tp3955
a(S'what'
p3956
g6
F0.939
tp3957
a(g73
g74
F0.5358
tp3958
a(S'the'
p3959
g35
F0.9983
tp3960
a(S'matter'
p3961
g40
F0.9865
tp3962
asI395
(lp3963
(g19
g6
F0.989
tp3964
a(S'think'
p3965
g9
F0.9999
tp3966
a(S'he'
p3967
g6
F0.9962
tp3968
a(g73
g9
F0.5916
tp3969
a(S'gonna'
p3970
g9
F0.9968
tp3971
a(S'scare'
p3972
g9
F0.9946
tp3973
a(S'laughing'
p3974
g9
F0.8736
tp3975
asI396
(lp3976
(S'oh'
p3977
g3
F0.995
tp3978
a(S'he'
p3979
g6
F0.9895
tp3980
a(g73
g9
F0.694
tp3981
a(S'so'
p3982
g24
F0.9377
tp3983
a(S'silly'
p3984
g12
F0.9854
tp3985
a(S'isn'
p3986
g45
F0.538
tp3987
a(g81
g74
F0.4775
tp3988
a(S'he'
p3989
g6
F0.9915
tp3990
asI397
(lp3991
(S'mhm'
p3992
g3
F0.9747
tp3993
asI398
(lp3994
(S'you'
p3995
g6
F0.998
tp3996
a(S'want'
p3997
g9
F0.9999
tp3998
a(S'any'
p3999
g35
F0.9
tp4000
a(S'more'
p4001
g12
F0.9357
tp4002
a(S'ham'
p4003
g40
F0.8204
tp4004
a(S'bro'
p4005
g40
F0.9904
tp4006
asI399
(lp4007
(S'mhm'
p4008
g3
F0.9747
tp4009
asI400
(lp4010
(S'wow'
p4011
g3
F0.9963
tp4012
asI401
(lp4013
(S'you'
p4014
g6
F0.9967
tp4015
a(S'must'
p4016
g9
F0.9991
tp4017
a(S'be'
p4018
g9
F0.9988
tp4019
a(S'really'
p4020
g24
F0.9999
tp4021
a(S'hungry'
p4022
g12
F0.9442
tp4023
asI402
(lp4024
(S'sure'
p4025
g12
F0.833
tp4026
a(S'am'
p4027
g9
F0.4751
tp4028
asI403
(lp4029
(S'did'
p4030
g9
F0.9935
tp4031
a(S'they'
p4032
g6
F0.9961
tp4033
a(S'have'
p4034
g9
F0.9989
tp4035
a(S'lunch'
p4036
g40
F0.9813
tp4037
asI404
(lp4038
(S'nope'
p4039
g3
F0.9711
tp4040
a(S'www'
p4041
g133
F0.4521
tp4042
a(S'laughs'
p4043
g9
F0.7495
tp4044
asI405
(lp4045
(S'you'
p4046
g6
F0.9911
tp4047
a(S'didn'
p4048
g9
F0.9886
tp4049
a(g81
g9
F0.7162
tp4050
a(S'have'
p4051
g9
F0.9964
tp4052
a(S'any'
p4053
g35
F0.9585
tp4054
asI406
(lp4055
(S'oh'
p4056
g3
F0.9878
tp4057
a(S'you'
p4058
g6
F0.9961
tp4059
a(S'had'
p4060
g9
F0.9999
tp4061
a(g137
g35
F0.9953
tp4062
a(S'bagel'
p4063
g40
F0.9794
tp4064
a(S'or'
p4065
g165
F0.9908
tp4066
a(S'something'
p4067
g40
F0.9952
tp4068
asI407
(lp4069
(S'oh'
p4070
g3
F0.9975
tp4071
a(S'yeah'
p4072
g3
F0.9997
tp4073
a(S'yeah'
p4074
g3
F0.9984
tp4075
a(S'yeah'
p4076
g3
F0.9979
tp4077
asI408
(lp4078
(S'uh'
p4079
g3
F0.9758
tp4080
a(S'but'
p4081
g165
F0.9951
tp4082
a(g19
g6
F0.9967
tp4083
a(S'want'
p4084
g9
F0.9997
tp4085
a(S'more'
p4086
g24
F0.5312
tp4087
asI409
(lp4088
(S'well'
p4089
g3
F0.9502
tp4090
a(S'that'
p4091
g6
F0.8535
tp4092
a(g73
g74
F0.4304
tp4093
a(S'fine'
p4094
g12
F0.9796
tp4095
asI410
(lp4096
(S'you'
p4097
g6
F0.9942
tp4098
a(S'just'
p4099
g24
F0.9996
tp4100
a(S'keep'
p4101
g9
F0.9921
tp4102
a(S'on'
p4103
g45
F0.8481
tp4104
a(S'eating'
p4105
g9
F0.9366
tp4106
asI411
(lp4107
(S'you'
p4108
g6
F0.998
tp4109
a(S'had'
p4110
g9
F0.9999
tp4111
a(g137
g35
F0.9952
tp4112
a(S'bagel'
p4113
g40
F0.9491
tp4114
a(S'and'
p4115
g165
F0.999
tp4116
a(g137
g35
F0.9924
tp4117
a(S'banana'
p4118
g40
F0.9888
tp4119
a(S'didn'
p4120
g9
F0.7413
tp4121
a(g81
g9
F0.9433
tp4122
a(S'you'
p4123
g6
F0.9959
tp4124
asI412
(lp4125
(S'chi'
p4126
g133
F0.4479
tp4127
a(S'what'
p4128
g6
F0.9796
tp4129
a(S'are'
p4130
g9
F0.9982
tp4131
a(S'you'
p4132
g6
F0.9993
tp4133
a(S'doin'
p4134
g9
F0.999
tp4135
a(g116
g40
F0.3372
tp4136
asI413
(lp4137
(S'bro'
p4138
g40
F0.7862
tp4139
asI414
(lp4140
(g19
g6
F0.9586
tp4141
a(g168
g9
F0.9848
tp4142
a(S'peeing'
p4143
g9
F0.946
tp4144
asI415
(lp4145
(S'laughs'
p4146
g9
F0.9102
tp4147
asI416
(lp4148
(S'shut'
p4149
g9
F0.9675
tp4150
a(S'the'
p4151
g35
F0.9992
tp4152
a(S'door'
p4153
g40
F0.9987
tp4154
asI417
(lp4155
(S'what'
p4156
g6
F0.949
tp4157
asI418
(lp4158
(S'come'
p4159
g9
F0.9849
tp4160
a(S'on'
p4161
g45
F0.8996
tp4162
a(S'chi'
p4163
g133
F0.6308
tp4164
asI419
(lp4165
(S'what'
p4166
g6
F0.949
tp4167
asI420
(lp4168
(S'he'
p4169
g6
F0.9905
tp4170
a(g73
g9
F0.6871
tp4171
a(S'disgustin'
p4172
g12
F0.692
tp4173
a(g116
g40
F0.553
tp4174
asI421
(lp4175
(S'okay'
p4176
g3
F0.9857
tp4177
asI422
(lp4178
(S'yeah'
p4179
g3
F0.9988
tp4180
asI423
(lp4181
(S'don'
p4182
g133
F0.5427
tp4183
a(g81
g133
F0.5014
tp4184
a(S'talk'
p4185
g9
F0.9868
tp4186
a(S'about'
p4187
g45
F0.9944
tp4188
a(S'it'
p4189
g6
F0.9977
tp4190
a(S'okay'
p4191
g3
F0.5536
tp4192
asI424
(lp4193
(S'we'
p4194
g6
F0.9849
tp4195
a(S're'
p4196
g40
F0.4976
tp4197
a(S'at'
p4198
g45
F0.9995
tp4199
a(S'the'
p4200
g35
F0.9991
tp4201
a(S'table'
p4202
g40
F0.9922
tp4203
asI425
(lp4204
(S'thank'
p4205
g9
F0.692
tp4206
a(S'god'
p4207
g133
F0.6387
tp4208
a(S'we'
p4209
g6
F0.9891
tp4210
a(S'don'
p4211
g9
F0.8412
tp4212
a(g81
g9
F0.2913
tp4213
a(S'make'
p4214
g9
F0.9403
tp4215
a(S'video'
p4216
g40
F0.9972
tp4217
asI426
(lp4218
(S'laughs'
p4219
g9
F0.9102
tp4220
asI427
(lp4221
(S'laughs'
p4222
g9
F0.9102
tp4223
asI428
(lp4224
(S'laughs'
p4225
g9
F0.9102
tp4226
asI429
(lp4227
(S'www'
p4228
g133
F0.7954
tp4229
a(S'makes'
p4230
g9
F0.9493
tp4231
a(S'noises'
p4232
g40
F0.9893
tp4233
a(S'while'
p4234
g45
F0.9591
tp4235
a(S'chewing'
p4236
g9
F0.9856
tp4237
a(S'food'
p4238
g40
F0.9908
tp4239
asI430
(lp4240
(S'chi'
p4241
g133
F0.5882
tp4242
a(S'come'
p4243
g9
F0.9926
tp4244
a(S'on'
p4245
g199
F0.7116
tp4246
asI431
(lp4247
(g19
g6
F0.953
tp4248
a(g168
g9
F0.9832
tp4249
a(S'gettin'
p4250
g9
F0.9043
tp4251
a(g116
g74
F0.376
tp4252
a(S'my'
p4253
g35
F0.9909
tp4254
a(S'cookies'
p4255
g40
F0.9991
tp4256
asI432
(lp4257
(S'laughs'
p4258
g9
F0.9102
tp4259
asI433
(lp4260
(S'family'
p4261
g40
F0.829
tp4262
a(S'meal'
p4263
g40
F0.9971
tp4264
asI434
(lp4265
(S'boy'
p4266
g40
F0.9014
tp4267
a(S'this'
p4268
g6
F0.9321
tp4269
a(S'is'
p4270
g9
F0.9978
tp4271
a(S'such'
p4272
g12
F0.5949
tp4273
a(S'good'
p4274
g12
F0.9926
tp4275
a(S'pineapple'
p4276
g40
F0.9664
tp4277
asI435
(lp4278
(S'and'
p4279
g165
F0.9985
tp4280
a(S'family'
p4281
g40
F0.9333
tp4282
a(S'moved'
p4283
g9
F0.9516
tp4284
a(S'and'
p4285
g165
F0.9988
tp4286
a(g137
g35
F0.7902
tp4287
a(S'and'
p4288
g165
F0.9993
tp4289
a(g137
g35
F0.9947
tp4290
a(S'family'
p4291
g40
F0.9911
tp4292
a(S'gave'
p4293
g9
F0.9982
tp4294
a(S'my'
p4295
g35
F0.9959
tp4296
a(S'cookies'
p4297
g40
F0.9993
tp4298
asI436
(lp4299
(S'mhm'
p4300
g3
F0.9747
tp4301
asI437
(lp4302
(S'did'
p4303
g9
F0.9986
tp4304
a(S'you'
p4305
g6
F0.9848
tp4306
a(S'um'
p4307
g9
F0.4764
tp4308
a(S'do'
p4309
g9
F0.9989
tp4310
a(S'you'
p4311
g6
F0.999
tp4312
a(S'like'
p4313
g9
F0.588
tp4314
a(S'pineapple'
p4315
g40
F0.7374
tp4316
a(S'bro'
p4317
g40
F0.9852
tp4318
asI438
(lp4319
(S'mm'
p4320
g3
F0.3354
tp4321
a(S'no'
p4322
g3
F0.961
tp4323
asI439
(lp4324
(S'you'
p4325
g6
F0.9926
tp4326
a(S'don'
p4327
g9
F0.8675
tp4328
a(g81
g9
F0.4066
tp4329
a(S'like'
p4330
g45
F0.868
tp4331
a(S'pineapple'
p4332
g40
F0.8766
tp4333
asI440
(lp4334
(S'it'
p4335
g6
F0.9888
tp4336
a(g73
g74
F0.4756
tp4337
a(S'very'
p4338
g24
F0.9891
tp4339
a(S'delicious'
p4340
g12
F0.9995
tp4341
asI441
(lp4342
(S'oh'
p4343
g3
F0.9988
tp4344
asI442
(lp4345
(S'those'
p4346
g35
F0.936
tp4347
a(S'cookies'
p4348
g40
F0.9965
tp4349
a(S'you'
p4350
g6
F0.9671
tp4351
a(S're'
p4352
g40
F0.5494
tp4353
a(S'gonna'
p4354
g9
F0.9966
tp4355
a(S'eat'
p4356
g9
F0.9948
tp4357
asI443
(lp4358
(S'chi'
p4359
g133
F0.3466
tp4360
a(S'no'
p4361
g3
F0.8502
tp4362
asI444
(lp4363
(S'take'
p4364
g9
F0.9921
tp4365
a(g137
g35
F0.9976
tp4366
a(S'cookie'
p4367
g40
F0.9987
tp4368
asI445
(lp4369
(S'what'
p4370
g6
F0.949
tp4371
asI446
(lp4372
(S'he'
p4373
g6
F0.9888
tp4374
a(g73
g74
F0.538
tp4375
a(S'alright'
p4376
g3
F0.9186
tp4377
asI447
(lp4378
(S'xxx'
p4379
g68
F0.8437
tp4380
asI448
(lp4381
(S'he'
p4382
g6
F0.9888
tp4383
a(g73
g74
F0.538
tp4384
a(S'alright'
p4385
g3
F0.9186
tp4386
asI449
(lp4387
(S'he'
p4388
g6
F0.9912
tp4389
a(S'll'
p4390
g9
F0.4958
tp4391
a(S'just'
p4392
g24
F0.9995
tp4393
a(S'eat'
p4394
g9
F0.9813
tp4395
asI450
(lp4396
(g19
g6
F0.9583
tp4397
a(g19
g6
F0.9011
tp4398
a(S'willn'
p4399
g9
F0.6981
tp4400
a(g81
g45
F0.2305
tp4401
a(S'spoil'
p4402
g9
F0.9453
tp4403
a(S'dinner'
p4404
g40
F0.9711
tp4405
asI451
(lp4406
(S'mm'
p4407
g3
F0.627
tp4408
asI452
(lp4409
(S'come'
p4410
g9
F0.9897
tp4411
a(S'on'
p4412
g45
F0.9533
tp4413
a(S'you'
p4414
g6
F0.9997
tp4415
a(S'asked'
p4416
g9
F0.9977
tp4417
a(S'for'
p4418
g45
F0.9982
tp4419
a(S'it'
p4420
g6
F0.998
tp4421
asI453
(lp4422
(S'yeah'
p4423
g3
F0.9901
tp4424
a(S'see'
p4425
g9
F0.8764
tp4426
a(S'xxx'
p4427
g9
F0.3969
tp4428
a(S'you'
p4429
g6
F0.9992
tp4430
a(S'can'
p4431
g9
F0.9997
tp4432
a(S'have'
p4433
g9
F0.9999
tp4434
a(S'the'
p4435
g35
F0.9889
tp4436
a(S'if'
p4437
g45
F0.996
tp4438
a(S'you'
p4439
g6
F0.9992
tp4440
a(S'clear'
p4441
g9
F0.7014
tp4442
a(S'up'
p4443
g199
F0.9801
tp4444
a(S'on'
p4445
g45
F0.9966
tp4446
a(S'the'
p4447
g35
F0.9993
tp4448
a(S'table'
p4449
g40
F0.9943
tp4450
a(S'before'
p4451
g45
F0.9973
tp4452
a(S'he'
p4453
g6
F0.9986
tp4454
a(S'starts'
p4455
g9
F0.9975
tp4456
asI454
(lp4457
(g19
g6
F0.9912
tp4458
a(S'know'
p4459
g9
F0.9994
tp4460
a(S'after'
p4461
g45
F0.8087
tp4462
asI455
(lp4463
(S'hm'
p4464
g3
F0.9798
tp4465
a(S'he'
p4466
g6
F0.9943
tp4467
a(S'll'
p4468
g9
F0.5514
tp4469
a(S'get'
p4470
g9
F0.9992
tp4471
a(S'some'
p4472
g35
F0.805
tp4473
asI456
(lp4474
(S'he'
p4475
g6
F0.9958
tp4476
a(S'knows'
p4477
g9
F0.9999
tp4478
a(S'that'
p4479
g6
F0.8611
tp4480
asI457
(lp4481
(g19
g6
F0.989
tp4482
a(S'told'
p4483
g9
F0.9994
tp4484
a(S'chi'
p4485
g133
F0.8029
tp4486
a(S'to'
p4487
g45
F0.9944
tp4488
a(S'come'
p4489
g9
F0.9996
tp4490
a(S'in'
p4491
g45
F0.631
tp4492
a(S'with'
p4493
g45
F0.9959
tp4494
a(S'it'
p4495
g6
F0.9978
tp4496
asI458
(lp4497
(S'mm'
p4498
g3
F0.2861
tp4499
a(S'yummy'
p4500
g12
F0.7217
tp4501
asI459
(lp4502
(S'uh'
p4503
g3
F0.9767
tp4504
a(S'no'
p4505
g3
F0.9528
tp4506
asI460
(lp4507
(S'that'
p4508
g6
F0.473
tp4509
a(g73
g74
F0.4353
tp4510
a(S'not'
p4511
g24
F0.9986
tp4512
a(S'funny'
p4513
g12
F0.9978
tp4514
asI461
(lp4515
(S'okay'
p4516
g3
F0.9857
tp4517
asI462
(lp4518
(S'don'
p4519
g133
F0.5427
tp4520
a(g81
g133
F0.3606
tp4521
a(S'be'
p4522
g9
F0.9838
tp4523
a(S'rude'
p4524
g12
F0.997
tp4525
asI463
(lp4526
(S'talk'
p4527
g9
F0.8741
tp4528
a(S'english'
p4529
g40
F0.7013
tp4530
asI464
(lp4531
(S'what'
p4532
g6
F0.949
tp4533
asI465
(lp4534
(S'hm'
p4535
g3
F0.995
tp4536
asI466
(lp4537
(S'talk'
p4538
g9
F0.8741
tp4539
a(S'english'
p4540
g40
F0.7013
tp4541
asI467
(lp4542
(S'talk'
p4543
g9
F0.8741
tp4544
a(S'english'
p4545
g40
F0.7013
tp4546
asI468
(lp4547
(S'yeah'
p4548
g3
F0.992
tp4549
a(S'www'
p4550
g133
F0.5076
tp4551
a(S'giggles'
p4552
g40
F0.6382
tp4553
asI469
(lp4554
(S'it'
p4555
g6
F0.9888
tp4556
a(g73
g9
F0.5104
tp4557
a(S'also'
p4558
g24
F0.9947
tp4559
a(S'not'
p4560
g24
F0.9991
tp4561
a(S'very'
p4562
g24
F0.9978
tp4563
a(S'polite'
p4564
g12
F0.9989
tp4565
a(S'to'
p4566
g45
F0.9983
tp4567
a(S'talk'
p4568
g9
F0.9965
tp4569
a(S'with'
p4570
g45
F0.9996
tp4571
a(S'your'
p4572
g35
F0.9977
tp4573
a(S'mouth'
p4574
g40
F0.9993
tp4575
a(S'full'
p4576
g12
F0.9728
tp4577
asI470
(lp4578
(S'okay'
p4579
g3
F0.9857
tp4580
asI471
(lp4581
(S'hm'
p4582
g3
F0.995
tp4583
asI472
(lp4584
(S'cookies'
p4585
g40
F0.9814
tp4586
asI473
(lp4587
(S'laughs'
p4588
g9
F0.9102
tp4589
asI474
(lp4590
(S'chuckles'
p4591
g9
F0.8006
tp4592
asI475
(lp4593
(S'oh'
p4594
g3
F0.9955
tp4595
a(S'we'
p4596
g6
F0.9934
tp4597
a(S'didn'
p4598
g9
F0.9873
tp4599
a(g81
g9
F0.6831
tp4600
a(S'get'
p4601
g9
F0.9942
tp4602
a(S'too'
p4603
g24
F0.9933
tp4604
a(S'much'
p4605
g12
F0.534
tp4606
a(S'done'
p4607
g9
F0.9476
tp4608
a(S'this'
p4609
g35
F0.9921
tp4610
a(S'weekend'
p4611
g40
F0.9927
tp4612
a(S'did'
p4613
g9
F0.9959
tp4614
a(S'we'
p4615
g6
F0.9963
tp4616
asI476
(lp4617
(S'what'
p4618
g6
F0.949
tp4619
asI477
(lp4620
(g19
g6
F0.9893
tp4621
a(S'said'
p4622
g9
F0.9998
tp4623
a(S'we'
p4624
g6
F0.9981
tp4625
a(S'didn'
p4626
g9
F0.9868
tp4627
a(g81
g9
F0.6731
tp4628
a(S'get'
p4629
g9
F0.9942
tp4630
a(S'too'
p4631
g24
F0.9933
tp4632
a(S'much'
p4633
g12
F0.534
tp4634
a(S'done'
p4635
g9
F0.9476
tp4636
a(S'this'
p4637
g35
F0.9921
tp4638
a(S'weekend'
p4639
g40
F0.996
tp4640
a(S'did'
p4641
g9
F0.9974
tp4642
a(S'we'
p4643
g6
F0.9971
tp4644
asI478
(lp4645
(S'www'
p4646
g133
F0.4558
tp4647
a(S'babbles'
p4648
g40
F0.56
tp4649
asI479
(lp4650
(S'does'
p4651
g9
F0.9937
tp4652
a(S'eric'
p4653
g133
F0.9965
tp4654
a(S'have'
p4655
g9
F0.9981
tp4656
a(S'any'
p4657
g35
F0.9984
tp4658
a(S'brothers'
p4659
g40
F0.9946
tp4660
a(S'or'
p4661
g165
F0.9882
tp4662
a(S'sisters'
p4663
g40
F0.9926
tp4664
asI480
(lp4665
(S'he'
p4666
g6
F0.9945
tp4667
a(S'goes'
p4668
g9
F0.9997
tp4669
a(S'to'
p4670
g45
F0.9822
tp4671
a(S'his'
p4672
g35
F0.997
tp4673
a(S'father'
p4674
g40
F0.9871
tp4675
a(g73
g74
F0.5814
tp4676
a(S'every'
p4677
g35
F0.9518
tp4678
a(S'weekend'
p4679
g40
F0.997
tp4680
asI481
(lp4681
(S'mm'
p4682
g3
F0.3354
tp4683
a(S'no'
p4684
g3
F0.961
tp4685
asI482
(lp4686
(S'www'
p4687
g133
F0.6113
tp4688
a(S'exaggerated'
p4689
g12
F0.671
tp4690
a(S'eating'
p4691
g9
F0.9111
tp4692
a(S'noises'
p4693
g40
F0.9937
tp4694
asI483
(lp4695
(S'at'
p4696
g45
F0.9866
tp4697
a(S'least'
p4698
g12
F0.9535
tp4699
a(S'they'
p4700
g6
F0.5885
tp4701
a(S'both'
p4702
g6
F0.4114
tp4703
a(S'live'
p4704
g9
F0.7716
tp4705
a(S'in'
p4706
g45
F0.9871
tp4707
a(S'the'
p4708
g35
F0.9996
tp4709
a(S'same'
p4710
g12
F0.9961
tp4711
a(S'town'
p4712
g40
F0.9794
tp4713
asI484
(lp4714
(S'mhm'
p4715
g3
F0.9747
tp4716
asI485
(lp4717
(S'what'
p4718
g6
F0.949
tp4719
asI486
(lp4720
(g19
g6
F0.9893
tp4721
a(S'said'
p4722
g9
F0.9996
tp4723
a(S'at'
p4724
g45
F0.9891
tp4725
a(S'least'
p4726
g12
F0.9685
tp4727
a(S'both'
p4728
g35
F0.4592
tp4729
a(S'eric'
p4730
g133
F0.9959
tp4731
a(g73
g74
F0.3469
tp4732
a(S'parents'
p4733
g40
F0.9642
tp4734
a(S'live'
p4735
g9
F0.8718
tp4736
a(S'in'
p4737
g45
F0.9871
tp4738
a(S'the'
p4739
g35
F0.9997
tp4740
a(S'same'
p4741
g12
F0.9947
tp4742
a(S'town'
p4743
g40
F0.9739
tp4744
asI487
(lp4745
(S'oh'
p4746
g3
F0.9988
tp4747
asI488
(lp4748
(S'you'
p4749
g6
F0.9972
tp4750
a(S'mean'
p4751
g9
F0.7469
tp4752
a(S'town'
p4753
g40
F0.9079
tp4754
asI489
(lp4755
(S'laughs'
p4756
g9
F0.9102
tp4757
asI490
(lp4758
(S'his'
p4759
g35
F0.9972
tp4760
a(S'mother'
p4761
g40
F0.9902
tp4762
a(g73
g74
F0.7885
tp4763
a(S'handicapped'
p4764
g12
F0.7928
tp4765
a(S'you'
p4766
g6
F0.9982
tp4767
a(S'know'
p4768
g9
F0.9996
tp4769
a(S'that'
p4770
g6
F0.7534
tp4771
asI491
(lp4772
(S'no'
p4773
g3
F0.9253
tp4774
asI492
(lp4775
(S'how'
p4776
g24
F0.9828
tp4777
a(S'so'
p4778
g24
F0.5831
tp4779
asI493
(lp4780
(S'eyesight'
p4781
g40
F0.8881
tp4782
asI494
(lp4783
(S'really'
p4784
g24
F0.9938
tp4785
asI495
(lp4786
(S'www'
p4787
g133
F0.5889
tp4788
a(S'whimpers'
p4789
g40
F0.6345
tp4790
asI496
(lp4791
(S'what'
p4792
g6
F0.9931
tp4793
a(S'do'
p4794
g9
F0.9991
tp4795
a(S'you'
p4796
g6
F0.9997
tp4797
a(S'mean'
p4798
g9
F0.9121
tp4799
asI497
(lp4800
(S'no'
p4801
g3
F0.787
tp4802
a(S'not'
p4803
g24
F0.9448
tp4804
a(S'his'
p4805
g35
F0.9971
tp4806
a(S'mother'
p4807
g40
F0.9922
tp4808
a(S'chi'
p4809
g74
F0.5391
tp4810
asI498
(lp4811
(S'eric'
p4812
g133
F0.9975
tp4813
a(g73
g74
F0.3466
tp4814
a(S'mother'
p4815
g40
F0.971
tp4816
asI499
(lp4817
(g19
g6
F0.9635
tp4818
a(S'don'
p4819
g9
F0.9231
tp4820
a(g81
g9
F0.4437
tp4821
a(S'like'
p4822
g45
F0.9413
tp4823
a(S'this'
p4824
g35
F0.815
tp4825
a(S'food'
p4826
g40
F0.9937
tp4827
asI500
(lp4828
(S'she'
p4829
g6
F0.9912
tp4830
a(g73
g74
F0.4775
tp4831
a(S'handicapped'
p4832
g12
F0.981
tp4833
asI501
(lp4834
(g19
g6
F0.9583
tp4835
a(g19
g6
F0.956
tp4836
a(S'don'
p4837
g9
F0.9187
tp4838
a(g81
g74
F0.2928
tp4839
a(S'like'
p4840
g45
F0.7393
tp4841
a(S'that'
p4842
g6
F0.9267
tp4843
asI502
(lp4844
(S'is'
p4845
g9
F0.9964
tp4846
a(S'she'
p4847
g6
F0.9595
tp4848
a(S'blind'
p4849
g12
F0.9566
tp4850
asI503
(lp4851
(S'uh'
p4852
g3
F0.9767
tp4853
a(S'no'
p4854
g3
F0.9528
tp4855
asI504
(lp4856
(S'sh'
p4857
g74
F0.7228
tp4858
a(S'she'
p4859
g6
F0.9823
tp4860
a(S'uh'
p4861
g3
F0.7245
tp4862
a(S'sh'
p4863
g74
F0.4932
tp4864
a(S'uh'
p4865
g3
F0.5556
tp4866
a(S'e'
p4867
g74
F0.4288
tp4868
a(S'er'
p4869
g74
F0.8739
tp4870
a(S'eric'
p4871
g133
F0.9977
tp4872
a(S'said'
p4873
g9
F0.9987
tp4874
a(S'her'
p4875
g6
F0.9087
tp4876
a(S'like'
p4877
g45
F0.9218
tp4878
a(S'sh'
p4879
g74
F0.7315
tp4880
a(S'she'
p4881
g6
F0.9961
tp4882
a(S'can'
p4883
g9
F0.9985
tp4884
a(g81
g9
F0.8017
tp4885
a(S'see'
p4886
g9
F0.9917
tp4887
a(S'that'
p4888
g45
F0.3725
tp4889
a(S'well'
p4890
g24
F0.4116
tp4891
asI505
(lp4892
(S'www'
p4893
g133
F0.4885
tp4894
a(S'noises'
p4895
g40
F0.9427
tp4896
asI506
(lp4897
(S'alright'
p4898
g3
F0.9324
tp4899
a(S'bro'
p4900
g40
F0.7825
tp4901
asI507
(lp4902
(S'mhm'
p4903
g3
F0.9747
tp4904
asI508
(lp4905
(S'because'
p4906
g45
F0.9958
tp4907
a(S'um'
p4908
g74
F0.5382
tp4909
a(S'w'
p4910
g74
F0.4614
tp4911
a(S'when'
p4912
g24
F0.9628
tp4913
a(S'she'
p4914
g6
F0.9963
tp4915
a(S'went'
p4916
g9
F0.9987
tp4917
a(S'to'
p4918
g45
F0.9816
tp4919
a(S'look'
p4920
g9
F0.9949
tp4921
a(S'at'
p4922
g45
F0.9988
tp4923
a(S'her'
p4924
g6
F0.5635
tp4925
a(S'she'
p4926
g6
F0.8738
tp4927
a(S'clock'
p4928
g40
F0.6788
tp4929
a(S'she'
p4930
g6
F0.9902
tp4931
a(S'went'
p4932
g9
F0.9994
tp4933
a(S'this'
p4934
g35
F0.9881
tp4935
a(S'way'
p4936
g40
F0.9607
tp4937
asI509
(lp4938
(S'laughs'
p4939
g9
F0.9102
tp4940
asI510
(lp4941
(S'oh'
p4942
g3
F0.9974
tp4943
a(S'chi'
p4944
g133
F0.5174
tp4945
a(S'laughs'
p4946
g9
F0.9527
tp4947
asI511
(lp4948
(S'well'
p4949
g3
F0.8573
tp4950
a(g19
g6
F0.991
tp4951
a(g19
g6
F0.9539
tp4952
a(S'don'
p4953
g9
F0.9208
tp4954
a(g81
g9
F0.4063
tp4955
a(S'think'
p4956
g9
F0.9974
tp4957
a(S'that'
p4958
g6
F0.7741
tp4959
asI512
(lp4960
(S'yeah'
p4961
g3
F0.9988
tp4962
asI513
(lp4963
(S'yeah'
p4964
g3
F0.9988
tp4965
a(S'yeah'
p4966
g3
F0.9991
tp4967
asI514
(lp4968
(g19
g6
F0.953
tp4969
a(g168
g9
F0.9784
tp4970
a(S'not'
p4971
g24
F0.9957
tp4972
a(S'laughing'
p4973
g9
F0.9909
tp4974
a(S'at'
p4975
g45
F0.9864
tp4976
a(S'xxx'
p4977
g68
F0.3246
tp4978
a(S'laughs'
p4979
g9
F0.9465
tp4980
asI515
(lp4981
(S'forget'
p4982
g9
F0.9987
tp4983
a(S'it'
p4984
g6
F0.9963
tp4985
a(S'laughing'
p4986
g9
F0.9899
tp4987
asI516
(lp4988
(S'and'
p4989
g165
F0.9986
tp4990
a(S'when'
p4991
g24
F0.9842
tp4992
a(g19
g6
F0.9918
tp4993
a(S'went'
p4994
g9
F0.9993
tp4995
a(S'back'
p4996
g24
F0.8857
tp4997
asI517
(lp4998
(S'well'
p4999
g3
F0.8954
tp5000
a(S'she'
p5001
g6
F0.9978
tp5002
a(S'works'
p5003
g9
F0.9729
tp5004
a(S'at'
p5005
g45
F0.9936
tp5006
a(S'perkins'
p5007
g133
F0.9333
tp5008
a(S'school'
p5009
g40
F0.9731
tp5010
a(S'for'
p5011
g45
F1.0
tp5012
a(S'the'
p5013
g35
F0.9994
tp5014
a(S'blind'
p5015
g12
F0.969
tp5016
asI518
(lp5017
(S'and'
p5018
g165
F0.9992
tp5019
a(S'um'
p5020
g3
F0.7469
tp5021
a(S'then'
p5022
g24
F0.9867
tp5023
a(g19
g6
F0.9704
tp5024
a(S'u'
p5025
g6
F0.9925
tp5026
a(g19
g6
F0.9581
tp5027
a(S'walked'
p5028
g9
F0.9998
tp5029
a(S'back'
p5030
g24
F0.8507
tp5031
a(S'to'
p5032
g45
F0.9992
tp5033
a(S'the'
p5034
g35
F0.999
tp5035
a(S'kitchen'
p5036
g40
F0.8992
tp5037
a(S'and'
p5038
g165
F0.9977
tp5039
a(S'started'
p5040
g9
F0.9975
tp5041
a(S'to'
p5042
g45
F0.9751
tp5043
a(S'xxx'
p5044
g9
F0.4858
tp5045
a(S'and'
p5046
g165
F0.9961
tp5047
a(S'in'
p5048
g45
F0.9516
tp5049
a(S'fifteen'
p5050
g102
F0.8087
tp5051
a(S'minutes'
p5052
g40
F0.9848
tp5053
a(S'she'
p5054
g6
F0.9833
tp5055
a(g73
g9
F0.6375
tp5056
a(S'like'
p5057
g45
F0.8111
tp5058
asI519
(lp5059
(S'and'
p5060
g165
F0.9987
tp5061
a(S'so'
p5062
g24
F0.763
tp5063
a(S'does'
p5064
g9
F0.9947
tp5065
a(S'dan'
p5066
g133
F0.9562
tp5067
a(g73
g74
F0.3109
tp5068
a(S'mom'
p5069
g40
F0.854
tp5070
asI520
(lp5071
(S'hm'
p5072
g3
F0.995
tp5073
asI521
(lp5074
(S'so'
p5075
g45
F0.9008
tp5076
a(S'she'
p5077
g6
F0.9987
tp5078
a(S'can'
p5079
g9
F0.9994
tp5080
a(S'see'
p5081
g9
F0.9946
tp5082
asI522
(lp5083
(S'she'
p5084
g6
F0.9945
tp5085
a(S'just'
p5086
g24
F0.9996
tp5087
a(S'has'
p5088
g9
F0.9995
tp5089
a(S'to'
p5090
g45
F0.9937
tp5091
a(g73
g74
F0.5485
tp5092
asI523
(lp5093
(S'does'
p5094
g9
F0.9952
tp5095
a(S'she'
p5096
g6
F0.9947
tp5097
a(S'drive'
p5098
g9
F0.7579
tp5099
asI524
(lp5100
(S'hm'
p5101
g3
F0.995
tp5102
asI525
(lp5103
(g19
g6
F0.9635
tp5104
a(S'don'
p5105
g9
F0.9231
tp5106
a(g81
g9
F0.2823
tp5107
a(S'think'
p5108
g9
F0.9775
tp5109
a(S'so'
p5110
g24
F0.8655
tp5111
asI526
(lp5112
(S'you'
p5113
g6
F0.9911
tp5114
a(S'wouldn'
p5115
g9
F0.9872
tp5116
a(g81
g9
F0.8531
tp5117
a(S'think'
p5118
g9
F0.9775
tp5119
a(S'so'
p5120
g24
F0.8298
tp5121
a(S'yeah'
p5122
g3
F0.9783
tp5123
asI527
(lp5124
(S'be'
p5125
g9
F0.9727
tp5126
a(S'cause'
p5127
g45
F0.9298
tp5128
a(S'um'
p5129
g74
F0.491
tp5130
a(S'rick'
p5131
g133
F0.9914
tp5132
a(S'was'
p5133
g9
F0.9964
tp5134
a(S'tellin'
p5135
g9
F0.6124
tp5136
a(g116
g9
F0.7216
tp5137
a(S'me'
p5138
g6
F0.9984
tp5139
a(S'about'
p5140
g45
F0.9584
tp5141
a(S'her'
p5142
g6
F0.7804
tp5143
a(S'xxx'
p5144
g40
F0.4782
tp5145
a(S'yesterday'
p5146
g40
F0.9525
tp5147
asI528
(lp5148
(S'oh'
p5149
g3
F0.9971
tp5150
a(S'really'
p5151
g24
F0.9779
tp5152
asI529
(lp5153
(S'yeah'
p5154
g3
F0.9958
tp5155
a(S'he'
p5156
g6
F0.9973
tp5157
a(S'stayed'
p5158
g9
F0.9988
tp5159
a(S'over'
p5160
g45
F0.6714
tp5161
a(S'here'
p5162
g24
F0.9577
tp5163
asI530
(lp5164
(S'where'
p5165
g24
F0.9392
tp5166
a(S'was'
p5167
g9
F0.9857
tp5168
asI531
(lp5169
(S'we'
p5170
g6
F0.9953
tp5171
a(S'were'
p5172
g9
F0.9973
tp5173
a(S'xxx'
p5174
g68
F0.4089
tp5175
a(S'we'
p5176
g6
F0.9931
tp5177
a(S'were'
p5178
g9
F0.9974
tp5179
a(S'just'
p5180
g24
F0.9997
tp5181
a(S'talking'
p5182
g9
F0.9974
tp5183
a(S'about'
p5184
g45
F0.9921
tp5185
a(S'it'
p5186
g6
F0.999
tp5187
asI532
(lp5188
(S'oh'
p5189
g3
F0.9908
tp5190
a(S'in'
p5191
g45
F0.9932
tp5192
a(S'the'
p5193
g35
F0.9994
tp5194
a(S'morning'
p5195
g40
F0.9984
tp5196
asI533
(lp5197
(S'didn'
p5198
g9
F0.598
tp5199
a(g81
g9
F0.7697
tp5200
a(S'he'
p5201
g6
F0.9976
tp5202
a(S'meet'
p5203
g9
F0.9999
tp5204
a(S'you'
p5205
g6
F0.9506
tp5206
a(S'guys'
p5207
g40
F0.9607
tp5208
a(S'at'
p5209
g45
F0.9997
tp5210
a(S'the'
p5211
g35
F0.9994
tp5212
a(S'game'
p5213
g40
F0.9984
tp5214
asI534
(lp5215
(S'yeah'
p5216
g3
F0.9988
tp5217
asI535
(lp5218
(S'right'
p5219
g3
F0.656
tp5220
a(S'he'
p5221
g6
F0.9947
tp5222
a(S'was'
p5223
g9
F0.9999
tp5224
a(S'over'
p5225
g24
F0.6614
tp5226
a(S'here'
p5227
g24
F0.991
tp5228
a(S'in'
p5229
g45
F0.998
tp5230
a(S'the'
p5231
g35
F0.9994
tp5232
a(S'afternoon'
p5233
g40
F0.9976
tp5234
asI536
(lp5235
(S'xxx'
p5236
g68
F0.8437
tp5237
asI537
(lp5238
(S'yeah'
p5239
g3
F0.9988
tp5240
asI538
(lp5241
(S'xxx'
p5242
g68
F0.4676
tp5243
a(S'me'
p5244
g6
F0.9968
tp5245
a(S'and'
p5246
g165
F0.9891
tp5247
a(S'bro'
p5248
g40
F0.9736
tp5249
a(S'went'
p5250
g9
F0.9972
tp5251
a(S'over'
p5252
g45
F0.512
tp5253
a(S'to'
p5254
g45
F0.9165
tp5255
a(S'eric'
p5256
g133
F0.9981
tp5257
a(g73
g74
F0.7189
tp5258
asI539
(lp5259
(S'mhm'
p5260
g3
F0.9747
tp5261
asI540
(lp5262
(S'to'
p5263
g45
F0.9921
tp5264
a(S'pick'
p5265
g9
F0.9966
tp5266
a(S'eric'
p5267
g133
F0.9835
tp5268
a(S'up'
p5269
g199
F0.9064
tp5270
asI541
(lp5271
(S'and'
p5272
g165
F0.9991
tp5273
a(S'we'
p5274
g6
F0.9963
tp5275
a(S'ended'
p5276
g9
F0.9999
tp5277
a(S'up'
p5278
g199
F0.9502
tp5279
a(S'talking'
p5280
g9
F0.8538
tp5281
a(S'for'
p5282
g45
F0.9984
tp5283
a(S'couple'
p5284
g12
F0.5061
tp5285
a(S'hours'
p5286
g40
F0.9953
tp5287
a(S'here'
p5288
g24
F0.9595
tp5289
asI542
(lp5290
(g137
g35
F0.9917
tp5291
a(S'couple'
p5292
g40
F0.752
tp5293
a(S'hours'
p5294
g40
F0.9946
tp5295
asI543
(lp5296
(S'really'
p5297
g24
F0.9938
tp5298
asI544
(lp5299
(S'where'
p5300
g24
F0.942
tp5301
a(S'was'
p5302
g9
F0.9787
tp5303
a(g19
g6
F0.9915
tp5304
a(S'chuckles'
p5305
g9
F0.9978
tp5306
asI545
(lp5307
(S'at'
p5308
g45
F0.9948
tp5309
a(S'work'
p5310
g40
F0.9722
tp5311
asI546
(lp5312
(S'working'
p5313
g9
F0.9643
tp5314
a(S'yeah'
p5315
g3
F0.9904
tp5316
asI547
(lp5317
(S'and'
p5318
g165
F0.9987
tp5319
a(S'then'
p5320
g24
F0.9592
tp5321
a(S'that'
p5322
g6
F0.5191
tp5323
a(g73
g9
F0.4237
tp5324
a(S'how'
p5325
g24
F0.9816
tp5326
a(S'they'
p5327
g6
F0.9966
tp5328
a(S'fixed'
p5329
g9
F0.9991
tp5330
a(S'the'
p5331
g35
F0.997
tp5332
a(S'v'
p5333
g133
F0.5204
tp5334
a(S'l'
p5335
g74
F0.4807
tp5336
a(S'c'
p5337
g74
F0.8721
tp5338
a(g5335
g74
F0.8291
tp5339
a(S'r'
p5340
g74
F0.7133
tp5341
a(g5335
g74
F0.6856
tp5342
asI548
(lp5343
(S'oh'
p5344
g3
F0.9988
tp5345
asI549
(lp5346
(S'what'
p5347
g6
F0.9931
tp5348
a(S'does'
p5349
g9
F0.9969
tp5350
a(S'he'
p5351
g6
F0.9992
tp5352
a(S'do'
p5353
g9
F0.9991
tp5354
asI550
(lp5355
(S'uh'
p5356
g3
F0.9692
tp5357
a(S'he'
p5358
g6
F0.9927
tp5359
a(S'works'
p5360
g9
F0.9896
tp5361
a(S'at'
p5362
g45
F0.9963
tp5363
a(S'radio'
p5364
g40
F0.6256
tp5365
a(S'shack'
p5366
g40
F0.9977
tp5367
asI551
(lp5368
(S'oh'
p5369
g3
F0.9988
tp5370
asI552
(lp5371
(S'he'
p5372
g6
F0.9905
tp5373
a(g73
g9
F0.8489
tp5374
a(S'like'
p5375
g45
F0.8657
tp5376
a(g137
g35
F0.995
tp5377
a(S'computer'
p5378
g40
F0.9984
tp5379
a(S'consultant'
p5380
g40
F0.9856
tp5381
a(S'for'
p5382
g45
F0.9996
tp5383
a(S'radio'
p5384
g40
F0.8222
tp5385
a(S'shack'
p5386
g40
F0.998
tp5387
asI553
(lp5388
(g19
g6
F0.9635
tp5389
a(S'don'
p5390
g9
F0.9231
tp5391
a(g81
g40
F0.2503
tp5392
a(S'want'
p5393
g9
F0.9974
tp5394
a(S'any'
p5395
g35
F0.8779
tp5396
a(S'more'
p5397
g12
F0.8076
tp5398
asI554
(lp5399
(S'okay'
p5400
g3
F0.9857
tp5401
asI555
(lp5402
(S'they'
p5403
g6
F0.9817
tp5404
a(S'send'
p5405
g9
F0.9999
tp5406
a(S'him'
p5407
g6
F0.9956
tp5408
a(S'out'
p5409
g199
F0.7507
tp5410
asI556
(lp5411
(S'can'
p5412
g9
F0.999
tp5413
a(S'you'
p5414
g6
F0.9987
tp5415
a(S'eat'
p5416
g9
F0.9998
tp5417
a(S'your'
p5418
g35
F0.9936
tp5419
a(S'corn'
p5420
g40
F0.999
tp5421
a(S'please'
p5422
g9
F0.9589
tp5423
asI557
(lp5424
(S'growls'
p5425
g9
F0.9496
tp5426
asI558
(lp5427
(S'please'
p5428
g9
F0.8246
tp5429
asI559
(lp5430
(S'hunhunh'
p5431
g3
F0.5425
tp5432
asI560
(lp5433
(S'want'
p5434
g9
F0.9993
tp5435
a(S'me'
p5436
g6
F0.9985
tp5437
a(S'to'
p5438
g45
F0.9712
tp5439
a(S'feed'
p5440
g9
F0.9997
tp5441
a(S'you'
p5442
g6
F0.9989
tp5443
a(S'like'
p5444
g9
F0.7019
tp5445
a(g137
g35
F0.9974
tp5446
a(S'little'
p5447
g12
F0.9974
tp5448
a(S'baby'
p5449
g40
F0.997
tp5450
asI561
(lp5451
(S'uhuh'
p5452
g3
F0.9919
tp5453
asI562
(lp5454
(g19
g6
F0.9866
tp5455
a(S'will'
p5456
g9
F0.9993
tp5457
asI563
(lp5458
(S'then'
p5459
g24
F0.9662
tp5460
a(S'you'
p5461
g6
F0.9993
tp5462
a(S'eat'
p5463
g9
F0.9998
tp5464
a(S'it'
p5465
g6
F0.9766
tp5466
a(S'yourself'
p5467
g6
F0.972
tp5468
a(S'and'
p5469
g165
F0.9962
tp5470
a(S'then'
p5471
g24
F0.9839
tp5472
a(S'you'
p5473
g6
F0.9995
tp5474
a(S'can'
p5475
g9
F0.9996
tp5476
a(S'have'
p5477
g9
F0.9991
tp5478
a(S'dessert'
p5479
g40
F0.9908
tp5480
asI564
(lp5481
(g19
g6
F0.953
tp5482
a(g168
g9
F0.9629
tp5483
a(S'gonna'
p5484
g9
F0.9964
tp5485
a(S'blow'
p5486
g9
F0.9653
tp5487
a(S'all'
p5488
g35
F0.7168
tp5489
a(S'this'
p5490
g6
F0.7249
tp5491
a(S'up'
p5492
g199
F0.9746
tp5493
asI565
(lp5494
(S'no'
p5495
g3
F0.7985
tp5496
a(S'you'
p5497
g6
F0.978
tp5498
a(S're'
p5499
g9
F0.6994
tp5500
a(S'not'
p5501
g24
F0.9941
tp5502
asI566
(lp5503
(S'you'
p5504
g6
F0.9754
tp5505
a(S're'
p5506
g9
F0.5188
tp5507
a(S'gonna'
p5508
g9
F0.9924
tp5509
a(S'eat'
p5510
g9
F0.9922
tp5511
asI567
(lp5512
(S'see'
p5513
g9
F0.7673
tp5514
a(S'chi'
p5515
g133
F0.7921
tp5516
a(S'ate'
p5517
g9
F0.9925
tp5518
a(S'everything'
p5519
g40
F0.8848
tp5520
a(S'all'
p5521
g35
F0.4112
tp5522
a(S'you'
p5523
g6
F0.999
tp5524
a(S'know'
p5525
g9
F0.9998
tp5526
a(S'all'
p5527
g384
F0.5065
tp5528
a(S'his'
p5529
g35
F0.9997
tp5530
a(S'supper'
p5531
g40
F0.9787
tp5532
asI568
(lp5533
(S'yeah'
p5534
g3
F0.9988
tp5535
asI569
(lp5536
(S'that'
p5537
g6
F0.473
tp5538
a(g73
g74
F0.472
tp5539
a(S'why'
p5540
g24
F0.9143
tp5541
a(S'he'
p5542
g6
F0.9966
tp5543
a(g73
g9
F0.7848
tp5544
a(S'eating'
p5545
g9
F0.9912
tp5546
a(S'dessert'
p5547
g40
F0.9744
tp5548
a(S'now'
p5549
g24
F0.9899
tp5550
asI570
(lp5551
(S'hunhunh'
p5552
g3
F0.5425
tp5553
asI571
(lp5554
(S'he'
p5555
g6
F0.9959
tp5556
a(S'has'
p5557
g9
F0.9999
tp5558
a(S'his'
p5559
g35
F0.9976
tp5560
a(S'strawberries'
p5561
g40
F0.9982
tp5562
asI572
(lp5563
(S'well'
p5564
g3
F0.8956
tp5565
a(S'he'
p5566
g6
F0.9988
tp5567
a(S'ate'
p5568
g9
F0.9996
tp5569
a(g137
g35
F0.997
tp5570
a(S'replacement'
p5571
g40
F0.9933
tp5572
a(S'strawberry'
p5573
g40
F0.9662
tp5574
asI573
(lp5575
(S'no'
p5576
g3
F0.9253
tp5577
asI574
(lp5578
(S'be'
p5579
g9
F0.9727
tp5580
a(S'cause'
p5581
g45
F0.8834
tp5582
a(S'that'
p5583
g35
F0.6413
tp5584
a(S'one'
p5585
g102
F0.6709
tp5586
a(S'had'
p5587
g9
F0.9598
tp5588
a(S'cooties'
p5589
g40
F0.931
tp5590
a(S'on'
p5591
g45
F0.9989
tp5592
a(S'it'
p5593
g6
F0.9981
tp5594
asI575
(lp5595
(S'laughs'
p5596
g9
F0.9102
tp5597
asI576
(lp5598
(S'laughs'
p5599
g9
F0.9102
tp5600
asI577
(lp5601
(S'laughs'
p5602
g9
F0.9102
tp5603
asI578
(lp5604
(S'meanwhile'
p5605
g24
F0.9444
tp5606
a(S'you'
p5607
g6
F0.9972
tp5608
a(S've'
p5609
g9
F0.8266
tp5610
a(S'had'
p5611
g9
F0.9984
tp5612
a(S'that'
p5613
g35
F0.8102
tp5614
a(S'same'
p5615
g12
F0.9419
tp5616
a(S'bite'
p5617
g40
F0.9807
tp5618
a(S'of'
p5619
g45
F0.9922
tp5620
a(S'ham'
p5621
g40
F0.6826
tp5622
a(S'in'
p5623
g45
F0.9984
tp5624
a(S'your'
p5625
g35
F0.9963
tp5626
a(S'mouth'
p5627
g40
F0.9997
tp5628
a(S'for'
p5629
g45
F1.0
tp5630
a(S'the'
p5631
g35
F0.9996
tp5632
a(S'last'
p5633
g12
F0.9933
tp5634
a(S'ten'
p5635
g102
F0.7166
tp5636
a(S'two'
p5637
g102
F0.9802
tp5638
a(S'minutes'
p5639
g40
F0.9893
tp5640
asI579
(lp5641
(S'laughs'
p5642
g9
F0.9102
tp5643
asI580
(lp5644
(S'laughs'
p5645
g9
F0.9102
tp5646
asI581
(lp5647
(S'what'
p5648
g6
F0.966
tp5649
a(S'me'
p5650
g6
F0.9984
tp5651
asI582
(lp5652
(S'yeah'
p5653
g3
F0.9957
tp5654
a(S'you'
p5655
g6
F0.986
tp5656
asI583
(lp5657
(S'giggles'
p5658
g9
F0.5513
tp5659
asI584
(lp5660
(g2876
g102
F0.9638
tp5661
asI585
(lp5662
(S'nope'
p5663
g3
F0.996
tp5664
asI586
(lp5665
(S'don'
p5666
g133
F0.5427
tp5667
a(g81
g133
F0.4522
tp5668
a(S'throw'
p5669
g9
F0.8947
tp5670
a(S'coins'
p5671
g40
F0.9949
tp5672
a(S'at'
p5673
g45
F0.9999
tp5674
a(S'the'
p5675
g35
F0.9931
tp5676
a(S'xxx'
p5677
g40
F0.8461
tp5678
a(S'at'
p5679
g45
F0.9901
tp5680
a(S'at'
p5681
g45
F0.9948
tp5682
a(S'the'
p5683
g35
F0.9991
tp5684
a(S'table'
p5685
g40
F0.9946
tp5686
asI587
(lp5687
(S'how'
p5688
g24
F0.9979
tp5689
a(S'long'
p5690
g12
F0.9767
tp5691
a(S'have'
p5692
g9
F0.9421
tp5693
a(S'they'
p5694
g6
F0.9912
tp5695
a(S'been'
p5696
g9
F0.998
tp5697
a(S'divorced'
p5698
g9
F0.9825
tp5699
asI588
(lp5700
(S'ew'
p5701
g3
F0.984
tp5702
asI589
(lp5703
(S'chi'
p5704
g3
F0.4684
tp5705
asI590
(lp5706
(g19
g6
F0.9583
tp5707
a(g19
g6
F0.956
tp5708
a(S'don'
p5709
g9
F0.9162
tp5710
a(g81
g40
F0.2903
tp5711
a(S'know'
p5712
g9
F0.9882
tp5713
asI591
(lp5714
(S'xxx'
p5715
g68
F0.8437
tp5716
asI592
(lp5717
(S'did'
p5718
g9
F0.9986
tp5719
a(S'you'
p5720
g6
F0.9994
tp5721
a(S'know'
p5722
g9
F0.9988
tp5723
a(S'eric'
p5724
g133
F0.9927
tp5725
a(S'before'
p5726
g45
F0.6536
tp5727
asI593
(lp5728
(S'last'
p5729
g12
F0.9906
tp5730
a(S'year'
p5731
g40
F0.9872
tp5732
asI594
(lp5733
(S'was'
p5734
g9
F0.9957
tp5735
a(S'that'
p5736
g6
F0.7548
tp5737
asI595
(lp5738
(S'yeah'
p5739
g3
F0.9949
tp5740
a(S'was'
p5741
g9
F0.9946
tp5742
a(S'he'
p5743
g6
F0.9958
tp5744
a(S'in'
p5745
g45
F0.947
tp5746
a(S'your'
p5747
g35
F0.9895
tp5748
a(S'class'
p5749
g40
F0.999
tp5750
a(S'ever'
p5751
g24
F0.993
tp5752
a(S'before'
p5753
g45
F0.6994
tp5754
asI596
(lp5755
(S'www'
p5756
g133
F0.6828
tp5757
a(S'giggles'
p5758
g9
F0.6653
tp5759
a(S'he'
p5760
g6
F0.9972
tp5761
a(S'wasn'
p5762
g9
F0.9572
tp5763
a(g81
g9
F0.2769
tp5764
a(S'in'
p5765
g45
F0.9777
tp5766
a(S'my'
p5767
g35
F0.9964
tp5768
a(S'class'
p5769
g40
F0.9954
tp5770
a(S'every'
p5771
g35
F0.3852
tp5772
a(S'never'
p5773
g24
F0.99
tp5774
a(S'before'
p5775
g45
F0.8057
tp5776
asI597
(lp5777
(S'oh'
p5778
g3
F0.995
tp5779
a(S'he'
p5780
g6
F0.9962
tp5781
a(S'had'
p5782
g9
F0.9994
tp5783
a(S'always'
p5784
g24
F0.9923
tp5785
a(S'gone'
p5786
g9
F0.9665
tp5787
a(S'to'
p5788
g45
F0.9818
tp5789
a(S'xxx'
p5790
g9
F0.8628
tp5791
a(S'another'
p5792
g35
F0.9813
tp5793
a(S'school'
p5794
g40
F0.9992
tp5795
asI598
(lp5796
(S'yeah'
p5797
g3
F0.9988
tp5798
asI599
(lp5799
(S'yeah'
p5800
g3
F0.9988
tp5801
asI600
(lp5802
(S'been'
p5803
g9
F0.934
tp5804
a(S'sin'
p5805
g40
F0.6213
tp5806
a(S'there'
p5807
g24
F0.8737
tp5808
a(S'for'
p5809
g45
F0.9928
tp5810
a(S'since'
p5811
g45
F0.5694
tp5812
a(S'first'
p5813
g24
F0.5141
tp5814
a(S'first'
p5815
g12
F0.9908
tp5816
a(S'grade'
p5817
g40
F0.9945
tp5818
asI601
(lp5819
(g19
g6
F0.9818
tp5820
a(S'love'
p5821
g9
F0.9991
tp5822
a(S'those'
p5823
g35
F0.9583
tp5824
a(S'pajamas'
p5825
g40
F0.9824
tp5826
a(S'you'
p5827
g6
F0.9974
tp5828
a(S'had'
p5829
g9
F0.9996
tp5830
a(S'on'
p5831
g45
F0.9045
tp5832
a(S'last'
p5833
g12
F0.9943
tp5834
a(S'night'
p5835
g40
F0.9923
tp5836
asI602
(lp5837
(S'has'
p5838
g9
F0.9887
tp5839
a(S'he'
p5840
g6
F0.9984
tp5841
a(S'been'
p5842
g9
F0.9973
tp5843
a(S'there'
p5844
g24
F0.926
tp5845
a(S'since'
p5846
g45
F0.9414
tp5847
a(S'xxx'
p5848
g68
F0.7369
tp5849
asI603
(lp5850
(S'laughs'
p5851
g9
F0.9102
tp5852
asI604
(lp5853
(S'yeah'
p5854
g3
F0.9988
tp5855
asI605
(lp5856
(S'xxx'
p5857
g68
F0.8437
tp5858
asI606
(lp5859
(S'xxx'
p5860
g68
F0.6436
tp5861
a(S'eric'
p5862
g133
F0.9911
tp5863
a(g73
g74
F0.7153
tp5864
asI607
(lp5865
(S'oh'
p5866
g3
F0.9934
tp5867
a(S'you'
p5868
g6
F0.9415
tp5869
asI608
(lp5870
(S'they'
p5871
g6
F0.9866
tp5872
a(S'were'
p5873
g9
F0.998
tp5874
a(S'so'
p5875
g24
F0.9677
tp5876
a(S'funny'
p5877
g12
F0.9974
tp5878
a(S'laughs'
p5879
g40
F0.4999
tp5880
asI609
(lp5881
(S'oh'
p5882
g3
F0.9987
tp5883
a(S'yeah'
p5884
g3
F0.9997
tp5885
asI610
(lp5886
(S'you'
p5887
g6
F0.9946
tp5888
a(S'look'
p5889
g9
F0.9982
tp5890
a(S'like'
p5891
g45
F0.9554
tp5892
a(g137
g35
F0.9967
tp5893
a(S'little'
p5894
g12
F0.9471
tp5895
a(S'stuffed'
p5896
g12
F0.71
tp5897
a(S'sausage'
p5898
g40
F0.9981
tp5899
asI611
(lp5900
(S'laughs'
p5901
g9
F0.9102
tp5902
asI612
(lp5903
(S'xxx'
p5904
g68
F0.653
tp5905
a(S'cute'
p5906
g12
F0.9951
tp5907
a(S'beyond'
p5908
g45
F0.9969
tp5909
a(S'um'
p5910
g3
F0.6378
tp5911
asI613
(lp5912
(S'he'
p5913
g6
F0.9905
tp5914
a(g73
g74
F0.5844
tp5915
a(S'eric'
p5916
g133
F0.9853
tp5917
a(g137
g35
F0.9832
tp5918
a(S'good'
p5919
g12
F0.9979
tp5920
a(S'kid'
p5921
g40
F0.979
tp5922
asI614
(lp5923
(S'yeah'
p5924
g3
F0.9988
tp5925
asI615
(lp5926
(S'giggles'
p5927
g9
F0.5513
tp5928
asI616
(lp5929
(S'you'
p5930
g6
F0.9923
tp5931
a(S'like'
p5932
g9
F0.9098
tp5933
a(S'him'
p5934
g6
F0.996
tp5935
a(S'huh'
p5936
g3
F0.8966
tp5937
asI617
(lp5938
(S'yeah'
p5939
g3
F0.9988
tp5940
asI618
(lp5941
(S'it'
p5942
g6
F0.9888
tp5943
a(g73
g9
F0.5782
tp5944
a(S'nice'
p5945
g12
F0.9828
tp5946
a(S'that'
p5947
g45
F0.9858
tp5948
a(S'you'
p5949
g6
F0.9997
tp5950
a(S'have'
p5951
g9
F0.9998
tp5952
a(g137
g35
F0.9974
tp5953
a(S'good'
p5954
g12
F0.9986
tp5955
a(S'friend'
p5956
g40
F0.9896
tp5957
a(S'like'
p5958
g45
F0.9604
tp5959
a(S'that'
p5960
g6
F0.8812
tp5961
a(S'xxx'
p5962
g68
F0.6604
tp5963
asI619
(lp5964
(S'his'
p5965
g35
F0.9033
tp5966
a(S'his'
p5967
g35
F0.99
tp5968
a(S'doctor'
p5969
g40
F0.9901
tp5970
a(S'his'
p5971
g35
F0.9969
tp5972
a(S'doctor'
p5973
g40
F0.9972
tp5974
a(S'xxx'
p5975
g68
F0.8748
tp5976
asI620
(lp5977
(S'bro'
p5978
g40
F0.7862
tp5979
asI621
(lp5980
(S'um'
p5981
g3
F0.8942
tp5982
a(S'these'
p5983
g6
F0.5896
tp5984
a(S'are'
p5985
g9
F0.9979
tp5986
a(S'for'
p5987
g45
F0.9991
tp5988
a(S'you'
p5989
g6
F0.998
tp5990
a(S'okay'
p5991
g12
F0.5012
tp5992
asI622
(lp5993
(S'those'
p5994
g6
F0.6322
tp5995
a(S'are'
p5996
g9
F0.9967
tp5997
a(S'for'
p5998
g45
F0.9982
tp5999
a(S'me'
p6000
g6
F0.9987
tp6001
asI623
(lp6002
(S'for'
p6003
g45
F0.9951
tp6004
a(S'when'
p6005
g24
F0.9231
tp6006
a(S'you'
p6007
g6
F0.9938
tp6008
a(S're'
p6009
g9
F0.6453
tp6010
a(S'done'
p6011
g9
F0.9491
tp6012
asI624
(lp6013
(S'when'
p6014
g24
F0.9804
tp6015
a(S'you'
p6016
g6
F0.9924
tp6017
a(S're'
p6018
g9
F0.7341
tp6019
a(S'done'
p6020
g9
F0.8813
tp6021
asI625
(lp6022
(S'let'
p6023
g9
F0.8948
tp6024
a(g73
g74
F0.5491
tp6025
a(S'not'
p6026
g24
F0.9633
tp6027
a(S'waste'
p6028
g9
F0.8281
tp6029
a(S'any'
p6030
g35
F0.9862
tp6031
a(S'food'
p6032
g40
F0.9938
tp6033
a(S'okay'
p6034
g3
F0.7745
tp6035
asI626
(lp6036
(S'those'
p6037
g6
F0.6322
tp6038
a(S'are'
p6039
g9
F0.9967
tp6040
a(S'for'
p6041
g45
F0.9982
tp6042
a(S'me'
p6043
g6
F0.9987
tp6044
asI627
(lp6045
(S'for'
p6046
g45
F0.9989
tp6047
a(S'me'
p6048
g6
F0.9989
tp6049
asI628
(lp6050
(S'uh'
p6051
g3
F0.9468
tp6052
a(S'mom'
p6053
g40
F0.8426
tp6054
a(S'can'
p6055
g9
F0.9997
tp6056
a(S'you'
p6057
g6
F0.9985
tp6058
a(S'bring'
p6059
g9
F0.9997
tp6060
a(S'stuff'
p6061
g40
F0.9938
tp6062
a(S'while'
p6063
g45
F0.9823
tp6064
a(S'you'
p6065
g6
F0.9982
tp6066
a(S're'
p6067
g9
F0.9569
tp6068
a(S'up'
p6069
g199
F0.9302
tp6070
a(S'while'
p6071
g45
F0.9731
tp6072
a(S'you'
p6073
g6
F0.9982
tp6074
a(S're'
p6075
g9
F0.9569
tp6076
a(S'up'
p6077
g199
F0.9302
tp6078
a(S'while'
p6079
g45
F0.9731
tp6080
a(S'you'
p6081
g6
F0.9983
tp6082
a(S're'
p6083
g9
F0.9687
tp6084
a(S'up'
p6085
g199
F0.969
tp6086
asI629
(lp6087
(S'here'
p6088
g24
F0.7796
tp6089
asI630
(lp6090
(S'here'
p6091
g24
F0.7796
tp6092
asI631
(lp6093
(S'xxx'
p6094
g68
F0.6419
tp6095
a(S'some'
p6096
g35
F0.8453
tp6097
a(S'more'
p6098
g12
F0.9335
tp6099
asI632
(lp6100
(S'www'
p6101
g133
F0.4824
tp6102
a(S'whines'
p6103
g9
F0.4136
tp6104
asI633
(lp6105
(S'eat'
p6106
g9
F0.9893
tp6107
a(S'your'
p6108
g35
F0.9928
tp6109
a(S'corn'
p6110
g40
F0.9995
tp6111
asI634
(lp6112
(S'come'
p6113
g9
F0.9897
tp6114
a(S'on'
p6115
g45
F0.8207
tp6116
a(g19
g6
F0.9935
tp6117
a(S'll'
p6118
g9
F0.6531
tp6119
a(S'help'
p6120
g9
F0.9986
tp6121
a(S'you'
p6122
g6
F0.9981
tp6123
asI635
(lp6124
(S'first'
p6125
g12
F0.6818
tp6126
a(S'of'
p6127
g45
F0.9978
tp6128
a(S'all'
p6129
g35
F0.9099
tp6130
a(S'finish'
p6131
g9
F0.8103
tp6132
a(S'that'
p6133
g35
F0.7846
tp6134
a(S'ham'
p6135
g40
F0.8708
tp6136
a(S'that'
p6137
g45
F0.8625
tp6138
a(S'has'
p6139
g9
F0.9902
tp6140
a(S'been'
p6141
g9
F0.989
tp6142
a(S'in'
p6143
g45
F0.976
tp6144
a(S'your'
p6145
g35
F0.9963
tp6146
a(S'mouth'
p6147
g40
F0.9997
tp6148
asI636
(lp6149
(S'it'
p6150
g6
F0.9888
tp6151
a(g73
g9
F0.5544
tp6152
a(S'not'
p6153
g24
F0.9808
tp6154
a(S'gum'
p6155
g40
F0.9357
tp6156
asI637
(lp6157
(S'laughs'
p6158
g9
F0.9102
tp6159
asI638
(lp6160
(S'laughs'
p6161
g9
F0.9102
tp6162
asI639
(lp6163
(S'www'
p6164
g133
F0.6828
tp6165
a(S'whimpers'
p6166
g40
F0.5442
tp6167
a(S'can'
p6168
g9
F0.9901
tp6169
a(g19
g6
F0.969
tp6170
a(S'spit'
p6171
g9
F0.9999
tp6172
a(S'it'
p6173
g6
F0.9922
tp6174
a(S'out'
p6175
g199
F0.9162
tp6176
asI640
(lp6177
(S'laughs'
p6178
g9
F0.9102
tp6179
asI641
(lp6180
(S'you'
p6181
g6
F0.9754
tp6182
a(S're'
p6183
g9
F0.7849
tp6184
a(S'not'
p6185
g24
F0.9957
tp6186
a(S'getting'
p6187
g9
F0.9997
tp6188
a(S'any'
p6189
g35
F0.9954
tp6190
a(S'cookies'
p6191
g40
F0.9992
tp6192
a(S'until'
p6193
g45
F0.9998
tp6194
a(S'you'
p6195
g6
F0.9996
tp6196
a(S'eat'
p6197
g9
F0.9995
tp6198
a(S'that'
p6199
g35
F0.7384
tp6200
a(S'corn'
p6201
g40
F0.9973
tp6202
a(S'up'
p6203
g199
F0.5924
tp6204
asI642
(lp6205
(S'and'
p6206
g165
F0.9989
tp6207
a(S'you'
p6208
g6
F0.9996
tp6209
a(S'had'
p6210
g9
F0.9994
tp6211
a(S'better'
p6212
g12
F0.8815
tp6213
a(S'hurry'
p6214
g40
F0.503
tp6215
a(S'up'
p6216
g199
F0.7425
tp6217
a(S'because'
p6218
g45
F0.9974
tp6219
a(S'chi'
p6220
g133
F0.7237
tp6221
a(S'ate'
p6222
g9
F0.982
tp6223
a(S'almost'
p6224
g24
F0.9853
tp6225
a(S'all'
p6226
g384
F0.6618
tp6227
a(S'the'
p6228
g35
F0.9999
tp6229
a(S'whole'
p6230
g12
F0.9813
tp6231
a(S'thing'
p6232
g40
F0.9975
tp6233
asI643
(lp6234
(S'chuckles'
p6235
g9
F0.8006
tp6236
asI644
(lp6237
(S'leave'
p6238
g9
F0.9851
tp6239
a(S'those'
p6240
g6
F0.6511
tp6241
a(S'there'
p6242
g24
F0.792
tp6243
asI645
(lp6244
(S'leave'
p6245
g9
F0.9956
tp6246
a(S'it'
p6247
g6
F0.9952
tp6248
a(S'over'
p6249
g45
F0.6963
tp6250
a(S'there'
p6251
g24
F0.7695
tp6252
a(S'so'
p6253
g45
F0.7477
tp6254
a(S'chi'
p6255
g74
F0.452
tp6256
a(S'willn'
p6257
g74
F0.5055
tp6258
a(g81
g74
F0.5328
tp6259
a(S'get'
p6260
g9
F0.979
tp6261
a(S'th'
p6262
g9
F0.464
tp6263
a(S'em'
p6264
g6
F0.9779
tp6265
asI646
(lp6266
(S'no'
p6267
g3
F0.8387
tp6268
a(S'he'
p6269
g6
F0.9896
tp6270
a(g73
g9
F0.7108
tp6271
a(S'not'
p6272
g24
F0.9949
tp6273
a(S'gettin'
p6274
g9
F0.9462
tp6275
a(g116
g9
F0.4606
tp6276
a(S'any'
p6277
g35
F0.7375
tp6278
a(S'more'
p6279
g12
F0.8475
tp6280
asI647
(lp6281
(S'he'
p6282
g6
F0.9959
tp6283
a(S'has'
p6284
g9
F0.9995
tp6285
a(S'had'
p6286
g9
F0.9951
tp6287
a(S'more'
p6288
g12
F0.9336
tp6289
a(S'than'
p6290
g45
F0.999
tp6291
a(S'his'
p6292
g35
F0.9733
tp6293
a(S'share'
p6294
g40
F0.8914
tp6295
asI648
(lp6296
(S'he'
p6297
g6
F0.9777
tp6298
asI649
(lp6299
(S'but'
p6300
g165
F0.993
tp6301
a(S'you'
p6302
g6
F0.9969
tp6303
a(S're'
p6304
g9
F0.7591
tp6305
a(S'not'
p6306
g24
F0.9962
tp6307
a(S'getting'
p6308
g9
F0.9997
tp6309
a(S'any'
p6310
g35
F0.8311
tp6311
a(S'unless'
p6312
g45
F0.9968
tp6313
a(S'you'
p6314
g6
F0.9997
tp6315
a(S'start'
p6316
g9
F0.9987
tp6317
a(S'eating'
p6318
g9
F0.9929
tp6319
asI650
(lp6320
(S'that'
p6321
g6
F0.4727
tp6322
a(g73
g9
F0.5427
tp6323
a(S'right'
p6324
g3
F0.3487
tp6325
asI651
(lp6326
(S'swallow'
p6327
g9
F0.9406
tp6328
a(S'what'
p6329
g6
F0.9908
tp6330
a(g73
g9
F0.4685
tp6331
a(S'in'
p6332
g45
F0.9801
tp6333
a(S'your'
p6334
g35
F0.9963
tp6335
a(S'mouth'
p6336
g40
F0.9997
tp6337
asI652
(lp6338
(S'laughs'
p6339
g9
F0.9102
tp6340
asI653
(lp6341
(S'scary'
p6342
g12
F0.988
tp6343
asI654
(lp6344
(S'there'
p6345
g384
F0.4664
tp6346
a(g73
g74
F0.4577
tp6347
a(S'cheese'
p6348
g40
F0.9836
tp6349
a(S'in'
p6350
g45
F0.9987
tp6351
a(S'those'
p6352
g35
F0.9591
tp6353
a(S'potatoes'
p6354
g40
F0.9941
tp6355
a(S'you'
p6356
g6
F0.9965
tp6357
a(S'know'
p6358
g9
F0.997
tp6359
asI655
(lp6360
(S'mhm'
p6361
g3
F0.9747
tp6362
asI656
(lp6363
(S'mr'
p6364
g133
F0.9385
tp6365
a(S'cholesterol'
p6366
g40
F0.9487
tp6367
asI657
(lp6368
(S'hm'
p6369
g3
F0.995
tp6370
asI658
(lp6371
(S'don'
p6372
g133
F0.5427
tp6373
a(g81
g133
F0.4827
tp6374
a(S'do'
p6375
g9
F0.9976
tp6376
a(S'that'
p6377
g6
F0.8292
tp6378
asI659
(lp6379
(S'xxx'
p6380
g68
F0.8437
tp6381
asI660
(lp6382
(S'look'
p6383
g9
F0.88
tp6384
a(S'at'
p6385
g45
F0.9992
tp6386
a(S'you'
p6387
g6
F0.9988
tp6388
asI661
(lp6389
(S'whoa'
p6390
g3
F0.9977
tp6391
asI662
(lp6392
(S'laughs'
p6393
g9
F0.9102
tp6394
asI663
(lp6395
(S'come'
p6396
g9
F0.9849
tp6397
a(S'on'
p6398
g45
F0.7297
tp6399
a(S'bro'
p6400
g40
F0.986
tp6401
asI664
(lp6402
(g2876
g102
F0.9644
tp6403
a(S'clears'
p6404
g9
F0.8351
tp6405
a(S'throat'
p6406
g40
F0.9556
tp6407
asI665
(lp6408
(S'fresh'
p6409
g12
F0.9923
tp6410
a(S'milk'
p6411
g40
F0.9991
tp6412
asI666
(lp6413
(S'they'
p6414
g6
F0.9104
tp6415
a(S're'
p6416
g9
F0.9621
tp6417
a(S'your'
p6418
g35
F0.9645
tp6419
a(S'cookies'
p6420
g40
F0.9993
tp6421
a(S'okay'
p6422
g3
F0.8944
tp6423
asI667
(lp6424
(S'cut'
p6425
g9
F0.8842
tp6426
a(S'it'
p6427
g6
F0.9928
tp6428
a(S'out'
p6429
g199
F0.8475
tp6430
a(S'chi'
p6431
g133
F0.4282
tp6432
asI668
(lp6433
(S'noises'
p6434
g40
F0.9302
tp6435
asI669
(lp6436
(S'don'
p6437
g133
F0.5427
tp6438
a(g81
g133
F0.384
tp6439
a(S'tease'
p6440
g9
F0.9922
tp6441
a(S'him'
p6442
g6
F0.986
tp6443
asI670
(lp6444
(S'these'
p6445
g35
F0.5444
tp6446
a(S'are'
p6447
g9
F0.9889
tp6448
a(S'yours'
p6449
g6
F0.9684
tp6450
a(S'over'
p6451
g45
F0.5483
tp6452
a(S'here'
p6453
g24
F0.9577
tp6454
asI671
(lp6455
(S'eat'
p6456
g9
F0.99
tp6457
a(S'your'
p6458
g35
F0.9928
tp6459
a(S'corn'
p6460
g40
F0.9996
tp6461
a(S'up'
p6462
g199
F0.5844
tp6463
asI672
(lp6464
(S'screams'
p6465
g9
F0.7508
tp6466
asI673
(lp6467
(S'bo'
p6468
g133
F0.7524
tp6469
a(S'when'
p6470
g24
F0.9762
tp6471
a(S'you'
p6472
g6
F0.9987
tp6473
a(S'eat'
p6474
g9
F0.9997
tp6475
a(S'your'
p6476
g35
F0.9937
tp6477
a(S'corn'
p6478
g40
F0.9994
tp6479
a(S'up'
p6480
g45
F0.8443
tp6481
a(S'you'
p6482
g6
F0.9993
tp6483
a(S'can'
p6484
g9
F0.9997
tp6485
a(S'have'
p6486
g9
F0.9999
tp6487
a(S'the'
p6488
g35
F0.9997
tp6489
a(S'cookies'
p6490
g40
F0.9976
tp6491
asI674
(lp6492
(S'cookie'
p6493
g40
F0.9541
tp6494
a(S'time'
p6495
g40
F0.997
tp6496
asI675
(lp6497
(S'uhuh'
p6498
g3
F0.9919
tp6499
asI676
(lp6500
(S'you'
p6501
g6
F0.9406
tp6502
a(S'guys'
p6503
g40
F0.9191
tp6504
a(S'stop'
p6505
g9
F0.9987
tp6506
a(S'it'
p6507
g6
F0.9841
tp6508
a(S'alright'
p6509
g3
F0.7409
tp6510
asI677
(lp6511
(S'uhuh'
p6512
g3
F0.9919
tp6513
asI678
(lp6514
(S'uhuh'
p6515
g3
F0.9919
tp6516
asI679
(lp6517
(S'if'
p6518
g45
F0.9977
tp6519
a(S'you'
p6520
g6
F0.9998
tp6521
a(S'do'
p6522
g9
F0.9999
tp6523
a(S'that'
p6524
g6
F0.5111
tp6525
a(g19
g6
F0.9892
tp6526
a(S'll'
p6527
g9
F0.7532
tp6528
a(S'kill'
p6529
g9
F0.9984
tp6530
a(S'you'
p6531
g6
F0.9984
tp6532
asI680
(lp6533
(S'okay'
p6534
g3
F0.9785
tp6535
a(S'chi'
p6536
g3
F0.4355
tp6537
asI681
(lp6538
(S'tell'
p6539
g9
F0.9453
tp6540
a(S'on'
p6541
g45
F0.9425
tp6542
a(S'him'
p6543
g6
F0.9858
tp6544
a(S'he'
p6545
g6
F0.9955
tp6546
a(S'said'
p6547
g9
F0.999
tp6548
asI682
(lp6549
(S'oh'
p6550
g3
F0.9983
tp6551
a(g19
g6
F0.9952
tp6552
a(S'know'
p6553
g9
F0.9992
tp6554
asI683
(lp6555
(g19
g6
F0.9793
tp6556
a(S'll'
p6557
g9
F0.8021
tp6558
a(S'make'
p6559
g9
F0.9974
tp6560
a(g137
g35
F0.9953
tp6561
a(S'barrier'
p6562
g40
F0.995
tp6563
a(S'case'
p6564
g40
F0.9923
tp6565
asI684
(lp6566
(S'whee'
p6567
g3
F0.9822
tp6568
asI685
(lp6569
(S'eat'
p6570
g9
F0.8626
tp6571
a(S'or'
p6572
g165
F0.9778
tp6573
a(S'else'
p6574
g24
F0.7337
tp6575
asI686
(lp6576
(S'no'
p6577
g3
F0.6532
tp6578
a(g19
g6
F0.9355
tp6579
a(g168
g9
F0.9772
tp6580
a(S'not'
p6581
g24
F0.9922
tp6582
asI687
(lp6583
(S'and'
p6584
g165
F0.9984
tp6585
a(S'whee'
p6586
g3
F0.8343
tp6587
asI688
(lp6588
(g2876
g102
F0.9517
tp6589
a(S'laughs'
p6590
g9
F0.7701
tp6591
a(S'softly'
p6592
g24
F0.871
tp6593
asI689
(lp6594
(S'alright'
p6595
g3
F0.9864
tp6596
asI690
(lp6597
(S'watch'
p6598
g9
F0.9939
tp6599
a(S'your'
p6600
g35
F0.9962
tp6601
a(S'head'
p6602
g40
F0.9989
tp6603
a(S'xxx'
p6604
g68
F0.8584
tp6605
asI691
(lp6606
(S'shut'
p6607
g9
F0.9803
tp6608
a(S'up'
p6609
g199
F0.9659
tp6610
a(S'bro'
p6611
g40
F0.9696
tp6612
asI692
(lp6613
(g19
g6
F0.953
tp6614
a(g168
g9
F0.9882
tp6615
a(g137
g35
F0.99
tp6616
a(S'flower'
p6617
g40
F0.9471
tp6618
asI693
(lp6619
(g19
g6
F0.953
tp6620
a(g168
g9
F0.9882
tp6621
a(g137
g35
F0.9977
tp6622
a(S'heart'
p6623
g40
F0.9971
tp6624
asI694
(lp6625
(S'come'
p6626
g9
F0.9897
tp6627
a(S'on'
p6628
g45
F0.9231
tp6629
a(S'chi'
p6630
g133
F0.6942
tp6631
a(S'uh'
p6632
g3
F0.8278
tp6633
a(S'bro'
p6634
g40
F0.7151
tp6635
asI695
(lp6636
(g19
g6
F0.9855
tp6637
a(S'make'
p6638
g9
F0.9996
tp6639
a(S'nothin'
p6640
g40
F0.9949
tp6641
a(g116
g74
F0.5282
tp6642
asI696
(lp6643
(g19
g6
F0.953
tp6644
a(g168
g9
F0.9717
tp6645
a(S'just'
p6646
g24
F0.9988
tp6647
a(g137
g35
F0.9918
tp6648
a(S'little'
p6649
g12
F0.946
tp6650
a(S'poor'
p6651
g12
F0.7537
tp6652
a(S'woman'
p6653
g40
F0.9926
tp6654
asI697
(lp6655
(S'put'
p6656
g9
F0.9896
tp6657
a(S'your'
p6658
g35
F0.9963
tp6659
a(S'head'
p6660
g40
F0.9985
tp6661
a(S'straight'
p6662
g24
F0.5906
tp6663
asI698
(lp6664
(g19
g6
F0.953
tp6665
a(g168
g9
F0.9882
tp6666
a(g137
g35
F0.997
tp6667
a(S'boy'
p6668
g40
F0.9979
tp6669
asI699
(lp6670
(S'for'
p6671
g45
F0.9949
tp6672
a(S'pete'
p6673
g133
F0.9654
tp6674
a(S'sakes'
p6675
g9
F0.8959
tp6676
a(S'it'
p6677
g6
F0.9963
tp6678
a(S'll'
p6679
g9
F0.5167
tp6680
a(S'sound'
p6681
g9
F0.6741
tp6682
a(S'bad'
p6683
g12
F0.9674
tp6684
a(S'on'
p6685
g45
F0.999
tp6686
a(S'the'
p6687
g35
F0.9913
tp6688
a(S'xxx'
p6689
g68
F0.3885
tp6690
asI700
(lp6691
(S'looks'
p6692
g9
F0.963
tp6693
a(S'so'
p6694
g24
F0.9462
tp6695
a(S'hard'
p6696
g12
F0.8795
tp6697
asI701
(lp6698
(S'oh'
p6699
g3
F0.9878
tp6700
a(S'you'
p6701
g6
F0.9874
tp6702
a(S'are'
p6703
g9
F0.9995
tp6704
a(S'the'
p6705
g35
F0.9749
tp6706
a(S'xxx'
p6707
g68
F0.4596
tp6708
asI702
(lp6709
(S'sighs'
p6710
g9
F0.7567
tp6711
asI703
(lp6712
(S'you'
p6713
g6
F0.9754
tp6714
a(S're'
p6715
g9
F0.9434
tp6716
a(g137
g35
F0.9942
tp6717
a(S'rich'
p6718
g12
F0.9966
tp6719
a(S'person'
p6720
g40
F0.9888
tp6721
asI704
(lp6722
(g137
g35
F0.9703
tp6723
a(S'h'
p6724
g40
F0.7438
tp6725
asI705
(lp6726
(S'xxx'
p6727
g68
F0.4267
tp6728
a(S'you'
p6729
g6
F0.9983
tp6730
a(S'have'
p6731
g9
F0.9995
tp6732
a(S'to'
p6733
g45
F0.99
tp6734
a(S'xxx'
p6735
g68
F0.5025
tp6736
asI706
(lp6737
(g137
g35
F0.9703
tp6738
a(g6724
g40
F0.7438
tp6739
asI707
(lp6740
(S'you'
p6741
g6
F0.9969
tp6742
a(S'can'
p6743
g9
F0.9998
tp6744
a(S'send'
p6745
g9
F0.9999
tp6746
a(S'me'
p6747
g6
F0.995
tp6748
a(g137
g35
F0.8977
tp6749
a(S'xxx'
p6750
g68
F0.5287
tp6751
asI708
(lp6752
(S'xxx'
p6753
g68
F0.8437
tp6754
asI709
(lp6755
(S'xxx'
p6756
g68
F0.8437
tp6757
asI710
(lp6758
(S'is'
p6759
g9
F0.9991
tp6760
a(S'your'
p6761
g35
F0.9933
tp6762
a(S'homework'
p6763
g40
F0.9998
tp6764
a(S'in'
p6765
g45
F0.9984
tp6766
a(S'your'
p6767
g35
F0.8711
tp6768
a(S'back'
p6769
g40
F0.7931
tp6770
a(S'pack'
p6771
g40
F0.9819
tp6772
asI711
(lp6773
(g137
g35
F0.9703
tp6774
a(g6724
g40
F0.7438
tp6775
asI712
(lp6776
(S'okay'
p6777
g3
F0.9327
tp6778
a(S'finished'
p6779
g9
F0.9846
tp6780
a(S'eating'
p6781
g9
F0.9907
tp6782
asI713
(lp6783
(S'wow'
p6784
g3
F0.9963
tp6785
asI714
(lp6786
(S'here'
p6787
g24
F0.7796
tp6788
asI715
(lp6789
(S'here'
p6790
g24
F0.9382
tp6791
a(g73
g74
F0.7772
tp6792
a(S'your'
p6793
g35
F0.9545
tp6794
a(S'cookies'
p6795
g40
F0.9991
tp6796
a(S'mr'
p6797
g133
F0.4649
tp6798
a(S'duran'
p6799
g133
F0.9946
tp6800
asI716
(lp6801
(S'this'
p6802
g6
F0.9521
tp6803
a(S'is'
p6804
g9
F0.9942
tp6805
a(S'xxx'
p6806
g68
F0.7029
tp6807
asI717
(lp6808
(S'oh'
p6809
g3
F0.9963
tp6810
a(S'xxx'
p6811
g68
F0.6977
tp6812
asI718
(lp6813
(S'please'
p6814
g9
F0.8246
tp6815
asI719
(lp6816
(S'please'
p6817
g9
F0.8877
tp6818
a(S'xxx'
p6819
g68
F0.7002
tp6820
asI720
(lp6821
(S'xxx'
p6822
g68
F0.7
tp6823
a(S'are'
p6824
g9
F0.9966
tp6825
a(S'you'
p6826
g6
F0.9997
tp6827
a(S'done'
p6828
g9
F0.982
tp6829
a(S'chi'
p6830
g133
F0.4753
tp6831
asI721
(lp6832
(S'hm'
p6833
g3
F0.995
tp6834
asI722
(lp6835
(S'uhuh'
p6836
g3
F0.9919
tp6837
asI723
(lp6838
(S'more'
p6839
g12
F0.8209
tp6840
a(S'ham'
p6841
g40
F0.8451
tp6842
asI724
(lp6843
(S'ham'
p6844
g40
F0.3152
tp6845
a(S'more'
p6846
g12
F0.7219
tp6847
asI725
(lp6848
(S'you'
p6849
g6
F0.998
tp6850
a(S'need'
p6851
g9
F0.9956
tp6852
a(S'more'
p6853
g12
F0.8262
tp6854
a(S'ham'
p6855
g40
F0.8721
tp6856
a(S'now'
p6857
g24
F0.9822
tp6858
a(S'that'
p6859
g45
F0.8643
tp6860
a(S'you'
p6861
g6
F0.9985
tp6862
a(S've'
p6863
g9
F0.7999
tp6864
a(S'had'
p6865
g9
F0.9989
tp6866
a(S'the'
p6867
g35
F0.9993
tp6868
a(S'dessert'
p6869
g40
F0.9929
tp6870
a(S'huh'
p6871
g3
F0.8923
tp6872
asI726
(lp6873
(S'you'
p6874
g6
F0.998
tp6875
a(S'have'
p6876
g9
F0.9985
tp6877
a(S'more'
p6878
g24
F0.5097
tp6879
a(S'don'
p6880
g74
F0.2861
tp6881
a(g81
g74
F0.4825
tp6882
a(S'you'
p6883
g6
F0.99
tp6884
asI727
(lp6885
(S'well'
p6886
g3
F0.6143
tp6887
a(S'pick'
p6888
g9
F0.9887
tp6889
a(S'all'
p6890
g35
F0.6672
tp6891
a(S'through'
p6892
g45
F0.9917
tp6893
a(S'it'
p6894
g6
F0.9976
tp6895
asI728
(lp6896
(S'that'
p6897
g6
F0.473
tp6898
a(g73
g9
F0.4265
tp6899
a(S'too'
p6900
g24
F0.9886
tp6901
a(S'big'
p6902
g12
F0.9532
tp6903
a(S'chi'
p6904
g40
F0.3582
tp6905
asI729
(lp6906
(S'says'
p6907
g9
F0.9824
tp6908
a(S'who'
p6909
g6
F0.9969
tp6910
asI730
(lp6911
(S'no'
p6912
g3
F0.9253
tp6913
asI731
(lp6914
(S'me'
p6915
g6
F0.9918
tp6916
asI732
(lp6917
(S'to'
p6918
g45
F0.9741
tp6919
a(S'xxx'
p6920
g68
F0.4772
tp6921
asI733
(lp6922
(S'laughs'
p6923
g9
F0.9102
tp6924
asI734
(lp6925
(S'take'
p6926
g9
F0.9695
tp6927
a(S'half'
p6928
g40
F0.7316
tp6929
a(S'of'
p6930
g45
F0.9972
tp6931
a(S'it'
p6932
g6
F0.9966
tp6933
asI735
(lp6934
(S'laughs'
p6935
g9
F0.9102
tp6936
asI736
(lp6937
(g2876
g102
F0.9769
tp6938
a(S'mocking'
p6939
g9
F0.9053
tp6940
a(S'laugh'
p6941
g40
F0.4881
tp6942
asI737
(lp6943
(g2876
g102
F0.9644
tp6944
a(S'clears'
p6945
g9
F0.8351
tp6946
a(S'throat'
p6947
g40
F0.9556
tp6948
asI738
(lp6949
(S'fresh'
p6950
g12
F0.9923
tp6951
a(S'beef'
p6952
g40
F0.9983
tp6953
asI739
(lp6954
(S'what'
p6955
g6
F0.9835
tp6956
a(S'are'
p6957
g9
F0.9978
tp6958
a(S'you'
p6959
g6
F0.9995
tp6960
a(S'doin'
p6961
g9
F0.9977
tp6962
a(g116
g40
F0.2782
tp6963
asI740
(lp6964
(S'take'
p6965
g9
F0.9914
tp6966
a(S'some'
p6967
g35
F0.7684
tp6968
a(S'off'
p6969
g199
F0.568
tp6970
asI741
(lp6971
(S'chuckles'
p6972
g9
F0.8006
tp6973
asI742
(lp6974
(S'xxx'
p6975
g68
F0.7258
tp6976
a(S'chuckles'
p6977
g9
F0.8751
tp6978
asI743
(lp6979
(S'you'
p6980
g6
F0.9754
tp6981
a(S're'
p6982
g9
F0.5918
tp6983
a(S'gonna'
p6984
g9
F0.993
tp6985
a(S'make'
p6986
g9
F0.9976
tp6987
a(S'more'
p6988
g24
F0.4903
tp6989
a(S'out'
p6990
g45
F0.971
tp6991
a(S'of'
p6992
g45
F0.9968
tp6993
a(S'them'
p6994
g6
F0.9473
tp6995
asI744
(lp6996
(S'yep'
p6997
g3
F0.9977
tp6998
asI745
(lp6999
(S'hey'
p7000
g3
F0.9986
tp7001
asI746
(lp7002
(S'why'
p7003
g24
F0.9494
tp7004
a(S'didn'
p7005
g9
F0.8144
tp7006
a(g81
g9
F0.9504
tp7007
a(S'you'
p7008
g6
F0.999
tp7009
a(S'tell'
p7010
g9
F0.9998
tp7011
a(S'me'
p7012
g6
F0.9989
tp7013
a(S'yours'
p7014
g6
F0.9431
tp7015
a(S'do'
p7016
g9
F0.9993
tp7017
a(S'that'
p7018
g6
F0.8477
tp7019
asI747
(lp7020
(S'don'
p7021
g133
F0.5427
tp7022
a(g81
g133
F0.6268
tp7023
a(S'want'
p7024
g9
F0.9982
tp7025
a(S'any'
p7026
g35
F0.8985
tp7027
a(S'more'
p7028
g12
F0.7505
tp7029
asI748
(lp7030
(S'giggles'
p7031
g9
F0.5513
tp7032
asI749
(lp7033
(S'chuckles'
p7034
g9
F0.8006
tp7035
asI750
(lp7036
(S'got'
p7037
g9
F0.9595
tp7038
a(S'today'
p7039
g40
F0.9894
tp7040
a(g73
g74
F0.6418
tp7041
a(S'corn'
p7042
g40
F0.9932
tp7043
a(S'in'
p7044
g45
F0.9873
tp7045
a(S'xxx'
p7046
g68
F0.6521
tp7047
asI751
(lp7048
(S'it'
p7049
g6
F0.9956
tp7050
a(S'was'
p7051
g9
F0.9984
tp7052
a(S'bro'
p7053
g40
F0.9485
tp7054
a(g73
g74
F0.7415
tp7055
a(S'idea'
p7056
g40
F0.5263
tp7057
asI752
(lp7058
(S'huh'
p7059
g3
F0.9662
tp7060
a(S'bro'
p7061
g40
F0.7448
tp7062
asI753
(lp7063
(S'yep'
p7064
g3
F0.9977
tp7065
asI754
(lp7066
(S'yeah'
p7067
g3
F0.9968
tp7068
a(g19
g6
F0.9865
tp7069
a(g168
g9
F0.9758
tp7070
a(S'trying'
p7071
g9
F0.9981
tp7072
a(S'to'
p7073
g45
F0.9975
tp7074
a(S'get'
p7075
g9
F0.9997
tp7076
a(S'tried'
p7077
g9
F0.972
tp7078
a(S'to'
p7079
g45
F0.996
tp7080
a(S'get'
p7081
g9
F1.0
tp7082
a(S'me'
p7083
g6
F0.999
tp7084
a(S'to'
p7085
g45
F0.9481
tp7086
a(S'go'
p7087
g9
F0.9993
tp7088
a(S'to'
p7089
g45
F0.9838
tp7090
a(S'work'
p7091
g9
F0.5111
tp7092
a(S'tomorrow'
p7093
g40
F0.903
tp7094
a(S'but'
p7095
g165
F0.991
tp7096
a(g19
g6
F0.9654
tp7097
a(S'um'
p7098
g3
F0.8021
tp7099
asI755
(lp7100
(S'why'
p7101
g24
F0.8527
tp7102
asI756
(lp7103
(S'be'
p7104
g9
F0.9727
tp7105
a(S'cause'
p7106
g45
F0.7105
tp7107
a(g19
g6
F0.9954
tp7108
a(S'have'
p7109
g9
F0.9998
tp7110
a(S'to'
p7111
g45
F0.9975
tp7112
a(S'learn'
p7113
g9
F0.9993
tp7114
a(S'how'
p7115
g24
F0.9946
tp7116
a(S'to'
p7117
g45
F0.9719
tp7118
a(S'do'
p7119
g9
F0.9998
tp7120
a(S'something'
p7121
g40
F0.9647
tp7122
asI757
(lp7123
(S'how'
p7124
g24
F0.9435
tp7125
asI758
(lp7126
(S'what'
p7127
g6
F0.949
tp7128
asI759
(lp7129
(S'hard'
p7130
g12
F0.7144
tp7131
a(S'to'
p7132
g45
F0.9991
tp7133
a(S'explain'
p7134
g9
F0.9991
tp7135
asI760
(lp7136
(S'what'
p7137
g6
F0.949
tp7138
asI761
(lp7139
(S'but'
p7140
g165
F0.9949
tp7141
a(S'um'
p7142
g3
F0.8748
tp7143
asI762
(lp7144
(S'it'
p7145
g6
F0.9888
tp7146
a(g73
g9
F0.914
tp7147
a(S'it'
p7148
g6
F0.9935
tp7149
a(g73
g9
F0.7775
tp7150
a(S'this'
p7151
g35
F0.9336
tp7152
a(S'special'
p7153
g12
F0.9716
tp7154
a(S'kind'
p7155
g40
F0.9851
tp7156
a(S'of'
p7157
g45
F0.9961
tp7158
a(S'book'
p7159
g40
F0.9747
tp7160
a(g19
g6
F0.9384
tp7161
a(S'needed'
p7162
g9
F0.9984
tp7163
a(S'to'
p7164
g45
F0.9923
tp7165
a(S'learn'
p7166
g9
F0.9993
tp7167
a(S'how'
p7168
g24
F0.9946
tp7169
a(S'to'
p7170
g45
F0.9898
tp7171
a(S'file'
p7172
g9
F0.8458
tp7173
a(S'and'
p7174
g165
F0.9976
tp7175
a(S'uh'
p7176
g3
F0.8998
tp7177
asI763
(lp7178
(S'oh'
p7179
g3
F0.9988
tp7180
asI764
(lp7181
(S'they'
p7182
g6
F0.9926
tp7183
a(S'have'
p7184
g9
F0.9997
tp7185
a(S'to'
p7186
g45
F0.9912
tp7187
a(S'show'
p7188
g9
F0.9924
tp7189
a(S'me'
p7190
g6
F0.9958
tp7191
a(S'how'
p7192
g24
F0.9992
tp7193
a(S'to'
p7194
g45
F0.9765
tp7195
a(S'do'
p7196
g9
F1.0
tp7197
a(S'it'
p7198
g6
F0.9933
tp7199
asI765
(lp7200
(S'so'
p7201
g45
F0.8338
tp7202
a(S'you'
p7203
g6
F0.9997
tp7204
a(S'have'
p7205
g9
F0.9996
tp7206
a(S'to'
p7207
g45
F0.9894
tp7208
a(S'go'
p7209
g9
F0.9993
tp7210
a(S'to'
p7211
g45
F0.9838
tp7212
a(S'work'
p7213
g40
F0.6129
tp7214
a(S'or'
p7215
g165
F0.9907
tp7216
a(S'you'
p7217
g6
F0.9985
tp7218
a(S'don'
p7219
g9
F0.8872
tp7220
a(g81
g74
F0.4874
tp7221
asI766
(lp7222
(g19
g6
F0.953
tp7223
a(g168
g9
F0.9738
tp7224
a(S'not'
p7225
g24
F0.993
tp7226
a(S'going'
p7227
g9
F0.9947
tp7228
asI767
(lp7229
(S'oh'
p7230
g3
F0.9988
tp7231
asI768
(lp7232
(S'be'
p7233
g9
F0.9727
tp7234
a(S'cause'
p7235
g45
F0.7105
tp7236
a(g19
g6
F0.9857
tp7237
a(S'don'
p7238
g9
F0.9208
tp7239
a(g81
g74
F0.2757
tp7240
a(S'work'
p7241
g40
F0.7995
tp7242
a(S'on'
p7243
g45
F0.9936
tp7244
a(S'monday'
p7245
g133
F0.9386
tp7246
asI769
(lp7247
(S'oh'
p7248
g3
F0.9987
tp7249
a(S'yeah'
p7250
g3
F0.9997
tp7251
asI770
(lp7252
(S'xxx'
p7253
g68
F0.8437
tp7254
asI771
(lp7255
(S'what'
p7256
g6
F0.9499
tp7257
a(S'we'
p7258
g6
F0.9986
tp7259
a(S'can'
p7260
g9
F0.9994
tp7261
a(g81
g9
F0.836
tp7262
a(S'call'
p7263
g9
F0.9691
tp7264
a(g137
g35
F0.9984
tp7265
a(S'baby'
p7266
g40
F0.991
tp7267
a(S'sitter'
p7268
g40
F0.9936
tp7269
asI772
(lp7270
(S'right'
p7271
g3
F0.861
tp7272
asI773
(lp7273
(S'laughs'
p7274
g9
F0.9102
tp7275
asI774
(lp7276
(S'well'
p7277
g3
F0.8573
tp7278
a(g19
g6
F0.9915
tp7279
a(g168
g9
F0.9802
tp7280
a(S'working'
p7281
g9
F0.9983
tp7282
a(g137
g35
F0.9969
tp7283
a(S'lot'
p7284
g40
F0.9398
tp7285
asI775
(lp7286
(S'careful'
p7287
g12
F0.7292
tp7288
a(S'chi'
p7289
g40
F0.499
tp7290
asI776
(lp7291
(S'could'
p7292
g9
F0.98
tp7293
a(S'couldn'
p7294
g9
F0.963
tp7295
a(g81
g9
F0.9442
tp7296
a(S'you'
p7297
g6
F0.9902
tp7298
a(S'work'
p7299
g9
F0.7166
tp7300
asI777
(lp7301
(S'it'
p7302
g6
F0.9888
tp7303
a(g73
g9
F0.7285
tp7304
a(g137
g35
F0.9974
tp7305
a(S'huge'
p7306
g12
F0.9724
tp7307
a(S'ham'
p7308
g40
F0.857
tp7309
asI778
(lp7310
(S'could'
p7311
g9
F0.98
tp7312
a(S'couldn'
p7313
g9
F0.963
tp7314
a(g81
g9
F0.9504
tp7315
a(S'you'
p7316
g6
F0.9896
tp7317
a(S'work'
p7318
g9
F0.8052
tp7319
a(S'on'
p7320
g45
F0.9227
tp7321
a(S'monday'
p7322
g133
F0.95
tp7323
a(S'if'
p7324
g45
F0.9995
tp7325
a(S'you'
p7326
g6
F0.9997
tp7327
a(S'wanted'
p7328
g9
F0.9975
tp7329
a(S'to'
p7330
g45
F0.9587
tp7331
asI779
(lp7332
(g19
g6
F0.9728
tp7333
a(S'dunno'
p7334
g9
F0.7665
tp7335
a(S'don'
p7336
g133
F0.2743
tp7337
a(g81
g133
F0.604
tp7338
a(S'know'
p7339
g9
F0.9676
tp7340
asI780
(lp7341
(g19
g6
F0.9728
tp7342
a(S'dunno'
p7343
g9
F0.7665
tp7344
a(S'don'
p7345
g133
F0.3637
tp7346
a(g81
g133
F0.6482
tp7347
a(S'know'
p7348
g9
F0.977
tp7349
a(S'how'
p7350
g24
F0.9994
tp7351
a(S'much'
p7352
g12
F0.8214
tp7353
a(S'the'
p7354
g35
F0.9841
tp7355
a(S'xxx'
p7356
g40
F0.4575
tp7357
a(S'work'
p7358
g40
F0.6922
tp7359
a(S'there'
p7360
g384
F0.5607
tp7361
a(S'is'
p7362
g9
F0.9917
tp7363
asI781
(lp7364
(S'maybe'
p7365
g24
F0.9308
tp7366
asI782
(lp7367
(S'why'
p7368
g24
F0.9375
tp7369
a(S'don'
p7370
g40
F0.3034
tp7371
a(g81
g9
F0.5839
tp7372
a(S'you'
p7373
g6
F0.9971
tp7374
asI783
(lp7375
(S'take'
p7376
g9
F0.9332
tp7377
a(g6724
g40
F0.4184
tp7378
a(S'im'
p7379
g3639
F0.9704
tp7380
a(S'bro'
p7381
g40
F0.9695
tp7382
a(S'with'
p7383
g45
F0.9998
tp7384
a(S'you'
p7385
g6
F0.9988
tp7386
asI784
(lp7387
(S'yes'
p7388
g3
F0.9958
tp7389
asI785
(lp7390
(S'laughs'
p7391
g9
F0.9102
tp7392
asI786
(lp7393
(g19
g6
F0.9635
tp7394
a(S'don'
p7395
g9
F0.9231
tp7396
a(g81
g74
F0.2602
tp7397
a(S'work'
p7398
g40
F0.7445
tp7399
a(S'where'
p7400
g24
F0.9689
tp7401
a(g977
g24
F0.8595
tp7402
a(g19
g6
F0.9963
tp7403
a(S'can'
p7404
g9
F0.9998
tp7405
a(S'take'
p7406
g9
F0.9998
tp7407
a(g137
g35
F0.9988
tp7408
a(S'kid'
p7409
g40
F0.9835
tp7410
asI787
(lp7411
(g19
g6
F0.9853
tp7412
a(S'earn'
p7413
g9
F0.9996
tp7414
a(S'more'
p7415
g12
F0.8264
tp7416
a(S'than'
p7417
g45
F0.9988
tp7418
a(S'you'
p7419
g6
F0.9999
tp7420
a(S'do'
p7421
g9
F0.9994
tp7422
asI788
(lp7423
(S'well'
p7424
g3
F0.8573
tp7425
a(g19
g6
F0.997
tp7426
a(S'could'
p7427
g9
F0.9998
tp7428
a(S'take'
p7429
g9
F0.9998
tp7430
a(S'him'
p7431
g6
F0.9809
tp7432
a(S'to'
p7433
g45
F0.99
tp7434
a(S'work'
p7435
g9
F0.7669
tp7436
a(S'with'
p7437
g45
F0.9984
tp7438
a(S'me'
p7439
g6
F0.9988
tp7440
a(S'for'
p7441
g45
F0.9919
tp7442
a(S'three'
p7443
g102
F0.8187
tp7444
a(S'or'
p7445
g165
F0.9908
tp7446
a(S'four'
p7447
g102
F0.8652
tp7448
a(S'hours'
p7449
g40
F0.9851
tp7450
asI789
(lp7451
(g19
g6
F0.9769
tp7452
a(S'couldn'
p7453
g9
F0.9909
tp7454
a(g81
g9
F0.5549
tp7455
asI790
(lp7456
(S'you'
p7457
g6
F0.9669
tp7458
a(S'work'
p7459
g9
F0.8403
tp7460
a(S'in'
p7461
g45
F0.8489
tp7462
a(g137
g35
F0.9948
tp7463
a(S'law'
p7464
g40
F0.971
tp7465
a(S'library'
p7466
g40
F0.9951
tp7467
asI791
(lp7468
(S'it'
p7469
g6
F0.9888
tp7470
a(g73
g9
F0.585
tp7471
a(S'not'
p7472
g24
F0.9963
tp7473
a(S'even'
p7474
g24
F0.9991
tp7475
a(S'like'
p7476
g45
F0.6344
tp7477
a(g19
g6
F0.9714
tp7478
a(S'work'
p7479
g9
F0.9594
tp7480
a(S'in'
p7481
g45
F0.9789
tp7482
a(S'the'
p7483
g35
F0.9996
tp7484
a(S'same'
p7485
g12
F0.9937
tp7486
a(S'place'
p7487
g40
F0.9881
tp7488
a(S'all'
p7489
g384
F0.6371
tp7490
a(S'the'
p7491
g35
F0.9998
tp7492
a(S'time'
p7493
g40
F0.9974
tp7494
a(S'ya'
p7495
g3
F0.4216
tp7496
a(S'you'
p7497
g6
F0.999
tp7498
a(S'know'
p7499
g9
F0.9975
tp7500
asI792
(lp7501
(S'what'
p7502
g6
F0.9923
tp7503
a(S'was'
p7504
g9
F0.9972
tp7505
a(S'he'
p7506
g6
F0.9968
tp7507
a(S'gonna'
p7508
g9
F0.9995
tp7509
a(S'what'
p7510
g6
F0.9947
tp7511
a(S'would'
p7512
g9
F0.9984
tp7513
a(S'he'
p7514
g6
F0.9925
tp7515
a(S'do'
p7516
g9
F0.9994
tp7517
asI793
(lp7518
(g19
g6
F0.9893
tp7519
a(S'thought'
p7520
g9
F0.9998
tp7521
a(S'you'
p7522
g6
F0.9989
tp7523
a(S'were'
p7524
g9
F0.997
tp7525
a(S'just'
p7526
g24
F0.9992
tp7527
a(S'gonna'
p7528
g9
F0.9987
tp7529
a(S'be'
p7530
g9
F0.9984
tp7531
asI794
(lp7532
(g137
g35
F0.9703
tp7533
a(g6724
g40
F0.7438
tp7534
asI795
(lp7535
(S'xxx'
p7536
g68
F0.5958
tp7537
a(S'in'
p7538
g45
F0.9948
tp7539
a(S'the'
p7540
g35
F0.9909
tp7541
asI796
(lp7542
(S'yeah'
p7543
g3
F0.9962
tp7544
a(S'but'
p7545
g165
F0.9951
tp7546
a(g19
g6
F0.9871
tp7547
a(g168
g9
F0.9824
tp7548
a(S'going'
p7549
g9
F0.9976
tp7550
a(S'to'
p7551
g45
F0.9724
tp7552
a(S'be'
p7553
g9
F0.9995
tp7554
a(S'in'
p7555
g45
F0.9694
tp7556
a(g137
g35
F0.996
tp7557
a(S'library'
p7558
g40
F0.9903
tp7559
asI797
(lp7560
(S'oh'
p7561
g3
F0.9988
tp7562
asI798
(lp7563
(S'so'
p7564
g24
F0.5317
tp7565
asI799
(lp7566
(S'and'
p7567
g165
F0.9987
tp7568
a(S'how'
p7569
g24
F0.9781
tp7570
a(S'could'
p7571
g9
F0.9873
tp7572
a(g19
g6
F0.9574
tp7573
a(S'if'
p7574
g45
F0.98
tp7575
a(g19
g6
F0.9972
tp7576
a(S'have'
p7577
g9
F0.9998
tp7578
a(S'to'
p7579
g45
F0.9975
tp7580
a(S'learn'
p7581
g9
F0.9993
tp7582
a(S'how'
p7583
g24
F0.9946
tp7584
a(S'to'
p7585
g45
F0.9743
tp7586
a(S'do'
p7587
g9
F0.9999
tp7588
a(S'this'
p7589
g6
F0.8159
tp7590
a(S'how'
p7591
g24
F0.9791
tp7592
a(S'could'
p7593
g9
F0.9857
tp7594
a(g19
g6
F0.9877
tp7595
a(S'keep'
p7596
g9
F0.9994
tp7597
a(S'an'
p7598
g35
F0.9962
tp7599
a(S'eye'
p7600
g40
F0.9965
tp7601
a(S'on'
p7602
g45
F0.9979
tp7603
a(S'him'
p7604
g6
F0.9914
tp7605
asI800
(lp7606
(S'there'
p7607
g384
F0.4664
tp7608
a(g73
g74
F0.5367
tp7609
a(S'no'
p7610
g35
F0.9367
tp7611
a(S'way'
p7612
g40
F0.998
tp7613
a(g19
g6
F0.9491
tp7614
a(S'could'
p7615
g9
F0.9997
tp7616
a(S'ever'
p7617
g24
F0.9797
tp7618
a(S'bring'
p7619
g9
F1.0
tp7620
a(S'him'
p7621
g6
F0.9912
tp7622
a(S'to'
p7623
g45
F0.9921
tp7624
a(S'work'
p7625
g9
F0.6964
tp7626
a(S'there'
p7627
g24
F0.8016
tp7628
asI801
(lp7629
(g19
g6
F0.9869
tp7630
a(S'could'
p7631
g9
F0.9998
tp7632
a(S'bring'
p7633
g9
F1.0
tp7634
a(S'him'
p7635
g6
F0.9894
tp7636
a(S'to'
p7637
g45
F0.99
tp7638
a(S'work'
p7639
g40
F0.5058
tp7640
a(S'at'
p7641
g45
F0.9998
tp7642
a(S'the'
p7643
g35
F0.9911
tp7644
a(S'xxx'
p7645
g40
F0.4857
tp7646
asI802
(lp7647
(S'chuckles'
p7648
g9
F0.8006
tp7649
asI803
(lp7650
(S'they'
p7651
g6
F0.9928
tp7652
a(S'said'
p7653
g9
F0.9995
tp7654
a(S'if'
p7655
g45
F0.9902
tp7656
a(S'there'
p7657
g384
F0.4866
tp7658
asI804
(lp7659
(g137
g35
F0.9703
tp7660
a(g6724
g40
F0.7438
tp7661
asI805
(lp7662
(S'we'
p7663
g6
F0.9904
tp7664
a(S've'
p7665
g9
F0.7867
tp7666
a(S'been'
p7667
g9
F0.979
tp7668
a(g4910
g45
F0.789
tp7669
a(S'orking'
p7670
g9
F0.6814
tp7671
a(S'short'
p7672
g12
F0.9947
tp7673
a(S'staff'
p7674
g40
F0.9977
tp7675
a(S'up'
p7676
g45
F0.5945
tp7677
a(S'there'
p7678
g24
F0.9079
tp7679
a(S'and'
p7680
g165
F0.9977
tp7681
a(S'she'
p7682
g6
F0.9985
tp7683
a(S'says'
p7684
g9
F0.9986
tp7685
a(S'mom'
p7686
g40
F0.9463
tp7687
a(S'on'
p7688
g45
F0.9976
tp7689
a(S'friday'
p7690
g133
F0.9569
tp7691
a(S'is'
p7692
g9
F0.9946
tp7693
a(S'there'
p7694
g384
F0.749
tp7695
a(S'any'
p7696
g35
F0.9953
tp7697
a(S'chance'
p7698
g40
F0.892
tp7699
a(S'you'
p7700
g6
F0.9968
tp7701
a(S'could'
p7702
g9
F0.9986
tp7703
a(S'work'
p7704
g40
F0.796
tp7705
asI806
(lp7706
(g19
g6
F0.9893
tp7707
a(S'said'
p7708
g9
F0.9996
tp7709
a(S'no'
p7710
g3
F0.7478
tp7711
a(g1669
g40
F0.8232
tp7712
asI807
(lp7713
(S'because'
p7714
g45
F0.983
tp7715
a(g19
g6
F0.9977
tp7716
a(S'have'
p7717
g9
F0.9995
tp7718
a(g19
g6
F0.9904
tp7719
a(S'watch'
p7720
g9
F0.9986
tp7721
a(S'not'
p7722
g24
F0.9972
tp7723
a(S'only'
p7724
g24
F0.857
tp7725
a(S'bro'
p7726
g40
F0.9221
tp7727
a(g19
g6
F0.9202
tp7728
a(S'watch'
p7729
g9
F0.9988
tp7730
a(S'costanza'
p7731
g133
F0.6235
tp7732
a(S'too'
p7733
g24
F0.9471
tp7734
asI808
(lp7735
(S'no'
p7736
g3
F0.8542
tp7737
a(S'yeah'
p7738
g3
F0.9711
tp7739
a(S'well'
p7740
g3
F0.9258
tp7741
a(S'that'
p7742
g6
F0.7664
tp7743
a(g73
g9
F0.5936
tp7744
a(g137
g35
F0.9969
tp7745
a(S'different'
p7746
g12
F0.9971
tp7747
a(S'story'
p7748
g40
F0.9993
tp7749
a(S'too'
p7750
g24
F0.9569
tp7751
asI809
(lp7752
(S'and'
p7753
g165
F0.999
tp7754
a(S'she'
p7755
g6
F0.9985
tp7756
a(S'says'
p7757
g9
F0.9979
tp7758
a(S'well'
p7759
g3
F0.6888
tp7760
a(S'what'
p7761
g6
F0.9923
tp7762
a(S'about'
p7763
g45
F0.9377
tp7764
a(S'if'
p7765
g45
F0.9938
tp7766
a(S'we'
p7767
g6
F0.9992
tp7768
a(S'gave'
p7769
g9
F0.9999
tp7770
a(S'you'
p7771
g6
F0.9962
tp7772
a(S'you'
p7773
g6
F0.9953
tp7774
a(S'know'
p7775
g9
F0.9994
tp7776
a(S'we'
p7777
g6
F0.9985
tp7778
a(S'got'
p7779
g9
F0.9999
tp7780
a(S'you'
p7781
g6
F0.999
tp7782
a(S'into'
p7783
g45
F0.9984
tp7784
a(S'the'
p7785
g35
F0.9968
tp7786
a(S'spalding'
p7787
g133
F0.8993
tp7788
a(S'or'
p7789
g165
F0.9927
tp7790
a(S'we'
p7791
g6
F0.9978
tp7792
a(S'got'
p7793
g9
F1.0
tp7794
a(S'him'
p7795
g6
F0.9935
tp7796
a(S'into'
p7797
g45
F0.9995
tp7798
a(S'the'
p7799
g35
F0.9968
tp7800
a(S'spalding'
p7801
g133
F0.9506
tp7802
a(S'for'
p7803
g45
F0.9998
tp7804
a(S'the'
p7805
g35
F0.9995
tp7806
a(S'day'
p7807
g40
F0.9984
tp7808
a(S'or'
p7809
g165
F0.9922
tp7810
a(S'something'
p7811
g40
F0.995
tp7812
asI810
(lp7813
(g19
g6
F0.9893
tp7814
a(S'said'
p7815
g9
F0.9989
tp7816
a(S'well'
p7817
g3
F0.7501
tp7818
a(g19
g6
F0.9936
tp7819
a(S'couldn'
p7820
g9
F0.9916
tp7821
a(g81
g9
F0.8259
tp7822
a(S'do'
p7823
g9
F0.9974
tp7824
a(S'that'
p7825
g6
F0.586
tp7826
a(S'chuckles'
p7827
g9
F0.962
tp7828
asI811
(lp7829
(S'that'
p7830
g6
F0.473
tp7831
a(g73
g9
F0.5365
tp7832
a(S'the'
p7833
g35
F0.9995
tp7834
a(S'day'
p7835
g40
F0.9962
tp7836
a(S'care'
p7837
g9
F0.8477
tp7838
a(S'center'
p7839
g40
F0.7896
tp7840
a(S'there'
p7841
g24
F0.7887
tp7842
asI812
(lp7843
(S'mhm'
p7844
g3
F0.9747
tp7845
asI813
(lp7846
(S'she'
p7847
g6
F0.9969
tp7848
a(S'brought'
p7849
g9
F0.9997
tp7850
a(S'her'
p7851
g35
F0.9565
tp7852
a(S'kids'
p7853
g40
F0.9886
tp7854
a(S'one'
p7855
g102
F0.9812
tp7856
a(S'day'
p7857
g40
F0.9931
tp7858
a(S'but'
p7859
g165
F0.9746
tp7860
a(S'she'
p7861
g6
F0.9973
tp7862
a(S'let'
p7863
g9
F0.9913
tp7864
a(S'th'
p7865
g9
F0.2751
tp7866
a(S'em'
p7867
g6
F0.9868
tp7868
a(S'run'
p7869
g9
F0.9929
tp7870
a(S'stay'
p7871
g9
F0.9276
tp7872
a(S'they'
p7873
g6
F0.9916
tp7874
a(S'stayed'
p7875
g9
F0.9979
tp7876
a(S'in'
p7877
g45
F0.9463
tp7878
a(S'her'
p7879
g35
F0.9456
tp7880
a(S'office'
p7881
g40
F0.9956
tp7882
asI814
(lp7883
(S'mhm'
p7884
g3
F0.9747
tp7885
asI815
(lp7886
(S'excuse'
p7887
g9
F0.9631
tp7888
a(S'me'
p7889
g6
F0.9988
tp7890
a(S'but'
p7891
g165
F0.9503
tp7892
asI816
(lp7893
(g137
g35
F0.9703
tp7894
a(g6724
g40
F0.7438
tp7895
asI817
(lp7896
(S'this'
p7897
g6
F0.9521
tp7898
a(S'is'
p7899
g9
F0.995
tp7900
a(S'excellent'
p7901
g12
F0.994
tp7902
asI818
(lp7903
(g19
g6
F0.9897
tp7904
a(S'mean'
p7905
g9
F0.9965
tp7906
a(S'she'
p7907
g6
F0.9977
tp7908
a(S'doesn'
p7909
g9
F0.99
tp7910
a(g81
g74
F0.2832
tp7911
a(S'really'
p7912
g24
F0.9752
tp7913
a(S'counsel'
p7914
g9
F0.8374
tp7915
a(S'this'
p7916
g35
F0.9759
tp7917
a(S'woman'
p7918
g40
F0.9899
tp7919
asI819
(lp7920
(S'this'
p7921
g6
F0.9526
tp7922
a(S'is'
p7923
g9
F0.9959
tp7924
a(S'outstanding'
p7925
g12
F0.983
tp7926
a(S'exaggerated'
p7927
g12
F0.8824
tp7928
a(S'ham'
p7929
g40
F0.9013
tp7930
asI820
(lp7931
(S'you'
p7932
g6
F0.963
tp7933
a(S're'
p7934
g9
F0.843
tp7935
a(S'right'
p7936
g24
F0.3518
tp7937
asI821
(lp7938
(g2876
g102
F0.9762
tp7939
a(S'chuckles'
p7940
g40
F0.7808
tp7941
a(S'at'
p7942
g45
F0.9986
tp7943
a(S'chi'
p7944
g133
F0.8336
tp7945
asI822
(lp7946
(S'but'
p7947
g165
F0.9928
tp7948
a(S'why'
p7949
g24
F0.9678
tp7950
a(S'why'
p7951
g24
F0.9211
tp7952
a(S'are'
p7953
g9
F0.9874
tp7954
a(S'some'
p7955
g35
F0.9743
tp7956
a(S'parts'
p7957
g40
F0.99
tp7958
a(S'why'
p7959
g24
F0.9623
tp7960
a(S'are'
p7961
g9
F0.9885
tp7962
a(S'some'
p7963
g35
F0.9743
tp7964
a(S'parts'
p7965
g40
F0.9887
tp7966
a(S'all'
p7967
g35
F0.6952
tp7968
a(S'clear'
p7969
g12
F0.9866
tp7970
a(S'queer'
p7971
g12
F0.9279
tp7972
asI823
(lp7973
(S'it'
p7974
g6
F0.9979
tp7975
a(S'is'
p7976
g9
F0.9993
tp7977
a(S'good'
p7978
g12
F0.9984
tp7979
a(S'ham'
p7980
g40
F0.9351
tp7981
asI824
(lp7982
(S'that'
p7983
g6
F0.8288
tp7984
a(S'was'
p7985
g9
F0.9985
tp7986
a(S'kind'
p7987
g40
F0.8398
tp7988
a(S'of'
p7989
g45
F0.9924
tp7990
a(S'mushy'
p7991
g12
F0.9336
tp7992
asI825
(lp7993
(S'it'
p7994
g6
F0.9858
tp7995
a(g73
g9
F0.4703
tp7996
a(S'fat'
p7997
g12
F0.9684
tp7998
asI826
(lp7999
(S'no'
p8000
g3
F0.7608
tp8001
a(S'it'
p8002
g6
F0.9828
tp8003
a(g73
g9
F0.705
tp8004
a(g137
g35
F0.998
tp8005
a(S'heart'
p8006
g40
F0.9955
tp8007
asI827
(lp8008
(S'laughs'
p8009
g9
F0.9102
tp8010
asI828
(lp8011
(S'laughs'
p8012
g9
F0.9102
tp8013
asI829
(lp8014
(g137
g35
F0.9944
tp8015
a(S'volcano'
p8016
g40
F0.9936
tp8017
asI830
(lp8018
(S'tsudun'
p8019
g133
F0.3257
tp8020
a(S'noise'
p8021
g40
F0.878
tp8022
asI831
(lp8023
(S'laughs'
p8024
g9
F0.9102
tp8025
asI832
(lp8026
(S'ham'
p8027
g40
F0.6072
tp8028
a(S'is'
p8029
g9
F0.9936
tp8030
a(S'part'
p8031
g40
F0.9908
tp8032
a(S'of'
p8033
g45
F0.9979
tp8034
a(S'um'
p8035
g3
F0.5197
tp8036
a(S'the'
p8037
g35
F0.9939
tp8038
a(S'animal'
p8039
g40
F0.9358
tp8040
asI833
(lp8041
(S'it'
p8042
g6
F0.9888
tp8043
a(g73
g9
F0.585
tp8044
a(S'not'
p8045
g24
F0.9899
tp8046
a(S'it'
p8047
g6
F0.9922
tp8048
a(g73
g9
F0.8114
tp8049
a(S'no'
p8050
g35
F0.9597
tp8051
a(S'heart'
p8052
g40
F0.9989
tp8053
asI834
(lp8054
(S'chuckles'
p8055
g9
F0.8006
tp8056
asI835
(lp8057
(S'an'
p8058
g35
F0.9733
tp8059
a(S'animal'
p8060
g40
F0.9614
tp8061
asI836
(lp8062
(S'you'
p8063
g6
F0.9983
tp8064
a(S'know'
p8065
g9
F0.9986
tp8066
a(S'what'
p8067
g6
F0.9865
tp8068
a(S'the'
p8069
g35
F0.9989
tp8070
a(S'ham'
p8071
g40
F0.8693
tp8072
a(S'is'
p8073
g9
F0.9931
tp8074
asI837
(lp8075
(S'it'
p8076
g6
F0.9888
tp8077
a(g73
g9
F0.7511
tp8078
a(S'their'
p8079
g35
F0.77
tp8080
a(S'um'
p8081
g3
F0.4592
tp8082
asI838
(lp8083
(S'laughs'
p8084
g9
F0.9102
tp8085
asI839
(lp8086
(S'xxx'
p8087
g68
F0.8437
tp8088
asI840
(lp8089
(S'what'
p8090
g6
F0.949
tp8091
asI841
(lp8092
(g19
g6
F0.953
tp8093
a(g168
g9
F0.9738
tp8094
a(S'not'
p8095
g24
F0.999
tp8096
a(S'sure'
p8097
g12
F0.8894
tp8098
asI842
(lp8099
(S'coughs'
p8100
g40
F0.5349
tp8101
asI843
(lp8102
(S'it'
p8103
g6
F0.978
tp8104
a(S'isn'
p8105
g45
F0.3299
tp8106
a(g81
g9
F0.4281
tp8107
a(S'their'
p8108
g35
F0.9912
tp8109
a(S'butt'
p8110
g40
F0.9995
tp8111
a(S'is'
p8112
g9
F0.9988
tp8113
a(S'it'
p8114
g6
F0.9978
tp8115
asI844
(lp8116
(S'hunhunh'
p8117
g3
F0.5425
tp8118
asI845
(lp8119
(S'www'
p8120
g133
F0.3889
tp8121
asI846
(lp8122
(S'what'
p8123
g6
F0.9784
tp8124
a(g73
g9
F0.4505
tp8125
a(S'that'
p8126
g35
F0.6976
tp8127
a(S'noise'
p8128
g40
F0.9966
tp8129
asI847
(lp8130
(S'it'
p8131
g6
F0.9888
tp8132
a(g73
g9
F0.6292
tp8133
a(S'the'
p8134
g35
F0.9987
tp8135
a(S'gerbil'
p8136
g40
F0.8923
tp8137
asI848
(lp8138
(S'icicle'
p8139
g40
F0.9179
tp8140
asI849
(lp8141
(S'so'
p8142
g45
F0.8338
tp8143
a(S'you'
p8144
g6
F0.9967
tp8145
a(S're'
p8146
g40
F0.4778
tp8147
a(S'gonna'
p8148
g9
F0.9812
tp8149
asI850
(lp8150
(S'chuckles'
p8151
g9
F0.8006
tp8152
asI851
(lp8153
(S'you'
p8154
g6
F0.9754
tp8155
a(S're'
p8156
g9
F0.5918
tp8157
a(S'gonna'
p8158
g9
F0.9923
tp8159
a(S'ask'
p8160
g9
F0.9998
tp8161
a(S'your'
p8162
g35
F0.9957
tp8163
a(S'teacher'
p8164
g40
F0.9973
tp8165
a(S'that'
p8166
g45
F0.8492
tp8167
a(S'for'
p8168
g45
F0.9986
tp8169
a(g137
g35
F0.9975
tp8170
a(S'book'
p8171
g40
F0.9895
tp8172
a(S'for'
p8173
g45
F0.9999
tp8174
a(S'me'
p8175
g6
F0.9977
tp8176
a(S'tomorrow'
p8177
g24
F0.5358
tp8178
asI852
(lp8179
(S'okay'
p8180
g3
F0.9605
tp8181
a(S'me'
p8182
g6
F0.9781
tp8183
a(S'lad'
p8184
g40
F0.93
tp8185
asI853
(lp8186
(S'and'
p8187
g165
F0.9988
tp8188
a(S'what'
p8189
g6
F0.9931
tp8190
a(S'what'
p8191
g6
F0.9273
tp8192
a(S'kind'
p8193
g40
F0.9627
tp8194
a(S'of'
p8195
g45
F0.9961
tp8196
a(S'book'
p8197
g40
F0.9311
tp8198
a(S'are'
p8199
g9
F0.9876
tp8200
a(S'you'
p8201
g6
F0.9995
tp8202
a(S'gonna'
p8203
g9
F0.9995
tp8204
a(S'ask'
p8205
g9
F0.9992
tp8206
a(S'for'
p8207
g45
F0.9918
tp8208
asI854
(lp8209
(g137
g35
F0.9335
tp8210
a(S'uh'
p8211
g3
F0.7877
tp8212
a(S'how'
p8213
g24
F0.9907
tp8214
a(S'to'
p8215
g45
F0.996
tp8216
a(S'use'
p8217
g9
F0.997
tp8218
a(g137
g35
F0.9964
tp8219
a(S'microscope'
p8220
g40
F0.9975
tp8221
asI855
(lp8222
(S'alright'
p8223
g3
F0.9864
tp8224
asI856
(lp8225
(g19
g6
F0.9835
tp8226
a(S'probably'
p8227
g24
F0.9986
tp8228
a(S'ought'
p8229
g9
F0.9877
tp8230
a(S'to'
p8231
g45
F0.9948
tp8232
a(S'read'
p8233
g9
F0.9997
tp8234
a(S'the'
p8235
g35
F0.999
tp8236
a(S'manufacturer'
p8237
g40
F0.99
tp8238
a(g73
g74
F0.7889
tp8239
a(S'book'
p8240
g40
F0.8838
tp8241
a(S'for'
p8242
g45
F0.9998
tp8243
a(S'that'
p8244
g6
F0.8216
tp8245
asI857
(lp8246
(g19
g6
F0.9942
tp8247
a(S'is'
p8248
g9
F0.9999
tp8249
a(S'um'
p8250
g6
F0.4305
tp8251
a(S'there'
p8252
g384
F0.4838
tp8253
a(S'any'
p8254
g35
F0.9388
tp8255
asI858
(lp8256
(S'don'
p8257
g133
F0.4468
tp8258
a(g81
g133
F0.3726
tp8259
a(S'kick'
p8260
g40
F0.6071
tp8261
asI859
(lp8262
(S'is'
p8263
g9
F0.9955
tp8264
a(S'there'
p8265
g384
F0.8391
tp8266
a(S'any'
p8267
g35
F0.9477
tp8268
a(S'what'
p8269
g6
F0.9741
tp8270
asI860
(lp8271
(S'well'
p8272
g3
F0.8349
tp8273
a(S'if'
p8274
g45
F0.9968
tp8275
a(S'we'
p8276
g6
F0.9992
tp8277
a(S'had'
p8278
g9
F0.9999
tp8279
a(g137
g35
F0.9974
tp8280
a(S'few'
p8281
g12
F0.9237
tp8282
a(S'thousand'
p8283
g102
F0.8027
tp8284
a(S'dollars'
p8285
g40
F0.9866
tp8286
a(S'we'
p8287
g6
F0.9913
tp8288
a(S'could'
p8289
g9
F0.9997
tp8290
a(S'buy'
p8291
g9
F0.9929
tp8292
a(S'like'
p8293
g45
F0.9345
tp8294
a(S'an'
p8295
g35
F0.9848
tp8296
a(S'electronic'
p8297
g12
F0.9349
tp8298
a(S'one'
p8299
g102
F0.7045
tp8300
asI861
(lp8301
(S'laughs'
p8302
g9
F0.9102
tp8303
asI862
(lp8304
(S'for'
p8305
g45
F0.9974
tp8306
a(S'what'
p8307
g6
F0.8918
tp8308
a(S'purpose'
p8309
g40
F0.9926
tp8310
asI863
(lp8311
(S'oh'
p8312
g3
F0.9946
tp8313
a(S'just'
p8314
g24
F0.9984
tp8315
a(S'to'
p8316
g45
F0.986
tp8317
a(S'have'
p8318
g9
F0.9997
tp8319
a(S'around'
p8320
g45
F0.5323
tp8321
asI864
(lp8322
(S'hm'
p8323
g3
F0.995
tp8324
asI865
(lp8325
(S'chuckles'
p8326
g9
F0.8006
tp8327
asI866
(lp8328
(S'we'
p8329
g6
F0.9849
tp8330
a(S're'
p8331
g9
F0.7075
tp8332
a(S'not'
p8333
g24
F0.9964
tp8334
a(S'gonna'
p8335
g9
F0.9986
tp8336
a(S'do'
p8337
g9
F0.9998
tp8338
a(S'with'
p8339
g45
F0.9981
tp8340
a(S'my'
p8341
g35
F0.9981
tp8342
a(S'lottery'
p8343
g40
F0.98
tp8344
a(S'winnings'
p8345
g40
F0.9751
tp8346
a(S'that'
p8347
g45
F0.9414
tp8348
a(g73
g74
F0.5226
tp8349
a(S'for'
p8350
g45
F0.9893
tp8351
a(S'sure'
p8352
g12
F0.9881
tp8353
asI867
(lp8354
(S'hm'
p8355
g3
F0.995
tp8356
asI868
(lp8357
(S'who'
p8358
g6
F0.9963
tp8359
a(S'ate'
p8360
g9
F0.9992
tp8361
a(S'the'
p8362
g35
F0.999
tp8363
a(S'cookies'
p8364
g40
F0.995
tp8365
a(S'lad'
p8366
g40
F0.9934
tp8367
asI869
(lp8368
(S'chi'
p8369
g133
F0.6543
tp8370
a(S'stop'
p8371
g9
F0.9577
tp8372
a(S'shaking'
p8373
g9
F0.9991
tp8374
a(S'the'
p8375
g35
F0.9996
tp8376
a(S'table'
p8377
g40
F0.9901
tp8378
a(S'please'
p8379
g9
F0.972
tp8380
asI870
(lp8381
(S'xxx'
p8382
g68
F0.5731
tp8383
a(S'machine'
p8384
g40
F0.9749
tp8385
asI871
(lp8386
(g19
g6
F0.9583
tp8387
a(g19
g6
F0.9279
tp8388
a(g19
g6
F0.8243
tp8389
a(S'like'
p8390
g9
F0.6166
tp8391
a(S'four'
p8392
g102
F0.8132
tp8393
a(S'dollars'
p8394
g40
F0.9816
tp8395
asI872
(lp8396
(g19
g6
F0.9896
tp8397
a(S'have'
p8398
g9
F0.9981
tp8399
a(S'eight'
p8400
g102
F0.9004
tp8401
a(S'dollars'
p8402
g40
F0.9938
tp8403
asI873
(lp8404
(S'giggles'
p8405
g9
F0.5513
tp8406
asI874
(lp8407
(S'mom'
p8408
g40
F0.5539
tp8409
a(S'you'
p8410
g6
F0.997
tp8411
a(S'owe'
p8412
g9
F0.9999
tp8413
a(S'you'
p8414
g6
F0.9895
tp8415
a(S'ten'
p8416
g102
F0.6134
tp8417
a(S'dollars'
p8418
g40
F0.9915
tp8419
asI875
(lp8420
(g19
g6
F0.9893
tp8421
a(S'wish'
p8422
g9
F0.9967
tp8423
a(g19
g6
F0.9958
tp8424
a(S'have'
p8425
g9
F0.9985
tp8426
a(S'eight'
p8427
g102
F0.9088
tp8428
a(S'dollars'
p8429
g40
F0.9912
tp8430
asI876
(lp8431
(S'chuckles'
p8432
g9
F0.8006
tp8433
asI877
(lp8434
(S'this'
p8435
g35
F0.9238
tp8436
a(S'stupid'
p8437
g12
F0.9993
tp8438
a(S'table'
p8439
g40
F0.9964
tp8440
a(S'could'
p8441
g9
F0.9948
tp8442
a(S'have'
p8443
g9
F0.9996
tp8444
a(S'some'
p8445
g35
F0.8611
tp8446
a(S'of'
p8447
g45
F0.9963
tp8448
a(S'it'
p8449
g6
F0.9978
tp8450
asI878
(lp8451
(S'the'
p8452
g35
F0.9973
tp8453
a(S'good'
p8454
g12
F0.9989
tp8455
a(S'one'
p8456
g102
F0.7219
tp8457
a(S'is'
p8458
g9
F0.9976
tp8459
a(S'it'
p8460
g6
F0.9983
tp8461
a(g73
g9
F0.6384
tp8462
a(S'good'
p8463
g12
F0.9909
tp8464
a(S'to'
p8465
g45
F0.9979
tp8466
a(S'eat'
p8467
g9
F0.9978
tp8468
a(S'on'
p8469
g45
F0.7453
tp8470
asI879
(lp8471
(S'the'
p8472
g35
F0.9971
tp8473
a(S'bad'
p8474
g12
F0.9543
tp8475
a(S'terrible'
p8476
g12
F0.9971
tp8477
a(S'one'
p8478
g102
F0.8843
tp8479
a(S'is'
p8480
g9
F0.9964
tp8481
a(S'you'
p8482
g6
F0.9997
tp8483
a(S'can'
p8484
g9
F0.9993
tp8485
a(g81
g9
F0.7948
tp8486
a(S'play'
p8487
g9
F0.9725
tp8488
a(S'hockey'
p8489
g40
F0.9656
tp8490
a(S'in'
p8491
g45
F0.9912
tp8492
a(S'here'
p8493
g24
F0.92
tp8494
a(S'but'
p8495
g165
F0.9895
tp8496
a(S'any'
p8497
g35
F0.5058
tp8498
a(S'more'
p8499
g12
F0.8197
tp8500
asI880
(lp8501
(S'laughs'
p8502
g9
F0.9102
tp8503
asI881
(lp8504
(S'laughs'
p8505
g9
F0.9102
tp8506
asI882
(lp8507
(S'xxx'
p8508
g68
F0.7583
tp8509
a(S'but'
p8510
g165
F0.9926
tp8511
a(S'we'
p8512
g6
F0.9986
tp8513
a(S'can'
p8514
g9
F0.9997
tp8515
a(S'play'
p8516
g9
F0.9993
tp8517
a(S'right'
p8518
g24
F0.7073
tp8519
a(S'there'
p8520
g24
F0.7922
tp8521
asI883
(lp8522
(S'but'
p8523
g165
F0.9944
tp8524
a(S'we'
p8525
g6
F0.9986
tp8526
a(S'do'
p8527
g9
F0.9996
tp8528
a(S'play'
p8529
g9
F0.9623
tp8530
a(S'right'
p8531
g24
F0.7734
tp8532
a(S'there'
p8533
g24
F0.787
tp8534
asI884
(lp8535
(S'no'
p8536
g3
F0.7985
tp8537
a(S'you'
p8538
g6
F0.9965
tp8539
a(S'can'
p8540
g9
F0.9994
tp8541
a(g81
g9
F0.4527
tp8542
asI885
(lp8543
(S'what'
p8544
g6
F0.5995
tp8545
a(S'time'
p8546
g40
F0.9983
tp8547
a(S'is'
p8548
g9
F0.9998
tp8549
a(S'it'
p8550
g6
F0.9981
tp8551
asI886
(lp8552
(g19
g6
F0.9635
tp8553
a(S'don'
p8554
g9
F0.9231
tp8555
a(g81
g40
F0.2384
tp8556
a(S'have'
p8557
g9
F0.9992
tp8558
a(S'my'
p8559
g35
F0.9583
tp8560
a(S'watch'
p8561
g40
F0.7333
tp8562
asI887
(lp8563
(S'it'
p8564
g6
F0.9888
tp8565
a(g73
g74
F0.6703
tp8566
a(S'xxx'
p8567
g9
F0.4854
tp8568
a(S'it'
p8569
g6
F0.9923
tp8570
a(g73
g9
F0.5546
tp8571
a(S'six'
p8572
g102
F0.4529
tp8573
a(S'thirty'
p8574
g12
F0.832
tp8575
a(S'one'
p8576
g102
F0.8349
tp8577
asI888
(lp8578
(g19
g6
F0.9143
tp8579
a(S'd'
p8580
g9
F0.8852
tp8581
a(S'like'
p8582
g45
F0.7463
tp8583
a(S'you'
p8584
g6
F0.9995
tp8585
a(S'to'
p8586
g45
F0.9929
tp8587
a(S'get'
p8588
g9
F0.9998
tp8589
a(S'in'
p8590
g45
F0.9735
tp8591
a(S'the'
p8592
g35
F0.9988
tp8593
a(S'shower'
p8594
g40
F0.9969
tp8595
asI889
(lp8596
(S'at'
p8597
g45
F0.9953
tp8598
a(S'six'
p8599
g102
F0.3701
tp8600
a(S'thirty'
p8601
g12
F0.6258
tp8602
a(S'two'
p8603
g102
F0.8669
tp8604
asI890
(lp8605
(S'no'
p8606
g3
F0.8412
tp8607
a(S'they'
p8608
g6
F0.9805
tp8609
a(S'll'
p8610
g9
F0.6581
tp8611
a(S'kill'
p8612
g9
F0.9993
tp8613
a(S'me'
p8614
g6
F0.9983
tp8615
a(S'like'
p8616
g45
F0.8687
tp8617
a(S'this'
p8618
g6
F0.8515
tp8619
asI891
(lp8620
(S'ua'
p8621
g3
F0.3612
tp8622
a(g5025
g6
F0.9889
tp8623
asI892
(lp8624
(S'don'
p8625
g133
F0.5427
tp8626
a(g81
g9
F0.4091
tp8627
a(S'you'
p8628
g6
F0.9992
tp8629
a(S'watch'
p8630
g9
F0.9986
tp8631
a(S'something'
p8632
g40
F0.9937
tp8633
a(S'at'
p8634
g45
F0.9994
tp8635
a(S'seven'
p8636
g102
F0.6323
tp8637
asI893
(lp8638
(S'are'
p8639
g9
F0.9964
tp8640
a(S'you'
p8641
g6
F0.9984
tp8642
a(S'afraid'
p8643
g12
F0.9084
tp8644
a(S'of'
p8645
g45
F0.9994
tp8646
a(S'the'
p8647
g35
F0.9996
tp8648
a(S'dark'
p8649
g40
F0.6688
tp8650
asI894
(lp8651
(g2876
g102
F0.9517
tp8652
a(S'laughs'
p8653
g9
F0.6746
tp8654
a(S'villianously'
p8655
g40
F0.2602
tp8656
asI895
(lp8657
(S'you'
p8658
g6
F0.9968
tp8659
a(S'gotta'
p8660
g9
F0.9997
tp8661
a(S'be'
p8662
g9
F0.998
tp8663
a(S'doing'
p8664
g9
F0.9893
tp8665
a(S'uh'
p8666
g3
F0.6986
tp8667
a(S'the'
p8668
g35
F0.9976
tp8669
a(S'book'
p8670
g40
F0.9826
tp8671
a(S'report'
p8672
g40
F0.935
tp8673
a(S'project'
p8674
g40
F0.9949
tp8675
a(S'today'
p8676
g40
F0.9921
tp8677
asI896
(lp8678
(S'some'
p8679
g35
F0.7593
tp8680
a(S'of'
p8681
g45
F0.9944
tp8682
a(S'it'
p8683
g6
F0.9974
tp8684
asI897
(lp8685
(S'we'
p8686
g6
F0.9849
tp8687
a(S're'
p8688
g9
F0.4911
tp8689
a(S'gonna'
p8690
g9
F0.9924
tp8691
a(S'start'
p8692
g9
F0.9998
tp8693
a(S'it'
p8694
g6
F0.9928
tp8695
a(S'tonight'
p8696
g24
F0.8848
tp8697
asI898
(lp8698
(S'at'
p8699
g45
F0.9949
tp8700
a(S'seven'
p8701
g102
F0.6433
tp8702
a(S'thirty'
p8703
g40
F0.3749
tp8704
asI899
(lp8705
(S'no'
p8706
g3
F0.9253
tp8707
asI900
(lp8708
(S'no'
p8709
g3
F0.7985
tp8710
a(S'you'
p8711
g6
F0.9936
tp8712
a(S'wan'
p8713
g9
F0.5521
tp8714
a(S'xxx'
p8715
g9
F0.37
tp8716
a(S'it'
p8717
g6
F0.9939
tp8718
a(g73
g74
F0.5666
tp8719
a(S'okay'
p8720
g12
F0.4874
tp8721
a(S'fat'
p8722
g12
F0.9508
tp8723
asI901
(lp8724
(S'no'
p8725
g3
F0.7879
tp8726
a(S'uh'
p8727
g3
F0.9366
tp8728
a(S'uh'
p8729
g3
F0.9665
tp8730
a(S'no'
p8731
g3
F0.8367
tp8732
a(S'uh'
p8733
g3
F0.8992
tp8734
a(S'uh'
p8735
g3
F0.9904
tp8736
a(g19
g6
F0.9896
tp8737
a(S'll'
p8738
g9
F0.478
tp8739
a(g19
g6
F0.9854
tp8740
a(S'll'
p8741
g9
F0.7174
tp8742
asI902
(lp8743
(S'give'
p8744
g9
F0.9982
tp8745
a(S'you'
p8746
g6
F0.9963
tp8747
a(g137
g35
F0.9886
tp8748
a(S'kiss'
p8749
g40
F0.9897
tp8750
asI903
(lp8751
(S'www'
p8752
g133
F0.4626
tp8753
a(S'small'
p8754
g12
F0.9164
tp8755
a(S'burp'
p8756
g40
F0.7964
tp8757
a(S'oh'
p8758
g3
F0.9259
tp8759
a(S'excuse'
p8760
g9
F0.9839
tp8761
a(S'me'
p8762
g6
F0.9986
tp8763
asI904
(lp8764
(S'chuckles'
p8765
g9
F0.8006
tp8766
asI905
(lp8767
(S'please'
p8768
g9
F0.8246
tp8769
asI906
(lp8770
(S'and'
p8771
g165
F0.9996
tp8772
a(g137
g35
F0.9885
tp8773
a(S'hug'
p8774
g40
F0.9934
tp8775
asI907
(lp8776
(S'this'
p8777
g6
F0.9526
tp8778
a(S'is'
p8779
g9
F0.9988
tp8780
a(g137
g35
F0.9964
tp8781
a(S'hug'
p8782
g40
F0.9923
tp8783
asI908
(lp8784
(g137
g35
F0.9896
tp8785
a(S'better'
p8786
g12
F0.9637
tp8787
a(S'hug'
p8788
g40
F0.9783
tp8789
a(S'than'
p8790
g45
F0.9955
tp8791
a(S'that'
p8792
g6
F0.9524
tp8793
asI909
(lp8794
(g2876
g102
F0.9638
tp8795
asI910
(lp8796
(S'ugh'
p8797
g3
F0.9926
tp8798
a(S'that'
p8799
g6
F0.6083
tp8800
a(g73
g74
F0.6619
tp8801
a(S'uh'
p8802
g3
F0.9621
tp8803
a(S'that'
p8804
g6
F0.5921
tp8805
a(g73
g74
F0.6735
tp8806
a(S'uh'
p8807
g3
F0.8652
tp8808
a(S'good'
p8809
g12
F0.9905
tp8810
asI911
(lp8811
(S'chuckles'
p8812
g9
F0.8006
tp8813
asI912
(lp8814
(S'okay'
p8815
g3
F0.9804
tp8816
a(S'that'
p8817
g6
F0.5697
tp8818
a(g73
g9
F0.4418
tp8819
a(S'better'
p8820
g12
F0.7538
tp8821
asI913
(lp8822
(S'now'
p8823
g24
F0.994
tp8824
a(S'sit'
p8825
g9
F0.9954
tp8826
a(S'down'
p8827
g199
F0.831
tp8828
a(S'now'
p8829
g24
F0.9963
tp8830
asI914
(lp8831
(S'are'
p8832
g9
F0.9964
tp8833
a(S'you'
p8834
g6
F0.9996
tp8835
a(S'done'
p8836
g9
F0.9971
tp8837
a(S'eating'
p8838
g9
F0.965
tp8839
a(S'bro'
p8840
g40
F0.9815
tp8841
asI915
(lp8842
(S'mhm'
p8843
g3
F0.9747
tp8844
asI916
(lp8845
(S'who'
p8846
g6
F0.9905
tp8847
a(g73
g9
F0.5286
tp8848
a(S'gonna'
p8849
g9
F0.9957
tp8850
a(S'be'
p8851
g9
F0.9998
tp8852
a(g137
g35
F0.9779
tp8853
a(S'good'
p8854
g12
F0.9987
tp8855
a(S'boy'
p8856
g40
F0.9972
tp8857
a(S'and'
p8858
g165
F0.9958
tp8859
a(S'bring'
p8860
g9
F0.9998
tp8861
a(S'their'
p8862
g35
F0.9977
tp8863
a(S'plates'
p8864
g40
F0.9965
tp8865
a(S'out'
p8866
g45
F0.7699
tp8867
a(S'for'
p8868
g45
F0.9994
tp8869
a(S'me'
p8870
g6
F0.999
tp8871
asI917
(lp8872
(S'only'
p8873
g24
F0.8081
tp8874
a(S'if'
p8875
g45
F0.9898
tp8876
a(g19
g6
F0.9963
tp8877
a(S'get'
p8878
g9
F0.9997
tp8879
a(S'paid'
p8880
g9
F0.9428
tp8881
asI918
(lp8882
(S'yeah'
p8883
g3
F0.9901
tp8884
a(S'bring'
p8885
g9
F0.9995
tp8886
a(S'my'
p8887
g35
F0.9983
tp8888
a(S'plate'
p8889
g40
F0.9985
tp8890
a(S'out'
p8891
g45
F0.5258
tp8892
a(S'with'
p8893
g45
F0.9993
tp8894
a(S'yours'
p8895
g6
F0.9584
tp8896
a(S'please'
p8897
g9
F0.9814
tp8898
asI919
(lp8899
(S'oh'
p8900
g3
F0.9987
tp8901
a(S'yeah'
p8902
g3
F0.9997
tp8903
asI920
(lp8904
(g19
g6
F0.9914
tp8905
a(S'was'
p8906
g9
F0.9996
tp8907
a(S'gonna'
p8908
g9
F0.9882
tp8909
a(S'have'
p8910
g9
F0.9993
tp8911
a(S'more'
p8912
g12
F0.8345
tp8913
a(S'fruit'
p8914
g40
F0.9935
tp8915
a(S'salad'
p8916
g40
F0.9973
tp8917
asI921
(lp8918
(S'can'
p8919
g9
F0.9755
tp8920
a(g19
g6
F0.987
tp8921
a(S'have'
p8922
g9
F0.9996
tp8923
a(S'more'
p8924
g12
F0.8852
tp8925
a(S'fruit'
p8926
g40
F0.993
tp8927
a(S'salad'
p8928
g40
F0.9975
tp8929
asI922
(lp8930
(S'yes'
p8931
g3
F0.9958
tp8932
asI923
(lp8933
(S'but'
p8934
g165
F0.9925
tp8935
a(S'darling'
p8936
g40
F0.9853
tp8937
a(S'eat'
p8938
g9
F0.9962
tp8939
a(S'it'
p8940
g6
F0.9879
tp8941
a(S'then'
p8942
g24
F0.9828
tp8943
asI924
(lp8944
(S'what'
p8945
g6
F0.9835
tp8946
a(S'are'
p8947
g9
F0.9978
tp8948
a(S'you'
p8949
g6
F0.9993
tp8950
a(S'getting'
p8951
g9
F1.0
tp8952
a(S'up'
p8953
g199
F0.9145
tp8954
a(S'for'
p8955
g45
F0.9959
tp8956
asI925
(lp8957
(S'ow'
p8958
g3
F0.9682
tp8959
asI926
(lp8960
(S'www'
p8961
g133
F0.5889
tp8962
a(S'squeals'
p8963
g40
F0.7061
tp8964
asI927
(lp8965
(g19
g6
F0.9583
tp8966
a(g19
g6
F0.7935
tp8967
a(S'if'
p8968
g45
F0.9727
tp8969
a(g19
g6
F0.988
tp8970
a(S'ha'
p8971
g3
F0.8644
tp8972
a(g8580
g133
F0.5136
tp8973
a(S'did'
p8974
g9
F0.9792
tp8975
a(S'did'
p8976
g9
F0.9723
tp8977
a(g19
g6
F0.9966
tp8978
a(S'have'
p8979
g9
F0.9997
tp8980
a(S'so'
p8981
g45
F0.6957
tp8982
a(S'so'
p8983
g24
F0.9932
tp8984
a(S'far'
p8985
g24
F0.9636
tp8986
a(S'have'
p8987
g9
F0.9974
tp8988
a(S'the'
p8989
g35
F0.9973
tp8990
a(S'uh'
p8991
g40
F0.2598
tp8992
a(S'most'
p8993
g24
F0.566
tp8994
a(S'food'
p8995
g40
F0.8795
tp8996
a(S'here'
p8997
g24
F0.9395
tp8998
asI928
(lp8999
(S'do'
p9000
g9
F0.9985
tp9001
a(S'you'
p9002
g6
F0.9997
tp9003
a(S'think'
p9004
g9
F0.9985
tp9005
a(S'mommy'
p9006
g40
F0.7636
tp9007
asI929
(lp9008
(S'gasps'
p9009
g40
F0.5201
tp9010
asI930
(lp9011
(S'are'
p9012
g9
F0.9964
tp9013
a(S'you'
p9014
g6
F0.9994
tp9015
a(S'gonna'
p9016
g9
F0.9997
tp9017
a(S'bring'
p9018
g9
F1.0
tp9019
a(S'my'
p9020
g35
F0.9982
tp9021
a(S'plate'
p9022
g40
F0.9987
tp9023
a(S'out'
p9024
g45
F0.7861
tp9025
a(S'for'
p9026
g45
F0.9994
tp9027
a(S'me'
p9028
g6
F0.9989
tp9029
asI931
(lp9030
(S'mhm'
p9031
g3
F0.9747
tp9032
asI932
(lp9033
(S'aw'
p9034
g3
F0.9971
tp9035
a(S'thank'
p9036
g9
F0.9625
tp9037
a(S'you'
p9038
g6
F0.999
tp9039
asI933
(lp9040
(S'now'
p9041
g24
F0.9929
tp9042
a(S'remember'
p9043
g9
F0.9818
tp9044
a(S'don'
p9045
g133
F0.4934
tp9046
a(g81
g133
F0.3803
tp9047
a(S'just'
p9048
g24
F0.9982
tp9049
a(S'drop'
p9050
g9
F0.9983
tp9051
a(S'them'
p9052
g6
F0.976
tp9053
a(S'in'
p9054
g45
F0.991
tp9055
a(S'the'
p9056
g35
F0.9968
tp9057
a(S'sink'
p9058
g40
F0.9258
tp9059
a(S'right'
p9060
g12
F0.2821
tp9061
asI934
(lp9062
(S'place'
p9063
g40
F0.9463
tp9064
a(S'place'
p9065
g40
F0.562
tp9066
a(S'them'
p9067
g6
F0.8927
tp9068
asI935
(lp9069
(S'put'
p9070
g9
F0.8065
tp9071
a(S'th'
p9072
g9
F0.2471
tp9073
a(S'em'
p9074
g6
F0.987
tp9075
a(S'together'
p9076
g24
F0.9546
tp9077
asI936
(lp9078
(S'well'
p9079
g3
F0.6526
tp9080
a(S'put'
p9081
g9
F0.9921
tp9082
a(S'them'
p9083
g6
F0.9751
tp9084
a(S'on'
p9085
g45
F0.9899
tp9086
a(S'the'
p9087
g35
F0.9619
tp9088
a(S'on'
p9089
g45
F0.9806
tp9090
a(S'the'
p9091
g35
F0.9993
tp9092
a(S'counter'
p9093
g40
F0.9978
tp9094
a(S'beside'
p9095
g45
F0.9991
tp9096
a(S'the'
p9097
g35
F0.9968
tp9098
a(S'sink'
p9099
g40
F0.9845
tp9100
a(S'bro'
p9101
g40
F0.9967
tp9102
a(S'would'
p9103
g9
F0.9976
tp9104
a(S'be'
p9105
g9
F0.9996
tp9106
a(S'okay'
p9107
g12
F0.6557
tp9108
a(S'too'
p9109
g24
F0.9729
tp9110
asI937
(lp9111
(S'whatever'
p9112
g3
F0.9637
tp9113
asI938
(lp9114
(S'right'
p9115
g3
F0.861
tp9116
asI939
(lp9117
(S'carefully'
p9118
g24
F0.9752
tp9119
asI940
(lp9120
(S'aw'
p9121
g3
F0.9971
tp9122
a(S'thank'
p9123
g9
F0.9625
tp9124
a(S'you'
p9125
g6
F0.999
tp9126
asI941
(lp9127
(S'that'
p9128
g6
F0.473
tp9129
a(g73
g9
F0.5384
tp9130
a(S'such'
p9131
g12
F0.3731
tp9132
a(g137
g35
F0.9952
tp9133
a(S'big'
p9134
g12
F0.8814
tp9135
a(S'help'
p9136
g40
F0.8895
tp9137
a(S'for'
p9138
g45
F0.9997
tp9139
a(S'me'
p9140
g6
F0.9992
tp9141
asI942
(lp9142
(S'www'
p9143
g133
F0.7258
tp9144
a(S'blowing'
p9145
g9
F0.738
tp9146
a(S'noises'
p9147
g40
F0.9936
tp9148
asI943
(lp9149
(S'don'
p9150
g133
F0.4468
tp9151
a(g81
g74
F0.4162
tp9152
asI944
(lp9153
(S'so'
p9154
g45
F0.8338
tp9155
a(S'you'
p9156
g6
F0.9996
tp9157
a(S'can'
p9158
g9
F0.9997
tp9159
a(S'make'
p9160
g9
F0.9999
tp9161
a(S'yourself'
p9162
g6
F0.8707
tp9163
a(g137
g35
F0.9955
tp9164
a(S'lunch'
p9165
g40
F0.9851
tp9166
a(S'with'
p9167
g45
F0.9998
tp9168
a(S'this'
p9169
g35
F0.563
tp9170
a(S'tomorrow'
p9171
g40
F0.9839
tp9172
a(S'and'
p9173
g165
F0.9918
tp9174
a(S'don'
p9175
g9
F0.3408
tp9176
a(g81
g40
F0.2677
tp9177
a(S'forget'
p9178
g9
F0.9995
tp9179
a(S'it'
p9180
g6
F0.9895
tp9181
asI945
(lp9182
(S'yes'
p9183
g3
F0.9958
tp9184
asI946
(lp9185
(S'mhm'
p9186
g3
F0.9747
tp9187
asI947
(lp9188
(S'uh'
p9189
g3
F0.9592
tp9190
a(S'this'
p9191
g35
F0.8866
tp9192
a(S'ham'
p9193
g40
F0.9225
tp9194
a(S'is'
p9195
g9
F0.9935
tp9196
a(S'the'
p9197
g35
F0.9995
tp9198
a(S'best'
p9199
g12
F0.9784
tp9200
asI948
(lp9201
(S'it'
p9202
g6
F0.9979
tp9203
a(S'is'
p9204
g9
F0.9993
tp9205
a(S'good'
p9206
g12
F0.9984
tp9207
a(S'ham'
p9208
g40
F0.9351
tp9209
asI949
(lp9210
(S'we'
p9211
g6
F0.9832
tp9212
a(S'we'
p9213
g6
F0.9459
tp9214
a(S're'
p9215
g9
F0.6367
tp9216
a(S'playing'
p9217
g9
F0.9971
tp9218
a(S'hockey'
p9219
g40
F0.9717
tp9220
a(S'today'
p9221
g40
F0.9975
tp9222
a(S'in'
p9223
g45
F0.9993
tp9224
a(S'the'
p9225
g35
F0.9903
tp9226
a(S'xxx'
p9227
g40
F0.4857
tp9228
asI950
(lp9229
(S'mhm'
p9230
g3
F0.9747
tp9231
asI951
(lp9232
(S'till'
p9233
g45
F0.9592
tp9234
a(S'seven'
p9235
g102
F0.8797
tp9236
a(S'o'
p9237
g45
F0.6284
tp9238
a(g5335
g74
F0.3133
tp9239
a(S'clock'
p9240
g40
F0.9468
tp9241
a(S'too'
p9242
g24
F0.9193
tp9243
a(S'alright'
p9244
g3
F0.4986
tp9245
asI952
(lp9246
(S'it'
p9247
g6
F0.9888
tp9248
a(g73
g74
F0.6703
tp9249
a(S'xxx'
p9250
g9
F0.4162
tp9251
a(S'out'
p9252
g199
F0.5683
tp9253
a(S'laughing'
p9254
g9
F0.9103
tp9255
asI953
(lp9256
(S'uhuh'
p9257
g3
F0.9919
tp9258
asI954
(lp9259
(S'uhuh'
p9260
g3
F0.9919
tp9261
asI955
(lp9262
(S'right'
p9263
g3
F0.7526
tp9264
a(S'chi'
p9265
g3
F0.4976
tp9266
asI956
(lp9267
(g19
g6
F0.9869
tp9268
a(S'gotta'
p9269
g9
F0.9998
tp9270
a(S'bring'
p9271
g9
F0.9999
tp9272
a(S'those'
p9273
g35
F0.9852
tp9274
a(S'games'
p9275
g40
F0.9947
tp9276
a(S'back'
p9277
g24
F0.7831
tp9278
asI957
(lp9279
(S'why'
p9280
g24
F0.8527
tp9281
asI958
(lp9282
(S'yeah'
p9283
g3
F0.9916
tp9284
a(S'at'
p9285
g45
F0.9952
tp9286
a(S'seven'
p9287
g102
F0.5634
tp9288
a(S'or'
p9289
g165
F0.9904
tp9290
a(S'so'
p9291
g24
F0.8189
tp9292
asI959
(lp9293
(S'nuhhuh'
p9294
g3
F0.533
tp9295
asI960
(lp9296
(g19
g6
F0.9583
tp9297
a(g19
g6
F0.97
tp9298
a(S'wanna'
p9299
g9
F0.9989
tp9300
a(S'play'
p9301
g9
F0.9969
tp9302
a(S'um'
p9303
g3
F0.844
tp9304
asI961
(lp9305
(S'it'
p9306
g6
F0.9888
tp9307
a(g73
g9
F0.5655
tp9308
a(S'time'
p9309
g40
F0.9864
tp9310
a(S'for'
p9311
g45
F0.9997
tp9312
a(S'me'
p9313
g6
F0.999
tp9314
asI962
(lp9315
(S'hm'
p9316
g3
F0.9805
tp9317
a(S'if'
p9318
g45
F0.9979
tp9319
a(S'you'
p9320
g6
F0.9984
tp9321
a(S're'
p9322
g9
F0.5762
tp9323
a(S'gonna'
p9324
g9
F0.992
tp9325
a(S'play'
p9326
g9
F0.9977
tp9327
a(S'contra'
p9328
g133
F0.2799
tp9329
a(S'you'
p9330
g6
F0.9723
tp9331
a(S'better'
p9332
g24
F0.6296
tp9333
a(S'go'
p9334
g9
F0.951
tp9335
a(S'play'
p9336
g9
F0.9331
tp9337
a(S'right'
p9338
g24
F0.9181
tp9339
a(S'now'
p9340
g24
F0.9966
tp9341
a(S'be'
p9342
g9
F0.9929
tp9343
a(S'cause'
p9344
g45
F0.665
tp9345
a(g19
g6
F0.9813
tp9346
a(g168
g9
F0.9607
tp9347
a(S'gonna'
p9348
g9
F0.9946
tp9349
a(S'bring'
p9350
g9
F1.0
tp9351
a(S'it'
p9352
g6
F0.9854
tp9353
a(S'back'
p9354
g24
F0.6727
tp9355
asI963
(lp9356
(S'now'
p9357
g24
F0.9613
tp9358
asI964
(lp9359
(S'yeah'
p9360
g3
F0.9988
tp9361
asI965
(lp9362
(S'does'
p9363
g9
F0.9985
tp9364
a(S'the'
p9365
g35
F0.9989
tp9366
a(S'hockey'
p9367
g40
F0.8638
tp9368
a(S'one'
p9369
g102
F0.8087
tp9370
a(S'have'
p9371
g9
F0.9737
tp9372
a(S'to'
p9373
g45
F0.9906
tp9374
a(S'go'
p9375
g9
F0.999
tp9376
a(S'back'
p9377
g24
F0.9535
tp9378
asI966
(lp9379
(S'yeah'
p9380
g3
F0.9988
tp9381
asI967
(lp9382
(S'okay'
p9383
g3
F0.8855
tp9384
a(S'can'
p9385
g9
F0.9983
tp9386
a(S'you'
p9387
g6
F0.9922
tp9388
a(S'um'
p9389
g3
F0.4625
tp9390
a(S'can'
p9391
g9
F0.9993
tp9392
a(S'you'
p9393
g6
F0.9989
tp9394
a(S'renew'
p9395
g9
F0.9996
tp9396
a(S'it'
p9397
g6
F0.9938
tp9398
asI968
(lp9399
(S'no'
p9400
g3
F0.9253
tp9401
asI969
(lp9402
(g19
g6
F0.9635
tp9403
a(S'don'
p9404
g9
F0.9231
tp9405
a(g81
g40
F0.2384
tp9406
a(S'have'
p9407
g9
F0.9992
tp9408
a(g137
g35
F0.9976
tp9409
a(S'membership'
p9410
g40
F0.9989
tp9411
a(S'at'
p9412
g45
F0.9996
tp9413
a(S'that'
p9414
g35
F0.9304
tp9415
a(S'place'
p9416
g40
F0.9949
tp9417
asI970
(lp9418
(S'um'
p9419
g3
F0.979
tp9420
asI971
(lp9421
(S'oh'
p9422
g3
F0.9987
tp9423
a(S'yeah'
p9424
g3
F0.9997
tp9425
asI972
(lp9426
(S'how'
p9427
g24
F0.9647
tp9428
a(g137
g35
F0.9714
tp9429
a(S'bout'
p9430
g40
F0.4943
tp9431
a(S'now'
p9432
g24
F0.9934
tp9433
asI973
(lp9434
(S'please'
p9435
g9
F0.938
tp9436
a(S'mom'
p9437
g40
F0.812
tp9438
asI974
(lp9439
(S'chi'
p9440
g133
F0.5959
tp9441
a(S'look'
p9442
g9
F0.9086
tp9443
asI975
(lp9444
(S'maybe'
p9445
g24
F0.9527
tp9446
a(S'tomorrow'
p9447
g40
F0.7015
tp9448
asI976
(lp9449
(g19
g6
F0.953
tp9450
a(g168
g9
F0.9784
tp9451
a(S'not'
p9452
g24
F0.9958
tp9453
a(S'goin'
p9454
g9
F0.9957
tp9455
a(g116
g9
F0.4784
tp9456
a(S'to'
p9457
g45
F0.9809
tp9458
a(S'xxx'
p9459
g9
F0.6225
tp9460
a(S'tonight'
p9461
g24
F0.7316
tp9462
asI977
(lp9463
(S'don'
p9464
g133
F0.5427
tp9465
a(g81
g133
F0.3606
tp9466
a(S'be'
p9467
g9
F0.9822
tp9468
a(S'ridiculous'
p9469
g12
F0.9978
tp9470
asI978
(lp9471
(S'you'
p9472
g6
F0.9943
tp9473
a(S'are'
p9474
g9
F0.9992
tp9475
a(S'really'
p9476
g24
F0.9997
tp9477
a(S'unbelievable'
p9478
g12
F0.9985
tp9479
a(S'chi'
p9480
g40
F0.4297
tp9481
a(S'with'
p9482
g45
F0.9987
tp9483
a(S'that'
p9484
g35
F0.8642
tp9485
a(S'hockey'
p9486
g40
F0.9681
tp9487
a(S'ya'
p9488
g3
F0.4971
tp9489
a(S'you'
p9490
g6
F0.9985
tp9491
a(S'know'
p9492
g9
F0.9963
tp9493
asI979
(lp9494
(S'you'
p9495
g6
F0.9983
tp9496
a(S'know'
p9497
g9
F0.9982
tp9498
a(S'plus'
p9499
g45
F0.2832
tp9500
a(S'you'
p9501
g6
F0.9994
tp9502
a(S'just'
p9503
g24
F0.9996
tp9504
asI980
(lp9505
(g2876
g102
F0.9644
tp9506
a(S'clears'
p9507
g9
F0.8351
tp9508
a(S'throat'
p9509
g40
F0.9556
tp9510
asI981
(lp9511
(S'you'
p9512
g6
F0.9907
tp9513
a(S'just'
p9514
g24
F0.9978
tp9515
a(S'um'
p9516
g3
F0.6437
tp9517
asI982
(lp9518
(S'xxx'
p9519
g68
F0.8437
tp9520
asI983
(lp9521
(S'yeah'
p9522
g3
F0.9922
tp9523
a(S'you'
p9524
g6
F0.9961
tp9525
a(S'don'
p9526
g9
F0.851
tp9527
a(g81
g74
F0.5134
tp9528
asI984
(lp9529
(S'uh'
p9530
g3
F0.9849
tp9531
a(g19
g6
F0.9946
tp9532
a(S'want'
p9533
g9
F1.0
tp9534
a(S'him'
p9535
g6
F0.9921
tp9536
a(S'to'
p9537
g45
F0.9954
tp9538
a(S'play'
p9539
g9
F0.9978
tp9540
a(S'with'
p9541
g45
F0.9931
tp9542
a(S'xxx'
p9543
g68
F0.6165
tp9544
asI985
(lp9545
(S'to'
p9546
g45
F0.9848
tp9547
a(S'got'
p9548
g9
F0.9997
tp9549
a(S'the'
p9550
g35
F0.9939
tp9551
a(S'uh'
p9552
g3
F0.4359
tp9553
asI986
(lp9554
(S'the'
p9555
g35
F0.9969
tp9556
a(S'three'
p9557
g102
F0.9168
tp9558
a(S'with'
p9559
g45
F0.9992
tp9560
a(S'me'
p9561
g6
F0.9982
tp9562
asI987
(lp9563
(S'arcade'
p9564
g133
F0.7953
tp9565
a(S'there'
p9566
g24
F0.5046
tp9567
asI988
(lp9568
(S'if'
p9569
g45
F0.9977
tp9570
a(S'you'
p9571
g6
F0.9997
tp9572
a(S'wanna'
p9573
g9
F0.9978
tp9574
a(S'play'
p9575
g9
F0.9959
tp9576
a(S'contra'
p9577
g133
F0.2799
tp9578
a(S'you'
p9579
g6
F0.9981
tp9580
a(S'had'
p9581
g9
F0.9993
tp9582
a(S'better'
p9583
g12
F0.5958
tp9584
a(S'go'
p9585
g9
F0.7315
tp9586
a(S'play'
p9587
g9
F0.8741
tp9588
a(S'now'
p9589
g24
F0.9915
tp9590
a(S'bro'
p9591
g40
F0.7271
tp9592
a(S'short'
p9593
g12
F0.9903
tp9594
a(S'form'
p9595
g40
F0.9851
tp9596
asI989
(lp9597
(S'contra'
p9598
g133
F0.4741
tp9599
asI990
(lp9600
(S'come'
p9601
g9
F0.9849
tp9602
a(S'on'
p9603
g45
F0.8996
tp9604
a(S'chi'
p9605
g133
F0.6308
tp9606
asI991
(lp9607
(S'no'
p9608
g3
F0.9253
tp9609
asI992
(lp9610
(S'no'
p9611
g3
F0.9253
tp9612
asI993
(lp9613
(S'he'
p9614
g6
F0.9888
tp9615
a(g73
g9
F0.7771
tp9616
a(S'eating'
p9617
g9
F0.9926
tp9618
asI994
(lp9619
(S'me'
p9620
g6
F0.9947
tp9621
a(S'me'
p9622
g6
F0.9861
tp9623
a(S'me'
p9624
g6
F0.9928
tp9625
a(S'and'
p9626
g165
F0.9941
tp9627
a(S'him'
p9628
g6
F0.8554
tp9629
a(S'fat'
p9630
g12
F0.974
tp9631
a(S'are'
p9632
g9
F0.7623
tp9633
asI995
(lp9634
(S'yeah'
p9635
g3
F0.9962
tp9636
a(S'but'
p9637
g165
F0.9897
tp9638
a(S'let'
p9639
g9
F0.9271
tp9640
a(S'bro'
p9641
g40
F0.9702
tp9642
a(S'play'
p9643
g9
F0.9718
tp9644
a(S'contra'
p9645
g12
F0.3636
tp9646
a(S'one'
p9647
g102
F0.9237
tp9648
a(S'more'
p9649
g12
F0.9809
tp9650
a(S'time'
p9651
g40
F0.9986
tp9652
asI996
(lp9653
(S'and'
p9654
g165
F0.9987
tp9655
a(S'then'
p9656
g24
F0.9675
tp9657
a(S'we'
p9658
g6
F0.9935
tp9659
a(S're'
p9660
g40
F0.6514
tp9661
a(S'gonna'
p9662
g9
F0.9966
tp9663
a(S'play'
p9664
g9
F0.9961
tp9665
asI997
(lp9666
(S'okay'
p9667
g3
F0.7503
tp9668
a(S'bro'
p9669
g40
F0.9419
tp9670
a(S'go'
p9671
g9
F0.9823
tp9672
a(S'play'
p9673
g9
F0.869
tp9674
a(S'now'
p9675
g24
F0.9949
tp9676
a(S'because'
p9677
g45
F0.9938
tp9678
a(S'chi'
p9679
g133
F0.7663
tp9680
a(S'and'
p9681
g165
F0.9991
tp9682
a(g19
g6
F0.9912
tp9683
a(S'are'
p9684
g9
F0.9992
tp9685
a(S'gonna'
p9686
g9
F0.9899
tp9687
a(S'play'
p9688
g9
F0.9997
tp9689
a(S'the'
p9690
g35
F0.9993
tp9691
a(S'hockey'
p9692
g40
F0.9485
tp9693
a(S'when'
p9694
g24
F0.9579
tp9695
a(S'we'
p9696
g6
F0.9964
tp9697
a(S'get'
p9698
g9
F0.9996
tp9699
a(S'through'
p9700
g45
F0.969
tp9701
a(S'eating'
p9702
g9
F0.9767
tp9703
asI998
(lp9704
(S'chi'
p9705
g3
F0.4684
tp9706
asI999
(lp9707
(S'it'
p9708
g6
F0.9888
tp9709
a(g73
g9
F0.4828
tp9710
a(S'just'
p9711
g24
F0.9999
tp9712
a(S'hard'
p9713
g12
F0.9215
tp9714
asI1000
(lp9715
(S'what'
p9716
g6
F0.9905
tp9717
a(S'was'
p9718
g9
F0.9935
tp9719
a(S'hard'
p9720
g12
F0.8319
tp9721
asI1001
(lp9722
(S'oh'
p9723
g3
F0.9944
tp9724
a(S'those'
p9725
g35
F0.7369
tp9726
a(S'pineapple'
p9727
g40
F0.9503
tp9728
asI1002
(lp9729
(S'this'
p9730
g6
F0.9526
tp9731
a(S'is'
p9732
g9
F0.9969
tp9733
a(S'why'
p9734
g24
F0.9681
tp9735
a(S'we'
p9736
g6
F0.9976
tp9737
a(S'never'
p9738
g24
F0.9978
tp9739
a(S'go'
p9740
g9
F0.9984
tp9741
a(S'out'
p9742
g45
F0.4771
tp9743
a(S'to'
p9744
g45
F0.9923
tp9745
a(S'dinner'
p9746
g40
F0.8605
tp9747
asI1003
(lp9748
(S'hey'
p9749
g3
F0.9955
tp9750
a(g19
g6
F0.9903
tp9751
a(S'xxx'
p9752
g9
F0.8569
tp9753
a(S'the'
p9754
g35
F0.999
tp9755
a(S'milk'
p9756
g40
F0.9962
tp9757
asI1004
(lp9758
(S'laughs'
p9759
g9
F0.9102
tp9760
asI1005
(lp9761
(S'laughs'
p9762
g9
F0.9102
tp9763
asI1006
(lp9764
(S'laughs'
p9765
g9
F0.9102
tp9766
asI1007
(lp9767
(S'www'
p9768
g133
F0.4885
tp9769
a(S'noises'
p9770
g40
F0.9429
tp9771
a(S'bro'
p9772
g40
F0.9749
tp9773
asI1008
(lp9774
(S'ow'
p9775
g3
F0.7833
tp9776
a(S'my'
p9777
g35
F0.9947
tp9778
a(S'leg'
p9779
g40
F0.9938
tp9780
a(S'my'
p9781
g35
F0.9973
tp9782
a(S'leg'
p9783
g40
F0.9961
tp9784
asI1009
(lp9785
(S'ouch'
p9786
g3
F0.9968
tp9787
asI1010
(lp9788
(S'www'
p9789
g133
F0.6828
tp9790
a(S'screams'
p9791
g40
F0.4466
tp9792
a(S'and'
p9793
g165
F0.9961
tp9794
a(S'laughs'
p9795
g9
F0.9546
tp9796
asI1011
(lp9797
(S'you'
p9798
g6
F0.9646
tp9799
a(S'alright'
p9800
g3
F0.7566
tp9801
asI1012
(lp9802
(S'www'
p9803
g133
F0.6828
tp9804
a(S'screams'
p9805
g40
F0.4466
tp9806
a(S'and'
p9807
g165
F0.9961
tp9808
a(S'laughs'
p9809
g9
F0.9546
tp9810
asI1013
(lp9811
(S'xxx'
p9812
g68
F0.5741
tp9813
a(S'your'
p9814
g35
F0.9614
tp9815
a(S'feet'
p9816
g40
F0.9996
tp9817
a(S'under'
p9818
g45
F0.9996
tp9819
a(S'it'
p9820
g6
F0.9973
tp9821
asI1014
(lp9822
(S'www'
p9823
g133
F0.5889
tp9824
a(S'screams'
p9825
g9
F0.4813
tp9826
asI1015
(lp9827
(S'what'
p9828
g6
F0.9931
tp9829
a(S'do'
p9830
g9
F0.9993
tp9831
a(S'you'
p9832
g6
F0.9997
tp9833
a(S'want'
p9834
g9
F1.0
tp9835
a(S'me'
p9836
g6
F0.9984
tp9837
a(S'to'
p9838
g45
F0.9352
tp9839
a(S'do'
p9840
g9
F0.9993
tp9841
asI1016
(lp9842
(S'www'
p9843
g133
F0.5889
tp9844
a(S'screams'
p9845
g9
F0.4813
tp9846
asI1017
(lp9847
(S'what'
p9848
g6
F0.9931
tp9849
a(S'do'
p9850
g9
F0.9993
tp9851
a(S'you'
p9852
g6
F0.9996
tp9853
a(S'wanna'
p9854
g9
F0.9982
tp9855
a(S'do'
p9856
g9
F0.9991
tp9857
asI1018
(lp9858
(S'no'
p9859
g35
F0.4713
tp9860
a(S'come'
p9861
g9
F0.5916
tp9862
a(S'on'
p9863
g45
F0.904
tp9864
a(S'don'
p9865
g133
F0.6779
tp9866
a(g81
g133
F0.5051
tp9867
a(S'scream'
p9868
g9
F0.9817
tp9869
a(S'on'
p9870
g45
F0.751
tp9871
asI1019
(lp9872
(S'ow'
p9873
g3
F0.9487
tp9874
a(S'ow'
p9875
g3
F0.9819
tp9876
asI1020
(lp9877
(S'get'
p9878
g9
F0.9967
tp9879
a(S'this'
p9880
g6
F0.7439
tp9881
asI1021
(lp9882
(S'get'
p9883
g9
F0.9987
tp9884
a(S'your'
p9885
g35
F0.9968
tp9886
a(S'legs'
p9887
g40
F0.9981
tp9888
a(S'out'
p9889
g45
F0.9844
tp9890
a(S'of'
p9891
g45
F0.9846
tp9892
a(S'there'
p9893
g384
F0.4144
tp9894
asI1022
(lp9895
(S'get'
p9896
g9
F0.9987
tp9897
a(S'your'
p9898
g35
F0.9968
tp9899
a(S'legs'
p9900
g40
F0.9981
tp9901
a(S'out'
p9902
g45
F0.7609
tp9903
a(S'from'
p9904
g45
F0.9877
tp9905
a(S'under'
p9906
g45
F0.9943
tp9907
a(S'the'
p9908
g35
F0.9993
tp9909
a(S'table'
p9910
g40
F0.9932
tp9911
a(S'there'
p9912
g24
F0.8421
tp9913
asI1023
(lp9914
(S'here'
p9915
g24
F0.7796
tp9916
asI1024
(lp9917
(g137
g35
F0.972
tp9918
a(g6724
g40
F0.6826
tp9919
a(S'www'
p9920
g40
F0.3216
tp9921
a(S'titters'
p9922
g40
F0.9988
tp9923
asI1025
(lp9924
(S'are'
p9925
g9
F0.9964
tp9926
a(S'you'
p9927
g6
F0.9961
tp9928
a(S'all'
p9929
g35
F0.9278
tp9930
a(S'done'
p9931
g9
F0.4138
tp9932
a(S'chi'
p9933
g133
F0.4753
tp9934
asI1026
(lp9935
(S'xxx'
p9936
g68
F0.7422
tp9937
a(S'okay'
p9938
g12
F0.6617
tp9939
a(S'bro'
p9940
g40
F0.9927
tp9941
asI1027
(lp9942
(S'you'
p9943
g6
F0.9875
tp9944
a(S'blow'
p9945
g9
F0.8999
tp9946
a(S'one'
p9947
g102
F0.9152
tp9948
a(S'out'
p9949
g45
F0.6808
tp9950
a(g19
g6
F0.9903
tp9951
a(S'blow'
p9952
g9
F0.9753
tp9953
a(S'one'
p9954
g102
F0.9353
tp9955
a(S'out'
p9956
g45
F0.5614
tp9957
asI1028
(lp9958
(S'okay'
p9959
g3
F0.9857
tp9960
asI1029
(lp9961
(S'on'
p9962
g45
F0.9725
tp9963
a(S'one'
p9964
g102
F0.6962
tp9965
asI1030
(lp9966
(S'one'
p9967
g102
F0.7703
tp9968
asI1031
(lp9969
(S'two'
p9970
g102
F0.9238
tp9971
asI1032
(lp9972
(S'wait'
p9973
g9
F0.9897
tp9974
a(g137
g35
F0.994
tp9975
a(S'minute'
p9976
g40
F0.9741
tp9977
asI1033
(lp9978
(S'two'
p9979
g102
F0.9238
tp9980
asI1034
(lp9981
(S'three'
p9982
g102
F0.8849
tp9983
asI1035
(lp9984
(S'wait'
p9985
g9
F0.9897
tp9986
a(g137
g35
F0.994
tp9987
a(S'minute'
p9988
g40
F0.9741
tp9989
asI1036
(lp9990
(S'uh'
p9991
g3
F0.9878
tp9992
a(S'uh'
p9993
g3
F0.9932
tp9994
a(S'uh'
p9995
g3
F0.992
tp9996
asI1037
(lp9997
(S'sing'
p9998
g9
F0.9884
tp9999
a(S'happy'
p10000
g12
F0.9983
tp10001
a(S'birthday'
p10002
g40
F0.9984
tp10003
a(S'to'
p10004
g45
F0.9985
tp10005
a(S'icicle'
p10006
g40
F0.6052
tp10007
asI1038
(lp10008
(S'oh'
p10009
g3
F0.9987
tp10010
a(S'yeah'
p10011
g3
F0.9997
tp10012
asI1039
(lp10013
(S'oh'
p10014
g3
F0.9987
tp10015
a(S'yeah'
p10016
g3
F0.9997
tp10017
asI1040
(lp10018
(S'happy'
p10019
g12
F0.9933
tp10020
a(S'birthday'
p10021
g40
F0.9957
tp10022
a(S'to'
p10023
g45
F0.9936
tp10024
asI1041
(lp10025
(S'happy'
p10026
g12
F0.99
tp10027
a(S'birth'
p10028
g40
F0.9924
tp10029
asI1042
(lp10030
(S'xxx'
p10031
g68
F0.5609
tp10032
a(S'to'
p10033
g45
F0.9964
tp10034
a(S'her'
p10035
g35
F0.9399
tp10036
a(S'name'
p10037
g40
F0.9997
tp10038
asI1043
(lp10039
(S'it'
p10040
g6
F0.9888
tp10041
a(g73
g9
F0.8614
tp10042
a(S'her'
p10043
g35
F0.9451
tp10044
a(S'birthday'
p10045
g40
F0.9995
tp10046
asI1044
(lp10047
(S'it'
p10048
g6
F0.9888
tp10049
a(g73
g9
F0.5138
tp10050
a(S'just'
p10051
g24
F0.9987
tp10052
a(g137
g35
F0.9916
tp10053
a(S'year'
p10054
g40
F0.9801
tp10055
a(S'that'
p10056
g45
F0.9795
tp10057
a(S'we'
p10058
g6
F0.9988
tp10059
a(S'got'
p10060
g9
F0.9999
tp10061
a(S'her'
p10062
g6
F0.7243
tp10063
asI1045
(lp10064
(S'happy'
p10065
g12
F0.9426
tp10066
a(S'ye'
p10067
g6
F0.8334
tp10068
a(S'ar'
p10069
g74
F0.4428
tp10070
a(S'xxx'
p10071
g68
F0.5521
tp10072
asI1046
(lp10073
(S'that'
p10074
g45
F0.7472
tp10075
a(S'we'
p10076
g6
F0.9991
tp10077
a(S'got'
p10078
g9
F0.9999
tp10079
a(S'her'
p10080
g6
F0.6872
tp10081
asI1047
(lp10082
(S'happy'
p10083
g12
F0.9426
tp10084
a(S'ye'
p10085
g6
F0.8196
tp10086
a(S'ar'
p10087
g9
F0.5192
tp10088
a(S'that'
p10089
g45
F0.7462
tp10090
a(S'we'
p10091
g6
F0.9987
tp10092
a(S'got'
p10093
g9
F0.9999
tp10094
a(S'her'
p10095
g6
F0.6488
tp10096
asI1048
(lp10097
(S'happy'
p10098
g12
F0.982
tp10099
a(g977
g24
F0.4439
tp10100
a(S'ear'
p10101
g40
F0.9547
tp10102
a(S'that'
p10103
g45
F0.9911
tp10104
a(S'we'
p10105
g6
F0.9989
tp10106
a(S'got'
p10107
g9
F0.9999
tp10108
a(S'her'
p10109
g6
F0.715
tp10110
a(S'laughing'
p10111
g9
F0.9524
tp10112
a(S'bro'
p10113
g40
F0.9617
tp10114
asI1049
(lp10115
(S'happy'
p10116
g12
F0.9976
tp10117
a(S'year'
p10118
g40
F0.9442
tp10119
a(S'that'
p10120
g45
F0.9727
tp10121
a(S'we'
p10122
g6
F0.9987
tp10123
a(S'got'
p10124
g9
F0.9999
tp10125
a(S'her'
p10126
g6
F0.9043
tp10127
a(S'to'
p10128
g45
F0.9898
tp10129
a(S'icicle'
p10130
g40
F0.7184
tp10131
asI1050
(lp10132
(S'and'
p10133
g165
F0.9976
tp10134
a(S'the'
p10135
g35
F0.9983
tp10136
a(S'fish'
p10137
g40
F0.9973
tp10138
asI1051
(lp10139
(S'and'
p10140
g165
F0.998
tp10141
a(S'one'
p10142
g102
F0.971
tp10143
a(S'of'
p10144
g45
F0.9988
tp10145
a(S'the'
p10146
g35
F0.9992
tp10147
a(S'fishies'
p10148
g40
F0.8038
tp10149
asI1052
(lp10150
(S'ies'
p10151
g74
F0.4299
tp10152
asI1053
(lp10153
(S'happy'
p10154
g12
F0.9949
tp10155
a(S'birthday'
p10156
g40
F0.9957
tp10157
a(S'to'
p10158
g45
F0.9995
tp10159
a(S'you'
p10160
g6
F0.9982
tp10161
asI1054
(lp10162
(S'birthday'
p10163
g40
F0.9906
tp10164
a(S'to'
p10165
g45
F0.9997
tp10166
a(S'you'
p10167
g6
F0.9985
tp10168
asI1055
(lp10169
(S'watch'
p10170
g9
F0.9852
tp10171
a(S'this'
p10172
g6
F0.6052
tp10173
asI1056
(lp10174
(S'make'
p10175
g9
F0.9812
tp10176
a(g137
g35
F0.9567
tp10177
a(S'wish'
p10178
g40
F0.8859
tp10179
asI1057
(lp10180
(S'blows'
p10181
g9
F0.5808
tp10182
asI1058
(lp10183
(S'oh'
p10184
g3
F0.9929
tp10185
a(S'magic'
p10186
g12
F0.7374
tp10187
asI1059
(lp10188
(S'you'
p10189
g6
F0.9963
tp10190
a(S'try'
p10191
g9
F0.9999
tp10192
a(S'it'
p10193
g6
F0.9102
tp10194
a(S'bro'
p10195
g40
F0.7378
tp10196
a(S'short'
p10197
g12
F0.9894
tp10198
a(S'form'
p10199
g40
F0.9836
tp10200
asI1060
(lp10201
(S'aw'
p10202
g3
F0.9922
tp10203
a(S'please'
p10204
g9
F0.8156
tp10205
asI1061
(lp10206
(S'uh'
p10207
g3
F0.9849
tp10208
a(g19
g6
F0.9946
tp10209
a(S'want'
p10210
g9
F0.9999
tp10211
a(S'to'
p10212
g45
F0.9942
tp10213
a(S'try'
p10214
g9
F0.9993
tp10215
a(S'mine'
p10216
g6
F0.9705
tp10217
asI1062
(lp10218
(S'look'
p10219
g9
F0.88
tp10220
a(S'at'
p10221
g45
F0.9992
tp10222
a(S'this'
p10223
g6
F0.5704
tp10224
asI1063
(lp10225
(S'hey'
p10226
g3
F0.9882
tp10227
a(S'smoky'
p10228
g12
F0.9408
tp10229
a(S'here'
p10230
g24
F0.8687
tp10231
asI1064
(lp10232
(S'blows'
p10233
g9
F0.5808
tp10234
asI1065
(lp10235
(g19
g6
F0.953
tp10236
a(g168
g9
F0.9629
tp10237
a(S'gonna'
p10238
g9
F0.9929
tp10239
a(S'try'
p10240
g9
F0.9982
tp10241
a(S'mine'
p10242
g6
F0.9756
tp10243
asI1066
(lp10244
(S'look'
p10245
g9
F0.8183
tp10246
asI1067
(lp10247
(g19
g6
F0.9583
tp10248
a(g19
g6
F0.971
tp10249
a(S'can'
p10250
g9
F0.9999
tp10251
a(S'blow'
p10252
g9
F0.8259
tp10253
a(S'far'
p10254
g24
F0.966
tp10255
a(S'www'
p10256
g45
F0.3372
tp10257
a(S'blows'
p10258
g40
F0.6186
tp10259
asI1068
(lp10260
(S'icicle'
p10261
g40
F0.9179
tp10262
asI1069
(lp10263
(S'oh'
p10264
g3
F0.9988
tp10265
asI1070
(lp10266
(S'happy'
p10267
g12
F0.9949
tp10268
a(S'birthday'
p10269
g40
F0.9957
tp10270
a(S'to'
p10271
g45
F0.9977
tp10272
a(S'ice'
p10273
g40
F0.7205
tp10274
asI1071
(lp10275
(S'to'
p10276
g45
F0.9962
tp10277
a(S'you'
p10278
g6
F0.9982
tp10279
asI1072
(lp10280
(S'oh'
p10281
g3
F0.9988
tp10282
asI1073
(lp10283
(S'happy'
p10284
g12
F0.9949
tp10285
a(S'birthday'
p10286
g40
F0.9957
tp10287
a(S'to'
p10288
g45
F0.9992
tp10289
a(S'me'
p10290
g6
F0.9984
tp10291
asI1074
(lp10292
(S'happy'
p10293
g12
F0.9949
tp10294
a(S'birthday'
p10295
g40
F0.9957
tp10296
a(S'to'
p10297
g45
F0.9995
tp10298
a(S'you'
p10299
g6
F0.9982
tp10300
asI1075
(lp10301
(S'happy'
p10302
g12
F0.9949
tp10303
a(S'birthday'
p10304
g40
F0.9957
tp10305
a(S'to'
p10306
g45
F0.9992
tp10307
a(S'me'
p10308
g6
F0.9984
tp10309
asI1076
(lp10310
(S'happy'
p10311
g12
F0.9949
tp10312
a(S'birthday'
p10313
g40
F0.9957
tp10314
a(S'to'
p10315
g45
F0.9995
tp10316
a(S'you'
p10317
g6
F0.9982
tp10318
asI1077
(lp10319
(S'happy'
p10320
g12
F0.9949
tp10321
a(S'birthday'
p10322
g40
F0.9917
tp10323
a(S'dear'
p10324
g40
F0.8182
tp10325
a(S'bro'
p10326
g40
F0.9826
tp10327
asI1078
(lp10328
(S'dear'
p10329
g40
F0.358
tp10330
a(S'bro'
p10331
g40
F0.9664
tp10332
asI1079
(lp10333
(S'which'
p10334
g6
F0.6621
tp10335
a(S'is'
p10336
g9
F0.9986
tp10337
a(S'not'
p10338
g24
F0.9932
tp10339
asI1080
(lp10340
(S'happy'
p10341
g12
F0.9949
tp10342
a(S'birthday'
p10343
g40
F0.9957
tp10344
a(S'to'
p10345
g45
F0.9995
tp10346
a(S'you'
p10347
g6
F0.9982
tp10348
asI1081
(lp10349
(S'not'
p10350
g24
F0.9912
tp10351
a(S'not'
p10352
g24
F0.9954
tp10353
asI1082
(lp10354
(S'go'
p10355
g9
F0.9523
tp10356
a(S'go'
p10357
g9
F0.9252
tp10358
a(S'go'
p10359
g9
F0.9249
tp10360
a(S'go'
p10361
g9
F0.8575
tp10362
a(S'go'
p10363
g9
F0.936
tp10364
asI1083
(lp10365
(S'it'
p10366
g6
F0.9888
tp10367
a(g73
g9
F0.6717
tp10368
a(S'comin'
p10369
g9
F0.9878
tp10370
a(g116
g9
F0.6924
tp10371
a(S'up'
p10372
g199
F0.9316
tp10373
a(S'though'
p10374
g45
F0.8091
tp10375
asI1084
(lp10376
(S'next'
p10377
g12
F0.9166
tp10378
a(S'month'
p10379
g40
F0.9968
tp10380
asI1085
(lp10381
(S'great'
p10382
g12
F0.9426
tp10383
asI1086
(lp10384
(S'coughs'
p10385
g40
F0.5349
tp10386
asI1087
(lp10387
(S'glenda'
p10388
g133
F0.9861
tp10389
a(g73
g74
F0.3275
tp10390
a(S'birthday'
p10391
g40
F0.9925
tp10392
a(S'is'
p10393
g9
F0.9874
tp10394
a(S'coming'
p10395
g9
F0.9982
tp10396
a(S'up'
p10397
g199
F0.9878
tp10398
asI1088
(lp10399
(g977
g24
F0.3807
tp10400
a(g977
g24
F0.4331
tp10401
a(g977
g24
F0.773
tp10402
a(S'you'
p10403
g6
F0.9997
tp10404
a(S'do'
p10405
g9
F0.999
tp10406
a(g19
g6
F0.9677
tp10407
a(S'you'
p10408
g6
F0.9987
tp10409
a(S'want'
p10410
g9
F1.0
tp10411
a(S'me'
p10412
g6
F0.9984
tp10413
a(S'to'
p10414
g45
F0.9443
tp10415
a(S'do'
p10416
g9
F1.0
tp10417
a(S'it'
p10418
g6
F0.9906
tp10419
asI1089
(lp10420
(S'nuhhuh'
p10421
g3
F0.533
tp10422
asI1090
(lp10423
(g2876
g102
F0.9638
tp10424
asI1091
(lp10425
(S'ow'
p10426
g3
F0.9682
tp10427
asI1092
(lp10428
(S'chuckles'
p10429
g9
F0.8006
tp10430
asI1093
(lp10431
(S'don'
p10432
g133
F0.5427
tp10433
a(g81
g133
F0.549
tp10434
a(S'touch'
p10435
g9
F0.8542
tp10436
a(S'the'
p10437
g35
F0.9992
tp10438
a(S'candle'
p10439
g40
F0.9343
tp10440
asI1094
(lp10441
(S'just'
p10442
g24
F0.9984
tp10443
a(S'blow'
p10444
g9
F0.9698
tp10445
a(S'it'
p10446
g6
F0.9805
tp10447
asI1095
(lp10448
(S'okay'
p10449
g3
F0.9857
tp10450
asI1096
(lp10451
(S'or'
p10452
g165
F0.9924
tp10453
a(S'you'
p10454
g6
F0.9993
tp10455
a(S'can'
p10456
g9
F0.9998
tp10457
a(S'use'
p10458
g9
F0.9938
tp10459
a(S'this'
p10460
g6
F0.6629
tp10461
asI1097
(lp10462
(S'yeah'
p10463
g3
F0.9988
tp10464
asI1098
(lp10465
(S'no'
p10466
g3
F0.9253
tp10467
asI1099
(lp10468
(S'use'
p10469
g9
F0.8785
tp10470
a(S'the'
p10471
g35
F0.9961
tp10472
a(S'snuffer'
p10473
g40
F0.9627
tp10474
asI1100
(lp10475
(g19
g6
F0.9897
tp10476
a(S'want'
p10477
g9
F0.9999
tp10478
a(S'to'
p10479
g45
F0.9539
tp10480
a(S'do'
p10481
g9
F1.0
tp10482
a(S'it'
p10483
g6
F0.9919
tp10484
asI1101
(lp10485
(S'uhuh'
p10486
g3
F0.9919
tp10487
asI1102
(lp10488
(S'snuff'
p10489
g40
F0.4479
tp10490
asI1103
(lp10491
(g19
g6
F0.9708
tp10492
a(S'like'
p10493
g9
F0.6732
tp10494
a(S'the'
p10495
g35
F0.9912
tp10496
a(S'snuffer'
p10497
g40
F0.9219
tp10498
a(S'but'
p10499
g165
F0.9842
tp10500
a(S'well'
p10501
g24
F0.7651
tp10502
asI1104
(lp10503
(S'normally'
p10504
g24
F0.9914
tp10505
a(g19
g6
F0.9344
tp10506
a(S'like'
p10507
g9
F0.7277
tp10508
a(S'the'
p10509
g35
F0.9925
tp10510
a(S'snuffer'
p10511
g40
F0.8909
tp10512
a(S'better'
p10513
g24
F0.578
tp10514
a(S'because'
p10515
g45
F0.9983
tp10516
a(S'it'
p10517
g6
F0.9984
tp10518
a(g73
g9
F0.5757
tp10519
a(S'not'
p10520
g24
F0.9973
tp10521
a(S'as'
p10522
g45
F0.6984
tp10523
asI1105
(lp10524
(S'ah'
p10525
g3
F0.996
tp10526
asI1106
(lp10527
(S'on'
p10528
g45
F0.9708
tp10529
a(S'fire'
p10530
g40
F0.8036
tp10531
asI1107
(lp10532
(S'there'
p10533
g384
F0.4664
tp10534
a(g73
g74
F0.6672
tp10535
a(S'not'
p10536
g24
F0.9943
tp10537
a(S'as'
p10538
g24
F0.9328
tp10539
a(S'much'
p10540
g12
F0.7764
tp10541
a(S'smoke'
p10542
g40
F0.8195
tp10543
a(S'chuckles'
p10544
g9
F0.6432
tp10545
asI1108
(lp10546
(S'yuck'
p10547
g3
F0.9977
tp10548
asI1109
(lp10549
(S'oh'
p10550
g3
F0.9953
tp10551
a(S'bro'
p10552
g40
F0.5226
tp10553
asI1110
(lp10554
(S'don'
p10555
g133
F0.5427
tp10556
a(g81
g133
F0.3881
tp10557
a(S'get'
p10558
g9
F0.998
tp10559
a(S'the'
p10560
g35
F0.9993
tp10561
a(S'wax'
p10562
g40
F0.996
tp10563
a(S'everywhere'
p10564
g24
F0.9984
tp10565
a(S'now'
p10566
g24
F0.9961
tp10567
asI1111
(lp10568
(g2876
g102
F0.9875
tp10569
a(S'feigned'
p10570
g12
F0.939
tp10571
a(S'choking'
p10572
g9
F0.9139
tp10573
asI1112
(lp10574
(S'alright'
p10575
g3
F0.8691
tp10576
a(S'put'
p10577
g9
F0.9892
tp10578
a(S'it'
p10579
g6
F0.9866
tp10580
a(S'down'
p10581
g199
F0.828
tp10582
asI1113
(lp10583
(S'passin'
p10584
g9
F0.5015
tp10585
a(g116
g9
F0.5306
tp10586
a(S'out'
p10587
g199
F0.9408
tp10588
asI1114
(lp10589
(S'if'
p10590
g45
F0.9977
tp10591
a(S'you'
p10592
g6
F0.9982
tp10593
a(S're'
p10594
g9
F0.7906
tp10595
a(S'done'
p10596
g9
F0.9624
tp10597
a(S'bring'
p10598
g9
F0.9992
tp10599
a(S'your'
p10600
g35
F0.9958
tp10601
a(S'plate'
p10602
g40
F0.9991
tp10603
a(S'out'
p10604
g45
F0.86
tp10605
a(S'please'
p10606
g9
F0.9152
tp10607
asI1115
(lp10608
(g19
g6
F0.9835
tp10609
a(S'always'
p10610
g24
F0.9864
tp10611
a(S'put'
p10612
g9
F0.9955
tp10613
a(S'this'
p10614
g35
F0.9739
tp10615
a(S'fire'
p10616
g40
F0.9411
tp10617
a(S'out'
p10618
g45
F0.8649
tp10619
a(S'please'
p10620
g9
F0.9069
tp10621
asI1116
(lp10622
(S'can'
p10623
g9
F0.9755
tp10624
a(g19
g6
F0.9849
tp10625
a(S'just'
p10626
g24
F0.9974
tp10627
a(S'no'
p10628
g35
F0.3851
tp10629
asI1117
(lp10630
(S'can'
p10631
g9
F0.9755
tp10632
a(g19
g6
F0.979
tp10633
a(S'be'
p10634
g9
F0.9998
tp10635
a(S'excused'
p10636
g9
F0.8138
tp10637
asI1118
(lp10638
(S'xxx'
p10639
g68
F0.8437
tp10640
asI1119
(lp10641
(S'well'
p10642
g3
F0.8573
tp10643
a(g19
g6
F0.9974
tp10644
a(S'told'
p10645
g9
F1.0
tp10646
a(S'him'
p10647
g6
F0.993
tp10648
a(S'to'
p10649
g45
F0.9949
tp10650
a(S'take'
p10651
g9
F0.9997
tp10652
a(g137
g35
F0.9974
tp10653
a(S'shower'
p10654
g40
F0.9947
tp10655
a(S'and'
p10656
g165
F0.9965
tp10657
a(S'he'
p10658
g6
F0.995
tp10659
a(S'just'
p10660
g24
F0.9999
tp10661
a(S'totally'
p10662
g24
F0.9964
tp10663
a(S'blew'
p10664
g9
F0.9947
tp10665
a(S'that'
p10666
g35
F0.8137
tp10667
a(S'idea'
p10668
g40
F0.9718
tp10669
a(S'off'
p10670
g45
F0.8458
tp10671
a(S'laughing'
p10672
g9
F0.9446
tp10673
asI1120
(lp10674
(S'no'
p10675
g3
F0.9253
tp10676
asI1121
(lp10677
(S'no'
p10678
g3
F0.7822
tp10679
a(S'no'
p10680
g3
F0.5387
tp10681
a(S'no'
p10682
g3
F0.7065
tp10683
asI1122
(lp10684
(g19
g6
F0.9912
tp10685
a(S'know'
p10686
g9
F0.9989
tp10687
asI1123
(lp10688
(g19
g6
F0.9586
tp10689
a(g168
g9
F0.9153
tp10690
a(S'xxx'
p10691
g68
F0.6357
tp10692
asI1124
(lp10693
(S'xxx'
p10694
g68
F0.6919
tp10695
a(S'go'
p10696
g9
F0.9782
tp10697
a(S'play'
p10698
g9
F0.9082
tp10699
a(S'contra'
p10700
g133
F0.5885
tp10701
a(S'because'
p10702
g45
F0.9983
tp10703
a(S'me'
p10704
g6
F0.9994
tp10705
a(S'and'
p10706
g165
F0.9935
tp10707
a(S'dad'
p10708
g40
F0.9741
tp10709
a(S'are'
p10710
g9
F0.9746
tp10711
a(S'gonna'
p10712
g9
F0.9913
tp10713
a(S'play'
p10714
g9
F0.9943
tp10715
asI1125
(lp10716
(S'xxx'
p10717
g68
F0.8437
tp10718
asI1126
(lp10719
(S'cut'
p10720
g9
F0.6978
tp10721
a(S'the'
p10722
g35
F0.9991
tp10723
a(S'trees'
p10724
g40
F0.9977
tp10725
asI1127
(lp10726
(S'bro'
p10727
g40
F0.8038
tp10728
a(S'quick'
p10729
g12
F0.7485
tp10730
a(S'go'
p10731
g9
F0.5999
tp10732
a(S'play'
p10733
g9
F0.9012
tp10734
a(S'contra'
p10735
g133
F0.6492
tp10736
a(S'and'
p10737
g165
F0.9986
tp10738
a(S'then'
p10739
g24
F0.9765
tp10740
a(S'me'
p10741
g6
F0.9987
tp10742
a(S'and'
p10743
g165
F0.9935
tp10744
a(S'dad'
p10745
g40
F0.9741
tp10746
a(S'are'
p10747
g9
F0.9758
tp10748
a(S'gonna'
p10749
g9
F0.9898
tp10750
a(S'play'
p10751
g9
F0.9973
tp10752
a(S'hockey'
p10753
g40
F0.9569
tp10754
asI1128
(lp10755
(S'can'
p10756
g9
F0.999
tp10757
a(S'you'
p10758
g6
F0.9987
tp10759
a(S'play'
p10760
g9
F0.9987
tp10761
a(S'with'
p10762
g45
F0.9986
tp10763
a(S'him'
p10764
g6
F0.9843
tp10765
asI1129
(lp10766
(S'no'
p10767
g3
F0.8769
tp10768
a(S'you'
p10769
g6
F0.9827
tp10770
asI1130
(lp10771
(S'no'
p10772
g3
F0.9253
tp10773
asI1131
(lp10774
(S'play'
p10775
g9
F0.9654
tp10776
a(S'with'
p10777
g45
F0.9982
tp10778
a(S'him'
p10779
g6
F0.9688
tp10780
a(S'chi'
p10781
g74
F0.4862
tp10782
asI1132
(lp10783
(S'come'
p10784
g9
F0.9849
tp10785
a(S'on'
p10786
g199
F0.5632
tp10787
asI1133
(lp10788
(S'thank'
p10789
g9
F0.9631
tp10790
a(S'you'
p10791
g6
F0.9987
tp10792
asI1134
(lp10793
(g19
g6
F0.9793
tp10794
a(S'll'
p10795
g9
F0.7859
tp10796
a(S'be'
p10797
g9
F0.9932
tp10798
a(S'xxx'
p10799
g68
F0.7476
tp10800
asI1135
(lp10801
(g19
g6
F0.9912
tp10802
a(S'hate'
p10803
g9
F0.9994
tp10804
a(S'xxx'
p10805
g68
F0.727
tp10806
asI1136
(lp10807
(g19
g6
F0.9793
tp10808
a(S'll'
p10809
g9
F0.7859
tp10810
a(S'be'
p10811
g9
F0.9932
tp10812
a(S'xxx'
p10813
g68
F0.7476
tp10814
asI1137
(lp10815
(S'okay'
p10816
g3
F0.9857
tp10817
asI1138
(lp10818
(S'xxx'
p10819
g68
F0.704
tp10820
a(S'they'
p10821
g6
F0.9877
tp10822
a(S'll'
p10823
g9
F0.6003
tp10824
a(S'play'
p10825
g9
F0.9966
tp10826
a(g137
g35
F0.9986
tp10827
a(S'game'
p10828
g40
F0.998
tp10829
asI1139
(lp10830
(S'and'
p10831
g165
F0.9989
tp10832
a(S'you'
p10833
g6
F0.9994
tp10834
a(S'can'
p10835
g9
F0.9997
tp10836
a(S'put'
p10837
g9
F0.998
tp10838
a(S'this'
p10839
g6
F0.7499
tp10840
a(S'away'
p10841
g24
F0.9094
tp10842
asI1140
(lp10843
(S'and'
p10844
g165
F0.9985
tp10845
a(S'make'
p10846
g9
F0.9974
tp10847
a(S'your'
p10848
g35
F0.9918
tp10849
a(S'lunch'
p10850
g40
F0.9925
tp10851
a(S'okay'
p10852
g3
F0.8948
tp10853
as.