(dp0
I0
(lp1
(S'okay'
p2
S'!'
p3
F0.9857
tp4
asI1
(lp5
(S'it'
p6
S'O'
p7
F0.9192
tp8
a(S'tape'
p9
S'N'
p10
F0.848
tp11
a(S'recorder'
p12
g10
F0.9959
tp13
a(S'should'
p14
S'V'
p15
F0.9944
tp16
a(S'be'
p17
g15
F0.9989
tp18
a(S'fine'
p19
S'A'
p20
F0.9499
tp21
asI2
(lp22
(S'is'
p23
g15
F0.9993
tp24
a(S'it'
p25
g7
F0.9646
tp26
a(S'tape'
p27
g10
F0.9072
tp28
a(S'recorder'
p29
g10
F0.9964
tp30
a(S'on'
p31
S'P'
p32
F0.9676
tp33
asI3
(lp34
(S'yeah'
p35
g3
F0.9968
tp36
a(S'i'
p37
g7
F0.9953
tp38
a(S'think'
p39
g15
F1.0
tp40
a(S'it'
p41
g7
F0.993
tp42
a(S's'
p43
g15
F0.7993
tp44
a(S'on'
p45
g32
F0.7554
tp46
asI4
(lp47
(S'hi'
p48
g3
F0.9811
tp49
a(S'um'
p50
g3
F0.9672
tp51
a(S'we'
p52
g7
F0.9897
tp53
a(S're'
p54
g15
F0.7427
tp55
a(S'havin'
p56
g15
F0.8284
tp57
a(S'g'
p58
g10
F0.3886
tp59
a(S'breakfast'
p60
g10
F0.9552
tp61
asI5
(lp62
(S'good'
p63
g20
F0.995
tp64
a(S'morning'
p65
g10
F0.9966
tp66
a(S'everybody'
p67
g10
F0.9926
tp68
asI6
(lp69
(S'we'
p70
g7
F0.9969
tp71
a(S'can'
p72
g15
F0.9994
tp73
a(S't'
p74
g15
F0.7034
tp75
a(S'get'
p76
g15
F0.9984
tp77
a(S'around'
p78
g32
F0.5406
tp79
a(S'to'
p80
g32
F0.9946
tp81
a(S'a'
p82
S'D'
p83
F0.9948
tp84
a(S'dinner'
p85
g10
F0.9739
tp86
a(S'tape'
p87
g10
F0.9974
tp88
asI7
(lp89
(S'it'
p90
g7
F0.996
tp91
a(S'has'
p92
g15
F0.9993
tp93
a(S'taken'
p94
g15
F0.9997
tp95
a(S'us'
p96
g7
F0.8436
tp97
a(S'eight'
p98
S'$'
p99
F0.8824
tp100
a(S'months'
p101
g10
F0.9797
tp102
a(S'just'
p103
S'R'
p104
F0.9995
tp105
a(S'to'
p106
g32
F0.9944
tp107
a(S'try'
p108
g15
F0.9983
tp109
a(S'to'
p110
g32
F0.9928
tp111
a(S'make'
p112
g15
F0.9994
tp113
a(g82
g83
F0.9959
tp114
a(S'breakfast'
p115
g10
F0.9657
tp116
a(S'tape'
p117
g10
F0.9942
tp118
a(S'laughs'
p119
g15
F0.8981
tp120
asI8
(lp121
(S'laughs'
p122
g15
F0.9102
tp123
asI9
(lp124
(S'sorry'
p125
g3
F0.541
tp126
asI10
(lp127
(S'laughs'
p128
g15
F0.9102
tp129
asI11
(lp130
(S'okay'
p131
g3
F0.9857
tp132
asI12
(lp133
(S'so'
p134
g32
F0.7418
tp135
a(S'what'
p136
g7
F0.9955
tp137
a(S'are'
p138
g15
F0.9982
tp139
a(S'you'
p140
g7
F0.9992
tp141
a(S'doing'
p142
g15
F0.9998
tp143
a(S'at'
p144
g32
F0.9976
tp145
a(S'school'
p146
g10
F0.9916
tp147
a(S'today'
p148
g10
F0.996
tp149
asI13
(lp150
(S'do'
p151
g15
F0.9985
tp152
a(S'you'
p153
g7
F0.9997
tp154
a(S'have'
p155
g15
F0.9975
tp156
a(S'gym'
p157
g10
F0.9535
tp158
asI14
(lp159
(S'no'
p160
g3
F0.9253
tp161
asI15
(lp162
(S'we'
p163
g7
F0.9973
tp164
a(S'have'
p165
g15
F0.9996
tp166
a(S'um'
p167
g3
F0.6643
tp168
a(S'r'
p169
g10
F0.3977
tp170
a(g37
g7
F0.8531
tp171
a(S'f'
p172
g15
F0.6087
tp173
asI16
(lp174
(S'we'
p175
g7
F0.9973
tp176
a(S'have'
p177
g15
F0.9996
tp178
a(S'um'
p179
g3
F0.4611
tp180
a(S'reading'
p181
g15
F0.962
tp182
a(S'is'
p183
g15
F0.9722
tp184
a(S'fun'
p185
g20
F0.752
tp186
a(S'where'
p187
g104
F0.9899
tp188
a(S'you'
p189
g7
F0.9991
tp190
a(S'get'
p191
g15
F0.9998
tp192
a(S'to'
p193
g32
F0.9862
tp194
a(S'have'
p195
g15
F0.9999
tp196
a(g82
g83
F0.9967
tp197
a(S'free'
p198
g20
F0.996
tp199
a(S'book'
p200
g10
F0.995
tp201
asI17
(lp202
(S'that'
p203
g7
F0.4727
tp204
a(g43
g15
F0.3913
tp205
a(S'great'
p206
g20
F0.9918
tp207
asI18
(lp208
(S'then'
p209
g104
F0.9476
tp210
a(S'we'
p211
g7
F0.9987
tp212
a(S'have'
p213
g15
F0.9968
tp214
a(S'literacy'
p215
g10
F0.9971
tp216
asI19
(lp217
(S'and'
p218
S'&'
p219
F0.9991
tp220
a(S'um'
p221
g3
F0.8866
tp222
asI20
(lp223
(S'how'
p224
g104
F0.9984
tp225
a(S'often'
p226
g104
F0.8861
tp227
a(S'does'
p228
g15
F0.998
tp229
a(g169
g15
F0.4791
tp230
a(g37
g7
F0.9744
tp231
a(g172
g15
F0.6881
tp232
a(S'come'
p233
g15
F0.987
tp234
asI21
(lp235
(g37
g7
F0.9635
tp236
a(S'don'
p237
g15
F0.9156
tp238
a(g74
g10
F0.3074
tp239
a(S'know'
p240
g15
F0.965
tp241
asI22
(lp242
(S'maybe'
p243
g104
F0.9877
tp244
a(S'like'
p245
g32
F0.7498
tp246
a(S'four'
p247
g99
F0.8218
tp248
a(S'times'
p249
g10
F0.9544
tp250
a(g82
g83
F0.987
tp251
a(S'year'
p252
g10
F0.9788
tp253
asI23
(lp254
(S'that'
p255
g7
F0.4727
tp256
a(g43
g15
F0.3913
tp257
a(S'great'
p258
g20
F0.9918
tp259
asI24
(lp260
(S'two'
p261
g99
F0.9868
tp262
a(S'in'
p263
g32
F0.9901
tp264
a(S'two'
p265
g99
F0.9727
tp266
a(S'in'
p267
g32
F0.9978
tp268
a(S'the'
p269
g83
F0.9985
tp270
a(S'beginning'
p271
g10
F0.8659
tp272
a(S'two'
p273
g99
F0.9627
tp274
a(S'in'
p275
g32
F0.9982
tp276
a(S'the'
p277
g83
F0.9987
tp278
a(S'end'
p279
g10
F0.9801
tp280
asI25
(lp281
(S'and'
p282
g219
F0.9989
tp283
a(S'you'
p284
g7
F0.9996
tp285
a(S'have'
p286
g15
F0.994
tp287
a(S'literacy'
p288
g10
F0.9971
tp289
asI26
(lp290
(S'um'
p291
g3
F0.9645
tp292
a(S'yep'
p293
g3
F0.9969
tp294
asI27
(lp295
(S'and'
p296
g219
F0.9981
tp297
asI28
(lp298
(S'let'
p299
g15
F0.8948
tp300
a(g43
S'G'
p301
F0.3976
tp302
a(S'see'
p303
g15
F0.9727
tp304
a(S'um'
p305
g3
F0.6683
tp306
a(S'we'
p307
g7
F0.9961
tp308
a(S'll'
p309
g15
F0.7881
tp310
a(S'do'
p311
g15
F0.9981
tp312
a(S'math'
p313
g10
F0.9695
tp314
a(S'of'
p315
g32
F0.9945
tp316
a(S'course'
p317
g10
F0.9649
tp318
asI29
(lp319
(S'what'
p320
g7
F0.9931
tp321
a(S'do'
p322
g15
F0.9991
tp323
a(S'you'
p324
g7
F0.9997
tp325
a(S'have'
p326
g15
F0.9967
tp327
asI30
(lp328
(S'oh'
p329
g3
F0.9978
tp330
a(S'that'
p331
g7
F0.6408
tp332
a(g43
g301
F0.4372
tp333
a(S'hot'
p334
g20
F0.9693
tp335
asI31
(lp336
(S'laughs'
p337
g15
F0.9102
tp338
asI32
(lp339
(S'oh'
p340
g3
F0.9975
tp341
a(S'yeah'
p342
g3
F0.9984
tp343
a(S'your'
p344
g83
F0.9149
tp345
a(S'tea'
p346
g10
F0.9864
tp347
a(g43
g301
F0.8276
tp348
a(S'hot'
p349
g20
F0.9669
tp350
asI33
(lp351
(S'hang'
p352
g15
F0.9752
tp353
a(S'on'
p354
S'T'
p355
F0.5423
tp356
asI34
(lp357
(S'do'
p358
g15
F0.9985
tp359
a(S'you'
p360
g7
F0.9996
tp361
a(S'want'
p362
g15
F0.9999
tp363
a(S'some'
p364
g83
F0.9414
tp365
a(S'more'
p366
g20
F0.9786
tp367
a(S'milk'
p368
g10
F0.9991
tp369
a(S'in'
p370
g32
F0.9985
tp371
a(S'it'
p372
g7
F0.9969
tp373
asI35
(lp374
(S'no'
p375
g3
F0.9253
tp376
asI36
(lp377
(S'it'
p378
g7
F0.9858
tp379
a(g43
g301
F0.5569
tp380
a(S'okay'
p381
g3
F0.8596
tp382
asI37
(lp383
(S'okay'
p384
g3
F0.9857
tp385
asI38
(lp386
(S'when'
p387
g104
F0.9804
tp388
a(S'you'
p389
g7
F0.9992
tp390
a(S'do'
p391
g15
F0.9999
tp392
a(S'your'
p393
g83
F0.9875
tp394
a(S'literacy'
p395
g10
F0.9964
tp396
a(S'class'
p397
g10
F0.9985
tp398
a(S'is'
p399
g15
F0.9984
tp400
a(S'that'
p401
g7
F0.9075
tp402
a(S'when'
p403
g104
F0.9845
tp404
a(S'you'
p405
g7
F0.9993
tp406
a(S'have'
p407
g15
F0.9999
tp408
a(S'your'
p409
g83
F0.963
tp410
a(S'reading'
p411
g10
F0.4898
tp412
a(S'buddies'
p413
g10
F0.9906
tp414
asI39
(lp415
(S'no'
p416
g3
F0.8958
tp417
a(S'um'
p418
g3
F0.9366
tp419
a(S'that'
p420
g7
F0.8754
tp421
a(S'comes'
p422
g15
F0.9959
tp423
a(S'friday'
p424
S'^'
p425
F0.8585
tp426
asI40
(lp427
(S'oh'
p428
g3
F0.9978
tp429
a(S'that'
p430
g7
F0.6408
tp431
a(g43
g301
F0.4371
tp432
a(S'different'
p433
g20
F0.9849
tp434
asI41
(lp435
(S'do'
p436
g15
F0.9985
tp437
a(S'you'
p438
g7
F0.9996
tp439
a(S'have'
p440
g15
F0.9995
tp441
a(S'reading'
p442
g15
F0.9603
tp443
a(S'buddies'
p444
g10
F0.8662
tp445
a(S'every'
p446
g83
F0.9484
tp447
a(S'week'
p448
g10
F0.9982
tp449
asI42
(lp450
(S'uh'
p451
g3
F0.987
tp452
a(S'yep'
p453
g3
F0.9984
tp454
asI43
(lp455
(S'that'
p456
g7
F0.473
tp457
a(g43
g301
F0.5192
tp458
a(S'um'
p459
g3
F0.721
tp460
a(S'like'
p461
g32
F0.6089
tp462
a(S'one'
p463
g99
F0.9627
tp464
a(S'week'
p465
g10
F0.9888
tp466
a(S'we'
p467
g7
F0.9787
tp468
a(S'read'
p469
g15
F0.9986
tp470
a(S'to'
p471
g32
F0.9895
tp472
a(S'them'
p473
g7
F0.7879
tp474
a(S'another'
p475
g83
F0.9965
tp476
a(S'week'
p477
g10
F0.9958
tp478
a(S'they'
p479
g7
F0.9662
tp480
a(S'read'
p481
g15
F0.9989
tp482
a(S'to'
p483
g32
F0.989
tp484
a(S'us'
p485
g7
F0.9719
tp486
asI44
(lp487
(S'oh'
p488
g3
F0.9983
tp489
a(g37
g7
F0.992
tp490
a(S'see'
p491
g15
F0.9984
tp492
asI45
(lp493
(S'what'
p494
g7
F0.9461
tp495
a(S'you'
p496
g7
F0.9996
tp497
a(S'want'
p498
g15
F0.9995
tp499
a(S'toby'
p500
g425
F0.8956
tp501
asI46
(lp502
(S'toby'
p503
g425
F0.977
tp504
a(g43
g301
F0.4426
tp505
a(S'lookin'
p506
g15
F0.8223
tp507
a(g58
g15
F0.4604
tp508
a(S'for'
p509
g32
F0.9994
tp510
a(S'our'
p511
g83
F0.9962
tp512
a(S'waffles'
p513
g10
F0.9984
tp514
a(S'too'
p515
g104
F0.9123
tp516
asI47
(lp517
(S'laughs'
p518
g15
F0.9102
tp519
asI48
(lp520
(S'under'
p521
g32
F0.9964
tp522
a(S'the'
p523
g83
F0.9992
tp524
a(S'table'
p525
g10
F0.9948
tp526
a(S'laughs'
p527
g15
F0.8977
tp528
asI49
(lp529
(S'um'
p530
g3
F0.8787
tp531
a(S'you'
p532
g7
F0.9987
tp533
a(S'have'
p534
g15
F0.9999
tp535
a(S'all'
p536
g83
F0.8557
tp537
a(S'your'
p538
g83
F0.9917
tp539
a(S'homework'
p540
g10
F0.9997
tp541
a(S'signed'
p542
g15
F0.9617
tp543
a(S'and'
p544
g219
F0.9974
tp545
a(S'everything'
p546
g10
F0.9788
tp547
a(S'for'
p548
g32
F0.9995
tp549
a(S'today'
p550
g10
F0.9793
tp551
a(S'right'
p552
g104
F0.4085
tp553
asI50
(lp554
(S'yeah'
p555
g3
F0.9988
tp556
asI51
(lp557
(S'okay'
p558
g3
F0.9857
tp559
asI52
(lp560
(S'make'
p561
g15
F0.9707
tp562
a(S'sure'
p563
g20
F0.9705
tp564
a(S'to'
p565
g32
F0.9982
tp566
a(S'give'
p567
g15
F0.9982
tp568
a(S'miss'
p569
g15
F0.8408
tp570
a(S'melia'
p571
g425
F0.802
tp572
a(S'back'
p573
g104
F0.4807
tp574
a(S'the'
p575
g83
F0.9991
tp576
a(S'book'
p577
g10
F0.9897
tp578
a(S'that'
p579
g32
F0.9905
tp580
a(S'you'
p581
g7
F0.9969
tp582
a(S're'
p583
g15
F0.6843
tp584
a(S'working'
p585
g15
F0.9961
tp586
a(S'on'
p587
g32
F0.7863
tp588
a(S'okay'
p589
g3
F0.6824
tp590
a(S'that'
p591
g32
F0.8109
tp592
a(S'we'
p593
g7
F0.9975
tp594
a(S've'
p595
g15
F0.7404
tp596
a(S'proof'
p597
g10
F0.8178
tp598
a(S'read'
p599
g15
F0.9707
tp600
a(S'last'
p601
g20
F0.9956
tp602
a(S'night'
p603
g10
F0.9948
tp604
asI53
(lp605
(g37
g7
F0.9586
tp606
a(S'm'
p607
g15
F0.9849
tp608
a(S'done'
p609
g15
F0.9405
tp610
asI54
(lp611
(S'actually'
p612
g104
F0.9969
tp613
a(g37
g7
F0.951
tp614
a(g607
g15
F0.988
tp615
a(S'done'
p616
g15
F0.9701
tp617
a(S'with'
p618
g32
F0.9983
tp619
a(S'it'
p620
g7
F0.9973
tp621
asI55
(lp622
(S'with'
p623
g32
F0.9982
tp624
a(S'your'
p625
g83
F0.9956
tp626
a(S'book'
p627
g10
F0.9972
tp628
asI56
(lp629
(S'yeah'
p630
g3
F0.9988
tp631
asI57
(lp632
(S'yeah'
p633
g3
F0.99
tp634
a(S'be'
p635
g15
F0.9754
tp636
a(S'cause'
p637
g32
F0.9178
tp638
a(S'you'
p639
g7
F0.996
tp640
a(S're'
p641
g15
F0.5665
tp642
a(S'gonna'
p643
g15
F0.9875
tp644
a(S'get'
p645
g15
F1.0
tp646
a(S'it'
p647
g7
F0.9981
tp648
a(S'published'
p649
g15
F0.9889
tp650
a(S'now'
p651
g104
F0.9988
tp652
a(S'right'
p653
g104
F0.5786
tp654
asI58
(lp655
(S'yeah'
p656
g3
F0.9988
tp657
asI59
(lp658
(S'okay'
p659
g3
F0.9857
tp660
asI60
(lp661
(g37
g7
F0.9889
tp662
a(S'need'
p663
g15
F0.9989
tp664
a(S'help'
p665
g15
F0.605
tp666
asI61
(lp667
(S'want'
p668
g15
F0.9993
tp669
a(S'me'
p670
g7
F0.9985
tp671
a(S'to'
p672
g32
F0.9673
tp673
a(S'cut'
p674
g15
F0.9133
tp675
a(S'that'
p676
g83
F0.7952
tp677
a(S'waffles'
p678
g10
F0.9961
tp679
asI62
(lp680
(S'yeah'
p681
g3
F0.9945
tp682
a(S'laughs'
p683
g15
F0.9273
tp684
asI63
(lp685
(S'laughs'
p686
g15
F0.9102
tp687
asI64
(lp688
(S'laughs'
p689
g15
F0.9102
tp690
asI65
(lp691
(g37
g7
F0.9873
tp692
a(S'can'
p693
g15
F0.9996
tp694
a(g74
g15
F0.7688
tp695
a(S'really'
p696
g104
F0.9987
tp697
a(S'cut'
p698
g15
F0.9953
tp699
a(S'it'
p700
g7
F0.9438
tp701
a(S'waffles'
p702
g10
F0.8726
tp703
a(S'laughs'
p704
g15
F0.8364
tp705
asI66
(lp706
(S'yeah'
p707
g3
F0.9988
tp708
asI67
(lp709
(S'hm'
p710
g3
F0.9916
tp711
a(S'that'
p712
g7
F0.6083
tp713
a(g43
g301
F0.4404
tp714
a(S'much'
p715
g20
F0.5705
tp716
a(S'better'
p717
g20
F0.7862
tp718
asI68
(lp719
(S'okay'
p720
g3
F0.9857
tp721
asI69
(lp722
(S'that'
p723
g7
F0.4727
tp724
a(g43
g301
F0.636
tp725
a(S'okay'
p726
g3
F0.8596
tp727
asI70
(lp728
(S'perfect'
p729
g20
F0.9876
tp730
asI71
(lp731
(S'you'
p732
g7
F0.9983
tp733
a(S'know'
p734
g15
F0.9987
tp735
a(S'when'
p736
g104
F0.9672
tp737
a(S'we'
p738
g7
F0.9959
tp739
a(S'were'
p740
g15
F0.9988
tp741
a(S'talkin'
p742
g15
F0.74
tp743
a(g58
g15
F0.4401
tp744
a(S'about'
p745
g32
F0.9931
tp746
a(S'your'
p747
g83
F0.9946
tp748
a(S'grades'
p749
g10
F0.9989
tp750
a(S'yesterday'
p751
g10
F0.9077
tp752
a(S'miss'
p753
g15
F0.9411
tp754
a(S'melia'
p755
g425
F0.9579
tp756
a(S'said'
p757
g15
F0.9957
tp758
a(S'that'
p759
g32
F0.8756
tp760
a(S'your'
p761
g83
F0.9869
tp762
a(S'art'
p763
g10
F0.9858
tp764
a(S'teacher'
p765
g10
F0.9972
tp766
a(S'gave'
p767
g15
F0.9986
tp768
a(S'you'
p769
g7
F0.9963
tp770
a(S'your'
p771
g83
F0.995
tp772
a(S'grades'
p773
g10
F0.9988
tp774
asI72
(lp775
(S'mhm'
p776
g3
F0.9747
tp777
asI73
(lp778
(S'and'
p779
g219
F0.9987
tp780
a(S'so'
p781
g104
F0.7175
tp782
a(S'if'
p783
g32
F0.9966
tp784
a(S'we'
p785
g7
F0.9991
tp786
a(S'want'
p787
g15
F0.9997
tp788
a(S'to'
p789
g32
F0.9941
tp790
a(S'talk'
p791
g15
F0.9962
tp792
a(S'to'
p793
g32
F0.9976
tp794
a(S'her'
p795
g7
F0.5857
tp796
a(S'uh'
p797
g3
F0.7829
tp798
a(S'we'
p799
g7
F0.9938
tp800
a(S'd'
p801
g15
F0.5752
tp802
a(S'have'
p803
g15
F0.9971
tp804
a(S'to'
p805
g32
F0.9794
tp806
asI74
(lp807
(S'what'
p808
g7
F0.9784
tp809
a(g43
g15
F0.6385
tp810
a(S'her'
p811
g83
F0.951
tp812
a(S'name'
p813
g10
F0.9997
tp814
a(S'miss'
p815
g15
F0.9092
tp816
a(S'guinivan'
p817
g425
F0.4427
tp818
asI75
(lp819
(S'quinlavin'
p820
g3
F0.2014
tp821
asI76
(lp822
(S'quinlavin'
p823
g3
F0.2014
tp824
asI77
(lp825
(S'uh'
p826
g3
F0.9729
tp827
a(S'we'
p828
g7
F0.993
tp829
a(g801
g15
F0.581
tp830
a(S'have'
p831
g15
F0.997
tp832
a(S'to'
p833
g32
F0.9898
tp834
a(S'go'
p835
g15
F0.9997
tp836
a(S'an'
p837
g83
F0.9126
tp838
a(g801
g10
F0.5169
tp839
a(S'speak'
p840
g15
F0.9858
tp841
a(S'with'
p842
g32
F0.9991
tp843
a(S'her'
p844
g7
F0.5858
tp845
asI78
(lp846
(S'do'
p847
g15
F0.9985
tp848
a(S'you'
p849
g7
F0.9996
tp850
a(S'want'
p851
g15
F0.9997
tp852
a(S'to'
p853
g32
F0.9765
tp854
a(S'do'
p855
g15
F0.9999
tp856
a(S'that'
p857
g7
F0.838
tp858
a(S'or'
p859
g219
F0.9771
tp860
a(S'do'
p861
g15
F0.9995
tp862
a(S'you'
p863
g7
F0.9997
tp864
a(S'want'
p865
g15
F0.9997
tp866
a(S'to'
p867
g32
F0.981
tp868
a(S'just'
p869
g104
F0.9976
tp870
a(S'try'
p871
g15
F0.9975
tp872
a(S'to'
p873
g32
F0.9928
tp874
a(S'bring'
p875
g15
F1.0
tp876
a(S'your'
p877
g83
F0.9959
tp878
a(S'grade'
p879
g10
F0.997
tp880
a(S'up'
p881
g32
F0.634
tp882
a(g82
g83
F0.999
tp883
a(S'little'
p884
g20
F0.9968
tp885
a(S'bit'
p886
g10
F0.6937
tp887
a(S'more'
p888
g104
F0.6508
tp889
a(S'this'
p890
g83
F0.969
tp891
a(S'quarter'
p892
g10
F0.9962
tp893
asI79
(lp894
(S'well'
p895
g3
F0.6724
tp896
a(S'let'
p897
g15
F0.9018
tp898
a(g43
g301
F0.3884
tp899
a(S'see'
p900
g15
F0.9495
tp901
a(S'what'
p902
g7
F0.8615
tp903
a(g37
g7
F0.9898
tp904
a(S'get'
p905
g15
F0.9999
tp906
a(S'um'
p907
g3
F0.6922
tp908
asI80
(lp909
(S'second'
p910
g20
F0.958
tp911
a(S'quarter'
p912
g10
F0.9981
tp913
asI81
(lp914
(S'yeah'
p915
g3
F0.9988
tp916
asI82
(lp917
(S'okay'
p918
g3
F0.9857
tp919
asI83
(lp920
(g37
g7
F0.9873
tp921
a(S'can'
p922
g15
F0.9996
tp923
a(g74
g15
F0.7538
tp924
a(S'believe'
p925
g15
F0.9945
tp926
a(S'that'
p927
g83
F0.8425
tp928
a(S'woman'
p929
g10
F0.9893
tp930
asI84
(lp931
(S'be'
p932
g15
F0.9854
tp933
a(S'be'
p934
g15
F0.9784
tp935
a(S'be'
p936
g15
F0.964
tp937
a(S'honest'
p938
g20
F0.9895
tp939
asI85
(lp940
(S'you'
p941
g7
F0.989
tp942
a(S'oughta'
p943
g15
F0.9953
tp944
a(S'just'
p945
g104
F0.9995
tp946
a(S'tell'
p947
g15
F0.999
tp948
a(S'her'
p949
g7
F0.9365
tp950
a(S'that'
p951
g32
F0.9342
tp952
a(S'you'
p953
g7
F0.9997
tp954
a(S'have'
p955
g15
F0.9999
tp956
a(S'all'
p957
g83
F0.8658
tp958
a(S'your'
p959
g83
F0.9884
tp960
a(S'jewelry'
p961
g10
F0.9988
tp962
a(S'in'
p963
g32
F0.9975
tp964
a(S'all'
p965
g83
F0.5061
tp966
a(S'the'
p967
g83
F0.9993
tp968
a(S'stores'
p969
g10
F0.9918
tp970
asI86
(lp971
(S'does'
p972
g15
F0.9966
tp973
a(S'she'
p974
g7
F0.9994
tp975
a(S'know'
p976
g15
F0.9992
tp977
a(S'that'
p978
g7
F0.7826
tp979
asI87
(lp980
(S'no'
p981
g3
F0.9253
tp982
asI88
(lp983
(S'why'
p984
g104
F0.9375
tp985
a(S'don'
p986
g10
F0.2525
tp987
a(g74
g15
F0.5898
tp988
a(S'you'
p989
g7
F0.9991
tp990
a(S'tell'
p991
g15
F0.9997
tp992
a(S'her'
p993
g7
F0.8705
tp994
asI89
(lp995
(g37
g7
F0.9818
tp996
a(S'still'
p997
g104
F0.9879
tp998
a(S'have'
p999
g15
F0.9958
tp1000
a(S'been'
p1001
g15
F0.9597
tp1002
a(S'missing'
p1003
g15
F0.9993
tp1004
a(g82
g83
F0.9967
tp1005
a(S'lotta'
p1006
g20
F0.9444
tp1007
a(S'lot'
p1008
g10
F0.9918
tp1009
a(S'of'
p1010
g32
F0.9989
tp1011
a(S'her'
p1012
g83
F0.9596
tp1013
a(S'days'
p1014
g10
F0.9987
tp1015
asI90
(lp1016
(S'huh'
p1017
g3
F0.9681
tp1018
a(S'laughs'
p1019
g15
F0.9196
tp1020
asI91
(lp1021
(S'you'
p1022
g7
F0.9813
tp1023
a(S've'
p1024
g15
F0.7656
tp1025
a(S'been'
p1026
g15
F0.9847
tp1027
a(S'missing'
p1028
g15
F0.9813
tp1029
a(S'art'
p1030
g10
F0.9079
tp1031
a(S'days'
p1032
g10
F0.9963
tp1033
asI92
(lp1034
(S'thursdays'
p1035
g425
F0.5891
tp1036
asI93
(lp1037
(S'is'
p1038
g15
F0.9981
tp1039
a(S'that'
p1040
g7
F0.6116
tp1041
a(S'the'
p1042
g83
F0.9995
tp1043
a(S'day'
p1044
g10
F0.9978
tp1045
a(S'that'
p1046
g32
F0.9909
tp1047
a(S'you'
p1048
g7
F0.9997
tp1049
a(S'usually'
p1050
g104
F0.9975
tp1051
a(S'if'
p1052
g32
F0.997
tp1053
a(S'you'
p1054
g7
F0.9983
tp1055
a(S're'
p1056
g15
F0.5665
tp1057
a(S'gonna'
p1058
g15
F0.9938
tp1059
a(S'be'
p1060
g15
F0.9994
tp1061
a(S'sick'
p1062
g20
F0.9357
tp1063
a(S'you'
p1064
g7
F0.986
tp1065
a(S're'
p1066
g15
F0.8154
tp1067
a(S'home'
p1068
g10
F0.8545
tp1069
a(S'on'
p1070
g32
F0.9943
tp1071
a(S'thursday'
p1072
g425
F0.9362
tp1073
asI94
(lp1074
(S'yeah'
p1075
g3
F0.9988
tp1076
asI95
(lp1077
(S'hey'
p1078
g3
F0.9933
tp1079
a(S'toby'
p1080
g425
F0.9062
tp1081
a(S'come'
p1082
g15
F0.9917
tp1083
a(S'here'
p1084
g104
F0.9854
tp1085
asI96
(lp1086
(S'get'
p1087
g15
F0.9983
tp1088
a(S'out'
p1089
g355
F0.9315
tp1090
a(S'from'
p1091
g32
F0.9883
tp1092
a(S'under'
p1093
g32
F0.9941
tp1094
a(S'the'
p1095
g83
F0.9993
tp1096
a(S'table'
p1097
g10
F0.9925
tp1098
asI97
(lp1099
(S'come'
p1100
g15
F0.9849
tp1101
a(S'on'
p1102
g355
F0.5632
tp1103
asI98
(lp1104
(S'come'
p1105
g15
F0.9849
tp1106
a(S'on'
p1107
g355
F0.5632
tp1108
asI99
(lp1109
(S'there'
p1110
g104
F0.5244
tp1111
a(S'you'
p1112
g7
F0.9982
tp1113
a(S'go'
p1114
g15
F0.9953
tp1115
asI100
(lp1116
(S'good'
p1117
g20
F0.9881
tp1118
a(S'dog'
p1119
g10
F0.9993
tp1120
asI101
(lp1121
(S'go'
p1122
g15
F0.9568
tp1123
a(S'lay'
p1124
g15
F0.8225
tp1125
a(S'down'
p1126
g355
F0.8782
tp1127
asI102
(lp1128
(S'you'
p1129
g7
F0.9969
tp1130
a(S'can'
p1131
g15
F0.9994
tp1132
a(g74
g15
F0.7703
tp1133
a(S'have'
p1134
g15
F0.9964
tp1135
a(S'any'
p1136
g83
F0.9972
tp1137
a(S'waffles'
p1138
g10
F0.9973
tp1139
asI103
(lp1140
(S'go'
p1141
g15
F0.9568
tp1142
a(S'lay'
p1143
g15
F0.8225
tp1144
a(S'down'
p1145
g355
F0.8782
tp1146
asI104
(lp1147
(S'go'
p1148
g15
F0.9676
tp1149
a(S'on'
p1150
g32
F0.7689
tp1151
asI105
(lp1152
(S'go'
p1153
g15
F0.9724
tp1154
a(S'on'
p1155
g32
F0.9125
tp1156
a(S'go'
p1157
g15
F0.7697
tp1158
a(S'on'
p1159
g32
F0.8064
tp1160
asI106
(lp1161
(S'go'
p1162
g15
F0.966
tp1163
a(S'find'
p1164
g15
F0.9941
tp1165
a(S'your'
p1166
g83
F0.9952
tp1167
a(S'bone'
p1168
g10
F0.9988
tp1169
asI107
(lp1170
(S'go'
p1171
g15
F0.966
tp1172
a(S'eat'
p1173
g15
F0.9701
tp1174
a(S'the'
p1175
g83
F0.9997
tp1176
a(S'kitty'
p1177
g10
F0.9843
tp1178
asI108
(lp1179
(S'go'
p1180
g15
F0.9676
tp1181
a(S'on'
p1182
g32
F0.7689
tp1183
asI109
(lp1184
(S'laughs'
p1185
g15
F0.9102
tp1186
asI110
(lp1187
(S'laughs'
p1188
g15
F0.9102
tp1189
asI111
(lp1190
(S'you'
p1191
g7
F0.963
tp1192
a(S're'
p1193
g15
F0.7586
tp1194
a(S'funny'
p1195
g20
F0.9975
tp1196
asI112
(lp1197
(S'uh'
p1198
g3
F0.9889
tp1199
a(S'what'
p1200
g7
F0.9892
tp1201
a(S'else'
p1202
g104
F0.9142
tp1203
a(S'am'
p1204
g15
F0.8537
tp1205
a(g37
g7
F0.9962
tp1206
a(S'gonna'
p1207
g15
F0.9999
tp1208
a(S'do'
p1209
g15
F0.9993
tp1210
a(S'today'
p1211
g10
F0.9757
tp1212
asI113
(lp1213
(S'what'
p1214
g7
F0.9962
tp1215
a(S'is'
p1216
g15
F0.9958
tp1217
a(S'today'
p1218
g10
F0.9662
tp1219
a(S'wednesday'
p1220
g425
F0.883
tp1221
asI114
(lp1222
(S'yep'
p1223
g3
F0.9977
tp1224
asI115
(lp1225
(g37
g7
F0.9896
tp1226
a(S'have'
p1227
g15
F0.9999
tp1228
a(g82
g83
F0.999
tp1229
a(S'big'
p1230
g20
F0.9893
tp1231
a(S'exam'
p1232
g10
F0.9977
tp1233
a(S'tomorrow'
p1234
g10
F0.9675
tp1235
a(S'so'
p1236
g32
F0.9338
tp1237
a(S'um'
p1238
g3
F0.5422
tp1239
a(g37
g7
F0.9713
tp1240
a(g607
g15
F0.9607
tp1241
a(S'gonna'
p1242
g15
F0.9955
tp1243
a(S'be'
p1244
g15
F0.9995
tp1245
a(S'studying'
p1246
g15
F0.9998
tp1247
a(S'all'
p1248
g83
F0.9968
tp1249
a(S'day'
p1250
g10
F0.9958
tp1251
asI116
(lp1252
(g37
g7
F0.9793
tp1253
a(S'll'
p1254
g15
F0.8175
tp1255
a(S'be'
p1256
g15
F0.9965
tp1257
a(S'here'
p1258
g104
F0.9964
tp1259
a(S'when'
p1260
g104
F0.9915
tp1261
a(S'you'
p1262
g7
F0.9986
tp1263
a(S'get'
p1264
g15
F0.9997
tp1265
a(S'home'
p1266
g10
F0.9327
tp1267
a(S'from'
p1268
g32
F0.9994
tp1269
a(S'school'
p1270
g10
F0.983
tp1271
asI117
(lp1272
(S'wednesday'
p1273
g425
F0.8207
tp1274
a(S'what'
p1275
g7
F0.9612
tp1276
a(S'else'
p1277
g104
F0.8715
tp1278
a(S'do'
p1279
g15
F0.9961
tp1280
a(S'we'
p1281
g7
F0.9992
tp1282
a(S'have'
p1283
g15
F0.9996
tp1284
a(S'to'
p1285
g32
F0.9877
tp1286
a(S'do'
p1287
g15
F0.9993
tp1288
asI118
(lp1289
(S'we'
p1290
g7
F0.9973
tp1291
a(S'need'
p1292
g15
F0.9989
tp1293
a(S'to'
p1294
g32
F0.9699
tp1295
a(S'call'
p1296
g15
F0.9973
tp1297
a(S'the'
p1298
g83
F0.9996
tp1299
a(S'craft'
p1300
g10
F0.9754
tp1301
a(S'store'
p1302
g10
F0.9805
tp1303
asI119
(lp1304
(S'hey'
p1305
g3
F0.9842
tp1306
a(S'get'
p1307
g15
F0.9942
tp1308
a(S'away'
p1309
g104
F0.6893
tp1310
a(S'from'
p1311
g32
F0.9992
tp1312
a(S'me'
p1313
g7
F0.9987
tp1314
asI120
(lp1315
(S'no'
p1316
g3
F0.7121
tp1317
a(S'toby'
p1318
g10
F0.5545
tp1319
a(S'the'
p1320
g83
F0.9979
tp1321
a(S'dog'
p1322
g10
F0.999
tp1323
asI121
(lp1324
(S'toby'
p1325
g425
F0.8926
tp1326
asI122
(lp1327
(S'toby'
p1328
g425
F0.944
tp1329
a(S'come'
p1330
g15
F0.9927
tp1331
a(S'here'
p1332
g104
F0.9712
tp1333
asI123
(lp1334
(S'get'
p1335
g15
F0.9987
tp1336
a(S'your'
p1337
g83
F0.9967
tp1338
a(S'head'
p1339
g10
F0.9989
tp1340
a(S'out'
p1341
g32
F0.9807
tp1342
a(S'of'
p1343
g32
F0.9974
tp1344
a(S'the'
p1345
g83
F0.9989
tp1346
a(S'oven'
p1347
g10
F0.9788
tp1348
asI124
(lp1349
(S'laughs'
p1350
g15
F0.9102
tp1351
asI125
(lp1352
(S'laughs'
p1353
g15
F0.9102
tp1354
asI126
(lp1355
(S'go'
p1356
g15
F0.9676
tp1357
a(S'on'
p1358
g32
F0.7689
tp1359
asI127
(lp1360
(S'go'
p1361
g15
F0.966
tp1362
a(S'find'
p1363
g15
F0.9891
tp1364
a(S'the'
p1365
g83
F0.9997
tp1366
a(S'kitty'
p1367
g10
F0.9843
tp1368
asI128
(lp1369
(S'go'
p1370
g15
F0.966
tp1371
a(S'find'
p1372
g15
F0.9891
tp1373
a(S'the'
p1374
g83
F0.9997
tp1375
a(S'kitty'
p1376
g10
F0.9843
tp1377
asI129
(lp1378
(S'go'
p1379
g15
F0.966
tp1380
a(S'eat'
p1381
g15
F0.9701
tp1382
a(S'the'
p1383
g83
F0.9997
tp1384
a(S'kitty'
p1385
g10
F0.9843
tp1386
asI130
(lp1387
(S'go'
p1388
g15
F0.966
tp1389
a(S'see'
p1390
g15
F0.8272
tp1391
a(S'max'
p1392
g425
F0.7039
tp1393
a(S'the'
p1394
g83
F0.9958
tp1395
a(S'cat'
p1396
g10
F0.7585
tp1397
asI131
(lp1398
(S'max'
p1399
g425
F0.8403
tp1400
asI132
(lp1401
(S'run'
p1402
g15
F0.993
tp1403
a(S'like'
p1404
g32
F0.8454
tp1405
a(g82
g83
F0.9927
tp1406
a(S'turtle'
p1407
g10
F0.9945
tp1408
asI133
(lp1409
(S'coughs'
p1410
g10
F0.5349
tp1411
asI134
(lp1412
(S'coughs'
p1413
g10
F0.5349
tp1414
asI135
(lp1415
(S'she'
p1416
g7
F0.9917
tp1417
a(g43
g15
F0.673
tp1418
a(S'like'
p1419
g32
F0.5703
tp1420
a(S'well'
p1421
g104
F0.7552
tp1422
a(g37
g7
F0.9964
tp1423
a(S'have'
p1424
g15
F0.9998
tp1425
a(S'to'
p1426
g32
F0.996
tp1427
a(S'finish'
p1428
g15
F0.9921
tp1429
a(S'oh'
p1430
g3
F0.9723
tp1431
a(g37
g7
F0.9929
tp1432
a(S'have'
p1433
g15
F1.0
tp1434
a(S'my'
p1435
g83
F0.9985
tp1436
a(S'breakfast'
p1437
g10
F0.9934
tp1438
a(S'be'
p1439
g15
F0.9772
tp1440
a(S'cause'
p1441
g32
F0.7554
tp1442
a(S'xxx'
p1443
S'E'
p1444
F0.7973
tp1445
asI136
(lp1446
(S'toby'
p1447
g425
F0.9405
tp1448
a(S'stop'
p1449
g15
F0.9781
tp1450
a(S'that'
p1451
g7
F0.8497
tp1452
asI137
(lp1453
(S'don'
p1454
g425
F0.5427
tp1455
a(g74
g425
F0.4871
tp1456
a(S'let'
p1457
g15
F0.9965
tp1458
a(S'her'
p1459
g7
F0.8169
tp1460
a(S'let'
p1461
g15
F0.9598
tp1462
a(S'lick'
p1463
g15
F0.9712
tp1464
a(S'your'
p1465
g83
F0.9967
tp1466
a(S'hand'
p1467
g10
F0.9991
tp1468
a(S'underneath'
p1469
g32
F0.9997
tp1470
a(S'the'
p1471
g83
F0.9992
tp1472
a(S'table'
p1473
g10
F0.9946
tp1474
asI138
(lp1475
(S'no'
p1476
g3
F0.3684
tp1477
a(S'wonder'
p1478
g15
F0.8436
tp1479
a(S'she'
p1480
g7
F0.998
tp1481
a(S'hovers'
p1482
g15
F0.9976
tp1483
a(S'around'
p1484
g355
F0.4708
tp1485
asI139
(lp1486
(S'laughs'
p1487
g15
F0.9102
tp1488
asI140
(lp1489
(S'oh'
p1490
g3
F0.9951
tp1491
a(S'she'
p1492
g7
F0.9935
tp1493
a(g43
g15
F0.5921
tp1494
a(S'such'
p1495
g20
F0.4604
tp1496
a(g82
g83
F0.9849
tp1497
a(S'bad'
p1498
g20
F0.9858
tp1499
a(S'little'
p1500
g20
F0.9652
tp1501
a(S'xxx'
p1502
g1444
F0.6743
tp1503
asI141
(lp1504
(S'you'
p1505
g7
F0.9754
tp1506
a(S're'
p1507
g15
F0.9434
tp1508
a(g82
g83
F0.9962
tp1509
a(S'big'
p1510
g20
F0.8692
tp1511
a(S'bad'
p1512
g20
F0.9916
tp1513
a(S'girl'
p1514
g10
F0.9955
tp1515
a(S'yes'
p1516
g3
F0.8072
tp1517
a(S'you'
p1518
g7
F0.998
tp1519
a(S'are'
p1520
g15
F0.9986
tp1521
asI142
(lp1522
(S'go'
p1523
g15
F0.9724
tp1524
a(S'on'
p1525
g32
F0.985
tp1526
a(S'get'
p1527
g15
F0.9757
tp1528
a(S'out'
p1529
g32
F0.7207
tp1530
a(S'of'
p1531
g32
F0.9653
tp1532
a(S'here'
p1533
g104
F0.9078
tp1534
asI143
(lp1535
(S'laughs'
p1536
g15
F0.9102
tp1537
asI144
(lp1538
(S'go'
p1539
g15
F0.9676
tp1540
a(S'on'
p1541
g32
F0.7689
tp1542
asI145
(lp1543
(S'out'
p1544
g355
F0.6015
tp1545
asI146
(lp1546
(S'out'
p1547
g355
F0.6015
tp1548
asI147
(lp1549
(S'go'
p1550
g15
F0.9523
tp1551
a(S'go'
p1552
g15
F0.9504
tp1553
a(S'find'
p1554
g15
F0.9903
tp1555
a(S'the'
p1556
g83
F0.9997
tp1557
a(S'kitty'
p1558
g10
F0.9743
tp1559
asI148
(lp1560
(S'go'
p1561
g15
F0.9607
tp1562
a(S'play'
p1563
g15
F0.8782
tp1564
asI149
(lp1565
(S'did'
p1566
g15
F0.9986
tp1567
a(S'you'
p1568
g7
F0.9994
tp1569
a(S'know'
p1570
g15
F0.9997
tp1571
a(S'that'
p1572
g32
F0.416
tp1573
a(S'christmas'
p1574
g425
F0.9193
tp1575
asI150
(lp1576
(g37
g7
F0.9914
tp1577
a(S'was'
p1578
g15
F0.9997
tp1579
a(S'just'
p1580
g104
F0.9998
tp1581
a(S'looking'
p1582
g15
F0.9938
tp1583
a(S'at'
p1584
g32
F0.9993
tp1585
a(S'the'
p1586
g83
F0.9992
tp1587
a(S'calendar'
p1588
g10
F0.9976
tp1589
a(S'yesterday'
p1590
g10
F0.7769
tp1591
a(S'it'
p1592
g7
F0.9635
tp1593
a(g43
g15
F0.7731
tp1594
a(S'in'
p1595
g32
F0.9093
tp1596
a(S'less'
p1597
g20
F0.9654
tp1598
a(S'than'
p1599
g32
F0.9945
tp1600
a(S'two'
p1601
g99
F0.9825
tp1602
a(S'weeks'
p1603
g10
F0.9846
tp1604
asI151
(lp1605
(g37
g7
F0.9912
tp1606
a(S'know'
p1607
g15
F0.9989
tp1608
asI152
(lp1609
(g37
g7
F0.9873
tp1610
a(S'can'
p1611
g15
F0.9996
tp1612
a(g74
g15
F0.7538
tp1613
a(S'believe'
p1614
g15
F0.9969
tp1615
a(S'that'
p1616
g7
F0.5766
tp1617
a(S'in'
p1618
g32
F0.9735
tp1619
a(S'two'
p1620
g99
F0.9716
tp1621
a(S'weeks'
p1622
g10
F0.9736
tp1623
a(S'christmas'
p1624
g425
F0.6832
tp1625
a(S'will'
p1626
g15
F0.9727
tp1627
a(S'be'
p1628
g15
F0.9997
tp1629
a(S'over'
p1630
g32
F0.6474
tp1631
asI153
(lp1632
(g37
g7
F0.9873
tp1633
a(S'can'
p1634
g15
F0.9996
tp1635
a(g74
g15
F0.7193
tp1636
a(S'believe'
p1637
g15
F0.9945
tp1638
a(S'that'
p1639
g7
F0.7553
tp1640
asI154
(lp1641
(S'and'
p1642
g219
F0.9991
tp1643
a(S'we'
p1644
g7
F0.9963
tp1645
a(S'll'
p1646
g15
F0.7071
tp1647
a(S'be'
p1648
g15
F0.9965
tp1649
a(S'in'
p1650
g32
F0.9714
tp1651
a(S'florida'
p1652
g425
F0.9898
tp1653
asI155
(lp1654
(g37
g7
F0.9908
tp1655
a(S'know'
p1656
g15
F0.9998
tp1657
a(S'we'
p1658
g7
F0.9943
tp1659
a(S're'
p1660
g15
F0.7024
tp1661
a(S'leavin'
p1662
g15
F0.9592
tp1663
a(g58
g10
F0.4375
tp1664
a(S'for'
p1665
g32
F0.9997
tp1666
a(S'florida'
p1667
g425
F0.9871
tp1668
a(S'in'
p1669
g32
F0.971
tp1670
a(S'like'
p1671
g32
F0.884
tp1672
a(g82
g83
F0.996
tp1673
a(S'week'
p1674
g10
F0.997
tp1675
a(S'in'
p1676
g32
F0.9941
tp1677
a(g82
g83
F0.9977
tp1678
a(S'half'
p1679
g10
F0.6352
tp1680
asI156
(lp1681
(S'oh'
p1682
g3
F0.9903
tp1683
a(S'tomorrow'
p1684
g10
F0.8915
tp1685
a(S'we'
p1686
g7
F0.9887
tp1687
a(S'go'
p1688
g15
F0.999
tp1689
a(S'to'
p1690
g32
F0.9984
tp1691
a(S'the'
p1692
g83
F0.9981
tp1693
a(S'christmas'
p1694
g425
F0.9528
tp1695
a(S'carol'
p1696
g10
F0.5709
tp1697
asI157
(lp1698
(g82
g83
F0.996
tp1699
a(S'week'
p1700
g10
F0.9869
tp1701
a(S'and'
p1702
g219
F0.9977
tp1703
a(S'two'
p1704
g99
F0.9212
tp1705
asI158
(lp1706
(S'oh'
p1707
g3
F0.9904
tp1708
a(S'at'
p1709
g32
F0.9988
tp1710
a(S'the'
p1711
g83
F0.9986
tp1712
a(S'north'
p1713
g425
F0.5066
tp1714
a(S'shore'
p1715
g10
F0.8399
tp1716
asI159
(lp1717
(S'mhm'
p1718
g3
F0.9747
tp1719
asI160
(lp1720
(S'oh'
p1721
g3
F0.9955
tp1722
a(S'we'
p1723
g7
F0.989
tp1724
a(S've'
p1725
g15
F0.7625
tp1726
a(S'gotta'
p1727
g15
F0.9851
tp1728
a(S'dress'
p1729
g15
F0.922
tp1730
a(S'up'
p1731
g355
F0.8423
tp1732
a(S'fancy'
p1733
g20
F0.9812
tp1734
a(S'for'
p1735
g32
F0.9996
tp1736
a(S'that'
p1737
g7
F0.8417
tp1738
asI161
(lp1739
(S'not'
p1740
g104
F0.9988
tp1741
a(S'fancy'
p1742
g20
F0.9961
tp1743
a(S'but'
p1744
g219
F0.9835
tp1745
a(S'like'
p1746
g32
F0.5307
tp1747
a(S'not'
p1748
g104
F0.9923
tp1749
asI162
(lp1750
(S'well'
p1751
g3
F0.741
tp1752
a(S'you'
p1753
g7
F0.999
tp1754
a(S'always'
p1755
g104
F0.9786
tp1756
a(S'dress'
p1757
g15
F0.8855
tp1758
a(S'nice'
p1759
g20
F0.9936
tp1760
a(S'so'
p1761
g32
F0.9522
tp1762
a(S'it'
p1763
g7
F0.9985
tp1764
a(S'should'
p1765
g15
F0.9992
tp1766
a(S'be'
p1767
g15
F0.9982
tp1768
a(S'fine'
p1769
g20
F0.9511
tp1770
asI163
(lp1771
(S'but'
p1772
g219
F0.9908
tp1773
a(S'not'
p1774
g104
F0.9994
tp1775
a(S'like'
p1776
g32
F0.6992
tp1777
a(S'gym'
p1778
g10
F0.8825
tp1779
a(S'clothes'
p1780
g10
F0.9836
tp1781
asI164
(lp1782
(S'yeah'
p1783
g3
F0.9958
tp1784
a(S'well'
p1785
g3
F0.9306
tp1786
a(S'they'
p1787
g7
F0.9853
tp1788
a(S're'
p1789
g15
F0.5446
tp1790
a(S'sh'
p1791
g301
F0.6689
tp1792
a(S'they'
p1793
g7
F0.9299
tp1794
a(S're'
p1795
g15
F0.782
tp1796
a(S'talking'
p1797
g15
F0.9845
tp1798
a(S'about'
p1799
g32
F0.9975
tp1800
a(S'the'
p1801
g83
F0.9995
tp1802
a(S'kids'
p1803
g10
F0.9897
tp1804
a(S'that'
p1805
g32
F0.8861
tp1806
a(S'show'
p1807
g15
F0.7578
tp1808
a(S'up'
p1809
g355
F0.9091
tp1810
a(S'at'
p1811
g32
F0.9983
tp1812
a(S'school'
p1813
g10
F0.9802
tp1814
a(S'every'
p1815
g83
F0.9659
tp1816
a(S'day'
p1817
g10
F0.9991
tp1818
a(S'in'
p1819
g32
F0.9967
tp1820
a(S'sweat'
p1821
g10
F0.7777
tp1822
a(S'pants'
p1823
g10
F0.9965
tp1824
a(S'and'
p1825
g219
F0.993
tp1826
a(g74
g15
F0.4949
tp1827
a(S'shirts'
p1828
g10
F0.9482
tp1829
asI165
(lp1830
(S'yeah'
p1831
g3
F0.9968
tp1832
a(S'like'
p1833
g32
F0.6902
tp1834
a(S'kevin'
p1835
g425
F0.9857
tp1836
asI166
(lp1837
(S'mhm'
p1838
g3
F0.9747
tp1839
asI167
(lp1840
(S'like'
p1841
g32
F0.7692
tp1842
a(S'kevin'
p1843
g425
F0.9924
tp1844
a(S'doesn'
p1845
g15
F0.9156
tp1846
a(g74
g10
F0.2398
tp1847
a(S'have'
p1848
g15
F0.9994
tp1849
a(S'any'
p1850
g83
F0.998
tp1851
a(S'jeans'
p1852
g10
F0.9295
tp1853
asI168
(lp1854
(S'what'
p1855
g7
F0.9931
tp1856
a(S'do'
p1857
g15
F0.9993
tp1858
a(S'you'
p1859
g7
F0.9997
tp1860
a(S'mean'
p1861
g15
F0.9469
tp1862
a(S'kevin'
p1863
g425
F0.9938
tp1864
a(S'doesn'
p1865
g15
F0.9211
tp1866
a(g74
g10
F0.2453
tp1867
a(S'have'
p1868
g15
F0.9987
tp1869
a(S'any'
p1870
g83
F0.9981
tp1871
a(S'jeans'
p1872
g10
F0.8977
tp1873
asI169
(lp1874
(S'laughs'
p1875
g15
F0.9102
tp1876
asI170
(lp1877
(S'how'
p1878
g104
F0.979
tp1879
a(S'can'
p1880
g15
F0.9973
tp1881
a(S'he'
p1882
g7
F0.994
tp1883
a(S'not'
p1884
g104
F0.9989
tp1885
a(S'have'
p1886
g15
F0.996
tp1887
a(S'jeans'
p1888
g10
F0.8828
tp1889
asI171
(lp1890
(S'he'
p1891
g7
F0.9928
tp1892
a(S'doesn'
p1893
g15
F0.9962
tp1894
a(g74
g10
F0.2695
tp1895
a(S'have'
p1896
g15
F0.9897
tp1897
a(S'jeans'
p1898
g10
F0.8619
tp1899
a(S'laughing'
p1900
g15
F0.9891
tp1901
asI172
(lp1902
(S'he'
p1903
g7
F0.996
tp1904
a(S'wears'
p1905
g15
F0.9987
tp1906
a(S'sweat'
p1907
g15
F0.6784
tp1908
a(S'pants'
p1909
g10
F0.9916
tp1910
a(S'everyday'
p1911
g10
F0.8222
tp1912
asI173
(lp1913
(S'yep'
p1914
g3
F0.9977
tp1915
asI174
(lp1916
(S'and'
p1917
g219
F0.9989
tp1918
a(S'he'
p1919
g7
F0.9956
tp1920
asI175
(lp1921
(S'laughs'
p1922
g15
F0.9102
tp1923
asI176
(lp1924
(S'he'
p1925
g7
F0.9927
tp1926
a(S'always'
p1927
g104
F0.9951
tp1928
a(S'wear'
p1929
g15
F0.9973
tp1930
a(S'those'
p1931
g83
F0.972
tp1932
a(S'short'
p1933
g20
F0.9981
tp1934
a(S'sleeve'
p1935
g10
F0.9927
tp1936
a(S'shirts'
p1937
g10
F0.9815
tp1938
a(S'laughs'
p1939
g15
F0.9778
tp1940
asI177
(lp1941
(S'even'
p1942
g104
F0.9953
tp1943
a(S'in'
p1944
g32
F0.9949
tp1945
a(S'the'
p1946
g83
F0.9992
tp1947
a(S'winter'
p1948
g10
F0.9942
tp1949
asI178
(lp1950
(S'he'
p1951
g7
F0.9912
tp1952
a(S'only'
p1953
g104
F0.9272
tp1954
a(S'has'
p1955
g15
F0.9991
tp1956
a(S'he'
p1957
g7
F0.9965
tp1958
a(S'only'
p1959
g104
F0.9661
tp1960
a(S'has'
p1961
g15
F0.9979
tp1962
a(S'two'
p1963
g99
F0.9653
tp1964
a(S'sweaters'
p1965
g10
F0.9957
tp1966
a(S'laughs'
p1967
g15
F0.977
tp1968
asI179
(lp1969
(S'in'
p1970
g32
F0.9914
tp1971
a(S'the'
p1972
g83
F0.9991
tp1973
a(S'winter'
p1974
g10
F0.9952
tp1975
asI180
(lp1976
(S'yeah'
p1977
g3
F0.9945
tp1978
a(S'laughs'
p1979
g15
F0.9273
tp1980
asI181
(lp1981
(S'my'
p1982
g83
F0.9727
tp1983
a(S'god'
p1984
g10
F0.637
tp1985
asI182
(lp1986
(S'you'
p1987
g7
F0.9972
tp1988
a(S'mean'
p1989
g15
F0.8902
tp1990
asI183
(lp1991
(S'he'
p1992
g7
F0.9905
tp1993
a(g43
g15
F0.8193
tp1994
a(g82
g83
F0.9875
tp1995
a(S'warm'
p1996
g20
F0.9964
tp1997
a(S'kid'
p1998
g10
F0.9205
tp1999
asI184
(lp2000
(S'sheesh'
p2001
g3
F0.9902
tp2002
asI185
(lp2003
(S'does'
p2004
g15
F0.996
tp2005
a(S'he'
p2006
g7
F0.999
tp2007
a(S'have'
p2008
g15
F0.9999
tp2009
a(g82
g83
F0.9976
tp2010
a(S'good'
p2011
g20
F0.9975
tp2012
a(S'winter'
p2013
g10
F0.9816
tp2014
a(S'jacket'
p2015
g10
F0.9904
tp2016
asI186
(lp2017
(S'mm'
p2018
g3
F0.4862
tp2019
a(S'nope'
p2020
g3
F0.998
tp2021
asI187
(lp2022
(S'laughs'
p2023
g15
F0.9102
tp2024
asI188
(lp2025
(S'well'
p2026
g3
F0.9502
tp2027
a(S'that'
p2028
g7
F0.813
tp2029
a(g43
g15
F0.4491
tp2030
a(S'not'
p2031
g104
F0.9969
tp2032
a(S'very'
p2033
g104
F0.9989
tp2034
a(S'good'
p2035
g20
F0.9997
tp2036
asI189
(lp2037
(g37
g7
F0.989
tp2038
a(S'think'
p2039
g15
F0.9999
tp2040
a(S'this'
p2041
g7
F0.947
tp2042
a(S'needs'
p2043
g15
F0.9966
tp2044
a(g82
g83
F0.9979
tp2045
a(S'little'
p2046
g20
F0.9474
tp2047
a(S'more'
p2048
g20
F0.9367
tp2049
a(S'sugar'
p2050
g10
F0.9989
tp2051
asI190
(lp2052
(S'okay'
p2053
g3
F0.9857
tp2054
asI191
(lp2055
(S'oh'
p2056
g3
F0.9966
tp2057
a(S'sighs'
p2058
g15
F0.801
tp2059
asI192
(lp2060
(S'our'
p2061
g83
F0.9928
tp2062
a(S'dog'
p2063
g10
F0.9954
tp2064
a(S'the'
p2065
g83
F0.9985
tp2066
a(S'real'
p2067
g20
F0.9666
tp2068
a(S'beggar'
p2069
g10
F0.9854
tp2070
asI193
(lp2071
(S'an'
p2072
g83
F0.9089
tp2073
a(g801
g301
F0.5743
tp2074
a(S'my'
p2075
g83
F0.9965
tp2076
a(S'friend'
p2077
g10
F0.9749
tp2078
a(S'kevin'
p2079
g425
F0.9309
tp2080
a(S'never'
p2081
g104
F0.932
tp2082
a(S'gets'
p2083
g15
F0.9989
tp2084
a(S'cold'
p2085
g20
F0.9945
tp2086
asI194
(lp2087
(S'are'
p2088
g15
F0.9964
tp2089
a(S'you'
p2090
g7
F0.9984
tp2091
a(S'sure'
p2092
g20
F0.7596
tp2093
a(S'about'
p2094
g32
F0.9949
tp2095
a(S'that'
p2096
g7
F0.9249
tp2097
asI195
(lp2098
(S'be'
p2099
g15
F0.9727
tp2100
a(S'cause'
p2101
g32
F0.9756
tp2102
a(S'he'
p2103
g7
F0.9961
tp2104
a(S'really'
p2105
g104
F0.9988
tp2106
a(S'should'
p2107
g15
F0.9989
tp2108
a(S'have'
p2109
g15
F0.9999
tp2110
a(S'some'
p2111
g83
F0.996
tp2112
a(S'winter'
p2113
g10
F0.9486
tp2114
a(S'clothes'
p2115
g10
F0.9971
tp2116
a(S'on'
p2117
g32
F0.9926
tp2118
asI196
(lp2119
(S'laughs'
p2120
g15
F0.9102
tp2121
asI197
(lp2122
(S'that'
p2123
g7
F0.473
tp2124
a(g43
g15
F0.4356
tp2125
a(S'enough'
p2126
g20
F0.6044
tp2127
a(S'sugar'
p2128
g10
F0.9988
tp2129
asI198
(lp2130
(S'what'
p2131
g7
F0.949
tp2132
asI199
(lp2133
(S'one'
p2134
g99
F0.9578
tp2135
a(S'teaspoon'
p2136
g10
F0.9952
tp2137
asI200
(lp2138
(S'chuckles'
p2139
g15
F0.8006
tp2140
asI201
(lp2141
(S'no'
p2142
g3
F0.6532
tp2143
a(g37
g7
F0.9415
tp2144
a(S'put'
p2145
g15
F0.9963
tp2146
a(S'about'
p2147
g32
F0.9303
tp2148
a(S'eighty'
p2149
g99
F0.785
tp2150
a(S'teaspoons'
p2151
g10
F0.9899
tp2152
a(S'in'
p2153
g32
F0.9829
tp2154
a(S'before'
p2155
g32
F0.8767
tp2156
a(S'that'
p2157
g83
F0.7217
tp2158
a(S'one'
p2159
g99
F0.8098
tp2160
asI202
(lp2161
(S'laughs'
p2162
g15
F0.9102
tp2163
asI203
(lp2164
(S'do'
p2165
g15
F0.9985
tp2166
a(S'you'
p2167
g7
F0.9996
tp2168
a(S'want'
p2169
g15
F0.9999
tp2170
a(S'some'
p2171
g83
F0.9398
tp2172
a(S'more'
p2173
g20
F0.9704
tp2174
a(S'waffles'
p2175
g10
F0.9983
tp2176
asI204
(lp2177
(S'xxx'
p2178
g1444
F0.8437
tp2179
asI205
(lp2180
(S'well'
p2181
g3
F0.741
tp2182
a(S'you'
p2183
g7
F0.9959
tp2184
a(S'you'
p2185
g7
F0.9946
tp2186
a(S'have'
p2187
g15
F0.9985
tp2188
a(S'more'
p2189
g20
F0.964
tp2190
a(S'time'
p2191
g10
F0.9976
tp2192
a(S'now'
p2193
g104
F0.9983
tp2194
a(S'since'
p2195
g32
F0.9858
tp2196
a(S'you'
p2197
g7
F0.9979
tp2198
a(S're'
p2199
g15
F0.7701
tp2200
a(S'leaving'
p2201
g15
F0.9915
tp2202
a(S'later'
p2203
g104
F0.8792
tp2204
a(S'for'
p2205
g32
F0.9988
tp2206
a(S'school'
p2207
g10
F0.9899
tp2208
a(S'since'
p2209
g32
F0.9971
tp2210
a(S'it'
p2211
g7
F0.9986
tp2212
a(g43
g15
F0.4726
tp2213
a(S'cold'
p2214
g20
F0.9924
tp2215
asI206
(lp2216
(S'oh'
p2217
g3
F0.9987
tp2218
a(S'yeah'
p2219
g3
F0.9997
tp2220
asI207
(lp2221
(S'so'
p2222
g32
F0.8338
tp2223
a(S'you'
p2224
g7
F0.9997
tp2225
a(S'have'
p2226
g15
F0.9996
tp2227
a(S'like'
p2228
g32
F0.9361
tp2229
a(S'half'
p2230
g10
F0.4742
tp2231
a(S'an'
p2232
g83
F0.93
tp2233
a(S'hour'
p2234
g10
F0.9861
tp2235
a(S'more'
p2236
g20
F0.5489
tp2237
asI208
(lp2238
(g37
g7
F0.9897
tp2239
a(S'mean'
p2240
g15
F0.96
tp2241
a(S'thirty'
p2242
g20
F0.6551
tp2243
a(S'five'
p2244
g99
F0.6538
tp2245
a(S'minutes'
p2246
g10
F0.988
tp2247
asI209
(lp2248
(S'do'
p2249
g15
F0.9985
tp2250
a(S'you'
p2251
g7
F0.9997
tp2252
a(S'know'
p2253
g15
F0.9985
tp2254
a(S'when'
p2255
g104
F0.9556
tp2256
a(S'your'
p2257
g83
F0.9861
tp2258
a(S'grades'
p2259
g10
F0.999
tp2260
a(S'come'
p2261
g15
F0.9972
tp2262
a(S'out'
p2263
g355
F0.8078
tp2264
a(S'for'
p2265
g32
F0.9998
tp2266
a(S'your'
p2267
g83
F0.9952
tp2268
a(S'next'
p2269
g20
F0.8865
tp2270
a(S'quarter'
p2271
g10
F0.998
tp2272
asI210
(lp2273
(S'yeah'
p2274
g3
F0.9956
tp2275
a(S'in'
p2276
g32
F0.9838
tp2277
a(S'january'
p2278
g425
F0.9736
tp2279
asI211
(lp2280
(S'either'
p2281
g83
F0.5861
tp2282
a(S'january'
p2283
g425
F0.9189
tp2284
a(S'or'
p2285
g219
F0.9828
tp2286
a(S'february'
p2287
g425
F0.9429
tp2288
asI212
(lp2289
(S'so'
p2290
g32
F0.8338
tp2291
a(S'you'
p2292
g7
F0.9997
tp2293
a(S'need'
p2294
g15
F0.9987
tp2295
a(S'to'
p2296
g32
F0.9701
tp2297
a(S'be'
p2298
g15
F0.9989
tp2299
a(S'concentrating'
p2300
g15
F0.9746
tp2301
a(S'very'
p2302
g104
F0.9976
tp2303
a(S'hard'
p2304
g20
F0.9891
tp2305
a(S'on'
p2306
g32
F0.9954
tp2307
a(S'bringing'
p2308
g15
F0.987
tp2309
a(S'those'
p2310
g83
F0.9856
tp2311
a(S'grades'
p2312
g10
F0.993
tp2313
a(S'up'
p2314
g32
F0.4407
tp2315
a(S'and'
p2316
g219
F0.9978
tp2317
a(S'working'
p2318
g15
F0.9979
tp2319
a(S'hard'
p2320
g20
F0.8228
tp2321
a(S'on'
p2322
g32
F0.9987
tp2323
a(S'your'
p2324
g83
F0.995
tp2325
a(S'effort'
p2326
g10
F0.9987
tp2327
a(S'and'
p2328
g219
F0.9985
tp2329
asI213
(lp2330
(S'then'
p2331
g104
F0.9476
tp2332
a(S'we'
p2333
g7
F0.9983
tp2334
a(S'have'
p2335
g15
F0.9978
tp2336
a(S'one'
p2337
g99
F0.9697
tp2338
a(S'in'
p2339
g32
F0.9978
tp2340
a(S'april'
p2341
g425
F0.8625
tp2342
a(g37
g7
F0.9677
tp2343
a(S'think'
p2344
g15
F0.9996
tp2345
asI214
(lp2346
(S'and'
p2347
g219
F0.998
tp2348
a(S'one'
p2349
g99
F0.9674
tp2350
a(S'in'
p2351
g32
F0.9923
tp2352
a(S'june'
p2353
g425
F0.9683
tp2354
asI215
(lp2355
(S'yeah'
p2356
g3
F0.9988
tp2357
asI216
(lp2358
(S'maybe'
p2359
g104
F0.9049
tp2360
a(S'march'
p2361
g425
F0.8008
tp2362
a(S'or'
p2363
g219
F0.9899
tp2364
a(S'maybe'
p2365
g104
F0.9708
tp2366
a(S'june'
p2367
g425
F0.8842
tp2368
asI217
(lp2369
(S'so'
p2370
g104
F0.5368
tp2371
a(g37
g7
F0.993
tp2372
a(S'want'
p2373
g15
F1.0
tp2374
a(S'you'
p2375
g7
F0.9987
tp2376
a(S'to'
p2377
g32
F0.9487
tp2378
a(S'really'
p2379
g104
F0.9735
tp2380
a(S'think'
p2381
g15
F0.9989
tp2382
a(S'when'
p2383
g104
F0.9911
tp2384
a(S'you'
p2385
g7
F0.9924
tp2386
a(S're'
p2387
g15
F0.7411
tp2388
a(S'doing'
p2389
g15
F0.9995
tp2390
a(S'your'
p2391
g83
F0.9947
tp2392
a(S'homework'
p2393
g10
F0.9996
tp2394
asI218
(lp2395
(S'and'
p2396
g219
F0.999
tp2397
a(g37
g7
F0.9862
tp2398
a(g607
g15
F0.9846
tp2399
a(S'at'
p2400
g32
F0.9974
tp2401
a(S'school'
p2402
g10
F0.9815
tp2403
a(S'and'
p2404
g219
F0.997
tp2405
a(S'you'
p2406
g7
F0.9966
tp2407
a(S're'
p2408
g15
F0.5229
tp2409
a(S'and'
p2410
g219
F0.9976
tp2411
a(S'you'
p2412
g7
F0.9966
tp2413
a(S're'
p2414
g15
F0.7454
tp2415
a(S'tryin'
p2416
g15
F0.9383
tp2417
a(g58
g15
F0.501
tp2418
a(S'to'
p2419
g32
F0.9961
tp2420
a(S'get'
p2421
g15
F1.0
tp2422
a(S'your'
p2423
g83
F0.9964
tp2424
a(S'homework'
p2425
g10
F0.9997
tp2426
a(S'done'
p2427
g15
F0.9724
tp2428
a(g37
g7
F0.9927
tp2429
a(S'want'
p2430
g15
F1.0
tp2431
a(S'you'
p2432
g7
F0.9989
tp2433
a(S'to'
p2434
g32
F0.9487
tp2435
a(S'really'
p2436
g104
F0.9866
tp2437
a(S'concentrate'
p2438
g15
F0.9962
tp2439
a(S'on'
p2440
g32
F0.9725
tp2441
a(S'the'
p2442
g83
F0.9997
tp2443
a(S'things'
p2444
g10
F0.9972
tp2445
a(S'we'
p2446
g7
F0.966
tp2447
a(S'talked'
p2448
g15
F0.9997
tp2449
a(S'about'
p2450
g32
F0.8209
tp2451
a(S'at'
p2452
g32
F0.9904
tp2453
a(S'school'
p2454
g10
F0.9919
tp2455
a(S'yesterday'
p2456
g10
F0.8678
tp2457
a(S'like'
p2458
g32
F0.9549
tp2459
a(S'putting'
p2460
g15
F0.9971
tp2461
a(g82
g83
F0.9988
tp2462
a(S'little'
p2463
g20
F0.9495
tp2464
a(S'more'
p2465
g20
F0.9408
tp2466
a(S'effort'
p2467
g10
F0.9965
tp2468
a(S'into'
p2469
g32
F0.9997
tp2470
a(S'it'
p2471
g7
F0.997
tp2472
asI219
(lp2473
(S'and'
p2474
g219
F0.9985
tp2475
a(S'proof'
p2476
g10
F0.7201
tp2477
a(S'reading'
p2478
g15
F0.9991
tp2479
a(S'your'
p2480
g83
F0.9945
tp2481
a(S'papers'
p2482
g10
F0.9972
tp2483
a(S'and'
p2484
g219
F0.9965
tp2485
a(S'double'
p2486
g20
F0.5832
tp2487
a(S'checking'
p2488
g15
F0.9746
tp2489
a(S'your'
p2490
g83
F0.992
tp2491
a(S'math'
p2492
g10
F0.9887
tp2493
a(S'okay'
p2494
g3
F0.807
tp2495
asI220
(lp2496
(S'oh'
p2497
g3
F0.9901
tp2498
a(S'and'
p2499
g219
F0.9991
tp2500
a(S'um'
p2501
g3
F0.7458
tp2502
a(S'um'
p2503
g3
F0.8777
tp2504
a(S'the'
p2505
g83
F0.9977
tp2506
a(S'computer'
p2507
g10
F0.9962
tp2508
a(S'for'
p2509
g32
F1.0
tp2510
a(S'the'
p2511
g83
F0.9993
tp2512
a(S'vehicle'
p2513
g10
F0.9886
tp2514
a(S'called'
p2515
g15
F0.9991
tp2516
a(S'the'
p2517
g83
F0.9956
tp2518
a(S'amazon'
p2519
g425
F0.9705
tp2520
a(S'trail'
p2521
g10
F0.9906
tp2522
asI221
(lp2523
(S'at'
p2524
g32
F0.9959
tp2525
a(S'school'
p2526
g10
F0.991
tp2527
asI222
(lp2528
(S'yep'
p2529
g3
F0.9977
tp2530
asI223
(lp2531
(S'and'
p2532
g219
F0.9994
tp2533
a(S'it'
p2534
g7
F0.9971
tp2535
a(g43
g15
F0.5901
tp2536
a(S'cool'
p2537
g20
F0.9543
tp2538
a(S'because'
p2539
g32
F0.999
tp2540
a(S'what'
p2541
g7
F0.9913
tp2542
a(S'you'
p2543
g7
F0.9996
tp2544
a(S'do'
p2545
g15
F0.9999
tp2546
a(S'if'
p2547
g32
F0.9964
tp2548
a(S'you'
p2549
g7
F0.9985
tp2550
a(S'hunt'
p2551
g15
F0.9498
tp2552
a(S'for'
p2553
g32
F0.9976
tp2554
a(S'food'
p2555
g10
F0.8975
tp2556
a(S'you'
p2557
g7
F0.9954
tp2558
a(S'have'
p2559
g15
F0.9995
tp2560
a(S'to'
p2561
g32
F0.9985
tp2562
a(S'you'
p2563
g7
F0.9951
tp2564
a(S'um'
p2565
g3
F0.5425
tp2566
a(S'look'
p2567
g15
F0.9817
tp2568
a(S'over'
p2569
g32
F0.9811
tp2570
a(S'the'
p2571
g83
F0.9994
tp2572
a(S'side'
p2573
g10
F0.9809
tp2574
a(S'and'
p2575
g219
F0.9968
tp2576
a(S'you'
p2577
g7
F0.9996
tp2578
a(S'have'
p2579
g15
F0.9998
tp2580
a(g82
g83
F0.9525
tp2581
a(g82
g83
F0.9442
tp2582
a(S'spear'
p2583
g10
F0.9957
tp2584
a(S'and'
p2585
g219
F0.9968
tp2586
a(S'you'
p2587
g7
F0.9996
tp2588
a(S'have'
p2589
g15
F0.9995
tp2590
a(S'to'
p2591
g32
F0.9962
tp2592
a(S'try'
p2593
g15
F0.9983
tp2594
a(S'to'
p2595
g32
F0.9906
tp2596
a(S'catch'
p2597
g15
F0.9992
tp2598
a(g82
g83
F0.9971
tp2599
a(S'fish'
p2600
g10
F0.9979
tp2601
asI224
(lp2602
(S'oh'
p2603
g3
F0.9948
tp2604
a(S'my'
p2605
g83
F0.8881
tp2606
a(S'god'
p2607
g10
F0.6984
tp2608
asI225
(lp2609
(S'here'
p2610
g104
F0.8925
tp2611
a(S'it'
p2612
g7
F0.9981
tp2613
a(g43
g15
F0.4861
tp2614
a(S'really'
p2615
g104
F0.9997
tp2616
a(S'hard'
p2617
g20
F0.8692
tp2618
asI226
(lp2619
(g37
g7
F0.9156
tp2620
a(S've'
p2621
g15
F0.8708
tp2622
a(S'caughten'
p2623
g425
F0.4026
tp2624
a(S'n'
p2625
g219
F0.6609
tp2626
a(S'like'
p2627
g32
F0.503
tp2628
a(S'three'
p2629
g99
F0.8844
tp2630
a(S'logs'
p2631
g10
F0.7327
tp2632
asI227
(lp2633
(S'what'
p2634
g7
F0.9931
tp2635
a(S'does'
p2636
g15
F0.9993
tp2637
a(S'the'
p2638
g83
F0.9995
tp2639
a(S'game'
p2640
g10
F0.9987
tp2641
a(S'teach'
p2642
g15
F0.9976
tp2643
a(S'you'
p2644
g7
F0.998
tp2645
asI228
(lp2646
(S'well'
p2647
g3
F0.9235
tp2648
a(S'um'
p2649
g3
F0.8433
tp2650
a(S'there'
p2651
S'X'
p2652
F0.6747
tp2653
a(S'are'
p2654
g15
F0.973
tp2655
a(S'symbols'
p2656
g10
F0.9915
tp2657
a(S'at'
p2658
g32
F0.9999
tp2659
a(S'the'
p2660
g83
F0.9994
tp2661
a(S'bottom'
p2662
g10
F0.7663
tp2663
a(S'where'
p2664
g104
F0.9752
tp2665
a(S'you'
p2666
g7
F0.9995
tp2667
a(S'can'
p2668
g15
F0.9998
tp2669
a(S'like'
p2670
g15
F0.7316
tp2671
a(S'check'
p2672
g15
F0.9547
tp2673
a(S'up'
p2674
g355
F0.9941
tp2675
a(S'on'
p2676
g32
F0.994
tp2677
a(S'your'
p2678
g83
F0.9943
tp2679
a(S'supply'
p2680
g10
F0.993
tp2681
asI229
(lp2682
(S'there'
p2683
g2652
F0.4664
tp2684
a(g43
g301
F0.5167
tp2685
a(S'this'
p2686
g7
F0.8092
tp2687
a(S'really'
p2688
g104
F0.9996
tp2689
a(S'cool'
p2690
g20
F0.9974
tp2691
a(S'one'
p2692
g99
F0.9492
tp2693
a(S'where'
p2694
g104
F0.9407
tp2695
a(S'your'
p2696
g83
F0.9647
tp2697
a(S'boat'
p2698
g10
F0.9912
tp2699
a(S'goes'
p2700
g15
F0.9969
tp2701
a(S'like'
p2702
g32
F0.9369
tp2703
a(S'this'
p2704
g7
F0.8449
tp2705
asI230
(lp2706
(S'0'
p2707
g99
F0.9641
tp2708
a(S'makes'
p2709
g15
F0.9708
tp2710
a(g82
g83
F0.9727
tp2711
a(S'swooshing'
p2712
g10
F0.8958
tp2713
a(S'noise'
p2714
g10
F0.9792
tp2715
asI231
(lp2716
(S'and'
p2717
g219
F0.9989
tp2718
a(S'you'
p2719
g7
F0.9992
tp2720
a(S'turn'
p2721
g15
F0.9985
tp2722
a(S'into'
p2723
g32
F0.9824
tp2724
a(S'the'
p2725
g83
F0.9913
tp2726
a(S'um'
p2727
g425
F0.2996
tp2728
a(S'forest'
p2729
g425
F0.927
tp2730
asI232
(lp2731
(S'and'
p2732
g219
F0.9989
tp2733
a(S'you'
p2734
g7
F0.9994
tp2735
a(S'can'
p2736
g15
F0.9997
tp2737
a(S'take'
p2738
g15
F0.9986
tp2739
a(S'pictures'
p2740
g10
F0.9945
tp2741
a(S'of'
p2742
g32
F0.9984
tp2743
a(S'pe'
p2744
g10
F0.6412
tp2745
a(S'of'
p2746
g32
F0.9904
tp2747
a(S'things'
p2748
g10
F0.9927
tp2749
asI233
(lp2750
(S'mhm'
p2751
g3
F0.9747
tp2752
asI234
(lp2753
(S'and'
p2754
g219
F0.9992
tp2755
a(S'um'
p2756
g3
F0.6558
tp2757
a(S'and'
p2758
g219
F0.9986
tp2759
a(g37
g7
F0.9859
tp2760
a(S'and'
p2761
g219
F0.9945
tp2762
a(S'there'
p2763
g104
F0.8795
tp2764
a(g43
g301
F0.606
tp2765
a(g82
g83
F0.9419
tp2766
a(S'photo'
p2767
g10
F0.9837
tp2768
a(S'album'
p2769
g10
F0.9893
tp2770
asI235
(lp2771
(S'and'
p2772
g219
F0.999
tp2773
a(g37
g7
F0.9928
tp2774
a(S'think'
p2775
g15
F1.0
tp2776
a(S'you'
p2777
g7
F0.9995
tp2778
a(S'need'
p2779
g15
F0.9985
tp2780
a(S'to'
p2781
g32
F0.9875
tp2782
a(S'fill'
p2783
g15
F0.9997
tp2784
a(S'it'
p2785
g7
F0.9924
tp2786
a(S'up'
p2787
g355
F0.98
tp2788
asI236
(lp2789
(g37
g7
F0.9475
tp2790
a(S'ha'
p2791
g3
F0.9297
tp2792
a(g37
g7
F0.9915
tp2793
a(S'barely'
p2794
g104
F0.969
tp2795
a(S'have'
p2796
g15
F0.9996
tp2797
a(S'it'
p2798
g7
F0.9704
tp2799
a(S'all'
p2800
g83
F0.8769
tp2801
a(S'filled'
p2802
g15
F0.9676
tp2803
a(S'up'
p2804
g355
F0.9657
tp2805
asI237
(lp2806
(S'is'
p2807
g15
F0.9993
tp2808
a(S'it'
p2809
g7
F0.9985
tp2810
a(S'like'
p2811
g32
F0.7661
tp2812
a(S'the'
p2813
g83
F0.9908
tp2814
a(S'oregon'
p2815
g425
F0.9917
tp2816
a(S'trail'
p2817
g10
F0.9956
tp2818
asI238
(lp2819
(g82
g83
F0.9953
tp2820
a(S'little'
p2821
g20
F0.9942
tp2822
asI239
(lp2823
(S'you'
p2824
g7
F0.998
tp2825
a(S'have'
p2826
g15
F0.9994
tp2827
a(S'to'
p2828
g32
F0.9974
tp2829
a(S'you'
p2830
g7
F0.9995
tp2831
a(S'have'
p2832
g15
F0.9995
tp2833
a(S'to'
p2834
g32
F0.9963
tp2835
a(S'keep'
p2836
g15
F0.9985
tp2837
a(S'um'
p2838
g3
F0.3125
tp2839
a(S'up'
p2840
g355
F0.862
tp2841
a(S'on'
p2842
g32
F0.996
tp2843
a(S'your'
p2844
g83
F0.9943
tp2845
a(S'supplies'
p2846
g10
F0.9995
tp2847
asI240
(lp2848
(S'mhm'
p2849
g3
F0.9747
tp2850
asI241
(lp2851
(S'um'
p2852
g3
F0.9374
tp2853
a(S'but'
p2854
g219
F0.9919
tp2855
a(S'you'
p2856
g7
F0.9997
tp2857
a(S'have'
p2858
g15
F0.999
tp2859
a(S'just'
p2860
g104
F0.9977
tp2861
a(S'have'
p2862
g15
F0.9812
tp2863
a(S'supplies'
p2864
g10
F0.9973
tp2865
a(S'and'
p2866
g219
F0.9986
tp2867
a(S'it'
p2868
g7
F0.9971
tp2869
a(g43
g15
F0.6726
tp2870
a(S'taking'
p2871
g15
F0.9822
tp2872
a(S'place'
p2873
g10
F0.9712
tp2874
a(S'now'
p2875
g104
F0.992
tp2876
asI242
(lp2877
(S'um'
p2878
g3
F0.8884
tp2879
a(S'it'
p2880
g7
F0.993
tp2881
a(g43
g15
F0.7925
tp2882
a(S'in'
p2883
g32
F0.9385
tp2884
a(g82
g83
F0.9255
tp2885
a(S'w'
p2886
g32
F0.547
tp2887
a(g82
g83
F0.9959
tp2888
a(S'different'
p2889
g20
F0.9945
tp2890
a(S'part'
p2891
g10
F0.9995
tp2892
a(S'of'
p2893
g32
F0.9996
tp2894
a(S'the'
p2895
g83
F0.9991
tp2896
a(S'country'
p2897
g10
F0.9972
tp2898
asI243
(lp2899
(S'the'
p2900
g83
F0.9903
tp2901
a(S'amazon'
p2902
g425
F0.8758
tp2903
asI244
(lp2904
(S'amazon'
p2905
g425
F0.8737
tp2906
asI245
(lp2907
(S'yeah'
p2908
g3
F0.9983
tp2909
a(S'that'
p2910
g7
F0.6675
tp2911
a(g43
g15
F0.4491
tp2912
a(S'not'
p2913
g104
F0.9972
tp2914
a(S'in'
p2915
g32
F0.9892
tp2916
a(S'our'
p2917
g83
F0.9962
tp2918
a(S'country'
p2919
g10
F0.9971
tp2920
asI246
(lp2921
(S'um'
p2922
g3
F0.8295
tp2923
a(g607
g15
F0.4387
tp2924
a(S'but'
p2925
g219
F0.99
tp2926
a(S'it'
p2927
g7
F0.9947
tp2928
a(S'sounds'
p2929
g15
F0.997
tp2930
a(g82
g83
F0.9957
tp2931
a(S'lot'
p2932
g10
F0.899
tp2933
a(S'like'
p2934
g32
F0.9834
tp2935
a(S'the'
p2936
g83
F0.9909
tp2937
a(S'amazon'
p2938
g425
F0.9806
tp2939
a(S'trail'
p2940
g10
F0.9932
tp2941
asI247
(lp2942
(g37
g7
F0.9897
tp2943
a(S'mean'
p2944
g15
F0.9982
tp2945
a(S'the'
p2946
g83
F0.9946
tp2947
a(S'oregon'
p2948
g425
F0.9872
tp2949
a(S'trail'
p2950
g10
F0.9938
tp2951
asI248
(lp2952
(S'you'
p2953
g7
F0.9968
tp2954
a(S'gotta'
p2955
g15
F0.9996
tp2956
a(S'keep'
p2957
g15
F0.9882
tp2958
a(S'albums'
p2959
g10
F0.9846
tp2960
a(S'and'
p2961
g219
F0.9977
tp2962
a(S'figure'
p2963
g15
F0.9414
tp2964
a(S'things'
p2965
g10
F0.972
tp2966
a(S'out'
p2967
g32
F0.7966
tp2968
asI249
(lp2969
(S'well'
p2970
g3
F0.7518
tp2971
a(S'actually'
p2972
g104
F0.9986
tp2973
a(S'in'
p2974
g32
F0.9949
tp2975
a(S'the'
p2976
g83
F0.9917
tp2977
a(S'um'
p2978
g301
F0.5293
tp2979
a(S'you'
p2980
g7
F0.9975
tp2981
a(S'just'
p2982
g104
F0.9998
tp2983
a(S'keep'
p2984
g15
F0.9804
tp2985
a(S'paddling'
p2986
g10
F0.6876
tp2987
asI250
(lp2988
(S'you'
p2989
g7
F0.9983
tp2990
a(S'know'
p2991
g15
F0.9989
tp2992
a(S'watch'
p2993
g15
F0.9861
tp2994
a(S'out'
p2995
g355
F0.8357
tp2996
a(S'for'
p2997
g32
F0.9951
tp2998
a(S'other'
p2999
g20
F0.9978
tp3000
a(S'boats'
p3001
g10
F0.9851
tp3002
a(S'um'
p3003
g3
F0.7991
tp3004
asI251
(lp3005
(S'once'
p3006
g104
F0.9522
tp3007
a(g37
g7
F0.9902
tp3008
a(S'passed'
p3009
g15
F0.9996
tp3010
a(S'through'
p3011
g32
F0.966
tp3012
a(S'fog'
p3013
g10
F0.9751
tp3014
asI252
(lp3015
(S'so'
p3016
g32
F0.8338
tp3017
a(S'you'
p3018
g7
F0.9997
tp3019
a(S'need'
p3020
g15
F0.9987
tp3021
a(S'to'
p3022
g32
F0.9729
tp3023
a(S'be'
p3024
g15
F0.9994
tp3025
a(S'careful'
p3026
g20
F0.9027
tp3027
asI253
(lp3028
(S'and'
p3029
g219
F0.9991
tp3030
a(S'your'
p3031
g83
F0.9075
tp3032
a(S'boat'
p3033
g10
F0.9867
tp3034
a(S'can'
p3035
g15
F0.9946
tp3036
a(S'tip'
p3037
g15
F0.8664
tp3038
a(S'over'
p3039
g32
F0.7753
tp3040
a(S'xxx'
p3041
g1444
F0.7465
tp3042
asI254
(lp3043
(S'and'
p3044
g219
F0.9992
tp3045
a(S'um'
p3046
g3
F0.6624
tp3047
a(S'with'
p3048
g32
F0.9936
tp3049
a(S'that'
p3050
g32
F0.5304
tp3051
a(S'you'
p3052
g7
F0.9977
tp3053
a(S'um'
p3054
g15
F0.4256
tp3055
a(S'with'
p3056
g32
F0.9978
tp3057
a(S'oregon'
p3058
g425
F0.9654
tp3059
a(S'you'
p3060
g7
F0.9933
tp3061
a(S'don'
p3062
g15
F0.8626
tp3063
a(g74
g10
F0.2172
tp3064
a(S'have'
p3065
g15
F0.9978
tp3066
a(S'to'
p3067
g32
F0.9963
tp3068
a(S'keep'
p3069
g15
F0.9991
tp3070
a(S'an'
p3071
g83
F0.997
tp3072
a(S'album'
p3073
g10
F0.999
tp3074
asI255
(lp3075
(S'it'
p3076
g7
F0.996
tp3077
a(S'helps'
p3078
g15
F0.9992
tp3079
a(S'take'
p3080
g15
F0.9437
tp3081
a(S'care'
p3082
g10
F0.8897
tp3083
a(S'of'
p3084
g32
F0.9988
tp3085
a(S'your'
p3086
g83
F0.9937
tp3087
a(S'supply'
p3088
g10
F0.9944
tp3089
a(S'and'
p3090
g219
F0.9984
tp3091
asI256
(lp3092
(S'didn'
p3093
g15
F0.598
tp3094
a(g74
g15
F0.9478
tp3095
a(S'you'
p3096
g7
F0.9996
tp3097
a(S'have'
p3098
g15
F0.9998
tp3099
a(g82
g83
F0.998
tp3100
a(S'diary'
p3101
g10
F0.9994
tp3102
a(S'or'
p3103
g219
F0.9929
tp3104
a(S'something'
p3105
g10
F0.9366
tp3106
a(S'you'
p3107
g7
F0.9967
tp3108
a(S'gotta'
p3109
g15
F0.9996
tp3110
a(S'keep'
p3111
g15
F0.9693
tp3112
asI257
(lp3113
(g82
g83
F0.9637
tp3114
a(S'journal'
p3115
g10
F0.9834
tp3116
a(S'or'
p3117
g219
F0.9908
tp3118
a(S'something'
p3119
g10
F0.993
tp3120
a(S'like'
p3121
g32
F0.852
tp3122
a(S'that'
p3123
g7
F0.9267
tp3124
asI258
(lp3125
(S'no'
p3126
g3
F0.9253
tp3127
asI259
(lp3128
(S'oh'
p3129
g3
F0.9971
tp3130
a(g37
g7
F0.9926
tp3131
a(S'thought'
p3132
g15
F0.9998
tp3133
a(S'you'
p3134
g7
F0.9997
tp3135
a(S'did'
p3136
g15
F0.9991
tp3137
asI260
(lp3138
(S'they'
p3139
g7
F0.9787
tp3140
a(S'keep'
p3141
g15
F0.9896
tp3142
a(S'uh'
p3143
g3
F0.633
tp3144
a(S'one'
p3145
g99
F0.9665
tp3146
a(S'for'
p3147
g32
F0.9998
tp3148
a(S'you'
p3149
g7
F0.9991
tp3150
asI261
(lp3151
(S'hey'
p3152
g3
F0.9908
tp3153
a(S'those'
p3154
g7
F0.754
tp3155
a(S'um'
p3156
g3
F0.7696
tp3157
a(S'that'
p3158
g83
F0.4867
tp3159
a(S'star'
p3160
g10
F0.6311
tp3161
a(S'wars'
p3162
g10
F0.9977
tp3163
a(S'c'
p3164
g32
F0.4409
tp3165
a(g801
g301
F0.4679
tp3166
a(S'compact'
p3167
g20
F0.9219
tp3168
a(S'disc'
p3169
g10
F0.9981
tp3170
a(g169
g15
F0.539
tp3171
a(S'o'
p3172
g32
F0.7415
tp3173
a(g607
g15
F0.7466
tp3174
a(S'that'
p3175
g32
F0.8322
tp3176
a(S'you'
p3177
g7
F0.9997
tp3178
a(S'asked'
p3179
g15
F0.999
tp3180
a(S'for'
p3181
g32
F0.9892
tp3182
asI262
(lp3183
(S'dark'
p3184
g20
F0.6662
tp3185
a(S'forces'
p3186
g10
F0.9259
tp3187
asI263
(lp3188
(S'yeah'
p3189
g3
F0.9988
tp3190
asI264
(lp3191
(S'xxx'
p3192
g1444
F0.8437
tp3193
asI265
(lp3194
(S'well'
p3195
g3
F0.6526
tp3196
a(S'see'
p3197
g15
F0.9835
tp3198
a(S'the'
p3199
g83
F0.9997
tp3200
a(S'thing'
p3201
g10
F0.9986
tp3202
a(S'is'
p3203
g15
F0.9965
tp3204
a(g37
g7
F0.9979
tp3205
a(S'already'
p3206
g104
F0.9963
tp3207
a(S'told'
p3208
g15
F0.9994
tp3209
a(S'the'
p3210
g83
F0.9992
tp3211
a(S'stores'
p3212
g10
F0.9921
tp3213
a(S'that'
p3214
g32
F0.9888
tp3215
a(S'you'
p3216
g7
F0.9997
tp3217
a(S'wanted'
p3218
g15
F0.9993
tp3219
a(S'it'
p3220
g7
F0.9728
tp3221
a(S'but'
p3222
g219
F0.983
tp3223
a(g37
g7
F0.9749
tp3224
a(S'ne'
p3225
g15
F0.4515
tp3226
a(g37
g7
F0.9905
tp3227
a(S'didn'
p3228
g15
F0.9913
tp3229
a(g74
g15
F0.7801
tp3230
a(S'check'
p3231
g15
F0.9938
tp3232
a(S'it'
p3233
g7
F0.9858
tp3234
a(S'out'
p3235
g355
F0.9465
tp3236
asI266
(lp3237
(S'is'
p3238
g15
F0.9993
tp3239
a(S'it'
p3240
g7
F0.9884
tp3241
a(S'nasty'
p3242
g20
F0.9969
tp3243
asI267
(lp3244
(S'is'
p3245
g15
F0.9993
tp3246
a(S'it'
p3247
g7
F0.9985
tp3248
a(S'like'
p3249
g32
F0.7244
tp3250
a(S'those'
p3251
g83
F0.7955
tp3252
a(S'dungeons'
p3253
g10
F0.8847
tp3254
a(S'and'
p3255
g219
F0.9979
tp3256
a(S'dragons'
p3257
g10
F0.9756
tp3258
asI268
(lp3259
(S'no'
p3260
g83
F0.6791
tp3261
a(S'rebel'
p3262
g10
F0.9903
tp3263
asI269
(lp3264
(S'no'
p3265
g83
F0.7763
tp3266
a(S'rebel'
p3267
g10
F0.9782
tp3268
a(S'assault'
p3269
g10
F0.9981
tp3270
a(S'is'
p3271
g15
F0.9963
tp3272
a(S'like'
p3273
g32
F0.7269
tp3274
a(S'that'
p3275
g7
F0.9267
tp3276
asI270
(lp3277
(S'rebel'
p3278
g10
F0.6307
tp3279
a(S'assault'
p3280
g10
F0.9917
tp3281
asI271
(lp3282
(S'is'
p3283
g15
F0.9981
tp3284
a(S'that'
p3285
g7
F0.7297
tp3286
a(g82
g83
F0.989
tp3287
a(S'star'
p3288
g10
F0.6916
tp3289
a(S'wars'
p3290
g10
F0.9942
tp3291
a(S'one'
p3292
g99
F0.9418
tp3293
asI272
(lp3294
(S'yeah'
p3295
g3
F0.9988
tp3296
asI273
(lp3297
(g37
g7
F0.953
tp3298
a(g607
g15
F0.9865
tp3299
a(S'surprised'
p3300
g15
F0.7517
tp3301
a(S'be'
p3302
g15
F0.9813
tp3303
a(S'cause'
p3304
g32
F0.914
tp3305
a(S'it'
p3306
g7
F0.9977
tp3307
a(S'doesn'
p3308
g15
F0.991
tp3309
a(g74
g15
F0.2374
tp3310
a(S'seem'
p3311
g15
F0.9437
tp3312
a(S'like'
p3313
g32
F0.9168
tp3314
a(S'star'
p3315
g10
F0.5195
tp3316
a(S'wars'
p3317
g10
F0.9993
tp3318
a(S'would'
p3319
g15
F0.9972
tp3320
a(S'be'
p3321
g15
F0.9997
tp3322
a(S'too'
p3323
g104
F0.9981
tp3324
a(S'violent'
p3325
g20
F0.9876
tp3326
asI274
(lp3327
(S'no'
p3328
g3
F0.9253
tp3329
asI275
(lp3330
(S'and'
p3331
g219
F0.9977
tp3332
a(S'the'
p3333
g83
F0.999
tp3334
a(S'third'
p3335
g20
F0.9961
tp3336
a(S'one'
p3337
g99
F0.9236
tp3338
a(S'um'
p3339
g3
F0.9172
tp3340
asI276
(lp3341
(S'there'
p3342
g2652
F0.4649
tp3343
a(g43
g301
F0.4608
tp3344
a(S'three'
p3345
g99
F0.8343
tp3346
asI277
(lp3347
(S'yeah'
p3348
g3
F0.9988
tp3349
asI278
(lp3350
(S'three'
p3351
g99
F0.9348
tp3352
a(S'star'
p3353
g10
F0.4828
tp3354
a(S'wars'
p3355
g10
F0.9991
tp3356
a(S'movies'
p3357
g10
F0.9942
tp3358
asI279
(lp3359
(S'oh'
p3360
g3
F0.9975
tp3361
a(S'yeah'
p3362
g3
F0.9997
tp3363
a(S'yeah'
p3364
g3
F0.9984
tp3365
a(S'yeah'
p3366
g3
F0.9979
tp3367
asI280
(lp3368
(S'movies'
p3369
g10
F0.9652
tp3370
asI281
(lp3371
(S'and'
p3372
g219
F0.9992
tp3373
a(S'um'
p3374
g3
F0.5316
tp3375
a(S'princess'
p3376
g10
F0.5742
tp3377
a(S'leah'
p3378
g425
F0.7275
tp3379
a(S'was'
p3380
g15
F0.9927
tp3381
a(S'trapped'
p3382
g15
F0.9851
tp3383
a(S'in'
p3384
g32
F0.9258
tp3385
a(S'jabba'
p3386
g425
F0.9248
tp3387
a(g43
g301
F0.5246
tp3388
a(S'jabba'
p3389
g15
F0.4747
tp3390
a(S'the'
p3391
g83
F0.9996
tp3392
a(S'hut'
p3393
g10
F0.9964
tp3394
a(S'um'
p3395
g301
F0.4234
tp3396
a(S'palace'
p3397
g10
F0.6123
tp3398
a(S'and'
p3399
g219
F0.9973
tp3400
a(S'she'
p3401
g7
F0.9976
tp3402
a(S'strangled'
p3403
g15
F0.9997
tp3404
a(S'him'
p3405
g7
F0.9784
tp3406
a(S'laughs'
p3407
g15
F0.9764
tp3408
asI282
(lp3409
(S'and'
p3410
g219
F0.999
tp3411
a(S'she'
p3412
g7
F0.996
tp3413
a(S'what'
p3414
g7
F0.9832
tp3415
asI283
(lp3416
(S'she'
p3417
g7
F0.9962
tp3418
a(S'pulled'
p3419
g15
F0.9993
tp3420
a(S'the'
p3421
g83
F0.9996
tp3422
a(S'chain'
p3423
g10
F0.9989
tp3424
a(S'so'
p3425
g104
F0.9222
tp3426
a(S'far'
p3427
g104
F0.9321
tp3428
asI284
(lp3429
(S'yeah'
p3430
g3
F0.9988
tp3431
asI285
(lp3432
(S'ha'
p3433
g3
F0.9717
tp3434
a(S'hard'
p3435
g20
F0.9394
tp3436
asI286
(lp3437
(S'it'
p3438
g7
F0.9956
tp3439
a(S'was'
p3440
g15
F0.9987
tp3441
a(S'connected'
p3442
g20
F0.7644
tp3443
a(S'to'
p3444
g32
F0.9992
tp3445
a(S'him'
p3446
g7
F0.9873
tp3447
asI287
(lp3448
(S'uhhuh'
p3449
g3
F0.9892
tp3450
asI288
(lp3451
(S'and'
p3452
g219
F0.999
tp3453
a(S'she'
p3454
g7
F0.9976
tp3455
a(S'yanked'
p3456
g15
F0.9998
tp3457
a(S'him'
p3458
g7
F0.9905
tp3459
a(S'off'
p3460
g32
F0.7102
tp3461
a(S'his'
p3462
g83
F0.9901
tp3463
a(S'um'
p3464
g301
F0.5988
tp3465
a(S'catapult'
p3466
g15
F0.9542
tp3467
a(S'that'
p3468
g32
F0.9498
tp3469
a(S'he'
p3470
g7
F0.9907
tp3471
a(S'um'
p3472
g15
F0.3127
tp3473
a(S'died'
p3474
g15
F0.9775
tp3475
asI289
(lp3476
(S'that'
p3477
g7
F0.4727
tp3478
a(g43
g15
F0.3914
tp3479
a(S'gross'
p3480
g20
F0.9755
tp3481
asI290
(lp3482
(S'but'
p3483
g219
F0.9929
tp3484
a(S'but'
p3485
g219
F0.9921
tp3486
a(S'um'
p3487
g3
F0.6486
tp3488
a(S'but'
p3489
g219
F0.9817
tp3490
a(S'dark'
p3491
g20
F0.8046
tp3492
a(S'forces'
p3493
g10
F0.8643
tp3494
a(S'isn'
p3495
g301
F0.4883
tp3496
a(g74
g301
F0.739
tp3497
a(S'anything'
p3498
g10
F0.9554
tp3499
a(S'like'
p3500
g32
F0.9282
tp3501
a(S'that'
p3502
g7
F0.9179
tp3503
asI291
(lp3504
(S'well'
p3505
g3
F0.7553
tp3506
a(S'it'
p3507
g7
F0.9988
tp3508
a(S'can'
p3509
g15
F0.9983
tp3510
a(g74
g15
F0.8461
tp3511
a(S'be'
p3512
g15
F0.9934
tp3513
a(S'as'
p3514
g104
F0.919
tp3515
a(S'bad'
p3516
g20
F0.9922
tp3517
a(S'as'
p3518
g32
F0.9808
tp3519
a(S'what'
p3520
g7
F0.9894
tp3521
a(g37
g7
F0.9963
tp3522
a(S'was'
p3523
g15
F0.9999
tp3524
a(S'reading'
p3525
g15
F0.995
tp3526
a(S'about'
p3527
g32
F0.7341
tp3528
a(S'on'
p3529
g32
F0.9951
tp3530
a(S'the'
p3531
g83
F0.9904
tp3532
a(S'back'
p3533
g10
F0.921
tp3534
a(S'of'
p3535
g32
F0.9978
tp3536
a(S'those'
p3537
g83
F0.5697
tp3538
a(S'um'
p3539
g301
F0.3889
tp3540
a(S'dungeons'
p3541
g10
F0.4604
tp3542
a(S'and'
p3543
g219
F0.998
tp3544
a(S'dragons'
p3545
g10
F0.9641
tp3546
a(S'games'
p3547
g10
F0.9426
tp3548
asI292
(lp3549
(S'my'
p3550
g83
F0.9779
tp3551
a(S'god'
p3552
g10
F0.6063
tp3553
a(S'that'
p3554
g32
F0.8078
tp3555
a(S'one'
p3556
g99
F0.7676
tp3557
a(S'called'
p3558
g15
F0.9814
tp3559
a(S'hacksand'
p3560
g425
F0.4736
tp3561
a(S'have'
p3562
g15
F0.9992
tp3563
a(S'you'
p3564
g7
F0.9995
tp3565
a(S'heard'
p3566
g15
F0.9985
tp3567
a(S'of'
p3568
g32
F0.9862
tp3569
a(S'that'
p3570
g7
F0.7839
tp3571
asI293
(lp3572
(S'yeah'
p3573
g3
F0.9968
tp3574
a(g37
g7
F0.991
tp3575
a(S'didn'
p3576
g15
F0.9915
tp3577
a(g74
g15
F0.7857
tp3578
a(S'mean'
p3579
g15
F0.964
tp3580
a(S'that'
p3581
g7
F0.4031
tp3582
a(g37
g7
F0.9899
tp3583
a(S'just'
p3584
g104
F0.9996
tp3585
a(S'wanted'
p3586
g15
F0.9918
tp3587
a(S'to'
p3588
g32
F0.9676
tp3589
asI294
(lp3590
(S'this'
p3591
g83
F0.9849
tp3592
a(S'guy'
p3593
g10
F0.9882
tp3594
a(S'almost'
p3595
g104
F0.9973
tp3596
a(S'convinced'
p3597
g15
F0.9773
tp3598
a(S'me'
p3599
g7
F0.9979
tp3600
a(S'to'
p3601
g32
F0.9869
tp3602
a(S'buy'
p3603
g15
F0.9997
tp3604
a(S'it'
p3605
g7
F0.9952
tp3606
a(S'at'
p3607
g32
F0.9988
tp3608
a(S'the'
p3609
g83
F0.9993
tp3610
a(S'computer'
p3611
g10
F0.9935
tp3612
a(S'store'
p3613
g10
F0.9528
tp3614
asI295
(lp3615
(g37
g7
F0.9902
tp3616
a(S'want'
p3617
g15
F0.9996
tp3618
asI296
(lp3619
(S'hacksand'
p3620
g3
F0.3625
tp3621
asI297
(lp3622
(S'my'
p3623
g83
F0.9779
tp3624
a(S'god'
p3625
g10
F0.8125
tp3626
a(g37
g7
F0.9409
tp3627
a(S'read'
p3628
g15
F0.9999
tp3629
a(S'the'
p3630
g83
F0.9811
tp3631
a(S'back'
p3632
g10
F0.921
tp3633
a(S'of'
p3634
g32
F0.9966
tp3635
a(S'it'
p3636
g7
F0.9986
tp3637
a(S'and'
p3638
g219
F0.9962
tp3639
a(S'it'
p3640
g7
F0.9986
tp3641
a(S'was'
p3642
g15
F0.9995
tp3643
a(S'like'
p3644
g32
F0.7653
tp3645
a(S'your'
p3646
g83
F0.9878
tp3647
a(S'friends'
p3648
g10
F0.9837
tp3649
a(g43
g301
F0.6443
tp3650
a(S'dead'
p3651
g20
F0.9871
tp3652
a(S'corpses'
p3653
g10
F0.9945
tp3654
a(S'are'
p3655
g15
F0.9926
tp3656
a(S'everywhere'
p3657
g104
F0.9956
tp3658
asI298
(lp3659
(S'blood'
p3660
g10
F0.8381
tp3661
a(S'and'
p3662
g219
F0.9964
tp3663
a(S'gore'
p3664
g15
F0.6544
tp3665
a(S'spew'
p3666
g10
F0.7494
tp3667
asI299
(lp3668
(S'ugh'
p3669
g3
F0.9949
tp3670
asI300
(lp3671
(S'it'
p3672
g7
F0.9956
tp3673
a(S'was'
p3674
g15
F0.9995
tp3675
a(S'like'
p3676
g104
F0.4352
tp3677
a(S'ugh'
p3678
g3
F0.824
tp3679
asI301
(lp3680
(g37
g7
F0.9583
tp3681
a(g37
g7
F0.9145
tp3682
a(S've'
p3683
g15
F0.865
tp3684
a(S'never'
p3685
g104
F0.9967
tp3686
a(S'even'
p3687
g104
F0.9922
tp3688
a(S'heard'
p3689
g15
F0.9959
tp3690
a(S'of'
p3691
g32
F0.9859
tp3692
a(S'that'
p3693
g7
F0.8449
tp3694
asI302
(lp3695
(S'uh'
p3696
g3
F0.9889
tp3697
a(S'what'
p3698
g7
F0.9694
tp3699
a(g37
g7
F0.9928
tp3700
a(S'wanted'
p3701
g15
F0.9982
tp3702
a(S'is'
p3703
g15
F0.9923
tp3704
a(S'just'
p3705
g104
F0.9994
tp3706
a(S'dungeons'
p3707
g20
F0.3332
tp3708
a(S'and'
p3709
g219
F0.9971
tp3710
a(S'dragons'
p3711
g10
F0.9741
tp3712
a(S'advanced'
p3713
g15
F0.7695
tp3714
asI303
(lp3715
(S'it'
p3716
g7
F0.9858
tp3717
a(g43
g15
F0.5538
tp3718
a(S'nasty'
p3719
g20
F0.9932
tp3720
asI304
(lp3721
(S'well'
p3722
g3
F0.8388
tp3723
a(S'you'
p3724
g7
F0.9986
tp3725
a(S'ca'
p3726
g15
F0.7989
tp3727
asI305
(lp3728
(S'that'
p3729
g7
F0.6972
tp3730
a(S'doesn'
p3731
g15
F0.9843
tp3732
a(g74
g10
F0.2695
tp3733
a(S'have'
p3734
g15
F0.9961
tp3735
a(S'as'
p3736
g104
F0.756
tp3737
a(S'much'
p3738
g104
F0.6147
tp3739
a(S'gruesome'
p3740
g20
F0.9966
tp3741
asI306
(lp3742
(S'well'
p3743
g3
F0.8573
tp3744
a(g37
g7
F0.9974
tp3745
a(S'asked'
p3746
g15
F0.9999
tp3747
a(S'whether'
p3748
g32
F0.78
tp3749
a(S'it'
p3750
g7
F0.9762
tp3751
a(S'any'
p3752
g83
F0.8176
tp3753
a(S'of'
p3754
g32
F0.9985
tp3755
a(S'the'
p3756
g83
F0.9945
tp3757
a(g801
g425
F0.5663
tp3758
a(S'and'
p3759
g219
F0.9956
tp3760
a(g801
g425
F0.2333
tp3761
a(S'dungeons'
p3762
g425
F0.793
tp3763
a(S'and'
p3764
g219
F0.9982
tp3765
a(S'dragons'
p3766
g10
F0.9577
tp3767
a(S'games'
p3768
g10
F0.9419
tp3769
a(S'were'
p3770
g15
F0.9906
tp3771
a(S'not'
p3772
g104
F0.9969
tp3773
a(S'so'
p3774
g104
F0.9387
tp3775
a(S'violent'
p3776
g20
F0.9729
tp3777
a(S'and'
p3778
g219
F0.9979
tp3779
a(S'they'
p3780
g7
F0.9966
tp3781
a(S'said'
p3782
g15
F0.9997
tp3783
a(S'they'
p3784
g7
F0.9761
tp3785
a(S're'
p3786
g15
F0.9508
tp3787
a(S'all'
p3788
g83
F0.9498
tp3789
a(S'violent'
p3790
g20
F0.9677
tp3791
asI307
(lp3792
(S'be'
p3793
g15
F0.9727
tp3794
a(S'cause'
p3795
g32
F0.7105
tp3796
a(g37
g7
F0.996
tp3797
a(S'know'
p3798
g15
F0.9994
tp3799
a(S'jamie'
p3800
g425
F0.9994
tp3801
a(S'had'
p3802
g15
F0.9959
tp3803
a(S'looked'
p3804
g15
F0.9757
tp3805
a(S'for'
p3806
g32
F0.9962
tp3807
a(S'games'
p3808
g10
F0.9594
tp3809
a(S'for'
p3810
g32
F0.9999
tp3811
a(S'you'
p3812
g7
F0.9994
tp3813
a(S'too'
p3814
g104
F0.9384
tp3815
a(S'that'
p3816
g7
F0.4632
tp3817
a(g43
g15
F0.6686
tp3818
a(S'about'
p3819
g32
F0.9702
tp3820
a(S'adventuring'
p3821
g10
F0.9308
tp3822
a(S'but'
p3823
g219
F0.9879
tp3824
a(S'not'
p3825
g104
F0.999
tp3826
a(S'you'
p3827
g7
F0.9995
tp3828
a(S'know'
p3829
g15
F0.9993
tp3830
a(S'with'
p3831
g32
F0.9984
tp3832
a(S'all'
p3833
g83
F0.601
tp3834
a(S'the'
p3835
g83
F0.9992
tp3836
a(S'nasty'
p3837
g20
F0.9941
tp3838
a(S'blood'
p3839
g10
F0.9895
tp3840
a(S'and'
p3841
g219
F0.9986
tp3842
a(S'guts'
p3843
g10
F0.9881
tp3844
a(S'and'
p3845
g219
F0.997
tp3846
a(S'all'
p3847
g83
F0.5488
tp3848
a(S'that'
p3849
g7
F0.5359
tp3850
a(S'so'
p3851
g32
F0.783
tp3852
a(S'we'
p3853
g7
F0.9884
tp3854
a(S'haven'
p3855
g15
F0.4656
tp3856
a(g74
g301
F0.3079
tp3857
a(S'been'
p3858
g15
F0.9728
tp3859
a(S'able'
p3860
g20
F0.8888
tp3861
a(S'to'
p3862
g32
F0.9989
tp3863
a(S'find'
p3864
g15
F0.9993
tp3865
a(S'one'
p3866
g99
F0.8399
tp3867
asI308
(lp3868
(S'but'
p3869
g219
F0.9856
tp3870
a(S'dark'
p3871
g20
F0.8669
tp3872
a(S'forces'
p3873
g10
F0.8809
tp3874
a(S'isn'
p3875
g301
F0.4377
tp3876
a(g74
g301
F0.7056
tp3877
a(S'like'
p3878
g32
F0.8626
tp3879
a(S'that'
p3880
g7
F0.8974
tp3881
asI309
(lp3882
(S'can'
p3883
g15
F0.9627
tp3884
a(g74
g15
F0.9529
tp3885
a(S'you'
p3886
g7
F0.999
tp3887
a(S'just'
p3888
g104
F0.9996
tp3889
a(S'stick'
p3890
g15
F0.9933
tp3891
a(S'to'
p3892
g32
F0.9942
tp3893
a(S'math'
p3894
g10
F0.7013
tp3895
a(S'blaster'
p3896
g10
F0.9719
tp3897
a(S'or'
p3898
g219
F0.9933
tp3899
a(S'something'
p3900
g10
F0.9928
tp3901
a(S'laughs'
p3902
g15
F0.994
tp3903
a(S'like'
p3904
g32
F0.6731
tp3905
a(S'like'
p3906
g32
F0.6968
tp3907
a(S'that'
p3908
g7
F0.9298
tp3909
asI310
(lp3910
(S'yeah'
p3911
g3
F0.9938
tp3912
a(S'math'
p3913
g10
F0.8664
tp3914
a(S'blaster'
p3915
g10
F0.9715
tp3916
asI311
(lp3917
(S'save'
p3918
g15
F0.9486
tp3919
a(S'spot'
p3920
g10
F0.9753
tp3921
a(S'from'
p3922
g32
F0.9999
tp3923
a(S'the'
p3924
g83
F0.9996
tp3925
a(S'evil'
p3926
g20
F0.8879
tp3927
a(S'slug'
p3928
g10
F0.9989
tp3929
asI312
(lp3930
(S'laughs'
p3931
g15
F0.9102
tp3932
asI313
(lp3933
(S'xxx'
p3934
g1444
F0.6854
tp3935
a(S'laughs'
p3936
g15
F0.948
tp3937
asI314
(lp3938
(S'evil'
p3939
g20
F0.8946
tp3940
a(S'what'
p3941
g7
F0.971
tp3942
asI315
(lp3943
(S'slug'
p3944
g10
F0.9666
tp3945
asI316
(lp3946
(S'slug'
p3947
g10
F0.9666
tp3948
asI317
(lp3949
(S'laughs'
p3950
g15
F0.9102
tp3951
asI318
(lp3952
(S'that'
p3953
g7
F0.7305
tp3954
a(S'would'
p3955
g15
F0.9992
tp3956
a(S'be'
p3957
g15
F0.9999
tp3958
a(S'an'
p3959
g83
F0.9887
tp3960
a(S'adventure'
p3961
g10
F0.9977
tp3962
asI319
(lp3963
(S'laughs'
p3964
g15
F0.9102
tp3965
asI320
(lp3966
(S'oh'
p3967
g3
F0.9878
tp3968
a(S'you'
p3969
g7
F0.948
tp3970
a(S're'
p3971
g15
F0.7717
tp3972
a(S'sarcastic'
p3973
g20
F0.9928
tp3974
asI321
(lp3975
(S'oh'
p3976
g3
F0.9878
tp3977
a(S'you'
p3978
g7
F0.9515
tp3979
a(S're'
p3980
g15
F0.8084
tp3981
a(S'back'
p3982
g104
F0.9166
tp3983
a(S'again'
p3984
g104
F0.987
tp3985
a(S'aren'
p3986
g425
F0.3409
tp3987
a(g74
g15
F0.3733
tp3988
a(S'you'
p3989
g7
F0.9978
tp3990
a(S'toby'
p3991
g425
F0.607
tp3992
a(S'lee'
p3993
g425
F0.9966
tp3994
asI322
(lp3995
(S'oh'
p3996
g3
F0.9814
tp3997
a(S'pet'
p3998
g10
F0.4267
tp3999
a(S'me'
p4000
g7
F0.9364
tp4001
a(S'mommy'
p4002
g10
F0.4362
tp4003
a(S'pet'
p4004
g10
F0.4858
tp4005
a(S'me'
p4006
g7
F0.9862
tp4007
asI323
(lp4008
(S'look'
p4009
g15
F0.9135
tp4010
a(S'at'
p4011
g32
F0.9994
tp4012
a(S'the'
p4013
g83
F0.9996
tp4014
a(S'way'
p4015
g10
F0.9427
tp4016
a(S'like'
p4017
g32
F0.9226
tp4018
a(S'when'
p4019
g104
F0.9765
tp4020
a(S'you'
p4021
g7
F0.9677
tp4022
a(S'pet'
p4023
g15
F0.7094
tp4024
a(S'her'
p4025
g7
F0.5751
tp4026
a(S'she'
p4027
g7
F0.9853
tp4028
a(S'like'
p4029
g32
F0.3813
tp4030
a(S'totally'
p4031
g104
F0.9971
tp4032
a(S'almost'
p4033
g104
F0.9947
tp4034
a(S'sits'
p4035
g15
F0.9943
tp4036
a(S'on'
p4037
g32
F0.9504
tp4038
a(S'you'
p4039
g7
F0.9989
tp4040
asI324
(lp4041
(S'yeah'
p4042
g3
F0.9988
tp4043
asI325
(lp4044
(S'you'
p4045
g7
F0.9754
tp4046
a(S're'
p4047
g15
F0.9434
tp4048
a(g82
g83
F0.9888
tp4049
a(S'good'
p4050
g20
F0.9976
tp4051
a(S'dog'
p4052
g10
F0.999
tp4053
asI326
(lp4054
(S'yes'
p4055
g3
F0.9836
tp4056
a(S'you'
p4057
g7
F0.9964
tp4058
a(S'are'
p4059
g15
F0.9991
tp4060
asI327
(lp4061
(S'oh'
p4062
g3
F0.9951
tp4063
a(S'she'
p4064
g7
F0.9917
tp4065
a(S'xxx'
p4066
g15
F0.9058
tp4067
a(S'me'
p4068
g7
F0.9982
tp4069
asI328
(lp4070
(S'isn'
p4071
g301
F0.4973
tp4072
a(g74
g301
F0.8174
tp4073
a(S'she'
p4074
g7
F0.9902
tp4075
asI329
(lp4076
(S'no'
p4077
g3
F0.8403
tp4078
a(S'she'
p4079
g7
F0.9894
tp4080
a(g43
g301
F0.4742
tp4081
a(S'so'
p4082
g104
F0.5812
tp4083
a(S'tired'
p4084
g20
F0.8269
tp4085
a(S'this'
p4086
g83
F0.9884
tp4087
a(S'morning'
p4088
g10
F0.9946
tp4089
asI330
(lp4090
(S'that'
p4091
g7
F0.473
tp4092
a(g43
g301
F0.4197
tp4093
a(S'how'
p4094
g104
F0.9822
tp4095
a(S'come'
p4096
g15
F0.9968
tp4097
a(S'she'
p4098
g7
F0.9979
tp4099
a(S'looks'
p4100
g15
F0.9968
tp4101
a(S'so'
p4102
g104
F0.9482
tp4103
a(S'cute'
p4104
g20
F0.9981
tp4105
asI331
(lp4106
(S'yes'
p4107
g3
F0.9958
tp4108
asI332
(lp4109
(S'and'
p4110
g219
F0.9982
tp4111
a(S'small'
p4112
g20
F0.9701
tp4113
a(S'laughs'
p4114
g10
F0.7311
tp4115
asI333
(lp4116
(S'you'
p4117
g7
F0.9983
tp4118
a(S'know'
p4119
g15
F0.9995
tp4120
a(S'we'
p4121
g7
F0.9943
tp4122
a(S're'
p4123
g15
F0.6651
tp4124
a(S'having'
p4125
g15
F0.9997
tp4126
a(S'our'
p4127
g83
F0.9981
tp4128
a(S'big'
p4129
g20
F0.9723
tp4130
a(S'christmas'
p4131
g425
F0.7001
tp4132
a(S'dinner'
p4133
g10
F0.9352
tp4134
a(S'this'
p4135
g83
F0.9124
tp4136
a(S'saturday'
p4137
g425
F0.868
tp4138
a(S'and'
p4139
g219
F0.9986
tp4140
a(S'jen'
p4141
g425
F0.9772
tp4142
a(S'and'
p4143
g219
F0.9986
tp4144
a(S'martin'
p4145
g425
F0.9866
tp4146
a(S'are'
p4147
g15
F0.9846
tp4148
a(S'gonna'
p4149
g15
F0.9865
tp4150
a(S'come'
p4151
g15
F0.9991
tp4152
asI334
(lp4153
(S'oh'
p4154
g3
F0.9932
tp4155
a(S'are'
p4156
g15
F0.9909
tp4157
a(S'they'
p4158
g7
F0.9962
tp4159
a(S'gonna'
p4160
g15
F0.9997
tp4161
a(S'stay'
p4162
g15
F0.9959
tp4163
a(S'for'
p4164
g32
F0.9953
tp4165
a(S'christmas'
p4166
g425
F0.9537
tp4167
asI335
(lp4168
(S'for'
p4169
g32
F0.997
tp4170
a(S'christmas'
p4171
g425
F0.9157
tp4172
a(S'dinner'
p4173
g10
F0.976
tp4174
asI336
(lp4175
(S'oh'
p4176
g3
F0.9959
tp4177
a(S'they'
p4178
g7
F0.9579
tp4179
a(S're'
p4180
g15
F0.7455
tp4181
a(S'not'
p4182
g104
F0.9967
tp4183
a(S'gonna'
p4184
g15
F0.9982
tp4185
a(S'stay'
p4186
g15
F0.986
tp4187
asI337
(lp4188
(S'not'
p4189
g104
F0.9864
tp4190
a(S'un'
p4191
g301
F0.4792
tp4192
a(S'til'
p4193
g32
F0.9658
tp4194
a(S'the'
p4195
g83
F0.9993
tp4196
a(S'morning'
p4197
g10
F0.9946
tp4198
a(S'no'
p4199
g3
F0.6503
tp4200
asI338
(lp4201
(S'oh'
p4202
g3
F0.9959
tp4203
a(S'then'
p4204
g104
F0.9069
tp4205
a(S'are'
p4206
g15
F0.9887
tp4207
a(S'we'
p4208
g7
F0.9979
tp4209
a(S'ca'
p4210
g15
F0.9688
tp4211
a(S'open'
p4212
g15
F0.4861
tp4213
a(S'christmas'
p4214
g425
F0.9902
tp4215
asI339
(lp4216
(S'are'
p4217
g15
F0.9732
tp4218
a(S'are'
p4219
g15
F0.9844
tp4220
a(S'we'
p4221
g7
F0.9921
tp4222
a(S'all'
p4223
g83
F0.4167
tp4224
a(S'gonna'
p4225
g15
F0.9804
tp4226
a(S'open'
p4227
g15
F0.9817
tp4228
a(S'like'
p4229
g32
F0.9758
tp4230
a(S'one'
p4231
g99
F0.9384
tp4232
a(S'christmas'
p4233
g425
F0.6572
tp4234
a(S'present'
p4235
g20
F0.4535
tp4236
a(S'that'
p4237
g32
F0.9793
tp4238
a(S'we'
p4239
g7
F0.9979
tp4240
a(S'get'
p4241
g15
F0.9993
tp4242
asI340
(lp4243
(S'well'
p4244
g3
F0.5568
tp4245
a(S'here'
p4246
g104
F0.9554
tp4247
a(g43
g301
F0.8487
tp4248
asI341
(lp4249
(S'they'
p4250
g7
F0.9926
tp4251
a(S'have'
p4252
g15
F0.9997
tp4253
a(S'presents'
p4254
g15
F0.8487
tp4255
a(S'under'
p4256
g32
F0.9975
tp4257
a(S'the'
p4258
g83
F0.9993
tp4259
a(S'tree'
p4260
g10
F0.9964
tp4261
asI342
(lp4262
(S'okay'
p4263
g3
F0.906
tp4264
a(S'here'
p4265
g104
F0.9567
tp4266
a(g43
g301
F0.8527
tp4267
a(S'the'
p4268
g83
F0.9987
tp4269
a(S'thing'
p4270
g10
F0.9983
tp4271
asI343
(lp4272
(S'here'
p4273
g104
F0.9382
tp4274
a(g43
g301
F0.7954
tp4275
a(S'the'
p4276
g83
F0.9988
tp4277
a(S'thing'
p4278
g10
F0.9989
tp4279
asI344
(lp4280
(S'alright'
p4281
g3
F0.9531
tp4282
a(g37
g7
F0.9845
tp4283
a(g607
g15
F0.9644
tp4284
a(S'gonna'
p4285
g15
F0.9951
tp4286
a(S'give'
p4287
g15
F0.9999
tp4288
a(S'them'
p4289
g7
F0.9353
tp4290
a(S'their'
p4291
g83
F0.9866
tp4292
a(S'present'
p4293
g10
F0.4925
tp4294
a(S'okay'
p4295
g20
F0.5397
tp4296
a(S'and'
p4297
g219
F0.9968
tp4298
a(S'if'
p4299
g32
F0.9922
tp4300
a(S'they'
p4301
g7
F0.9961
tp4302
a(S'bring'
p4303
g15
F0.9999
tp4304
a(S'any'
p4305
g83
F0.941
tp4306
a(S'presents'
p4307
g15
F0.9623
tp4308
a(S'you'
p4309
g7
F0.9985
tp4310
a(S'can'
p4311
g15
F0.9997
tp4312
a(S'open'
p4313
g15
F0.9982
tp4314
a(S'them'
p4315
g7
F0.9304
tp4316
a(S'but'
p4317
g219
F0.9754
tp4318
a(S'you'
p4319
g7
F0.9995
tp4320
a(S'can'
p4321
g15
F0.9993
tp4322
a(g74
g15
F0.8834
tp4323
a(S'open'
p4324
g15
F0.8785
tp4325
a(S'any'
p4326
g83
F0.8894
tp4327
a(S'of'
p4328
g32
F0.9985
tp4329
a(S'the'
p4330
g83
F0.9996
tp4331
a(S'ones'
p4332
g10
F0.988
tp4333
a(g37
g7
F0.8189
tp4334
a(g607
g15
F0.9824
tp4335
a(S'giving'
p4336
g15
F0.9994
tp4337
a(S'you'
p4338
g7
F0.9975
tp4339
a(S'you'
p4340
g7
F0.9953
tp4341
a(S'know'
p4342
g15
F0.9988
tp4343
a(S'why'
p4344
g104
F0.9322
tp4345
asI345
(lp4346
(S'be'
p4347
g15
F0.9727
tp4348
a(S'cause'
p4349
g32
F0.9636
tp4350
a(S'we'
p4351
g7
F0.995
tp4352
a(S're'
p4353
g15
F0.5432
tp4354
a(S'just'
p4355
g104
F0.9994
tp4356
a(S'having'
p4357
g15
F0.9998
tp4358
a(g82
g83
F0.9973
tp4359
a(S'mini'
p4360
g10
F0.5599
tp4361
a(S'ature'
p4362
g10
F0.3906
tp4363
a(S'christmas'
p4364
g425
F0.3786
tp4365
a(S'here'
p4366
g104
F0.9689
tp4367
a(S'at'
p4368
g32
F0.9992
tp4369
a(S'our'
p4370
g83
F0.9982
tp4371
a(S'house'
p4372
g10
F0.9854
tp4373
asI346
(lp4374
(g37
g7
F0.953
tp4375
a(g607
g15
F0.9784
tp4376
a(S'not'
p4377
g104
F0.9941
tp4378
a(S'getting'
p4379
g15
F0.9998
tp4380
a(S'you'
p4381
g7
F0.9982
tp4382
a(S'the'
p4383
g83
F0.9987
tp4384
a(S'five'
p4385
g99
F0.6577
tp4386
a(S'thousand'
p4387
g99
F0.5002
tp4388
a(S'presents'
p4389
g10
F0.5356
tp4390
a(g37
g7
F0.9395
tp4391
a(S'usually'
p4392
g104
F0.9987
tp4393
a(S'get'
p4394
g15
F0.9998
tp4395
a(S'you'
p4396
g7
F0.9994
tp4397
a(S'for'
p4398
g32
F0.9943
tp4399
a(S'christmas'
p4400
g425
F0.9246
tp4401
a(S'okay'
p4402
g3
F0.783
tp4403
asI347
(lp4404
(g37
g7
F0.9912
tp4405
a(S'know'
p4406
g15
F0.9989
tp4407
asI348
(lp4408
(S'coughs'
p4409
g10
F0.5349
tp4410
asI349
(lp4411
(S'that'
p4412
g32
F0.5147
tp4413
a(S'santa'
p4414
g425
F0.9922
tp4415
a(S'brings'
p4416
g15
F0.9854
tp4417
asI350
(lp4418
(S'because'
p4419
g32
F0.9981
tp4420
a(S'we'
p4421
g7
F0.9972
tp4422
a(S're'
p4423
g15
F0.6554
tp4424
a(S'going'
p4425
g15
F0.9987
tp4426
a(S'down'
p4427
g355
F0.5115
tp4428
a(S'to'
p4429
g32
F0.9974
tp4430
a(S'florida'
p4431
g425
F0.9768
tp4432
asI351
(lp4433
(S'okay'
p4434
g3
F0.9857
tp4435
asI352
(lp4436
(S'florida'
p4437
g425
F0.9337
tp4438
asI353
(lp4439
(S'santa'
p4440
g425
F0.9955
tp4441
a(g43
g301
F0.5016
tp4442
a(S'coming'
p4443
g15
F0.9956
tp4444
a(S'to'
p4445
g32
F0.9944
tp4446
a(S'florida'
p4447
g425
F0.9698
tp4448
asI354
(lp4449
(S'yeah'
p4450
g3
F0.9988
tp4451
asI355
(lp4452
(S'and'
p4453
g219
F0.9994
tp4454
a(S'it'
p4455
g7
F0.9971
tp4456
a(g43
g15
F0.5747
tp4457
a(S'called'
p4458
g15
F0.9996
tp4459
a(S'your'
p4460
g83
F0.9895
tp4461
a(S'grandparents'
p4462
g10
F0.9919
tp4463
a(S'okay'
p4464
g3
F0.838
tp4465
asI356
(lp4466
(S'coughs'
p4467
g10
F0.5349
tp4468
asI357
(lp4469
(S'yeah'
p4470
g3
F0.9945
tp4471
a(S'laughs'
p4472
g15
F0.9273
tp4473
asI358
(lp4474
(S'thank'
p4475
g15
F0.6768
tp4476
a(S'god'
p4477
g425
F0.7275
tp4478
a(S'laughs'
p4479
g15
F0.9553
tp4480
asI359
(lp4481
(S'see'
p4482
g15
F0.9673
tp4483
a(S'they'
p4484
g7
F0.9446
tp4485
a(S'can'
p4486
g15
F0.9997
tp4487
a(S'pay'
p4488
g15
F0.999
tp4489
a(S'the'
p4490
g83
F0.9996
tp4491
a(S'bills'
p4492
g10
F0.989
tp4493
a(S'in'
p4494
g32
F0.9984
tp4495
a(S'january'
p4496
g425
F0.9785
tp4497
asI360
(lp4498
(S'ya'
p4499
g3
F0.7646
tp4500
a(S'you'
p4501
g7
F0.9987
tp4502
a(S'know'
p4503
g15
F0.9989
tp4504
a(S'what'
p4505
g7
F0.9867
tp4506
a(S'me'
p4507
g7
F0.9983
tp4508
a(S'and'
p4509
g219
F0.9944
tp4510
a(S'my'
p4511
g83
F0.9968
tp4512
a(S'friends'
p4513
g10
F0.949
tp4514
a(S'joke'
p4515
g10
F0.7346
tp4516
a(S'about'
p4517
g32
F0.9864
tp4518
asI361
(lp4519
(S'we'
p4520
g7
F0.9973
tp4521
a(S'say'
p4522
g15
F0.9994
tp4523
a(S'that'
p4524
g32
F0.7816
tp4525
a(S'he'
p4526
g7
F0.991
tp4527
a(S'santa'
p4528
g425
F0.9453
tp4529
a(S'buys'
p4530
g15
F0.9959
tp4531
a(S'all'
p4532
g2652
F0.5329
tp4533
a(S'the'
p4534
g83
F0.9998
tp4535
a(S'toys'
p4536
g10
F0.9978
tp4537
asI362
(lp4538
(g37
g7
F0.9908
tp4539
a(S'know'
p4540
g15
F0.9994
tp4541
a(S'remember'
p4542
g15
F0.9942
tp4543
a(S'that'
p4544
g83
F0.6031
tp4545
a(S'one'
p4546
g99
F0.9306
tp4547
a(S'year'
p4548
g10
F0.9669
tp4549
a(S'when'
p4550
g104
F0.9888
tp4551
a(S'you'
p4552
g7
F0.9991
tp4553
a(S'went'
p4554
g15
F0.9939
tp4555
a(S'mommy'
p4556
g10
F0.4412
tp4557
a(S'why'
p4558
g104
F0.9422
tp4559
a(S'did'
p4560
g15
F0.9804
tp4561
a(S'santa'
p4562
g425
F0.9914
tp4563
a(S'leave'
p4564
g15
F0.9912
tp4565
a(S'the'
p4566
g83
F0.9996
tp4567
a(S'price'
p4568
g10
F0.9947
tp4569
a(S'tag'
p4570
g10
F0.6914
tp4571
a(S'laughs'
p4572
g15
F0.9627
tp4573
a(S'on'
p4574
g32
F0.5997
tp4575
asI363
(lp4576
(S'laughs'
p4577
g15
F0.9102
tp4578
asI364
(lp4579
(S'oh'
p4580
g3
F0.9948
tp4581
a(S'my'
p4582
g83
F0.8881
tp4583
a(S'god'
p4584
g10
F0.6984
tp4585
asI365
(lp4586
(S'laughs'
p4587
g15
F0.9102
tp4588
asI366
(lp4589
(S'and'
p4590
g219
F0.999
tp4591
a(g37
g7
F0.996
tp4592
a(S'was'
p4593
g15
F0.9998
tp4594
a(S'wonderin'
p4595
g15
F0.4669
tp4596
a(g58
g15
F0.2657
tp4597
a(S'how'
p4598
g104
F0.9848
tp4599
a(S'can'
p4600
g15
F0.9993
tp4601
a(S'you'
p4602
g7
F0.9991
tp4603
a(S'make'
p4604
g15
F0.996
tp4605
a(S'plastic'
p4606
g10
F0.5396
tp4607
asI367
(lp4608
(S'yeah'
p4609
g3
F0.9922
tp4610
a(S'you'
p4611
g7
F0.997
tp4612
a(S'were'
p4613
g15
F0.9975
tp4614
a(S'always'
p4615
g104
F0.9964
tp4616
a(S'too'
p4617
g104
F0.9975
tp4618
a(S'smart'
p4619
g20
F0.9905
tp4620
a(S'for'
p4621
g32
F0.9996
tp4622
a(S'that'
p4623
g7
F0.5748
tp4624
a(S'santa'
p4625
g425
F0.9215
tp4626
a(S'thing'
p4627
g10
F0.9675
tp4628
asI368
(lp4629
(S'that'
p4630
g32
F0.5147
tp4631
a(S'santa'
p4632
g425
F0.993
tp4633
a(S'gig'
p4634
g10
F0.9737
tp4635
asI369
(lp4636
(S'but'
p4637
g219
F0.9948
tp4638
a(g37
g7
F0.9938
tp4639
a(S'always'
p4640
g104
F0.9872
tp4641
a(S'liked'
p4642
g15
F0.9996
tp4643
a(S'it'
p4644
g7
F0.9891
tp4645
asI370
(lp4646
(g37
g7
F0.9912
tp4647
a(S'know'
p4648
g15
F0.9989
tp4649
asI371
(lp4650
(S'well'
p4651
g3
F0.7747
tp4652
a(S'so'
p4653
g104
F0.8541
tp4654
a(S'anyway'
p4655
g104
F0.9978
tp4656
a(S'listen'
p4657
g15
F0.989
tp4658
asI372
(lp4659
(S'hold'
p4660
g15
F0.9639
tp4661
a(S'on'
p4662
g355
F0.8823
tp4663
asI373
(lp4664
(g2707
g99
F0.9875
tp4665
a(S'blows'
p4666
g10
F0.5606
tp4667
a(S'nose'
p4668
g10
F0.996
tp4669
asI374
(lp4670
(S'we'
p4671
g7
F0.9948
tp4672
a(S'll'
p4673
g15
F0.6438
tp4674
a(S'have'
p4675
g15
F0.9988
tp4676
a(S'um'
p4677
g3
F0.8411
tp4678
asI375
(lp4679
(S'so'
p4680
g32
F0.7418
tp4681
a(S'what'
p4682
g7
F0.871
tp4683
a(S'game'
p4684
g10
F0.9849
tp4685
a(S'do'
p4686
g15
F0.9963
tp4687
a(S'you'
p4688
g7
F0.9997
tp4689
a(S'think'
p4690
g15
F0.9963
tp4691
a(S'is'
p4692
g15
F0.9844
tp4693
a(S'appropriate'
p4694
g20
F0.9945
tp4695
asI376
(lp4696
(S'wait'
p4697
g15
F0.9113
tp4698
asI377
(lp4699
(S'hold'
p4700
g15
F0.973
tp4701
a(S'on'
p4702
g355
F0.5893
tp4703
a(g37
g7
F0.9933
tp4704
a(S'want'
p4705
g15
F0.9999
tp4706
a(S'to'
p4707
g32
F0.9898
tp4708
a(S'talk'
p4709
g15
F0.9987
tp4710
a(S'about'
p4711
g32
F0.9506
tp4712
asI378
(lp4713
(S'sim'
p4714
g3
F0.3326
tp4715
a(S'iowa'
p4716
g3
F0.4004
tp4717
asI379
(lp4718
(S'oh'
p4719
g3
F0.9903
tp4720
a(S'no'
p4721
g3
F0.9475
tp4722
a(S'it'
p4723
g7
F0.9698
tp4724
a(S'isn'
p4725
g32
F0.3494
tp4726
a(g74
g301
F0.7068
tp4727
a(S'xxx'
p4728
g1444
F0.6707
tp4729
asI380
(lp4730
(S'well'
p4731
g3
F0.741
tp4732
a(S'you'
p4733
g7
F0.9997
tp4734
a(S'know'
p4735
g15
F0.9997
tp4736
a(S'its'
p4737
S'L'
p4738
F0.9902
tp4739
a(S'gonna'
p4740
g15
F0.9928
tp4741
a(S'be'
p4742
g15
F0.9995
tp4743
a(S'on'
p4744
g32
F0.9887
tp4745
a(S'our'
p4746
g83
F0.9972
tp4747
a(S'computer'
p4748
g10
F0.999
tp4749
asI381
(lp4750
(S'uh'
p4751
g3
F0.9877
tp4752
a(S'oh'
p4753
g3
F0.999
tp4754
a(S'yeah'
p4755
g3
F0.9995
tp4756
asI382
(lp4757
(S'so'
p4758
g32
F0.8338
tp4759
a(S'you'
p4760
g7
F0.9996
tp4761
a(S'can'
p4762
g15
F0.9997
tp4763
a(S'play'
p4764
g15
F0.9975
tp4765
a(S'sim'
p4766
g425
F0.2972
tp4767
a(S'iowa'
p4768
g425
F0.9842
tp4769
a(S'with'
p4770
g32
F0.9993
tp4771
a(S'him'
p4772
g7
F0.9674
tp4773
a(S'okay'
p4774
g3
F0.7368
tp4775
asI383
(lp4776
(S'sim'
p4777
g425
F0.6595
tp4778
a(S'city'
p4779
g10
F0.5399
tp4780
a(S'two'
p4781
g99
F0.9519
tp4782
a(S'thousand'
p4783
g99
F0.4707
tp4784
asI384
(lp4785
(S'no'
p4786
g3
F0.8465
tp4787
a(S'we'
p4788
g7
F0.9912
tp4789
a(S'already'
p4790
g104
F0.9964
tp4791
a(S'got'
p4792
g15
F0.9951
tp4793
a(S'regular'
p4794
g20
F0.9806
tp4795
a(S'sim'
p4796
g425
F0.4849
tp4797
a(S'city'
p4798
g10
F0.6376
tp4799
asI385
(lp4800
(S'yeah'
p4801
g3
F0.9962
tp4802
a(S'but'
p4803
g219
F0.9871
tp4804
a(S'that'
p4805
g7
F0.68
tp4806
a(g43
g301
F0.4253
tp4807
a(S'way'
p4808
g104
F0.7086
tp4809
a(S'better'
p4810
g104
F0.5204
tp4811
asI386
(lp4812
(S'no'
p4813
g83
F0.4715
tp4814
a(S'listen'
p4815
g15
F0.8955
tp4816
a(S'to'
p4817
g32
F0.9899
tp4818
a(S'me'
p4819
g7
F0.9968
tp4820
a(S'for'
p4821
g32
F0.9944
tp4822
a(g82
g83
F0.9958
tp4823
a(S'minute'
p4824
g10
F0.9354
tp4825
asI387
(lp4826
(S'um'
p4827
g3
F0.8074
tp4828
a(S'do'
p4829
g15
F0.999
tp4830
a(S'you'
p4831
g7
F0.9997
tp4832
a(S'have'
p4833
g15
F0.9998
tp4834
a(g82
g83
F0.9981
tp4835
a(S'present'
p4836
g20
F0.6121
tp4837
a(S'for'
p4838
g32
F0.999
tp4839
a(S'jen'
p4840
g425
F0.9926
tp4841
a(S'and'
p4842
g219
F0.9985
tp4843
a(S'martin'
p4844
g425
F0.9752
tp4845
asI388
(lp4846
(S'uhuh'
p4847
g3
F0.9919
tp4848
asI389
(lp4849
(S'well'
p4850
g3
F0.7961
tp4851
a(S'maybe'
p4852
g104
F0.9756
tp4853
a(S'you'
p4854
g7
F0.9994
tp4855
a(S'could'
p4856
g15
F0.9999
tp4857
a(S'either'
p4858
g83
F0.5969
tp4859
a(S'uh'
p4860
g3
F0.5055
tp4861
a(S'buy'
p4862
g15
F0.9597
tp4863
a(S'something'
p4864
g10
F0.9975
tp4865
a(S'or'
p4866
g219
F0.9776
tp4867
a(S'make'
p4868
g15
F0.9785
tp4869
a(S'something'
p4870
g10
F0.9977
tp4871
a(S'before'
p4872
g32
F0.919
tp4873
asI390
(lp4874
(S'you'
p4875
g7
F0.9968
tp4876
a(S'could'
p4877
g15
F0.9996
tp4878
a(S'make'
p4879
g15
F0.9892
tp4880
a(S'jen'
p4881
g425
F0.9077
tp4882
a(S'an'
p4883
g83
F0.9847
tp4884
a(S'ear'
p4885
g10
F0.9898
tp4886
a(S'ring'
p4887
g10
F0.7989
tp4888
asI391
(lp4889
(S'you'
p4890
g7
F0.9983
tp4891
a(S'know'
p4892
g15
F0.9995
tp4893
a(S'she'
p4894
g7
F0.9985
tp4895
a(S'loves'
p4896
g15
F0.9999
tp4897
a(S'your'
p4898
g83
F0.9887
tp4899
a(S'ear'
p4900
g10
F0.9963
tp4901
a(S'rings'
p4902
g10
F0.9691
tp4903
asI392
(lp4904
(g37
g7
F0.989
tp4905
a(S'think'
p4906
g15
F0.9999
tp4907
a(S'she'
p4908
g7
F0.9967
tp4909
a(S'only'
p4910
g104
F0.9582
tp4911
a(S'has'
p4912
g15
F0.9971
tp4913
a(S'one'
p4914
g99
F0.9199
tp4915
a(S'hole'
p4916
g10
F0.9957
tp4917
a(S'in'
p4918
g32
F0.9978
tp4919
a(S'her'
p4920
g83
F0.9801
tp4921
a(S'ear'
p4922
g10
F0.9977
tp4923
asI393
(lp4924
(S'and'
p4925
g219
F0.9982
tp4926
a(S'that'
p4927
g7
F0.8962
tp4928
a(S'would'
p4929
g15
F0.9993
tp4930
a(S'be'
p4931
g15
F0.9996
tp4932
a(S'sorta'
p4933
g20
F0.507
tp4934
a(S'sort'
p4935
g10
F0.9918
tp4936
a(S'of'
p4937
g32
F0.9859
tp4938
a(S'strange'
p4939
g20
F0.9947
tp4940
a(S'if'
p4941
g32
F0.9966
tp4942
a(S'like'
p4943
g32
F0.9307
tp4944
a(S'she'
p4945
g7
F0.9994
tp4946
a(S'had'
p4947
g15
F0.9986
tp4948
a(S'two'
p4949
g99
F0.9714
tp4950
a(S'holes'
p4951
g10
F0.9953
tp4952
a(S'and'
p4953
g219
F0.9985
tp4954
a(g37
g7
F0.9938
tp4955
a(S'gave'
p4956
g15
F1.0
tp4957
a(S'her'
p4958
g83
F0.9222
tp4959
a(S'one'
p4960
g99
F0.8749
tp4961
a(S'ear'
p4962
g10
F0.9698
tp4963
a(S'ring'
p4964
g10
F0.7838
tp4965
asI394
(lp4966
(S'oh'
p4967
g3
F0.9878
tp4968
a(S'you'
p4969
g7
F0.9934
tp4970
a(S'could'
p4971
g15
F0.9997
tp4972
a(S'make'
p4973
g15
F0.9987
tp4974
a(S'her'
p4975
g83
F0.6559
tp4976
a(g82
g83
F0.903
tp4977
a(S'pair'
p4978
g10
F0.9976
tp4979
asI395
(lp4980
(S'and'
p4981
g219
F0.9987
tp4982
a(S'then'
p4983
g104
F0.9658
tp4984
a(S'she'
p4985
g7
F0.9972
tp4986
a(S'll'
p4987
g104
F0.4836
tp4988
a(S'have'
p4989
g15
F0.9868
tp4990
a(S'two'
p4991
g99
F0.9289
tp4992
a(S'but'
p4993
g219
F0.9948
tp4994
a(g37
g7
F0.9956
tp4995
a(S'think'
p4996
g15
F0.9999
tp4997
a(S'that'
p4998
g32
F0.8305
tp4999
a(S'you'
p5000
g7
F0.9996
tp5001
a(S'should'
p5002
g15
F0.9996
tp5003
a(S'make'
p5004
g15
F0.9999
tp5005
a(S'them'
p5006
g83
F0.8447
tp5007
a(S'both'
p5008
g83
F0.5661
tp5009
a(S'something'
p5010
g10
F0.9985
tp5011
a(S'okay'
p5012
g3
F0.9257
tp5013
asI396
(lp5014
(S'but'
p5015
g219
F0.9925
tp5016
a(S'what'
p5017
g7
F0.9966
tp5018
a(S'should'
p5019
g15
F0.9925
tp5020
a(g37
g7
F0.9839
tp5021
a(S'make'
p5022
g15
F0.9995
tp5023
a(S'martin'
p5024
g425
F0.9806
tp5025
asI397
(lp5026
(S'um'
p5027
g3
F0.9388
tp5028
a(S'maybe'
p5029
g104
F0.9483
tp5030
a(S'you'
p5031
g7
F0.9994
tp5032
a(S'can'
p5033
g15
F0.9997
tp5034
a(S'make'
p5035
g15
F0.9999
tp5036
a(S'him'
p5037
g7
F0.9579
tp5038
a(S'like'
p5039
g32
F0.915
tp5040
a(g82
g83
F0.9573
tp5041
a(S'drawing'
p5042
g10
F0.7568
tp5043
asI398
(lp5044
(S'how'
p5045
g104
F0.9647
tp5046
a(g82
g83
F0.9714
tp5047
a(S'bout'
p5048
g10
F0.6615
tp5049
a(S'that'
p5050
g32
F0.469
tp5051
asI399
(lp5052
(g37
g7
F0.9896
tp5053
a(S'have'
p5054
g15
F0.9978
tp5055
a(S'ten'
p5056
g99
F0.8624
tp5057
a(S'dollars'
p5058
g10
F0.9939
tp5059
asI400
(lp5060
(S'yeah'
p5061
g3
F0.9988
tp5062
asI401
(lp5063
(g37
g7
F0.9882
tp5064
a(S'need'
p5065
g15
F0.9994
tp5066
a(S'to'
p5067
g32
F0.9811
tp5068
a(S'buy'
p5069
g15
F0.9962
tp5070
a(S'toby'
p5071
g425
F0.8355
tp5072
a(S'we'
p5073
g7
F0.9943
tp5074
a(S'need'
p5075
g15
F0.9986
tp5076
a(S'to'
p5077
g32
F0.9891
tp5078
a(S'buy'
p5079
g15
F0.9958
tp5080
a(S'toby'
p5081
g425
F0.9129
tp5082
a(S'something'
p5083
g10
F0.9881
tp5084
asI402
(lp5085
(g37
g7
F0.9908
tp5086
a(S'know'
p5087
g15
F0.9998
tp5088
a(S'we'
p5089
g7
F0.9971
tp5090
a(S'll'
p5091
g15
F0.5098
tp5092
a(S'go'
p5093
g15
F0.9988
tp5094
a(S'out'
p5095
g32
F0.4287
tp5096
a(S'to'
p5097
g32
F0.9992
tp5098
a(S'the'
p5099
g83
F0.9981
tp5100
a(S'pet'
p5101
g10
F0.9177
tp5102
a(S'store'
p5103
g10
F0.9833
tp5104
asI403
(lp5105
(S'okay'
p5106
g3
F0.9857
tp5107
asI404
(lp5108
(g37
g7
F0.9756
tp5109
a(S'didn'
p5110
g15
F0.9919
tp5111
a(g74
g15
F0.7417
tp5112
a(S'even'
p5113
g104
F0.9958
tp5114
a(S'know'
p5115
g15
F0.9953
tp5116
a(S'jen'
p5117
g425
F0.9785
tp5118
a(S'and'
p5119
g219
F0.9986
tp5120
a(S'martin'
p5121
g425
F0.9868
tp5122
a(S'were'
p5123
g15
F0.9801
tp5124
a(S'coming'
p5125
g15
F0.9958
tp5126
a(S'over'
p5127
g32
F0.4695
tp5128
asI405
(lp5129
(S'well'
p5130
g3
F0.906
tp5131
a(S'they'
p5132
g7
F0.9975
tp5133
a(S'are'
p5134
g15
F0.9995
tp5135
a(S'coming'
p5136
g15
F0.9891
tp5137
a(S'over'
p5138
g355
F0.5887
tp5139
asI406
(lp5140
(S'is'
p5141
g15
F0.9881
tp5142
a(S'virginia'
p5143
g425
F0.9598
tp5144
a(S'gonna'
p5145
g15
F0.9824
tp5146
a(S'come'
p5147
g15
F0.9997
tp5148
a(S'over'
p5149
g355
F0.4882
tp5150
asI407
(lp5151
(g37
g7
F0.8298
tp5152
a(S'doubt'
p5153
g15
F0.9976
tp5154
a(S'it'
p5155
g7
F0.9854
tp5156
asI408
(lp5157
(g37
g7
F0.9891
tp5158
a(S'called'
p5159
g15
F1.0
tp5160
a(S'her'
p5161
g7
F0.8518
tp5162
a(S'invited'
p5163
g15
F0.9951
tp5164
a(S'her'
p5165
g7
F0.4784
tp5166
a(S'um'
p5167
g3
F0.5731
tp5168
a(S'and'
p5169
g219
F0.9989
tp5170
a(g37
g7
F0.9204
tp5171
a(S'doubt'
p5172
g15
F0.9978
tp5173
a(S'it'
p5174
g7
F0.979
tp5175
asI409
(lp5176
(S'it'
p5177
g7
F0.9863
tp5178
a(S'but'
p5179
g219
F0.9697
tp5180
a(S'she'
p5181
g7
F0.998
tp5182
a(S'would'
p5183
g15
F0.9992
tp5184
a(S'love'
p5185
g15
F0.9985
tp5186
a(g82
g83
F0.9961
tp5187
a(S'pair'
p5188
g10
F0.9991
tp5189
a(S'of'
p5190
g32
F0.9948
tp5191
a(S'ear'
p5192
g10
F0.9754
tp5193
a(S'rings'
p5194
g10
F0.9337
tp5195
a(S'also'
p5196
g104
F0.9821
tp5197
asI410
(lp5198
(S'you'
p5199
g7
F0.9983
tp5200
a(S'know'
p5201
g15
F0.9986
tp5202
a(S'what'
p5203
g7
F0.9865
tp5204
a(S'the'
p5205
g83
F0.9992
tp5206
a(S'other'
p5207
g20
F0.9929
tp5208
a(S'thing'
p5209
g10
F0.9992
tp5210
a(S'is'
p5211
g15
F0.9954
tp5212
a(S'is'
p5213
g15
F0.9951
tp5214
a(S'we'
p5215
g7
F0.9994
tp5216
a(S'ought'
p5217
g15
F0.9984
tp5218
a(S'to'
p5219
g32
F0.9951
tp5220
a(S'check'
p5221
g15
F0.9939
tp5222
a(S'in'
p5223
g355
F0.789
tp5224
a(S'with'
p5225
g32
F0.9985
tp5226
a(S'the'
p5227
g83
F0.9994
tp5228
a(S'gallery'
p5229
g10
F0.9896
tp5230
a(S'and'
p5231
g219
F0.9964
tp5232
a(S'see'
p5233
g15
F0.9848
tp5234
a(S'how'
p5235
g104
F0.9669
tp5236
a(S'your'
p5237
g83
F0.9823
tp5238
a(S'ear'
p5239
g10
F0.9964
tp5240
a(S'rings'
p5241
g10
F0.9771
tp5242
a(S'are'
p5243
g15
F0.9956
tp5244
a(S'sellin'
p5245
g15
F0.5287
tp5246
a(g58
g301
F0.3748
tp5247
asI411
(lp5248
(g37
g7
F0.9914
tp5249
a(S'was'
p5250
g15
F0.9998
tp5251
a(S'wondering'
p5252
g15
F0.9948
tp5253
a(S'whether'
p5254
g32
F0.9105
tp5255
a(S'you'
p5256
g7
F0.9997
tp5257
a(S'had'
p5258
g15
F0.9997
tp5259
a(S'thought'
p5260
g15
F0.9888
tp5261
a(S'about'
p5262
g32
F0.9807
tp5263
a(S'that'
p5264
g7
F0.9062
tp5265
a(S'when'
p5266
g104
F0.9845
tp5267
a(S'you'
p5268
g7
F0.9991
tp5269
a(S'went'
p5270
g15
F0.9952
tp5271
a(S'downtown'
p5272
g20
F0.6891
tp5273
a(S'the'
p5274
g83
F0.9987
tp5275
a(S'other'
p5276
g20
F0.9924
tp5277
a(S'day'
p5278
g10
F0.9961
tp5279
asI412
(lp5280
(S'about'
p5281
g32
F0.9375
tp5282
a(S'popping'
p5283
g15
F0.9911
tp5284
a(S'in'
p5285
g32
F0.7217
tp5286
a(S'to'
p5287
g32
F0.982
tp5288
a(S'see'
p5289
g15
F0.9961
tp5290
a(S'kathy'
p5291
g425
F0.9964
tp5292
a(S'and'
p5293
g219
F0.9983
tp5294
a(S'see'
p5295
g15
F0.9848
tp5296
a(S'how'
p5297
g104
F0.9915
tp5298
a(S'many'
p5299
g20
F0.9518
tp5300
a(S'of'
p5301
g32
F0.999
tp5302
a(S'your'
p5303
g83
F0.9971
tp5304
a(S'ear'
p5305
g10
F0.9964
tp5306
a(S'rings'
p5307
g10
F0.9655
tp5308
a(S'have'
p5309
g15
F0.9984
tp5310
a(S'sold'
p5311
g15
F0.9225
tp5312
asI413
(lp5313
(S'um'
p5314
g3
F0.9584
tp5315
a(g37
g7
F0.9913
tp5316
a(S'think'
p5317
g15
F1.0
tp5318
a(S'it'
p5319
g7
F0.981
tp5320
a(g801
g15
F0.4979
tp5321
a(S'be'
p5322
g15
F0.9802
tp5323
a(S'very'
p5324
g104
F0.9988
tp5325
a(S'good'
p5326
g20
F0.9997
tp5327
a(S'to'
p5328
g32
F0.9967
tp5329
a(S'check'
p5330
g15
F0.9939
tp5331
a(S'in'
p5332
g355
F0.6511
tp5333
a(S'before'
p5334
g32
F0.9851
tp5335
a(S'the'
p5336
g83
F0.9979
tp5337
a(S'end'
p5338
g10
F0.9973
tp5339
a(S'of'
p5340
g32
F0.9993
tp5341
a(S'the'
p5342
g83
F0.9995
tp5343
a(S'month'
p5344
g10
F0.9949
tp5345
asI414
(lp5346
(S'well'
p5347
g3
F0.741
tp5348
a(S'you'
p5349
g7
F0.9997
tp5350
a(S'know'
p5351
g15
F0.9995
tp5352
a(S'we'
p5353
g7
F0.9944
tp5354
a(S're'
p5355
g15
F0.7875
tp5356
a(S'leaving'
p5357
g15
F0.9889
tp5358
asI415
(lp5359
(g37
g7
F0.989
tp5360
a(S'think'
p5361
g15
F0.9999
tp5362
a(S'that'
p5363
g7
F0.6897
tp5364
a(S'yeah'
p5365
g3
F0.8644
tp5366
a(S'the'
p5367
g83
F0.9976
tp5368
a(S'gallery'
p5369
g10
F0.9942
tp5370
a(S'closes'
p5371
g15
F0.9942
tp5372
a(S'the'
p5373
g83
F0.9998
tp5374
a(S'day'
p5375
g10
F0.9989
tp5376
a(S'after'
p5377
g32
F0.9981
tp5378
a(S'we'
p5379
g7
F0.9997
tp5380
a(S'leave'
p5381
g15
F0.9959
tp5382
asI416
(lp5383
(S'so'
p5384
g32
F0.8338
tp5385
a(S'you'
p5386
g7
F0.9997
tp5387
a(S'need'
p5388
g15
F0.9997
tp5389
a(S'you'
p5390
g7
F0.9994
tp5391
a(S'do'
p5392
g15
F0.9996
tp5393
a(S'need'
p5394
g15
F0.9794
tp5395
a(S'to'
p5396
g32
F0.9828
tp5397
a(S'check'
p5398
g15
F0.9939
tp5399
a(S'in'
p5400
g355
F0.789
tp5401
a(S'with'
p5402
g32
F0.9966
tp5403
a(S'her'
p5404
g7
F0.8446
tp5405
a(S'and'
p5406
g219
F0.9951
tp5407
a(S'just'
p5408
g104
F0.9991
tp5409
a(S'pop'
p5410
g15
F0.8711
tp5411
a(S'in'
p5412
g32
F0.7442
tp5413
a(S'and'
p5414
g219
F0.996
tp5415
a(S'say'
p5416
g15
F0.9607
tp5417
a(S'hi'
p5418
g3
F0.9428
tp5419
a(S'q'
p5420
g301
F0.3216
tp5421
a(S'this'
p5422
g83
F0.9696
tp5423
a(S'week'
p5424
g10
F0.9951
tp5425
asI417
(lp5426
(S'and'
p5427
g219
F0.9987
tp5428
a(S'then'
p5429
g104
F0.9837
tp5430
a(S'at'
p5431
g32
F0.9994
tp5432
a(S'the'
p5433
g83
F0.9988
tp5434
a(S'end'
p5435
g10
F0.9973
tp5436
a(S'of'
p5437
g32
F0.9994
tp5438
a(S'the'
p5439
g83
F0.9996
tp5440
a(S'next'
p5441
g20
F0.9815
tp5442
a(S'week'
p5443
g10
F0.9917
tp5444
a(S'you'
p5445
g7
F0.9937
tp5446
a(S'll'
p5447
g15
F0.6833
tp5448
a(S'be'
p5449
g15
F0.9978
tp5450
a(S'picking'
p5451
g15
F0.9985
tp5452
a(S'up'
p5453
g355
F0.9507
tp5454
a(S'whatever'
p5455
g3
F0.5257
tp5456
a(S'you'
p5457
g7
F0.9808
tp5458
a(S'haven'
p5459
g15
F0.5515
tp5460
a(g74
g32
F0.2529
tp5461
a(S'sold'
p5462
g15
F0.9914
tp5463
a(S'which'
p5464
g83
F0.7682
tp5465
a(S'if'
p5466
g32
F0.9986
tp5467
a(S'you'
p5468
g7
F0.9997
tp5469
a(S'ask'
p5470
g15
F0.9999
tp5471
a(S'me'
p5472
g7
F0.9948
tp5473
a(g37
g7
F0.9797
tp5474
a(S'bet'
p5475
g15
F0.9998
tp5476
a(S'you'
p5477
g7
F0.9995
tp5478
a(S'sold'
p5479
g15
F0.9993
tp5480
a(S'all'
p5481
g83
F0.771
tp5482
a(S'your'
p5483
g83
F0.9932
tp5484
a(S'ear'
p5485
g10
F0.996
tp5486
a(S'rings'
p5487
g10
F0.9617
tp5488
asI418
(lp5489
(S'hopefully'
p5490
g104
F0.946
tp5491
asI419
(lp5492
(S'so'
p5493
g104
F0.5368
tp5494
a(g37
g7
F0.9928
tp5495
a(S'think'
p5496
g15
F0.9999
tp5497
a(S'that'
p5498
g32
F0.8542
tp5499
a(S'you'
p5500
g7
F0.9996
tp5501
a(S'should'
p5502
g15
F0.9995
tp5503
a(S'just'
p5504
g104
F0.9991
tp5505
a(S'pop'
p5506
g15
F0.8711
tp5507
a(S'in'
p5508
g32
F0.7442
tp5509
a(S'and'
p5510
g219
F0.996
tp5511
a(S'say'
p5512
g15
F0.9607
tp5513
a(S'hi'
p5514
g3
F0.9437
tp5515
a(g5420
g301
F0.4592
tp5516
a(S'okay'
p5517
g3
F0.8388
tp5518
asI420
(lp5519
(S'yep'
p5520
g3
F0.9977
tp5521
asI421
(lp5522
(S'sometime'
p5523
g104
F0.9049
tp5524
a(S'this'
p5525
g83
F0.9794
tp5526
a(S'week'
p5527
g10
F0.9969
tp5528
asI422
(lp5529
(S'maybe'
p5530
g104
F0.9397
tp5531
a(S'today'
p5532
g10
F0.8823
tp5533
a(S'maybe'
p5534
g104
F0.9702
tp5535
a(S'tomorrow'
p5536
g10
F0.6559
tp5537
a(S'after'
p5538
g32
F0.9449
tp5539
asI423
(lp5540
(S'okay'
p5541
g3
F0.9857
tp5542
asI424
(lp5543
(S'after'
p5544
g32
F0.9339
tp5545
a(S'school'
p5546
g10
F0.9966
tp5547
a(S'or'
p5548
g219
F0.9927
tp5549
a(S'something'
p5550
g10
F0.9332
tp5551
a(S'you'
p5552
g7
F0.9971
tp5553
a(S'could'
p5554
g15
F0.9996
tp5555
a(S'take'
p5556
g15
F0.9995
tp5557
a(S'your'
p5558
g83
F0.9887
tp5559
a(S'ten'
p5560
g99
F0.8411
tp5561
a(S'bucks'
p5562
g10
F0.9278
tp5563
a(S'and'
p5564
g219
F0.9986
tp5565
a(S'um'
p5566
g3
F0.407
tp5567
a(S'go'
p5568
g15
F0.9964
tp5569
a(S'up'
p5570
g355
F0.706
tp5571
a(S'to'
p5572
g32
F0.9817
tp5573
a(S'to'
p5574
g32
F0.9396
tp5575
a(S'casa'
p5576
g425
F0.8058
tp5577
a(S'de'
p5578
g32
F0.6983
tp5579
a(S'modo'
p5580
g10
F0.3431
tp5581
a(S'and'
p5582
g219
F0.9978
tp5583
a(S'look'
p5584
g15
F0.9735
tp5585
a(S'for'
p5586
g32
F0.9979
tp5587
a(S'something'
p5588
g10
F0.9884
tp5589
a(S'for'
p5590
g32
F0.9988
tp5591
a(S'martin'
p5592
g425
F0.9957
tp5593
a(S'and'
p5594
g219
F0.9986
tp5595
a(S'jen'
p5596
g425
F0.9381
tp5597
asI425
(lp5598
(S'you'
p5599
g7
F0.9968
tp5600
a(S'could'
p5601
g15
F0.9995
tp5602
a(S'just'
p5603
g104
F0.9995
tp5604
a(S'buy'
p5605
g15
F0.9991
tp5606
a(S'them'
p5607
g83
F0.7466
tp5608
a(S'one'
p5609
g99
F0.9563
tp5610
a(S'thing'
p5611
g10
F0.9956
tp5612
a(S'to'
p5613
g32
F0.9993
tp5614
a(S'share'
p5615
g15
F0.996
tp5616
a(S'if'
p5617
g32
F0.9985
tp5618
a(S'you'
p5619
g7
F0.9998
tp5620
a(S'want'
p5621
g15
F0.9997
tp5622
a(S'to'
p5623
g32
F0.9684
tp5624
a(S'or'
p5625
g219
F0.979
tp5626
a(S'you'
p5627
g7
F0.9993
tp5628
a(S'could'
p5629
g15
F0.9996
tp5630
a(S'make'
p5631
g15
F0.9896
tp5632
a(S'jen'
p5633
g425
F0.9594
tp5634
a(S'something'
p5635
g10
F0.9874
tp5636
a(S'and'
p5637
g219
F0.9955
tp5638
a(S'draw'
p5639
g15
F0.9674
tp5640
a(S'um'
p5641
g3
F0.5037
tp5642
a(S'martin'
p5643
g425
F0.9855
tp5644
a(S'something'
p5645
g10
F0.9837
tp5646
asI426
(lp5647
(S'yeah'
p5648
g3
F0.998
tp5649
a(g37
g7
F0.997
tp5650
a(S'know'
p5651
g15
F0.9992
tp5652
asI427
(lp5653
(g37
g7
F0.989
tp5654
a(S'think'
p5655
g15
F0.9992
tp5656
a(g37
g7
F0.9928
tp5657
a(S'll'
p5658
g15
F0.5689
tp5659
asI428
(lp5660
(S'coughs'
p5661
g10
F0.5349
tp5662
asI429
(lp5663
(S'maybe'
p5664
g104
F0.9637
tp5665
a(S'walk'
p5666
g15
F0.9943
tp5667
a(S'up'
p5668
g355
F0.8858
tp5669
a(S'town'
p5670
g10
F0.9322
tp5671
a(S'on'
p5672
g32
F0.9938
tp5673
a(S'monday'
p5674
g425
F0.9501
tp5675
asI430
(lp5676
(S'sneezes'
p5677
g15
F0.6777
tp5678
asI431
(lp5679
(S'excuse'
p5680
g15
F0.9631
tp5681
a(S'me'
p5682
g7
F0.9987
tp5683
asI432
(lp5684
(S'and'
p5685
g219
F0.9991
tp5686
a(S'um'
p5687
g3
F0.8866
tp5688
asI433
(lp5689
(g37
g7
F0.9756
tp5690
a(S'didn'
p5691
g15
F0.9919
tp5692
a(g74
g15
F0.8249
tp5693
a(S'call'
p5694
g15
F0.9868
tp5695
a(S'you'
p5696
g7
F0.9988
tp5697
a(S'go'
p5698
g15
F0.9977
tp5699
a(S'on'
p5700
g32
F0.9123
tp5701
a(g37
g7
F0.9965
tp5702
a(S'sneezed'
p5703
g15
F0.9987
tp5704
a(g37
g7
F0.9867
tp5705
a(S'didn'
p5706
g15
F0.9913
tp5707
a(g74
g301
F0.4968
tp5708
a(g43
g301
F0.9261
tp5709
a(S'say'
p5710
g15
F0.9251
tp5711
a(S'dear'
p5712
g10
F0.4732
tp5713
a(S'come'
p5714
g15
F0.9862
tp5715
a(S'here'
p5716
g104
F0.9892
tp5717
a(S'doggie'
p5718
g10
F0.6474
tp5719
asI434
(lp5720
(S'oh'
p5721
g3
F0.9901
tp5722
a(S'mommy'
p5723
g3
F0.4977
tp5724
a(S'my'
p5725
g83
F0.9974
tp5726
a(S'name'
p5727
g10
F0.999
tp5728
a(g43
g301
F0.8769
tp5729
a(S'achoo'
p5730
g3
F0.8581
tp5731
a(S'too'
p5732
g104
F0.972
tp5733
a(S'mommy'
p5734
g20
F0.4877
tp5735
asI435
(lp5736
(S'my'
p5737
g83
F0.9975
tp5738
a(S'name'
p5739
g10
F0.9991
tp5740
a(g43
g301
F0.9388
tp5741
a(S'toby'
p5742
g425
F0.8509
tp5743
asI436
(lp5744
(S'my'
p5745
g83
F0.9975
tp5746
a(S'name'
p5747
g10
F0.9991
tp5748
a(g43
g301
F0.7782
tp5749
a(S'food'
p5750
g10
F0.9761
tp5751
asI437
(lp5752
(S'my'
p5753
g83
F0.9975
tp5754
a(S'name'
p5755
g10
F0.9991
tp5756
a(g43
g301
F0.8978
tp5757
a(S'achoo'
p5758
g3
F0.9033
tp5759
asI438
(lp5760
(S'my'
p5761
g83
F0.9975
tp5762
a(S'name'
p5763
g10
F0.999
tp5764
a(g43
g301
F0.629
tp5765
a(S'everything'
p5766
g10
F0.9714
tp5767
a(S'mommy'
p5768
g10
F0.8657
tp5769
a(S'so'
p5770
g32
F0.868
tp5771
a(S'if'
p5772
g32
F0.9953
tp5773
a(S'you'
p5774
g7
F0.9998
tp5775
a(S'do'
p5776
g15
F0.9998
tp5777
a(S'anything'
p5778
g10
F0.9936
tp5779
a(g37
g7
F0.967
tp5780
a(S'can'
p5781
g15
F0.9999
tp5782
a(S'jiggle'
p5783
g15
F0.9901
tp5784
a(S'my'
p5785
g83
F0.9986
tp5786
a(S'neck'
p5787
g10
F0.9992
tp5788
a(g37
g7
F0.924
tp5789
a(S'll'
p5790
g15
F0.5409
tp5791
a(g37
g7
F0.9861
tp5792
a(S'll'
p5793
g15
F0.5885
tp5794
a(S'hello'
p5795
g3
F0.7037
tp5796
a(S'come'
p5797
g15
F0.9711
tp5798
asI439
(lp5799
(g37
g7
F0.9861
tp5800
a(S'will'
p5801
g15
F0.9993
tp5802
a(g37
g7
F0.988
tp5803
a(S'will'
p5804
g15
F0.9986
tp5805
a(g37
g7
F0.9871
tp5806
a(S'will'
p5807
g15
F0.9994
tp5808
asI440
(lp5809
(S'if'
p5810
g32
F0.9977
tp5811
a(S'you'
p5812
g7
F0.9933
tp5813
a(S'pet'
p5814
g15
F0.8447
tp5815
a(S'me'
p5816
g7
F0.9927
tp5817
a(g37
g7
F0.9642
tp5818
a(S'll'
p5819
g15
F0.6845
tp5820
a(S'come'
p5821
g15
F0.9888
tp5822
a(g37
g7
F0.9915
tp5823
a(S'll'
p5824
g15
F0.6845
tp5825
a(S'come'
p5826
g15
F0.9888
tp5827
a(g37
g7
F0.9922
tp5828
a(S'll'
p5829
g15
F0.7209
tp5830
a(S'come'
p5831
g15
F0.9952
tp5832
asI441
(lp5833
(S'she'
p5834
g7
F0.9917
tp5835
a(g43
g301
F0.603
tp5836
a(S'still'
p5837
g104
F0.9895
tp5838
a(S'having'
p5839
g15
F0.9997
tp5840
a(g82
g83
F0.9964
tp5841
a(S'good'
p5842
g20
F0.9993
tp5843
a(S'time'
p5844
g10
F0.9994
tp5845
a(S'after'
p5846
g32
F0.9652
tp5847
a(S'havin'
p5848
g15
F0.7338
tp5849
a(g58
g15
F0.553
tp5850
a(S'all'
p5851
g2652
F0.6376
tp5852
a(S'those'
p5853
g83
F0.9923
tp5854
a(S'cookies'
p5855
g10
F0.9959
tp5856
a(S'last'
p5857
g20
F0.9826
tp5858
a(S'night'
p5859
g10
F0.9967
tp5860
a(g37
g7
F0.9922
tp5861
a(S'think'
p5862
g15
F0.9997
tp5863
asI442
(lp5864
(S'oh'
p5865
g3
F0.9876
tp5866
a(S'three'
p5867
g99
F0.8606
tp5868
a(S'chocolate'
p5869
g10
F0.9736
tp5870
a(S'chip'
p5871
g10
F0.9916
tp5872
a(S'cookies'
p5873
g10
F0.9984
tp5874
asI443
(lp5875
(S'that'
p5876
g7
F0.473
tp5877
a(g43
g301
F0.4404
tp5878
a(S'what'
p5879
g7
F0.9623
tp5880
a(g37
g7
F0.9887
tp5881
a(S'get'
p5882
g15
F0.9998
tp5883
a(S'when'
p5884
g104
F0.8806
tp5885
a(g37
g7
F0.9867
tp5886
a(S'go'
p5887
g15
F0.9994
tp5888
a(S'to'
p5889
g32
F0.9733
tp5890
a(S'grandma'
p5891
g10
F0.4637
tp5892
a(g43
g301
F0.7952
tp5893
a(S'house'
p5894
g10
F0.9078
tp5895
asI444
(lp5896
(S'laughs'
p5897
g15
F0.9102
tp5898
asI445
(lp5899
(g37
g7
F0.9873
tp5900
a(S'can'
p5901
g15
F0.9996
tp5902
a(g74
g15
F0.7538
tp5903
a(S'believe'
p5904
g15
F0.9802
tp5905
a(S'barbara'
p5906
g425
F0.9852
tp5907
a(S'gave'
p5908
g15
F0.9859
tp5909
a(S'laughs'
p5910
g15
F0.9969
tp5911
a(S'her'
p5912
g7
F0.5182
tp5913
a(S'uh'
p5914
g3
F0.6504
tp5915
a(S'two'
p5916
g99
F0.9552
tp5917
a(S'whole'
p5918
g20
F0.8946
tp5919
a(S'laughs'
p5920
g10
F0.6607
tp5921
asI446
(lp5922
(g37
g7
F0.9908
tp5923
a(S'know'
p5924
g15
F0.9998
tp5925
a(S'she'
p5926
g7
F0.9968
tp5927
a(S'tosses'
p5928
g15
F0.9985
tp5929
a(S'her'
p5930
g7
F0.8274
tp5931
a(S'the'
p5932
g83
F0.9991
tp5933
a(S'whole'
p5934
g20
F0.9635
tp5935
a(S'cookie'
p5936
g10
F0.9956
tp5937
asI447
(lp5938
(S'sheesh'
p5939
g3
F0.9767
tp5940
a(S'ma'
p5941
g3
F0.4404
tp5942
asI448
(lp5943
(S'laughs'
p5944
g15
F0.9102
tp5945
asI449
(lp5946
(S'chi'
p5947
g301
F0.4468
tp5948
a(S'toby'
p5949
g425
F0.9253
tp5950
a(S'liked'
p5951
g15
F0.9996
tp5952
a(S'it'
p5953
g7
F0.9942
tp5954
a(S'though'
p5955
g32
F0.624
tp5956
asI450
(lp5957
(g37
g7
F0.953
tp5958
a(g607
g15
F0.9551
tp5959
a(S'gonna'
p5960
g15
F0.9961
tp5961
a(S'um'
p5962
g3
F0.7702
tp5963
asI451
(lp5964
(S'let'
p5965
g15
F0.8948
tp5966
a(g43
g301
F0.4277
tp5967
a(S'go'
p5968
g15
F0.9864
tp5969
a(S'to'
p5970
g32
F0.9922
tp5971
a(S'barbara'
p5972
g425
F0.9826
tp5973
a(g43
g301
F0.5302
tp5974
a(S'and'
p5975
g219
F0.9982
tp5976
a(S'have'
p5977
g15
F0.9893
tp5978
a(S'cookies'
p5979
g10
F0.9983
tp5980
asI452
(lp5981
(S'laughs'
p5982
g15
F0.9102
tp5983
asI453
(lp5984
(S'cookies'
p5985
g10
F0.9709
tp5986
a(S'and'
p5987
g219
F0.9979
tp5988
a(S'chocolate'
p5989
g10
F0.9554
tp5990
a(S'milk'
p5991
g10
F0.9992
tp5992
a(S'laughs'
p5993
g15
F0.905
tp5994
asI454
(lp5995
(S'cookies'
p5996
g10
F0.9709
tp5997
a(S'and'
p5998
g219
F0.9975
tp5999
a(S'cat'
p6000
g10
F0.6761
tp6001
a(S'water'
p6002
g10
F0.9923
tp6003
asI455
(lp6004
(S'oh'
p6005
g3
F0.9988
tp6006
asI456
(lp6007
(S'yeah'
p6008
g3
F0.9933
tp6009
a(S'and'
p6010
g219
F0.9991
tp6011
a(g37
g7
F0.9892
tp6012
a(S'll'
p6013
g15
F0.7636
tp6014
a(S'be'
p6015
g15
F0.9964
tp6016
a(S'whacked'
p6017
g15
F0.9839
tp6018
a(S'by'
p6019
g32
F0.996
tp6020
a(S'her'
p6021
g83
F0.9477
tp6022
a(S'dog'
p6023
g10
F0.9996
tp6024
a(S'laughs'
p6025
g15
F0.9662
tp6026
asI457
(lp6027
(S'no'
p6028
g3
F0.7535
tp6029
a(S'biting'
p6030
g15
F0.9654
tp6031
asI458
(lp6032
(S'go'
p6033
g15
F0.9676
tp6034
a(S'on'
p6035
g32
F0.7689
tp6036
asI459
(lp6037
(S'go'
p6038
g15
F0.966
tp6039
a(S'find'
p6040
g15
F0.9891
tp6041
a(S'the'
p6042
g83
F0.9997
tp6043
a(S'kitty'
p6044
g10
F0.9843
tp6045
asI460
(lp6046
(g37
g7
F0.9894
tp6047
a(S'bet'
p6048
g15
F0.9996
tp6049
a(S'she'
p6050
g7
F0.9988
tp6051
a(S'said'
p6052
g15
F0.996
tp6053
a(S'when'
p6054
g104
F0.9738
tp6055
a(S'um'
p6056
g3
F0.7136
tp6057
asI461
(lp6058
(S'go'
p6059
g15
F0.9419
tp6060
a(S'get'
p6061
g15
F0.9957
tp6062
a(S'the'
p6063
g83
F0.9995
tp6064
a(S'kitty'
p6065
g10
F0.9843
tp6066
asI462
(lp6067
(S'hey'
p6068
g3
F0.9972
tp6069
a(S'hey'
p6070
g3
F0.9985
tp6071
asI463
(lp6072
(g37
g7
F0.9651
tp6073
asI464
(lp6074
(S'look'
p6075
g15
F0.9135
tp6076
a(S'at'
p6077
g32
F0.9987
tp6078
a(S'her'
p6079
g7
F0.5686
tp6080
a(S'she'
p6081
g7
F0.6889
tp6082
a(S'tips'
p6083
g10
F0.64
tp6084
a(S'her'
p6085
g83
F0.9417
tp6086
a(S'head'
p6087
g10
F0.9987
tp6088
a(S'sideways'
p6089
g104
F0.984
tp6090
a(S'and'
p6091
g219
F0.9978
tp6092
a(S'she'
p6093
g7
F0.9985
tp6094
a(S'says'
p6095
g15
F0.9993
tp6096
a(S'what'
p6097
g7
F0.9937
tp6098
a(S'go'
p6099
g15
F0.974
tp6100
a(S'sleep'
p6101
g15
F0.4987
tp6102
a(S'in'
p6103
g32
F0.989
tp6104
a(S'the'
p6105
g83
F0.9995
tp6106
a(S'laundry'
p6107
g10
F0.9931
tp6108
asI465
(lp6109
(S'laughs'
p6110
g15
F0.9102
tp6111
asI466
(lp6112
(S'laughs'
p6113
g15
F0.9102
tp6114
asI467
(lp6115
(S'you'
p6116
g7
F0.9983
tp6117
a(S'know'
p6118
g15
F0.9986
tp6119
a(S'what'
p6120
g7
F0.9942
tp6121
a(S'yesterday'
p6122
g10
F0.9515
tp6123
a(g37
g7
F0.9689
tp6124
a(S'saw'
p6125
g15
F0.9999
tp6126
a(S'her'
p6127
g7
F0.8668
tp6128
a(S'do'
p6129
g15
F0.9903
tp6130
asI468
(lp6131
(g37
g7
F0.9891
tp6132
a(S'saw'
p6133
g15
F0.9999
tp6134
a(S'her'
p6135
g83
F0.7552
tp6136
a(S'hop'
p6137
g10
F0.9954
tp6138
a(S'in'
p6139
g32
F0.9984
tp6140
a(S'the'
p6141
g83
F0.9995
tp6142
a(S'laundry'
p6143
g10
F0.9654
tp6144
a(S'basket'
p6145
g10
F0.9558
tp6146
a(S'laughing'
p6147
g15
F0.9623
tp6148
asI469
(lp6149
(S'what'
p6150
g7
F0.9931
tp6151
a(S'do'
p6152
g15
F0.9993
tp6153
a(S'you'
p6154
g7
F0.9997
tp6155
a(S'mean'
p6156
g15
F0.9228
tp6157
a(S'hop'
p6158
g10
F0.7954
tp6159
a(S'in'
p6160
g32
F0.9984
tp6161
a(S'the'
p6162
g83
F0.9994
tp6163
a(S'laundry'
p6164
g10
F0.969
tp6165
a(S'basket'
p6166
g10
F0.9808
tp6167
asI470
(lp6168
(S'she'
p6169
g7
F0.9962
tp6170
a(S'hopped'
p6171
g15
F0.9991
tp6172
a(S'in'
p6173
g32
F0.964
tp6174
a(S'the'
p6175
g83
F0.9995
tp6176
a(S'laundry'
p6177
g10
F0.9712
tp6178
a(S'basket'
p6179
g10
F0.979
tp6180
asI471
(lp6181
(S'what'
p6182
g7
F0.9931
tp6183
a(S'do'
p6184
g15
F0.9991
tp6185
a(S'you'
p6186
g7
F0.9997
tp6187
a(S'mean'
p6188
g15
F0.9121
tp6189
asI472
(lp6190
(S'what'
p6191
g7
F0.6255
tp6192
a(S'laundry'
p6193
g10
F0.9522
tp6194
a(S'basket'
p6195
g10
F0.9857
tp6196
asI473
(lp6197
(S'the'
p6198
g83
F0.9991
tp6199
a(S'laundry'
p6200
g10
F0.9659
tp6201
a(S'basket'
p6202
g10
F0.9857
tp6203
asI474
(lp6204
(S'which'
p6205
g83
F0.9901
tp6206
a(S'one'
p6207
g99
F0.7682
tp6208
asI475
(lp6209
(S'in'
p6210
g32
F0.9915
tp6211
a(S'the'
p6212
g83
F0.9915
tp6213
a(S'back'
p6214
g10
F0.7906
tp6215
a(S'hall'
p6216
g10
F0.9946
tp6217
asI476
(lp6218
(S'you'
p6219
g7
F0.9754
tp6220
a(S're'
p6221
g15
F0.7684
tp6222
a(S'kidding'
p6223
g15
F0.9998
tp6224
a(S'me'
p6225
g7
F0.997
tp6226
asI477
(lp6227
(S'are'
p6228
g15
F0.9964
tp6229
a(S'you'
p6230
g7
F0.9991
tp6231
a(S'making'
p6232
g15
F0.9999
tp6233
a(S'that'
p6234
g7
F0.7813
tp6235
a(S'up'
p6236
g355
F0.8223
tp6237
asI478
(lp6238
(S'no'
p6239
g3
F0.7224
tp6240
a(S'xxx'
p6241
g1444
F0.402
tp6242
a(S'she'
p6243
g7
F0.9906
tp6244
a(S'xxx'
p6245
g15
F0.4981
tp6246
a(S'hopped'
p6247
g15
F0.9977
tp6248
a(S'in'
p6249
g32
F0.7626
tp6250
asI479
(lp6251
(S'she'
p6252
g7
F0.9969
tp6253
a(S'got'
p6254
g15
F0.999
tp6255
a(S'in'
p6256
g355
F0.7981
tp6257
asI480
(lp6258
(S'yeah'
p6259
g3
F0.9988
tp6260
asI481
(lp6261
(S'okay'
p6262
g3
F0.9857
tp6263
asI482
(lp6264
(S'now'
p6265
g104
F0.993
tp6266
a(S'let'
p6267
g15
F0.9992
tp6268
a(S'me'
p6269
g7
F0.9995
tp6270
a(S'tell'
p6271
g15
F0.9928
tp6272
a(S'you'
p6273
g7
F0.999
tp6274
asI483
(lp6275
(S'why'
p6276
g104
F0.8527
tp6277
asI484
(lp6278
(S'what'
p6279
g7
F0.9965
tp6280
a(S'did'
p6281
g15
F0.9967
tp6282
a(S'she'
p6283
g7
F0.9986
tp6284
a(S'do'
p6285
g15
F0.999
tp6286
a(S'once'
p6287
g104
F0.9108
tp6288
a(S'she'
p6289
g7
F0.9979
tp6290
a(S'got'
p6291
g15
F0.999
tp6292
a(S'in'
p6293
g355
F0.5584
tp6294
asI485
(lp6295
(S'um'
p6296
g3
F0.9678
tp6297
a(S'what'
p6298
g7
F0.9958
tp6299
a(S'was'
p6300
g15
F0.9847
tp6301
a(g37
g7
F0.9953
tp6302
a(S'gonna'
p6303
g15
F0.9998
tp6304
a(S'say'
p6305
g15
F0.9962
tp6306
asI486
(lp6307
(S'oh'
p6308
g3
F0.9975
tp6309
a(S'yeah'
p6310
g3
F0.9995
tp6311
a(S'when'
p6312
g104
F0.9304
tp6313
a(S'yesterday'
p6314
g104
F0.5096
tp6315
a(S'when'
p6316
g104
F0.9883
tp6317
a(S'um'
p6318
g3
F0.6363
tp6319
a(S'um'
p6320
g3
F0.9317
tp6321
a(S'um'
p6322
g3
F0.9317
tp6323
a(S'um'
p6324
g3
F0.886
tp6325
a(S'pee'
p6326
g15
F0.766
tp6327
a(S'wee'
p6328
g20
F0.867
tp6329
a(S'barbara'
p6330
g425
F0.9469
tp6331
a(g43
g301
F0.4923
tp6332
a(S'cat'
p6333
g10
F0.6834
tp6334
asI487
(lp6335
(S'just'
p6336
g104
F0.9993
tp6337
a(S'to'
p6338
g32
F0.9959
tp6339
a(S'inform'
p6340
g15
F0.9999
tp6341
a(S'you'
p6342
g7
F0.9464
tp6343
a(S'guys'
p6344
g10
F0.9344
tp6345
asI488
(lp6346
(S'um'
p6347
g3
F0.9238
tp6348
a(S'she'
p6349
g7
F0.9973
tp6350
a(S'growled'
p6351
g15
F0.9985
tp6352
a(S'at'
p6353
g32
F0.9966
tp6354
a(S'laughs'
p6355
g15
F0.8759
tp6356
a(S'toby'
p6357
g425
F0.9376
tp6358
a(S'and'
p6359
g219
F0.9993
tp6360
a(S'um'
p6361
g3
F0.3619
tp6362
a(S'cats'
p6363
g10
F0.9776
tp6364
a(S'usually'
p6365
g104
F0.9977
tp6366
a(S'hiss'
p6367
g15
F0.8901
tp6368
a(S'so'
p6369
g32
F0.7896
tp6370
a(S'this'
p6371
g83
F0.8826
tp6372
a(S'one'
p6373
g99
F0.849
tp6374
a(S'sounded'
p6375
g15
F0.9848
tp6376
a(S'like'
p6377
g32
F0.9537
tp6378
a(S'um'
p6379
g301
F0.4187
tp6380
a(g82
g83
F0.9771
tp6381
a(S'dog'
p6382
g10
F0.9994
tp6383
asI489
(lp6384
(S'it'
p6385
g7
F0.9944
tp6386
a(S'went'
p6387
g15
F0.9885
tp6388
asI490
(lp6389
(g2707
g99
F0.9522
tp6390
a(S'growls'
p6391
g15
F0.968
tp6392
a(S'like'
p6393
g32
F0.8545
tp6394
a(g82
g83
F0.9937
tp6395
a(S'dog'
p6396
g10
F0.9991
tp6397
asI491
(lp6398
(S'what'
p6399
g7
F0.9493
tp6400
a(g801
g301
F0.3625
tp6401
a(S'she'
p6402
g7
F0.9885
tp6403
a(S'whack'
p6404
g20
F0.6895
tp6405
a(S'toby'
p6406
g425
F0.6319
tp6407
asI492
(lp6408
(S'yeah'
p6409
g3
F0.9882
tp6410
a(S'did'
p6411
g15
F0.9987
tp6412
a(S'you'
p6413
g7
F0.9988
tp6414
a(S'hear'
p6415
g15
F0.9954
tp6416
a(S'she'
p6417
g7
F0.9949
tp6418
a(g43
g15
F0.6429
tp6419
a(S'like'
p6420
g32
F0.7732
tp6421
asI493
(lp6422
(g2707
g99
F0.9522
tp6423
a(S'growls'
p6424
g15
F0.968
tp6425
a(S'like'
p6426
g32
F0.8833
tp6427
a(g82
g83
F0.9889
tp6428
a(S'fierce'
p6429
g20
F0.9986
tp6430
a(S'dog'
p6431
g10
F0.9984
tp6432
asI494
(lp6433
(g37
g7
F0.9908
tp6434
a(S'know'
p6435
g15
F0.9996
tp6436
a(S'be'
p6437
g15
F0.9814
tp6438
a(S'cause'
p6439
g32
F0.9693
tp6440
a(S'she'
p6441
g7
F0.9987
tp6442
a(S'has'
p6443
g15
F0.9987
tp6444
a(S'got'
p6445
g15
F0.9971
tp6446
a(g82
g83
F0.9688
tp6447
a(S'really'
p6448
g104
F0.9965
tp6449
a(S'mean'
p6450
g15
F0.86
tp6451
a(S'growl'
p6452
g10
F0.8838
tp6453
asI495
(lp6454
(S'bet'
p6455
g15
F0.9776
tp6456
a(S'she'
p6457
g7
F0.9983
tp6458
a(S'used'
p6459
g15
F0.9882
tp6460
a(S'to'
p6461
g32
F0.9865
tp6462
a(S'be'
p6463
g15
F0.9998
tp6464
a(g82
g83
F0.9766
tp6465
a(S'fighter'
p6466
g10
F0.9278
tp6467
a(S'cat'
p6468
g10
F0.9541
tp6469
asI496
(lp6470
(S'well'
p6471
g3
F0.9268
tp6472
a(S'why'
p6473
g104
F0.8464
tp6474
a(S'what'
p6475
g7
F0.9986
tp6476
a(S'did'
p6477
g15
F0.9931
tp6478
a(S'toby'
p6479
g425
F0.9656
tp6480
a(S'do'
p6481
g15
F0.9979
tp6482
a(S'in'
p6483
g32
F0.9666
tp6484
a(S'the'
p6485
g83
F0.9993
tp6486
a(S'laundry'
p6487
g10
F0.9816
tp6488
a(S'basket'
p6489
g10
F0.9573
tp6490
asI497
(lp6491
(S'well'
p6492
g3
F0.8954
tp6493
a(S'she'
p6494
g7
F0.9986
tp6495
a(S'just'
p6496
g104
F0.9998
tp6497
a(S'got'
p6498
g15
F0.9989
tp6499
a(S'in'
p6500
g32
F0.7441
tp6501
a(S'looked'
p6502
g15
F0.9205
tp6503
a(S'around'
p6504
g32
F0.7313
tp6505
a(S'laughs'
p6506
g15
F0.906
tp6507
a(S'and'
p6508
g219
F0.9944
tp6509
a(S'got'
p6510
g15
F0.9994
tp6511
a(S'out'
p6512
g355
F0.9728
tp6513
asI498
(lp6514
(S'she'
p6515
g7
F0.9917
tp6516
a(g43
g15
F0.5252
tp6517
a(S'bigger'
p6518
g20
F0.9788
tp6519
a(S'than'
p6520
g32
F0.9995
tp6521
a(S'the'
p6522
g83
F0.9993
tp6523
a(S'laundry'
p6524
g10
F0.9727
tp6525
a(S'basket'
p6526
g10
F0.967
tp6527
a(S'though'
p6528
g32
F0.943
tp6529
asI499
(lp6530
(S'no'
p6531
g3
F0.8403
tp6532
a(S'she'
p6533
g7
F0.9848
tp6534
a(S'isn'
p6535
g301
F0.6015
tp6536
a(g74
g301
F0.9177
tp6537
asI500
(lp6538
(g82
g83
F0.9957
tp6539
a(S'big'
p6540
g20
F0.9841
tp6541
a(S'german'
p6542
g425
F0.5016
tp6543
a(S'shepherd'
p6544
g425
F0.7343
tp6545
a(S'can'
p6546
g15
F0.7917
tp6547
a(g74
g15
F0.6755
tp6548
a(S'fit'
p6549
g15
F0.9155
tp6550
a(S'in'
p6551
g32
F0.9802
tp6552
a(S'the'
p6553
g83
F0.9997
tp6554
a(S'little'
p6555
g20
F0.9971
tp6556
a(S'laundry'
p6557
g10
F0.9792
tp6558
a(S'basket'
p6559
g10
F0.9803
tp6560
asI501
(lp6561
(S'laughs'
p6562
g15
F0.9102
tp6563
asI502
(lp6564
(S'no'
p6565
g3
F0.9456
tp6566
a(S'that'
p6567
g83
F0.7381
tp6568
a(S'little'
p6569
g20
F0.9735
tp6570
a(S'xxx'
p6571
g1444
F0.7085
tp6572
asI503
(lp6573
(S'she'
p6574
g7
F0.9961
tp6575
a(S'hopped'
p6576
g15
F0.9986
tp6577
a(S'in'
p6578
g32
F0.5361
tp6579
asI504
(lp6580
(S'she'
p6581
g7
F0.9945
tp6582
a(S'just'
p6583
g104
F0.9998
tp6584
a(S'stood'
p6585
g15
F0.9963
tp6586
a(S'in'
p6587
g32
F0.9391
tp6588
a(S'it'
p6589
g7
F0.9905
tp6590
a(S'she'
p6591
g7
F0.9882
tp6592
a(S'didn'
p6593
g15
F0.9686
tp6594
a(g74
g15
F0.741
tp6595
a(S'try'
p6596
g15
F0.984
tp6597
a(S'to'
p6598
g32
F0.9912
tp6599
a(S'lay'
p6600
g15
F0.9973
tp6601
a(S'down'
p6602
g355
F0.645
tp6603
a(S'or'
p6604
g219
F0.9914
tp6605
a(S'anything'
p6606
g10
F0.9954
tp6607
asI505
(lp6608
(S'no'
p6609
g3
F0.557
tp6610
a(S'laughs'
p6611
g15
F0.7527
tp6612
asI506
(lp6613
(S'come'
p6614
g15
F0.9843
tp6615
a(S'here'
p6616
g104
F0.9694
tp6617
asI507
(lp6618
(S'you'
p6619
g7
F0.9754
tp6620
a(S're'
p6621
g15
F0.9273
tp6622
a(g82
g83
F0.9913
tp6623
a(S'dingbat'
p6624
g10
F0.9629
tp6625
asI508
(lp6626
(S'come'
p6627
g15
F0.9843
tp6628
a(S'here'
p6629
g104
F0.9694
tp6630
asI509
(lp6631
(S'look'
p6632
g15
F0.9135
tp6633
a(S'at'
p6634
g32
F0.9987
tp6635
a(S'her'
p6636
g7
F0.7423
tp6637
a(S'the'
p6638
g83
F0.9994
tp6639
a(S'dog'
p6640
g10
F0.9979
tp6641
a(S'tip'
p6642
g10
F0.7727
tp6643
a(S'her'
p6644
g83
F0.9685
tp6645
a(S'head'
p6646
g10
F0.9985
tp6647
a(S'sideways'
p6648
g104
F0.9601
tp6649
asI510
(lp6650
(g37
g7
F0.953
tp6651
a(g607
g15
F0.9882
tp6652
a(g82
g83
F0.9934
tp6653
a(S'dingbat'
p6654
g10
F0.9629
tp6655
asI511
(lp6656
(g37
g7
F0.953
tp6657
a(g607
g15
F0.9882
tp6658
a(g82
g83
F0.9934
tp6659
a(S'dingbat'
p6660
g10
F0.9629
tp6661
asI512
(lp6662
(S'laughs'
p6663
g15
F0.9102
tp6664
asI513
(lp6665
(S'laughs'
p6666
g15
F0.9102
tp6667
asI514
(lp6668
(S'oh'
p6669
g3
F0.9965
tp6670
a(S'toby'
p6671
g425
F0.8193
tp6672
asI515
(lp6673
(S'oh'
p6674
g3
F0.9965
tp6675
a(S'toby'
p6676
g425
F0.8193
tp6677
asI516
(lp6678
(S'what'
p6679
g7
F0.9965
tp6680
a(S'did'
p6681
g15
F0.9994
tp6682
a(S'you'
p6683
g7
F0.9994
tp6684
a(S'do'
p6685
g15
F0.9998
tp6686
a(S'in'
p6687
g32
F0.9666
tp6688
a(S'the'
p6689
g83
F0.9995
tp6690
a(S'laundry'
p6691
g10
F0.9654
tp6692
a(S'basket'
p6693
g10
F0.9818
tp6694
a(S'huh'
p6695
g3
F0.948
tp6696
asI517
(lp6697
(S'oh'
p6698
g3
F0.9901
tp6699
a(S'mommy'
p6700
g10
F0.5535
tp6701
a(g37
g7
F0.9536
tp6702
a(S'sniffed'
p6703
g15
F0.9999
tp6704
a(S'for'
p6705
g32
F0.9951
tp6706
a(S'goodies'
p6707
g10
F0.9482
tp6708
a(S'in'
p6709
g32
F0.9991
tp6710
a(S'the'
p6711
g83
F0.9993
tp6712
a(S'laundry'
p6713
g10
F0.9816
tp6714
a(S'basket'
p6715
g10
F0.9573
tp6716
asI518
(lp6717
(S'you'
p6718
g7
F0.9754
tp6719
a(S're'
p6720
g15
F0.6442
tp6721
a(S'so'
p6722
g104
F0.9682
tp6723
a(S'cute'
p6724
g20
F0.9972
tp6725
a(S'it'
p6726
g7
F0.9684
tp6727
a(g43
g15
F0.7008
tp6728
a(g82
g83
F0.997
tp6729
a(S'crime'
p6730
g10
F0.9985
tp6731
asI519
(lp6732
(S'it'
p6733
g7
F0.9888
tp6734
a(g43
g15
F0.7058
tp6735
a(g82
g83
F0.9961
tp6736
a(S'crime'
p6737
g10
F0.999
tp6738
asI520
(lp6739
(S'come'
p6740
g15
F0.9897
tp6741
a(S'on'
p6742
g32
F0.8983
tp6743
a(S'come'
p6744
g15
F0.842
tp6745
a(S'on'
p6746
g32
F0.8867
tp6747
a(S'come'
p6748
g15
F0.85
tp6749
a(S'on'
p6750
g32
F0.8948
tp6751
a(S'come'
p6752
g15
F0.8198
tp6753
a(S'on'
p6754
g32
F0.8446
tp6755
a(S'here'
p6756
g104
F0.9626
tp6757
asI521
(lp6758
(S'you'
p6759
g7
F0.9983
tp6760
a(S'know'
p6761
g15
F0.9999
tp6762
a(S'it'
p6763
g7
F0.9924
tp6764
a(g43
g15
F0.5123
tp6765
a(S'almost'
p6766
g104
F0.9891
tp6767
a(S'her'
p6768
g83
F0.9416
tp6769
a(S'birthday'
p6770
g10
F0.9993
tp6771
asI522
(lp6772
(S'in'
p6773
g32
F0.9792
tp6774
a(S'february'
p6775
g425
F0.9778
tp6776
a(S'well'
p6777
g3
F0.4473
tp6778
a(S'it'
p6779
g7
F0.9979
tp6780
a(S'll'
p6781
g15
F0.5017
tp6782
a(S'be'
p6783
g15
F0.9982
tp6784
a(S'in'
p6785
g32
F0.9803
tp6786
a(S'february'
p6787
g425
F0.9607
tp6788
a(S'it'
p6789
g7
F0.9889
tp6790
a(S'll'
p6791
g15
F0.5017
tp6792
a(S'be'
p6793
g15
F0.9949
tp6794
a(S'one'
p6795
g99
F0.9181
tp6796
a(S'year'
p6797
g10
F0.9787
tp6798
a(S'since'
p6799
g32
F0.9967
tp6800
a(S'we'
p6801
g7
F0.9994
tp6802
a(S'got'
p6803
g15
F0.9999
tp6804
a(S'her'
p6805
g7
F0.8389
tp6806
a(S'from'
p6807
g32
F0.9995
tp6808
a(S'the'
p6809
g83
F0.9978
tp6810
a(S'pound'
p6811
g10
F0.9874
tp6812
asI523
(lp6813
(S'how'
p6814
g104
F0.9938
tp6815
a(S'many'
p6816
g20
F0.9881
tp6817
a(S'years'
p6818
g10
F0.9961
tp6819
asI524
(lp6820
(S'no'
p6821
g3
F0.9253
tp6822
asI525
(lp6823
(S'no'
p6824
g3
F0.9253
tp6825
asI526
(lp6826
(S'toby'
p6827
g425
F0.8926
tp6828
asI527
(lp6829
(S'one'
p6830
g99
F0.9772
tp6831
a(S'year'
p6832
g10
F0.9479
tp6833
asI528
(lp6834
(S'toby'
p6835
g425
F0.8926
tp6836
asI529
(lp6837
(S'come'
p6838
g15
F0.9593
tp6839
asI530
(lp6840
(S'and'
p6841
g219
F0.999
tp6842
a(S'she'
p6843
g7
F0.9971
tp6844
a(g43
g301
F0.595
tp6845
a(S'still'
p6846
g104
F0.978
tp6847
a(S'as'
p6848
g104
F0.9191
tp6849
a(S'goofy'
p6850
g20
F0.9948
tp6851
a(S'as'
p6852
g32
F0.9917
tp6853
a(S'she'
p6854
g7
F0.9987
tp6855
a(S'ever'
p6856
g104
F0.9966
tp6857
a(S'was'
p6858
g15
F0.9988
tp6859
a(S'laughs'
p6860
g15
F0.9313
tp6861
asI531
(lp6862
(S'oh'
p6863
g3
F0.9937
tp6864
a(S'howls'
p6865
g10
F0.4358
tp6866
asI532
(lp6867
(S'laughs'
p6868
g15
F0.9102
tp6869
asI533
(lp6870
(S'maybe'
p6871
g104
F0.9505
tp6872
a(S'xxx'
p6873
g1444
F0.7724
tp6874
asI534
(lp6875
(S'sit'
p6876
g15
F0.9868
tp6877
a(S'down'
p6878
g355
F0.7639
tp6879
a(S'and'
p6880
g219
F0.9962
tp6881
a(S'finish'
p6882
g15
F0.9946
tp6883
a(S'your'
p6884
g83
F0.9929
tp6885
a(S'tea'
p6886
g10
F0.9924
tp6887
asI535
(lp6888
(S'maybe'
p6889
g104
F0.9651
tp6890
a(S'on'
p6891
g32
F0.9962
tp6892
a(S'her'
p6893
g83
F0.9738
tp6894
a(S'birthday'
p6895
g10
F0.9992
tp6896
a(S'we'
p6897
g7
F0.9919
tp6898
a(S'can'
p6899
g15
F0.9996
tp6900
a(S'go'
p6901
g15
F0.9997
tp6902
a(S'down'
p6903
g104
F0.8737
tp6904
a(S'to'
p6905
g32
F0.9993
tp6906
a(S'the'
p6907
g83
F0.9986
tp6908
a(S'pound'
p6909
g10
F0.9875
tp6910
a(S'and'
p6911
g219
F0.9976
tp6912
a(S'say'
p6913
g15
F0.9927
tp6914
a(S'she'
p6915
g7
F0.991
tp6916
a(S'um'
p6917
g3
F0.4927
tp6918
a(S'doin'
p6919
g15
F0.9817
tp6920
a(g58
g15
F0.2572
tp6921
a(S'good'
p6922
g20
F0.9911
tp6923
asI536
(lp6924
(S'yeah'
p6925
g3
F0.9968
tp6926
a(g37
g7
F0.9963
tp6927
a(S'know'
p6928
g15
F0.9985
tp6929
a(g37
g7
F0.9945
tp6930
a(S'thought'
p6931
g15
F0.9994
tp6932
a(S'about'
p6933
g32
F0.9807
tp6934
a(S'that'
p6935
g7
F0.9167
tp6936
a(S'maybe'
p6937
g104
F0.971
tp6938
a(S'we'
p6939
g7
F0.9983
tp6940
a(S'could'
p6941
g15
F0.9995
tp6942
a(S'just'
p6943
g104
F0.9995
tp6944
a(S'take'
p6945
g15
F0.9997
tp6946
a(S'her'
p6947
g7
F0.4833
tp6948
a(S'back'
p6949
g104
F0.8952
tp6950
a(S'and'
p6951
g219
F0.9975
tp6952
a(S'and'
p6953
g219
F0.9979
tp6954
a(S'say'
p6955
g15
F0.9984
tp6956
a(S'you'
p6957
g7
F0.9995
tp6958
a(S'know'
p6959
g15
F0.9988
tp6960
a(S'let'
p6961
g15
F0.9032
tp6962
a(g43
g301
F0.457
tp6963
a(S'show'
p6964
g15
F0.8628
tp6965
a(S'them'
p6966
g7
F0.9428
tp6967
a(S'how'
p6968
g104
F0.9978
tp6969
a(S'good'
p6970
g20
F0.9966
tp6971
a(S'she'
p6972
g7
F0.9848
tp6973
a(g43
g15
F0.6573
tp6974
a(S'doing'
p6975
g15
F0.9961
tp6976
asI537
(lp6977
(S'we'
p6978
g7
F0.9554
tp6979
a(S'st'
p6980
g10
F0.3439
tp6981
a(S'uh'
p6982
g3
F0.8813
tp6983
a(g37
g7
F0.9795
tp6984
a(g607
g15
F0.9661
tp6985
a(S'still'
p6986
g104
F0.9943
tp6987
a(S'gonna'
p6988
g15
F0.9981
tp6989
a(S'write'
p6990
g15
F0.9993
tp6991
a(g82
g83
F0.9976
tp6992
a(S'letter'
p6993
g10
F0.9971
tp6994
a(S'to'
p6995
g32
F0.9989
tp6996
a(S'them'
p6997
g7
F0.8779
tp6998
a(S'you'
p6999
g7
F0.9985
tp7000
a(S'know'
p7001
g15
F0.9976
tp7002
asI538
(lp7003
(S'but'
p7004
g219
F0.9913
tp7005
a(S'actually'
p7006
g104
F0.9985
tp7007
a(S'it'
p7008
g7
F0.9952
tp7009
a(S'might'
p7010
g15
F0.998
tp7011
a(S'be'
p7012
g15
F0.9994
tp7013
a(S'better'
p7014
g104
F0.5313
tp7015
a(S'if'
p7016
g32
F0.9993
tp7017
a(S'we'
p7018
g7
F0.9885
tp7019
a(S'both'
p7020
g7
F0.7222
tp7021
a(S'wrote'
p7022
g15
F0.9986
tp7023
a(S'it'
p7024
g7
F0.9902
tp7025
a(S'or'
p7026
g219
F0.969
tp7027
a(S'you'
p7028
g7
F0.9994
tp7029
a(S'wrote'
p7030
g15
F0.9998
tp7031
a(S'it'
p7032
g7
F0.9884
tp7033
asI539
(lp7034
(S'you'
p7035
g7
F0.9983
tp7036
a(S'know'
p7037
g15
F0.9999
tp7038
a(S'it'
p7039
g7
F0.9822
tp7040
a(g801
g15
F0.3548
tp7041
a(S'be'
p7042
g15
F0.9947
tp7043
a(S'nice'
p7044
g20
F0.9958
tp7045
asI540
(lp7046
(S'how'
p7047
g104
F0.9647
tp7048
a(g82
g83
F0.973
tp7049
a(S'bout'
p7050
g32
F0.6452
tp7051
a(S'we'
p7052
g7
F0.9777
tp7053
a(S'both'
p7054
g7
F0.7221
tp7055
a(S'wrote'
p7056
g15
F0.9984
tp7057
a(S'it'
p7058
g7
F0.9891
tp7059
asI541
(lp7060
(S'yeah'
p7061
g3
F0.9938
tp7062
a(S'or'
p7063
g219
F0.9939
tp7064
a(g37
g7
F0.9917
tp7065
a(S'can'
p7066
g15
F0.9998
tp7067
a(S'type'
p7068
g15
F0.9955
tp7069
a(S'it'
p7070
g7
F0.945
tp7071
a(S'on'
p7072
g32
F0.9766
tp7073
a(S'the'
p7074
g83
F0.9995
tp7075
a(S'computer'
p7076
g10
F0.9954
tp7077
a(S'and'
p7078
g219
F0.9968
tp7079
a(S'you'
p7080
g7
F0.9995
tp7081
a(S'could'
p7082
g15
F0.9992
tp7083
a(S'draw'
p7084
g15
F0.9948
tp7085
a(g82
g83
F0.9977
tp7086
a(S'picture'
p7087
g10
F0.9967
tp7088
asI542
(lp7089
(S'or'
p7090
g219
F0.9887
tp7091
a(S'write'
p7092
g15
F0.9945
tp7093
a(S'it'
p7094
g7
F0.9941
tp7095
a(S'and'
p7096
g219
F0.9893
tp7097
a(S'like'
p7098
g15
F0.6105
tp7099
asI543
(lp7100
(S'have'
p7101
g15
F0.9861
tp7102
a(S'toby'
p7103
g425
F0.8749
tp7104
a(S'step'
p7105
g15
F0.6115
tp7106
a(S'in'
p7107
g32
F0.8981
tp7108
a(S'ink'
p7109
g10
F0.9648
tp7110
a(S'laughs'
p7111
g15
F0.9058
tp7112
asI544
(lp7113
(S'laughs'
p7114
g15
F0.9102
tp7115
asI545
(lp7116
(S'and'
p7117
g219
F0.9987
tp7118
a(S'then'
p7119
g104
F0.9855
tp7120
a(S'go'
p7121
g15
F0.9847
tp7122
a(S'on'
p7123
g32
F0.9915
tp7124
a(S'the'
p7125
g83
F0.9994
tp7126
a(S'paper'
p7127
g10
F0.9895
tp7128
asI546
(lp7129
(S'yeah'
p7130
g3
F0.9983
tp7131
a(S'that'
p7132
g7
F0.6675
tp7133
a(g43
g15
F0.6242
tp7134
a(g82
g83
F0.9935
tp7135
a(S'good'
p7136
g20
F0.9988
tp7137
a(S'idea'
p7138
g10
F0.9689
tp7139
asI547
(lp7140
(g37
g7
F0.953
tp7141
a(g607
g15
F0.9843
tp7142
a(S'lovin'
p7143
g15
F0.5904
tp7144
a(g58
g15
F0.5618
tp7145
a(S'it'
p7146
g7
F0.997
tp7147
a(S'here'
p7148
g104
F0.9779
tp7149
a(S'at'
p7150
g32
F0.9509
tp7151
a(S'at'
p7152
g32
F0.9799
tp7153
a(S'mot'
p7154
g425
F0.486
tp7155
a(S'and'
p7156
g219
F0.9972
tp7157
a(S'chi'
p7158
g425
F0.638
tp7159
a(g43
g301
F0.4167
tp7160
a(S'house'
p7161
g10
F0.9146
tp7162
a(S'be'
p7163
g15
F0.9865
tp7164
a(S'cause'
p7165
g32
F0.665
tp7166
a(g37
g7
F0.9927
tp7167
a(S'get'
p7168
g15
F0.9999
tp7169
a(S'to'
p7170
g32
F0.9933
tp7171
a(S'eat'
p7172
g15
F0.9991
tp7173
a(g82
g83
F0.9976
tp7174
a(S'lot'
p7175
g10
F0.9842
tp7176
a(S'of'
p7177
g32
F0.9979
tp7178
a(S'cookies'
p7179
g10
F0.9877
tp7180
a(S'laughs'
p7181
g15
F0.8607
tp7182
asI548
(lp7183
(S'laughs'
p7184
g15
F0.9102
tp7185
asI549
(lp7186
(S'and'
p7187
g219
F0.999
tp7188
a(g37
g7
F0.9862
tp7189
a(g607
g15
F0.9838
tp7190
a(S'getting'
p7191
g15
F0.9883
tp7192
a(S'very'
p7193
g104
F0.9957
tp7194
a(S'fat'
p7195
g20
F0.9992
tp7196
asI550
(lp7197
(S'no'
p7198
g3
F0.7822
tp7199
a(S'no'
p7200
g3
F0.8036
tp7201
asI551
(lp7202
(S'and'
p7203
g219
F0.9986
tp7204
a(S'when'
p7205
g104
F0.9842
tp7206
a(g37
g7
F0.9869
tp7207
a(S'go'
p7208
g15
F0.9997
tp7209
a(S'over'
p7210
g32
F0.5527
tp7211
a(S'to'
p7212
g32
F0.9653
tp7213
a(S'um'
p7214
g15
F0.4126
tp7215
a(S'to'
p7216
g32
F0.9678
tp7217
a(S'bro'
p7218
g10
F0.9031
tp7219
a(S'ther'
p7220
g83
F0.4521
tp7221
a(g43
g301
F0.5938
tp7222
a(S'grandmother'
p7223
g10
F0.911
tp7224
a(g43
g301
F0.8311
tp7225
a(g37
g7
F0.9455
tp7226
a(g37
g7
F0.9253
tp7227
a(g37
g7
F0.7185
tp7228
a(S'she'
p7229
g7
F0.9941
tp7230
a(S'gives'
p7231
g15
F1.0
tp7232
a(S'me'
p7233
g7
F0.9875
tp7234
a(S'two'
p7235
g99
F0.8861
tp7236
a(S'whole'
p7237
g20
F0.973
tp7238
a(S'cookies'
p7239
g10
F0.9989
tp7240
a(S'laughs'
p7241
g15
F0.8545
tp7242
asI552
(lp7243
(S'laughs'
p7244
g15
F0.9102
tp7245
asI553
(lp7246
(S'oh'
p7247
g3
F0.9967
tp7248
a(S'god'
p7249
g425
F0.8061
tp7250
a(S'barbara'
p7251
g425
F0.9786
tp7252
asI554
(lp7253
(S'she'
p7254
g7
F0.9969
tp7255
a(S'gave'
p7256
g15
F0.9998
tp7257
a(S'her'
p7258
g83
F0.8382
tp7259
a(S'two'
p7260
g99
F0.9012
tp7261
a(S'whole'
p7262
g20
F0.9729
tp7263
a(S'cookies'
p7264
g10
F0.9987
tp7265
asI555
(lp7266
(S'and'
p7267
g219
F0.9987
tp7268
a(S'then'
p7269
g104
F0.9593
tp7270
a(g82
g83
F0.9938
tp7271
a(S'half'
p7272
g99
F0.3955
tp7273
a(g82
g83
F0.9831
tp7274
a(S'cookie'
p7275
g10
F0.9948
tp7276
a(S'and'
p7277
g219
F0.9977
tp7278
a(S'then'
p7279
g104
F0.98
tp7280
a(S'we'
p7281
g7
F0.9982
tp7282
a(S'gave'
p7283
g15
F0.9999
tp7284
a(S'her'
p7285
g7
F0.6706
tp7286
a(g82
g83
F0.9947
tp7287
a(S'half'
p7288
g10
F0.3943
tp7289
a(g82
g83
F0.9734
tp7290
a(S'cookie'
p7291
g10
F0.9982
tp7292
asI556
(lp7293
(S'well'
p7294
g3
F0.7976
tp7295
a(S'no'
p7296
g104
F0.3881
tp7297
a(S'wonder'
p7298
g15
F0.923
tp7299
a(S'we'
p7300
g7
F0.9975
tp7301
a(S'were'
p7302
g15
F0.9998
tp7303
a(S'all'
p7304
g83
F0.7888
tp7305
a(S'stuffed'
p7306
g20
F0.7246
tp7307
asI557
(lp7308
(g37
g7
F0.9912
tp7309
a(S'know'
p7310
g15
F0.9989
tp7311
asI558
(lp7312
(S'we'
p7313
g7
F0.9771
tp7314
a(S'all'
p7315
g83
F0.4663
tp7316
a(S'came'
p7317
g15
F0.8053
tp7318
a(S'home'
p7319
g10
F0.6962
tp7320
a(S'and'
p7321
g219
F0.9982
tp7322
a(S'threw'
p7323
g15
F0.9983
tp7324
a(S'up'
p7325
g355
F0.962
tp7326
a(S'because'
p7327
g32
F0.9955
tp7328
a(S'of'
p7329
g32
F0.9805
tp7330
a(S'that'
p7331
g7
F0.6283
tp7332
a(S'laughs'
p7333
g15
F0.9813
tp7334
asI559
(lp7335
(S'laughs'
p7336
g15
F0.9102
tp7337
asI560
(lp7338
(S'and'
p7339
g219
F0.9985
tp7340
a(S'toby'
p7341
g425
F0.8295
tp7342
a(S'just'
p7343
g104
F0.998
tp7344
a(S'was'
p7345
g15
F0.997
tp7346
a(g37
g7
F0.9903
tp7347
a(g607
g15
F0.9796
tp7348
a(S'enjoying'
p7349
g15
F0.9993
tp7350
a(S'that'
p7351
g7
F0.8062
tp7352
asI561
(lp7353
(S'oh'
p7354
g3
F0.9832
tp7355
a(S'do'
p7356
g15
F0.9948
tp7357
a(S'do'
p7358
g15
F0.9947
tp7359
a(S'we'
p7360
g7
F0.9992
tp7361
a(S'have'
p7362
g15
F0.9995
tp7363
a(S'anymore'
p7364
g104
F0.9548
tp7365
asI562
(lp7366
(S'cookies'
p7367
g10
F0.9814
tp7368
asI563
(lp7369
(g37
g7
F0.9721
tp7370
a(S'kinda'
p7371
g104
F0.7856
tp7372
a(S'kind'
p7373
g10
F0.4768
tp7374
a(S'of'
p7375
g32
F0.9971
tp7376
a(S'got'
p7377
g15
F0.9679
tp7378
a(S'rid'
p7379
g20
F0.7025
tp7380
a(S'of'
p7381
g32
F0.9975
tp7382
a(S'th'
p7383
g301
F0.3144
tp7384
a(S'em'
p7385
g7
F0.9015
tp7386
asI564
(lp7387
(S'kinda'
p7388
g104
F0.6381
tp7389
a(S'kind'
p7390
g20
F0.6678
tp7391
a(S'of'
p7392
g32
F0.9731
tp7393
asI565
(lp7394
(S'yeah'
p7395
g3
F0.9978
tp7396
a(S'kinda'
p7397
g104
F0.5135
tp7398
a(S'kind'
p7399
g10
F0.5381
tp7400
a(S'of'
p7401
g32
F0.992
tp7402
asI566
(lp7403
(S'why'
p7404
g104
F0.9573
tp7405
a(S'you'
p7406
g7
F0.9934
tp7407
a(S'no'
p7408
g83
F0.781
tp7409
a(S'take'
p7410
g15
F0.7106
tp7411
a(S'some'
p7412
g83
F0.9947
tp7413
a(S'fruit'
p7414
g10
F0.9925
tp7415
a(S'to'
p7416
g32
F0.9989
tp7417
a(S'school'
p7418
g10
F0.9501
tp7419
a(S'today'
p7420
g10
F0.9958
tp7421
asI567
(lp7422
(S'but'
p7423
g219
F0.9948
tp7424
a(g37
g7
F0.9786
tp7425
a(S'wa'
p7426
g15
F0.4125
tp7427
a(g37
g7
F0.9658
tp7428
a(S've'
p7429
g15
F0.8357
tp7430
a(S'laughs'
p7431
g15
F0.9769
tp7432
a(S'been'
p7433
g15
F0.9709
tp7434
a(S'taking'
p7435
g15
F0.9989
tp7436
a(S'fruit'
p7437
g10
F0.9895
tp7438
a(S'for'
p7439
g32
F1.0
tp7440
a(S'the'
p7441
g83
F0.9996
tp7442
a(S'last'
p7443
g20
F0.9929
tp7444
a(S'four'
p7445
g99
F0.7913
tp7446
a(S'days'
p7447
g10
F0.9895
tp7448
a(S'laughs'
p7449
g15
F0.9141
tp7450
asI568
(lp7451
(S'that'
p7452
g7
F0.473
tp7453
a(g43
g15
F0.5395
tp7454
a(S'be'
p7455
g15
F0.9871
tp7456
a(S'cause'
p7457
g32
F0.9622
tp7458
a(S'we'
p7459
g7
F0.9972
tp7460
a(S've'
p7461
g15
F0.811
tp7462
a(S'got'
p7463
g15
F0.9963
tp7464
a(S'like'
p7465
g32
F0.5963
tp7466
a(S'five'
p7467
g99
F0.5146
tp7468
a(S'more'
p7469
g20
F0.8943
tp7470
a(S'pounds'
p7471
g10
F0.9974
tp7472
a(S'of'
p7473
g32
F0.9965
tp7474
a(S'pears'
p7475
g10
F0.9929
tp7476
a(S'in'
p7477
g32
F0.9992
tp7478
a(S'the'
p7479
g83
F0.999
tp7480
a(S'fridge'
p7481
g10
F0.9373
tp7482
asI569
(lp7483
(S'laughs'
p7484
g15
F0.9102
tp7485
asI570
(lp7486
(S'laughs'
p7487
g15
F0.9102
tp7488
asI571
(lp7489
(S'we'
p7490
g7
F0.9973
tp7491
a(S'have'
p7492
g15
F0.9996
tp7493
a(S'to'
p7494
g32
F0.9959
tp7495
a(S'eat'
p7496
g15
F0.9996
tp7497
a(S'them'
p7498
g7
F0.9343
tp7499
a(S'all'
p7500
g83
F0.9261
tp7501
asI572
(lp7502
(S'oh'
p7503
g3
F0.9939
tp7504
a(S'come'
p7505
g15
F0.9859
tp7506
a(S'on'
p7507
g355
F0.7116
tp7508
asI573
(lp7509
(g37
g7
F0.9869
tp7510
a(S'wanna'
p7511
g15
F0.999
tp7512
a(S'take'
p7513
g15
F0.9989
tp7514
a(S'like'
p7515
g32
F0.8078
tp7516
a(g82
g83
F0.9946
tp7517
a(S'junk'
p7518
g10
F0.9935
tp7519
a(S'snack'
p7520
g10
F0.9848
tp7521
a(S'for'
p7522
g32
F0.9983
tp7523
a(S'once'
p7524
g104
F0.8782
tp7525
asI574
(lp7526
(S'no'
p7527
g3
F0.9253
tp7528
asI575
(lp7529
(g82
g83
F0.9944
tp7530
a(S'junk'
p7531
g10
F0.9915
tp7532
a(S'snack'
p7533
g10
F0.9882
tp7534
a(g43
g301
F0.5722
tp7535
a(S'no'
p7536
g83
F0.6889
tp7537
a(S'good'
p7538
g20
F0.8214
tp7539
a(S'for'
p7540
g32
F0.9997
tp7541
a(S'you'
p7542
g7
F0.9993
tp7543
asI576
(lp7544
(S'but'
p7545
g219
F0.9931
tp7546
a(S'mom'
p7547
g10
F0.8553
tp7548
a(S'whining'
p7549
g15
F0.9999
tp7550
a(S'all'
p7551
g83
F0.5366
tp7552
a(S'the'
p7553
g83
F0.9996
tp7554
a(S'other'
p7555
g20
F0.9943
tp7556
a(S'kids'
p7557
g10
F0.9873
tp7558
a(S'do'
p7559
g15
F0.9992
tp7560
a(S'it'
p7561
g7
F0.9933
tp7562
asI577
(lp7563
(S'hey'
p7564
g3
F0.9986
tp7565
asI578
(lp7566
(S'all'
p7567
g2652
F0.7572
tp7568
a(S'the'
p7569
g83
F0.9999
tp7570
a(S'other'
p7571
g20
F0.9919
tp7572
a(S'kids'
p7573
g10
F0.9925
tp7574
asI579
(lp7575
(S'that'
p7576
g7
F0.473
tp7577
a(g43
g301
F0.472
tp7578
a(S'why'
p7579
g104
F0.9204
tp7580
a(S'they'
p7581
g7
F0.9494
tp7582
a(S're'
p7583
g15
F0.9475
tp7584
a(S'all'
p7585
g83
F0.8894
tp7586
a(S'unhealthy'
p7587
g20
F0.9986
tp7588
a(S'and'
p7589
g219
F0.9979
tp7590
asI580
(lp7591
(S'but'
p7592
g219
F0.9945
tp7593
a(S'they'
p7594
g7
F0.993
tp7595
asI581
(lp7596
(S'yeah'
p7597
g3
F0.9978
tp7598
a(S'but'
p7599
g219
F0.9884
tp7600
a(S'once'
p7601
g104
F0.984
tp7602
asI582
(lp7603
(g37
g7
F0.9583
tp7604
a(g37
g7
F0.9145
tp7605
a(S've'
p7606
g15
F0.8548
tp7607
a(S'been'
p7608
g15
F0.9843
tp7609
a(S'taking'
p7610
g15
F0.9989
tp7611
a(S'pears'
p7612
g10
F0.9976
tp7613
a(S'for'
p7614
g32
F1.0
tp7615
a(S'the'
p7616
g83
F0.9996
tp7617
a(S'last'
p7618
g20
F0.9929
tp7619
a(S'four'
p7620
g99
F0.7894
tp7621
a(S'days'
p7622
g10
F0.9889
tp7623
a(S'and'
p7624
g219
F0.9982
tp7625
a(S'then'
p7626
g104
F0.9641
tp7627
a(S'apples'
p7628
g10
F0.9426
tp7629
asI583
(lp7630
(S'well'
p7631
g3
F0.663
tp7632
a(S'do'
p7633
g15
F0.9982
tp7634
a(S'you'
p7635
g7
F0.9997
tp7636
a(S'have'
p7637
g15
F0.9993
tp7638
a(S'any'
p7639
g83
F0.9944
tp7640
a(S'popcorn'
p7641
g10
F0.9392
tp7642
asI584
(lp7643
(S'do'
p7644
g15
F0.9985
tp7645
a(S'you'
p7646
g7
F0.9996
tp7647
a(S'have'
p7648
g15
F0.9998
tp7649
a(S'another'
p7650
g83
F0.9771
tp7651
a(S'popcorner'
p7652
g10
F0.6722
tp7653
a(S'wp'
p7654
g10
F0.6287
tp7655
asI585
(lp7656
(S'no'
p7657
g3
F0.9253
tp7658
asI586
(lp7659
(S'junk'
p7660
g10
F0.9005
tp7661
a(S'food'
p7662
g10
F0.9985
tp7663
a(S'is'
p7664
g15
F0.9979
tp7665
a(S'no'
p7666
g83
F0.746
tp7667
a(S'good'
p7668
g20
F0.8242
tp7669
a(S'for'
p7670
g32
F0.9997
tp7671
a(S'you'
p7672
g7
F0.9988
tp7673
asI587
(lp7674
(S'if'
p7675
g32
F0.984
tp7676
a(g37
g7
F0.9972
tp7677
a(S'had'
p7678
g15
F0.9999
tp7679
a(S'if'
p7680
g32
F0.9873
tp7681
a(g37
g7
F0.9985
tp7682
a(S'did'
p7683
g15
F0.9993
tp7684
a(g37
g7
F0.9957
tp7685
a(S'would'
p7686
g15
F0.9998
tp7687
a(S'have'
p7688
g15
F0.9999
tp7689
a(S'taken'
p7690
g15
F0.9986
tp7691
a(S'it'
p7692
g7
F0.9795
tp7693
a(S'by'
p7694
g32
F0.9851
tp7695
a(S'now'
p7696
g104
F0.9868
tp7697
asI588
(lp7698
(S'it'
p7699
g7
F0.9922
tp7700
a(S'doesn'
p7701
g15
F0.991
tp7702
a(g74
g10
F0.2717
tp7703
a(S'give'
p7704
g15
F0.999
tp7705
a(S'you'
p7706
g7
F0.9978
tp7707
a(S'the'
p7708
g83
F0.9989
tp7709
a(S'good'
p7710
g20
F0.9853
tp7711
a(S'calories'
p7712
g10
F0.9809
tp7713
a(S'you'
p7714
g7
F0.9971
tp7715
a(S'need'
p7716
g15
F0.9985
tp7717
a(S'to'
p7718
g32
F0.9918
tp7719
a(S'get'
p7720
g15
F0.9997
tp7721
a(S'through'
p7722
g32
F0.9628
tp7723
a(S'school'
p7724
g10
F0.9925
tp7725
asI589
(lp7726
(S'come'
p7727
g15
F0.9849
tp7728
a(S'on'
p7729
g355
F0.5632
tp7730
asI590
(lp7731
(S'hey'
p7732
g3
F0.9978
tp7733
a(S'what'
p7734
g7
F0.9955
tp7735
a(S'are'
p7736
g15
F0.9969
tp7737
a(S'those'
p7738
g83
F0.8935
tp7739
a(S'other'
p7740
g20
F0.9504
tp7741
a(g37
g7
F0.9733
tp7742
a(S'thought'
p7743
g15
F0.9972
tp7744
a(S'isn'
p7745
g301
F0.3154
tp7746
a(g74
g301
F0.7756
tp7747
a(S'was'
p7748
g15
F0.9991
tp7749
a(S'it'
p7750
g7
F0.9967
tp7751
a(S'only'
p7752
g104
F0.93
tp7753
a(S'is'
p7754
g15
F0.999
tp7755
a(S'miss'
p7756
g15
F0.8373
tp7757
a(S'lee'
p7758
g425
F0.9935
tp7759
a(g43
g301
F0.4151
tp7760
a(S'class'
p7761
g10
F0.9721
tp7762
a(S'that'
p7763
g32
F0.9887
tp7764
a(S'she'
p7765
g7
F0.999
tp7766
a(S'said'
p7767
g15
F0.9993
tp7768
a(S'no'
p7769
g83
F0.7782
tp7770
a(S'junk'
p7771
g10
F0.9993
tp7772
a(S'food'
p7773
g10
F0.9956
tp7774
a(S'for'
p7775
g32
F0.9997
tp7776
a(g82
g83
F0.9972
tp7777
a(S'snack'
p7778
g10
F0.9976
tp7779
asI591
(lp7780
(S'the'
p7781
g83
F0.999
tp7782
a(S'other'
p7783
g20
F0.9962
tp7784
a(S'teachers'
p7785
g10
F0.9879
tp7786
a(S'let'
p7787
g15
F0.9967
tp7788
a(S'the'
p7789
g83
F0.9993
tp7790
a(S'kids'
p7791
g10
F0.9872
tp7792
a(S'bring'
p7793
g15
F0.9975
tp7794
a(S'junk'
p7795
g10
F0.9686
tp7796
a(S'food'
p7797
g10
F0.996
tp7798
asI592
(lp7799
(S'no'
p7800
g3
F0.8958
tp7801
a(S'um'
p7802
g3
F0.6805
tp7803
a(S'miss'
p7804
g15
F0.8834
tp7805
a(S'lee'
p7806
g425
F0.9874
tp7807
a(S'let'
p7808
g15
F0.9986
tp7809
a(S'us'
p7810
g7
F0.9947
tp7811
a(S'bring'
p7812
g15
F0.9997
tp7813
a(S'it'
p7814
g7
F0.9703
tp7815
a(S'on'
p7816
g32
F0.9336
tp7817
a(S'friday'
p7818
g425
F0.9632
tp7819
a(S'and'
p7820
g219
F0.9983
tp7821
a(S'miss'
p7822
g15
F0.9384
tp7823
a(S'aufrey'
p7824
g10
F0.3184
tp7825
a(S'let'
p7826
g15
F0.9984
tp7827
a(S'us'
p7828
g7
F0.9955
tp7829
a(S'just'
p7830
g104
F0.9994
tp7831
a(S'all'
p7832
g83
F0.7223
tp7833
a(S'bring'
p7834
g15
F0.9973
tp7835
a(S'it'
p7836
g7
F0.9731
tp7837
a(S'on'
p7838
g32
F0.9242
tp7839
a(S'friday'
p7840
g425
F0.9391
tp7841
asI593
(lp7842
(S'sneezes'
p7843
g15
F0.6777
tp7844
asI594
(lp7845
(S'oh'
p7846
g3
F0.9965
tp7847
a(S'excuse'
p7848
g15
F0.9687
tp7849
a(S'me'
p7850
g7
F0.9987
tp7851
asI595
(lp7852
(S'miss'
p7853
g15
F0.7924
tp7854
a(S'melia'
p7855
g425
F0.9278
tp7856
a(S'doesn'
p7857
g15
F0.8924
tp7858
a(g74
g301
F0.3253
tp7859
a(S'really'
p7860
g104
F0.9948
tp7861
a(S'care'
p7862
g15
F0.9791
tp7863
asI596
(lp7864
(S'miss'
p7865
g15
F0.7924
tp7866
a(S'melia'
p7867
g425
F0.9278
tp7868
a(S'doesn'
p7869
g15
F0.8924
tp7870
a(g74
g10
F0.2755
tp7871
a(S'care'
p7872
g15
F0.9267
tp7873
a(S'if'
p7874
g32
F0.9989
tp7875
a(S'you'
p7876
g7
F0.9997
tp7877
a(S'bring'
p7878
g15
F0.9995
tp7879
a(S'crap'
p7880
g10
F0.9858
tp7881
a(S'to'
p7882
g32
F0.9992
tp7883
a(S'school'
p7884
g10
F0.9537
tp7885
asI597
(lp7886
(S'no'
p7887
g3
F0.9253
tp7888
asI598
(lp7889
(S'no'
p7890
g3
F0.9253
tp7891
asI599
(lp7892
(S'she'
p7893
g7
F0.9802
tp7894
a(S'she'
p7895
g7
F0.9665
tp7896
a(S'um'
p7897
g3
F0.4968
tp7898
a(S'doesn'
p7899
g15
F0.9069
tp7900
a(g74
g10
F0.2379
tp7901
a(S'allow'
p7902
g15
F0.9861
tp7903
a(S'like'
p7904
g32
F0.8015
tp7905
a(S'candy'
p7906
g10
F0.8841
tp7907
a(S'bars'
p7908
g10
F0.9975
tp7909
asI600
(lp7910
(S'well'
p7911
g3
F0.9502
tp7912
a(S'that'
p7913
g7
F0.813
tp7914
a(g43
g15
F0.5214
tp7915
a(S'good'
p7916
g20
F0.9854
tp7917
a(S'of'
p7918
g32
F0.9964
tp7919
a(S'her'
p7920
g7
F0.6364
tp7921
asI601
(lp7922
(S'that'
p7923
g83
F0.8683
tp7924
a(S'stuff'
p7925
g10
F0.9963
tp7926
asI602
(lp7927
(S'she'
p7928
g7
F0.997
tp7929
a(S'allows'
p7930
g15
F0.9975
tp7931
a(S'like'
p7932
g32
F0.7932
tp7933
a(S'cookies'
p7934
g10
F0.9952
tp7935
a(S'um'
p7936
g3
F0.8282
tp7937
asI603
(lp7938
(S'do'
p7939
g15
F0.9971
tp7940
a(S'some'
p7941
g83
F0.9925
tp7942
a(S'kids'
p7943
g10
F0.9852
tp7944
a(S'bring'
p7945
g15
F0.9992
tp7946
a(S'that'
p7947
g7
F0.6204
tp7948
a(S'everyday'
p7949
g10
F0.7571
tp7950
asI604
(lp7951
(S'yeah'
p7952
g3
F0.9988
tp7953
asI605
(lp7954
(S'they'
p7955
g7
F0.9571
tp7956
a(g82
g83
F0.9717
tp7957
a(S'lot'
p7958
g10
F0.9886
tp7959
a(S'of'
p7960
g32
F0.9965
tp7961
a(S'kids'
p7962
g10
F0.9272
tp7963
a(S'bring'
p7964
g15
F0.9995
tp7965
a(S'that'
p7966
g7
F0.6557
tp7967
asI606
(lp7968
(S'cookies'
p7969
g10
F0.9925
tp7970
a(S'everyday'
p7971
g10
F0.9264
tp7972
asI607
(lp7973
(S'yeah'
p7974
g3
F0.9988
tp7975
asI608
(lp7976
(g2707
g99
F0.9875
tp7977
a(S'blows'
p7978
g10
F0.5606
tp7979
a(S'nose'
p7980
g10
F0.996
tp7981
asI609
(lp7982
(S'carla'
p7983
g425
F0.9872
tp7984
a(S'when'
p7985
g104
F0.9677
tp7986
a(S'she'
p7987
g7
F0.994
tp7988
a(S'wasn'
p7989
g15
F0.9057
tp7990
a(g74
g301
F0.2899
tp7991
a(S'sick'
p7992
g20
F0.9583
tp7993
a(S'she'
p7994
g7
F0.9894
tp7995
a(g43
g301
F0.5201
tp7996
a(S'been'
p7997
g15
F0.9852
tp7998
a(S'gone'
p7999
g15
F0.9793
tp8000
a(S'for'
p8001
g32
F0.9934
tp8002
a(S'like'
p8003
g20
F0.4849
tp8004
a(S'four'
p8005
g99
F0.6985
tp8006
a(S'days'
p8007
g10
F0.9767
tp8008
a(S'um'
p8009
g3
F0.641
tp8010
a(S'she'
p8011
g7
F0.9864
tp8012
a(S'um'
p8013
g3
F0.5365
tp8014
a(S'she'
p8015
g7
F0.9963
tp8016
a(S'just'
p8017
g104
F0.9999
tp8018
a(S'like'
p8019
g32
F0.7327
tp8020
a(S'brought'
p8021
g15
F0.9579
tp8022
a(S'three'
p8023
g99
F0.7921
tp8024
a(S'cookies'
p8025
g10
F0.9954
tp8026
a(g82
g83
F0.979
tp8027
a(S'day'
p8028
g10
F0.9984
tp8029
asI610
(lp8030
(S'not'
p8031
g104
F0.9933
tp8032
a(S'just'
p8033
g104
F0.9948
tp8034
a(S'one'
p8035
g99
F0.9321
tp8036
a(S'day'
p8037
g10
F0.996
tp8038
asI611
(lp8039
(S'do'
p8040
g15
F0.9945
tp8041
a(S'they'
p8042
g7
F0.9902
tp8043
a(S'bring'
p8044
g15
F0.9994
tp8045
a(S'uh'
p8046
g3
F0.6758
tp8047
a(S'home'
p8048
g10
F0.9301
tp8049
a(S'lunch'
p8050
g10
F0.9793
tp8051
a(S'or'
p8052
g219
F0.9845
tp8053
a(S'school'
p8054
g10
F0.9961
tp8055
a(S'lunch'
p8056
g10
F0.9846
tp8057
asI612
(lp8058
(S'school'
p8059
g10
F0.9809
tp8060
asI613
(lp8061
(S'and'
p8062
g219
F0.9991
tp8063
a(S'they'
p8064
g7
F0.9919
tp8065
a(S'bring'
p8066
g15
F0.9998
tp8067
a(S'chips'
p8068
g10
F0.9594
tp8069
a(S'for'
p8070
g32
F0.9993
tp8071
a(S'home'
p8072
g10
F0.8601
tp8073
a(S'room'
p8074
g10
F0.9864
tp8075
asI614
(lp8076
(S'well'
p8077
g3
F0.7747
tp8078
a(S'so'
p8079
g32
F0.789
tp8080
a(S'they'
p8081
g7
F0.9934
tp8082
a(S'eat'
p8083
g15
F0.9995
tp8084
a(g82
g83
F0.9976
tp8085
a(S'lot'
p8086
g10
F0.9842
tp8087
a(S'of'
p8088
g32
F0.9977
tp8089
a(S'junk'
p8090
g10
F0.9679
tp8091
a(S'food'
p8092
g10
F0.9888
tp8093
a(S'that'
p8094
g32
F0.9346
tp8095
a(g43
g301
F0.6306
tp8096
a(S'not'
p8097
g104
F0.9981
tp8098
a(S'healthy'
p8099
g20
F0.9308
tp8100
asI615
(lp8101
(g37
g7
F0.9811
tp8102
a(S'just'
p8103
g104
F0.999
tp8104
a(S'want'
p8105
g15
F0.9975
tp8106
a(S'one'
p8107
g99
F0.9072
tp8108
a(S'cookie'
p8109
g10
F0.9941
tp8110
asI616
(lp8111
(S'hey'
p8112
g3
F0.9864
tp8113
a(S'listen'
p8114
g15
F0.9952
tp8115
a(S'to'
p8116
g32
F0.9873
tp8117
a(S'me'
p8118
g7
F0.9984
tp8119
asI617
(lp8120
(S'are'
p8121
g15
F0.9964
tp8122
a(S'you'
p8123
g7
F0.9992
tp8124
a(S'still'
p8125
g104
F0.9934
tp8126
a(S'uh'
p8127
g3
F0.4685
tp8128
a(S'trading'
p8129
g15
F0.9348
tp8130
a(S'your'
p8131
g83
F0.9593
tp8132
a(S'school'
p8133
g10
F0.9984
tp8134
a(S'lunches'
p8135
g10
F0.9661
tp8136
asI618
(lp8137
(S'some'
p8138
g83
F0.7593
tp8139
a(S'of'
p8140
g32
F0.9942
tp8141
a(S'them'
p8142
g7
F0.9434
tp8143
asI619
(lp8144
(S'have'
p8145
g15
F0.9955
tp8146
a(S'they'
p8147
g7
F0.9919
tp8148
a(S'been'
p8149
g15
F0.9995
tp8150
a(S'any'
p8151
g83
F0.9199
tp8152
a(S'better'
p8153
g20
F0.6714
tp8154
a(S'lately'
p8155
g104
F0.9972
tp8156
a(S'or'
p8157
g219
F0.9854
tp8158
a(S'are'
p8159
g15
F0.9969
tp8160
a(S'they'
p8161
g7
F0.9963
tp8162
a(S'still'
p8163
g104
F0.9993
tp8164
a(S'nasty'
p8165
g20
F0.9987
tp8166
asI620
(lp8167
(g37
g7
F0.9835
tp8168
a(S'practically'
p8169
g104
F0.9845
tp8170
a(S'threw'
p8171
g15
F0.9993
tp8172
a(S'up'
p8173
g355
F0.9031
tp8174
a(S'the'
p8175
g83
F0.9997
tp8176
a(S'other'
p8177
g20
F0.9914
tp8178
a(S'day'
p8179
g10
F0.9954
tp8180
asI621
(lp8181
(S'no'
p8182
g3
F0.7985
tp8183
a(S'you'
p8184
g7
F0.9961
tp8185
a(S'would'
p8186
g15
F0.9997
tp8187
a(S'have'
p8188
g15
F0.9998
tp8189
a(S'got'
p8190
g15
F0.9493
tp8191
a(S'gotten'
p8192
g15
F0.9961
tp8193
a(S'the'
p8194
g83
F0.9988
tp8195
a(S'flu'
p8196
g10
F0.9842
tp8197
a(S'anyway'
p8198
g104
F0.9814
tp8199
asI622
(lp8200
(S'if'
p8201
g32
F0.9986
tp8202
a(S'the'
p8203
g83
F0.9967
tp8204
a(S'school'
p8205
g10
F0.9983
tp8206
a(S'lunch'
p8207
g10
F0.9924
tp8208
a(g37
g7
F0.945
tp8209
a(S'know'
p8210
g15
F0.9999
tp8211
a(S'you'
p8212
g7
F0.9986
tp8213
a(S'don'
p8214
g15
F0.8626
tp8215
a(g74
g15
F0.4265
tp8216
a(S'like'
p8217
g32
F0.938
tp8218
a(S'the'
p8219
g83
F0.9982
tp8220
a(S'school'
p8221
g10
F0.9971
tp8222
a(S'lunches'
p8223
g10
F0.9468
tp8224
a(S'but'
p8225
g219
F0.9834
tp8226
a(S'they'
p8227
g7
F0.9898
tp8228
a(S'didn'
p8229
g15
F0.9875
tp8230
a(g74
g15
F0.7077
tp8231
a(S'actually'
p8232
g104
F0.9992
tp8233
a(S'physically'
p8234
g104
F0.9972
tp8235
a(S'make'
p8236
g15
F0.9977
tp8237
a(S'you'
p8238
g7
F0.9905
tp8239
a(S'sick'
p8240
g20
F0.963
tp8241
asI623
(lp8242
(S'you'
p8243
g7
F0.9945
tp8244
a(S'were'
p8245
g15
F0.9985
tp8246
a(S'getting'
p8247
g15
F0.9989
tp8248
a(S'the'
p8249
g83
F0.9993
tp8250
a(S'flu'
p8251
g10
F0.9585
tp8252
asI624
(lp8253
(S'mom'
p8254
g10
F0.7188
tp8255
asI625
(lp8256
(S'they'
p8257
g7
F0.9817
tp8258
a(S'put'
p8259
g15
F0.9947
tp8260
a(S'meat'
p8261
g10
F0.9872
tp8262
a(S'in'
p8263
g32
F0.994
tp8264
a(S'everything'
p8265
g10
F0.9937
tp8266
asI626
(lp8267
(S'they'
p8268
g7
F0.9817
tp8269
a(S'put'
p8270
g15
F0.9947
tp8271
a(S'meat'
p8272
g10
F0.9872
tp8273
a(S'in'
p8274
g32
F0.994
tp8275
a(S'everything'
p8276
g10
F0.9937
tp8277
asI627
(lp8278
(S'they'
p8279
g7
F0.9817
tp8280
a(S'put'
p8281
g15
F0.9981
tp8282
a(S'they'
p8283
g7
F0.9794
tp8284
a(S'put'
p8285
g15
F0.9935
tp8286
a(S'chicken'
p8287
g10
F0.8059
tp8288
a(S'and'
p8289
g219
F0.997
tp8290
a(S'they'
p8291
g7
F0.9855
tp8292
a(S'they'
p8293
g7
F0.9686
tp8294
a(S'put'
p8295
g15
F0.9871
tp8296
a(S'like'
p8297
g32
F0.8231
tp8298
a(S'beef'
p8299
g10
F0.9927
tp8300
a(S'in'
p8301
g32
F0.9988
tp8302
a(S'their'
p8303
g83
F0.993
tp8304
a(S'chicken'
p8305
g10
F0.9659
tp8306
a(S'mc'
p8307
g10
F0.6203
tp8308
a(S'nuggets'
p8309
g10
F0.9201
tp8310
asI628
(lp8311
(S'they'
p8312
g7
F0.9817
tp8313
a(S'put'
p8314
g15
F0.9988
tp8315
a(S'every'
p8316
g83
F0.9905
tp8317
a(S'single'
p8318
g20
F0.9134
tp8319
a(S'thing'
p8320
g10
F0.9978
tp8321
a(S'but'
p8322
g219
F0.9035
tp8323
a(S'the'
p8324
g83
F0.9969
tp8325
a(S'hash'
p8326
g10
F0.8845
tp8327
a(S'browns'
p8328
g10
F0.7925
tp8329
asI629
(lp8330
(S'they'
p8331
g7
F0.9925
tp8332
a(S'have'
p8333
g15
F0.9981
tp8334
a(S'meat'
p8335
g10
F0.991
tp8336
asI630
(lp8337
(S'if'
p8338
g32
F0.9977
tp8339
a(S'you'
p8340
g7
F0.9996
tp8341
a(S'look'
p8342
g15
F0.9976
tp8343
a(S'on'
p8344
g32
F0.994
tp8345
a(S'the'
p8346
g83
F0.9994
tp8347
a(S'calendar'
p8348
g10
F0.9969
tp8349
a(S'it'
p8350
g7
F0.96
tp8351
a(S'll'
p8352
g15
F0.467
tp8353
a(S'say'
p8354
g15
F0.9879
tp8355
a(S'chicken'
p8356
g10
F0.4695
tp8357
a(S'fillet'
p8358
g10
F0.9892
tp8359
asI631
(lp8360
(S'then'
p8361
g104
F0.981
tp8362
a(S'taco'
p8363
g20
F0.3195
tp8364
a(S'meat'
p8365
g10
F0.9962
tp8366
a(S'lettuce'
p8367
g10
F0.997
tp8368
a(S'and'
p8369
g219
F0.9975
tp8370
a(S'all'
p8371
g83
F0.4882
tp8372
a(S'that'
p8373
g83
F0.9366
tp8374
a(S'stuff'
p8375
g10
F0.9964
tp8376
asI632
(lp8377
(S'and'
p8378
g219
F0.9987
tp8379
a(S'then'
p8380
g104
F0.9486
tp8381
a(S'it'
p8382
g7
F0.9966
tp8383
a(S'll'
p8384
g104
F0.4308
tp8385
a(S'keep'
p8386
g15
F0.9846
tp8387
a(S'doing'
p8388
g15
F0.999
tp8389
a(S'that'
p8390
g7
F0.8116
tp8391
a(S'and'
p8392
g219
F0.9969
tp8393
a(S'doing'
p8394
g15
F0.9996
tp8395
a(S'that'
p8396
g7
F0.8116
tp8397
a(S'and'
p8398
g219
F0.9971
tp8399
a(S'doing'
p8400
g15
F0.9995
tp8401
a(S'that'
p8402
g7
F0.7058
tp8403
asI633
(lp8404
(S'and'
p8405
g219
F0.9992
tp8406
a(S'another'
p8407
g83
F0.9794
tp8408
a(S'school'
p8409
g10
F0.999
tp8410
a(S'lunch'
p8411
g10
F0.9536
tp8412
a(S'that'
p8413
g32
F0.8707
tp8414
a(S'doesn'
p8415
g15
F0.9544
tp8416
a(g74
g10
F0.2453
tp8417
a(S'have'
p8418
g15
F0.9981
tp8419
a(S'um'
p8420
g3
F0.4801
tp8421
a(S'meat'
p8422
g10
F0.9199
tp8423
a(S'is'
p8424
g15
F0.9962
tp8425
a(S'um'
p8426
g7
F0.6408
tp8427
a(S'is'
p8428
g15
F0.998
tp8429
a(S'pizza'
p8430
g10
F0.9548
tp8431
asI634
(lp8432
(g37
g7
F0.9635
tp8433
a(S'don'
p8434
g15
F0.9231
tp8435
a(g74
g15
F0.4437
tp8436
a(S'like'
p8437
g32
F0.8646
tp8438
a(S'meat'
p8439
g10
F0.9783
tp8440
a(S'be'
p8441
g15
F0.971
tp8442
a(S'cause'
p8443
g32
F0.665
tp8444
a(g37
g7
F0.9813
tp8445
a(g607
g15
F0.9893
tp8446
a(g82
g83
F0.9964
tp8447
a(S'vegetarian'
p8448
g20
F0.9904
tp8449
a(S'and'
p8450
g219
F0.9981
tp8451
a(g37
g7
F0.9872
tp8452
a(S'don'
p8453
g15
F0.9198
tp8454
a(g74
g32
F0.2528
tp8455
a(S'eat'
p8456
g15
F0.9532
tp8457
a(S'meat'
p8458
g10
F0.9607
tp8459
a(S'any'
p8460
g83
F0.9564
tp8461
a(S'kind'
p8462
g10
F0.9803
tp8463
a(S'of'
p8464
g32
F0.9973
tp8465
a(S'meat'
p8466
g10
F0.8874
tp8467
a(S'including'
p8468
g15
F0.9641
tp8469
a(S'pepperoni'
p8470
g10
F0.9849
tp8471
a(S'because'
p8472
g32
F0.9978
tp8473
a(g37
g7
F0.9979
tp8474
a(S'know'
p8475
g15
F0.9999
tp8476
a(S'that'
p8477
g7
F0.5302
tp8478
a(g43
g301
F0.566
tp8479
a(S'still'
p8480
g104
F0.8568
tp8481
a(S'pig'
p8482
g10
F0.6208
tp8483
a(S'but'
p8484
g219
F0.988
tp8485
a(S'it'
p8486
g7
F0.9971
tp8487
a(g43
g15
F0.7004
tp8488
a(S'dried'
p8489
g20
F0.6243
tp8490
a(S'pig'
p8491
g10
F0.9904
tp8492
asI635
(lp8493
(S'yeah'
p8494
g3
F0.9988
tp8495
asI636
(lp8496
(S'well'
p8497
g3
F0.9664
tp8498
asI637
(lp8499
(S'chicken'
p8500
g425
F0.6404
tp8501
a(g43
g301
F0.8256
tp8502
a(S'the'
p8503
g83
F0.9733
tp8504
a(S'only'
p8505
g20
F0.908
tp8506
a(S'animal'
p8507
g10
F0.9573
tp8508
a(S'that'
p8509
g32
F0.8801
tp8510
a(g37
g7
F0.9942
tp8511
a(S'eat'
p8512
g15
F0.9973
tp8513
asI638
(lp8514
(S'well'
p8515
g3
F0.7958
tp8516
a(S'then'
p8517
g104
F0.9619
tp8518
a(S'we'
p8519
g7
F0.9982
tp8520
a(S'have'
p8521
g15
F0.9996
tp8522
a(S'to'
p8523
g32
F0.9898
tp8524
a(S'go'
p8525
g15
F0.9993
tp8526
a(S'back'
p8527
g104
F0.9738
tp8528
a(S'to'
p8529
g32
F0.9941
tp8530
a(S'making'
p8531
g15
F0.9998
tp8532
a(S'more'
p8533
g20
F0.65
tp8534
a(S'home'
p8535
g10
F0.9831
tp8536
a(S'lunches'
p8537
g10
F0.9371
tp8538
asI639
(lp8539
(S'home'
p8540
g10
F0.893
tp8541
a(S'lunches'
p8542
g10
F0.9407
tp8543
asI640
(lp8544
(S'yeah'
p8545
g3
F0.9988
tp8546
asI641
(lp8547
(S'but'
p8548
g219
F0.9889
tp8549
a(S'that'
p8550
g7
F0.6509
tp8551
a(g43
g301
F0.4694
tp8552
a(S'why'
p8553
g104
F0.9678
tp8554
a(g37
g7
F0.9955
tp8555
a(S'asked'
p8556
g15
F1.0
tp8557
a(S'you'
p8558
g7
F0.9984
tp8559
a(S'if'
p8560
g32
F0.9937
tp8561
a(S'you'
p8562
g7
F0.9996
tp8563
a(S'were'
p8564
g15
F0.9978
tp8565
a(S'still'
p8566
g104
F0.9386
tp8567
a(S'trading'
p8568
g15
F0.8867
tp8569
asI642
(lp8570
(S'but'
p8571
g219
F0.9944
tp8572
a(S'we'
p8573
g7
F0.9991
tp8574
a(S'need'
p8575
g15
F0.9998
tp8576
a(S'it'
p8577
g7
F0.979
tp8578
asI643
(lp8579
(S'are'
p8580
g15
F0.9964
tp8581
a(S'you'
p8582
g7
F0.9863
tp8583
a(S'trading'
p8584
g15
F0.9974
tp8585
a(S'your'
p8586
g83
F0.9677
tp8587
a(S'school'
p8588
g10
F0.9989
tp8589
a(S'lunches'
p8590
g10
F0.9552
tp8591
a(S'for'
p8592
g32
F0.9981
tp8593
a(S'for'
p8594
g32
F0.9567
tp8595
a(S'peanut'
p8596
g20
F0.886
tp8597
a(S'butters'
p8598
g10
F0.971
tp8599
a(S'and'
p8600
g219
F0.9984
tp8601
a(S'jellies'
p8602
g10
F0.8973
tp8603
a(S'and'
p8604
g219
F0.9983
tp8605
a(S'stuff'
p8606
g10
F0.9732
tp8607
asI644
(lp8608
(S'yeah'
p8609
g3
F0.9988
tp8610
asI645
(lp8611
(g37
g7
F0.9849
tp8612
a(S'try'
p8613
g15
F0.9989
tp8614
asI646
(lp8615
(S'no'
p8616
g83
F0.7829
tp8617
a(S'one'
p8618
g10
F0.7997
tp8619
a(S'likes'
p8620
g15
F0.9897
tp8621
a(S'to'
p8622
g32
F0.9807
tp8623
a(S'trade'
p8624
g15
F0.8648
tp8625
a(S'when'
p8626
g104
F0.9936
tp8627
a(S'with'
p8628
g32
F0.9993
tp8629
a(S'me'
p8630
g7
F0.9992
tp8631
a(S'anymore'
p8632
g104
F0.9976
tp8633
a(S'be'
p8634
g15
F0.988
tp8635
a(S'cause'
p8636
g32
F0.9535
tp8637
a(S'they'
p8638
g7
F0.9882
tp8639
a(S'get'
p8640
g15
F0.9996
tp8641
a(S'diarrhea'
p8642
g10
F0.9799
tp8643
asI647
(lp8644
(S'everyone'
p8645
g10
F0.9612
tp8646
a(S'gets'
p8647
g15
F0.9984
tp8648
a(S'diarrhea'
p8649
g10
F0.9878
tp8650
a(S'or'
p8651
g219
F0.9825
tp8652
a(S'they'
p8653
g7
F0.9907
tp8654
a(S'throw'
p8655
g15
F0.9983
tp8656
a(S'up'
p8657
g355
F0.9853
tp8658
asI648
(lp8659
(S'from'
p8660
g32
F0.9991
tp8661
a(S'the'
p8662
g83
F0.9987
tp8663
a(S'school'
p8664
g10
F0.999
tp8665
a(S'lunch'
p8666
g10
F0.9875
tp8667
asI649
(lp8668
(S'yeah'
p8669
g3
F0.9893
tp8670
a(S'one'
p8671
g99
F0.9685
tp8672
a(S'of'
p8673
g32
F0.9992
tp8674
a(S'the'
p8675
g83
F0.9992
tp8676
a(S'kindergarteners'
p8677
g10
F0.6681
tp8678
a(S'um'
p8679
g3
F0.8189
tp8680
a(g37
g7
F0.9918
tp8681
a(S'mean'
p8682
g15
F0.9506
tp8683
a(S'one'
p8684
g99
F0.9696
tp8685
a(S'of'
p8686
g32
F0.9994
tp8687
a(S'the'
p8688
g83
F0.9996
tp8689
a(S'first'
p8690
g20
F0.9899
tp8691
a(S'graders'
p8692
g10
F0.9895
tp8693
a(S'they'
p8694
g7
F0.9786
tp8695
a(S'have'
p8696
g15
F0.9989
tp8697
a(S'lunch'
p8698
g10
F0.9466
tp8699
a(S'early'
p8700
g20
F0.6855
tp8701
a(S'and'
p8702
g219
F0.9975
tp8703
a(S'they'
p8704
g7
F0.9947
tp8705
a(S'went'
p8706
g15
F0.9994
tp8707
a(S'home'
p8708
g104
F0.6914
tp8709
a(S'about'
p8710
g32
F0.9761
tp8711
a(S'half'
p8712
g10
F0.3576
tp8713
a(S'an'
p8714
g83
F0.9522
tp8715
a(S'hour'
p8716
g10
F0.9977
tp8717
a(S'later'
p8718
g104
F0.7846
tp8719
asI650
(lp8720
(S'alright'
p8721
g3
F0.9864
tp8722
asI651
(lp8723
(S'well'
p8724
g3
F0.7958
tp8725
a(S'then'
p8726
g104
F0.9619
tp8727
a(S'we'
p8728
g7
F0.9983
tp8729
a(S'need'
p8730
g15
F0.9986
tp8731
a(S'to'
p8732
g32
F0.9743
tp8733
a(S'making'
p8734
g15
F0.9998
tp8735
a(S'home'
p8736
g10
F0.932
tp8737
a(S'lunches'
p8738
g10
F0.9493
tp8739
a(S'again'
p8740
g104
F0.988
tp8741
asI652
(lp8742
(S'okay'
p8743
g3
F0.9857
tp8744
asI653
(lp8745
(S'the'
p8746
g83
F0.9986
tp8747
a(S'problem'
p8748
g10
F0.9986
tp8749
a(S'is'
p8750
g15
F0.9972
tp8751
a(S'we'
p8752
g7
F0.9994
tp8753
a(S'can'
p8754
g15
F0.9994
tp8755
a(g74
g15
F0.7959
tp8756
a(S'afford'
p8757
g15
F0.983
tp8758
a(S'to'
p8759
g32
F0.9541
tp8760
a(S'do'
p8761
g15
F0.9999
tp8762
a(S'that'
p8763
g32
F0.6216
tp8764
a(S'every'
p8765
g83
F0.9885
tp8766
a(S'single'
p8767
g20
F0.9116
tp8768
a(S'day'
p8769
g10
F0.9967
tp8770
a(S'because'
p8771
g32
F0.9998
tp8772
a(S'we'
p8773
g7
F0.999
tp8774
a(S'don'
p8775
g15
F0.8369
tp8776
a(g74
g15
F0.3021
tp8777
a(S'enough'
p8778
g20
F0.7333
tp8779
a(S'money'
p8780
g10
F0.9951
tp8781
a(S'to'
p8782
g32
F0.9993
tp8783
a(S'buy'
p8784
g15
F0.9986
tp8785
a(S'that'
p8786
g83
F0.3509
tp8787
a(S'much'
p8788
g20
F0.9596
tp8789
a(S'food'
p8790
g10
F0.9959
tp8791
a(S'but'
p8792
g219
F0.9822
tp8793
a(S'we'
p8794
g7
F0.9986
tp8795
a(S'can'
p8796
g15
F0.9996
tp8797
a(S'certainly'
p8798
g104
F0.9984
tp8799
a(S'take'
p8800
g15
F0.9995
tp8801
a(g82
g83
F0.9908
tp8802
a(S'break'
p8803
g10
F0.6863
tp8804
a(S'you'
p8805
g7
F0.9985
tp8806
a(S'know'
p8807
g15
F0.9988
tp8808
a(S'from'
p8809
g32
F0.9978
tp8810
a(S'school'
p8811
g10
F0.9826
tp8812
a(S'lunches'
p8813
g10
F0.9552
tp8814
a(S'for'
p8815
g32
F0.9997
tp8816
a(g82
g83
F0.8625
tp8817
a(S'while'
p8818
g10
F0.7277
tp8819
asI654
(lp8820
(S'yeah'
p8821
g3
F0.9988
tp8822
asI655
(lp8823
(S'and'
p8824
g219
F0.9985
tp8825
a(S'send'
p8826
g15
F0.9989
tp8827
a(S'you'
p8828
g7
F0.9983
tp8829
a(S'with'
p8830
g32
F0.9972
tp8831
a(S'um'
p8832
g3
F0.4365
tp8833
a(S'not'
p8834
g104
F0.9952
tp8835
a(S'just'
p8836
g104
F0.9995
tp8837
a(S'peanut'
p8838
g20
F0.9175
tp8839
a(S'butter'
p8840
g10
F0.9935
tp8841
a(S'and'
p8842
g219
F0.9981
tp8843
a(S'jelly'
p8844
g10
F0.8496
tp8845
a(S'but'
p8846
g219
F0.985
tp8847
a(S'will'
p8848
g15
F0.9975
tp8849
a(S'you'
p8850
g7
F0.9992
tp8851
a(S'think'
p8852
g15
F0.9997
tp8853
a(S'about'
p8854
g32
F0.9303
tp8855
a(S'taking'
p8856
g15
F0.9952
tp8857
a(S'like'
p8858
g32
F0.9191
tp8859
a(S'um'
p8860
g301
F0.3066
tp8861
a(S'rice'
p8862
g10
F0.795
tp8863
a(S'and'
p8864
g219
F0.9979
tp8865
a(S'stuff'
p8866
g10
F0.9146
tp8867
a(S'like'
p8868
g32
F0.9058
tp8869
a(S'that'
p8870
g7
F0.9168
tp8871
a(S'to'
p8872
g32
F0.9857
tp8873
a(S'school'
p8874
g10
F0.9187
tp8875
asI656
(lp8876
(S'yeah'
p8877
g3
F0.9988
tp8878
asI657
(lp8879
(S'be'
p8880
g15
F0.9727
tp8881
a(S'cause'
p8882
g32
F0.8053
tp8883
a(S'if'
p8884
g32
F0.9972
tp8885
a(S'you'
p8886
g7
F0.9981
tp8887
a(S're'
p8888
g15
F0.5665
tp8889
a(S'gonna'
p8890
g15
F0.9938
tp8891
a(S'be'
p8892
g15
F0.9998
tp8893
a(g82
g83
F0.9884
tp8894
a(S'vegetarian'
p8895
g20
F0.978
tp8896
a(S'you'
p8897
g7
F0.9981
tp8898
a(S'know'
p8899
g15
F0.9998
tp8900
a(S'you'
p8901
g7
F0.9995
tp8902
a(S'have'
p8903
g15
F0.9995
tp8904
a(S'to'
p8905
g32
F0.9975
tp8906
a(S'learn'
p8907
g15
F0.9996
tp8908
a(S'to'
p8909
g32
F0.9941
tp8910
a(S'eat'
p8911
g15
F0.9991
tp8912
a(g82
g83
F0.9976
tp8913
a(S'lot'
p8914
g10
F0.7205
tp8915
a(S'more'
p8916
g20
F0.7436
tp8917
a(S'rice'
p8918
g10
F0.9912
tp8919
a(S'and'
p8920
g219
F0.9976
tp8921
a(S'other'
p8922
g20
F0.9865
tp8923
a(S'foods'
p8924
g10
F0.9944
tp8925
asI658
(lp8926
(S'maybe'
p8927
g104
F0.9035
tp8928
a(S'rice'
p8929
g10
F0.8704
tp8930
asI659
(lp8931
(S'maybe'
p8932
g104
F0.9035
tp8933
a(S'salad'
p8934
g10
F0.906
tp8935
asI660
(lp8936
(S'you'
p8937
g7
F0.997
tp8938
a(S'have'
p8939
g15
F0.9989
tp8940
a(S'to'
p8941
g32
F0.9548
tp8942
asI661
(lp8943
(S'they'
p8944
g7
F0.9926
tp8945
a(S'have'
p8946
g15
F0.9998
tp8947
a(S'some'
p8948
g83
F0.9972
tp8949
a(S'kids'
p8950
g10
F0.9607
tp8951
a(S'what'
p8952
g7
F0.8509
tp8953
a(S'they'
p8954
g7
F0.9965
tp8955
a(S'do'
p8956
g15
F0.9989
tp8957
a(S'is'
p8958
g15
F0.9978
tp8959
a(S'they'
p8960
g7
F0.9897
tp8961
a(S'go'
p8962
g15
F0.9993
tp8963
a(S'to'
p8964
g32
F0.9918
tp8965
a(S'mc'
p8966
g425
F0.6575
tp8967
a(S'donalds'
p8968
g425
F0.913
tp8969
asI662
(lp8970
(S'yeah'
p8971
g3
F0.9988
tp8972
asI663
(lp8973
(S'um'
p8974
g3
F0.9584
tp8975
a(g37
g7
F0.9756
tp8976
a(S'ca'
p8977
g15
F0.9774
tp8978
a(S'the'
p8979
g83
F0.9849
tp8980
a(S'um'
p8981
g301
F0.3923
tp8982
a(S'mcdon'
p8983
g425
F0.4064
tp8984
a(S'oh'
p8985
g3
F0.8637
tp8986
a(S'did'
p8987
g15
F0.9983
tp8988
a(S'you'
p8989
g7
F0.9994
tp8990
a(S'have'
p8991
g15
F0.9998
tp8992
a(g82
g83
F0.9977
tp8993
a(S'cookie'
p8994
g10
F0.9954
tp8995
a(S'hidden'
p8996
g15
F0.5708
tp8997
a(S'in'
p8998
g32
F0.9854
tp8999
a(S'your'
p9000
g83
F0.996
tp9001
a(S'keys'
p9002
g10
F0.996
tp9003
asI664
(lp9004
(S'what'
p9005
g7
F0.949
tp9006
asI665
(lp9007
(S'no'
p9008
g3
F0.9456
tp9009
a(S'that'
p9010
g32
F0.5834
tp9011
a(g43
g15
F0.5939
tp9012
a(S'her'
p9013
g83
F0.9141
tp9014
a(S'food'
p9015
g10
F0.9981
tp9016
asI666
(lp9017
(S'uh'
p9018
g3
F0.9713
tp9019
a(S'she'
p9020
g7
F0.9962
tp9021
a(g43
g301
F0.5152
tp9022
a(S'not'
p9023
g104
F0.9923
tp9024
a(S'eating'
p9025
g15
F0.9979
tp9026
asI667
(lp9027
(S'um'
p9028
g3
F0.9272
tp9029
a(S'well'
p9030
g3
F0.9038
tp9031
a(S'um'
p9032
g3
F0.936
tp9033
a(g37
g7
F0.9445
tp9034
a(S'the'
p9035
g83
F0.9269
tp9036
a(S'the'
p9037
g83
F0.7913
tp9038
a(S'um'
p9039
g3
F0.3415
tp9040
a(S'when'
p9041
g104
F0.9861
tp9042
a(g37
g7
F0.9896
tp9043
a(S'went'
p9044
g15
F0.9996
tp9045
a(S'to'
p9046
g32
F0.9864
tp9047
a(S'kay'
p9048
g425
F0.8447
tp9049
a(S'bee'
p9050
g425
F0.4593
tp9051
a(S'kay'
p9052
g425
F0.9485
tp9053
a(S'one'
p9054
g99
F0.9835
tp9055
a(S'of'
p9056
g32
F0.9994
tp9057
a(S'the'
p9058
g83
F0.9993
tp9059
a(S'mothers'
p9060
g10
F0.9616
tp9061
a(S'brought'
p9062
g15
F0.9675
tp9063
a(S'um'
p9064
g3
F0.5732
tp9065
a(S'big'
p9066
g20
F0.9917
tp9067
a(S'macs'
p9068
g10
F0.9781
tp9069
a(S'for'
p9070
g32
F0.9992
tp9071
a(S'everybody'
p9072
g10
F0.9243
tp9073
a(S'and'
p9074
g219
F0.9983
tp9075
a(g37
g7
F0.9917
tp9076
a(S'wanted'
p9077
g15
F0.9998
tp9078
a(g82
g83
F0.9979
tp9079
a(S'salad'
p9080
g10
F0.9968
tp9081
a(S'over'
p9082
g32
F0.9914
tp9083
a(S'it'
p9084
g7
F0.9988
tp9085
asI668
(lp9086
(S'and'
p9087
g219
F0.9987
tp9088
a(S'then'
p9089
g104
F0.9748
tp9090
a(S'um'
p9091
g3
F0.62
tp9092
a(S'they'
p9093
g7
F0.9822
tp9094
a(S'all'
p9095
g83
F0.502
tp9096
a(S'bugged'
p9097
g15
F0.9901
tp9098
a(S'me'
p9099
g7
F0.9971
tp9100
a(S'about'
p9101
g32
F0.9295
tp9102
a(S'what'
p9103
g7
F0.9961
tp9104
a(g43
g301
F0.5392
tp9105
a(g82
g83
F0.9922
tp9106
a(S'vegetarian'
p9107
g20
F0.9923
tp9108
a(S'what'
p9109
g7
F0.9644
tp9110
a(g43
g301
F0.4527
tp9111
a(g82
g83
F0.9925
tp9112
a(S'vegetarian'
p9113
g20
F0.9809
tp9114
asI669
(lp9115
(S'so'
p9116
g32
F0.7694
tp9117
a(S'um'
p9118
g3
F0.6576
tp9119
a(g37
g7
F0.9907
tp9120
a(S'told'
p9121
g15
F0.9993
tp9122
a(S'th'
p9123
g15
F0.3137
tp9124
a(S'em'
p9125
g7
F0.9837
tp9126
a(S'and'
p9127
g219
F0.9961
tp9128
a(S'so'
p9129
g104
F0.8724
tp9130
a(g37
g7
F0.9841
tp9131
a(S'really'
p9132
g104
F0.9963
tp9133
a(S'liked'
p9134
g15
F0.9997
tp9135
a(S'the'
p9136
g83
F0.9895
tp9137
a(S'um'
p9138
g301
F0.598
tp9139
a(S'mc'
p9140
g425
F0.4854
tp9141
a(S'donalds'
p9142
g425
F0.7813
tp9143
a(S'salads'
p9144
g10
F0.9294
tp9145
asI670
(lp9146
(S'salads'
p9147
g10
F0.9327
tp9148
asI671
(lp9149
(S'they'
p9150
g7
F0.9817
tp9151
a(S'put'
p9152
g15
F0.9918
tp9153
a(S'like'
p9154
g32
F0.8086
tp9155
a(S'cheddar'
p9156
g10
F0.7691
tp9157
a(S'cheese'
p9158
g10
F0.9971
tp9159
a(S'in'
p9160
g32
F0.9982
tp9161
a(S'it'
p9162
g7
F0.9949
tp9163
asI672
(lp9164
(S'right'
p9165
g3
F0.861
tp9166
asI673
(lp9167
(S'so'
p9168
g32
F0.8781
tp9169
a(S'we'
p9170
g7
F0.9989
tp9171
a(S'could'
p9172
g15
F0.9997
tp9173
a(S'make'
p9174
g15
F0.9979
tp9175
a(g82
g83
F0.9967
tp9176
a(S'salad'
p9177
g10
F0.9956
tp9178
a(S'like'
p9179
g32
F0.9576
tp9180
a(S'that'
p9181
g7
F0.944
tp9182
a(S'and'
p9183
g219
F0.9964
tp9184
a(S'put'
p9185
g15
F0.9469
tp9186
a(S'cheese'
p9187
g10
F0.9934
tp9188
a(S'in'
p9189
g32
F0.998
tp9190
a(S'it'
p9191
g7
F0.9953
tp9192
asI674
(lp9193
(S'that'
p9194
g7
F0.7305
tp9195
a(S'would'
p9196
g15
F0.9992
tp9197
a(S'be'
p9198
g15
F1.0
tp9199
a(g82
g83
F0.9708
tp9200
a(S'very'
p9201
g104
F0.9942
tp9202
a(S'good'
p9203
g20
F0.9999
tp9204
a(S'idea'
p9205
g10
F0.9663
tp9206
asI675
(lp9207
(S'you'
p9208
g7
F0.9968
tp9209
a(S'would'
p9210
g15
F0.9997
tp9211
a(S'take'
p9212
g15
F0.9999
tp9213
a(g82
g83
F0.9978
tp9214
a(S'salad'
p9215
g10
F0.9968
tp9216
a(S'to'
p9217
g32
F0.999
tp9218
a(S'school'
p9219
g10
F0.936
tp9220
asI676
(lp9221
(S'yeah'
p9222
g3
F0.9988
tp9223
asI677
(lp9224
(S'good'
p9225
g20
F0.9644
tp9226
asI678
(lp9227
(S'as'
p9228
g104
F0.8445
tp9229
a(S'long'
p9230
g20
F0.9901
tp9231
a(S'as'
p9232
g32
F0.9911
tp9233
a(S'it'
p9234
g7
F0.9982
tp9235
a(g43
g15
F0.7561
tp9236
a(S'like'
p9237
g32
F0.7103
tp9238
a(S'not'
p9239
g104
F0.9956
tp9240
a(S'in'
p9241
g32
F0.9953
tp9242
a(S'this'
p9243
g83
F0.9717
tp9244
a(S'huge'
p9245
g20
F0.9829
tp9246
a(S'tupperware'
p9247
g10
F0.9437
tp9248
asI679
(lp9249
(S'okay'
p9250
g3
F0.9857
tp9251
asI680
(lp9252
(S'oops'
p9253
g3
F0.9905
tp9254
asI681
(lp9255
(S'we'
p9256
g7
F0.9878
tp9257
a(g801
g15
F0.6633
tp9258
a(S'better'
p9259
g104
F0.6603
tp9260
a(S'get'
p9261
g15
F0.9954
tp9262
a(S'the'
p9263
g83
F0.9995
tp9264
a(S'dog'
p9265
g10
F0.9987
tp9266
a(S'walked'
p9267
g15
F0.9941
tp9268
a(S'so'
p9269
g32
F0.8131
tp9270
a(S'you'
p9271
g7
F0.9996
tp9272
a(S'can'
p9273
g15
F0.9995
tp9274
a(S'get'
p9275
g15
F0.9997
tp9276
a(S'to'
p9277
g32
F0.9875
tp9278
a(S'school'
p9279
g10
F0.9298
tp9280
asI682
(lp9281
(S'you'
p9282
g7
F0.9924
tp9283
a(S'ca'
p9284
g15
F0.9885
tp9285
a(S'you'
p9286
g7
F0.9992
tp9287
a(S'can'
p9288
g15
F0.9997
tp9289
a(S'make'
p9290
g15
F0.9999
tp9291
a(S'me'
p9292
g7
F0.9741
tp9293
a(g82
g83
F0.9901
tp9294
a(S'lunch'
p9295
g10
F0.968
tp9296
a(S'right'
p9297
g104
F0.9218
tp9298
a(S'now'
p9299
g104
F0.9944
tp9300
asI683
(lp9301
(S'okay'
p9302
g3
F0.9857
tp9303
asI684
(lp9304
(S'do'
p9305
g15
F0.9929
tp9306
a(S'we'
p9307
g7
F0.9976
tp9308
a(S'ha'
p9309
g3
F0.8055
tp9310
a(S'well'
p9311
g3
F0.863
tp9312
a(S'we'
p9313
g7
F0.9992
tp9314
a(S'gotta'
p9315
g15
F0.9996
tp9316
a(S'go'
p9317
g15
F0.9911
tp9318
a(S'food'
p9319
g10
F0.9715
tp9320
a(S'shoppin'
p9321
g10
F0.7425
tp9322
a(g58
g10
F0.7074
tp9323
a(S'today'
p9324
g10
F0.9957
tp9325
a(g37
g7
F0.9422
tp9326
a(S'll'
p9327
g15
F0.7524
tp9328
a(S'see'
p9329
g15
F0.991
tp9330
a(S'what'
p9331
g7
F0.9821
tp9332
a(S'have'
p9333
g15
F0.9907
tp9334
a(S'okay'
p9335
g3
F0.8922
tp9336
asI685
(lp9337
(S'alright'
p9338
g3
F0.8721
tp9339
a(S'say'
p9340
g15
F0.8493
tp9341
a(S'goodbye'
p9342
g3
F0.9475
tp9343
a(g5420
g301
F0.4177
tp9344
asI686
(lp9345
(S'goodbye'
p9346
g3
F0.9922
tp9347
asI687
(lp9348
(S'bye'
p9349
g3
F0.9466
tp9350
a(S'harvard'
p9351
g425
F0.855
tp9352
asI688
(lp9353
(S'bye'
p9354
g3
F0.9774
tp9355
asI689
(lp9356
(S'sorry'
p9357
g20
F0.6416
tp9358
a(S'it'
p9359
g7
F0.996
tp9360
a(S'took'
p9361
g15
F0.9999
tp9362
a(S'us'
p9363
g7
F0.9784
tp9364
a(S'so'
p9365
g104
F0.9782
tp9366
a(S'long'
p9367
g20
F0.8904
tp9368
a(S'to'
p9369
g32
F0.9988
tp9370
a(S'turn'
p9371
g15
F0.9996
tp9372
a(S'this'
p9373
g7
F0.7254
tp9374
a(S'in'
p9375
g32
F0.7337
tp9376
asI690
(lp9377
(S'laughs'
p9378
g15
F0.9102
tp9379
asI691
(lp9380
(S'yeah'
p9381
g3
F0.9945
tp9382
a(S'laughs'
p9383
g15
F0.9273
tp9384
asI692
(lp9385
(S'laughs'
p9386
g15
F0.9102
tp9387
asI693
(lp9388
(S'um'
p9389
g3
F0.9106
tp9390
a(S'and'
p9391
g219
F0.9985
tp9392
a(S'our'
p9393
g83
F0.9904
tp9394
a(S'goofball'
p9395
g10
F0.872
tp9396
a(S'wp'
p9397
g10
F0.426
tp9398
a(S'dog'
p9399
g10
F0.9977
tp9400
a(S'who'
p9401
g7
F0.9627
tp9402
a(g43
g15
F0.7397
tp9403
a(S'eating'
p9404
g15
F0.9995
tp9405
a(S'her'
p9406
g83
F0.9458
tp9407
a(S'breakfast'
p9408
g10
F0.995
tp9409
a(S'right'
p9410
g104
F0.9287
tp9411
a(S'now'
p9412
g104
F0.9967
tp9413
a(S'says'
p9414
g15
F0.9935
tp9415
a(S'bye'
p9416
g3
F0.6999
tp9417
a(g5420
g10
F0.4
tp9418
a(S'too'
p9419
g104
F0.9614
tp9420
asI694
(lp9421
(S'bye'
p9422
g3
F0.9774
tp9423
asI695
(lp9424
(S'bye'
p9425
g3
F0.9774
tp9426
as.