(lp0
S'solutions/HSLLD/HV1/MT/gremt1.cha'
p1
aS'solutions/HSLLD/HV1/MT/brnmt1.cha'
p2
aS'solutions/HSLLD/HV1/MT/diamt1.cha'
p3
aS'solutions/HSLLD/HV1/MT/annmt1.cha'
p4
aS'solutions/HSLLD/HV1/MT/anamt1.cha'
p5
aS'solutions/HSLLD/HV1/MT/casmt1.cha'
p6
aS'solutions/HSLLD/HV1/MT/emimt1.cha'
p7
aS'solutions/HSLLD/HV1/MT/ethmt1.cha'
p8
aS'solutions/HSLLD/HV1/MT/gilmt1.cha'
p9
aS'solutions/HSLLD/HV1/MT/jacmt1.cha'
p10
aS'solutions/HSLLD/HV1/MT/admmt1.cha'
p11
aS'solutions/HSLLD/HV1/MT/brimt1.cha'
p12
aS'solutions/HSLLD/HV1/MT/davmt1.cha'
p13
aS'solutions/HSLLD/HV1/MT/geomt1.cha'
p14
aS'solutions/HSLLD/HV1/MT/guymt1.cha'
p15
aS'solutions/HSLLD/HV1/MT/brtmt1.cha'
p16
aS'solutions/HSLLD/HV1/MT/allmt1.cha'
p17
aS'solutions/HSLLD/HV1/MT/bramt1.cha'
p18
aS'solutions/HSLLD/HV1/MT/conmt1.cha'
p19
aS'solutions/HSLLD/HV1/MT/aimmt1.cha'
p20
aS'solutions/HSLLD/HV1/MT/aprmt1.cha'
p21
a.