ccopy_reg
_reconstructor
p1
(cnamedtuples
Accuracy
p2
c__builtin__
tuple
p3
(I154
I98
I86
(lp4
(lp5
S'breakfast'
p6
aS'dinner'
p7
aS'food'
p8
aS'lollipops'
p9
aS'lunch'
p10
aS'meal'
p11
aS'sandwiches'
p12
aS'supper'
p13
aa(lp14
S''
aS'chips'
p15
aS'dinner'
p16
aS'honey'
p17
aS'potato'
p18
aS'stew'
p19
aa(lp20
S'dessert'
p21
aS'food'
p22
aS'honey'
p23
aS'supper'
p24
aa(lp25
S''
aS'booze'
p26
aS'candy'
p27
aS'crackers'
p28
aS'fries'
p29
aS'vegetable'
p30
aa(lp31
S''
aS'bread'
p32
aS'cream'
p33
aS'dinner'
p34
aS'grapes'
p35
aS'lunch'
p36
aS'sauce'
p37
aS'supper'
p38
aa(lp39
S'food'
p40
aS'lobsters'
p41
aS'meat'
p42
aS'water'
p43
aa(lp44
S'food'
p45
aS'ketchup'
p46
aS'lunch'
p47
aa(lp48
S'candy'
p49
aS'food'
p50
aS'supper'
p51
aS'turtle'
p52
aa(lp53
S''
aS'dinner'
p54
aS'food'
p55
aS'grape'
p56
aS'honey'
p57
aa(lp58
S'diet'
p59
aS'food'
p60
aS'lunch'
p61
aa(lp62
S''
aS'barbecue'
p63
aS'dinner'
p64
aS'food'
p65
aa(lp66
S'food'
p67
aS'tonic'
p68
aa(lp69
S'cabbage'
p70
aS'cream'
p71
aS'diet'
p72
aS'dinner'
p73
aS'food'
p74
aS'foods'
p75
aS'honey'
p76
aS'lunch'
p77
aS'meal'
p78
aS'pork'
p79
aS'sandwich'
p80
aa(lp81
S'dessert'
p82
aS'dinner'
p83
aS'supper'
p84
aa(lp85
a(lp86
S'breakfast'
p87
aS'dinner'
p88
aS'food'
p89
aS'meat'
p90
aS'supper'
p91
aa(lp92
S''
aS'bacon'
p93
aS'butter'
p94
aS'dessert'
p95
aS'food'
p96
aS'honey'
p97
aS'lunch'
p98
aS'salad'
p99
aS'supper'
p100
aa(lp101
S'cream'
p102
aS'dessert'
p103
aS'food'
p104
aS'pork'
p105
aS'potato'
p106
aS'salad'
p107
aa(lp108
S''
aS'dessert'
p109
aa(lp110
a(lp111
S'dessert'
p112
aS'honey'
p113
aS'lunch'
p114
aS'seeds'
p115
aS'supper'
p116
aa(lp117
(lp118
S'cantaloupe'
p119
aS'carrots'
p120
aS'chocolate broccoli'
p121
aS'chocolate cake'
p122
aS'egg salad'
p123
aS'ice cube'
p124
aS'lollipop'
p125
aS'tootsie roll'
p126
aa(lp127
S'beef stew'
p128
aS'brownie'
p129
aS'butter bread'
p130
aS'coke'
p131
aS'pepper'
p132
aS'potato chips'
p133
aS'salt'
p134
aa(lp135
S'cherries'
p136
aS'skim milk'
p137
aa(lp138
S'cotton candy'
p139
aS'doughnuts'
p140
aS'french fries'
p141
aS'pepsi'
p142
aS'popcorn'
p143
aa(lp144
S'brown bread'
p145
aS'concord grapes'
p146
aS'fish cake'
p147
aS'fish cakes'
p148
aS'fish stick'
p149
aS'ice cream'
p150
aS'ice cream bar'
p151
aS'tartar sauce'
p152
aa(lp153
S'soda'
p154
aa(lp155
S'orange'
p156
aa(lp157
S'pepper'
p158
aa(lp159
a(lp160
S'(to)matoes'
p161
aS'cucum(ber)'
p162
aS'diet dressing'
p163
aS'diet soda'
p164
aS'milk juice'
p165
aS'water'
p166
aa(lp167
S'gum drop'
p168
aS'mcdonald'
p169
aS'quick'
p170
aS'white fish'
p171
aa(lp172
a(lp173
S'(po)tatoes'
p174
aS'cereal'
p175
aS'diet slice'
p176
aS'diet soda'
p177
aS'diet sprite'
p178
aS'ginger+ale'
p179
aS'ice cream'
p180
aS'koolaid'
p181
aS'milk shake'
p182
aS'nut and honey'
p183
aS'oats'
p184
aS'oats and bran cereal'
p185
aS'oats and honey'
p186
aS'pork chops'
p187
aS'slim fast'
p188
aS'soda'
p189
aS'sodas'
p190
aS'spice ham sandwich'
p191
aS'water'
p192
aa(lp193
a(lp194
a(lp195
a(lp196
S'calzone'
p197
aS'canadian bacon'
p198
aS'ham'
p199
aS'macaroni salad'
p200
aS'pean(ut) butter'
p201
aS'peanut butter'
p202
aS'peanut butter and jelly'
p203
aS'saltine crackers'
p204
aa(lp205
S'corn on the cob'
p206
aS'fruit salad'
p207
aS'fudgesicle'
p208
aS'fudgesicles'
p209
aS'honey+dew'
p210
aS'ice cream'
p211
aS'pepper'
p212
aS'pork chop'
p213
aS'potato salad'
p214
aa(lp215
S'brownies'
p216
aa(lp217
a(lp218
S'corn on the cob'
p219
aS'cucumbers'
p220
aS'ice cone'
p221
aS'macaroni'
p222
aS'tuna'
p223
aS'tuna+fish'
p224
aattRp225
.