ccopy_reg
_reconstructor
p1
(cnamedtuples
Accuracy
p2
c__builtin__
tuple
p3
(I174
I61
I65
(lp4
(lp5
S'egg'
p6
aS'fish'
p7
aS'lollipops'
p8
aS"mother's"
p9
aa(lp10
S'honey'
p11
aS'spices'
p12
aa(lp13
S'honey'
p14
aS'sunshine'
p15
aS'tea'
p16
aa(lp17
S'apple'
p18
aS'candy'
p19
aS'crackers'
p20
aS'duck'
p21
aS'vegetable'
p22
aa(lp23
S'bear'
p24
aS'bread'
p25
aS'cakes'
p26
aS'fish'
p27
aS'grapes'
p28
aS'honey'
p29
aS'water'
p30
aa(lp31
S'duck'
p32
aS'fish'
p33
aS'lobsters'
p34
aS'meat'
p35
aS'water'
p36
aa(lp37
a(lp38
S'candy'
p39
aS'turtle'
p40
aS'turtles'
p41
aa(lp42
S'apple'
p43
aS'duck'
p44
aS'grape'
p45
aS'honey'
p46
aa(lp47
S'diet'
p48
aS'fruit'
p49
aS'mix'
p50
aa(lp51
S'barbecue'
p52
aS'honey'
p53
aS"mcdonald's"
p54
aa(lp55
S'tonic'
p56
aa(lp57
S'cabbage'
p58
aS'diet'
p59
aS'egg'
p60
aS'ham'
p61
aS'honey'
p62
aS'pork'
p63
aS'sandwich'
p64
aS'sprite'
p65
aS"van's"
p66
aa(lp67
S'snap'
p68
aa(lp69
a(lp70
S'meat'
p71
aa(lp72
S'butter'
p73
aS'goose'
p74
aS'honey'
p75
aS'macaroni'
p76
aS'salad'
p77
aa(lp78
S'pork'
p79
aa(lp80
S'duck'
p81
aa(lp82
a(lp83
S'honey'
p84
aS'seeds'
p85
aS'water'
p86
aa(lp87
(lp88
S'cantaloupe'
p89
aS'chocolate broccoli'
p90
aS'egg salad'
p91
aS'ice cube'
p92
aS'lollipop'
p93
aS'tootsie roll'
p94
aa(lp95
S'brownie'
p96
aS'butter bread'
p97
aS'coke'
p98
aa(lp99
S'skim milk'
p100
aa(lp101
S'cotton candy'
p102
aS'french fries'
p103
aa(lp104
S'brown bread'
p105
aS'concord grapes'
p106
aS'fish cake'
p107
aS'fish cakes'
p108
aS'fish stick'
p109
aS'ice cream bar'
p110
aa(lp111
S'soda'
p112
aa(lp113
S'orange'
p114
aa(lp115
a(lp116
S'popsicle'
p117
aS'popsicles'
p118
aS'vitamin'
p119
aa(lp120
S'(to)matoes'
p121
aS'cucum(ber)'
p122
aS'diet dressing'
p123
aS'diet soda'
p124
aS'supper'
p125
aa(lp126
S'gum drop'
p127
aS'mcdonald'
p128
aS'quick'
p129
aa(lp130
a(lp131
S'(po)tatoes'
p132
aS'diet slice'
p133
aS'diet soda'
p134
aS'diet sprite'
p135
aS'ginger+ale'
p136
aS'koolaid'
p137
aS'milk shake'
p138
aS'nut and honey'
p139
aS'oats and bran cereal'
p140
aS'oats and honey'
p141
aS'popsicles'
p142
aS'pork chops'
p143
aS'slim fast'
p144
aS'soda'
p145
aS'sodas'
p146
aS'spice ham sandwich'
p147
aa(lp148
a(lp149
a(lp150
a(lp151
S'calzone'
p152
aS'macaroni salad'
p153
aS'pean(ut) butter'
p154
aS'peanut butter and jelly'
p155
aS'saltine crackers'
p156
aa(lp157
S'corn on the cob'
p158
aS'fudgesicle'
p159
aS'fudgesicles'
p160
aS'honey+dew'
p161
aS'ketchup'
p162
aS'popsicle'
p163
aS'pork chop'
p164
aa(lp165
S'brownies'
p166
aa(lp167
a(lp168
S'corn on the cob'
p169
aS'ice cone'
p170
aS'popsicle'
p171
aS'tuna'
p172
aS'tuna+fish'
p173
aattRp174
.