ccopy_reg
_reconstructor
p1
(cnamedtuples
Accuracy
p2
c__builtin__
tuple
p3
(I180
I58
I59
(lp4
(lp5
S'egg'
p6
aS'fish'
p7
aS'lollipops'
p8
aS"mother's"
p9
aa(lp10
S'chicken spices'
p11
aS'honey'
p12
aa(lp13
S'honey'
p14
aS'sunshine'
p15
aS'tea'
p16
aa(lp17
S'apple'
p18
aS'candy'
p19
aS'crackers'
p20
aS'duck'
p21
aS'vegetable'
p22
aa(lp23
S'bear'
p24
aS'bread'
p25
aS'fish'
p26
aS'grapes'
p27
aS'honey'
p28
aS'water'
p29
aa(lp30
S'duck'
p31
aS'fish'
p32
aS'lobsters'
p33
aS'meat'
p34
aS'water'
p35
aa(lp36
a(lp37
S'candy'
p38
aS'turtle'
p39
aS'turtles'
p40
aa(lp41
S'apple'
p42
aS'duck'
p43
aS'grape'
p44
aS'honey'
p45
aa(lp46
S'coffee mix'
p47
aS'diet'
p48
aS'fruit'
p49
aS'lettuce lettuce'
p50
aS'milk juice'
p51
aa(lp52
S'barbecue'
p53
aS'honey'
p54
aS"mcdonald's"
p55
aa(lp56
S'tonic'
p57
aa(lp58
S'cabbage'
p59
aS'diet'
p60
aS'egg'
p61
aS'ham sandwich'
p62
aS'honey'
p63
aS'pork'
p64
aS"van's"
p65
aa(lp66
S'snap'
p67
aa(lp68
a(lp69
S'meat'
p70
aa(lp71
S'butter'
p72
aS'goose'
p73
aS'honey'
p74
aa(lp75
S'pork'
p76
aa(lp77
S'duck'
p78
aa(lp79
a(lp80
S'honey'
p81
aS'seeds'
p82
aS'water'
p83
aa(lp84
(lp85
S'cantaloupe'
p86
aS'ice cube'
p87
aS'lollipop'
p88
aS'tootsie roll'
p89
aa(lp90
S'brownie'
p91
aS'chicken'
p92
aS'coke'
p93
aa(lp94
S'skim milk'
p95
aa(lp96
S'cotton candy'
p97
aS'french fries'
p98
aa(lp99
S'brown bread'
p100
aS'concord grapes'
p101
aS'fish stick'
p102
aS'ice cream bar'
p103
aa(lp104
S'soda'
p105
aa(lp106
S'orange'
p107
aa(lp108
a(lp109
S'popsicle'
p110
aS'popsicles'
p111
aS'vitamin'
p112
aa(lp113
S'(to)matoes'
p114
aS'cucum(ber)'
p115
aS'diet dressing'
p116
aS'diet soda'
p117
aS'supper'
p118
aa(lp119
S'gum drop'
p120
aS'mcdonald'
p121
aS'quick'
p122
aa(lp123
a(lp124
S'(po)tatoes'
p125
aS'diet slice'
p126
aS'diet soda'
p127
aS'ginger+ale'
p128
aS'koolaid'
p129
aS'milk shake'
p130
aS'nut and honey'
p131
aS'oats and bran cereal'
p132
aS'oats and honey'
p133
aS'popsicles'
p134
aS'pork chops'
p135
aS'slim fast'
p136
aS'soda'
p137
aS'sodas'
p138
aS'spice ham sandwich'
p139
aa(lp140
a(lp141
a(lp142
a(lp143
S'calzone'
p144
aS'pean(ut) butter'
p145
aS'peanut butter and jelly'
p146
aS'saltine crackers'
p147
aa(lp148
S'corn on the cob'
p149
aS'fudgesicle'
p150
aS'fudgesicles'
p151
aS'honey+dew'
p152
aS'ketchup'
p153
aS'popsicle'
p154
aS'pork chop'
p155
aa(lp156
S'brownies'
p157
aa(lp158
a(lp159
S'corn on the cob'
p160
aS'ice cone'
p161
aS'popsicle'
p162
aS'tuna'
p163
aS'tuna+fish'
p164
aattRp165
.