ccopy_reg
_reconstructor
p1
(cnamedtuples
Accuracy
p2
c__builtin__
tuple
p3
(I180
I57
I59
(lp4
(lp5
S'chicken spices'
p6
aS'honey'
p7
aa(lp8
S'meat'
p9
aa(lp10
a(lp11
S'honey'
p12
aS'sunshine'
p13
aS'tea'
p14
aa(lp15
S'apple'
p16
aS'duck'
p17
aS'grape'
p18
aS'honey'
p19
aa(lp20
S'egg'
p21
aS'fish'
p22
aS'lollipops'
p23
aS"mother's"
p24
aa(lp25
a(lp26
S'coffee mix'
p27
aS'diet'
p28
aS'fruit'
p29
aS'lettuce lettuce'
p30
aS'milk juice'
p31
aa(lp32
S'pork'
p33
aa(lp34
S'cabbage'
p35
aS'diet'
p36
aS'egg'
p37
aS'ham sandwich'
p38
aS'honey'
p39
aS'pork'
p40
aS"van's"
p41
aa(lp42
S'barbecue'
p43
aS'honey'
p44
aS"mcdonald's"
p45
aa(lp46
S'apple'
p47
aS'candy'
p48
aS'crackers'
p49
aS'duck'
p50
aS'vegetable'
p51
aa(lp52
a(lp53
S'honey'
p54
aS'seeds'
p55
aS'water'
p56
aa(lp57
S'duck'
p58
aS'fish'
p59
aS'lobsters'
p60
aS'meat'
p61
aS'water'
p62
aa(lp63
a(lp64
S'bear'
p65
aS'bread'
p66
aS'fish'
p67
aS'grapes'
p68
aS'honey'
p69
aS'water'
p70
aa(lp71
S'candy'
p72
aS'turtle'
p73
aS'turtles'
p74
aa(lp75
S'tonic'
p76
aa(lp77
S'duck'
p78
aa(lp79
S'butter'
p80
aS'goose'
p81
aS'honey'
p82
aa(lp83
(lp84
S'brownie'
p85
aS'chicken'
p86
aS'coke'
p87
aa(lp88
a(lp89
a(lp90
S'skim milk'
p91
aa(lp92
S'popsicle'
p93
aS'popsicles'
p94
aS'vitamin'
p95
aa(lp96
S'cantaloupe'
p97
aS'ice cube'
p98
aS'lollipop'
p99
aS'tootsie roll'
p100
aa(lp101
a(lp102
S'(to)matoes'
p103
aS'cucum(ber)'
p104
aS'diet dressing'
p105
aS'diet soda'
p106
aS'supper'
p107
aa(lp108
S'corn on the cob'
p109
aS'fudgesicle'
p110
aS'fudgesicles'
p111
aS'honey+dew'
p112
aS'ketchup'
p113
aS'popsicle'
p114
aS'pork chop'
p115
aa(lp116
S'(po)tatoes'
p117
aS'diet slice'
p118
aS'diet soda'
p119
aS'ginger+ale'
p120
aS'koolaid'
p121
aS'milk shake'
p122
aS'nut and honey'
p123
aS'oats and bran cereal'
p124
aS'oats and honey'
p125
aS'popsicles'
p126
aS'pork chops'
p127
aS'slim fast'
p128
aS'soda'
p129
aS'sodas'
p130
aS'spice ham sandwich'
p131
aa(lp132
S'gum drop'
p133
aS'mcdonald'
p134
aS'quick'
p135
aa(lp136
S'cotton candy'
p137
aS'french fries'
p138
aa(lp139
a(lp140
S'corn on the cob'
p141
aS'ice cone'
p142
aS'popsicle'
p143
aS'tuna'
p144
aS'tuna+fish'
p145
aa(lp146
S'soda'
p147
aa(lp148
S'orange'
p149
aa(lp150
S'brown bread'
p151
aS'concord grapes'
p152
aS'fish stick'
p153
aS'ice cream bar'
p154
aa(lp155
a(lp156
a(lp157
S'brownies'
p158
aa(lp159
S'calzone'
p160
aS'pean(ut) butter'
p161
aS'peanut butter and jelly'
p162
aS'saltine crackers'
p163
aattRp164
.