ccopy_reg
_reconstructor
p1
(cnamedtuples
Accuracy
p2
c__builtin__
tuple
p3
(I154
I60
I86
(lp4
(lp5
S'dip'
p6
aS'egg'
p7
aS'fish'
p8
aS'orange'
p9
aS'shake'
p10
aa(lp11
S'honey'
p12
aS'spices'
p13
aa(lp14
S'honey'
p15
aS'sunshine'
p16
aS'tea'
p17
aa(lp18
S'apple'
p19
aS'crackers'
p20
aS'duck'
p21
aS'vegetable'
p22
aa(lp23
S'bear'
p24
aS'bread'
p25
aS'fish'
p26
aS'grapes'
p27
aS'honey'
p28
aS'rolls'
p29
aS'water'
p30
aa(lp31
S'duck'
p32
aS'fish'
p33
aS'meat'
p34
aS'water'
p35
aa(lp36
a(lp37
S'shake'
p38
aS'snap'
p39
aS'turtle'
p40
aa(lp41
S'apple'
p42
aS'duck'
p43
aS'honey'
p44
aS'orange'
p45
aa(lp46
S'fat'
p47
aS'fruit'
p48
aa(lp49
S'barbecue'
p50
aS'honey'
p51
aS'orange'
p52
aa(lp53
a(lp54
S'cabbage'
p55
aS'egg'
p56
aS'ginger'
p57
aS'ham'
p58
aS'honey'
p59
aS'pork'
p60
aS'sprite'
p61
aa(lp62
S'snap'
p63
aa(lp64
a(lp65
S'meat'
p66
aS'shake'
p67
aa(lp68
S'butter'
p69
aS'fat'
p70
aS'goose'
p71
aS'honey'
p72
aS'macaroni'
p73
aa(lp74
S'honey'
p75
aS'pork'
p76
aa(lp77
S'duck'
p78
aa(lp79
a(lp80
S'fish'
p81
aS'honey'
p82
aS'orange'
p83
aS'seeds'
p84
aS'water'
p85
aa(lp86
(lp87
S'candy'
p88
aS'cantaloupe'
p89
aS'chocolate broccoli'
p90
aS'egg salad'
p91
aS'ice cube'
p92
aS'lemon'
p93
aS'lollipop'
p94
aS'salad'
p95
aS'sandwich'
p96
aS'tootsie roll'
p97
aa(lp98
S'brownie'
p99
aS'butter bread'
p100
aS'coke'
p101
aa(lp102
S'skim milk'
p103
aa(lp104
S'beers'
p105
aS'cotton candy'
p106
aS'french fries'
p107
aS'pepsi'
p108
aS'salad'
p109
aS'salads'
p110
aa(lp111
S'brown bread'
p112
aS'candy'
p113
aS'concord grapes'
p114
aS'fish cake'
p115
aS'fish cakes'
p116
aS'fish stick'
p117
aa(lp118
S'soda'
p119
aa(lp120
a(lp121
S'cupcake'
p122
aS'cupcakes'
p123
aS'hamburgers'
p124
aS'meatball'
p125
aa(lp126
S'popsicle'
p127
aS'popsicles'
p128
aS'vitamin'
p129
aa(lp130
S'(to)matoes'
p131
aS'cucum(ber)'
p132
aS'diet dressing'
p133
aS'diet soda'
p134
aS'milk juice'
p135
aS'salad'
p136
aS'supper'
p137
aa(lp138
S'gum drop'
p139
aS'mcdonald'
p140
aS'quick'
p141
aa(lp142
a(lp143
S'(po)tatoes'
p144
aS'diet slice'
p145
aS'diet soda'
p146
aS'diet sprite'
p147
aS'ginger+ale'
p148
aS'koolaid'
p149
aS'nut and honey'
p150
aS'oats and bran cereal'
p151
aS'oats and honey'
p152
aS'popsicles'
p153
aS'pork chops'
p154
aS'salad'
p155
aS'slim fast'
p156
aS'soda'
p157
aS'sodas'
p158
aS'spice ham sandwich'
p159
aa(lp160
a(lp161
a(lp162
a(lp163
S'calzone'
p164
aS'jelly'
p165
aS'macaroni salad'
p166
aS'oatmeal'
p167
aS'pean(ut) butter'
p168
aS'peanut butter and jelly'
p169
aS'saltine crackers'
p170
aS'steak'
p171
aa(lp172
S'corn on the cob'
p173
aS'fudgesicle'
p174
aS'fudgesicles'
p175
aS'honey+dew'
p176
aS'ketchup'
p177
aS'popsicle'
p178
aS'pork chop'
p179
aS'porkchop'
p180
aS'porkchops'
p181
aa(lp182
S'brownies'
p183
aa(lp184
S'sandwich'
p185
aa(lp186
S'corn on the cob'
p187
aS'cucumbers'
p188
aS'ice cone'
p189
aS'popsicle'
p190
aS'steak'
p191
aS'tuna'
p192
aS'tuna+fish'
p193
aattRp194
.