ccopy_reg
_reconstructor
p1
(cnamedtuples
Accuracy
p2
c__builtin__
tuple
p3
(I232
I473
I219
(lp4
(lp5
S'beer'
p6
aS'egg'
p7
aS'wine'
p8
aa(lp9
S'duck'
p10
aS'water'
p11
aa(lp12
S'asparagus'
p13
aS'blueberries'
p14
aS'cake'
p15
aS'chicken'
p16
aS'chocolate ice cream'
p17
aS'coffee'
p18
aS'coleslaw'
p19
aS'cookie'
p20
aS'corn'
p21
aS'honey'
p22
aS'hot dog'
p23
aS'ice cream'
p24
aS'restaurant'
p25
aS'strawberry'
p26
aS'vanilla'
p27
aa(lp28
S'cake'
p29
aS'cereal'
p30
aS'fish'
p31
aS'hot dog bun'
p32
aS'hot dog buns'
p33
aS'kidney beans'
p34
aS'meat'
p35
aS'onions'
p36
aS'pineapple'
p37
aS'pumpkin'
p38
aS'sherbert'
p39
aS'sugar'
p40
aS'water'
p41
aa(lp42
S'tea'
p43
aS'water'
p44
aa(lp45
S'brown gravy'
p46
aS'lemon'
p47
aS'milk'
p48
aS'rice pilaf'
p49
aS'water'
p50
aa(lp51
S'colby'
p52
aS'lettuce'
p53
aS'meat'
p54
aS'pepsi'
p55
aS'potato'
p56
aS'pudding pie'
p57
aS'root beer'
p58
aa(lp59
S'candy'
p60
aS'lamb'
p61
aS'potatoes'
p62
aS'water'
p63
aa(lp64
S'apples'
p65
aS'chicken'
p66
aS'duck'
p67
aS'ducks'
p68
aS'grape juice'
p69
aS'honey'
p70
aS'melon honey'
p71
aS'polar bear'
p72
aS'walnuts'
p73
aS'wine'
p74
aa(lp75
S'cake'
p76
aS'cakes'
p77
aS'candy'
p78
aS'colby'
p79
aS'snack'
p80
aS'water'
p81
aa(lp82
S'bacon'
p83
aS'banana'
p84
aS'barbecue sauce'
p85
aS'cake'
p86
aS'chicken chicken'
p87
aS'chocolate'
p88
aS'cracker'
p89
aS'crackers'
p90
aS'cranberry sauce'
p91
aS'cream'
p92
aS'diets'
p93
aS'green beans'
p94
aS'ice cream'
p95
aS'ice cream cake'
p96
aS'milk'
p97
aS'onions'
p98
aS'peas'
p99
aS'potato'
p100
aS'snacks'
p101
aS'soy sauce'
p102
aS'tuna fish'
p103
aS'vanilla'
p104
aa(lp105
S'bread'
p106
aS'bun'
p107
aS'coffee'
p108
aS'honey'
p109
aS'onions'
p110
aS'rolls'
p111
aS'water'
p112
aa(lp113
S'apple'
p114
aS'apples'
p115
aS'ice cream'
p116
aS'orange'
p117
aS'roast beef'
p118
aS'turtle'
p119
aa(lp120
S'catsup'
p121
aS'coffee'
p122
aS'cookies'
p123
aS'duck'
p124
aS'ham'
p125
aS'honey'
p126
aS'milk'
p127
aS'mix'
p128
aS'onion rings'
p129
aS'roast'
p130
aS'sherbet'
p131
aS'turkey'
p132
aS'water'
p133
aS'yolk'
p134
aa(lp135
S'cheese popcorn'
p136
aS'cheese toast'
p137
aS'honey'
p138
aS'potato chips'
p139
aS'rolls'
p140
aa(lp141
S'cheese'
p142
aa(lp143
S'cake'
p144
aS'chicken'
p145
aS'ice cream'
p146
aS'juice'
p147
aS'pancakes'
p148
aS'pizza'
p149
aS'raisins'
p150
aS'water'
p151
aa(lp152
S'balsamic'
p153
aS'carrot'
p154
aS'chickens'
p155
aS'chocolate'
p156
aS'french toast'
p157
aS'ice cream'
p158
aS'mousse'
p159
aS'olive oil'
p160
aS'tomato'
p161
aS'turtle'
p162
aS'vinegar'
p163
aa(lp164
S'candy'
p165
aS'cheese'
p166
aS'fish'
p167
aS'ice cream'
p168
aS'meat'
p169
aS'red sauce'
p170
aS'salad'
p171
aS'sesame'
p172
aS'tomato'
p173
aS'water'
p174
aa(lp175
S'butterscotch candy'
p176
aS'carrots'
p177
aS'cheese'
p178
aS'macaroni'
p179
aS'noodle'
p180
aS'onion soup mix'
p181
aS'peas'
p182
aS'pepper'
p183
aS'salt'
p184
aS'soup'
p185
aS'sugar'
p186
aS'water'
p187
aa(lp188
S'cake'
p189
aS'chocolate'
p190
aS'chocolate cake'
p191
aS'coloring'
p192
aS'duck'
p193
aS'ducks'
p194
aS'ice cream'
p195
aS'vanilla'
p196
aS'vanilla cake'
p197
aS'water'
p198
aS'yellow cake'
p199
aa(lp200
S'cereal'
p201
aS'hamburgers'
p202
aS'honey'
p203
aS'sausages'
p204
aS'snack'
p205
aS'syrup'
p206
aS'toast'
p207
aS'waffle'
p208
aS'waffles'
p209
aS'water'
p210
aa(lp211
S'honey'
p212
aS'honey pie'
p213
aS'peanut butter'
p214
aS'pepper'
p215
aS'sunshine'
p216
aS'worcestershire'
p217
aa(lp218
S'bear peanut butter'
p219
aS'bologna'
p220
aS'cake'
p221
aS'chicken'
p222
aS'chocolate pudding'
p223
aS'dip'
p224
aS'maple syrup'
p225
aS'peanuts'
p226
aS'popcorn seeds'
p227
aS'syrup'
p228
aS'toast'
p229
aS'vanilla'
p230
aS'vanilla yogurt'
p231
aS'water'
p232
aa(lp233
S'applesauce applesauce'
p234
aS'applesauce noodles'
p235
aS'dip'
p236
aS'duck'
p237
aS'honey'
p238
aS'meat'
p239
aS'pepper'
p240
aS'pork noodles'
p241
aS'salt'
p242
aS'tomatoes'
p243
aS'turkeys'
p244
aS'water'
p245
aS'zucchini seeds'
p246
aa(lp247
S'bun'
p248
aS'chocolate'
p249
aS'cucumbers'
p250
aS'duck'
p251
aS'fish'
p252
aS'honey'
p253
aS'juice'
p254
aS'lettuce'
p255
aS'pepsi'
p256
aS'salad'
p257
aS'salt'
p258
aS'sprite'
p259
aS'tomatoes'
p260
aS'turtle'
p261
aS'water'
p262
aa(lp263
S'cheese'
p264
aS'fish'
p265
aa(lp266
S'cocoa'
p267
aS'cocoa juice'
p268
aS'coffee'
p269
aS'goose'
p270
aS'turkey'
p271
aS'water'
p272
aa(lp273
S'baked potatoes'
p274
aS'meat'
p275
aS'meat meat'
p276
aS'mix'
p277
aS'potato'
p278
aS'potatoes'
p279
aS'salt'
p280
aa(lp281
S'diet'
p282
aS'honey'
p283
aS'meat'
p284
aS'potatoes'
p285
aS'seals'
p286
aS'turtles'
p287
aS'water'
p288
aa(lp289
S'bun'
p290
aS'cake'
p291
aS'chickens'
p292
aS'chocolate'
p293
aS'chocolate cake'
p294
aS'diet'
p295
aS'duck'
p296
aS'ice cream'
p297
aS'lettuce'
p298
aS'mix'
p299
aS'pizza'
p300
aS'strawberry'
p301
aS'water'
p302
aa(lp303
S'milk'
p304
aS'pepper'
p305
aS'pepsi'
p306
aS'potato'
p307
aS'sesame'
p308
aa(lp309
S'cheese'
p310
aS'cookie'
p311
aS'meat'
p312
aS'tea'
p313
aS'turtle'
p314
aS'turtles'
p315
aS'water'
p316
aS'waters'
p317
aa(lp318
S'apple'
p319
aS'candy'
p320
aS'chocolate'
p321
aS'coloring'
p322
aS'cookies'
p323
aS'crackers'
p324
aS'egg'
p325
aS'gravy'
p326
aS'jelly beans'
p327
aS'onions'
p328
aS'pie'
p329
aa(lp330
S'butter'
p331
aS'diet'
p332
aS'goose'
p333
aS'honey'
p334
aS'meat'
p335
aS'water'
p336
aa(lp337
S'apples'
p338
aS'beers'
p339
aS'brandy'
p340
aS'butter'
p341
aS'cheese'
p342
aS'chicken'
p343
aS'ground pork'
p344
aS'macaroni'
p345
aS'mashed potatoes'
p346
aS'meat'
p347
aS'meat chili'
p348
aS'pork'
p349
aS'turkey cake'
p350
aS'whiskey'
p351
aa(lp352
S'bread'
p353
aS'chocolate'
p354
aS'greens'
p355
aS'honey'
p356
aS'sour cream'
p357
aa(lp358
S'apple'
p359
aS'bean'
p360
aS'cake'
p361
aS'candy'
p362
aS'jelly beans'
p363
aS'paprika'
p364
aS'peanut butter'
p365
aS'pepper'
p366
aS'raisins'
p367
aS'rolls'
p368
aS'sandwich'
p369
aS'water'
p370
aS'white cake'
p371
aa(lp372
S'apple pie'
p373
aS'beans'
p374
aS'bear'
p375
aS'bears'
p376
aS'bread'
p377
aS'bread loaf'
p378
aS'butter'
p379
aS'cheese'
p380
aS'hamburger'
p381
aS'hamburgers'
p382
aS'honey'
p383
aS'hot dogs'
p384
aS'jelly'
p385
aS'juice'
p386
aS'macaroni'
p387
aS'milk'
p388
aS'oatmeal'
p389
aS'orange juice'
p390
aS'peanut butter'
p391
aS'pie'
p392
aS'pizza'
p393
aS'potato puffs'
p394
aS'sandwich'
p395
aS'snacks'
p396
aa(lp397
S'meat'
p398
aa(lp399
S'alcohol'
p400
aS'bread honey'
p401
aS'burger kings'
p402
aS'cheese'
p403
aS'honey'
p404
aS'oil'
p405
aS'pepper'
p406
aS'pie'
p407
aS'salt'
p408
aS'sandwich'
p409
aS'turkey'
p410
aa(lp411
S'ham'
p412
aS'honey'
p413
aS'lamb'
p414
aS'lasagna'
p415
aS'pepsi'
p416
aS'salt'
p417
aS'water'
p418
aa(lp419
S'cheese'
p420
aS'corn'
p421
aS'garlic'
p422
aS'peas'
p423
aS'peppers'
p424
aS'red beans'
p425
aS'vegetables'
p426
aS'water'
p427
aa(lp428
S'fish'
p429
aS'honey'
p430
aS'meat'
p431
aS'olives'
p432
aS'pizza'
p433
aS'pork'
p434
aS'potatoes'
p435
aS'spaghettios'
p436
aS'water'
p437
aa(lp438
S'bean'
p439
aS'carrots'
p440
aS'cheese'
p441
aS'chinese restaurant'
p442
aS'coffee'
p443
aS'cranberry juice'
p444
aS'juice'
p445
aS'kraft macaroni'
p446
aS'macaroni'
p447
aS'pizza'
p448
aS'potato chips'
p449
aS'root beer'
p450
aS'sauce'
p451
aS'tonic'
p452
aa(lp453
S'candy'
p454
aS'champagne'
p455
aS'cherries'
p456
aS'meat'
p457
aS'pepsi'
p458
aS'pineapple juice'
p459
aS'raspberries'
p460
aS'water'
p461
aa(lp462
S'cake'
p463
aS'cakes'
p464
aS'honey'
p465
aa(lp466
S'apple'
p467
aS'banana'
p468
aS'candy'
p469
aS'candy corns'
p470
aS'chicken kabob'
p471
aS'honey'
p472
aS'jelly beans'
p473
aS'lemon'
p474
aS'melon'
p475
aS'strawberry'
p476
aS'tamales'
p477
aa(lp478
S'bologna'
p479
aS'bun'
p480
aS'candy'
p481
aS'cheese'
p482
aS'chicken'
p483
aS'chicken patty'
p484
aS'cocoa'
p485
aS'cola'
p486
aS'fish'
p487
aS'fruit'
p488
aS'fudge'
p489
aS'hamburger'
p490
aS'hamburger bun'
p491
aS'honey'
p492
aS'ice cream'
p493
aS'juice'
p494
aS'peanut butter'
p495
aS'pizza pizza'
p496
aS'pudding'
p497
aS'sandwich'
p498
aS'snack'
p499
aS'tuna fish'
p500
aa(lp501
S'beef'
p502
aS'cola'
p503
aS'fish'
p504
aS'garlic'
p505
aS'potatoes'
p506
aS'strawberries'
p507
aS'water'
p508
aa(lp509
S'cheese'
p510
aS'macaroni'
p511
aa(lp512
S'apples'
p513
aS'beef'
p514
aS'candy'
p515
aS'chicken'
p516
aS'chocolate chip cookies'
p517
aS'cookie'
p518
aS'cookies'
p519
aS'hash browns'
p520
aS'lettuce'
p521
aS'meat'
p522
aS'pears'
p523
aS'rice'
p524
aS'salad'
p525
aS'salads'
p526
aS'school lunch'
p527
aS'snack'
p528
aS'water'
p529
aa(lp530
(lp531
S'sandwiches'
p532
aa(lp533
S'sandwich'
p534
aa(lp535
S'Chicken'
p536
aS'meat'
p537
aS'onion'
p538
aa(lp539
S'Pepsi'
p540
aS'biscuits'
p541
aS'black eyed peas'
p542
aS'bun'
p543
aS'cheese'
p544
aS'crackers'
p545
aS'ham hock'
p546
aS'pork and beans'
p547
aS'raisins'
p548
aS'sauce'
p549
aS'shrimp'
p550
aa(lp551
a(lp552
S'gravy'
p553
aS'pie'
p554
aS'potatoes'
p555
aa(lp556
S'chicky'
p557
aS'potato coins'
p558
aa(lp559
S'butter'
p560
aS'meat loaf'
p561
aS'potato'
p562
aa(lp563
S'milk'
p564
aS'pork chop'
p565
aS'strawberry'
p566
aa(lp567
S'coke'
p568
aS'salt'
p569
aa(lp570
S'butter'
p571
aS'enchilada'
p572
aS'hot chi'
p573
aS'red sweet and sour sauce'
p574
aS'salt'
p575
aS'shrimp'
p576
aS'sweet and sour sauce'
p577
aa(lp578
S'Coke'
p579
aS'ice tea'
p580
aS'salad dressing'
p581
aa(lp582
S'chips'
p583
aS'doughnut'
p584
aS'root beer'
p585
aS'sandwich'
p586
aa(lp587
S'orange and sherbet'
p588
aS'steak sauce'
p589
aa(lp590
S'garlic'
p591
aS'toast'
p592
aa(lp593
S'french fries'
p594
aS'salad'
p595
aa(lp596
S'gravy'
p597
aS'milk'
p598
aa(lp599
S'Balsamic vinegar'
p600
aS'carrot sticks'
p601
aS'dressing'
p602
aS'french fries'
p603
aS'ketchup'
p604
aS'virgin olive oil'
p605
aa(lp606
S'Chicken'
p607
aS'butter'
p608
aS'onions'
p609
aS'popsicle'
p610
aa(lp611
S'bread and butter'
p612
aS'milk'
p613
aS'salt and pepper'
p614
aa(lp615
a(lp616
S'apple cinnamon'
p617
aS'milk'
p618
aa(lp619
S'orange juice'
p620
aa(lp621
S'cantaloupe'
p622
aS'cookie'
p623
aS'juice'
p624
aS'milk'
p625
aa(lp626
S'Creamy Italian'
p627
aS'Creamy Italian dressing'
p628
aS'French'
p629
aS'Italian'
p630
aS'Thousand Island'
p631
aS'Worcestire'
p632
aS'dressing'
p633
aS'pork chop'
p634
aS'rice'
p635
aa(lp636
S'Coke'
p637
aS'Pepsi'
p638
aS'Sprite'
p639
aS'Sprite soda'
p640
aS'french fry'
p641
aS'ketchup'
p642
aS'relish'
p643
aS'sandwich'
p644
aS'soda'
p645
aa(lp646
S'crunchy pea'
p647
aS'watermelon'
p648
aa(lp649
S'Cocao Puff'
p650
aS'Cocoa Pop'
p651
aS'cereal'
p652
aS'cocao juice'
p653
aS'juice thing'
p654
aa(lp655
S"Lipton's onion mix"
p656
aS'baked potato'
p657
aS'butter'
p658
aS'jello'
p659
aS'milk'
p660
aa(lp661
S'Yodel'
p662
aS'coke'
p663
aS'corn on the cob'
p664
aS'diet coke'
p665
aS'mashed potato'
p666
aS'potato'
p667
aS'vegetable'
p668
aa(lp669
S'koolaid'
p670
aS'sauce'
p671
aS'spaghetti sauce'
p672
aS'tequila'
p673
aa(lp674
S'Coke'
p675
aS'coffee'
p676
aS'corn'
p677
aS'green bean'
p678
aa(lp679
S'milk'
p680
aa(lp681
S'egg roll'
p682
aS'gravy things'
p683
aS'green onions'
p684
aS'scallions'
p685
aa(lp686
S'diet coke'
p687
aS'fudge'
p688
aS'hot butter'
p689
aS'ketchup'
p690
aS'mashed potato'
p691
aS'popcorn'
p692
aS'steak'
p693
aS'stuffing'
p694
aa(lp695
S'Grey poupon'
p696
aS'french fry'
p697
aS'fry'
p698
aS'hot chocolate'
p699
aS'lentil'
p700
aS'lentil bean'
p701
aS'vegetarian chili'
p702
aa(lp703
S"Marie's sour cream and ill"
p704
aS'coffee'
p705
aS'creamy dressing'
p706
aS'dressing'
p707
aS'half and half'
p708
aS'noodles'
p709
aS'salad'
p710
aS'sprinkles'
p711
aS'vinegar'
p712
aa(lp713
S'butter'
p714
aS'red crystal sugar'
p715
aa(lp716
S'rice'
p717
aa(lp718
S'ice'
p719
aS'milk'
p720
aS'muffin'
p721
aS'potato salad'
p722
aS'soda'
p723
aa(lp724
S'apple cider'
p725
aS'corn'
p726
aS'lamb chop'
p727
aS'lemonade'
p728
aS'loaf'
p729
aS'milk'
p730
aS'pork chops'
p731
aS'rice'
p732
aa(lp733
S'bread'
p734
aS'chicken'
p735
aS'pig'
p736
aS'pork chop'
p737
aS'shake in bake'
p738
aS'shell'
p739
aa(lp740
S'bell pepper'
p741
aS'black eyed pea'
p742
aS'butter'
p743
aS'french bread'
p744
aS'garlic bread'
p745
aS'garlic salt'
p746
aS'grape juice'
p747
aS'ham'
p748
aS'popsicle'
p749
aS'sub roll'
p750
aa(lp751
S'cranberry sauce'
p752
aa(lp753
S'pasta'
p754
aa(lp755
S'Pepsi'
p756
aS'brownie'
p757
aS'cherry'
p758
aS'gum'
p759
aS'icing'
p760
aS'pea'
p761
aS'pine juice'
p762
aS'pineapple'
p763
aS'raspberry'
p764
aS'rice'
p765
aa(lp766
S'bagel'
p767
aS'golden pancake'
p768
aa(lp769
S'Mike_N_Ike'
p770
aS'bread'
p771
aS'chicken kabob pepper'
p772
aS'donut'
p773
aS'flat bread'
p774
aS'gravy'
p775
aS'lamb'
p776
aS'salad'
p777
aS'sauce'
p778
aS'semolina'
p779
aS'shishkebab onion'
p780
aa(lp781
S'Classic_coke'
p782
aS'Coca_Cola'
p783
aS'Coke'
p784
aS'orange'
p785
aS'soda'
p786
aa(lp787
S'Coca_Cola'
p788
aS'Coke'
p789
aS'cheese'
p790
aS'chip'
p791
aS'fruit salad'
p792
aS'ice cream'
p793
aS'orange juice'
p794
aS'pork'
p795
aS'pork chop'
p796
aS'potato'
p797
aa(lp798
a(lp799
S'milk'
p800
aS'sugar'
p801
aa(lp802
(S'HSLLD/HV1/MT/kurmt1.cha'
p803
g1
(g2
g3
(I5
I3
I1
g5
g531
NttRp804
tp805
a(S'HSLLD/HV1/MT/seamt1.cha'
p806
g1
(g2
g3
(I0
I2
I1
g9
g533
NttRp807
tp808
a(S'HSLLD/HV1/MT/maymt1.cha'
p809
g1
(g2
g3
(I4
I15
I3
g12
g535
NttRp810
tp811
a(S'HSLLD/HV1/MT/zenmt1.cha'
p812
g1
(g2
g3
(I9
I13
I11
g28
g539
NttRp813
tp814
a(S'HSLLD/HV1/MT/tamtp1.cha'
p815
g1
(g2
g3
(I2
I2
I0
g42
g551
NttRp816
tp817
a(S'HSLLD/HV1/MT/megmt1.cha'
p818
g1
(g2
g3
(I4
I5
I3
g45
g552
NttRp819
tp820
a(S'HSLLD/HV1/MT/vicmt1.cha'
p821
g1
(g2
g3
(I4
I7
I2
g51
g556
NttRp822
tp823
a(S'HSLLD/HV2/MT/stnmt2.cha'
p824
g1
(g2
g3
(I5
I4
I3
g59
g559
NttRp825
tp826
a(S'HSLLD/HV2/MT/ethmt2.cha'
p827
g1
(g2
g3
(I3
I10
I3
g64
g563
NttRp828
tp829
a(S'HSLLD/HV2/MT/vicmt2.cha'
p830
g1
(g2
g3
(I2
I6
I2
g75
g567
NttRp831
tp832
a(S'HSLLD/HV2/MT/megmt2.cha'
p833
g1
(g2
g3
(I4
I22
I7
g82
g570
NttRp834
tp835
a(S'HSLLD/HV2/MT/seamt2.cha'
p836
g1
(g2
g3
(I3
I7
I3
g105
g578
NttRp837
tp838
a(S'HSLLD/HV2/MT/petmt2.cha'
p839
g1
(g2
g3
(I4
I6
I4
g113
g582
NttRp840
tp841
a(S'HSLLD/HV2/MT/kurmt2.cha'
p842
g1
(g2
g3
(I6
I14
I2
g120
g587
NttRp843
tp844
a(S'HSLLD/HV2/MT/zenmt2.cha'
p845
g1
(g2
g3
(I5
I5
I2
g135
g590
NttRp846
tp847
a(S'HSLLD/HV2/MT/karmt2.cha'
p848
g1
(g2
g3
(I2
I1
I2
g141
g593
NttRp849
tp850
a(S'HSLLD/HV2/MT/brnmt2.cha'
p851
g1
(g2
g3
(I3
I8
I2
g143
g596
NttRp852
tp853
a(S'HSLLD/HV2/MT/rosmt2.cha'
p854
g1
(g2
g3
(I6
I11
I6
g152
g599
NttRp855
tp856
a(S'HSLLD/HV2/MT/diamt2.cha'
p857
g1
(g2
g3
(I10
I10
I4
g164
g606
NttRp858
tp859
a(S'HSLLD/HV2/MT/catmt2.cha'
p860
g1
(g2
g3
(I8
I12
I3
g175
g611
NttRp861
tp862
a(S'HSLLD/HV2/MT/inamt2.cha'
p863
g1
(g2
g3
(I0
I11
I0
g188
g615
NttRp864
tp865
a(S'HSLLD/HV3/MT/melmt3.cha'
p866
g1
(g2
g3
(I2
I10
I2
g200
g616
NttRp867
tp868
a(S'HSLLD/HV3/MT/ethmt3.cha'
p869
g1
(g2
g3
(I2
I6
I1
g211
g619
NttRp870
tp871
a(S'HSLLD/HV3/MT/bobmt3.cha'
p872
g1
(g2
g3
(I3
I14
I4
g218
g621
NttRp873
tp874
a(S'HSLLD/HV3/MT/sarmt3.cha'
p875
g1
(g2
g3
(I7
I13
I9
g233
g626
NttRp876
tp877
a(S'HSLLD/HV3/MT/deamt3.cha'
p878
g1
(g2
g3
(I4
I15
I9
g247
g636
NttRp879
tp880
a(S'HSLLD/HV3/MT/kurmt3.cha'
p881
g1
(g2
g3
(I3
I2
I2
g263
g646
NttRp882
tp883
a(S'HSLLD/HV3/MT/brnmt3.cha'
p884
g1
(g2
g3
(I1
I6
I5
g266
g649
NttRp885
tp886
a(S'HSLLD/HV3/MT/stnmt3.cha'
p887
g1
(g2
g3
(I3
I7
I5
g273
g655
NttRp888
tp889
a(S'HSLLD/HV3/MT/tommt3.cha'
p890
g1
(g2
g3
(I5
I7
I7
g281
g661
NttRp891
tp892
a(S'HSLLD/HV3/MT/rosmt3.cha'
p893
g1
(g2
g3
(I4
I13
I4
g289
g669
NttRp894
tp895
a(S'HSLLD/HV3/MT/vicmt3.cha'
p896
g1
(g2
g3
(I1
I5
I4
g303
g674
NttRp897
tp898
a(S'HSLLD/HV3/MT/devmt3.cha'
p899
g1
(g2
g3
(I2
I8
I1
g309
g679
NttRp900
tp901
a(S'HSLLD/HV3/MT/geomt3.cha'
p902
g1
(g2
g3
(I3
I11
I4
g318
g681
NttRp903
tp904
a(S'HSLLD/HV3/MT/catmt3.cha'
p905
g1
(g2
g3
(I5
I6
I8
g330
g686
NttRp906
tp907
a(S'HSLLD/HV5/MT/jammt5.cha'
p908
g1
(g2
g3
(I5
I14
I7
g337
g695
NttRp909
tp910
a(S'HSLLD/HV5/MT/rosmt5.cha'
p911
g1
(g2
g3
(I9
I5
I9
g352
g703
NttRp912
tp913
a(S'HSLLD/HV5/MT/ethmt5.cha'
p914
g1
(g2
g3
(I5
I13
I2
g358
g713
NttRp915
tp916
a(S'HSLLD/HV5/MT/mrkmt5.cha'
p917
g1
(g2
g3
(I1
I24
I1
g372
g716
NttRp918
tp919
a(S'HSLLD/HV5/MT/brnmt5.cha'
p920
g1
(g2
g3
(I1
I1
I5
g397
g718
NttRp921
tp922
a(S'HSLLD/HV5/MT/petmt5.cha'
p923
g1
(g2
g3
(I11
I11
I8
g399
g724
NttRp924
tp925
a(S'HSLLD/HV5/MT/melmt5.cha'
p926
g1
(g2
g3
(I6
I7
I6
g411
g733
NttRp927
tp928
a(S'HSLLD/HV5/MT/zenmt5.cha'
p929
g1
(g2
g3
(I9
I8
I10
g419
g740
NttRp930
tp931
a(S'HSLLD/HV5/MT/kurmt5.cha'
p932
g1
(g2
g3
(I6
I9
I1
g428
g751
NttRp933
tp934
a(S'HSLLD/HV5/MT/bramt5.cha'
p935
g1
(g2
g3
(I4
I14
I1
g438
g753
NttRp936
tp937
a(S'HSLLD/HV5/MT/shlmt5.cha'
p938
g1
(g2
g3
(I12
I8
I10
g453
g755
NttRp939
tp940
a(S'HSLLD/HV5/MT/davmt5.cha'
p941
g1
(g2
g3
(I5
I3
I2
g462
g766
NttRp942
tp943
a(S'HSLLD/HV7/MT/tommt7.cha'
p944
g1
(g2
g3
(I7
I11
I11
g466
g769
NttRp945
tp946
a(S'HSLLD/HV7/MT/admmt7.cha'
p947
g1
(g2
g3
(I5
I22
I5
g478
g781
NttRp948
tp949
a(S'HSLLD/HV7/MT/davmt7.cha'
p950
g1
(g2
g3
(I10
I7
I10
g501
g787
NttRp951
tp952
a(S'HSLLD/HV7/MT/allmt7.cha'
p953
g1
(g2
g3
(I0
I2
I0
g509
g798
NttRp954
tp955
a(S'HSLLD/HV7/MT/jebmt7.cha'
p956
g1
(g2
g3
(I2
I17
I2
g512
g799
NttRp957
tp958
attRp959
.