ccopy_reg
_reconstructor
p1
(cnamedtuples
Accuracy
p2
c__builtin__
tuple
p3
(I180
I57
I59
(lp4
(lp5
S'egg'
p6
aS'fish'
p7
aS'lollipops'
p8
aS"mother's"
p9
aa(lp10
S'chicken spices'
p11
aS'honey'
p12
aa(lp13
S'honey'
p14
aS'sunshine'
p15
aS'tea'
p16
aa(lp17
S'apple'
p18
aS'candy'
p19
aS'crackers'
p20
aS'duck'
p21
aS'vegetable'
p22
aa(lp23
S'bear'
p24
aS'bread'
p25
aS'fish'
p26
aS'grapes'
p27
aS'honey'
p28
aS'water'
p29
aa(lp30
S'duck'
p31
aS'fish'
p32
aS'lobsters'
p33
aS'meat'
p34
aS'water'
p35
aa(lp36
a(lp37
S'candy'
p38
aS'turtle'
p39
aS'turtles'
p40
aa(lp41
S'apple'
p42
aS'duck'
p43
aS'grape'
p44
aS'honey'
p45
aa(lp46
S'coffee mix'
p47
aS'diet'
p48
aS'fruit'
p49
aS'lettuce lettuce'
p50
aS'milk juice'
p51
aa(lp52
S'barbecue'
p53
aS'honey'
p54
aS"mcdonald's"
p55
aa(lp56
S'tonic'
p57
aa(lp58
S'cabbage'
p59
aS'diet'
p60
aS'egg'
p61
aS'ham sandwich'
p62
aS'honey'
p63
aS'pork'
p64
aS"van's"
p65
aa(lp66
a(lp67
a(lp68
S'meat'
p69
aa(lp70
S'butter'
p71
aS'goose'
p72
aS'honey'
p73
aa(lp74
S'pork'
p75
aa(lp76
S'duck'
p77
aa(lp78
a(lp79
S'honey'
p80
aS'seeds'
p81
aS'water'
p82
aa(lp83
(lp84
S'cantaloupe'
p85
aS'ice cube'
p86
aS'lollipop'
p87
aS'tootsie roll'
p88
aa(lp89
S'brownie'
p90
aS'chicken'
p91
aS'coke'
p92
aa(lp93
S'skim milk'
p94
aa(lp95
S'cotton candy'
p96
aS'french fries'
p97
aa(lp98
S'brown bread'
p99
aS'concord grapes'
p100
aS'fish stick'
p101
aS'ice cream bar'
p102
aa(lp103
S'soda'
p104
aa(lp105
S'orange'
p106
aa(lp107
a(lp108
S'popsicle'
p109
aS'popsicles'
p110
aS'vitamin'
p111
aa(lp112
S'(to)matoes'
p113
aS'cucum(ber)'
p114
aS'diet dressing'
p115
aS'diet soda'
p116
aS'supper'
p117
aa(lp118
S'gum drop'
p119
aS'mcdonald'
p120
aS'quick'
p121
aa(lp122
a(lp123
S'(po)tatoes'
p124
aS'diet slice'
p125
aS'diet soda'
p126
aS'ginger+ale'
p127
aS'koolaid'
p128
aS'milk shake'
p129
aS'nut and honey'
p130
aS'oats and bran cereal'
p131
aS'oats and honey'
p132
aS'popsicles'
p133
aS'pork chops'
p134
aS'slim fast'
p135
aS'soda'
p136
aS'sodas'
p137
aS'spice ham sandwich'
p138
aa(lp139
a(lp140
a(lp141
a(lp142
S'calzone'
p143
aS'pean(ut) butter'
p144
aS'peanut butter and jelly'
p145
aS'saltine crackers'
p146
aa(lp147
S'corn on the cob'
p148
aS'fudgesicle'
p149
aS'fudgesicles'
p150
aS'honey+dew'
p151
aS'ketchup'
p152
aS'popsicle'
p153
aS'pork chop'
p154
aa(lp155
S'brownies'
p156
aa(lp157
a(lp158
S'corn on the cob'
p159
aS'ice cone'
p160
aS'popsicle'
p161
aS'tuna'
p162
aS'tuna+fish'
p163
aattRp164
.