ccopy_reg
_reconstructor
p1
(cnamedtuples
Accuracy
p2
c__builtin__
tuple
p3
(I166
I51
I73
(lp4
(lp5
S'honey'
p6
aa(lp7
S'meat'
p8
aa(lp9
a(lp10
S'honey'
p11
aS'tea'
p12
aa(lp13
S'apple'
p14
aS'duck'
p15
aS'grape'
p16
aS'honey'
p17
aa(lp18
S'egg'
p19
aS'fish'
p20
aS"mother's"
p21
aa(lp22
a(lp23
S'coffee mix'
p24
aS'fruit'
p25
aS'lettuce lettuce'
p26
aS'milk juice'
p27
aa(lp28
S'pork'
p29
aa(lp30
S'cabbage'
p31
aS'egg'
p32
aS'ham sandwich'
p33
aS'honey'
p34
aS'pork'
p35
aS'sprite'
p36
aS"van's"
p37
aa(lp38
S'barbecue'
p39
aS'honey'
p40
aS"mcdonald's"
p41
aa(lp42
S'apple'
p43
aS'candy'
p44
aS'crackers'
p45
aS'duck'
p46
aS'vegetable'
p47
aa(lp48
a(lp49
S'honey'
p50
aS'seeds'
p51
aS'water'
p52
aa(lp53
S'duck'
p54
aS'fish'
p55
aS'lobsters'
p56
aS'meat'
p57
aS'water'
p58
aa(lp59
a(lp60
S'bread'
p61
aS'fish'
p62
aS'honey'
p63
aS'water'
p64
aa(lp65
S'candy'
p66
aS'turtle'
p67
aS'turtles'
p68
aa(lp69
S'tonic'
p70
aa(lp71
S'duck'
p72
aa(lp73
S'butter'
p74
aS'goose'
p75
aS'honey'
p76
aa(lp77
(lp78
S'brownie'
p79
aS'carrot'
p80
aS'coke'
p81
aa(lp82
a(lp83
a(lp84
S'skim milk'
p85
aa(lp86
S'popsicle'
p87
aS'popsicles'
p88
aS'strawberries'
p89
aS'vitamin'
p90
aa(lp91
S'cantaloupe'
p92
aS'ice cube'
p93
aS'lollipop'
p94
aS'tootsie roll'
p95
aa(lp96
S'noodles'
p97
aa(lp98
S'(to)matoes'
p99
aS'cucum(ber)'
p100
aS'diet dressing'
p101
aS'diet soda'
p102
aS'spaghetti'
p103
aS'supper'
p104
aa(lp105
S'corn on the cob'
p106
aS'fudgesicle'
p107
aS'fudgesicles'
p108
aS'honey+dew'
p109
aS'ketchup'
p110
aS'popsicle'
p111
aS'pork chop'
p112
aa(lp113
S'(po)tatoes'
p114
aS'diet slice'
p115
aS'diet soda'
p116
aS'diet sprite'
p117
aS'ginger+ale'
p118
aS'koolaid'
p119
aS'milk shake'
p120
aS'nut and honey'
p121
aS'oats and bran cereal'
p122
aS'oats and honey'
p123
aS'popsicles'
p124
aS'pork chops'
p125
aS'slim fast'
p126
aS'soda'
p127
aS'sodas'
p128
aS'spice ham sandwich'
p129
aa(lp130
S'gum drop'
p131
aS'mcdonald'
p132
aS'quick'
p133
aa(lp134
S'cotton candy'
p135
aS'doughnuts'
p136
aS'french fries'
p137
aS'vegetables'
p138
aa(lp139
a(lp140
S'corn on the cob'
p141
aS'ice cone'
p142
aS'pizza'
p143
aS'popsicle'
p144
aS'tuna'
p145
aS'tuna+fish'
p146
aa(lp147
S'fat'
p148
aS'onions'
p149
aS'soda'
p150
aa(lp151
S'orange'
p152
aa(lp153
S'brown bread'
p154
aS'catsup'
p155
aS'concord grapes'
p156
aS'fish stick'
p157
aS'ice cream bar'
p158
aS'margarine'
p159
aa(lp160
S'bacon'
p161
aS'gums'
p162
aa(lp163
a(lp164
S'brownies'
p165
aa(lp166
S'calzone'
p167
aS'macaroni salad'
p168
aS'pean(ut) butter'
p169
aS'peanut butter and jelly'
p170
aS'saltine crackers'
p171
aattRp172
.