ccopy_reg
_reconstructor
p1
(cnamedtuples
Accuracy
p2
c__builtin__
tuple
p3
(I189
I56
I60
(lp4
(lp5
S'cabbage'
p6
aS'diet'
p7
aS'egg'
p8
aS'ham sandwich'
p9
aS'honey'
p10
aS'pork'
p11
aS"van's"
p12
aa(lp13
S'candy'
p14
aS'turtle'
p15
aS'turtles'
p16
aa(lp17
a(lp18
S'chicken spices'
p19
aS'honey'
p20
aa(lp21
a(lp22
S'tonic'
p23
aa(lp24
S'duck'
p25
aS'fish'
p26
aS'lobsters'
p27
aS'meat'
p28
aS'water'
p29
aa(lp30
S'pork'
p31
aa(lp32
a(lp33
S'coffee mix'
p34
aS'diet'
p35
aS'fruit'
p36
aS'lettuce lettuce'
p37
aS'milk juice'
p38
aa(lp39
S'apple'
p40
aS'candy'
p41
aS'crackers'
p42
aS'duck'
p43
aS'vegetable'
p44
aa(lp45
S'duck'
p46
aa(lp47
S'honey'
p48
aS'sunshine'
p49
aS'tea'
p50
aa(lp51
S'apple'
p52
aS'duck'
p53
aS'grape'
p54
aS'honey'
p55
aa(lp56
S'honey'
p57
aS'seeds'
p58
aS'water'
p59
aa(lp60
S'egg'
p61
aS'fish'
p62
aS'lollipops'
p63
aS"mother's"
p64
aa(lp65
S'butter'
p66
aS'goose'
p67
aS'honey'
p68
aa(lp69
a(lp70
a(lp71
S'bear'
p72
aS'bread'
p73
aS'fish'
p74
aS'grapes'
p75
aS'honey'
p76
aS'water'
p77
aa(lp78
a(lp79
S'barbecue'
p80
aS'honey'
p81
aS"mcdonald's"
p82
aa(lp83
(lp84
S'(po)tatoes'
p85
aS'diet slice'
p86
aS'diet soda'
p87
aS'ginger+ale'
p88
aS'koolaid'
p89
aS'milk shake'
p90
aS'nut and honey'
p91
aS'oats and bran cereal'
p92
aS'oats and honey'
p93
aS'popsicles'
p94
aS'pork chops'
p95
aS'slim fast'
p96
aS'soda'
p97
aS'sodas'
p98
aS'spice ham sandwich'
p99
aa(lp100
a(lp101
a(lp102
S'brownie'
p103
aS'chicken'
p104
aS'coke'
p105
aa(lp106
S'sandwiches'
p107
aa(lp108
a(lp109
S'soda'
p110
aa(lp111
S'corn on the cob'
p112
aS'fudgesicle'
p113
aS'fudgesicles'
p114
aS'honey+dew'
p115
aS'ketchup'
p116
aS'popsicle'
p117
aS'pork chop'
p118
aa(lp119
a(lp120
S'(to)matoes'
p121
aS'cucum(ber)'
p122
aS'diet dressing'
p123
aS'diet soda'
p124
aS'supper'
p125
aa(lp126
S'cotton candy'
p127
aS'french fries'
p128
aa(lp129
S'brownies'
p130
aa(lp131
S'skim milk'
p132
aa(lp133
S'popsicle'
p134
aS'popsicles'
p135
aS'vitamin'
p136
aa(lp137
S'corn on the cob'
p138
aS'ice cone'
p139
aS'popsicle'
p140
aS'tuna'
p141
aS'tuna+fish'
p142
aa(lp143
S'cantaloupe'
p144
aS'ice cube'
p145
aS'lollipop'
p146
aS'tootsie roll'
p147
aa(lp148
S'calzone'
p149
aS'pean(ut) butter'
p150
aS'peanut butter and jelly'
p151
aS'saltine crackers'
p152
aa(lp153
S'orange'
p154
aa(lp155
a(lp156
S'brown bread'
p157
aS'concord grapes'
p158
aS'fish stick'
p159
aS'ice cream bar'
p160
aa(lp161
a(lp162
S'gum drop'
p163
aS'mcdonald'
p164
aS'quick'
p165
aattRp166
.