ccopy_reg
_reconstructor
p1
(cnamedtuples
Accuracy
p2
c__builtin__
tuple
p3
(I301
I579
I157
(lp4
(lp5
S'beer'
p6
aS'egg'
p7
aS'wine'
p8
aa(lp9
S'duck'
p10
aS'water'
p11
aa(lp12
S'asparagus'
p13
aS'blueberries'
p14
aS'blueberries blueberries'
p15
aS'cake'
p16
aS'cakes'
p17
aS'chicken'
p18
aS'chocolate'
p19
aS'chocolate ice cream'
p20
aS'chocolate strawberry'
p21
aS'coffee'
p22
aS'coleslaw'
p23
aS'cookie'
p24
aS'corn'
p25
aS'honey'
p26
aS'hot dog'
p27
aS'ice cream'
p28
aS'juice'
p29
aS'pudding'
p30
aS'restaurant'
p31
aS'strawberries'
p32
aS'strawberry'
p33
aS'vanilla'
p34
aS'vanilla ice cream'
p35
aS'water'
p36
aa(lp37
S'cake'
p38
aS'cakes'
p39
aS'cereal'
p40
aS'ham'
p41
aS'honey'
p42
aS'hot dog bun'
p43
aS'kidney beans'
p44
aS'lobster'
p45
aS'meat'
p46
aS'onions'
p47
aS'orange juice'
p48
aS'peas'
p49
aS'pineapple'
p50
aS'pineapple juice'
p51
aS'pork'
p52
aS'pumpkin'
p53
aS'sherbert'
p54
aS'spaghetti'
p55
aS'sugar'
p56
aS'water'
p57
aa(lp58
S'pepsi'
p59
aS'sesame'
p60
aS'tea'
p61
aS'water'
p62
aa(lp63
S'beans'
p64
aS'brown gravy'
p65
aS'chicken'
p66
aS'juice'
p67
aS'lemon'
p68
aS'meat'
p69
aS'milk'
p70
aS'rice pilaf'
p71
aS'water'
p72
aa(lp73
S'beer'
p74
aS'butter'
p75
aS'colby'
p76
aS'lettuce'
p77
aS'meat'
p78
aS'pepsi'
p79
aS'pizza'
p80
aS'potato'
p81
aS'pudding pie'
p82
aS'root beer'
p83
aS'sauce'
p84
aS'snack'
p85
aa(lp86
S'bread'
p87
aS'candy'
p88
aS'ham'
p89
aS'italian bread'
p90
aS'jelly'
p91
aS'lamb'
p92
aS'potatoes'
p93
aS'spinach'
p94
aS'water'
p95
aa(lp96
S'chicken'
p97
aS'duck'
p98
aS'ducks'
p99
aS'fruit'
p100
aS'honey'
p101
aS'melon honey'
p102
aS'polar bear'
p103
aS'water'
p104
aa(lp105
S'bear'
p106
aS'cake'
p107
aS'cakes'
p108
aS'candy'
p109
aS'colby'
p110
aS'figs'
p111
aS'meat'
p112
aS'pepper salt'
p113
aa(lp114
S'bacon'
p115
aS'barbecue sauce'
p116
aS'cake'
p117
aS'chicken chicken'
p118
aS'chocolate'
p119
aS'cracker'
p120
aS'crackers'
p121
aS'cranberry sauce'
p122
aS'cream'
p123
aS'diets'
p124
aS'eggs'
p125
aS'green beans'
p126
aS'honey'
p127
aS'ice cream'
p128
aS'ice cream cake'
p129
aS'milk'
p130
aS'potato'
p131
aS'ribs'
p132
aS'snack'
p133
aS'snacks'
p134
aS'soy sauce'
p135
aS'tuna fish'
p136
aS'vanilla'
p137
aS'vegetables'
p138
aa(lp139
S'bread'
p140
aS'buns'
p141
aS'ginger ale'
p142
aS'honey'
p143
aS'loaf sandwich'
p144
aS'meat'
p145
aS'onions'
p146
aS'rolls'
p147
aS'salad'
p148
aS'tea'
p149
aS'water'
p150
aa(lp151
S'apple'
p152
aS'apples'
p153
aS'cheese'
p154
aS'ice cream'
p155
aS'orange'
p156
aS'pickle'
p157
aS'roast beef'
p158
aS'turtle'
p159
aS'turtles'
p160
aa(lp161
S'bacon'
p162
aS'catsup'
p163
aS'coffee'
p164
aS'cookies'
p165
aS'duck'
p166
aS'egg'
p167
aS'ham'
p168
aS'milk'
p169
aS'mix'
p170
aS'onion rings'
p171
aS'roast'
p172
aS'sherbet'
p173
aS'turkey'
p174
aS'water'
p175
aS'yolk'
p176
aa(lp177
S'bear'
p178
aS'cake'
p179
aS'cheese'
p180
aS'cheese popcorn'
p181
aS'cheese toast'
p182
aS'coloring'
p183
aS'garlic bread'
p184
aS'gums'
p185
aS'honey'
p186
aS'popcorn'
p187
aS'potato chips'
p188
aS'tea'
p189
aa(lp190
S'catsup'
p191
aS'cheese'
p192
aS'ham'
p193
aa(lp194
S'chicken'
p195
aS'ice cream'
p196
aS'juice'
p197
aS'meat'
p198
aS'sandwich'
p199
aS'squash'
p200
aS'water'
p201
aa(lp202
S'balsamic'
p203
aS'bleu'
p204
aS'blue cheese'
p205
aS'carrot'
p206
aS'chicken'
p207
aS'chocolate'
p208
aS'honey'
p209
aS'ice cream'
p210
aS'mousse'
p211
aS'olive oil'
p212
aS'peas'
p213
aS'tomato'
p214
aS'tomatoes'
p215
aS'turtle'
p216
aS'vinegar'
p217
aa(lp218
S'bread'
p219
aS'candy'
p220
aS'cheese'
p221
aS'chicken'
p222
aS'chocolate'
p223
aS'coloring'
p224
aS'fish'
p225
aS'ice cream'
p226
aS'meat'
p227
aS'red sauce'
p228
aS'salad'
p229
aS'sesame'
p230
aS'steak'
p231
aS'tomato sauce'
p232
aS'vegetables'
p233
aS'yolk'
p234
aa(lp235
S'broth'
p236
aS'brunch'
p237
aS'carrots'
p238
aS'cheese'
p239
aS'honey'
p240
aS'macaroni'
p241
aS'meat'
p242
aS'mush'
p243
aS'noodle'
p244
aS'onion soup mix'
p245
aS'peas'
p246
aS'pepper'
p247
aS'salt'
p248
aS'soup'
p249
aS'sugar'
p250
aS'vegetables'
p251
aS'water'
p252
aa(lp253
S'coloring'
p254
aS'duck'
p255
aS'ducks'
p256
aS'seeds'
p257
aS'vanilla'
p258
aS'water'
p259
aa(lp260
S'cereal'
p261
aS'hamburgers'
p262
aS'honey'
p263
aS'sausages'
p264
aS'snack'
p265
aS'syrup'
p266
aS'toast'
p267
aS'waffle'
p268
aS'waffles'
p269
aS'water'
p270
aa(lp271
S'honey'
p272
aS'peanut butter'
p273
aS'pepper'
p274
aS'shoulder'
p275
aS'sunshine'
p276
aa(lp277
S'banana'
p278
aS'bologna'
p279
aS'chicken'
p280
aS'chocolate'
p281
aS'chocolate milk'
p282
aS'chocolate yogurt'
p283
aS'chocolate yogurt honey'
p284
aS'juice honey'
p285
aS'kibble'
p286
aS'kibble honey'
p287
aS'maple syrup'
p288
aS'orange juice honey'
p289
aS'pizza'
p290
aS'popcorn seeds'
p291
aS'toast'
p292
aS'vanilla yogurt'
p293
aS'water'
p294
aa(lp295
S'apples'
p296
aS'applesauce applesauce'
p297
aS'applesauce noodles'
p298
aS'ducks'
p299
aS'honey'
p300
aS'italian dressing'
p301
aS'meat'
p302
aS'pepper'
p303
aS'pickle'
p304
aS'salt'
p305
aS'turkeys'
p306
aS'water'
p307
aS'zucchini seeds'
p308
aa(lp309
S'bun'
p310
aS'chocolate'
p311
aS'cucumbers'
p312
aS'duck'
p313
aS'fish'
p314
aS'honey'
p315
aS'juice'
p316
aS'lettuce'
p317
aS'oranges'
p318
aS'pepsi'
p319
aS'salad'
p320
aS'salt'
p321
aS'sprite'
p322
aS'starches'
p323
aS'tomatoes'
p324
aS'turtle'
p325
aS'water'
p326
aa(lp327
S'cake'
p328
aS'carrots'
p329
aS'cheese'
p330
aS'coffee'
p331
aS'pea'
p332
aS'peas'
p333
aS'tea'
p334
aS'tuna fish'
p335
aa(lp336
S'cocoa'
p337
aS'cocoa cocoa'
p338
aS'cocoa juice'
p339
aS'coffee'
p340
aS'duck'
p341
aS'ducks'
p342
aS'goose'
p343
aS'juice'
p344
aS'water'
p345
aa(lp346
S'baked potatoes'
p347
aS'honey'
p348
aS'meat'
p349
aS'meat meat'
p350
aS'mix'
p351
aS'pepper'
p352
aS'potato'
p353
aS'potatoes'
p354
aS'salt'
p355
aa(lp356
S'cookies'
p357
aS'diet'
p358
aS'honey'
p359
aS'meat'
p360
aS'milk honey'
p361
aS'potatoes'
p362
aS'seal'
p363
aS'turtles'
p364
aS'water'
p365
aa(lp366
S'bread'
p367
aS'bun'
p368
aS'cake'
p369
aS'chickens'
p370
aS'chocolate'
p371
aS'cookies'
p372
aS'diets'
p373
aS'duck'
p374
aS'ice cream'
p375
aS'lettuce'
p376
aS'pancake'
p377
aS'pizza'
p378
aS'restaurant'
p379
aS'sponge cake'
p380
aa(lp381
S'cherries'
p382
aS'lollipop'
p383
aS'milk'
p384
aS'pepper'
p385
aS'pepsi'
p386
aS'potato'
p387
aS'salt honey'
p388
aS'sesame'
p389
aS'snack'
p390
aa(lp391
S'turtles'
p392
aa(lp393
S'apple'
p394
aS'banquet'
p395
aS'candy'
p396
aS'coffee'
p397
aS'cookies'
p398
aS'crackers'
p399
aS'egg'
p400
aS'gravy'
p401
aS'jelly beans'
p402
aS'onions'
p403
aS'pie'
p404
aS'turtle'
p405
aS'turtles'
p406
aa(lp407
S'butter'
p408
aS'candy'
p409
aS'cereal'
p410
aS'diet'
p411
aS'ducks'
p412
aS'goose'
p413
aS'honey'
p414
aS'meat'
p415
aS'potatoes'
p416
aS'sauce'
p417
aS'tea'
p418
aa(lp419
S'alcohol'
p420
aS'apples'
p421
aS'beers'
p422
aS'butter'
p423
aS'cheese'
p424
aS'chicken'
p425
aS'chicken soup'
p426
aS'ground pork'
p427
aS'hamburger'
p428
aS'macaroni'
p429
aS'mashed potatoes'
p430
aS'meat'
p431
aS'meat chili'
p432
aS'peas'
p433
aS'pepper'
p434
aS'pork'
p435
aS'potato pie'
p436
aS'potatoes'
p437
aS'sausages'
p438
aS'scotch'
p439
aS'whiskey'
p440
aa(lp441
S'bread'
p442
aS'candy'
p443
aS'chocolate'
p444
aS'greens'
p445
aS'honey'
p446
aS'ice cream'
p447
aS'raisin'
p448
aS'snack'
p449
aS'sour cream'
p450
aS'water'
p451
aa(lp452
S'almond'
p453
aS'almonds'
p454
aS'bean'
p455
aS'berry'
p456
aS'cake'
p457
aS'cakes'
p458
aS'candy'
p459
aS'jelly beans'
p460
aS'juice'
p461
aS'meat'
p462
aS'paprika'
p463
aS'pepper'
p464
aS'raisins'
p465
aS'rolls'
p466
aS'sandwich'
p467
aS'water'
p468
aS'white cake'
p469
aS'white cakes'
p470
aa(lp471
S'beans'
p472
aS'bear'
p473
aS'bears'
p474
aS'bread'
p475
aS'bread mix'
p476
aS'butter'
p477
aS'honey'
p478
aS'hot dogs'
p479
aS'jelly'
p480
aS'macaroni'
p481
aS'meat'
p482
aS'milk'
p483
aS'mix'
p484
aS'muffins'
p485
aS'peanut butter'
p486
aS'pie'
p487
aS'pizza'
p488
aS'potato puffs'
p489
aS'sandwich'
p490
aa(lp491
S'meat'
p492
aa(lp493
S'burger kings'
p494
aS'cinnamon'
p495
aS'honey'
p496
aS'jelly'
p497
aS'lamb'
p498
aS'oil'
p499
aS'salt'
p500
aS'sugar'
p501
aa(lp502
S'ham'
p503
aS'honey'
p504
aS'lamb'
p505
aS'lasagna'
p506
aS'pepsi'
p507
aS'salt'
p508
aS'water'
p509
aa(lp510
S'cheese'
p511
aS'dumpling'
p512
aS'garlic'
p513
aS'peas'
p514
aS'peppers'
p515
aS'red beans'
p516
aS'rolls'
p517
aS'vegetables'
p518
aS'water'
p519
aa(lp520
S'honey'
p521
aS'meat'
p522
aS'olives'
p523
aS'pizza'
p524
aS'pork'
p525
aS'potatoes'
p526
aS'spaghettios'
p527
aS'water'
p528
aa(lp529
S'bean'
p530
aS'carrots'
p531
aS'cheese'
p532
aS'coffee'
p533
aS'cranberry juice'
p534
aS'juice'
p535
aS'kraft macaroni'
p536
aS'pizza'
p537
aS'root beer'
p538
aS'salad'
p539
aS'sauce'
p540
aS'toast'
p541
aa(lp542
S'candy'
p543
aS'cherries'
p544
aS'meat'
p545
aS'pepsi'
p546
aS'pineapple juice'
p547
aS'tomatoes'
p548
aa(lp549
S'cake'
p550
aS'cakes'
p551
aS'honey'
p552
aS'pancake mix'
p553
aa(lp554
S'banana'
p555
aS'candy'
p556
aS'chicken kabob'
p557
aS'farina'
p558
aS'honey'
p559
aS'jelly beans'
p560
aS'lemon'
p561
aS'melon'
p562
aS'strawberry'
p563
aS'tamales'
p564
aa(lp565
S'bologna'
p566
aS'bun'
p567
aS'cake'
p568
aS'candy'
p569
aS'celery'
p570
aS'cheese'
p571
aS'chicken'
p572
aS'chicken patty'
p573
aS'chocolate'
p574
aS'cocoa'
p575
aS'cola'
p576
aS'egg'
p577
aS'fish'
p578
aS'fruit'
p579
aS'fudge'
p580
aS'hamburger bun'
p581
aS'honey'
p582
aS'ice cream'
p583
aS'juice'
p584
aS'patty'
p585
aS'peanut butter'
p586
aS'pepperoni honey'
p587
aS'pizza pizza'
p588
aS'potato chips'
p589
aS'salad'
p590
aS'school lunch'
p591
aS'snack'
p592
aS'tuna fish'
p593
aa(lp594
S'beef'
p595
aS'bread'
p596
aS'cider'
p597
aS'cola'
p598
aS'fish'
p599
aS'garlic'
p600
aS'ham honey'
p601
aS'potatoes'
p602
aS'sausage'
p603
aS'strawberries'
p604
aa(lp605
S'cheese'
p606
aS'macaroni'
p607
aS'meat'
p608
aS'pizza'
p609
aa(lp610
S'beef'
p611
aS'candy'
p612
aS'cheddar cheese'
p613
aS'cheese'
p614
aS'chicken'
p615
aS'chocolate chip cookies'
p616
aS'chocolate milk'
p617
aS'cookie'
p618
aS'cookies'
p619
aS'fruit'
p620
aS'hash browns'
p621
aS'jellies'
p622
aS'jelly'
p623
aS'lettuce'
p624
aS'meat'
p625
aS'peanut butter'
p626
aS'peanut butters'
p627
aS'pizza'
p628
aS'popcorn'
p629
aS'rice'
p630
aS'salad'
p631
aS'salads'
p632
aS'school lunch'
p633
aS'snack'
p634
aS'water'
p635
aa(lp636
(lp637
S'sandwiches'
p638
aa(lp639
a(lp640
S'Chicken'
p641
aS'breaded chicken'
p642
aa(lp643
S'Pepsi'
p644
aS'black eyed peas'
p645
aS'bun'
p646
aS'ham hock'
p647
aS'pork and beans'
p648
aS'shrimp'
p649
aa(lp650
a(lp651
S'gravy'
p652
aS'potatoes'
p653
aa(lp654
S'chicky'
p655
aS'potato coins'
p656
aa(lp657
S'meatball'
p658
aa(lp659
S'milk'
p660
aS'pork chop'
p661
aS'strawberry'
p662
aa(lp663
S'coke'
p664
aS'honey'
p665
aa(lp666
S'hot chi'
p667
aS'red sweet and sour sauce'
p668
aS'shrimp'
p669
aS'sweet and sour sauce'
p670
aa(lp671
S'Coke'
p672
aS'ice tea'
p673
aS'salad dressing'
p674
aa(lp675
S'chips'
p676
aa(lp677
S'orange and sherbet'
p678
aa(lp679
a(lp680
S'french fries'
p681
aa(lp682
a(lp683
S'Balsamic vinegar'
p684
aS'carrot sticks'
p685
aS'dressing'
p686
aS'french fries'
p687
aS'ketchup'
p688
aS'virgin olive oil'
p689
aa(lp690
S'Chicken'
p691
aS'honey'
p692
aS'popsicle'
p693
aa(lp694
S'bread and butter'
p695
aS'butterscotch'
p696
aS'hamburgers'
p697
aS'salt and pepper'
p698
aa(lp699
a(lp700
S'apple cinnamon'
p701
aa(lp702
S'orange juice'
p703
aa(lp704
S'cantaloupe'
p705
aa(lp706
S'Creamy Italian'
p707
aS'Creamy Italian dressing'
p708
aS'French'
p709
aS'Italian'
p710
aS'Thousand Island'
p711
aS'Worcestire'
p712
aS'pork chop'
p713
aS'rice'
p714
aS'tomato'
p715
aa(lp716
S'Coke'
p717
aS'Pepsi'
p718
aS'Sprite'
p719
aS'Sprite soda'
p720
aS'french fry'
p721
aS'ketchup'
p722
aS'relish'
p723
aS'sandwich'
p724
aS'soda'
p725
aa(lp726
S'crunchy pea'
p727
aa(lp728
S'Cocao Puff'
p729
aS'Cocoa Pop'
p730
aS'cocao juice'
p731
aS'juice thing'
p732
aa(lp733
S"Lipton's onion mix"
p734
aS'baked potato'
p735
aS'beef'
p736
aa(lp737
S'Yodel'
p738
aS'coke'
p739
aS'corn on the cob'
p740
aS'diet coke'
p741
aS'mashed potato'
p742
aS'potato'
p743
aa(lp744
S'koolaid'
p745
aa(lp746
S'Coke'
p747
aS'coffee'
p748
aa(lp749
S'ravioli'
p750
aa(lp751
S'egg roll'
p752
aS'gravy things'
p753
aS'green onions'
p754
aS'sauce'
p755
aS'scallions'
p756
aa(lp757
S'carrot'
p758
aS'diet coke'
p759
aS'hot butter'
p760
aS'ketchup'
p761
aS'mashed potato'
p762
aS'milk'
p763
aS'popcorn'
p764
aS'stuffing'
p765
aa(lp766
S'Grey poupon'
p767
aS'french fry'
p768
aS'fry'
p769
aS'hot chocolate'
p770
aS'lentil bean'
p771
aS'pinto bean'
p772
aS'vegetarian chili'
p773
aa(lp774
S"Marie's sour cream and ill"
p775
aS'cream'
p776
aS'creamy dressing'
p777
aS'dressing'
p778
aS'half and half'
p779
aS'milk'
p780
aS'sprinkles'
p781
aS'vinegar'
p782
aa(lp783
S'red crystal sugar'
p784
aa(lp785
a(lp786
S'chicken'
p787
aS'ice'
p788
aS'soda'
p789
aa(lp790
S'lamb chop'
p791
aS'pork chops'
p792
aa(lp793
S'pig'
p794
aS'pork chop'
p795
aS'shake in bake'
p796
aS'shell'
p797
aa(lp798
S'bell pepper'
p799
aS'black eyed pea'
p800
aS'butter'
p801
aS'french bread'
p802
aS'garlic salt'
p803
aS'milk'
p804
aS'popsicle'
p805
aS'sub roll'
p806
aa(lp807
a(lp808
S'horseradish'
p809
aS'pasta'
p810
aa(lp811
S'Pepsi'
p812
aS'brownie'
p813
aS'cherry'
p814
aS'gum'
p815
aS'icing'
p816
aS'pine juice'
p817
aS'raspberry'
p818
aa(lp819
S'golden pancake'
p820
aa(lp821
S'Mike_N_Ike'
p822
aS'chicken kabob pepper'
p823
aS'donut'
p824
aS'flat bread'
p825
aS'pumpkin'
p826
aS'semolina'
p827
aS'shishkebab onion'
p828
aa(lp829
S'Classic_coke'
p830
aS'Coca_Cola'
p831
aS'Coke'
p832
aS'orange'
p833
aS'pepperoni pizza'
p834
aS'salt'
p835
aS'soda'
p836
aa(lp837
S'Coca_Cola'
p838
aS'Coke'
p839
aS'bagel'
p840
aS'chip'
p841
aS'ice cream'
p842
aS'pork chop'
p843
aa(lp844
a(lp845
a(lp846
(S'HSLLD/HV1/MT/kurmt1.cha'
p847
g1
(g2
g3
(I5
I3
I1
g5
g637
NttRp848
tp849
a(S'HSLLD/HV1/MT/seamt1.cha'
p850
g1
(g2
g3
(I1
I2
I0
g9
g639
NttRp851
tp852
a(S'HSLLD/HV1/MT/maymt1.cha'
p853
g1
(g2
g3
(I5
I24
I2
g12
g640
NttRp854
tp855
a(S'HSLLD/HV1/MT/zenmt1.cha'
p856
g1
(g2
g3
(I14
I20
I6
g37
g643
NttRp857
tp858
a(S'HSLLD/HV1/MT/tamtp1.cha'
p859
g1
(g2
g3
(I3
I4
I0
g58
g650
NttRp860
tp861
a(S'HSLLD/HV1/MT/megmt1.cha'
p862
g1
(g2
g3
(I5
I9
I2
g63
g651
NttRp863
tp864
a(S'HSLLD/HV1/MT/vicmt1.cha'
p865
g1
(g2
g3
(I5
I12
I2
g73
g654
NttRp866
tp867
a(S'HSLLD/HV2/MT/stnmt2.cha'
p868
g1
(g2
g3
(I7
I9
I1
g86
g657
NttRp869
tp870
a(S'HSLLD/HV2/MT/ethmt2.cha'
p871
g1
(g2
g3
(I3
I8
I3
g96
g659
NttRp872
tp873
a(S'HSLLD/HV2/MT/vicmt2.cha'
p874
g1
(g2
g3
(I2
I8
I2
g105
g663
NttRp875
tp876
a(S'HSLLD/HV2/MT/megmt2.cha'
p877
g1
(g2
g3
(I7
I24
I4
g114
g666
NttRp878
tp879
a(S'HSLLD/HV2/MT/seamt2.cha'
p880
g1
(g2
g3
(I3
I11
I3
g139
g671
NttRp881
tp882
a(S'HSLLD/HV2/MT/petmt2.cha'
p883
g1
(g2
g3
(I7
I9
I1
g151
g675
NttRp884
tp885
a(S'HSLLD/HV2/MT/kurmt2.cha'
p886
g1
(g2
g3
(I7
I15
I1
g161
g677
NttRp887
tp888
a(S'HSLLD/HV2/MT/zenmt2.cha'
p889
g1
(g2
g3
(I7
I12
I0
g177
g679
NttRp890
tp891
a(S'HSLLD/HV2/MT/karmt2.cha'
p892
g1
(g2
g3
(I3
I3
I1
g190
g680
NttRp893
tp894
a(S'HSLLD/HV2/MT/brnmt2.cha'
p895
g1
(g2
g3
(I5
I7
I0
g194
g682
NttRp896
tp897
a(S'HSLLD/HV2/MT/rosmt2.cha'
p898
g1
(g2
g3
(I6
I15
I6
g202
g683
NttRp899
tp900
a(S'HSLLD/HV2/MT/diamt2.cha'
p901
g1
(g2
g3
(I11
I16
I3
g218
g690
NttRp902
tp903
a(S'HSLLD/HV2/MT/catmt2.cha'
p904
g1
(g2
g3
(I7
I17
I4
g235
g694
NttRp905
tp906
a(S'HSLLD/HV2/MT/inamt2.cha'
p907
g1
(g2
g3
(I0
I6
I0
g253
g699
NttRp908
tp909
a(S'HSLLD/HV3/MT/melmt3.cha'
p910
g1
(g2
g3
(I3
I10
I1
g260
g700
NttRp911
tp912
a(S'HSLLD/HV3/MT/ethmt3.cha'
p913
g1
(g2
g3
(I2
I5
I1
g271
g702
NttRp914
tp915
a(S'HSLLD/HV3/MT/bobmt3.cha'
p916
g1
(g2
g3
(I6
I17
I1
g277
g704
NttRp917
tp918
a(S'HSLLD/HV3/MT/sarmt3.cha'
p919
g1
(g2
g3
(I7
I13
I9
g295
g706
NttRp920
tp921
a(S'HSLLD/HV3/MT/deamt3.cha'
p922
g1
(g2
g3
(I5
I17
I9
g309
g716
NttRp923
tp924
a(S'HSLLD/HV3/MT/kurmt3.cha'
p925
g1
(g2
g3
(I4
I8
I1
g327
g726
NttRp926
tp927
a(S'HSLLD/HV3/MT/brnmt3.cha'
p928
g1
(g2
g3
(I2
I9
I4
g336
g728
NttRp929
tp930
a(S'HSLLD/HV3/MT/stnmt3.cha'
p931
g1
(g2
g3
(I5
I9
I3
g346
g733
NttRp932
tp933
a(S'HSLLD/HV3/MT/tommt3.cha'
p934
g1
(g2
g3
(I6
I9
I6
g356
g737
NttRp935
tp936
a(S'HSLLD/HV3/MT/rosmt3.cha'
p937
g1
(g2
g3
(I8
I14
I1
g366
g744
NttRp938
tp939
a(S'HSLLD/HV3/MT/vicmt3.cha'
p940
g1
(g2
g3
(I3
I9
I2
g381
g746
NttRp941
tp942
a(S'HSLLD/HV3/MT/devmt3.cha'
p943
g1
(g2
g3
(I2
I1
I1
g391
g749
NttRp944
tp945
a(S'HSLLD/HV3/MT/geomt3.cha'
p946
g1
(g2
g3
(I2
I13
I5
g393
g751
NttRp947
tp948
a(S'HSLLD/HV3/MT/catmt3.cha'
p949
g1
(g2
g3
(I6
I11
I8
g407
g757
NttRp950
tp951
a(S'HSLLD/HV5/MT/jammt5.cha'
p952
g1
(g2
g3
(I6
I21
I7
g419
g766
NttRp953
tp954
a(S'HSLLD/HV5/MT/rosmt5.cha'
p955
g1
(g2
g3
(I10
I10
I8
g441
g774
NttRp956
tp957
a(S'HSLLD/HV5/MT/ethmt5.cha'
p958
g1
(g2
g3
(I6
I18
I1
g452
g783
NttRp959
tp960
a(S'HSLLD/HV5/MT/mrkmt5.cha'
p961
g1
(g2
g3
(I2
I19
I0
g471
g785
NttRp962
tp963
a(S'HSLLD/HV5/MT/brnmt5.cha'
p964
g1
(g2
g3
(I3
I1
I3
g491
g786
NttRp965
tp966
a(S'HSLLD/HV5/MT/petmt5.cha'
p967
g1
(g2
g3
(I17
I8
I2
g493
g790
NttRp968
tp969
a(S'HSLLD/HV5/MT/melmt5.cha'
p970
g1
(g2
g3
(I8
I7
I4
g502
g793
NttRp971
tp972
a(S'HSLLD/HV5/MT/zenmt5.cha'
p973
g1
(g2
g3
(I11
I9
I8
g510
g798
NttRp974
tp975
a(S'HSLLD/HV5/MT/kurmt5.cha'
p976
g1
(g2
g3
(I7
I8
I0
g520
g807
NttRp977
tp978
a(S'HSLLD/HV5/MT/bramt5.cha'
p979
g1
(g2
g3
(I3
I12
I2
g529
g808
NttRp980
tp981
a(S'HSLLD/HV5/MT/shlmt5.cha'
p982
g1
(g2
g3
(I15
I6
I7
g542
g811
NttRp983
tp984
a(S'HSLLD/HV5/MT/davmt5.cha'
p985
g1
(g2
g3
(I6
I4
I1
g549
g819
NttRp986
tp987
a(S'HSLLD/HV7/MT/tommt7.cha'
p988
g1
(g2
g3
(I12
I10
I7
g554
g821
NttRp989
tp990
a(S'HSLLD/HV7/MT/admmt7.cha'
p991
g1
(g2
g3
(I3
I28
I7
g565
g829
NttRp992
tp993
a(S'HSLLD/HV7/MT/davmt7.cha'
p994
g1
(g2
g3
(I14
I10
I6
g594
g837
NttRp995
tp996
a(S'HSLLD/HV7/MT/allmt7.cha'
p997
g1
(g2
g3
(I0
I4
I0
g605
g844
NttRp998
tp999
a(S'HSLLD/HV7/MT/jebmt7.cha'
p1000
g1
(g2
g3
(I4
I25
I0
g610
g845
NttRp1001
tp1002
attRp1003
.