ccopy_reg
_reconstructor
p1
(cnamedtuples
Accuracy
p2
c__builtin__
tuple
p3
(I174
I54
I66
(lp4
(lp5
S'egg'
p6
aS'fish'
p7
aS"mother's"
p8
aa(lp9
S'chicken spices'
p10
aS'honey'
p11
aa(lp12
S'honey'
p13
aS'sunshine'
p14
aS'tea'
p15
aa(lp16
S'apple'
p17
aS'candy'
p18
aS'crackers'
p19
aS'duck'
p20
aS'vegetable'
p21
aa(lp22
S'bear'
p23
aS'bread'
p24
aS'fish'
p25
aS'grapes'
p26
aS'honey'
p27
aS'water'
p28
aa(lp29
S'duck'
p30
aS'fish'
p31
aS'meat'
p32
aS'water'
p33
aa(lp34
a(lp35
S'candy'
p36
aS'turtle'
p37
aa(lp38
S'apple'
p39
aS'duck'
p40
aS'grape'
p41
aS'honey'
p42
aa(lp43
S'coffee mix'
p44
aS'diet'
p45
aS'fruit'
p46
aS'lettuce lettuce'
p47
aa(lp48
S'barbecue'
p49
aS'honey'
p50
aS"mcdonald's"
p51
aa(lp52
S'tonic'
p53
aa(lp54
S'cabbage'
p55
aS'diet'
p56
aS'egg'
p57
aS'ham sandwich'
p58
aS'honey'
p59
aS'pork'
p60
aS"van's"
p61
aa(lp62
S'snap'
p63
aa(lp64
a(lp65
S'meat'
p66
aa(lp67
S'butter'
p68
aS'goose'
p69
aS'honey'
p70
aa(lp71
S'pork'
p72
aa(lp73
S'duck'
p74
aa(lp75
a(lp76
S'honey'
p77
aS'seeds'
p78
aS'water'
p79
aa(lp80
(lp81
S'cantaloupe'
p82
aS'ice cube'
p83
aS'lollipop'
p84
aS'tootsie roll'
p85
aa(lp86
S'brownie'
p87
aS'chicken'
p88
aS'coke'
p89
aa(lp90
S'skim milk'
p91
aa(lp92
S'beers'
p93
aS'cotton candy'
p94
aS'french fries'
p95
aS'salads'
p96
aa(lp97
S'brown bread'
p98
aS'concord grapes'
p99
aS'fish cakes'
p100
aS'fish stick'
p101
aS'ice cream bar'
p102
aa(lp103
S'soda'
p104
aa(lp105
S'orange'
p106
aa(lp107
S'cupcakes'
p108
aS'hamburgers'
p109
aa(lp110
S'popsicle'
p111
aS'popsicles'
p112
aS'vitamin'
p113
aa(lp114
S'(to)matoes'
p115
aS'cucum(ber)'
p116
aS'diet dressing'
p117
aS'diet soda'
p118
aS'supper'
p119
aa(lp120
S'gum drop'
p121
aS'mcdonald'
p122
aS'quick'
p123
aa(lp124
a(lp125
S'(po)tatoes'
p126
aS'diet slice'
p127
aS'diet soda'
p128
aS'ginger+ale'
p129
aS'koolaid'
p130
aS'milk shake'
p131
aS'nut and honey'
p132
aS'oats and bran cereal'
p133
aS'oats and honey'
p134
aS'popsicles'
p135
aS'pork chops'
p136
aS'slim fast'
p137
aS'soda'
p138
aS'sodas'
p139
aS'spice ham sandwich'
p140
aa(lp141
a(lp142
a(lp143
a(lp144
S'calzone'
p145
aS'pean(ut) butter'
p146
aS'peanut butter and jelly'
p147
aS'saltine crackers'
p148
aa(lp149
S'corn on the cob'
p150
aS'fudgesicle'
p151
aS'fudgesicles'
p152
aS'honey+dew'
p153
aS'ketchup'
p154
aS'popsicle'
p155
aS'pork chop'
p156
aS'porkchops'
p157
aa(lp158
S'brownies'
p159
aa(lp160
a(lp161
S'corn on the cob'
p162
aS'cucumbers'
p163
aS'ice cone'
p164
aS'popsicle'
p165
aS'tuna'
p166
aS'tuna+fish'
p167
aattRp168
.