ccopy_reg
_reconstructor
p1
(cnamedtuples
Accuracy
p2
c__builtin__
tuple
p3
(I179
I56
I60
(lp4
(lp5
S'egg'
p6
aS'fish'
p7
aS'lollipops'
p8
aS"mother's"
p9
aa(lp10
S'chicken spices'
p11
aS'honey'
p12
aa(lp13
S'honey'
p14
aS'sunshine'
p15
aS'tea'
p16
aa(lp17
S'apple'
p18
aS'candy'
p19
aS'crackers'
p20
aS'duck'
p21
aS'vegetable'
p22
aa(lp23
S'bear'
p24
aS'bread'
p25
aS'fish'
p26
aS'grapes'
p27
aS'honey'
p28
aS'water'
p29
aa(lp30
S'duck'
p31
aS'fish'
p32
aS'lobsters'
p33
aS'meat'
p34
aS'water'
p35
aa(lp36
a(lp37
S'candy'
p38
aS'turtle'
p39
aS'turtles'
p40
aa(lp41
S'apple'
p42
aS'duck'
p43
aS'grape'
p44
aS'honey'
p45
aa(lp46
S'coffee mix'
p47
aS'fruit'
p48
aS'lettuce lettuce'
p49
aS'milk juice'
p50
aa(lp51
S'barbecue'
p52
aS'honey'
p53
aS"mcdonald's"
p54
aa(lp55
S'tonic'
p56
aa(lp57
S'cabbage'
p58
aS'egg'
p59
aS'ham sandwich'
p60
aS'honey'
p61
aS'pork'
p62
aS'sprite'
p63
aS"van's"
p64
aa(lp65
a(lp66
a(lp67
S'meat'
p68
aa(lp69
S'butter'
p70
aS'goose'
p71
aS'honey'
p72
aa(lp73
S'pork'
p74
aa(lp75
S'duck'
p76
aa(lp77
a(lp78
S'honey'
p79
aS'seeds'
p80
aS'water'
p81
aa(lp82
(lp83
S'cantaloupe'
p84
aS'ice cube'
p85
aS'lollipop'
p86
aS'tootsie roll'
p87
aa(lp88
S'brownie'
p89
aS'chicken'
p90
aS'coke'
p91
aa(lp92
S'skim milk'
p93
aa(lp94
S'cotton candy'
p95
aS'french fries'
p96
aa(lp97
S'brown bread'
p98
aS'concord grapes'
p99
aS'fish stick'
p100
aS'ice cream bar'
p101
aa(lp102
S'soda'
p103
aa(lp104
S'orange'
p105
aa(lp106
a(lp107
S'popsicle'
p108
aS'popsicles'
p109
aS'vitamin'
p110
aa(lp111
S'(to)matoes'
p112
aS'cucum(ber)'
p113
aS'diet dressing'
p114
aS'diet soda'
p115
aS'supper'
p116
aa(lp117
S'gum drop'
p118
aS'mcdonald'
p119
aS'quick'
p120
aa(lp121
a(lp122
S'(po)tatoes'
p123
aS'diet slice'
p124
aS'diet soda'
p125
aS'diet sprite'
p126
aS'ginger+ale'
p127
aS'koolaid'
p128
aS'milk shake'
p129
aS'nut and honey'
p130
aS'oats and bran cereal'
p131
aS'oats and honey'
p132
aS'popsicles'
p133
aS'pork chops'
p134
aS'slim fast'
p135
aS'soda'
p136
aS'sodas'
p137
aS'spice ham sandwich'
p138
aa(lp139
a(lp140
a(lp141
a(lp142
S'calzone'
p143
aS'pean(ut) butter'
p144
aS'peanut butter and jelly'
p145
aS'saltine crackers'
p146
aa(lp147
S'corn on the cob'
p148
aS'fudgesicle'
p149
aS'fudgesicles'
p150
aS'honey+dew'
p151
aS'ketchup'
p152
aS'popsicle'
p153
aS'pork chop'
p154
aa(lp155
S'brownies'
p156
aa(lp157
a(lp158
S'corn on the cob'
p159
aS'ice cone'
p160
aS'popsicle'
p161
aS'tuna'
p162
aS'tuna+fish'
p163
aattRp164
.