ccopy_reg
_reconstructor
p1
(cnamedtuples
Accuracy
p2
c__builtin__
tuple
p3
(I178
I55
I61
(lp4
(lp5
S'chicken spices'
p6
aS'honey'
p7
aa(lp8
S'meat'
p9
aa(lp10
a(lp11
S'honey'
p12
aS'sunshine'
p13
aS'tea'
p14
aa(lp15
S'apple'
p16
aS'duck'
p17
aS'grape'
p18
aS'honey'
p19
aa(lp20
S'egg'
p21
aS'fish'
p22
aS'lollipops'
p23
aS"mother's"
p24
aa(lp25
a(lp26
S'coffee mix'
p27
aS'diet'
p28
aS'fruit'
p29
aS'lettuce lettuce'
p30
aS'milk juice'
p31
aa(lp32
S'pork'
p33
aa(lp34
S'cabbage'
p35
aS'diet'
p36
aS'egg'
p37
aS'ham sandwich'
p38
aS'honey'
p39
aS'pork'
p40
aS'sprite'
p41
aa(lp42
S'barbecue'
p43
aS'honey'
p44
aa(lp45
S'apple'
p46
aS'candy'
p47
aS'crackers'
p48
aS'duck'
p49
aS'vegetable'
p50
aa(lp51
a(lp52
S'honey'
p53
aS'seeds'
p54
aS'water'
p55
aa(lp56
S'duck'
p57
aS'fish'
p58
aS'lobsters'
p59
aS'meat'
p60
aS'water'
p61
aa(lp62
a(lp63
S'bread'
p64
aS'fish'
p65
aS'grapes'
p66
aS'honey'
p67
aS'water'
p68
aa(lp69
S'candy'
p70
aS'turtle'
p71
aS'turtles'
p72
aa(lp73
S'tonic'
p74
aa(lp75
S'duck'
p76
aa(lp77
S'butter'
p78
aS'goose'
p79
aS'honey'
p80
aa(lp81
(lp82
S'brownie'
p83
aS'chicken'
p84
aS'coke'
p85
aa(lp86
a(lp87
a(lp88
S'skim milk'
p89
aa(lp90
S'popsicle'
p91
aS'popsicles'
p92
aS'vitamin'
p93
aa(lp94
S'cantaloupe'
p95
aS'ice cube'
p96
aS'lollipop'
p97
aS'tootsie roll'
p98
aa(lp99
a(lp100
S'(to)matoes'
p101
aS'cucum(ber)'
p102
aS'diet dressing'
p103
aS'diet soda'
p104
aS'supper'
p105
aa(lp106
S'corn on the cob'
p107
aS'fudgesicle'
p108
aS'fudgesicles'
p109
aS'honey+dew'
p110
aS'ketchup'
p111
aS'popsicle'
p112
aS'pork chop'
p113
aa(lp114
S'(po)tatoes'
p115
aS'diet slice'
p116
aS'diet soda'
p117
aS'ginger+ale'
p118
aS'koolaid'
p119
aS'milk shake'
p120
aS'nut and honey'
p121
aS'oats and bran cereal'
p122
aS'oats and honey'
p123
aS'popsicles'
p124
aS'pork chops'
p125
aS'slim fast'
p126
aS'soda'
p127
aS'sodas'
p128
aS'spice ham sandwich'
p129
aa(lp130
S'gum drop'
p131
aS'mcdonald'
p132
aS'quick'
p133
aa(lp134
S'cotton candy'
p135
aS'doughnuts'
p136
aS'french fries'
p137
aa(lp138
a(lp139
S'corn on the cob'
p140
aS'ice cone'
p141
aS'popsicle'
p142
aS'tuna'
p143
aS'tuna+fish'
p144
aa(lp145
S'soda'
p146
aa(lp147
S'orange'
p148
aa(lp149
S'brown bread'
p150
aS'concord grapes'
p151
aS'fish stick'
p152
aS'ice cream bar'
p153
aa(lp154
S'gums'
p155
aa(lp156
a(lp157
S'brownies'
p158
aa(lp159
S'calzone'
p160
aS'pean(ut) butter'
p161
aS'peanut butter and jelly'
p162
aS'saltine crackers'
p163
aattRp164
.