ccopy_reg
_reconstructor
p1
(cnamedtuples
Accuracy
p2
c__builtin__
tuple
p3
(I181
I94
I61
(lp4
(lp5
S'cabbage'
p6
aS'diet'
p7
aS'egg'
p8
aS'ham sandwich'
p9
aS'honey'
p10
aS'pork'
p11
aS"van's"
p12
aa(lp13
S'candy'
p14
aS'turtle'
p15
aS'turtles'
p16
aa(lp17
a(lp18
S'chicken spices'
p19
aS'honey'
p20
aa(lp21
S'tonic'
p22
aa(lp23
S'duck'
p24
aS'fish'
p25
aS'lobsters'
p26
aS'meat'
p27
aS'water'
p28
aa(lp29
S'pork'
p30
aa(lp31
a(lp32
S'coffee mix'
p33
aS'diet'
p34
aS'fruit'
p35
aS'lettuce lettuce'
p36
aS'milk juice'
p37
aa(lp38
S'beans'
p39
aS'biscuits'
p40
aS'cake'
p41
aS'cakes'
p42
aS'cereal'
p43
aS'cheese'
p44
aS'crackers'
p45
aS'fish'
p46
aS'gravy'
p47
aS'ham'
p48
aS'honey'
p49
aS'hot dog'
p50
aS'hot dog bun'
p51
aS'hot dog buns'
p52
aS'hot dogs'
p53
aS'kidney beans'
p54
aS'lobster'
p55
aS'meat'
p56
aS'milk'
p57
aS'onions'
p58
aS'orange juice'
p59
aS'peas'
p60
aS'pepsi'
p61
aS'pineapple'
p62
aS'pineapple juice'
p63
aS'pineapples'
p64
aS'pork'
p65
aS'pumpkin'
p66
aS'raisins'
p67
aS'rice'
p68
aS'sauce'
p69
aS'sherbert'
p70
aS'sherbet'
p71
aS'spaghetti'
p72
aS'spinach'
p73
aS'steak'
p74
aS'sugar'
p75
aS'water'
p76
aa(lp77
S'apple'
p78
aS'candy'
p79
aS'crackers'
p80
aS'duck'
p81
aS'vegetable'
p82
aa(lp83
S'duck'
p84
aa(lp85
S'honey'
p86
aS'sunshine'
p87
aS'tea'
p88
aa(lp89
S'apple'
p90
aS'duck'
p91
aS'grape'
p92
aS'honey'
p93
aa(lp94
S'honey'
p95
aS'seeds'
p96
aS'water'
p97
aa(lp98
S'egg'
p99
aS'fish'
p100
aS'lollipops'
p101
aS"mother's"
p102
aa(lp103
S'butter'
p104
aS'goose'
p105
aS'honey'
p106
aa(lp107
a(lp108
a(lp109
S'bear'
p110
aS'bread'
p111
aS'fish'
p112
aS'grapes'
p113
aS'honey'
p114
aS'water'
p115
aa(lp116
a(lp117
S'barbecue'
p118
aS'honey'
p119
aS"mcdonald's"
p120
aa(lp121
(lp122
S'(po)tatoes'
p123
aS'diet slice'
p124
aS'diet soda'
p125
aS'ginger+ale'
p126
aS'koolaid'
p127
aS'milk shake'
p128
aS'nut and honey'
p129
aS'oats and bran cereal'
p130
aS'oats and honey'
p131
aS'popsicles'
p132
aS'pork chops'
p133
aS'slim fast'
p134
aS'soda'
p135
aS'sodas'
p136
aS'spice ham sandwich'
p137
aa(lp138
a(lp139
a(lp140
S'brownie'
p141
aS'chicken'
p142
aS'coke'
p143
aa(lp144
a(lp145
S'soda'
p146
aa(lp147
S'corn on the cob'
p148
aS'fudgesicle'
p149
aS'fudgesicles'
p150
aS'honey+dew'
p151
aS'ketchup'
p152
aS'popsicle'
p153
aS'pork chop'
p154
aa(lp155
a(lp156
S'(to)matoes'
p157
aS'cucum(ber)'
p158
aS'diet dressing'
p159
aS'diet soda'
p160
aS'supper'
p161
aa(lp162
S' second_food'
p163
aS'first_food'
p164
aa(lp165
S'cotton candy'
p166
aS'french fries'
p167
aa(lp168
S'brownies'
p169
aa(lp170
S'skim milk'
p171
aa(lp172
S'popsicle'
p173
aS'popsicles'
p174
aS'vitamin'
p175
aa(lp176
S'corn on the cob'
p177
aS'ice cone'
p178
aS'popsicle'
p179
aS'tuna'
p180
aS'tuna+fish'
p181
aa(lp182
S'cantaloupe'
p183
aS'ice cube'
p184
aS'lollipop'
p185
aS'tootsie roll'
p186
aa(lp187
S'calzone'
p188
aS'pean(ut) butter'
p189
aS'peanut butter and jelly'
p190
aS'saltine crackers'
p191
aa(lp192
S'orange'
p193
aa(lp194
a(lp195
S'brown bread'
p196
aS'concord grapes'
p197
aS'fish stick'
p198
aS'ice cream bar'
p199
aa(lp200
a(lp201
S'gum drop'
p202
aS'mcdonald'
p203
aS'quick'
p204
aattRp205
.