ccopy_reg
_reconstructor
p1
(cnamedtuples
Accuracy
p2
c__builtin__
tuple
p3
(I183
I124
I57
(lp4
(lp5
S'breakfast'
p6
aS'dinner'
p7
aS'dip'
p8
aS'egg'
p9
aS'fish'
p10
aS'food'
p11
aS'lollipops'
p12
aS'lunch'
p13
aS'meal'
p14
aS'orange'
p15
aS'sandwiches'
p16
aS'shake'
p17
aS'supper'
p18
aa(lp19
S'dinner'
p20
aS'honey'
p21
aS'spices'
p22
aa(lp23
S'dessert'
p24
aS'food'
p25
aS'honey'
p26
aS'sunshine'
p27
aS'supper'
p28
aS'tea'
p29
aa(lp30
S''
aS'apple'
p31
aS'booze'
p32
aS'candy'
p33
aS'crackers'
p34
aS'duck'
p35
aS'fries'
p36
aS'vegetable'
p37
aa(lp38
S''
aS'bear'
p39
aS'bread'
p40
aS'dinner'
p41
aS'fish'
p42
aS'grapes'
p43
aS'honey'
p44
aS'lunch'
p45
aS'rolls'
p46
aS'supper'
p47
aS'water'
p48
aa(lp49
S'duck'
p50
aS'fish'
p51
aS'food'
p52
aS'lobsters'
p53
aS'meat'
p54
aS'water'
p55
aa(lp56
S'food'
p57
aS'ketchup'
p58
aS'lunch'
p59
aa(lp60
S'candy'
p61
aS'food'
p62
aS'shake'
p63
aS'snap'
p64
aS'supper'
p65
aS'turtle'
p66
aa(lp67
S'apple'
p68
aS'dinner'
p69
aS'duck'
p70
aS'food'
p71
aS'grape'
p72
aS'honey'
p73
aS'orange'
p74
aa(lp75
S'diet'
p76
aS'fat'
p77
aS'food'
p78
aS'fruit'
p79
aS'lunch'
p80
aa(lp81
S''
aS'barbecue'
p82
aS'dinner'
p83
aS'food'
p84
aS'honey'
p85
aS'orange'
p86
aa(lp87
S'food'
p88
aS'tonic'
p89
aa(lp90
S'cabbage'
p91
aS'diet'
p92
aS'dinner'
p93
aS'egg'
p94
aS'food'
p95
aS'foods'
p96
aS'ginger'
p97
aS'ham'
p98
aS'honey'
p99
aS'lunch'
p100
aS'meal'
p101
aS'pork'
p102
aS'sandwich'
p103
aS'sprite'
p104
aa(lp105
S'dessert'
p106
aS'dinner'
p107
aS'snap'
p108
aS'supper'
p109
aa(lp110
a(lp111
S'breakfast'
p112
aS'dinner'
p113
aS'food'
p114
aS'meat'
p115
aS'shake'
p116
aS'supper'
p117
aa(lp118
S'butter'
p119
aS'dessert'
p120
aS'fat'
p121
aS'food'
p122
aS'goose'
p123
aS'honey'
p124
aS'lunch'
p125
aS'macaroni'
p126
aS'salad'
p127
aS'supper'
p128
aa(lp129
S'dessert'
p130
aS'food'
p131
aS'honey'
p132
aS'pork'
p133
aa(lp134
S'dessert'
p135
aS'duck'
p136
aa(lp137
a(lp138
S'dessert'
p139
aS'fish'
p140
aS'honey'
p141
aS'lunch'
p142
aS'orange'
p143
aS'seeds'
p144
aS'supper'
p145
aS'water'
p146
aa(lp147
(lp148
S'cantaloupe'
p149
aS'chocolate broccoli'
p150
aS'egg salad'
p151
aS'ice cube'
p152
aS'lollipop'
p153
aS'tootsie roll'
p154
aa(lp155
S'brownie'
p156
aS'butter bread'
p157
aS'coke'
p158
aa(lp159
S'skim milk'
p160
aa(lp161
S'cotton candy'
p162
aS'french fries'
p163
aS'pepsi'
p164
aa(lp165
S'brown bread'
p166
aS'concord grapes'
p167
aS'fish cake'
p168
aS'fish cakes'
p169
aS'fish stick'
p170
aa(lp171
S'soda'
p172
aa(lp173
a(lp174
a(lp175
a(lp176
S'(to)matoes'
p177
aS'cucum(ber)'
p178
aS'diet dressing'
p179
aS'diet soda'
p180
aS'milk juice'
p181
aa(lp182
S'gum drop'
p183
aS'mcdonald'
p184
aS'quick'
p185
aa(lp186
a(lp187
S'(po)tatoes'
p188
aS'diet slice'
p189
aS'diet soda'
p190
aS'diet sprite'
p191
aS'ginger+ale'
p192
aS'koolaid'
p193
aS'nut and honey'
p194
aS'oats and bran cereal'
p195
aS'oats and honey'
p196
aS'pork chops'
p197
aS'slim fast'
p198
aS'soda'
p199
aS'sodas'
p200
aS'spice ham sandwich'
p201
aa(lp202
a(lp203
a(lp204
a(lp205
S'calzone'
p206
aS'macaroni salad'
p207
aS'pean(ut) butter'
p208
aS'peanut butter and jelly'
p209
aS'saltine crackers'
p210
aa(lp211
S'corn on the cob'
p212
aS'fudgesicle'
p213
aS'fudgesicles'
p214
aS'honey+dew'
p215
aS'pork chop'
p216
aa(lp217
S'brownies'
p218
aa(lp219
a(lp220
S'corn on the cob'
p221
aS'cucumbers'
p222
aS'ice cone'
p223
aS'tuna'
p224
aS'tuna+fish'
p225
aattRp226
.