ccopy_reg
_reconstructor
p1
(cnamedtuples
Accuracy
p2
c__builtin__
tuple
p3
(I168
I57
I72
(lp4
(lp5
S'egg'
p6
aS'fish'
p7
aS"mother's"
p8
aa(lp9
S'honey'
p10
aS'spices'
p11
aa(lp12
S'honey'
p13
aS'sunshine'
p14
aS'tea'
p15
aa(lp16
S'apple'
p17
aS'candy'
p18
aS'crackers'
p19
aS'duck'
p20
aS'vegetable'
p21
aa(lp22
S'bear'
p23
aS'bread'
p24
aS'fish'
p25
aS'grapes'
p26
aS'honey'
p27
aS'water'
p28
aa(lp29
S'duck'
p30
aS'fish'
p31
aS'meat'
p32
aS'water'
p33
aa(lp34
a(lp35
S'candy'
p36
aS'turtle'
p37
aa(lp38
S'apple'
p39
aS'duck'
p40
aS'grape'
p41
aS'honey'
p42
aa(lp43
S'diet'
p44
aS'fruit'
p45
aS'mix'
p46
aa(lp47
S'barbecue'
p48
aS'honey'
p49
aS"mcdonald's"
p50
aa(lp51
S'tonic'
p52
aa(lp53
S'cabbage'
p54
aS'diet'
p55
aS'egg'
p56
aS'ham'
p57
aS'honey'
p58
aS'pork'
p59
aS'sandwich'
p60
aS'sprite'
p61
aS"van's"
p62
aa(lp63
S'snap'
p64
aa(lp65
a(lp66
S'meat'
p67
aa(lp68
S'butter'
p69
aS'goose'
p70
aS'honey'
p71
aS'macaroni'
p72
aS'salad'
p73
aa(lp74
S'pork'
p75
aa(lp76
S'duck'
p77
aa(lp78
a(lp79
S'honey'
p80
aS'seeds'
p81
aS'water'
p82
aa(lp83
(lp84
S'cantaloupe'
p85
aS'chocolate broccoli'
p86
aS'egg salad'
p87
aS'ice cube'
p88
aS'lollipop'
p89
aS'tootsie roll'
p90
aa(lp91
S'brownie'
p92
aS'butter bread'
p93
aS'coke'
p94
aa(lp95
S'skim milk'
p96
aa(lp97
S'beers'
p98
aS'cotton candy'
p99
aS'french fries'
p100
aS'salads'
p101
aa(lp102
S'brown bread'
p103
aS'concord grapes'
p104
aS'fish cake'
p105
aS'fish cakes'
p106
aS'fish stick'
p107
aS'ice cream bar'
p108
aa(lp109
S'soda'
p110
aa(lp111
S'orange'
p112
aa(lp113
S'cupcakes'
p114
aS'hamburgers'
p115
aa(lp116
S'popsicle'
p117
aS'popsicles'
p118
aS'vitamin'
p119
aa(lp120
S'(to)matoes'
p121
aS'cucum(ber)'
p122
aS'diet dressing'
p123
aS'diet soda'
p124
aS'milk juice'
p125
aS'supper'
p126
aa(lp127
S'gum drop'
p128
aS'mcdonald'
p129
aS'quick'
p130
aa(lp131
a(lp132
S'(po)tatoes'
p133
aS'diet slice'
p134
aS'diet soda'
p135
aS'diet sprite'
p136
aS'ginger+ale'
p137
aS'koolaid'
p138
aS'milk shake'
p139
aS'nut and honey'
p140
aS'oats and bran cereal'
p141
aS'oats and honey'
p142
aS'popsicles'
p143
aS'pork chops'
p144
aS'slim fast'
p145
aS'soda'
p146
aS'sodas'
p147
aS'spice ham sandwich'
p148
aa(lp149
a(lp150
a(lp151
a(lp152
S'calzone'
p153
aS'macaroni salad'
p154
aS'pean(ut) butter'
p155
aS'peanut butter and jelly'
p156
aS'saltine crackers'
p157
aa(lp158
S'corn on the cob'
p159
aS'fudgesicle'
p160
aS'fudgesicles'
p161
aS'honey+dew'
p162
aS'ketchup'
p163
aS'popsicle'
p164
aS'pork chop'
p165
aS'porkchops'
p166
aa(lp167
S'brownies'
p168
aa(lp169
a(lp170
S'corn on the cob'
p171
aS'cucumbers'
p172
aS'ice cone'
p173
aS'popsicle'
p174
aS'tuna'
p175
aS'tuna+fish'
p176
aattRp177
.