ccopy_reg
_reconstructor
p1
(cnamedtuples
Accuracy
p2
c__builtin__
tuple
p3
(I0
I33
I4
(lp4
(lp5
S''
aS'\n'
aS' 4|'
p6
aS' hav'
p7
aS' the'
p8
aS'(.) oh '
p9
aS'.\n'
p10
aS'2|0|root 3|4|inf 4|2|x'
p11
aS'3s pr'
p12
aS'3|4|au'
p13
aS'conj|li'
p14
aS'd 7|'
p15
aS'd|will '
p16
aS'e here !\n'
p17
aS'ghs .\n'
p18
aS'j 4|3'
p19
aS'me ad'
p20
aS'n:prop|'
p21
aS'nice so'
p22
aS'obj 6|'
p23
aS'ot 2'
p24
aS'pro:su'
p25
aS'r_i_f .'
p26
aS'rel|t'
p27
aS'root 3|2|obj'
p28
aS'sub|he'
p29
aS't 5|8|subj 6'
p30
aS'toby [<'
p31
aS'|0|incroot 3'
p32
aS'|alw'
p33
aS'|jct 3|0|roo'
p34
aS'|not'
p35
aS'|wear p'
p36
aa(lp37
(lp38
S'milk'
p39
aS'sugar'
p40
aS'tea'
p41
aS'waffle'
p42
aattRp43
.