ccopy_reg
_reconstructor
p1
(cnamedtuples
Accuracy
p2
c__builtin__
tuple
p3
(I589
I382
I235
(lp4
(lp5
S'candy'
p6
aS'turtle'
p7
aS'turtles'
p8
aa(lp9
a(lp10
S'duck'
p11
aS'fish'
p12
aS'lobsters'
p13
aS'meat'
p14
aS'water'
p15
aa(lp16
S'duck'
p17
aa(lp18
S'blueberries blueberries'
p19
aS'chicken'
p20
aS'chocolate'
p21
aS'chocolate strawberry'
p22
aS'honey'
p23
aS'restaurant'
p24
aS'strawberries'
p25
aS'vanilla ice cream'
p26
aS'water'
p27
aa(lp28
S'fish'
p29
aS'gravy'
p30
aS'ham'
p31
aS'honey'
p32
aS'hot dog bun'
p33
aS'hot dog buns'
p34
aS'meat'
p35
aS'peas'
p36
aS'pepsi'
p37
aS'pineapple'
p38
aS'pork'
p39
aS'sherbert'
p40
aS'sugar'
p41
aS'water'
p42
aa(lp43
S'pepsi'
p44
aS'sesame'
p45
aS'tea'
p46
aS'water'
p47
aa(lp48
S'beans'
p49
aS'brown gravy'
p50
aS'meat'
p51
aS'water'
p52
aa(lp53
S'dip'
p54
aS'fish'
p55
aa(lp56
S'colby'
p57
aS'meat'
p58
aS'potato'
p59
aS'sauce'
p60
aS'snack'
p61
aa(lp62
S'candy'
p63
aS'ham'
p64
aS'italian bread'
p65
aS'jelly'
p66
aS'lamb'
p67
aS'potatoes'
p68
aS'water'
p69
aa(lp70
S'duck'
p71
aS'duckling'
p72
aS'ducks'
p73
aS'fruit'
p74
aS'honey'
p75
aS'polar bear'
p76
aS'snack'
p77
aS'tonic'
p78
aS'water'
p79
aa(lp80
S'bear'
p81
aS'colby'
p82
aS'figs'
p83
aS'snack'
p84
aS'water'
p85
aa(lp86
S'chicken chicken'
p87
aS'chocolate'
p88
aS'cracker'
p89
aS'cream'
p90
aS'diets'
p91
aS'gravy'
p92
aS'green beans'
p93
aS'honey'
p94
aS'ice cream cake'
p95
aS'potato'
p96
aS'ribs'
p97
aS'snack'
p98
aS'snacks'
p99
aS'steak'
p100
aS'vanilla'
p101
aS'vegetables'
p102
aa(lp103
S'bun'
p104
aS'coffee'
p105
aS'honey'
p106
aS'loaf sandwich'
p107
aS'meat'
p108
aS'rolls'
p109
aS'salad'
p110
aS'tea'
p111
aS'water'
p112
aa(lp113
S'cheese'
p114
aS'orange'
p115
aS'pickle'
p116
aS'turtle'
p117
aS'turtles'
p118
aa(lp119
S'catsup'
p120
aS'coffee'
p121
aS'duck'
p122
aS'egg'
p123
aS'ham'
p124
aS'honey'
p125
aS'meat'
p126
aS'milk'
p127
aS'mix'
p128
aS'onion rings'
p129
aS'roast'
p130
aS'sherbet'
p131
aS'water'
p132
aS'yolk'
p133
aa(lp134
S'bear'
p135
aS'cheese'
p136
aS'cheese toast'
p137
aS'coloring'
p138
aS'garlic bread'
p139
aS'gums'
p140
aS'honey'
p141
aS'rolls'
p142
aS'tea'
p143
aa(lp144
S'catsup'
p145
aS'ham'
p146
aa(lp147
S'cake'
p148
aS'juice'
p149
aS'meat'
p150
aS'pizza'
p151
aS'squash'
p152
aS'water'
p153
aa(lp154
S'balsamic'
p155
aS'bleu'
p156
aS'blue cheese'
p157
aS'carrot'
p158
aS'honey'
p159
aS'mousse'
p160
aS'olive oil'
p161
aS'owl'
p162
aS'peas'
p163
aS'tomatoes'
p164
aS'turtle'
p165
aS'vinegar'
p166
aa(lp167
S'chicken'
p168
aS'chocolate'
p169
aS'coloring'
p170
aS'fish'
p171
aS'meat'
p172
aS'salad'
p173
aS'sesame'
p174
aS'steak'
p175
aS'tomato'
p176
aS'tomato sauce'
p177
aS'water'
p178
aa(lp179
S'broth'
p180
aS'brunch'
p181
aS'butterscotch candy'
p182
aS'carrots'
p183
aS'cheese'
p184
aS'honey'
p185
aS'meat'
p186
aS'mush'
p187
aS'noodle'
p188
aS'onion soup mix'
p189
aS'peas'
p190
aS'pepper'
p191
aS'salt'
p192
aS'soup'
p193
aS'sugar'
p194
aS'vegetables'
p195
aS'water'
p196
aa(lp197
S'chocolate cake'
p198
aS'coloring'
p199
aS'duck'
p200
aS'ducks'
p201
aS'ice cream'
p202
aS'seeds'
p203
aS'vanilla cake'
p204
aS'water'
p205
aS'yellow cake'
p206
aa(lp207
S'cookies'
p208
aS'diet'
p209
aS'honey'
p210
aS'meat'
p211
aS'milk honey'
p212
aS'potatoes'
p213
aS'seal'
p214
aS'seals'
p215
aS'turtles'
p216
aS'water'
p217
aa(lp218
S'bread'
p219
aS'bun'
p220
aS'chickens'
p221
aS'cookies'
p222
aS'diet'
p223
aS'diets'
p224
aS'duck'
p225
aS'mix'
p226
aS'restaurant'
p227
aS'snack'
p228
aS'water'
p229
aa(lp230
S'cherries'
p231
aS'pepper'
p232
aS'pepsi'
p233
aS'salt honey'
p234
aS'sesame'
p235
aS'snack'
p236
aa(lp237
S'cheese'
p238
aS'duck'
p239
aS'meat'
p240
aS'tea'
p241
aS'turtle'
p242
aS'turtles'
p243
aS'water'
p244
aS'waters'
p245
aa(lp246
S'apple'
p247
aS'banquet'
p248
aS'chocolate'
p249
aS'coloring'
p250
aS'gravy'
p251
aS'onions'
p252
aS'turtle'
p253
aS'turtles'
p254
aa(lp255
S'butter'
p256
aS'candy'
p257
aS'diet'
p258
aS'ducks'
p259
aS'goose'
p260
aS'honey'
p261
aS'mashed potatoes'
p262
aS'meat'
p263
aS'potatoes'
p264
aS'sauce'
p265
aS'tea'
p266
aS'water'
p267
aa(lp268
S'alcohol'
p269
aS'beers'
p270
aS'cheese'
p271
aS'chicken'
p272
aS'chocolate'
p273
aS'concoction'
p274
aS'ice cream'
p275
aS'jelly'
p276
aS'kidney'
p277
aS'macaroni'
p278
aS'mashed potatoes'
p279
aS'meat'
p280
aS'meat chili'
p281
aS'orange juice'
p282
aS'pepper'
p283
aS'potatoes'
p284
aa(lp285
S'candy'
p286
aS'greens'
p287
aS'honey'
p288
aS'raisin'
p289
aS'snack'
p290
aS'sour cream'
p291
aS'water'
p292
aa(lp293
S'apple'
p294
aS'bean'
p295
aS'berry'
p296
aS'candy'
p297
aS'jelly sandwich'
p298
aS'juice'
p299
aS'meat'
p300
aS'paprika'
p301
aS'pepper'
p302
aS'rolls'
p303
aS'water'
p304
aa(lp305
S'bear'
p306
aS'bears'
p307
aS'bread loaf'
p308
aS'bread mix'
p309
aS'cheese'
p310
aS'honey'
p311
aS'meat'
p312
aS'mix'
p313
aS'snacks'
p314
aa(lp315
S'meat'
p316
aa(lp317
S'alcohol'
p318
aS'apple juice'
p319
aS'bread honey'
p320
aS'burger kings'
p321
aS'cheese'
p322
aS'cinnamon'
p323
aS'honey'
p324
aS'jelly'
p325
aS'lamb'
p326
aS'oil'
p327
aS'pepper'
p328
aS'salt'
p329
aS'turkey'
p330
aa(lp331
S'honey'
p332
aS'pepsi'
p333
aS'salt'
p334
aS'salt honey'
p335
aS'shake'
p336
aS'water'
p337
aa(lp338
S'chuck'
p339
aS'dumpling'
p340
aS'garlic'
p341
aS'meat'
p342
aS'peas'
p343
aS'peppers'
p344
aS'red beans'
p345
aS'rolls'
p346
aS'vegetables'
p347
aS'water'
p348
aa(lp349
S'fish'
p350
aS'meat'
p351
aS'potato'
p352
aS'potatoes'
p353
aS'salt'
p354
aS'spaghettios'
p355
aS'water'
p356
aa(lp357
S'bean'
p358
aS'carrots'
p359
aS'chinese restaurant'
p360
aS'honey'
p361
aS'kraft macaroni'
p362
aS'macaroni'
p363
aS'sauce'
p364
aS'tonic'
p365
aS'turtles'
p366
aS'white rice'
p367
aa(lp368
S'champagne'
p369
aS'cherries'
p370
aS'meat'
p371
aS'pepsi'
p372
aS'pineapple juice'
p373
aS'raspberries'
p374
aS'tomatoes'
p375
aS'water'
p376
aa(lp377
S'cake'
p378
aS'cakes'
p379
aS'honey'
p380
aS'pancake mix'
p381
aa(lp382
S'banana'
p383
aS'candy'
p384
aS'chicken kabob'
p385
aS'farina'
p386
aS'gums'
p387
aS'honey'
p388
aS'semolina'
p389
aS'snack'
p390
aS'strawberry'
p391
aS'tamales'
p392
aa(lp393
S'bologna'
p394
aS'bun'
p395
aS'cheese'
p396
aS'chicken'
p397
aS'cola'
p398
aS'fish'
p399
aS'fried chicken'
p400
aS'fruit'
p401
aS'hamburger'
p402
aS'honey'
p403
aS'milk'
p404
aS'patty'
p405
aS'pepperoni honey'
p406
aS'pizza pizza'
p407
aS'pudding'
p408
aS'salad'
p409
aS'school lunch'
p410
aS'snack'
p411
aS'squirrel'
p412
aS'toppings'
p413
aa(lp414
S'beef'
p415
aS'cola'
p416
aS'fish'
p417
aS'ham honey'
p418
aS'potatoes'
p419
aS'strawberries'
p420
aS'water'
p421
aa(lp422
S'cheese'
p423
aS'macaroni'
p424
aS'meat'
p425
aa(lp426
S'beef'
p427
aS'candy'
p428
aS'jellies'
p429
aS'school lunch'
p430
aS'snack'
p431
aS'turtle'
p432
aS'water'
p433
aa(lp434
(lp435
a(lp436
S'sandwiches'
p437
aa(lp438
S'fat'
p439
aS'soda'
p440
aa(lp441
a(lp442
S'Chicken'
p443
aa(lp444
S'Pepsi'
p445
aS'baked fish'
p446
aS'black eyed peas'
p447
aS'brown sugar'
p448
aS'bun'
p449
aS'fried shrimp'
p450
aS'ham hock'
p451
aS'hot dog and beans'
p452
aS'popsicle'
p453
aS'pork and beans'
p454
aS'shrimp'
p455
aa(lp456
S'Pepsi'
p457
aS'orange'
p458
aa(lp459
S'gravy'
p460
aS'lemon meringue'
p461
aS'rice and beans'
p462
aa(lp463
S'cantaloupe'
p464
aS'ice cube'
p465
aS'tootsie roll'
p466
aa(lp467
S'chicky'
p468
aS'potato coins'
p469
aa(lp470
S'Italian bread'
p471
aS'jelly and bread'
p472
aa(lp473
S'pork chop'
p474
aa(lp475
S'coke'
p476
aa(lp477
S'chocolate and vanilla'
p478
aS'doughnut'
p479
aS'graham crackers?'
p480
aS'hot chi'
p481
aS'red sweet and sour sauce'
p482
aS'shrimp'
p483
aS'sweet and sour sauce'
p484
aa(lp485
S'Coke'
p486
aS'ice tea'
p487
aS'meat loaf'
p488
aS'salad dressing'
p489
aa(lp490
S'apple doughnut'
p491
aS'chips'
p492
aS'red ketchup'
p493
aa(lp494
S'orange and sherbet'
p495
aa(lp496
S'cheese puffs'
p497
aS'juices'
p498
aS'soda'
p499
aa(lp500
S'baloney'
p501
aS'french fries'
p502
aS'orange'
p503
aa(lp504
a(lp505
S'Balsamic vinegar'
p506
aS'carrot sticks'
p507
aS'french fries'
p508
aS'ice mousse'
p509
aS'ketchup'
p510
aS'virgin olive oil'
p511
aa(lp512
S'Chicken'
p513
aS'popsicle'
p514
aa(lp515
S'bread and butter'
p516
aS'macaroni and cheese'
p517
aS'salt and pepper'
p518
aa(lp519
S'white frosting'
p520
aa(lp521
S'M and M cookies'
p522
aS'Yodel'
p523
aS'coke'
p524
aS'corn on the cob'
p525
aS'diet coke'
p526
aS'mashed potato'
p527
aS'potato'
p528
aa(lp529
S'chocolate chip'
p530
aS'chocolate middle cookie'
p531
aS'ice cream sandwich'
p532
aS'koolaid'
p533
aS'upside down cake'
p534
aa(lp535
S'Coke'
p536
aS'cherry'
p537
aa(lp538
a(lp539
S'chocolate bunny'
p540
aS'egg roll'
p541
aS'gravy things'
p542
aS'green onions'
p543
aS'scallions'
p544
aa(lp545
S'diet coke'
p546
aS'hot butter'
p547
aS'ketchup'
p548
aS'mashed potat'
p549
aS'stuffing'
p550
aa(lp551
S'English beers'
p552
aS'Friendly Jubilee roll'
p553
aS'Grey poupon'
p554
aS'Guiness Killians'
p555
aS'french fry'
p556
aS'fry'
p557
aS'hot chocolate'
p558
aS'ice cream log'
p559
aS'irish beers'
p560
aS'jimmy roll'
p561
aS'jubilee roll'
p562
aS'just squeezed orange juice'
p563
aS'ketchup'
p564
aS'lentil bean'
p565
aS'macaroni and cheese'
p566
aS'mashed potato'
p567
aS'potato'
p568
aS'vegetarian chili'
p569
aa(lp570
S"Marie's sour cream and ill"
p571
aS'brownie'
p572
aS'candy canes'
p573
aS'chocolate Santas'
p574
aS'chocolate bunnies'
p575
aS'chocolate lighthouse'
p576
aS'creamy dressing'
p577
aS'dressing'
p578
aS'half and half'
p579
aS'ice cream sundae'
p580
aS'sprinkles'
p581
aa(lp582
S'Good_and_Plenty'
p583
aS'M_Ms'
p584
aS'Montilleose cake'
p585
aS'candy dish'
p586
aS'fruity Good_and_Plenty'
p587
aS'golden apple'
p588
aS'mocha cake'
p589
aS'peanut butter and jelly sandwich'
p590
aS'red crystal sugar'
p591
aS'wedding cake'
p592
aS'white sugar'
p593
aa(lp594
S'chicken nugget'
p595
aS'mini sub'
p596
aS'nut butter'
p597
aS'peanut butter sandwiches'
p598
aa(lp599
S'ice'
p600
aS'soda'
p601
aa(lp602
S'Boston creme pie'
p603
aS'Veryfine'
p604
aS'cute the cheese'
p605
aS'donut'
p606
aS'jelly donut'
p607
aS'lamb chop'
p608
aS'pork chops'
p609
aS'string beans'
p610
aS'sweet and sour pork'
p611
aa(lp612
S'cherry'
p613
aS'chicken nuggets'
p614
aS'doughnut'
p615
aS'lamb chop'
p616
aS'pig'
p617
aS'pork chop'
p618
aS'shake in bake'
p619
aS'shell'
p620
aa(lp621
S'bell pepper'
p622
aS'black eyed pea'
p623
aS'french bread'
p624
aS'popsicle'
p625
aS'sub roll'
p626
aa(lp627
S'Spaghettios'
p628
aS'fish stick'
p629
aS'french fry'
p630
aS'potato fry'
p631
aa(lp632
S'Chinese bean sprout'
p633
aS'Kraft macaroni and cheese'
p634
aS'bean sprout'
p635
aS'cheese and macaroni'
p636
aS'donuts'
p637
aS'sandwich'
p638
aS'straight carrot'
p639
aS'white rice thing'
p640
aa(lp641
S'Pepsi'
p642
aS'brownie'
p643
aS'cherry'
p644
aS'gum'
p645
aS'icing'
p646
aS'pine juice'
p647
aS'raspberry'
p648
aa(lp649
S'golden pancake'
p650
aa(lp651
S'Cherry_Bub'
p652
aS'Hot_Tamale'
p653
aS'Jolly_Ghost'
p654
aS'Lem_And_Mek'
p655
aS'Lem_And_Mem'
p656
aS'Mike_N_Ike'
p657
aS'Straw_Bana'
p658
aS'Straw_Banana'
p659
aS'Strawberry'
p660
aS'bubble gums'
p661
aS'cherry'
p662
aS'chicken kabob pepper'
p663
aS'donuts'
p664
aS'flat bread'
p665
aS'hot tamale'
p666
aS'lime'
p667
aS'orange'
p668
aS'seolina'
p669
aS'shishkebab onion'
p670
aa(lp671
S'Classic_coke'
p672
aS'Coca_Cola'
p673
aS'Coke'
p674
aS'Dutch fudge roll'
p675
aS'Kentucky fried chicken'
p676
aS'McDonalds'
p677
aS'Popeye'
p678
aS"Popeye's chicken"
p679
aS'bologna and cheese'
p680
aS'candy Christmas Tree'
p681
aS'chicken cutley'
p682
aS'fat fish on a bun'
p683
aS'fruit punch'
p684
aS'hamburger roll'
p685
aS'hot cocoa'
p686
aS'junior cold cut sub'
p687
aS'muscle milk'
p688
aS'orange'
p689
aS'patties'
p690
aS'roll'
p691
aS'soda'
p692
aS'sprinkle'
p693
aS'sub'
p694
aS'sub roll'
p695
aS'subs'
p696
aS'tuna'
p697
aS'tuna salad'
p698
aa(lp699
S'Coca_Cola'
p700
aS'Coke'
p701
aS'chips'
p702
aS'gum'
p703
aS'pork chop'
p704
aS'sourdough'
p705
aa(lp706
S'macaroni and cheese'
p707
aa(lp708
S'Big_Macs'
p709
aS'Mc_Donalds salad'
p710
aS'beff'
p711
aS'candy bar'
p712
aS'cat water'
p713
aS'chicken McNugget'
p714
aS'chip'
p715
aS'taco'
p716
aattRp717
.