(lp0
S'solutions_only_eaten/HSLLD/HV5/MT/kurmt5.cha'
p1
aS'solutions_only_eaten/HSLLD/HV5/MT/shlmt5.cha'
p2
aS'solutions_only_eaten/HSLLD/HV5/MT/davmt5.cha'
p3
aS'solutions_only_eaten/HSLLD/HV5/MT/zenmt5.cha'
p4
aS'solutions_only_eaten/HSLLD/HV5/MT/bramt5.cha'
p5
aS'solutions_only_eaten/HSLLD/HV1/MT/maymt1.cha'
p6
aS'solutions_only_eaten/HSLLD/HV1/MT/tamtp1.cha'
p7
aS'solutions_only_eaten/HSLLD/HV1/MT/zenmt1.cha'
p8
aS'solutions_only_eaten/HSLLD/HV1/MT/kurmt1.cha'
p9
aS'solutions_only_eaten/HSLLD/HV1/MT/seamt1.cha'
p10
aS'solutions_only_eaten/HSLLD/HV1/MT/vicmt1.cha'
p11
aS'solutions_only_eaten/HSLLD/HV1/MT/megmt1.cha'
p12
aS'solutions_only_eaten/HSLLD/HV2/MT/vicmt2.cha'
p13
aS'solutions_only_eaten/HSLLD/HV2/MT/ethmt2.cha'
p14
aS'solutions_only_eaten/HSLLD/HV2/MT/stnmt2.cha'
p15
aS'solutions_only_eaten/HSLLD/HV7/MT/jebmt7.cha'
p16
aS'solutions_only_eaten/HSLLD/HV7/MT/tommt7.cha'
p17
aS'solutions_only_eaten/HSLLD/HV7/MT/admmt7.cha'
p18
aS'solutions_only_eaten/HSLLD/HV7/MT/allmt7.cha'
p19
aS'solutions_only_eaten/HSLLD/HV7/MT/davmt7.cha'
p20
a.