(dp0
S'monterey'
p1
NsS'pheasant'
p2
NsS'mixed nuts'
p3
NsS'macadamia nuts'
p4
NsS'mortadella'
p5
NsS'grape juice'
p6
NsS'parmesan'
p7
NsS'morel'
p8
NsS'barbecue'
p9
NsS'milk'
p10
NsS'blueberries'
p11
NsS'clementines'
p12
NsS'pineapple juice'
p13
NsS'peanut'
p14
NsS'onion powder'
p15
NsS'gerber'
p16
NsS'dressing'
p17
NsS'cress'
p18
NsS'turnips'
p19
NsS'vanilla extract'
p20
NsS'sage'
p21
NsS'ginger ale'
p22
NsS'lard'
p23
NsS'chicken noodle soup'
p24
NsS'peach mango'
p25
NsS'ranch dressing'
p26
NsS'figs'
p27
NsS'chicken gumbo'
p28
NsS'turnip greens'
p29
NsS'limes'
p30
NsS'asparagus'
p31
NsS'edam'
p32
NsS'milk shake'
p33
NsS'pork'
p34
NsS'tea'
p35
NsS'almond'
p36
NsS'bacon'
p37
NsS'fast food'
p38
NsS'macaroni cheese'
p39
NsS'broccoli cheese'
p40
NsS'brussels sprouts'
p41
NsS'sausage'
p42
NsS'sauerkraut'
p43
NsS'tarragon'
p44
NsS'soup'
p45
NsS'applesauce'
p46
NsS'chili powder'
p47
NsS'raspberries'
p48
NsS'pate'
p49
NsS'mozzarella'
p50
NsS'vinegar'
p51
NsS'baby food'
p52
NsS'muenster'
p53
NsS'chicken liver'
p54
NsS'nopales'
p55
NsS'cinnamon'
p56
NsS'spices'
p57
NsS'vegetable oil'
p58
NsS'thousand island dressing'
p59
NsS'russian dressing'
p60
NsS'apple'
p61
NsS'soybeans'
p62
NsS'soybean'
p63
NsS'duck'
p64
NsS'lima'
p65
NsS'herring'
p66
NsS'hearts of palm'
p67
NsS'pears'
p68
NsS'crab'
p69
NsS'hot chili'
p70
NsS'cashew butter'
p71
NsS'chicken mushroom'
p72
NsS'apple juice'
p73
NsS'pork beef'
p74
NsS'chocolate'
p75
NsS'tahitian'
p76
NsS'cream soda'
p77
NsS'carissa'
p78
NsS'lemons'
p79
NsS'olive'
p80
NsS'spearmint'
p81
NsS'kashi'
p82
NsS'chicken noodle'
p83
NsS'corn pudding'
p84
NsS'broccoli cheese soup'
p85
NsS'green beans'
p86
NsS'crackers'
p87
NsS'root'
p88
NsS'ice cream sandwich'
p89
NsS'melons'
p90
NsS'hamburger'
p91
NsS'pork tenderloin'
p92
NsS'beef noodle'
p93
NsS'honey'
p94
NsS'carrot'
p95
NsS'pinto'
p96
NsS'onions'
p97
NsS'durian'
p98
NsS'savoy'
p99
NsS'collards'
p100
NsS'rhubarb'
p101
NsS'chanterelle'
p102
NsS'vegetable soup'
p103
NsS'flank'
p104
NsS'coconut water'
p105
NsS'feta'
p106
NsS'split pea soup'
p107
NsS'goat'
p108
NsS'pizza'
p109
NsS'parsnips'
p110
NsS'cardamom'
p111
NsS'thousand island'
p112
NsS'salsa'
p113
NsS'cabbage'
p114
NsS'chicken rice'
p115
NsS'tomato'
p116
NsS'nance'
p117
NsS'fungi'
p118
NsS'serrano'
p119
NsS'bacon grease'
p120
NsS'red wine'
p121
NsS'egg'
p122
NsS'turmeric'
p123
NsS'oat bran'
p124
NsS'beef sausage'
p125
NsS'nuts'
p126
NsS'roquefort'
p127
NsS'shellie'
p128
NsS'turkey ham'
p129
NsS'spaghetti sauce'
p130
NsS'cola'
p131
NsS'plantains'
p132
NsS'avocado'
p133
NsS'walnut'
p134
NsS'orange'
p135
NsS'ricotta'
p136
NsS'sauce'
p137
NsS'gizzard'
p138
NsS'coffee'
p139
NsS'pecans'
p140
NsS'blackberries'
p141
NsS'wasabi'
p142
NsS'oranges'
p143
NsS'prunes'
p144
NsS'sofrito'
p145
NsS'vegetable beef'
p146
NsS'meat'
p147
NsS'thyme'
p148
NsS'potatoes'
p149
NsS'cider'
p150
NsS'rosemary'
p151
NsS'fish'
p152
NsS'hoisin'
p153
NsS'potato salad'
p154
NsS'goose'
p155
NsS'new england clam chowder'
p156
NsS'corn flakes'
p157
NsS'chicken dumplings'
p158
NsS'ice cream'
p159
NsS'granola'
p160
NsS'italian dressing'
p161
NsS'cranberry sauce'
p162
NsS'vanilla flavor'
p163
NsS'cloves'
p164
NsS'peas carrots'
p165
NsS'fava'
p166
NsS'romano'
p167
NsS'chicken corn chowder'
p168
NsS'walnuts'
p169
NsS'salami'
p170
NsS'cookie'
p171
NsS'grapes'
p172
NsS'pine nuts'
p173
NsS'poppy seed'
p174
NsS'tomato juice'
p175
NsS'turkey bacon'
p176
NsS'slimfast'
p177
NsS'ostrich'
p178
NsS'pepperoni'
p179
NsS'provolone'
p180
NsS'garlic'
p181
NsS'cream of chicken'
p182
NsS'cheese'
p183
NsS'lettuce'
p184
NsS'cassava'
p185
NsS'sheep'
p186
NsS'spinach'
p187
NsS'bologna'
p188
NsS'brisket'
p189
NsS'almond milk'
p190
NsS'cream of mushroom'
p191
NsS'banana'
p192
NsS'butter'
p193
NsS'cereal'
p194
NsS'hazelnut'
p195
NsS'oats'
p196
NsS'grape leaves'
p197
NsS'apples'
p198
NsS'sweet potato'
p199
NsS'canadian bacon'
p200
NsS'coconut'
p201
NsS'carrots'
p202
NsS'ginger'
p203
NsS'wakame'
p204
NsS'juice'
p205
NsS'lemon juice'
p206
NsS'farina'
p207
NsS'poppyseed'
p208
NsS'coconut cream'
p209
NsS'arrowhead'
p210
NsS'turkey breast'
p211
NsS'zucchini'
p212
NsS'coconut milk'
p213
NsS'pretzels'
p214
NsS'salmon'
p215
NsS'orange peel'
p216
NsS'mace'
p217
NsS'shallots'
p218
NsS'potato soup'
p219
NsS'watercress'
p220
NsS'chard'
p221
NsS'oyster'
p222
NsS'ice cream cookie sandwich'
p223
NsS'vegetable beef soup'
p224
NsS'beets'
p225
NsS'hot dog'
p226
NsS'pineapple'
p227
NsS'radicchio'
p228
NsS'wine'
p229
NsS'pomegranates'
p230
NsS'polish sausage'
p231
NsS'peaches'
p232
NsS'fennel'
p233
NsS'seaweed'
p234
NsS'chicken'
p235
NsS'snack'
p236
NsS'roselle'
p237
NsS'gourd'
p238
NsS'hash brown'
p239
NsS'celery'
p240
NsS'colby'
p241
NsS'honey mustard'
p242
NsS'rice'
p243
NsS'plums'
p244
NsS'pumpkin'
p245
NsS'green leaf'
p246
NsS'pastrami'
p247
NsS'gruyere'
p248
NsS'mung'
p249
NsS'honey mustard dressing'
p250
NsS'chocolate syrup'
p251
NsS'watermelon'
p252
NsS'breast'
p253
NsS'emu'
p254
NsS'cheshire'
p255
NsS'nutmeg'
p256
NsS'sour cream'
p257
NsS'ice cream cone'
p258
NsS'lemonade'
p259
NsS'capers'
p260
NsS'gouda'
p261
NsS'honeydew'
p262
NsS'ancho'
p263
NsS'strawberry'
p264
NsS'icecream'
p265
NsS'yogurt'
p266
NsS'potato wedges'
p267
NsS'edamame'
p268
NsS'cauliflower'
p269
NsS'dates'
p270
NsS'eggnog'
p271
NsS'orange juice'
p272
NsS'cheese spread'
p273
NsS'succotash'
p274
NsS'cream of broccoli soup'
p275
NsS'eggplant'
p276
NsS'chorizo'
p277
NsS'limeade'
p278
NsS'energy drink'
p279
NsS'clam chowder'
p280
NsS'mustard seed'
p281
NsS'arugula'
p282
NsS'chicken roll'
p283
NsS'poi'
p284
NsS'orange drink'
p285
NsS'turkey'
p286
NsS'olives'
p287
NsS'beef'
p288
NsS'shiitake'
p289
NsS'parsley'
p290
NsS'shortening'
p291
NsS'yam'
p292
NsS'buttermilk'
p293
NsS'beer'
p294
NsS'cherries'
p295
NsS'chicken rice soup'
p296
NsS'peppers'
p297
NsS'kelp'
p298
NsS'worcestershire'
p299
NsS'ravioli'
p300
NsS'sprite'
p301
NsS'mushroom'
p302
NsS'squash'
p303
NsS'lima beans'
p304
NsS'liver'
p305
NsS'portabella'
p306
NsS'chili'
p307
NsS'fruit cocktail'
p308
NsS'whiskey sour'
p309
NsS'french onion soup'
p310
NsS'vanilla'
p311
NsS'fontina'
p312
NsS'onion rings'
p313
NsS'potato pancakes'
p314
NsS'shake'
p315
NsS'scrapple'
p316
NsS'cereals'
p317
NsS'chicken patty'
p318
NsS'strawberry banana'
p319
NsS'almond butter'
p320
NsS'quail'
p321
NsS'rib'
p322
NsS'cream of chicken soup'
p323
NsS'chestnuts'
p324
NsS'cream of mushroom soup'
p325
NsS'apricots'
p326
NsS'vegetable'
p327
NsS'tomatoes'
p328
NsS'oil'
p329
NsS'papaya'
p330
NsS'fruit'
p331
NsS'cucumber'
p332
NsS'daiquiri'
p333
NsS'pimento'
p334
NsS'chocolate powder'
p335
NsS'cocoa mix'
p336
NsS'pork sausage'
p337
NsS'broccoli'
p338
NsS'poultry'
p339
NsS'cocoa butter'
p340
NsS'beef broth'
p341
NsS'veal'
p342
NsS'dark meat'
p343
NsS'kale'
p344
NsS'cheddar'
p345
NsS'carrot juice'
p346
NsS'margarine'
p347
NsS'ham'
p348
NsS'sunflower'
p349
NsS'ice cream bar'
p350
NsS'grapefruit'
p351
NsS'nectarines'
p352
NsS'cranberries'
p353
NsS'snap'
p354
NsS'head cheese'
p355
NsS'teriyaki'
p356
NsS'creamy tomato soup'
p357
NsS'jackfruit'
p358
NsS'chives'
p359
NsS'chicken broth'
p360
NsS'endive'
p361
NsS'lemon peel'
p362
NsS'kellogg'
p363
NsS'shoulder'
p364
NsS'onion'
p365
NsS'chicken noodles soup'
p366
NsS'oxtail'
p367
NsS'pumpkin pie spice'
p368
NsS'beef noodle soup'
p369
NsS'pina colada'
p370
NsS'oregano'
p371
NsS'gravy'
p372
NsS'yolk'
p373
NsS'almonds'
p374
NsS'palm'
p375
NsS'cheese product'
p376
NsS'pickles'
p377
NsS'grape soda'
p378
NsS'lentils'
p379
NsS'okra'
p380
NsS'jalapeno'
p381
NsS'pomegranate juice'
p382
NsS'root beer'
p383
NsS'beef stroganoff'
p384
NsS'jujube'
p385
NsS'pea'
p386
NsS'pepper'
p387
NsS'wheat'
p388
NsS'corn'
p389
NsS'pasta'
p390
NsS'beef pork'
p391
NsS'breaded'
p392
NsS'minestrone soup'
p393
NsS'butternuts'
p394
NsS'plum'
p395
NsS'cheese sauce'
p396
NsS'black bean'
p397
NsS'beans'
p398
NsS'balsamic'
p399
NsS'tenderloin'
p400
NsS'artichokes'
p401
NsS'loin'
p402
NsS'mangos'
p403
NsS'kielbasa'
p404
NsS'leeks'
p405
NsS'sardine'
p406
NsS'grapefruit juice'
p407
NsS'ginger root'
p408
NsS'vegetables'
p409
NsS'top sirloin'
p410
NsS'gazpacho'
p411
NsS'avocados'
p412
NsS'tomato bisque'
p413
NsS'cheese food'
p414
NsS'raisins'
p415
NsS'salad dressing'
p416
NsS'basil'
p417
NsS'strawberries'
p418
NsS'bratwurst'
p419
NsS'spirulina'
p420
NsS'peppermint'
p421
NsS'paprika'
p422
NsS'nestle'
p423
NsS'tangerines'
p424
NsS'escarole'
p425
NsS'pork chicken'
p426
NsS'russet'
p427
NsS'kidney'
p428
NsS'cream'
p429
NsS'taro'
p430
NsS'dulce de leche'
p431
NsS'ground turkey'
p432
NsS'saffron'
p433
NsS'oat'
p434
NsS'mayonnaise'
p435
NsS'whey'
p436
NsS'tart'
p437
NsS'lime juice'
p438
NsS'chia seeds'
p439
NsS'tomato soup'
p440
NsS'mustard'
p441
NsS'peas'
p442
NsS'sesame'
p443
NsS'tequila sunrise'
p444
NsS'chicken vegetable'
p445
NsS'ramen noodle'
p446
NsS'rib eye'
p447
NsS'chicken breast'
p448
NsS'red bull'
p449
NsS'radishes'
p450
NsS'persimmons'
p451
NsS'fruit salad'
p452
NsS'potato'
p453
NsS'mustard greens'
p454
NsS'scotch'
p455
NsS'soft serve'
p456
NsS'sesame seeds'
p457
NsS'chocolate covered'
p458
NsS'turkey sausage'
p459
NsS'cream of wheat'
p460
NsS'pods'
p461
Ns.