(dp0
S'monterey'
p1
NsS'pheasant'
p2
NsS'mixed nuts'
p3
NsS'macadamia nuts'
p4
NsS'mortadella'
p5
NsS'grape juice'
p6
NsS'parmesan'
p7
NsS'morel'
p8
NsS'barbecue'
p9
NsS'milk'
p10
NsS'blueberries'
p11
NsS'clementines'
p12
NsS'pineapple juice'
p13
NsS'peanut'
p14
NsS'onion powder'
p15
NsS'gerber'
p16
NsS'cress'
p17
NsS'turnips'
p18
NsS'vanilla extract'
p19
NsS'ginger ale'
p20
NsS'chicken noodle soup'
p21
NsS'peach mango'
p22
NsS'ranch dressing'
p23
NsS'figs'
p24
NsS'chicken gumbo'
p25
NsS'turnip greens'
p26
NsS'limes'
p27
NsS'asparagus'
p28
NsS'edam'
p29
NsS'milk shake'
p30
NsS'pork'
p31
NsS'tea'
p32
NsS'almond'
p33
NsS'bacon'
p34
NsS'fast food'
p35
NsS'macaroni cheese'
p36
NsS'broccoli cheese'
p37
NsS'brussels sprouts'
p38
NsS'sausage'
p39
NsS'sauerkraut'
p40
NsS'tarragon'
p41
NsS'soup'
p42
NsS'applesauce'
p43
NsS'chili powder'
p44
NsS'raspberries'
p45
NsS'pate'
p46
NsS'mozzarella'
p47
NsS'vinegar'
p48
NsS'baby food'
p49
NsS'muenster'
p50
NsS'chicken liver'
p51
NsS'nopales'
p52
NsS'cinnamon'
p53
NsS'spices'
p54
NsS'vegetable oil'
p55
NsS'thousand island dressing'
p56
NsS'russian dressing'
p57
NsS'soybeans'
p58
NsS'soybean'
p59
NsS'lima'
p60
NsS'herring'
p61
NsS'hearts of palm'
p62
NsS'pears'
p63
NsS'crab'
p64
NsS'hot chili'
p65
NsS'cashew butter'
p66
NsS'chicken mushroom'
p67
NsS'apple juice'
p68
NsS'pork beef'
p69
NsS'chocolate'
p70
NsS'tahitian'
p71
NsS'cream soda'
p72
NsS'carissa'
p73
NsS'lemons'
p74
NsS'olive'
p75
NsS'spearmint'
p76
NsS'kashi'
p77
NsS'chicken noodle'
p78
NsS'corn pudding'
p79
NsS'broccoli cheese soup'
p80
NsS'green beans'
p81
NsS'crackers'
p82
NsS'root'
p83
NsS'ice cream sandwich'
p84
NsS'melons'
p85
NsS'hamburger'
p86
NsS'pork tenderloin'
p87
NsS'beef noodle'
p88
NsS'carrot'
p89
NsS'onions'
p90
NsS'durian'
p91
NsS'savoy'
p92
NsS'collards'
p93
NsS'rhubarb'
p94
NsS'chanterelle'
p95
NsS'vegetable soup'
p96
NsS'flank'
p97
NsS'coconut water'
p98
NsS'feta'
p99
NsS'split pea soup'
p100
NsS'goat'
p101
NsS'pizza'
p102
NsS'parsnips'
p103
NsS'cardamom'
p104
NsS'thousand island'
p105
NsS'cabbage'
p106
NsS'chicken rice'
p107
NsS'tomato'
p108
NsS'nance'
p109
NsS'serrano'
p110
NsS'bacon grease'
p111
NsS'red wine'
p112
NsS'egg'
p113
NsS'turmeric'
p114
NsS'oat bran'
p115
NsS'beef sausage'
p116
NsS'roquefort'
p117
NsS'shellie'
p118
NsS'turkey ham'
p119
NsS'spaghetti sauce'
p120
NsS'cola'
p121
NsS'plantains'
p122
NsS'avocado'
p123
NsS'walnut'
p124
NsS'ricotta'
p125
NsS'sauce'
p126
NsS'gizzard'
p127
NsS'coffee'
p128
NsS'pecans'
p129
NsS'blackberries'
p130
NsS'wasabi'
p131
NsS'oranges'
p132
NsS'prunes'
p133
NsS'sofrito'
p134
NsS'vegetable beef'
p135
NsS'meat'
p136
NsS'thyme'
p137
NsS'potatoes'
p138
NsS'cider'
p139
NsS'rosemary'
p140
NsS'fish'
p141
NsS'hoisin'
p142
NsS'potato salad'
p143
NsS'goose'
p144
NsS'new england clam chowder'
p145
NsS'corn flakes'
p146
NsS'chicken dumplings'
p147
NsS'ice cream'
p148
NsS'granola'
p149
NsS'italian dressing'
p150
NsS'cranberry sauce'
p151
NsS'vanilla flavor'
p152
NsS'cloves'
p153
NsS'peas carrots'
p154
NsS'fava'
p155
NsS'romano'
p156
NsS'chicken corn chowder'
p157
NsS'walnuts'
p158
NsS'salami'
p159
NsS'cookie'
p160
NsS'grapes'
p161
NsS'pine nuts'
p162
NsS'poppy seed'
p163
NsS'tomato juice'
p164
NsS'turkey bacon'
p165
NsS'slimfast'
p166
NsS'pepperoni'
p167
NsS'provolone'
p168
NsS'garlic'
p169
NsS'cream of chicken'
p170
NsS'cheese'
p171
NsS'lettuce'
p172
NsS'sheep'
p173
NsS'spinach'
p174
NsS'bologna'
p175
NsS'brisket'
p176
NsS'almond milk'
p177
NsS'cream of mushroom'
p178
NsS'banana'
p179
NsS'butter'
p180
NsS'cereal'
p181
NsS'hazelnut'
p182
NsS'oats'
p183
NsS'grape leaves'
p184
NsS'apples'
p185
NsS'sweet potato'
p186
NsS'canadian bacon'
p187
NsS'coconut'
p188
NsS'carrots'
p189
NsS'ginger'
p190
NsS'wakame'
p191
NsS'juice'
p192
NsS'lemon juice'
p193
NsS'farina'
p194
NsS'coconut cream'
p195
NsS'turkey breast'
p196
NsS'zucchini'
p197
NsS'coconut milk'
p198
NsS'pretzels'
p199
NsS'salmon'
p200
NsS'orange peel'
p201
NsS'mace'
p202
NsS'shallots'
p203
NsS'potato soup'
p204
NsS'watercress'
p205
NsS'chard'
p206
NsS'oyster'
p207
NsS'ice cream cookie sandwich'
p208
NsS'vegetable beef soup'
p209
NsS'beets'
p210
NsS'hot dog'
p211
NsS'pineapple'
p212
NsS'radicchio'
p213
NsS'wine'
p214
NsS'pomegranates'
p215
NsS'polish sausage'
p216
NsS'peaches'
p217
NsS'fennel'
p218
NsS'chicken'
p219
NsS'snack'
p220
NsS'roselle'
p221
NsS'gourd'
p222
NsS'hash brown'
p223
NsS'celery'
p224
NsS'colby'
p225
NsS'honey mustard'
p226
NsS'rice'
p227
NsS'plums'
p228
NsS'pumpkin'
p229
NsS'green leaf'
p230
NsS'pastrami'
p231
NsS'gruyere'
p232
NsS'mung'
p233
NsS'honey mustard dressing'
p234
NsS'chocolate syrup'
p235
NsS'watermelon'
p236
NsS'cheshire'
p237
NsS'nutmeg'
p238
NsS'sour cream'
p239
NsS'ice cream cone'
p240
NsS'lemonade'
p241
NsS'capers'
p242
NsS'gouda'
p243
NsS'honeydew'
p244
NsS'ancho'
p245
NsS'strawberry'
p246
NsS'icecream'
p247
NsS'yogurt'
p248
NsS'potato wedges'
p249
NsS'edamame'
p250
NsS'cauliflower'
p251
NsS'eggnog'
p252
NsS'orange juice'
p253
NsS'cheese spread'
p254
NsS'succotash'
p255
NsS'cream of broccoli soup'
p256
NsS'eggplant'
p257
NsS'chorizo'
p258
NsS'limeade'
p259
NsS'energy drink'
p260
NsS'clam chowder'
p261
NsS'mustard seed'
p262
NsS'arugula'
p263
NsS'chicken roll'
p264
NsS'orange drink'
p265
NsS'turkey'
p266
NsS'olives'
p267
NsS'beef'
p268
NsS'shiitake'
p269
NsS'parsley'
p270
NsS'shortening'
p271
NsS'yam'
p272
NsS'buttermilk'
p273
NsS'beer'
p274
NsS'cherries'
p275
NsS'chicken rice soup'
p276
NsS'peppers'
p277
NsS'kelp'
p278
NsS'worcestershire'
p279
NsS'ravioli'
p280
NsS'sprite'
p281
NsS'mushroom'
p282
NsS'squash'
p283
NsS'lima beans'
p284
NsS'portabella'
p285
NsS'chili'
p286
NsS'fruit cocktail'
p287
NsS'whiskey sour'
p288
NsS'french onion soup'
p289
NsS'vanilla'
p290
NsS'fontina'
p291
NsS'onion rings'
p292
NsS'potato pancakes'
p293
NsS'scrapple'
p294
NsS'cereals'
p295
NsS'chicken patty'
p296
NsS'strawberry banana'
p297
NsS'almond butter'
p298
NsS'quail'
p299
NsS'rib'
p300
NsS'cream of chicken soup'
p301
NsS'chestnuts'
p302
NsS'cream of mushroom soup'
p303
NsS'apricots'
p304
NsS'vegetable'
p305
NsS'tomatoes'
p306
NsS'papaya'
p307
NsS'fruit'
p308
NsS'cucumber'
p309
NsS'daiquiri'
p310
NsS'pimento'
p311
NsS'chocolate powder'
p312
NsS'cocoa mix'
p313
NsS'pork sausage'
p314
NsS'broccoli'
p315
NsS'poultry'
p316
NsS'cocoa butter'
p317
NsS'beef broth'
p318
NsS'veal'
p319
NsS'dark meat'
p320
NsS'kale'
p321
NsS'cheddar'
p322
NsS'carrot juice'
p323
NsS'margarine'
p324
NsS'ham'
p325
NsS'sunflower'
p326
NsS'ice cream bar'
p327
NsS'grapefruit'
p328
NsS'nectarines'
p329
NsS'cranberries'
p330
NsS'head cheese'
p331
NsS'teriyaki'
p332
NsS'creamy tomato soup'
p333
NsS'jackfruit'
p334
NsS'chives'
p335
NsS'chicken broth'
p336
NsS'endive'
p337
NsS'lemon peel'
p338
NsS'kellogg'
p339
NsS'shoulder'
p340
NsS'chicken noodles soup'
p341
NsS'oxtail'
p342
NsS'pumpkin pie spice'
p343
NsS'beef noodle soup'
p344
NsS'pina colada'
p345
NsS'oregano'
p346
NsS'gravy'
p347
NsS'yolk'
p348
NsS'almonds'
p349
NsS'cheese product'
p350
NsS'pickles'
p351
NsS'grape soda'
p352
NsS'lentils'
p353
NsS'okra'
p354
NsS'jalapeno'
p355
NsS'pomegranate juice'
p356
NsS'root beer'
p357
NsS'beef stroganoff'
p358
NsS'jujube'
p359
NsS'pea'
p360
NsS'pepper'
p361
NsS'wheat'
p362
NsS'corn'
p363
NsS'pasta'
p364
NsS'beef pork'
p365
NsS'breaded'
p366
NsS'minestrone soup'
p367
NsS'butternuts'
p368
NsS'plum'
p369
NsS'cheese sauce'
p370
NsS'black bean'
p371
NsS'beans'
p372
NsS'balsamic'
p373
NsS'tenderloin'
p374
NsS'artichokes'
p375
NsS'loin'
p376
NsS'mangos'
p377
NsS'kielbasa'
p378
NsS'leeks'
p379
NsS'sardine'
p380
NsS'grapefruit juice'
p381
NsS'ginger root'
p382
NsS'vegetables'
p383
NsS'top sirloin'
p384
NsS'gazpacho'
p385
NsS'avocados'
p386
NsS'tomato bisque'
p387
NsS'cheese food'
p388
NsS'raisins'
p389
NsS'salad dressing'
p390
NsS'basil'
p391
NsS'strawberries'
p392
NsS'bratwurst'
p393
NsS'spirulina'
p394
NsS'peppermint'
p395
NsS'paprika'
p396
NsS'nestle'
p397
NsS'tangerines'
p398
NsS'escarole'
p399
NsS'pork chicken'
p400
NsS'russet'
p401
NsS'kidney'
p402
NsS'taro'
p403
NsS'dulce de leche'
p404
NsS'ground turkey'
p405
NsS'saffron'
p406
NsS'oat'
p407
NsS'mayonnaise'
p408
NsS'whey'
p409
NsS'tart'
p410
NsS'lime juice'
p411
NsS'chia seeds'
p412
NsS'tomato soup'
p413
NsS'mustard'
p414
NsS'peas'
p415
NsS'sesame'
p416
NsS'tequila sunrise'
p417
NsS'chicken vegetable'
p418
NsS'ramen noodle'
p419
NsS'rib eye'
p420
NsS'chicken breast'
p421
NsS'red bull'
p422
NsS'radishes'
p423
NsS'persimmons'
p424
NsS'fruit salad'
p425
NsS'potato'
p426
NsS'mustard greens'
p427
NsS'scotch'
p428
NsS'soft serve'
p429
NsS'sesame seeds'
p430
NsS'chocolate covered'
p431
NsS'turkey sausage'
p432
NsS'cream of wheat'
p433
Ns.