c__builtin__
set
p0
((lp1
Vsage
p2
aVCoca Cola
p3
aVbooze
p4
aVdough
p5
aVdish
p6
aVchicken
p7
aVmilk
p8
aVapple
p9
aVtoast
p10
aVsnack
p11
aVslop
p12
aVham
p13
aVavocado
p14
aVsugar
p15
aVvitamin C
p16
aVhay
p17
aVjam
p18
aVhardtack
p19
aVvitamin E
p20
aVsowbelly
p21
aVmelon
p22
aVbourbon
p23
aVrice
p24
aVsauce
p25
aVtoffee
p26
aVhardbake
p27
aVcoffee
p28
aVmixture
p29
aVprovisions
p30
aVfood
p31
aVflour
p32
aVblowfish
p33
aVcreep feed
p34
aVlunch
p35
aVbean
p36
aVblack olive
p37
aVbartlett pear
p38
aVapplejack
p39
aVbitters
p40
aVbread
p41
aVcrisp
p42
aVmeat
p43
aVgreens
p44
aVchuck
p45
aVcandy
p46
aVpea
p47
aVblackberry
p48
aVsteak
p49
aVmeal
p50
aVpork
p51
aVtaffy
p52
aVgrain
p53
aVtea
p54
aVliquor
p55
aVlemonade
p56
aVbacon
p57
aVbathtub gin
p58
aVwaffle
p59
aVbubble gum
p60
aVmarmalade
p61
aVcurrant
p62
aVgum
p63
aVpasture
p64
aVlentil
p65
aVport
p66
aVice cream
p67
aVsausage
p68
aVmutton
p69
aVspirits
p70
aVstrawberry
p71
aVcondensed milk
p72
aVcud
p73
aVbarley
p74
aVherb
p75
aVchampagne
p76
aVbird
p77
aVsweet orange
p78
aVporterhouse
p79
aVblack bread
p80
aVdrink
p81
aVfish
p82
aVpetit dejeuner
p83
aVcorn
p84
aVration
p85
aVvitamin
p86
aVcoffee break
p87
aVdrinking water
p88
aVconcentrate
p89
aVcookie
p90
aVgrape
p91
aVfried egg
p92
aVvinegar
p93
aVbiscuit
p94
aVcorn flake
p95
aVjelly
p96
aVoatmeal
p97
aVside
p98
aVdinner
p99
aVdark bread
p100
aVberry
p101
aVeggplant
p102
aVtomato paste
p103
aVdelicacy
p104
aVpeanut butter
p105
aVfeed
p106
aVcheese
p107
aVloaf
p108
aVunleavened bread
p109
aVcitron
p110
aVice water
p111
aVbread dough
p112
aVegg
p113
aVsweet roll
p114
aVpemmican
p115
aVjava
p116
aVrutabaga
p117
aVbeef
p118
aVham and eggs
p119
aVpremix
p120
aVbeer
p121
aVgreen bean
p122
aVcorn syrup
p123
aVsoup
p124
aVbutter
p125
aVlobscuse
p126
aVmedium
p127
aVleg of lamb
p128
aVblueberry pie
p129
aVluncheon
p130
aVchocolate
p131
aVorange
p132
aVliver
p133
aVradish
p134
aVwhisky
p135
aVlobscouse
p136
aVporkchop
p137
aVsalad
p138
aVwhiskey
p139
aVpizza
p140
aVcornmeal
p141
aVsoft drink
p142
aVloaf of bread
p143
aVcoconut
p144
aVsirloin
p145
aVsushi
p146
aVpie
p147
aVsustenance
p148
aVhoney
p149
aVjuice
p150
aVScotch and soda
p151
aVbreakfast
p152
aVtidbit
p153
aVlemon
p154
aVlemon meringue pie
p155
aVrhubarb
p156
aVvintage
p157
aVthiamin
p158
aVcitrus
p159
aVdessert
p160
aVvegetable
p161
aVsherry
p162
aVvermouth
p163
aVstock
p164
aVfood for thought
p165
aVsandwich
p166
aVmess
p167
aVeggs
p168
aVnourishment
p169
aVpear
p170
aVdiet
p171
aVbrandy
p172
aVproduce
p173
aVdaiquiri
p174
aVsupper
p175
aVcabbage
p176
aValcohol
p177
aVtomato
p178
aVsardine
p179
aVloblolly
p180
aVmartini
p181
aVEnglish muffin
p182
aVriboflavin
p183
aVbeverage
p184
aVnutrient
p185
aVsalt
p186
aVB vitamin
p187
aVwine
p188
atp189
Rp190
.