(dp1
Vsweetening
p2
NsVmilt
p3
NsVblintz
p4
NsVwhiting
p5
NsVsouffle
p6
NsVmackerel
p7
NsVmalmsey
p8
NsVroe
p9
NsVmacedoine
p10
NsVcassiri
p11
NsVparmesan
p12
NsVflatbread
p13
NsVbarbecue
p14
NsVmascarpone
p15
NsVmilk
p16
NsVsimnel
p17
NsVgrape
p18
NsVcrappie
p19
NsVdumpling
p20
NsVsashimi
p21
NsVcuppa
p22
NsVpurloo
p23
NsVtournedos
p24
NsVtourtiere
p25
NsVsowbelly
p26
NsVmelon
p27
NsVale
p28
NsVdessert
p29
NsVmince
p30
NsVoffal
p31
NsVmedoc
p32
NsVlinguica
p33
NsVmargarita
p34
NsVporgy
p35
NsVbaklava
p36
NsVedam
p37
NsVratafia
p38
NsVprosciutto
p39
NsVhaggis
p40
NsVstodge
p41
NsVporterhouse
p42
NsVcolostrum
p43
NsVorzo
p44
NsVfritter
p45
NsVdolmas
p46
NsVpasty
p47
NsVpork
p48
NsVsultana
p49
NsVbock
p50
NsVtea
p51
NsVdainty
p52
NsVbacon
p53
NsVcurrant
p54
NsVmarinade
p55
NsVspaghetti
p56
NsVsoave
p57
NsVgnocchi
p58
NsVgiblet
p59
NsVhydromel
p60
NsVsausage
p61
NsVpotpie
p62
NsVsauerkraut
p63
NsVfugu
p64
NsVoatcake
p65
NsVespresso
p66
NsVjambalaya
p67
NsVfillet
p68
NsVapplesauce
p69
NsVsamosa
p70
NsVpotherb
p71
NsValbacore
p72
NsVcarbonara
p73
NsVcarp
p74
NsVgingersnap
p75
NsVnacho
p76
NsVniacin
p77
NsVaitchbone
p78
NsVtomalley
p79
NsVackee
p80
NsVchine
p81
NsVready-mix
p82
NsVpate
p83
NsVpancake
p84
NsVvegetarianism
p85
NsVmuesli
p86
NsVmozzarella
p87
NsVbonbon
p88
NsVvinegar
p89
NsVkishke
p90
NsVfrangipane
p91
NsVsalami
p92
NsVscrapple
p93
NsVstrudel
p94
NsVweizenbock
p95
NsVmuenster
p96
NsVlasagna
p97
NsVlutefisk
p98
NsVmussel
p99
NsVapple
p100
NsVcrumpet
p101
NsVradish
p102
NsVliqueur
p103
NsVpasta
p104
NsVplonk
p105
NsVbarley-sugar
p106
NsVherring
p107
NsVinositol
p108
NsVrutabaga
p109
NsVseckel
p110
NsVgreengage
p111
NsVsaveloy
p112
NsVhardtack
p113
NsVjonathan
p114
NsVbroth
p115
NsVbaba
p116
NsVsquid
p117
NsVcroquette
p118
NsVnosh-up
p119
NsVchocolate
p120
NsVcouscous
p121
NsVkipper
p122
NsVsparerib
p123
NsVbiotin
p124
NsVsorb
p125
NsVkasha
p126
NsVpot-au-feu
p127
NsVbreadstuff
p128
NsVflan
p129
NsVgherkin
p130
NsVcasserole
p131
NsVblancmange
p132
NsVlobscouse
p133
NsVespagnole
p134
NsVsalad
p135
NsVchianti
p136
NsVmostaccioli
p137
NsVmuskellunge
p138
NsVtapioca
p139
NsVscuppernong
p140
NsVsour
p141
NsVpotage
p142
NsVmeatball
p143
NsVpickle
p144
NsVvodka
p145
NsVhamburger
p146
NsVraisin
p147
NsVsoup
p148
NsVhoney
p149
NsVsugarloaf
p150
NsVmatzo
p151
NsVcappuccino
p152
NsVrollmops
p153
NsVjunket
p154
NsVscallopine
p155
NsVseedcake
p156
NsVcollards
p157
NsVbigos
p158
NsVquahaug
p159
NsVviand
p160
NsVfondant
p161
NsVconfit
p162
NsVliebfraumilch
p163
NsVquesadilla
p164
NsVcholine
p165
NsVcling
p166
NsVperishable
p167
NsVpfannkuchen
p168
NsVfudge
p169
NsVcannelloni
p170
NsVpizza
p171
NsVsandwich
p172
NsVbuffalofish
p173
NsVfirewater
p174
NsVgrog
p175
NsVproduce
p176
NsVdolphinfish
p177
NsVcabbage
p178
NsVslivovitz
p179
NsVrickey
p180
NsVabsinth
p181
NsVtomato
p182
NsVchyme
p183
NsVjawbreaker
p184
NsVclabber
p185
NsVretsina
p186
NsVhalibut
p187
NsVflavorer
p188
NsVtahini
p189
NsVmartini
p190
NsVwine
p191
NsVplaice
p192
NsVsailfish
p193
NsVbitok
p194
NsVmaraschino
p195
NsVmuffin
p196
NsVroquefort
p197
NsVkingfish
p198
NsVjulienne
p199
NsVdough
p200
NsVbaguet
p201
NsVredfish
p202
NsVbrittle
p203
NsVtutti-frutti
p204
NsVbrie
p205
NsVsunfish
p206
NsVtrifle
p207
NsVguacamole
p208
NsVavocado
p209
NsVouzo
p210
NsVlanseh
p211
NsVorangeade
p212
NsVshank
p213
NsVfastnacht
p214
NsVwish-wash
p215
NsVorange
p216
NsVricotta
p217
NsVpesto
p218
NsVsauce
p219
NsVbiryani
p220
NsVpickerel
p221
NsVcoffee
p222
NsVanisette
p223
NsVfood
p224
NsVflour
p225
NsVswordfish
p226
NsVskilly
p227
NsVcupcake
p228
NsVpopover
p229
NsVconcoction
p230
NsVbream
p231
NsVcusk
p232
NsVtrout
p233
NsVdelicatessen
p234
NsVlimpet
p235
NsVfedelline
p236
NsVcoffeecake
p237
NsVmeat
p238
NsVrisotto
p239
NsVcider
p240
NsVchuck
p241
NsVnantua
p242
NsVtimbale
p243
NsVweakfish
p244
NsVroast
p245
NsVfrittata
p246
NsVveloute
p247
NsVcornbread
p248
NsVlamb's-quarter
p249
NsVgrouse
p250
NsVsavarin
p251
NsVmetheglin
p252
NsVmacoun
p253
NsVprawn
p254
NsVadobo
p255
NsVwaffle
p256
NsVmincemeat
p257
NsVentree
p258
NsVfarfalle
p259
NsVlentil
p260
NsVamaretto
p261
NsVkahlua
p262
NsVcocktail
p263
NsVcrookneck
p264
NsVeclair
p265
NsVtiramisu
p266
NsVcongou
p267
NsVgranola
p268
NsVbarley
p269
NsVgrits
p270
NsVkummel
p271
NsVmonkfish
p272
NsVlinguine
p273
NsVscampi
p274
NsVfricassee
p275
NsVoctopus
p276
NsVtempura
p277
NsVleftovers
p278
NsVcornpone
p279
NsVkedgeree
p280
NsVlimpa
p281
NsVaioli
p282
NsVcookie
p283
NsVrugulah
p284
NsVmullet
p285
NsVkoumiss
p286
NsVlollipop
p287
NsVramekin
p288
NsVoktoberfest
p289
NsVbearnaise
p290
NsVbialy
p291
NsVcompote
p292
NsVzwieback
p293
NsVschnapps
p294
NsVtakeout
p295
NsVpudding
p296
NsVpepperoni
p297
NsValpha-tocopheral
p298
NsVpousse-cafe
p299
NsVdressing
p300
NsVhooch
p301
NsVcud
p302
NsVcrape
p303
NsVcheese
p304
NsVbrisket
p305
NsVbordelaise
p306
NsVstockfish
p307
NsVblini
p308
NsVbabka
p309
NsVtostada
p310
NsVtwinkie
p311
NsVdelicious
p312
NsVsalsa
p313
NsVteacake
p314
NsVblanc
p315
NsVconfectionery
p316
NsVbonito
p317
NsVsapsago
p318
NsVblackberry
p319
NsVschnitzel
p320
NsVgobbet
p321
NsVgenipap
p322
NsVaquavit
p323
NsVsyrup
p324
NsVlingcod
p325
NsVlarder
p326
NsVcrudites
p327
NsVslumgullion
p328
NsVvermicelli
p329
NsVpompano
p330
NsVnoodle
p331
NsVgazpacho
p332
NsVmicronutrient
p333
NsVtokay
p334
NsVpraline
p335
NsVkabob
p336
NsVlacing
p337
NsVforequarter
p338
NsVtortellini
p339
NsVknackwurst
p340
NsVprune
p341
NsVpostum
p342
NsVbreadstick
p343
NsVbitter
p344
NsVsilage
p345
NsVspareribs
p346
NsVcockle
p347
NsVrioja
p348
NsVhaddock
p349
NsVpablum
p350
NsVweizenbier
p351
NsVbloater
p352
NsVcoconut
p353
NsVcoleslaw
p354
NsVsaccharin
p355
NsVsaute
p356
NsVnegus
p357
NsVvol-au-vent
p358
NsVcheeseburger
p359
NsVjuice
p360
NsVallemande
p361
NsVsteak
p362
NsVpastry
p363
NsVdragee
p364
NsVseltzer
p365
NsVbreakfast
p366
NsVgrissino
p367
NsVsidecar
p368
NsVlimburger
p369
NsVliederkranz
p370
NsVgouda
p371
NsVcatsup
p372
NsVroux
p373
NsVscone
p374
NsVbagel
p375
NsVgateau
p376
NsVwassail
p377
NsVsquab
p378
NsVforcemeat
p379
NsVhollandaise
p380
NsVcookout
p381
NsVjimmies
p382
NsVfrumenty
p383
NsVshortbread
p384
NsVgrenadine
p385
NsVcheesecake
p386
NsVpastis
p387
NsVmultivitamin
p388
NsVcherrystone
p389
NsVbrioche
p390
NsVfriedcake
p391
NsVsambuca
p392
NsVtunaburger
p393
NsVcommissariat
p394
NsVcrayfish
p395
NsVgyro
p396
NsVseafood
p397
NsVduckling
p398
NsVflummery
p399
NsVravigote
p400
NsVmacaroon
p401
NsVbrew
p402
NsVradicchio
p403
NsVlittleneck
p404
NsVchowder
p405
NsVarmagnac
p406
NsVhake
p407
NsVtequila
p408
NsVbratwurst
p409
NsVswizzle
p410
NsVbluepoint
p411
NsVlozenge
p412
NsVcruller
p413
NsVchoc
p414
NsVchicken
p415
NsVpernod
p416
NsVtoast
p417
NsVarrack
p418
NsVcoloring
p419
NsVslop
p420
NsVshellfish
p421
NsVcolbert
p422
NsVrefreshment
p423
NsVsugar
p424
NsVchitterlings
p425
NsVjam
p426
NsVpolenta
p427
NsVchipotle
p428
NsVrice
p429
NsVhardbake
p430
NsVglogg
p431
NsVpastrami
p432
NsVchapatti
p433
NsVgruyere
p434
NsVrijsttaffel
p435
NsVappetizer
p436
NsVwildfowl
p437
NsVbean
p438
NsVmolasses
p439
NsVmousse
p440
NsVfatback
p441
NsVapplejack
p442
NsVbitters
p443
NsVchutney
p444
NsVnesselrode
p445
NsVrissole
p446
NsVprima
p447
NsVgreens
p448
NsVnutriment
p449
NsVchoc-ice
p450
NsVwhitefish
p451
NsVbrandyball
p452
NsVbannock
p453
NsVcaramel
p454
NsVpaella
p455
NsVgammon
p456
NsVstinger
p457
NsVtortilla
p458
NsVbleu
p459
NsVdarjeeling
p460
NsVbouillabaisse
p461
NsVhoneydew
p462
NsVliquor
p463
NsVlemonade
p464
NsVroughage
p465
NsVcasaba
p466
NsVmanicotti
p467
NsVterrine
p468
NsVhoecake
p469
NsVgoulash
p470
NsVladyfinger
p471
NsVkibble
p472
NsVduff
p473
NsVstrawberry
p474
NsVpinole
p475
NsVporkholt
p476
NsVcalvados
p477
NsVyogurt
p478
NsVsourball
p479
NsVchampagne
p480
NsVturbot
p481
NsVaspartame
p482
NsVflitch
p483
NsVbulgur
p484
NsVbutty
p485
NsVpemmican
p486
NsVmcintosh
p487
NsVseder
p488
NsVvitamin
p489
NsVpotluck
p490
NsVpepsi
p491
NsVsoubise
p492
NsVcoquille
p493
NsVaspic
p494
NsVsprat
p495
NsVgimlet
p496
NsVeggnog
p497
NsVtuck
p498
NsVspritzer
p499
NsVwhitebait
p500
NsVjelly
p501
NsVpretzel
p502
NsVkosher
p503
NsVhummus
p504
NsVberry
p505
NsVeggplant
p506
NsVtreacle
p507
NsVpita
p508
NsVchorizo
p509
NsVjello
p510
NsVsauerbraten
p511
NsVlimeade
p512
NsVpatty
p513
NsVloaf
p514
NsVbap
p515
NsVpottage
p516
NsVsaltine
p517
NsVwhelk
p518
NsVc-ration
p519
NsVsouvlaki
p520
NsVdietary
p521
NsVraita
p522
NsVgrist
p523
NsVmadrilene
p524
NsVpoi
p525
NsVpanfish
p526
NsVcachou
p527
NsVprofiterole
p528
NsVshortcake
p529
NsVzabaglione
p530
NsVgalantine
p531
NsVcamembert
p532
NsVforeshank
p533
NsVsirloin
p534
NsVvelveeta
p535
NsVbuttermilk
p536
NsVbeer
p537
NsVjulep
p538
NsVjerky
p539
NsVbosc
p540
NsVravioli
p541
NsVgenoise
p542
NsVheadcheese
p543
NsVchowchow
p544
NsVvarietal
p545
NsVpolony
p546
NsVweissbier
p547
NsVchili
p548
NsVstilton
p549
NsVbuttercrunch
p550
NsVblowfish
p551
NsVbeaujolais
p552
NsVsweetbread
p553
NsVscup
p554
NsVkava
p555
NsValewife
p556
NsVmouton
p557
NsVcracker
p558
NsVstreusel
p559
NsVagar
p560
NsVjohnnycake
p561
NsVaperitif
p562
NsVhalal
p563
NsVstuffing
p564
NsVcanape
p565
NsVchallah
p566
NsVsushi
p567
NsVtonic
p568
NsVsalmi
p569
NsVanchovy
p570
NsVcroaker
p571
NsVwheatflake
p572
NsVstover
p573
NsVhuitre
p574
NsVconserve
p575
NsVfeed
p576
NsVsuccotash
p577
NsVsazerac
p578
NsVtartlet
p579
NsVstayman
p580
NsVgeneric
p581
NsVvintage
p582
NsVchipolata
p583
NsVsherbert
p584
NsVcitrus
p585
NsVdubonnet
p586
NsVflageolet
p587
NsVpoteen
p588
NsVshad
p589
NsVvegetable
p590
NsVphyllo
p591
NsVentrecote
p592
NsVtorte
p593
NsVwinesap
p594
NsVmoussaka
p595
NsVfishpaste
p596
NsVsmitane
p597
NsVhaslet
p598
NsVpieplant
p599
NsVziti
p600
NsVdaiquiri
p601
NsVsupper
p602
NsVragout
p603
NsVlemon
p604
NsVparfait
p605
NsVbutter
p606
NsVrotgut
p607
NsVburrito
p608
NsVroulade
p609
NsVlunch
p610
NsVloblolly
p611
NsVantipasto
p612
NsVfordhooks
p613
NsVbiltong
p614
NsVtapenade
p615
NsVveal
p616
NsVpuree
p617
NsVcock-a-leekie
p618
NsVgrappa
p619
NsVstout
p620
NsVsouchong
p621
NsVbercy
p622
NsVkvass
p623
NsVkirsch
p624
NsVribier
p625
NsVatole
p626
NsVjellyroll
p627
NsVmargarine
p628
NsVtabbouleh
p629
NsVburgoo
p630
NsVphilter
p631
NsVham
p632
NsVbarmbrack
p633
NsVmix
p634
NsVdrambuie
p635
NsVmanzanilla
p636
NsVknish
p637
NsVhay
p638
NsVchartreuse
p639
NsVcognac
p640
NsVbanger
p641
NsVtoad-in-the-hole
p642
NsVghee
p643
NsVenchilada
p644
NsVbread
p645
NsVflatbrod
p646
NsVgroats
p647
NsVelver
p648
NsVashcake
p649
NsVrigatoni
p650
NsVmarzipan
p651
NsVpulque
p652
NsVmatelote
p653
NsVsemolina
p654
NsVsherry
p655
NsVpartridge
p656
NsVfryer
p657
NsVpearmain
p658
NsVgalliano
p659
NsVspatchcock
p660
NsVhominy
p661
NsVcouverture
p662
NsVratatouille
p663
NsVcandy
p664
NsVeel
p665
NsVlekvar
p666
NsVeatage
p667
NsVclambake
p668
NsVyquem
p669
NsVbrunch
p670
NsVtaffy
p671
NsVhyson
p672
NsVconsomme
p673
NsVgravy
p674
NsVfettuccine
p675
NsVyolk
p676
NsVmarmite
p677
NsVmarmalade
p678
NsVescargot
p679
NsVpoulette
p680
NsVfalafel
p681
NsVbutterscotch
p682
NsVsweetmeat
p683
NsVgruel
p684
NsVcatfish
p685
NsVfondue
p686
NsVcapon
p687
NsVflounder
p688
NsVsukiyaki
p689
NsVstarches
p690
NsVdemiglace
p691
NsVcomestible
p692
NsVpea
p693
NsVbisque
p694
NsVporridge
p695
NsVhindquarter
p696
NsVcrouton
p697
NsVbutterfish
p698
NsVrum
p699
NsVration
p700
NsVpirogi
p701
NsVnosh
p702
NsVscrumpy
p703
NsVcopra
p704
NsVbullshot
p705
NsVtetrazzini
p706
NsVingesta
p707
NsVborsch
p708
NsVoreo
p709
NsVbeefsteak
p710
NsVpruno
p711
NsVbiscuit
p712
NsVmarc
p713
NsVgorgonzola
p714
NsVoatmeal
p715
NsVmeal
p716
NsVdinner
p717
NsVpenuche
p718
NsVemmenthal
p719
NsVsauterne
p720
NsVgingerbread
p721
NsVcurry
p722
NsVbourguignon
p723
NsVpetfood
p724
NsVbrandysnap
p725
NsVpotato
p726
NsVmarshmallow
p727
NsVcitron
p728
NsVfricandeau
p729
NsVrockfish
p730
NsVcocoa
p731
NsVloin
p732
NsVschrod
p733
NsVoolong
p734
NsVoenomel
p735
NsVhalf-and-half
p736
NsVcustard
p737
NsVcortland
p738
NsVconfiture
p739
NsVpilsner
p740
NsVspam
p741
NsVmarsala
p742
NsVcaviar
p743
NsVhighball
p744
NsVgin
p745
NsVwindfall
p746
NsVnougat
p747
NsVfizz
p748
NsVfarina
p749
NsVmoselle
p750
NsVbluefin
p751
NsVvichyssoise
p752
NsVgumdrop
p753
NsVmarinara
p754
NsVbun
p755
NsVomelet
p756
NsVmontrachet
p757
NsVmulligatawny
p758
NsVporkchop
p759
NsVpiccalilli
p760
NsVtripe
p761
NsVamontillado
p762
NsVwhiskey
p763
NsVbouillon
p764
NsVpippin
p765
NsVcornmeal
p766
NsVlobster
p767
NsVcondiment
p768
NsVrefection
p769
NsVhash
p770
NsVtisane
p771
NsVfreestone
p772
NsVpie
p773
NsVdamson
p774
NsVspaghettini
p775
NsVcurd
p776
NsVpenne
p777
NsVmiso
p778
NsVquail
p779
NsVsmelt
p780
NsVgrouper
p781
NsVvenison
p782
NsVmayonnaise
p783
NsVtagliatelle
p784
NsVvermouth
p785
NsVpotion
p786
NsVsling
p787
NsVpear
p788
NsVdiet
p789
NsVbrandy
p790
NsVcomfit
p791
NsVvouvray
p792
NsVcabernet
p793
NsValcohol
p794
NsVsardine
p795
NsVsugarplum
p796
NsVhorsemeat
p797
NsVflatfish
p798
NsVbeverage
p799
NsVcassareep
p800
NsVhindshank
p801
NsVsplit-pea
p802
NsVcongee
p803
NsVpilaf
p804
NsVteriyaki
p805
Ns.