(dp1
Vsweetening
p2
NsVred cabbage
p3
NsVpheasant
p4
NsVbrown betty
p5
NsVmackerel
p6
NsVale
p7
NsVred delicious
p8
NsVmacedoine
p9
NsVgrape juice
p10
NsVblintz
p11
NsVparmesan
p12
NsVdish
p13
NsVmascarpone
p14
NsVgreens
p15
NsVcapon
p16
NsVniacin
p17
NsVvanilla bean
p18
NsVpuff paste
p19
NsVeggs benedict
p20
NsVsuet pudding
p21
NsVpineapple juice
p22
NsVcrappie
p23
NsVdumpling
p24
NsVsashimi
p25
NsVcarbonara
p26
NsVfried rice
p27
NsVhardtack
p28
NsVnapoleon
p29
NsVdressing
p30
NsVwhite bread
p31
NsVcress
p32
NsVlorenzo dressing
p33
NsVchop suey
p34
NsVk ration
p35
NsVdrop scone
p36
NsVpinto bean
p37
NsVmalmsey
p38
NsVsour salt
p39
NsVsieva bean
p40
NsVhead cabbage
p41
NsVperishable
p42
NsVginger ale
p43
NsVitalian dressing
p44
NsVscrewdriver
p45
NsVnoodle
p46
NsVbeet sugar
p47
NsVblackheart
p48
NsVblack olive
p49
NsVcheshire cheese
p50
NsVham hock
p51
NsVchocolate cake
p52
NsVnada daiquiri
p53
NsVturnip greens
p54
NsVstrawberry jam
p55
NsVspecial
p56
NsVparker house roll
p57
NsVbarbados gooseberry
p58
NsVbroiler
p59
NsVsea scallop
p60
NsVkidney pie
p61
NsVfruitcake
p62
NsVratafia
p63
NsVeating apple
p64
NsVlime
p65
NsVplumcot
p66
NsVprosciutto
p67
NsVhaggis
p68
NsVt-bone steak
p69
NsVsourball
p70
NsVscampi
p71
NsVdog biscuit
p72
NsVcolostrum
p73
NsVorzo
p74
NsVfritter
p75
NsVrainbow trout
p76
NsVblood meal
p77
NsVchicken marengo
p78
NsVbully beef
p79
NsVcracker
p80
NsVcrudites
p81
NsVbacon
p82
NsVpulse
p83
NsVmillet
p84
NsVtuna fish salad
p85
NsVonion bread
p86
NsVjacket potato
p87
NsVwintergreen oil
p88
NsVsoave
p89
NsVeccles cake
p90
NsVcontinental breakfast
p91
NsVspanish mackerel
p92
NsVfava bean
p93
NsVbelgian endive
p94
NsVfugu
p95
NsVnut bread
p96
NsVoatcake
p97
NsVc-ration
p98
NsVtable wine
p99
NsVburgundy
p100
NsVsalsify
p101
NsVceltuce
p102
NsVscotch egg
p103
NsVbarbecue
p104
NsVscandinavian lox
p105
NsVmushroom sauce
p106
NsValmond cookie
p107
NsValbacore
p108
NsVpancake batter
p109
NsVlitchi
p110
NsVspice cake
p111
NsVswedish rye bread
p112
NsVbusiness lunch
p113
NsVbrown bread
p114
NsVchili powder
p115
NsVraisin-nut cookie
p116
NsVherb
p117
NsVpepper steak
p118
NsVchine
p119
NsVglobe pepper
p120
NsVpate
p121
NsVapplesauce cake
p122
NsVhyssop
p123
NsVmozzarella
p124
NsVskim milk
p125
NsVseasoned salt
p126
NsVfrangipane
p127
NsVapricot bar
p128
NsVsalami
p129
NsVice-cream sundae
p130
NsVscrapple
p131
NsVchicken soup
p132
NsVboston lettuce
p133
NsVdate bread
p134
NsVrib roast
p135
NsVorange soda
p136
NsVchicken liver
p137
NsVcooking apple
p138
NsVwinter crookneck squash
p139
NsVbacon strip
p140
NsVlutefisk
p141
NsVtomato paste
p142
NsVsnow pea
p143
NsVchicken and rice
p144
NsVgumdrop
p145
NsVdairy product
p146
NsVhershey bar
p147
NsVchow mein
p148
NsVguacamole
p149
NsVbranch water
p150
NsVchicken paprika
p151
NsVrum
p152
NsVtriple sec
p153
NsVplonk
p154
NsVblush wine
p155
NsVlobster thermidor
p156
NsVpound cake
p157
NsValphabet soup
p158
NsVspoon bread
p159
NsVchinook salmon
p160
NsVpeach melba
p161
NsVlemon meringue pie
p162
NsVseckel
p163
NsVbrown rice
p164
NsVsaveloy
p165
NsVshrimp newburg
p166
NsVeaster egg
p167
NsVchef's salad
p168
NsVpenuche
p169
NsVfish stick
p170
NsVmontrachet
p171
NsVchicken sandwich
p172
NsVblueberry
p173
NsVrefection
p174
NsVhorseradish sauce
p175
NsVmush
p176
NsVdeviled egg
p177
NsVorange liqueur
p178
NsVwhite turnip
p179
NsVwestern omelet
p180
NsVsaddle of lamb
p181
NsVchampagne cup
p182
NsVoil meal
p183
NsVsausage meat
p184
NsVkipper
p185
NsVbiotin
p186
NsVbean sprout
p187
NsVloquat
p188
NsVpot-au-feu
p189
NsVflan
p190
NsVchicken taco
p191
NsVyellow squash
p192
NsVmust
p193
NsVblancmange
p194
NsVgranulated sugar
p195
NsVhog plum
p196
NsVraisin cookie
p197
NsVsouchong
p198
NsVchardonnay
p199
NsVpollack
p200
NsVmalt
p201
NsVblade
p202
NsVsplit-pea soup
p203
NsVcorn pudding
p204
NsVamontillado
p205
NsVmuskellunge
p206
NsVtapioca
p207
NsVscotch broth
p208
NsVgreen pea
p209
NsVspice cookie
p210
NsVbloody mary
p211
NsVpotage
p212
NsVzwieback
p213
NsVpanfish
p214
NsVgrated cheese
p215
NsVthousand island dressing
p216
NsVcamomile tea
p217
NsVvodka
p218
NsVhamburger
p219
NsVcochon de lait
p220
NsVpork tenderloin
p221
NsVsoup du jour
p222
NsVchicken feed
p223
NsVlobscouse
p224
NsVsugarloaf
p225
NsVsoft-shell crab
p226
NsVrefrigerator cookie
p227
NsVjunket
p228
NsVjumble
p229
NsVfish meal
p230
NsVbittersweet chocolate
p231
NsVbeef stew
p232
NsVold fashioned
p233
NsVscallopine
p234
NsVseedcake
p235
NsVdark meat
p236
NsVsalt pork
p237
NsVchuck short ribs
p238
NsVfondant
p239
NsVconfit
p240
NsVquesadilla
p241
NsVblue cheese dressing
p242
NsVchinese cabbage
p243
NsVpenne
p244
NsVcholine
p245
NsVsalt cod
p246
NsVpopover
p247
NsVnonfat dry milk
p248
NsVfudge
p249
NsVupside-down cake
p250
NsVbramley's seedling
p251
NsVwedding cake
p252
NsVpapaya juice
p253
NsVsandwich
p254
NsVtom and jerry
p255
NsVbuffalofish
p256
NsVdry vermouth
p257
NsVfirewater
p258
NsVsponge cake
p259
NsVcracked wheat
p260
NsVmolasses cookie
p261
NsVapple tart
p262
NsVfanny adams
p263
NsVsalsa
p264
NsVdom pedro
p265
NsVbean tostada
p266
NsVbeet green
p267
NsVabsinth
p268
NsVbeef tenderloin
p269
NsVfield soybean
p270
NsVveal parmesan
p271
NsVcaper sauce
p272
NsValmond extract
p273
NsVeggdrop soup
p274
NsVmustard sauce
p275
NsVilama
p276
NsVchyme
p277
NsVrisotto
p278
NsVdika bread
p279
NsVprocess cheese
p280
NsVjawbreaker
p281
NsVvitamin a
p282
NsVclabber
p283
NsVretsina
p284
NsVhalibut
p285
NsVmultivitamin
p286
NsVegg
p287
NsVoat
p288
NsVscotch woodcock
p289
NsVwine
p290
NsVplaice
p291
NsVbanger
p292
NsVbitok
p293
NsVcalves' liver
p294
NsVmaraschino
p295
NsVblack tea
p296
NsVsprout
p297
NsVapple butter
p298
NsVroquefort
p299
NsVdecaffeinated coffee
p300
NsVtortilla chip
p301
NsVfoodstuff
p302
NsVdough
p303
NsVbaguet
p304
NsVblue crab
p305
NsVredfish
p306
NsVwinter savory
p307
NsVkibble
p308
NsVtutti-frutti
p309
NsVbrie
p310
NsVbeach plum
p311
NsVpirogi
p312
NsVstuffed peppers
p313
NsVchicken cordon bleu
p314
NsVhealth food
p315
NsVfenugreek
p316
NsVpork-and-veal goulash
p317
NsVlima bean
p318
NsVdelmonico steak
p319
NsVavocado
p320
NsVmerlot
p321
NsVcracked-wheat bread
p322
NsVmedoc
p323
NsVlanseh
p324
NsVshank
p325
NsVfig
p326
NsVwish-wash
p327
NsVsavory
p328
NsVflageolet
p329
NsVpesto
p330
NsVjewish rye bread
p331
NsVkaiser roll
p332
NsVpoteen
p333
NsVpickerel
p334
NsVcoffee
p335
NsVshad
p336
NsVanisette
p337
NsVfood
p338
NsVsucker
p339
NsVcorn sugar
p340
NsVfrankfurter bun
p341
NsVonion bagel
p342
NsVrome beauty
p343
NsVcupcake
p344
NsVsalt-rising bread
p345
NsVcoffee substitute
p346
NsVsnowball
p347
NsVconcoction
p348
NsVbabka
p349
NsVbream
p350
NsVmuskmelon
p351
NsVdouble creme
p352
NsVharvey wallbanger
p353
NsVvanilla
p354
NsVsoybean meal
p355
NsVbread
p356
NsVeatage
p357
NsVcoffeecake
p358
NsVplain flour
p359
NsVmeat
p360
NsVthyme
p361
NsVfrozen pudding
p362
NsVbeef broth
p363
NsVgraham bread
p364
NsVchuck
p365
NsVsultana
p366
NsVcut of pork
p367
NsVfilling
p368
NsVsugar snap pea
p369
NsVroast
p370
NsVmilk chocolate
p371
NsVrosemary
p372
NsVside
p373
NsVcandy
p374
NsVlentil soup
p375
NsVdutch-processed cocoa
p376
NsVshepherd's pie
p377
NsVbitter chocolate
p378
NsVwinter squash
p379
NsVfinger food
p380
NsVbavarian blue
p381
NsVprawn
p382
NsVadobo
p383
NsVwaffle
p384
NsVfennel seed
p385
NsVsarsaparilla
p386
NsVanchovy pizza
p387
NsVturnip
p388
NsVpruno
p389
NsVsour bread
p390
NsVhoneycomb tripe
p391
NsVself-rising flour
p392
NsVmoussaka
p393
NsVcrepe suzette
p394
NsVviand
p395
NsVwhip
p396
NsVchicken mousse
p397
NsVhand cheese
p398
NsVperry
p399
NsVshrimp butter
p400
NsVbeef wellington
p401
NsVcondensed milk
p402
NsVskillet bread
p403
NsVvariety meat
p404
NsVanchovy sauce
p405
NsVcongou
p406
NsVgranola
p407
NsVswiss cheese
p408
NsVcranberry sauce
p409
NsVquince
p410
NsVhoney cake
p411
NsVchili vinegar
p412
NsVmarang
p413
NsVgarlic butter
p414
NsVleftovers
p415
NsVmutton chop
p416
NsVpieplant
p417
NsVcherimoya
p418
NsVgarlic chive
p419
NsVcookie
p420
NsVgreen soybean
p421
NsVjaffa orange
p422
NsVhigh-vitamin diet
p423
NsVpoppy seed
p424
NsVleaf lettuce
p425
NsVmullet
p426
NsVgreengage
p427
NsVlollipop
p428
NsVcinnamon toast
p429
NsVtabasco
p430
NsVdubonnet
p431
NsVkirsch
p432
NsVchablis
p433
NsVdip
p434
NsVegg yolk
p435
NsVvanilla ice cream
p436
NsVraisin
p437
NsVnut bar
p438
NsVtakeout
p439
NsValcohol
p440
NsVcitrange
p441
NsVdark bread
p442
NsVgoose liver
p443
NsVbologna
p444
NsVpousse-cafe
p445
NsVcucumber
p446
NsVhorseradish
p447
NsVbite
p448
NsVslivovitz
p449
NsVmiso
p450
NsVdolmas
p451
NsVescalope de veau orloff
p452
NsVporgy
p453
NsVfish mousse
p454
NsVpeanut brittle
p455
NsVpimento
p456
NsVsweet cider
p457
NsVsapsago
p458
NsVlettuce
p459
NsVfrench bread
p460
NsVdelicious
p461
NsVapple turnover
p462
NsVtamarind
p463
NsVhasty pudding
p464
NsVparfait
p465
NsVblanc
p466
NsVduck pate
p467
NsVtimothy
p468
NsVconfectionery
p469
NsVcranberry juice
p470
NsVspinach
p471
NsVguinness
p472
NsVgooseberry
p473
NsVcut of veal
p474
NsVbonito
p475
NsVlicorice
p476
NsVreuben
p477
NsVpumpkin pie
p478
NsVperiwinkle
p479
NsVchocolate fondue
p480
NsVtea
p481
NsVpottage
p482
NsVcommon bean
p483
NsVbitter
p484
NsVaqua vitae
p485
NsVkiwi
p486
NsVdanish
p487
NsVgrasshopper
p488
NsVcanary seed
p489
NsVgeneva
p490
NsVslumgullion
p491
NsVsausage roll
p492
NsVsoda cracker
p493
NsVstone crab
p494
NsVfrench loaf
p495
NsVwestern
p496
NsVcereal
p497
NsVgenipap
p498
NsVmicronutrient
p499
NsVrack of lamb
p500
NsVpraline
p501
NsVfeed grain
p502
NsVwhiting
p503
NsVaquavit
p504
NsVscarlet runner
p505
NsVcenter
p506
NsVlyonnaise sauce
p507
NsVforequarter
p508
NsVtortellini
p509
NsVpostum
p510
NsVred currant
p511
NsVrhubarb pie
p512
NsVfrench fries
p513
NsVbanana
p514
NsVculture medium
p515
NsVcheese dip
p516
NsVhamburger bun
p517
NsVlemon oil
p518
NsVsweet potato
p519
NsVbloater
p520
NsVbaba au rhum
p521
NsVcharlotte
p522
NsVbean dip
p523
NsVmunich beer
p524
NsVcoleslaw
p525
NsVyak butter
p526
NsVfordhooks
p527
NsVfast food
p528
NsVcasaba
p529
NsVginger
p530
NsVjuice
p531
NsVlemon juice
p532
NsVfreshwater fish
p533
NsVdragee
p534
NsVseltzer
p535
NsVspearmint oil
p536
NsVjunk food
p537
NsVmint
p538
NsValtar wine
p539
NsVbuckwheat cake
p540
NsVbuttermilk biscuit
p541
NsVboston cream pie
p542
NsVcanned food
p543
NsVspaghetti
p544
NsVpoached egg
p545
NsVcalifornia wine
p546
NsVrelish
p547
NsVvitamin e
p548
NsVsweet pickle
p549
NsVsalad nicoise
p550
NsVtossed salad
p551
NsVcocktail sauce
p552
NsVmombin
p553
NsVsherry
p554
NsVhollandaise
p555
NsVfrozen custard
p556
NsVseedless raisin
p557
NsVmatzo meal
p558
NsVcookout
p559
NsVsyrup
p560
NsVconsomme
p561
NsVgravy
p562
NsVplum sauce
p563
NsVpuree
p564
NsVsteak au poivre
p565
NsVflank steak
p566
NsVgrenadine
p567
NsVeater
p568
NsVrambutan
p569
NsVdog food
p570
NsVstring cheese
p571
NsVcoca cola
p572
NsVmalted milk
p573
NsVmace
p574
NsVchicken salad
p575
NsVcouscous
p576
NsVfortune cookie
p577
NsVwatercress
p578
NsVchard
p579
NsVjuniper berries
p580
NsVsemi-skimmed milk
p581
NsVcrayfish
p582
NsVdowdy
p583
NsVmoonshine
p584
NsVduckling
p585
NsVbreakfast food
p586
NsVcafe noir
p587
NsVpineapple
p588
NsVscotch
p589
NsVjug wine
p590
NsVsoul food
p591
NsVcandied citrus peel
p592
NsVgin sling
p593
NsVbell pepper
p594
NsVchowder
p595
NsVarmagnac
p596
NsVdill seed
p597
NsVroaster
p598
NsVdandelion green
p599
NsVtequila
p600
NsVsage
p601
NsVgreen tea
p602
NsVbluepoint
p603
NsVfrozen yogurt
p604
NsVfennel
p605
NsVmadeira
p606
NsVblood agar
p607
NsVcruller
p608
NsVtokay
p609
NsVcafe royale
p610
NsVespagnole
p611
NsVsugar water
p612
NsVpernod
p613
NsVmornay sauce
p614
NsVtoast
p615
NsVvitamin bc
p616
NsVdivinity
p617
NsVshellfish
p618
NsVarroz con pollo
p619
NsVchocolate pudding
p620
NsVmenu
p621
NsVquiche lorraine
p622
NsVrefreshment
p623
NsVice-cream cone
p624
NsVspaghetti and meatballs
p625
NsVcandy egg
p626
NsVpolenta
p627
NsVfrench dressing
p628
NsVchipotle
p629
NsVrice
p630
NsVraised doughnut
p631
NsVgolden delicious
p632
NsVplate
p633
NsVaitchbone
p634
NsVcappuccino
p635
NsVcardamom
p636
NsVkidney bean
p637
NsVvitamin d
p638
NsVvitamin k1
p639
NsVvitamin k3
p640
NsVrijsttaffel
p641
NsVappetizer
p642
NsVwildfowl
p643
NsVwatermelon
p644
NsVchop-suey greens
p645
NsVcollins
p646
NsVapplejack
p647
NsVfluffy omelet
p648
NsVchutney
p649
NsVchinese anise
p650
NsVprune
p651
NsVrissole
p652
NsVspanish rice
p653
NsVstring bean
p654
NsVbap
p655
NsVsmoked eel
p656
NsVcongee
p657
NsVpretzel
p658
NsVchocolate mousse
p659
NsVlamb roast
p660
NsVvitamin b2
p661
NsVbreadstick
p662
NsVpickled herring
p663
NsVvitamin b1
p664
NsVvitamin b6
p665
NsVpaella
p666
NsVfrumenty
p667
NsVstinger
p668
NsVsteak
p669
NsVamerican smelt
p670
NsVoatmeal cookie
p671
NsVbleu
p672
NsVsugarberry
p673
NsVbouillabaisse
p674
NsVsilage
p675
NsVpickle relish
p676
NsVfrijole
p677
NsVbolognese pasta sauce
p678
NsVbathtub gin
p679
NsVcalf's-foot jelly
p680
NsVmince pie
p681
NsVgalliano
p682
NsVvienna sausage
p683
NsVpork loin
p684
NsVhash
p685
NsVterrine
p686
NsVhoecake
p687
NsVgoulash
p688
NsVmeringue kiss
p689
NsVanchovy pear
p690
NsVladyfinger
p691
NsVduff
p692
NsVhaddock
p693
NsVcajan pea
p694
NsVpavlova
p695
NsVtomalley
p696
NsVporkholt
p697
NsVelderberry
p698
NsVtabbouleh
p699
NsVburgoo
p700
NsVcelery stick
p701
NsVyogurt
p702
NsVrugulah
p703
NsVshell bean
p704
NsVchampagne
p705
NsVbaked goods
p706
NsVscrag
p707
NsVmeal
p708
NsVanchovy paste
p709
NsVnasturtium
p710
NsVbulgur
p711
NsVmcintosh
p712
NsVseder
p713
NsVhigh-protein diet
p714
NsVsole
p715
NsVconcord grape
p716
NsVvitamin
p717
NsVcarrot pudding
p718
NsVdrinking water
p719
NsVescargot
p720
NsVsilver salmon
p721
NsVpepsi
p722
NsVbell apple
p723
NsVbarbecue sauce
p724
NsVforeshank
p725
NsVaspic
p726
NsVbosc
p727
NsVcos
p728
NsVspiny lobster
p729
NsVturtle soup
p730
NsVready-mix
p731
NsVsoft drink
p732
NsVloaf of bread
p733
NsVcafe au lait
p734
NsVjelly
p735
NsVsaskatoon
p736
NsVlake herring
p737
NsVhummus
p738
NsVcod
p739
NsVeggplant
p740
NsVveal roast
p741
NsVpita
p742
NsVcotton candy
p743
NsVjello
p744
NsVbran
p745
NsVtamale pie
p746
NsVpatty
p747
NsVbrittle
p748
NsVchicory escarole
p749
NsVloaf
p750
NsVchicken provencale
p751
NsVrum sling
p752
NsVbirch beer
p753
NsVsweet
p754
NsVfish stew
p755
NsVchicken broth
p756
NsVvitamin b12
p757
NsVmustard seed
p758
NsVwhelk
p759
NsVscallop
p760
NsVdietary
p761
NsVraita
p762
NsVhyson
p763
NsVmuesli
p764
NsVmarmite
p765
NsVpurple onion
p766
NsVsweet roll
p767
NsVprofiterole
p768
NsVfrozen food
p769
NsVtart
p770
NsVbeef
p771
NsVcaraway seed
p772
NsVpulasan
p773
NsVbilberry
p774
NsVparsley
p775
NsVvelveeta
p776
NsVrhine wine
p777
NsVbeer
p778
NsVgrapefruit
p779
NsVbeet
p780
NsVcanary wine
p781
NsVbasil
p782
NsVmulligatawny
p783
NsVtiramisu
p784
NsVmonosodium glutamate
p785
NsVmadrilene
p786
NsVmock turtle soup
p787
NsVmushroom
p788
NsVorange toast
p789
NsVchowchow
p790
NsVcream cheese
p791
NsVpimento butter
p792
NsVvol-au-vent
p793
NsVpolony
p794
NsVmolded salad
p795
NsVgrimes' golden
p796
NsVvintage
p797
NsVconserve
p798
NsVchili
p799
NsVanchovy dressing
p800
NsVpink lady
p801
NsVspaghetti sauce
p802
NsVlight beer
p803
NsVkumquat
p804
NsVcrab legs
p805
NsVpeach sauce
p806
NsVenglish muffin
p807
NsVflatbrod
p808
NsVdill pickle
p809
NsVmixed drink
p810
NsVgluten-free diet
p811
NsVanjou
p812
NsVgreen mayonnaise
p813
NsVfreshwater bass
p814
NsVlake trout
p815
NsVfettuccine alfredo
p816
NsVmarinade
p817
NsVhot sauce
p818
NsVbarbecued spareribs
p819
NsVclarified butter
p820
NsVsouse
p821
NsVsmorgasbord
p822
NsVcanape
p823
NsVchervil
p824
NsVsushi
p825
NsVplum pudding
p826
NsVsour mash
p827
NsVwheatflake
p828
NsVstover
p829
NsVbanana split
p830
NsVrib
p831
NsVbeef tongue
p832
NsVfeed
p833
NsVliquid diet
p834
NsVbran flake
p835
NsVpot roast
p836
NsVsalad green
p837
NsVb-complex vitamin
p838
NsVchili sauce
p839
NsVbuffalo wing
p840
NsVswiss steak
p841
NsVwhite wine
p842
NsVchipolata
p843
NsVdried fruit
p844
NsVcorn chowder
p845
NsVmother's milk
p846
NsVlobster newburg
p847
NsVstriped bass
p848
NsVsplit
p849
NsVgin and it
p850
NsVbrownie mix
p851
NsVvegetable
p852
NsVlasagna
p853
NsVcriollo
p854
NsVentrecote
p855
NsVtorte
p856
NsVwinesap
p857
NsVpapaya
p858
NsVfishpaste
p859
NsVsmitane
p860
NsVpomegranate
p861
NsVcrumb cake
p862
NsVziti
p863
NsVchocolate egg
p864
NsVagar
p865
NsVside of beef
p866
NsVriesling
p867
NsVgarlic
p868
NsVsweet vermouth
p869
NsVsupper
p870
NsVbartlett
p871
NsVtuna
p872
NsVboiled dinner
p873
NsVravigote
p874
NsVbock
p875
NsVbutter
p876
NsVwaldorf salad
p877
NsVirish stew
p878
NsVrotgut
p879
NsVspaghetti squash
p880
NsVpasta salad
p881
NsVolla podrida
p882
NsVraisin bran
p883
NsVloblolly
p884
NsVdate bar
p885
NsVmolasses kiss
p886
NsVevaporated milk
p887
NsVlimburger
p888
NsVhome brew
p889
NsVpulque
p890
NsVbibb lettuce
p891
NsVcocoa plum
p892
NsVrock cornish hen
p893
NsVhotdog
p894
NsVicing sugar
p895
NsVkale
p896
NsVsweetsop
p897
NsVcaper
p898
NsVcheddar
p899
NsVcarrot juice
p900
NsVpork and beans
p901
NsVchenin blanc
p902
NsVmarrowfat pea
p903
NsVsweet corn
p904
NsVmargarine
p905
NsVpearmain
p906
NsVtea bag
p907
NsVneck sweetbread
p908
NsVfresh bean
p909
NsVcut
p910
NsVsugar cookie
p911
NsVcorn chip
p912
NsVjulienne
p913
NsVapple pie
p914
NsVcherry
p915
NsVirish coffee
p916
NsVmanzanilla
p917
NsVhay
p918
NsVchartreuse
p919
NsVjulep
p920
NsVboard
p921
NsVturban squash
p922
NsVbalanced diet
p923
NsVenchilada
p924
NsVlow-fat milk
p925
NsVcortland
p926
NsValewife
p927
NsVcarambola
p928
NsVgroats
p929
NsVelver
p930
NsVcaramel
p931
NsVchives
p932
NsVshoofly pie
p933
NsVcold duck
p934
NsVrigatoni
p935
NsVmulligan stew
p936
NsVlemon peel
p937
NsVcreep feed
p938
NsVgame
p939
NsVtartare sauce
p940
NsVhot pepper
p941
NsVsemolina
p942
NsVrefried beans
p943
NsVpartridge
p944
NsVlow-calorie diet
p945
NsVboysenberry
p946
NsVwater biscuit
p947
NsVshoulder
p948
NsVmaple syrup
p949
NsVdewberry
p950
NsVbeef roast
p951
NsVsmoked mackerel
p952
NsVstraw wine
p953
NsVhominy
p954
NsVgarlic salt
p955
NsVacerola
p956
NsVred meat
p957
NsVshad roe
p958
NsVcooler
p959
NsVpinwheel roll
p960
NsVsnap bean
p961
NsVlekvar
p962
NsVwater-soluble vitamin
p963
NsVcinnamon bread
p964
NsVcaesar salad
p965
NsVwhite cake
p966
NsVnegus
p967
NsVdouble gloucester
p968
NsVtomatillo
p969
NsVapple fritter
p970
NsVtaffy
p971
NsVclear liquid diet
p972
NsVbaked potato
p973
NsVbitter orange
p974
NsVvirginia ham
p975
NsVhotchpotch
p976
NsVlemon drop
p977
NsVnewburg sauce
p978
NsVwater ice
p979
NsVmarmalade
p980
NsVtaco sauce
p981
NsVamarelle
p982
NsVfalafel
p983
NsVcottage pie
p984
NsVbutterscotch
p985
NsVsweetmeat
p986
NsVchocolate milk
p987
NsVsoursop
p988
NsVbrick cheese
p989
NsVonion butter
p990
NsVjerusalem artichoke
p991
NsVgruel
p992
NsVeel
p993
NsVherring
p994
NsVrock cake
p995
NsVsauce louis
p996
NsVgrape jelly
p997
NsVslop
p998
NsVpudding
p999
NsVflounder
p1000
NsVswedish meatball
p1001
NsVlemonade mix
p1002
NsVroot beer
p1003
NsVbeef stroganoff
p1004
NsVplantain
p1005
NsVdemiglace
p1006
NsVbaklava
p1007
NsVcorn whiskey
p1008
NsVpea
p1009
NsVsweet orange
p1010
NsVmescal
p1011
NsVturkey stew
p1012
NsVpower breakfast
p1013
NsVsirloin tip
p1014
NsVfish
p1015
NsVsaint emilion
p1016
NsVsalmon
p1017
NsVcorn
p1018
NsVsquash pie
p1019
NsVice milk
p1020
NsVrue
p1021
NsVzombie
p1022
NsVnosh
p1023
NsVpeach ice cream
p1024
NsVcarob
p1025
NsVmanhattan clam chowder
p1026
NsVflame tokay
p1027
NsVelixir
p1028
NsVborage
p1029
NsVgrand marnier
p1030
NsVbermuda onion
p1031
NsVorange peel
p1032
NsVwheat germ
p1033
NsVingesta
p1034
NsVborsch
p1035
NsVdeep-dish pie
p1036
NsVmuscat
p1037
NsVjaboticaba
p1038
NsVoreo
p1039
NsVbeefsteak
p1040
NsVchitterlings
p1041
NsVbrioche
p1042
NsVfruit juice
p1043
NsVslipskin grape
p1044
NsVchicken casserole
p1045
NsVcambric tea
p1046
NsVlow-fat diet
p1047
NsVoatmeal
p1048
NsVcoquille
p1049
NsVdinner
p1050
NsVblack bean
p1051
NsVclementine
p1052
NsVchocolate eclair
p1053
NsVconvenience food
p1054
NsVfood cache
p1055
NsVgingerbread
p1056
NsVcurry
p1057
NsVpicnic ham
p1058
NsVmay wine
p1059
NsVflatbread
p1060
NsVpepper sauce
p1061
NsVhors d'oeuvre
p1062
NsVfricandeau
p1063
NsVmorello
p1064
NsVrye bread
p1065
NsVploughman's lunch
p1066
NsVrockfish
p1067
NsVmocha
p1068
NsVloin
p1069
NsVwintergreen
p1070
NsVbrown sugar
p1071
NsVoolong
p1072
NsVlemon curd
p1073
NsVsoy
p1074
NsVbroccoli rabe
p1075
NsVitalian bread
p1076
NsVhalf-and-half
p1077
NsVfruit punch
p1078
NsVoxtail soup
p1079
NsVgrapefruit juice
p1080
NsVsweet cicely
p1081
NsVpilsner
p1082
NsVspam
p1083
NsVeau de vie
p1084
NsVsugar candy
p1085
NsVcombination salad
p1086
NsVham and eggs
p1087
NsVbrandy sling
p1088
NsVgreen olive
p1089
NsVcharlotte russe
p1090
NsVcanadian bacon
p1091
NsVcheese souffle
p1092
NsVcrisphead lettuce
p1093
NsVgin
p1094
NsVv-8 juice
p1095
NsVnougat
p1096
NsVcorn syrup
p1097
NsVhome fries
p1098
NsVfizz
p1099
NsVmulled cider
p1100
NsVsalmagundi
p1101
NsVfarina
p1102
NsVceriman
p1103
NsVcream sauce
p1104
NsVsally lunn
p1105
NsVnova scotia lox
p1106
NsVsea bass
p1107
NsVschrod
p1108
NsVmarinara
p1109
NsVanchovy
p1110
NsVsteamed pudding
p1111
NsVpiccalilli
p1112
NsVcat food
p1113
NsVyolk
p1114
NsVsteak tartare
p1115
NsVgluten bread
p1116
NsVjonathan
p1117
NsVapricot
p1118
NsVsoft diet
p1119
NsVpeppermint
p1120
NsVpaprika
p1121
NsVsour cherry
p1122
NsVphosphate
p1123
NsVelixir of life
p1124
NsVcough drop
p1125
NsVsoft roll
p1126
NsVtoad-in-the-hole
p1127
NsVcreme de menthe
p1128
NsVdill
p1129
NsVshin
p1130
NsVstick
p1131
NsVtisane
p1132
NsVneapolitan ice cream
p1133
NsVtomato sauce
p1134
NsVdamson
p1135
NsVgenoise
p1136
NsVcurd
p1137
NsVseeded raisin
p1138
NsVcobbler
p1139
NsVcustard
p1140
NsVpastis
p1141
NsVpuff batter
p1142
NsVpitahaya
p1143
NsVmold
p1144
NsVnonpareil
p1145
NsVsatsuma
p1146
NsVsamosa
p1147
NsVsmelt
p1148
NsVsea trout
p1149
NsVcreme anglais
p1150
NsVgrouper
p1151
NsVblueberry pie
p1152
NsVnan
p1153
NsVsaffron
p1154
NsVtriple cream
p1155
NsVvenison
p1156
NsVosso buco
p1157
NsVvitamin pill
p1158
NsVmacaroon
p1159
NsVmayonnaise
p1160
NsVwhey
p1161
NsVleek
p1162
NsVchicken kiev
p1163
NsVpatty shell
p1164
NsVtamale
p1165
NsVlime juice
p1166
NsVspruce beer
p1167
NsVmustard
p1168
NsVsling
p1169
NsVdessert wine
p1170
NsVsoft-shell clam
p1171
NsVdiet
p1172
NsVatlantic salmon
p1173
NsVfish house punch
p1174
NsVnavy bean
p1175
NsVmamey
p1176
NsVmelon ball
p1177
NsVcalf's tongue
p1178
NsVcomfit
p1179
NsVvouvray
p1180
NsVbordeaux
p1181
NsVlow-sodium diet
p1182
NsVhard sauce
p1183
NsVbluefish
p1184
NsVcaraway
p1185
NsVrabbit
p1186
NsVspotted dick
p1187
NsVpotato
p1188
NsVjujube
p1189
NsVhorsemeat
p1190
NsVmacaroni and cheese
p1191
NsVspring water
p1192
NsVsoy sauce
p1193
NsVchicken cacciatore
p1194
NsVfox grape
p1195
NsVbrew
p1196
NsVpepperoni pizza
p1197
NsVpea flour
p1198
NsVcroquette
p1199
NsVlittleneck
p1200
NsVbuffalo
p1201
NsVred snapper
p1202
NsVmilt
p1203
NsVbran muffin
p1204
NsVsorb
p1205
NsVbutter cookie
p1206
NsVcud
p1207
NsVroe
p1208
NsVcolbert
p1209
NsVhard-boiled egg
p1210
NsVgreen pepper
p1211
NsVice
p1212
NsVliquor
p1213
NsVrolled biscuit
p1214
NsVcrab apple
p1215
NsVcandy corn
p1216
NsVguava
p1217
NsVpassion fruit
p1218
NsVmilk
p1219
NsVangel cake
p1220
NsVsimnel
p1221
NsVsour milk
p1222
NsVtunaburger
p1223
NsVbomber
p1224
NsVgrape
p1225
NsVguinea hen
p1226
NsVmeat pie
p1227
NsVmatelote
p1228
NsVfad diet
p1229
NsVmuscadine
p1230
NsVgherkin
p1231
NsVcuppa
p1232
NsVpurloo
p1233
NsVtournedos
p1234
NsVcasserole
p1235
NsVtourtiere
p1236
NsVsowbelly
p1237
NsVmelon
p1238
NsVfilet mignon
p1239
NsVdevil's food
p1240
NsVingredient
p1241
NsVdemerara
p1242
NsVdessert
p1243
NsVgelatin dessert
p1244
NsVbrownie
p1245
NsVswizzle
p1246
NsVdate-nut bread
p1247
NsVbanana bread
p1248
NsVbullock's heart
p1249
NsVcoquilles saint-jacques
p1250
NsVsteak and kidney pie
p1251
NsVpoultry
p1252
NsVblueberry yogurt
p1253
NsVpea soup
p1254
NsVsparkling wine
p1255
NsVouzo
p1256
NsVchallah
p1257
NsVmargarita
p1258
NsVboston baked beans
p1259
NsVcomestible
p1260
NsVnectar
p1261
NsVasparagus
p1262
NsVedam
p1263
NsVchinese brown sauce
p1264
NsVchili dog
p1265
NsVloganberry
p1266
NsVlobster butter
p1267
NsVeclair
p1268
NsVice lolly
p1269
NsVporter
p1270
NsVstodge
p1271
NsVbisque
p1272
NsVtop round
p1273
NsVround
p1274
NsVcorn fritter
p1275
NsVmiraculous food
p1276
NsVbroad bean
p1277
NsVporridge
p1278
NsVpork
p1279
NsVjackfruit
p1280
NsVvirgin mary
p1281
NsVsour gourd
p1282
NsVwhite russian
p1283
NsVham
p1284
NsVblack pepper
p1285
NsVbleu cheese dressing
p1286
NsVsloe gin
p1287
NsVcurrant
p1288
NsVbamboo shoot
p1289
NsVfruit custard
p1290
NsVbland diet
p1291
NsVneutral spirits
p1292
NsVport
p1293
NsVgnocchi
p1294
NsVscotch kiss
p1295
NsVgarlic bread
p1296
NsVpetite marmite
p1297
NsVpotato pancake
p1298
NsVinstant coffee
p1299
NsVsauerkraut
p1300
NsVtarragon
p1301
NsVsoup
p1302
NsVbreadstuff
p1303
NsVbrussels sprouts
p1304
NsVsouffle
p1305
NsVespresso
p1306
NsVjambalaya
p1307
NsVfillet
p1308
NsVriver prawn
p1309
NsVapplesauce
p1310
NsVpin bone
p1311
NsVpotherb
p1312
NsVwort
p1313
NsVoenomel
p1314
NsVcarbohydrate loading
p1315
NsVbird
p1316
NsVgingersnap
p1317
NsVblack bread
p1318
NsVmarchand de vin
p1319
NsVration
p1320
NsVcocoa powder
p1321
NsVcelery salt
p1322
NsVpinole
p1323
NsVhomogenized milk
p1324
NsVcola extract
p1325
NsVpunch
p1326
NsVegg noodle
p1327
NsVcalves' feet
p1328
NsVwater
p1329
NsVchocolate fudge
p1330
NsVfield pea
p1331
NsVcastor sugar
p1332
NsVsnapper
p1333
NsVpancake
p1334
NsVvegetarianism
p1335
NsVscalded milk
p1336
NsVmangel-wurzel
p1337
NsVgarambulla
p1338
NsVcustard apple
p1339
NsVbonbon
p1340
NsVvinegar
p1341
NsVraw milk
p1342
NsVkishke
p1343
NsVstrudel
p1344
NsVmatzo ball
p1345
NsVweizenbock
p1346
NsVmuenster
p1347
NsVfrench toast
p1348
NsVchocolate chip cookie
p1349
NsVcinnamon
p1350
NsVbuckwheat
p1351
NsVpopcorn
p1352
NsVmussel
p1353
NsVallergy diet
p1354
NsVmix
p1355
NsVstew
p1356
NsVstrawberry daiquiri
p1357
NsVrussian dressing
p1358
NsVchateaubriand
p1359
NsVapple
p1360
NsVcrumpet
p1361
NsVyorkshire pudding
p1362
NsVradish
p1363
NsVliqueur
p1364
NsVsoft pretzel
p1365
NsVprune whip
p1366
NsVpale ale
p1367
NsVpersian melon
p1368
NsVcut of lamb
p1369
NsVonion roll
p1370
NsVduck
p1371
NsVbread dough
p1372
NsVbarley-sugar
p1373
NsVsugar
p1374
NsVinositol
p1375
NsVsaltwater fish
p1376
NsVcelery
p1377
NsVraspberry
p1378
NsVsaltine
p1379
NsVsake
p1380
NsVtetrazzini
p1381
NsVpapaw
p1382
NsVsquare meal
p1383
NsVsummer savory
p1384
NsVheart cherry
p1385
NsVjelly bean
p1386
NsVcrab
p1387
NsVlinguica
p1388
NsVgin rickey
p1389
NsVsquid
p1390
NsVlobster tart
p1391
NsVapple juice
p1392
NsVbaba
p1393
NsVbutternut squash
p1394
NsVgefilte fish
p1395
NsVleg of lamb
p1396
NsVcorn dab
p1397
NsVwhite sauce
p1398
NsVplum tomato
p1399
NsVtangerine
p1400
NsVnosh-up
p1401
NsVchocolate
p1402
NsVsugarplum
p1403
NsVcream soda
p1404
NsVsparerib
p1405
NsVbarbecued wing
p1406
NsVbeef bourguignonne
p1407
NsVkasha
p1408
NsVcatawba
p1409
NsVegg white
p1410
NsVnorwegian lobster
p1411
NsVdrip coffee
p1412
NsVcandy bar
p1413
NsVbroth
p1414
NsVhoney
p1415
NsVstuffed cabbage
p1416
NsVbaking-powder biscuit
p1417
NsVlingonberry
p1418
NsVblade roast
p1419
NsVcut of beef
p1420
NsVchianti
p1421
NsVmostaccioli
p1422
NsVfrog legs
p1423
NsVscuppernong
p1424
NsVsour
p1425
NsVcrape
p1426
NsVscone
p1427
NsVmeatball
p1428
NsVpickle
p1429
NsVcoral
p1430
NsVcaraway seed bread
p1431
NsVheart
p1432
NsVapple jelly
p1433
NsVpowdered milk
p1434
NsVskilly
p1435
NsVham sandwich
p1436
NsVchip
p1437
NsVsuds
p1438
NsVporcupine ball
p1439
NsVgranola bar
p1440
NsVsweet calabash
p1441
NsVmatzo
p1442
NsVglogg
p1443
NsVpeanut bar
p1444
NsVrollmops
p1445
NsVfish cake
p1446
NsVkai apple
p1447
NsVbulgur pilaf
p1448
NsVbavarian cream
p1449
NsVpheasant under glass
p1450
NsVlunch meat
p1451
NsVbreast of lamb
p1452
NsVstuffed mushroom
p1453
NsVcollards
p1454
NsVbigos
p1455
NsVquahaug
p1456
NsVproof spirit
p1457
NsVnipa
p1458
NsVdurian
p1459
NsVturnover
p1460
NsVchapatti
p1461
NsVflank
p1462
NsVbiryani
p1463
NsVcoq au vin
p1464
NsVpfannkuchen
p1465
NsVemmenthal
p1466
NsVred salmon
p1467
NsVnantua
p1468
NsVchocolate candy
p1469
NsVfare
p1470
NsVnear beer
p1471
NsVstick cinnamon
p1472
NsVcocktail
p1473
NsVtapioca pudding
p1474
NsVcandy cane
p1475
NsVgarden cress
p1476
NsVchow
p1477
NsVgrog
p1478
NsVgelatin
p1479
NsVproduce
p1480
NsVplanter's punch
p1481
NsVdate
p1482
NsVdolphinfish
p1483
NsVmarrow
p1484
NsVgoat cheese
p1485
NsVrickey
p1486
NsVtomato
p1487
NsVkahlua
p1488
NsVemperor
p1489
NsVsugar beet
p1490
NsVneck
p1491
NsVgin and tonic
p1492
NsVoctopus
p1493
NsVbeefsteak tomato
p1494
NsVnorthern spy
p1495
NsVseafood newburg
p1496
NsVmango
p1497
NsVtreacle
p1498
NsVberlin doughnut
p1499
NsVduck sauce
p1500
NsVpecan pie
p1501
NsVquick bread
p1502
NsVmartini
p1503
NsVgraham cracker
p1504
NsVsailfish
p1505
NsVrye
p1506
NsVkava
p1507
NsVgranny smith
p1508
NsVtv dinner
p1509
NsVkingfish
p1510
NsVvitamin c
p1511
NsVbrain
p1512
NsVchickpea
p1513
NsVmelba toast
p1514
NsVartichoke
p1515
NsVgrapefruit peel
p1516
NsVpotato skin
p1517
NsVvitamin k
p1518
NsVkippered salmon
p1519
NsVhuitre
p1520
NsVsunfish
p1521
NsVtrifle
p1522
NsVliebfraumilch
p1523
NsVhungarian sauce
p1524
NsVsmoothie
p1525
NsVcitron
p1526
NsVbanquet
p1527
NsVlamb chop
p1528
NsVfruit drink
p1529
NsVfastnacht
p1530
NsVclub sandwich
p1531
NsVstayman winesap
p1532
NsVorange
p1533
NsVricotta
p1534
NsVturkish coffee
p1535
NsVcoffee liqueur
p1536
NsVsugar syrup
p1537
NsVtonic
p1538
NsVcows' milk
p1539
NsVloin of lamb
p1540
NsVsalad
p1541
NsVflour
p1542
NsVverdicchio
p1543
NsVpetit four
p1544
NsVswordfish
p1545
NsVcane sugar
p1546
NsVanise cookie
p1547
NsVlunch
p1548
NsVdehydrated food
p1549
NsVpowdered sugar
p1550
NsVtenderloin
p1551
NsVkiss
p1552
NsVcusk
p1553
NsVcorn gluten feed
p1554
NsVsicilian pizza
p1555
NsVdelicatessen
p1556
NsVpork roast
p1557
NsVcoriander
p1558
NsVmixer
p1559
NsVaperitif
p1560
NsVgum ball
p1561
NsVpiece de resistance
p1562
NsVcider vinegar
p1563
NsVratatouille
p1564
NsVharicot vert
p1565
NsVfrank
p1566
NsVcrystallized ginger
p1567
NsVcider
p1568
NsVambrosia
p1569
NsVcannelloni
p1570
NsVlegume
p1571
NsVtimbale
p1572
NsVcaffe latte
p1573
NsVtea-like drink
p1574
NsVfrittata
p1575
NsVwhite chocolate
p1576
NsVpizza
p1577
NsVegg foo yong
p1578
NsVlight cream
p1579
NsVpeppermint patty
p1580
NsVlamb's-quarter
p1581
NsVflat bone
p1582
NsVnet melon
p1583
NsVbacon and eggs
p1584
NsVdoughnut
p1585
NsVgrouse
p1586
NsVsavarin
p1587
NsVmacoun
p1588
NsVmeat loaf
p1589
NsVpowdered mustard
p1590
NsVtemple orange
p1591
NsVlane's prince albert
p1592
NsVgoose
p1593
NsVwrap
p1594
NsVbeef neck
p1595
NsVblack currant
p1596
NsVbialy
p1597
NsVstock cube
p1598
NsVlentil
p1599
NsVamaretto
p1600
NsVlargemouth bass
p1601
NsVice cream
p1602
NsVhunter's sauce
p1603
NsVstrawberry ice cream
p1604
NsVwhitefish
p1605
NsVside dish
p1606
NsVcut of mutton
p1607
NsVsavoy cabbage
p1608
NsVfish loaf
p1609
NsVbrisket
p1610
NsVlife saver
p1611
NsVcrookneck
p1612
NsVentree
p1613
NsVsummer squash
p1614
NsVmess
p1615
NsVmate
p1616
NsVheavy cream
p1617
NsVbarley
p1618
NsVgrits
p1619
NsVkummel
p1620
NsVformula
p1621
NsVpantothenic acid
p1622
NsVmonkfish
p1623
NsVorange marmalade
p1624
NsVlinguine
p1625
NsVporterhouse
p1626
NsVfricassee
p1627
NsVsyllabub
p1628
NsVdanish blue
p1629
NsVcross bun
p1630
NsVtempura
p1631
NsVwine vinegar
p1632
NsVcarp
p1633
NsVraw meat
p1634
NsVkedgeree
p1635
NsVcoffee break
p1636
NsVlimpa
p1637
NsVround steak
p1638
NsVclam dip
p1639
NsVaioli
p1640
NsVfrench sorrel
p1641
NsVsweet pepper
p1642
NsVcoconut macaroon
p1643
NsVlast supper
p1644
NsVveal scallopini
p1645
NsVkoumiss
p1646
NsVtomato juice
p1647
NsVoktoberfest
p1648
NsVsour cream
p1649
NsVgrist
p1650
NsVcompote
p1651
NsVbeef burrito
p1652
NsVapricot sauce
p1653
NsVcorn flake
p1654
NsVcrab louis
p1655
NsVcranberry
p1656
NsVchocolate sauce
p1657
NsVdraft beer
p1658
NsVjapanese crab
p1659
NsVpepperoni
p1660
NsValpha-tocopheral
p1661
NsVirish soda bread
p1662
NsVhooch
p1663
NsVmacon
p1664
NsVcheese
p1665
NsVsnail butter
p1666
NsVbordelaise
p1667
NsVzucchini
p1668
NsVsalad cream
p1669
NsVstockfish
p1670
NsVgrey sole
p1671
NsVtaco
p1672
NsVblini
p1673
NsVsack
p1674
NsVramekin
p1675
NsVwelsh rarebit
p1676
NsVbearnaise
p1677
NsVice tea
p1678
NsVhard candy
p1679
NsVgreen pea soup
p1680
NsVhard cider
p1681
NsVteacake
p1682
NsVcostmary
p1683
NsVcabbage
p1684
NsVegg cream
p1685
NsVclary sage
p1686
NsVparsnip
p1687
NsVwhole wheat flour
p1688
NsVvitamin a2
p1689
NsVvitamin a1
p1690
NsVcantaloup
p1691
NsVtostada
p1692
NsVground beef
p1693
NsVprickly pear
p1694
NsVcognac
p1695
NsVgateau
p1696
NsVgreen bean
p1697
NsVdungeness crab
p1698
NsVgobbet
p1699
NsVsmoked salmon
p1700
NsVhot cereal
p1701
NsVlacing
p1702
NsVlingcod
p1703
NsVlarder
p1704
NsVbrandyball
p1705
NsVlemonade
p1706
NsVpinot noir
p1707
NsVapple dumpling
p1708
NsVcup
p1709
NsVcodfish ball
p1710
NsVvermicelli
p1711
NsVvictoria plum
p1712
NsVorange pekoe
p1713
NsVpompano
p1714
NsVfive spice powder
p1715
NsVred herring
p1716
NsVkabob
p1717
NsVpeppermint oil
p1718
NsVwhole milk
p1719
NsVknackwurst
p1720
NsVvodka martini
p1721
NsVfrozen dessert
p1722
NsVmarble cake
p1723
NsVlobster stew
p1724
NsVpork pie
p1725
NsVfirm omelet
p1726
NsVspareribs
p1727
NsVcockle
p1728
NsVrioja
p1729
NsVrack
p1730
NsVpablum
p1731
NsVweizenbier
p1732
NsVcinnamon roll
p1733
NsVmashed potato
p1734
NsVpasteurized milk
p1735
NsVfruit bar
p1736
NsVwinter cress
p1737
NsVchoice morsel
p1738
NsVcoconut
p1739
NsVcheese pizza
p1740
NsVsolanaceous vegetable
p1741
NsVbread sauce
p1742
NsVsaute
p1743
NsVbeef fondue
p1744
NsVsalad burnet
p1745
NsVbeef jerky
p1746
NsVcalf's brain
p1747
NsVwhiskey sour
p1748
NsVallemande
p1749
NsVlamb
p1750
NsVpina colada
p1751
NsVpastry
p1752
NsVhardbake
p1753
NsVquiche
p1754
NsVpork belly
p1755
NsVbreakfast
p1756
NsVsherbert
p1757
NsVsidecar
p1758
NsVginger beer
p1759
NsVstayman
p1760
NsVliederkranz
p1761
NsVvin ordinaire
p1762
NsVmoselle
p1763
NsVroux
p1764
NsVmulled wine
p1765
NsVbluefin
p1766
NsVcarrot stick
p1767
NsVwheat flour
p1768
NsVhuckleberry
p1769
NsVremoulade sauce
p1770
NsVcarissa plum
p1771
NsVpeach
p1772
NsVoyster stew
p1773
NsVwassail
p1774
NsVsalmi
p1775
NsVsquab
p1776
NsVpuffed rice
p1777
NsVforcemeat
p1778
NsVherb tea
p1779
NsVcold cuts
p1780
NsVbirthday cake
p1781
NsVjimmies
p1782
NsVcoconut milk
p1783
NsVcorned beef hash
p1784
NsVbok choy
p1785
NsVgingerbread man
p1786
NsVchocolate bar
p1787
NsVcheesecake
p1788
NsVhen
p1789
NsVsaccharin
p1790
NsVcherrystone
p1791
NsVbuffet
p1792
NsVcardoon
p1793
NsVmimosa
p1794
NsVhubbard squash
p1795
NsVgouda
p1796
NsVvichyssoise
p1797
NsVsambuca
p1798
NsVpilaf
p1799
NsVcommissariat
p1800
NsVtipsy cake
p1801
NsVstrip steak
p1802
NsVgyro
p1803
NsVseafood
p1804
NsVmeuniere butter
p1805
NsVflummery
p1806
NsVoyster cracker
p1807
NsVrose apple
p1808
NsVred rockfish
p1809
NsVacorn squash
p1810
NsVrump steak
p1811
NsVclover-leaf roll
p1812
NsVmineral water
p1813
NsVradicchio
p1814
NsVvalencia orange
p1815
NsVturmeric
p1816
NsVsalt
p1817
NsVperch
p1818
NsVhake
p1819
NsVcarrot
p1820
NsVcorn cake
p1821
NsVmince
p1822
NsVchocolate liquor
p1823
NsVdietary supplement
p1824
NsVlozenge
p1825
NsVhot pot
p1826
NsVvitamin p
p1827
NsVfrench pastry
p1828
NsVturkish delight
p1829
NsVcrab cocktail
p1830
NsVchicken
p1831
NsVketembilla
p1832
NsVleg
p1833
NsVegg roll
p1834
NsVarrack
p1835
NsVcoloring
p1836
NsVkey lime
p1837
NsVnectarine
p1838
NsVhot-fudge sauce
p1839
NsVanadama bread
p1840
NsVsun tea
p1841
NsVcheeseburger
p1842
NsVsloe
p1843
NsValaska king crab
p1844
NsVjam
p1845
NsVfrench omelet
p1846
NsVcruciferous vegetable
p1847
NsVmuffin
p1848
NsVpigs in blankets
p1849
NsVquark cheese
p1850
NsVbourbon
p1851
NsVsteak sauce
p1852
NsVpumpkin
p1853
NsVsoya milk
p1854
NsVbottom round
p1855
NsVpastrami
p1856
NsVfat-soluble vitamin
p1857
NsVgruyere
p1858
NsVblack-eyed pea
p1859
NsVmolasses taffy
p1860
NsVbaked alaska
p1861
NsVbean
p1862
NsVmolasses
p1863
NsVpigs' feet
p1864
NsVmousse
p1865
NsVfatback
p1866
NsVcattle cake
p1867
NsVbeluga caviar
p1868
NsVbitters
p1869
NsVturkey stuffing
p1870
NsVfriedcake
p1871
NsVnesselrode
p1872
NsVwon ton
p1873
NsVcocozelle
p1874
NsVtraining table
p1875
NsVprima
p1876
NsVbeef loin
p1877
NsVcourse
p1878
NsVmedlar
p1879
NsVpie crust
p1880
NsVnutriment
p1881
NsVchoc-ice
p1882
NsVquandong
p1883
NsVsirloin steak
p1884
NsVnutmeg
p1885
NsVgammon
p1886
NsVbutterhead lettuce
p1887
NsVbean curd
p1888
NsVdiabetic diet
p1889
NsVtortilla
p1890
NsVfinnan haddie
p1891
NsVdarjeeling
p1892
NsVstew meat
p1893
NsVpicnic
p1894
NsVbeef goulash
p1895
NsVcertified milk
p1896
NsVmilk punch
p1897
NsVfresh food
p1898
NsVhydromel
p1899
NsVroughage
p1900
NsVcoconut cake
p1901
NsVhalf-and-half dressing
p1902
NsVmanicotti
p1903
NsVgrissino
p1904
NsVsalisbury steak
p1905
NsVhot toddy
p1906
NsVrefresher
p1907
NsVpopcorn ball
p1908
NsVhoneydew
p1909
NsVlight diet
p1910
NsVpemmican
p1911
NsVcorn muffin
p1912
NsVwhiskey
p1913
NsVbitter lemon
p1914
NsVmushy peas
p1915
NsVpotpie
p1916
NsVbenedictine
p1917
NsVdried apricot
p1918
NsVbrown sauce
p1919
NsVcalvados
p1920
NsVmandarin
p1921
NsVgreen salad
p1922
NsVcola
p1923
NsVclaret
p1924
NsVcapulin
p1925
NsVturbot
p1926
NsVsoubise
p1927
NsVcoffee ring
p1928
NsVflitch
p1929
NsVlemon balm
p1930
NsVbutty
p1931
NsVcauliflower
p1932
NsVsausage
p1933
NsVcurry sauce
p1934
NsVside of pork
p1935
NsVshallot
p1936
NsVcake
p1937
NsVconcentrate
p1938
NsVpotluck
p1939
NsVsweet cherry
p1940
NsVsassafras
p1941
NsVfried egg
p1942
NsVclove
p1943
NsVgimlet
p1944
NsVorange juice
p1945
NsVtuck
p1946
NsVbrook trout
p1947
NsVspritzer
p1948
NsVkosher
p1949
NsVtongue
p1950
NsVchopped steak
p1951
NsVgrain
p1952
NsVberry
p1953
NsVcassiri
p1954
NsVchorizo
p1955
NsVchocolate ice cream
p1956
NsVlemon
p1957
NsVpeanut butter
p1958
NsVice-cream cake
p1959
NsVmarjoram
p1960
NsVwedge bone
p1961
NsVeuropean smelt
p1962
NsVice water
p1963
NsVclam chowder
p1964
NsVchinese mustard
p1965
NsVpop
p1966
NsVsouvlaki
p1967
NsVyquem
p1968
NsVhorehound
p1969
NsVstomach sweetbread
p1970
NsVraw vegetable
p1971
NsVnougat bar
p1972
NsVlye hominy
p1973
NsVribier
p1974
NsVturkey
p1975
NsVwhite pepper
p1976
NsVzabaglione
p1977
NsVscrambled eggs
p1978
NsVcamembert
p1979
NsVminute steak
p1980
NsVstuffed tomato
p1981
NsVjamaica rum
p1982
NsVcomfrey
p1983
NsVyam
p1984
NsVhighball
p1985
NsVchewing gum
p1986
NsVdouble cream
p1987
NsVbatter
p1988
NsVrump
p1989
NsVjerky
p1990
NsVsprat
p1991
NsVkentucky wonder
p1992
NsVravioli
p1993
NsVcake mix
p1994
NsVwiener roast
p1995
NsVtangelo
p1996
NsVlump sugar
p1997
NsVroot vegetable
p1998
NsVnacho
p1999
NsVsquash
p2000
NsVpond apple
p2001
NsVwild rice
p2002
NsVeggnog
p2003
NsVweissbier
p2004
NsVrump roast
p2005
NsVhalal
p2006
NsVbrunch
p2007
NsVmulberry
p2008
NsVstilton
p2009
NsVmaryland chicken
p2010
NsVblowfish
p2011
NsVbeaujolais
p2012
NsVscup
p2013
NsVfruit cocktail
p2014
NsVbubble and squeak
p2015
NsVclaret cup
p2016
NsVsauce
p2017
NsVmouton
p2018
NsVvinifera grape
p2019
NsVgiblet
p2020
NsVoysters rockefeller
p2021
NsVcomfort food
p2022
NsVpinot blanc
p2023
NsVhush puppy
p2024
NsVbuttercrunch
p2025
NsVshrimp cocktail
p2026
NsVopen-face sandwich
p2027
NsVjohnnycake
p2028
NsVsnack food
p2029
NsVfrozen orange juice
p2030
NsVsorghum
p2031
NsVwhitebait
p2032
NsVvidalia onion
p2033
NsVgoats' milk
p2034
NsVlemon extract
p2035
NsVstuffing
p2036
NsVpearl barley
p2037
NsVthompson seedless
p2038
NsVbacon-lettuce-tomato sandwich
p2039
NsVcheese spread
p2040
NsVfish and chips
p2041
NsVcroaker
p2042
NsVlobster tail
p2043
NsVpuffed wheat
p2044
NsVpease pudding
p2045
NsVchicory
p2046
NsVsuccotash
p2047
NsVsazerac
p2048
NsVtartlet
p2049
NsVplum
p2050
NsVgeneric
p2051
NsVanchovy butter
p2052
NsVbottled water
p2053
NsVmole
p2054
NsVcitrus
p2055
NsVbird feed
p2056
NsVtrout
p2057
NsVmacaroni
p2058
NsVcatfish
p2059
NsVsapodilla
p2060
NsVspanish paprika
p2061
NsVphyllo
p2062
NsVcream
p2063
NsVpearl hominy
p2064
NsVsand dab
p2065
NsVnewtown wonder
p2066
NsVackee
p2067
NsVshirred egg
p2068
NsVhaslet
p2069
NsVcanistel
p2070
NsVwasabi
p2071
NsVbarley water
p2072
NsVdaiquiri
p2073
NsVpuff
p2074
NsVragout
p2075
NsVtaro
p2076
NsVdrop biscuit
p2077
NsVpork sausage
p2078
NsVbroccoli
p2079
NsVrock salmon
p2080
NsVcocoa butter
p2081
NsVslug
p2082
NsVshortcake
p2083
NsVburrito
p2084
NsVroulade
p2085
NsVveal cordon bleu
p2086
NsVantipasto
p2087
NsVchicken tetrazzini
p2088
NsVgenip
p2089
NsVchicken stew
p2090
NsVsauerbraten
p2091
NsVbiltong
p2092
NsVtapenade
p2093
NsVcushaw
p2094
NsVveal
p2095
NsVlimeade
p2096
NsVshortbread
p2097
NsVweakfish
p2098
NsVcock-a-leekie
p2099
NsVgrappa
p2100
NsVcarbonnade flamande
p2101
NsVgreen onion
p2102
NsValfalfa
p2103
NsVstout
p2104
NsVkohlrabi
p2105
NsVcream puff
p2106
NsVbercy
p2107
NsVkvass
p2108
NsVsausage pizza
p2109
NsVreducing diet
p2110
NsVatole
p2111
NsVjellyroll
p2112
NsVbay leaf
p2113
NsVbread and butter pickle
p2114
NsVbaldwin
p2115
NsVwax bean
p2116
NsVfish steak
p2117
NsVphilter
p2118
NsVsmallmouth bass
p2119
NsVbarmbrack
p2120
NsVhard roll
p2121
NsVdrambuie
p2122
NsVcarob bar
p2123
NsVcayenne
p2124
NsVedible fruit
p2125
NsVlithia water
p2126
NsVcold cereal
p2127
NsVscrumpy
p2128
NsVscotch and soda
p2129
NsVfritter batter
p2130
NsVspanish onion
p2131
NsVghee
p2132
NsVlimpet
p2133
NsVteriyaki
p2134
NsVpersimmon
p2135
NsVoven stuffer
p2136
NsVcottage cheese
p2137
NsVashcake
p2138
NsVchocolate kiss
p2139
NsVfedelline
p2140
NsVmadeira cake
p2141
NsVmarzipan
p2142
NsVlamb curry
p2143
NsVtea bread
p2144
NsVvichy water
p2145
NsVcreme de cacao
p2146
NsVrhone wine
p2147
NsVfryer
p2148
NsVquail
p2149
NsVgranadilla
p2150
NsVlovage
p2151
NsVclam
p2152
NsVspatchcock
p2153
NsVonion
p2154
NsVaspartame
p2155
NsVfines herbes
p2156
NsVsweetbread
p2157
NsVcouverture
p2158
NsVchiffon cake
p2159
NsVred wine
p2160
NsVcherry tomato
p2161
NsVmanhattan
p2162
NsVmacrobiotic diet
p2163
NsVvictoria sandwich
p2164
NsVworcester sauce
p2165
NsVcandied fruit
p2166
NsVblackberry
p2167
NsVclambake
p2168
NsVcreme brulee
p2169
NsVpasty
p2170
NsVoffal
p2171
NsVlager
p2172
NsVyak's milk
p2173
NsVbagel
p2174
NsVrat cheese
p2175
NsVbreadfruit
p2176
NsVmoo goo gai pan
p2177
NsVpoi
p2178
NsVfodder
p2179
NsVfettuccine
p2180
NsVherring salad
p2181
NsVmuscadet
p2182
NsVbubble gum
p2183
NsVhoney bun
p2184
NsVlobster
p2185
NsVpoulette
p2186
NsVcopra
p2187
NsVvanilla pudding
p2188
NsVempire
p2189
NsVbouillon cube
p2190
NsVfrench fritter
p2191
NsVsalmon loaf
p2192
NsVolive
p2193
NsVknish
p2194
NsVcandied apple
p2195
NsVjalapeno
p2196
NsVcheese fondue
p2197
NsVfondue
p2198
NsVsukiyaki
p2199
NsVbannock
p2200
NsVtruffle
p2201
NsVtwinkie
p2202
NsVstreusel
p2203
NsValfalfa sprout
p2204
NsVcachou
p2205
NsVchristmas cake
p2206
NsVfortified wine
p2207
NsVoil cake
p2208
NsVpepper
p2209
NsVnut butter
p2210
NsVwheat
p2211
NsVcrouton
p2212
NsVbutterfish
p2213
NsVpascal celery
p2214
NsVraisin bread
p2215
NsVwine sauce
p2216
NsVonion salt
p2217
NsVsesame seed
p2218
NsVpomelo
p2219
NsVhost
p2220
NsVpasta
p2221
NsVbullshot
p2222
NsVtomato concentrate
p2223
NsVtahini
p2224
NsVshort ribs
p2225
NsVdoughboy
p2226
NsVpike
p2227
NsVroly-poly
p2228
NsVchoc
p2229
NsVgalantine
p2230
NsVbing cherry
p2231
NsVsaddle
p2232
NsVbiscuit
p2233
NsVmarc
p2234
NsVgorgonzola
p2235
NsVfish chowder
p2236
NsVcornbread
p2237
NsVchop
p2238
NsVhindquarter
p2239
NsVeuropean lobster
p2240
NsVsauterne
p2241
NsVwild spinach
p2242
NsVlonganberry
p2243
NsVblended whiskey
p2244
NsVpotion
p2245
NsVbourguignon
p2246
NsVpetfood
p2247
NsVbay scallop
p2248
NsVbrandysnap
p2249
NsVbrown butter
p2250
NsVschnapps
p2251
NsVmarshmallow
p2252
NsVmangosteen
p2253
NsVfield ration
p2254
NsVcelery seed
p2255
NsVfoie gras
p2256
NsVcocoa
p2257
NsVceleriac
p2258
NsVliver pudding
p2259
NsVcarbonado
p2260
NsVburton
p2261
NsVbuttercup squash
p2262
NsVhoney crisp
p2263
NsVoyster stuffing
p2264
NsVallspice
p2265
NsVmint sauce
p2266
NsVconfiture
p2267
NsVrutabaga
p2268
NsVbuttermilk
p2269
NsVmarsala
p2270
NsVanise
p2271
NsVcaviar
p2272
NsVwinter melon
p2273
NsVbelgian waffle
p2274
NsVspread
p2275
NsVnavel orange
p2276
NsVrock candy
p2277
NsVgazpacho
p2278
NsVlox
p2279
NsVwindfall
p2280
NsVmetheglin
p2281
NsVbeverage
p2282
NsVsapote
p2283
NsViced coffee
p2284
NsVsorrel
p2285
NsVbreast of veal
p2286
NsVcatsup
p2287
NsVzinfandel
p2288
NsVsandwich plate
p2289
NsVscorzonera
p2290
NsVcox's orange pippin
p2291
NsVskillet corn bread
p2292
NsVbun
p2293
NsVpotato salad
p2294
NsVomelet
p2295
NsVbratwurst
p2296
NsVuruguay potato
p2297
NsVmead
p2298
NsVsweet woodruff
p2299
NsVspice
p2300
NsVflavorer
p2301
NsVmincemeat
p2302
NsVporkchop
p2303
NsVwafer
p2304
NsVorangeade
p2305
NsVcornpone
p2306
NsVwhite rice
p2307
NsVtripe
p2308
NsVflip
p2309
NsVrob roy
p2310
NsVbuttermilk pancake
p2311
NsVstrawberry
p2312
NsVbouillon
p2313
NsVpippin
p2314
NsVcornmeal
p2315
NsVdainty
p2316
NsVnew england clam chowder
p2317
NsVcondiment
p2318
NsVyellowtail flounder
p2319
NsVirish
p2320
NsVgumbo
p2321
NsVsirloin
p2322
NsVfreestone
p2323
NsVcrescent roll
p2324
NsVpie
p2325
NsVmarshmallow fluff
p2326
NsVclotted cream
p2327
NsVspaghettini
p2328
NsVsauvignon blanc
p2329
NsVsoda water
p2330
NsVsloppy joe
p2331
NsVfarfalle
p2332
NsVacidophilus milk
p2333
NsVflatfish
p2334
NsVbishop
p2335
NsVcrabapple jelly
p2336
NsVangelica
p2337
NsVcling
p2338
NsVbrunswick stew
p2339
NsVheadcheese
p2340
NsVstarches
p2341
NsVoyster plant
p2342
NsVpattypan squash
p2343
NsVcanned meat
p2344
NsVcurry powder
p2345
NsVshawnee cake
p2346
NsVwhipping cream
p2347
NsVtagliatelle
p2348
NsVvermouth
p2349
NsVpaddy
p2350
NsVmacaroni salad
p2351
NsVbear claw
p2352
NsVcreme de fraise
p2353
NsVprune cake
p2354
NsVfeijoa
p2355
NsVvarietal
p2356
NsVcornish pasty
p2357
NsVpear
p2358
NsVsplit-pea
p2359
NsVbrandy
p2360
NsVlayer cake
p2361
NsVcotes de provence
p2362
NsVgoa bean
p2363
NsVcabernet
p2364
NsVamerican lobster
p2365
NsVfish fry
p2366
NsVcuracao
p2367
NsVcheese sauce
p2368
NsVlemon sole
p2369
NsVsardine
p2370
NsVhigh tea
p2371
NsVfruit salad
p2372
NsVpepper pot
p2373
NsVschnitzel
p2374
NsVmash
p2375
NsVboiled egg
p2376
NsVmast
p2377
NsVveloute
p2378
NsVcassareep
p2379
NsVhindshank
p2380
NsVblood sausage
p2381
NsVcreme caramel
p2382
NsVartichoke heart
p2383
NsVliver
p2384
Ns.