(dp0
I0
(lp1
(S'it'
p2
S'O'
p3
F0.9888
tp4
a(S's'
p5
S'V'
p6
F0.7285
tp7
a(S'a'
p8
S'D'
p9
F0.9959
tp10
a(S'tape'
p11
S'N'
p12
F0.9984
tp13
a(S'recorder'
p14
g12
F0.9921
tp15
asI1
(lp16
(S'don'
p17
S'^'
p18
F0.5427
tp19
a(S't'
p20
g18
F0.549
tp21
a(S'touch'
p22
g6
F0.9278
tp23
a(S'it'
p24
g3
F0.9828
tp25
a(S'okay'
p26
S'!'
p27
F0.6918
tp28
asI2
(lp29
(S'hm'
p30
g27
F0.995
tp31
asI3
(lp32
(S'i'
p33
g3
F0.953
tp34
a(S'm'
p35
g6
F0.928
tp36
a(S'very'
p37
S'R'
p38
F0.996
tp39
a(S'hungry'
p40
S'A'
p41
F0.9977
tp42
a(S'xxx'
p43
S'E'
p44
F0.7791
tp45
asI4
(lp46
(S'here'
p47
g38
F0.9346
tp48
a(S'you'
p49
g3
F0.9996
tp50
a(S'go'
p51
g6
F0.9907
tp52
a(S'sweetie'
p53
g12
F0.9123
tp54
asI5
(lp55
(S'okay'
p56
g27
F0.9857
tp57
asI6
(lp58
(S'eat'
p59
g6
F0.8267
tp60
asI7
(lp61
(S'mhm'
p62
g27
F0.9747
tp63
asI8
(lp64
(S'anything'
p65
g12
F0.9813
tp66
a(S'for'
p67
S'P'
p68
F0.9991
tp69
a(S'anybody'
p70
g12
F0.9758
tp71
a(S'else'
p72
g38
F0.935
tp73
asI9
(lp74
(S'please'
p75
g6
F0.8246
tp76
asI10
(lp77
(S'hm'
p78
g27
F0.995
tp79
asI11
(lp80
(S'no'
p81
g27
F0.9003
tp82
a(S'thank'
p83
g6
F0.9286
tp84
a(S'you'
p85
g3
F0.999
tp86
asI12
(lp87
(S'no'
p88
g27
F0.9003
tp89
a(S'thank'
p90
g6
F0.9286
tp91
a(S'you'
p92
g3
F0.999
tp93
asI13
(lp94
(S'xxx'
p95
g44
F0.5757
tp96
a(S'now'
p97
g38
F0.9653
tp98
asI14
(lp99
(S'we'
p100
g3
F0.9948
tp101
a(S'll'
p102
g6
F0.7321
tp103
a(S'see'
p104
g6
F0.9913
tp105
a(S'what'
p106
g3
F0.8964
tp107
a(S'they'
p108
g3
F0.9897
tp109
a(S'xxx'
p110
g6
F0.6836
tp111
a(S'here'
p112
g38
F0.9647
tp113
asI15
(lp114
(S'aw'
p115
g27
F0.9786
tp116
a(S'man'
p117
g27
F0.7908
tp118
asI16
(lp119
(g33
g3
F0.9756
tp120
a(S'didn'
p121
g6
F0.9919
tp122
a(g20
g6
F0.7093
tp123
a(S'know'
p124
g6
F0.9926
tp125
a(S'that'
p126
g3
F0.836
tp127
asI17
(lp128
(S'what'
p129
g3
F0.949
tp130
asI18
(lp131
(S'oh'
p132
g27
F0.9988
tp133
asI19
(lp134
(S'one'
p135
S'$'
p136
F0.9695
tp137
a(S'o'
p138
g68
F0.8989
tp139
a(S'clock'
p140
g12
F0.9256
tp141
a(g5
S'G'
p142
F0.9143
tp143
a(S'xxx'
p144
g44
F0.2908
tp145
a(S'is'
p146
g6
F0.9981
tp147
a(S'for'
p148
g68
F0.9972
tp149
a(S'um'
p150
g27
F0.6095
tp151
asI20
(lp152
(S'all'
p153
g9
F0.7812
tp154
a(S'gone'
p155
g41
F0.835
tp156
asI21
(lp157
(S'ow'
p158
g27
F0.9682
tp159
asI22
(lp160
(S'get'
p161
g6
F0.9974
tp162
a(S'off'
p163
g68
F0.4564
tp164
a(S'of'
p165
g68
F0.9899
tp166
a(S'my'
p167
g9
F0.9991
tp168
a(S'toe'
p169
g12
F0.9975
tp170
asI23
(lp171
(S'can'
p172
g6
F0.9755
tp173
a(g33
g3
F0.9904
tp174
a(S'have'
p175
g6
F0.9987
tp176
a(S'one'
p177
g136
F0.8013
tp178
asI24
(lp179
(g33
g3
F0.9563
tp180
a(S'xxx'
p181
g6
F0.6807
tp182
a(S'want'
p183
g6
F0.9859
tp184
asI25
(lp185
(S'well'
p186
g27
F0.6806
tp187
a(S'bro'
p188
g12
F0.8098
tp189
a(S'chi'
p190
g18
F0.394
tp191
a(S'is'
p192
g6
F0.9953
tp193
a(S'looking'
p194
g6
F0.927
tp195
a(S'at'
p196
g68
F0.9988
tp197
a(S'it'
p198
g3
F0.9927
tp199
a(S'right'
p200
g38
F0.9386
tp201
a(S'now'
p202
g38
F0.9962
tp203
asI26
(lp204
(S'okay'
p205
g27
F0.9857
tp206
asI27
(lp207
(S'well'
p208
g27
F0.8573
tp209
a(g33
g3
F0.9981
tp210
a(S'want'
p211
g6
F0.9999
tp212
a(S'that'
p213
g3
F0.6882
tp214
asI28
(lp215
(S'no'
p216
g27
F0.6674
tp217
a(S'no'
p218
g27
F0.6159
tp219
a(S'you'
p220
g3
F0.9881
tp221
a(S'aren'
p222
g6
F0.6728
tp223
a(g20
g142
F0.3919
tp224
a(S'gonna'
p225
g6
F0.9828
tp226
a(S'get'
p227
g6
F1.0
tp228
a(S'it'
p229
g3
F0.9958
tp230
asI29
(lp231
(S'wait'
p232
g6
F0.9863
tp233
a(S'till'
p234
g68
F0.9954
tp235
a(S'he'
p236
g3
F0.9984
tp237
a(g5
g6
F0.6985
tp238
a(S'done'
p239
g6
F0.9586
tp240
asI30
(lp241
(S'ah'
p242
g27
F0.996
tp243
asI31
(lp244
(S'the'
p245
g9
F0.9805
tp246
a(S'xxx'
p247
g12
F0.7471
tp248
a(S'is'
p249
g6
F0.9987
tp250
a(S'sixty'
p251
g41
F0.6954
tp252
a(S'dollars'
p253
g12
F0.9966
tp254
a(S'for'
p255
g68
F0.9996
tp256
a(S'one'
p257
g136
F0.8342
tp258
asI32
(lp259
(S'and'
p260
S'&'
p261
F0.9981
tp262
a(S'for'
p263
g68
F0.9905
tp264
a(S'two'
p265
g136
F0.8467
tp266
a(S'it'
p267
g3
F0.9719
tp268
a(g5
g6
F0.6219
tp269
a(S'one'
p270
g136
F0.9642
tp271
a(S'hundred'
p272
g136
F0.406
tp273
asI33
(lp274
(S'xxx'
p275
g44
F0.4262
tp276
a(S'them'
p277
g3
F0.9405
tp278
a(S'xxx'
p279
g44
F0.6331
tp280
asI34
(lp281
(S'shut'
p282
g6
F0.9803
tp283
a(S'up'
p284
S'T'
p285
F0.9871
tp286
asI35
(lp287
(S'no'
p288
g27
F0.9253
tp289
asI36
(lp290
(S'please'
p291
g6
F0.8984
tp292
a(S'don'
p293
g6
F0.4193
tp294
a(g20
g12
F0.2815
tp295
a(S'say'
p296
g6
F0.9928
tp297
a(S'that'
p298
g3
F0.796
tp299
a(S'to'
p300
g68
F0.9838
tp301
a(S'him'
p302
g3
F0.9859
tp303
asI37
(lp304
(g33
g3
F0.9902
tp305
a(S'want'
p306
g6
F0.9996
tp307
asI38
(lp308
(S'two'
p309
g136
F0.9864
tp310
a(S'comics'
p311
g12
F0.9646
tp312
a(S'are'
p313
g6
F0.9933
tp314
a(S'xxx'
p315
g44
F0.7176
tp316
asI39
(lp317
(S'it'
p318
g3
F0.9858
tp319
a(g5
g142
F0.6822
tp320
a(S'xxx'
p321
g44
F0.487
tp322
asI40
(lp323
(S'for'
p324
g68
F0.997
tp325
a(S'one'
p326
g136
F0.9144
tp327
a(S'hundred'
p328
g136
F0.3754
tp329
a(S'and'
p330
g261
F0.9975
tp331
a(S'ten'
p332
g136
F0.8913
tp333
a(S'dollars'
p334
g12
F0.9915
tp335
asI41
(lp336
(S'wow'
p337
g27
F0.9858
tp338
a(S'let'
p339
g6
F0.8902
tp340
a(g5
g142
F0.752
tp341
asI42
(lp342
(S'santa'
p343
g18
F0.9941
tp344
a(S'please'
p345
g6
F0.9843
tp346
a(S'give'
p347
g6
F0.9996
tp348
a(S'it'
p349
g3
F0.9875
tp350
a(S'to'
p351
g68
F0.9816
tp352
a(S'me'
p353
g3
F0.9988
tp354
a(S'laughing'
p355
g6
F0.9511
tp356
asI43
(lp357
(S'huh'
p358
g27
F0.993
tp359
asI44
(lp360
(S'xxx'
p361
g44
F0.7237
tp362
a(S'santa'
p363
g18
F0.957
tp364
a(S'claus'
p365
g18
F0.9489
tp366
asI45
(lp367
(S'did'
p368
g6
F0.9785
tp369
a(S'did'
p370
g6
F0.9972
tp371
a(S'the'
p372
g9
F0.9995
tp373
a(S'car'
p374
g12
F0.9961
tp375
a(S'come'
p376
g6
F0.989
tp377
a(S'buy'
p378
g6
F0.9973
tp379
a(S'it'
p380
g3
F0.9894
tp381
a(S'with'
p382
g68
F0.9941
tp383
a(S'for'
p384
g68
F0.9988
tp385
a(S'me'
p386
g3
F0.9986
tp387
asI46
(lp388
(S'no'
p389
g27
F0.9253
tp390
asI47
(lp391
(g33
g3
F0.9583
tp392
a(g33
g3
F0.9757
tp393
a(S'want'
p394
g6
F0.9999
tp395
a(S'that'
p396
g3
F0.6882
tp397
asI48
(lp398
(S'okay'
p399
g27
F0.9857
tp400
asI49
(lp401
(S'will'
p402
g6
F0.9979
tp403
a(S'you'
p404
g3
F0.9967
tp405
a(S'why'
p406
g38
F0.9739
tp407
a(S'you'
p408
g3
F0.9984
tp409
a(S'xxx'
p410
g6
F0.876
tp411
a(S'every'
p412
g9
F0.9719
tp413
a(S'single'
p414
g41
F0.9352
tp415
a(S'thing'
p416
g12
F0.9985
tp417
asI50
(lp418
(S'laughs'
p419
g6
F0.9102
tp420
asI51
(lp421
(S'it'
p422
g3
F0.9888
tp423
a(g5
g6
F0.5544
tp424
a(S'not'
p425
g38
F0.9993
tp426
a(S'funny'
p427
g41
F0.9978
tp428
asI52
(lp429
(S'they'
p430
g3
F0.9104
tp431
a(S're'
p432
g6
F0.724
tp433
a(S'not'
p434
g38
F0.9921
tp435
a(S'xxx'
p436
g44
F0.7582
tp437
asI53
(lp438
(S'bro'
p439
g12
F0.936
tp440
a(S'sit'
p441
g6
F0.9898
tp442
a(S'down'
p443
g285
F0.8371
tp444
a(S'and'
p445
g261
F0.9957
tp446
a(S'eat'
p447
g6
F0.9821
tp448
asI54
(lp449
(S'and'
p450
g261
F0.9985
tp451
a(S'read'
p452
g6
F0.9986
tp453
a(S'your'
p454
g9
F0.9888
tp455
a(S'own'
p456
g41
F0.7244
tp457
a(S'book'
p458
g12
F0.9781
tp459
asI55
(lp460
(S'xxx'
p461
g44
F0.8437
tp462
asI56
(lp463
(S'and'
p464
g261
F0.9987
tp465
a(S'then'
p466
g38
F0.9883
tp467
a(S'when'
p468
g38
F0.9857
tp469
a(S'he'
p470
g3
F0.9924
tp471
a(g5
g6
F0.8205
tp472
a(S'done'
p473
g6
F0.9961
tp474
a(S'you'
p475
g3
F0.9987
tp476
a(S'can'
p477
g6
F0.9996
tp478
a(S'look'
p479
g6
F0.9963
tp480
a(S'at'
p481
g68
F0.9993
tp482
a(S'it'
p483
g3
F0.9926
tp484
a(S'okay'
p485
g27
F0.5356
tp486
asI57
(lp487
(S'it'
p488
g3
F0.9888
tp489
a(g5
g6
F0.4473
tp490
a(S'gonna'
p491
g6
F0.9956
tp492
a(S'be'
p493
g6
F0.9985
tp494
a(S'fun'
p495
g41
F0.5889
tp496
asI58
(lp497
(S'stupid'
p498
g41
F0.9906
tp499
asI59
(lp500
(S'thank'
p501
g6
F0.9631
tp502
a(S'you'
p503
g3
F0.9987
tp504
asI60
(lp505
(S'xxx'
p506
g44
F0.8437
tp507
asI61
(lp508
(S'thank'
p509
g6
F0.9631
tp510
a(S'you'
p511
g3
F0.9987
tp512
asI62
(lp513
(S'that'
p514
g3
F0.8288
tp515
a(S'was'
p516
g6
F0.9959
tp517
a(S'very'
p518
g38
F0.9989
tp519
a(S'nice'
p520
g41
F0.9997
tp521
a(S'of'
p522
g68
F0.9992
tp523
a(S'you'
p524
g3
F0.9993
tp525
a(S'to'
p526
g68
F0.9852
tp527
a(S'sit'
p528
g6
F0.9994
tp529
a(S'down'
p530
g285
F0.7349
tp531
a(S'like'
p532
g68
F0.961
tp533
a(g8
g9
F0.9911
tp534
a(S'good'
p535
g41
F0.9987
tp536
a(S'boy'
p537
g12
F0.9977
tp538
asI63
(lp539
(S'like'
p540
g68
F0.761
tp541
a(S'me'
p542
g3
F0.9993
tp543
asI64
(lp544
(S'yes'
p545
g27
F0.9939
tp546
a(S'that'
p547
g3
F0.6742
tp548
a(g5
g6
F0.5495
tp549
a(S'right'
p550
g41
F0.3578
tp551
asI65
(lp552
(S'here'
p553
g38
F0.9327
tp554
a(S'bro'
p555
g12
F0.783
tp556
asI66
(lp557
(S'mine'
p558
g3
F0.9042
tp559
asI67
(lp560
(S'see'
p561
g6
F0.8335
tp562
asI68
(lp563
(S'thanks'
p564
g12
F0.7788
tp565
a(S'chi'
p566
g142
F0.3118
tp567
asI69
(lp568
(S'ah'
p569
g27
F0.996
tp570
asI70
(lp571
(g33
g3
F0.9399
tp572
a(S'uh'
p573
g27
F0.922
tp574
a(g33
g3
F0.9773
tp575
a(S'oh'
p576
g27
F0.9532
tp577
a(g33
g3
F0.98
tp578
a(S'don'
p579
g6
F0.9198
tp580
a(g20
g68
F0.2633
tp581
a(S'collect'
p582
g6
F0.9626
tp583
a(S'charges'
p584
g6
F0.6609
tp585
a(S'for'
p586
g68
F0.9993
tp587
a(S'it'
p588
g3
F0.9978
tp589
asI71
(lp590
(g33
g3
F0.9812
tp591
a(S'only'
p592
g38
F0.9177
tp593
a(S'collect'
p594
g6
F0.9425
tp595
a(S'toys'
p596
g12
F0.9923
tp597
a(S'for'
p598
g68
F0.9997
tp599
a(S'it'
p600
g3
F0.998
tp601
asI72
(lp602
(S'you'
p603
g3
F0.9926
tp604
a(S'don'
p605
g6
F0.8675
tp606
a(g20
g12
F0.2503
tp607
a(S'want'
p608
g6
F0.9988
tp609
a(S'any'
p610
g9
F0.8485
tp611
a(S'them'
p612
g9
F0.7629
tp613
a(S'trucks'
p614
g12
F0.9799
tp615
asI73
(lp616
(S'oh'
p617
g27
F0.9987
tp618
a(S'yeah'
p619
g27
F0.9997
tp620
asI74
(lp621
(S'no'
p622
g27
F0.9253
tp623
asI75
(lp624
(S'okay'
p625
g27
F0.9857
tp626
asI76
(lp627
(S'how'
p628
g38
F0.9782
tp629
a(S'come'
p630
g6
F0.9829
tp631
asI77
(lp632
(S'w'
p633
g68
F0.8567
tp634
a(S'you'
p635
g3
F0.999
tp636
a(S'didn'
p637
g6
F0.9888
tp638
a(g20
g142
F0.552
tp639
a(S'xxx'
p640
g44
F0.6311
tp641
asI78
(lp642
(S'how'
p643
g38
F0.9782
tp644
a(S'come'
p645
g6
F0.9829
tp646
asI79
(lp647
(S'because'
p648
g68
F0.978
tp649
asI80
(lp650
(S'that'
p651
g3
F0.473
tp652
a(g5
g142
F0.4353
tp653
a(S'not'
p654
g38
F0.9971
tp655
a(S'shiny'
p656
g41
F0.9831
tp657
asI81
(lp658
(g33
g3
F0.9897
tp659
a(S'want'
p660
g6
F1.0
tp661
a(S'that'
p662
g3
F0.6637
tp663
a(S'that'
p664
g3
F0.7233
tp665
a(S'xxx'
p666
g44
F0.6727
tp667
asI82
(lp668
(S'www'
p669
g18
F0.3889
tp670
asI83
(lp671
(S'screams'
p672
g6
F0.7508
tp673
asI84
(lp674
(S'screams'
p675
g6
F0.7508
tp676
asI85
(lp677
(S'hey'
p678
g27
F0.9955
tp679
a(g33
g3
F0.9929
tp680
a(g35
g6
F0.9866
tp681
a(S'hungry'
p682
g41
F0.9513
tp683
asI86
(lp684
(S'www'
p685
g18
F0.3889
tp686
asI87
(lp687
(S'mommy'
p688
g12
F0.5271
tp689
asI88
(lp690
(S'so'
p691
g68
F0.7418
tp692
a(S'what'
p693
g3
F0.9978
tp694
a(S'do'
p695
g6
F0.9993
tp696
a(S'you'
p697
g3
F0.9996
tp698
a(S'want'
p699
g6
F0.9997
tp700
a(S'to'
p701
g68
F0.9762
tp702
a(S'do'
p703
g6
F0.9998
tp704
a(S'to'
p705
g68
F0.9504
tp706
a(S'uh'
p707
g27
F0.4196
tp708
a(S'go'
p709
g6
F0.9819
tp710
a(S'to'
p711
g68
F0.978
tp712
a(S'gabe'
p713
g18
F0.9909
tp714
a(g5
g142
F0.3583
tp715
a(S'party'
p716
g12
F0.9475
tp717
asI89
(lp718
(S'xxx'
p719
g44
F0.7523
tp720
a(S'maybe'
p721
g38
F0.9548
tp722
a(S'play'
p723
g6
F0.9879
tp724
a(S'something'
p725
g12
F0.9945
tp726
a(S'fast'
p727
g38
F0.6944
tp728
asI90
(lp729
(S'what'
p730
g3
F0.949
tp731
asI91
(lp732
(g33
g3
F0.986
tp733
a(S'might'
p734
g6
F0.9996
tp735
a(S'do'
p736
g6
F0.9999
tp737
a(S'that'
p738
g3
F0.8292
tp739
asI92
(lp740
(S'after'
p741
g68
F0.8217
tp742
a(g33
g3
F0.9972
tp743
a(g35
g6
F0.988
tp744
a(S'done'
p745
g6
F0.9742
tp746
a(S'reading'
p747
g6
F0.9978
tp748
a(S'the'
p749
g9
F0.9996
tp750
a(S'paper'
p751
g12
F0.9873
tp752
a(S'for'
p753
g68
F0.9997
tp754
a(g8
g9
F0.9985
tp755
a(S'little'
p756
g41
F0.9734
tp757
a(S'while'
p758
g68
F0.5829
tp759
asI93
(lp760
(S'mhm'
p761
g27
F0.9747
tp762
asI94
(lp763
(S'um'
p764
g27
F0.9326
tp765
a(S'mommy'
p766
g12
F0.4691
tp767
a(S'um'
p768
g27
F0.8258
tp769
asI95
(lp770
(S'the'
p771
g9
F0.9984
tp772
a(S'party'
p773
g12
F0.9749
tp774
a(g5
g142
F0.797
tp775
a(S'not'
p776
g38
F0.9952
tp777
a(S'till'
p778
g68
F0.9753
tp779
a(S'one'
p780
g136
F0.8931
tp781
asI96
(lp782
(S'come'
p783
g6
F0.9843
tp784
a(S'here'
p785
g38
F0.9694
tp786
asI97
(lp787
(S'one'
p788
g136
F0.9679
tp789
a(S'to'
p790
g68
F0.997
tp791
a(S'three'
p792
g136
F0.9183
tp793
a(S'xxx'
p794
g44
F0.6786
tp795
a(S'yeah'
p796
g27
F0.9923
tp797
asI98
(lp798
(S'can'
p799
g6
F0.9788
tp800
a(S'can'
p801
g6
F0.9994
tp802
a(g33
g3
F0.9777
tp803
a(S'watch'
p804
g6
F0.9996
tp805
a(S'some'
p806
g9
F0.9939
tp807
a(S'tv'
p808
g12
F0.9847
tp809
asI99
(lp810
(S'not'
p811
g38
F0.996
tp812
a(S'right'
p813
g38
F0.9293
tp814
a(S'now'
p815
g38
F0.991
tp816
asI100
(lp817
(S'no'
p818
g27
F0.9253
tp819
asI101
(lp820
(S'www'
p821
g18
F0.6048
tp822
a(S'scowls'
p823
g6
F0.8971
tp824
a(S'what'
p825
g3
F0.9941
tp826
asI102
(lp827
(S'they'
p828
g3
F0.9104
tp829
a(S're'
p830
g6
F0.8059
tp831
a(S'talking'
p832
g6
F0.9727
tp833
a(S'like'
p834
g68
F0.9472
tp835
a(S'sound'
p836
g6
F0.6169
tp837
a(S'downs'
p838
g12
F0.5335
tp839
asI103
(lp840
(S'so'
p841
g68
F0.8745
tp842
a(S'no'
p843
g9
F0.557
tp844
a(S'sounds'
p845
g12
F0.9269
tp846
asI104
(lp847
(S'because'
p848
g68
F0.9976
tp849
a(S'it'
p850
g3
F0.9984
tp851
asI105
(lp852
(S'no'
p853
g27
F0.8487
tp854
a(S'because'
p855
g68
F0.9987
tp856
a(S'we'
p857
g3
F0.9972
tp858
a(S're'
p859
g6
F0.7069
tp860
a(S'sort'
p861
g12
F0.9346
tp862
a(S'of'
p863
g68
F0.998
tp864
a(S'supposed'
p865
g41
F0.9387
tp866
a(S'to'
p867
g68
F0.9979
tp868
a(S'be'
p869
g6
F0.9991
tp870
a(S'having'
p871
g6
F0.9989
tp872
a(g8
g9
F0.9982
tp873
a(S'conversation'
p874
g12
F0.9998
tp875
asI106
(lp876
(S'your'
p877
g9
F0.9751
tp878
a(S'attention'
p879
g12
F0.9992
tp880
a(S'should'
p881
g6
F0.9984
tp882
a(S'sort'
p883
g6
F0.5967
tp884
a(S'of'
p885
g68
F0.9912
tp886
a(S'be'
p887
g6
F0.9528
tp888
a(S'on'
p889
g68
F0.9438
tp890
a(S'what'
p891
g3
F0.9887
tp892
a(S'we'
p893
g3
F0.9944
tp894
a(S're'
p895
g6
F0.6553
tp896
a(S'doing'
p897
g6
F0.9974
tp898
a(S'instead'
p899
g38
F0.9099
tp900
a(S'of'
p901
g68
F0.9719
tp902
a(S'on'
p903
g68
F0.9901
tp904
a(S'the'
p905
g9
F0.9995
tp906
a(S'tv'
p907
g12
F0.9864
tp908
asI107
(lp909
(S'oh'
p910
g27
F0.9988
tp911
asI108
(lp912
(S'laughs'
p913
g6
F0.9102
tp914
asI109
(lp915
(S'okay'
p916
g27
F0.777
tp917
a(S'honey'
p918
g12
F0.5778
tp919
asI110
(lp920
(S'mhm'
p921
g27
F0.9747
tp922
asI111
(lp923
(S'okay'
p924
g27
F0.9722
tp925
a(S'you'
p926
g3
F0.9874
tp927
asI112
(lp928
(S'www'
p929
g18
F0.3889
tp930
asI113
(lp931
(S'oh'
p932
g27
F0.9988
tp933
asI114
(lp934
(S'you'
p935
g3
F0.9983
tp936
a(S'know'
p937
g6
F0.9977
tp938
a(S'xxx'
p939
g44
F0.373
tp940
a(S'and'
p941
g261
F0.9983
tp942
a(S'our'
p943
g9
F0.6675
tp944
a(S'like'
p945
g68
F0.5412
tp946
a(S'one'
p947
g136
F0.9643
tp948
a(S'of'
p949
g68
F0.9991
tp950
a(S'those'
p951
g9
F0.8949
tp952
a(S'wrestling'
p953
g12
F0.9617
tp954
a(S'buddies'
p955
g12
F0.9983
tp956
a(S'for'
p957
g68
F0.9997
tp958
a(S'twenty'
p959
g136
F0.5187
tp960
a(S'six'
p961
g136
F0.4525
tp962
a(S'or'
p963
g261
F0.987
tp964
a(S'xxx'
p965
g44
F0.6745
tp966
a(S'twenty'
p967
g136
F0.4989
tp968
a(S'five'
p969
g136
F0.8261
tp970
a(S'dollars'
p971
g12
F0.9938
tp972
asI115
(lp973
(S'no'
p974
g27
F0.7822
tp975
a(S'no'
p976
g27
F0.5387
tp977
a(S'no'
p978
g27
F0.7065
tp979
asI116
(lp980
(S'save'
p981
g6
F0.9967
tp982
a(S'up'
p983
g285
F0.9859
tp984
asI117
(lp985
(g33
g3
F0.953
tp986
a(g35
g6
F0.9842
tp987
a(S'savin'
p988
g6
F0.716
tp989
a(S'g'
p990
g6
F0.6957
tp991
a(S'up'
p992
g285
F0.9304
tp993
a(S'for'
p994
g68
F0.9993
tp995
a(g8
g9
F0.9961
tp996
a(S'nintendo'
p997
g18
F0.9368
tp998
a(S'game'
p999
g12
F0.9937
tp1000
a(S'or'
p1001
g261
F0.9938
tp1002
a(g8
g9
F0.917
tp1003
a(S'xxx'
p1004
g44
F0.4212
tp1005
asI118
(lp1006
(S'really'
p1007
g38
F0.998
tp1008
a(S'laughs'
p1009
g6
F0.997
tp1010
asI119
(lp1011
(g33
g3
F0.9897
tp1012
a(S'want'
p1013
g6
F1.0
tp1014
a(S'the'
p1015
g9
F0.996
tp1016
a(S'dump'
p1017
g12
F0.9811
tp1018
a(S'truck'
p1019
g12
F0.9929
tp1020
asI120
(lp1021
(S'what'
p1022
g3
F0.8836
tp1023
a(S'nintendo'
p1024
g18
F0.826
tp1025
a(S'game'
p1026
g12
F0.9937
tp1027
asI121
(lp1028
(g33
g3
F0.9902
tp1029
a(S'want'
p1030
g6
F0.9999
tp1031
a(S'that'
p1032
g3
F0.8053
tp1033
asI122
(lp1034
(S'million'
p1035
g136
F0.5647
tp1036
a(S'two'
p1037
g136
F0.9683
tp1038
a(S'million'
p1039
g12
F0.4775
tp1040
a(S'xxx'
p1041
g44
F0.4129
tp1042
a(S'game'
p1043
g12
F0.9624
tp1044
asI123
(lp1045
(S'game'
p1046
g12
F0.9452
tp1047
a(S'genie'
p1048
g12
F0.9767
tp1049
a(S'baseball'
p1050
g12
F0.9849
tp1051
a(g5
g142
F0.9347
tp1052
a(S'xxx'
p1053
g44
F0.3587
tp1054
a(S'baseball'
p1055
g12
F0.9583
tp1056
asI124
(lp1057
(S'sneezes'
p1058
g6
F0.6777
tp1059
asI125
(lp1060
(S'sneezes'
p1061
g6
F0.6777
tp1062
asI126
(lp1063
(S'xxx'
p1064
g44
F0.8437
tp1065
asI127
(lp1066
(S'bro'
p1067
g12
F0.7862
tp1068
asI128
(lp1069
(S'baseball'
p1070
g12
F0.8956
tp1071
a(S'xxx'
p1072
g44
F0.6488
tp1073
a(S'one'
p1074
g136
F0.9144
tp1075
a(S'zero'
p1076
g136
F0.3186
tp1077
a(S'zero'
p1078
g136
F0.3306
tp1079
a(S'one'
p1080
g136
F0.9412
tp1081
a(S'zero'
p1082
g136
F0.2951
tp1083
a(S'zero'
p1084
g136
F0.3057
tp1085
a(S'zero'
p1086
g12
F0.5949
tp1087
asI129
(lp1088
(S'www'
p1089
g18
F0.3889
tp1090
asI130
(lp1091
(S'wait'
p1092
g6
F0.9862
tp1093
a(S'wait'
p1094
g6
F0.9832
tp1095
a(S'wait'
p1096
g6
F0.9424
tp1097
asI131
(lp1098
(S'wait'
p1099
g6
F0.9113
tp1100
asI132
(lp1101
(S'www'
p1102
g18
F0.3889
tp1103
asI133
(lp1104
(S'excuse'
p1105
g6
F0.9751
tp1106
a(S'me'
p1107
g3
F0.9992
tp1108
a(S'just'
p1109
g38
F0.9993
tp1110
a(g8
g9
F0.9925
tp1111
a(S'second'
p1112
g41
F0.8542
tp1113
asI134
(lp1114
(g33
g3
F0.9586
tp1115
a(g35
g6
F0.9153
tp1116
a(S'xxx'
p1117
g44
F0.6357
tp1118
asI135
(lp1119
(S'www'
p1120
g18
F0.3889
tp1121
asI136
(lp1122
(S'www'
p1123
g18
F0.3889
tp1124
asI137
(lp1125
(S'so'
p1126
g38
F0.5614
tp1127
a(S'maybe'
p1128
g38
F0.9837
tp1129
a(S'um'
p1130
g27
F0.7317
tp1131
asI138
(lp1132
(S'taste'
p1133
g6
F0.5227
tp1134
asI139
(lp1135
(S'tomorrow'
p1136
g12
F0.918
tp1137
a(S'alright'
p1138
g27
F0.9259
tp1139
asI140
(lp1140
(S'are'
p1141
g6
F0.9964
tp1142
a(S'you'
p1143
g3
F0.9992
tp1144
a(S'still'
p1145
g38
F0.9973
tp1146
a(S'talking'
p1147
g6
F0.9993
tp1148
a(S'your'
p1149
g9
F0.984
tp1150
a(S'christmas'
p1151
g18
F0.909
tp1152
a(S'list'
p1153
g12
F0.9691
tp1154
asI141
(lp1155
(S'be'
p1156
g6
F0.9727
tp1157
a(S'cause'
p1158
g68
F0.7105
tp1159
a(g33
g3
F0.9951
tp1160
a(S'thought'
p1161
g6
F0.9998
tp1162
a(S'it'
p1163
g3
F0.9966
tp1164
a(S'was'
p1165
g6
F0.9995
tp1166
a(S'something'
p1167
g12
F0.9698
tp1168
a(S'else'
p1169
g38
F0.9602
tp1170
asI142
(lp1171
(S'mhm'
p1172
g27
F0.9747
tp1173
asI143
(lp1174
(S'n'
p1175
g261
F0.9105
tp1176
a(S'no'
p1177
g9
F0.4672
tp1178
asI144
(lp1179
(S'hm'
p1180
g27
F0.9946
tp1181
a(S'yeah'
p1182
g27
F0.9992
tp1183
asI145
(lp1184
(S'it'
p1185
g3
F0.9858
tp1186
a(g5
g6
F0.7321
tp1187
a(S'mine'
p1188
g3
F0.9658
tp1189
asI146
(lp1190
(g1175
g261
F0.9129
tp1191
a(S'no'
p1192
g9
F0.4563
tp1193
a(S'it'
p1194
g3
F0.9505
tp1195
a(g5
g6
F0.6002
tp1196
a(S'mine'
p1197
g3
F0.9727
tp1198
asI147
(lp1199
(g1175
g261
F0.9105
tp1200
a(S'no'
p1201
g9
F0.4672
tp1202
asI148
(lp1203
(S'gimme'
p1204
S'L'
p1205
F0.6191
tp1206
a(S'd'
p1207
g142
F0.4431
tp1208
asI149
(lp1209
(S'no'
p1210
g9
F0.4725
tp1211
a(S'see'
p1212
g6
F0.7642
tp1213
a(S'mine'
p1214
g3
F0.8969
tp1215
a(S'has'
p1216
g6
F0.9988
tp1217
a(S'the'
p1218
g9
F0.9752
tp1219
a(S'the'
p1220
g9
F0.9706
tp1221
a(S'white'
p1222
g41
F0.8078
tp1223
a(S'on'
p1224
g68
F0.998
tp1225
a(S'it'
p1226
g3
F0.9975
tp1227
asI150
(lp1228
(S'yours'
p1229
g3
F0.9253
tp1230
a(S'doesn'
p1231
g6
F0.9726
tp1232
a(g20
g142
F0.4155
tp1233
asI151
(lp1234
(S'see'
p1235
g6
F0.9926
tp1236
a(S'yours'
p1237
g3
F0.8127
tp1238
a(S'are'
p1239
g6
F0.999
tp1240
a(S'all'
p1241
S'X'
p1242
F0.7339
tp1243
a(S'the'
p1244
g9
F0.9987
tp1245
a(S'xxx'
p1246
g44
F0.4627
tp1247
asI152
(lp1248
(S'no'
p1249
g27
F0.6532
tp1250
a(g33
g3
F0.9612
tp1251
a(S'want'
p1252
g6
F0.9996
tp1253
a(g33
g3
F0.9958
tp1254
a(S'want'
p1255
g6
F0.9999
tp1256
a(S'www'
p1257
g18
F0.4968
tp1258
asI153
(lp1259
(S'oh'
p1260
g27
F0.9936
tp1261
a(S'look'
p1262
g6
F0.9841
tp1263
a(S'you'
p1264
g3
F0.9802
tp1265
a(S'guys'
p1266
g12
F0.9779
tp1267
asI154
(lp1268
(S'www'
p1269
g18
F0.3889
tp1270
asI155
(lp1271
(g33
g3
F0.9586
tp1272
a(g35
g6
F0.9298
tp1273
a(S'sorry'
p1274
g41
F0.8759
tp1275
asI156
(lp1276
(S'what'
p1277
g3
F0.9956
tp1278
a(S'is'
p1279
g6
F0.9992
tp1280
a(S'that'
p1281
g3
F0.9565
tp1282
asI157
(lp1283
(g33
g3
F0.9586
tp1284
a(g35
g6
F0.9298
tp1285
a(S'sorry'
p1286
g41
F0.8759
tp1287
asI158
(lp1288
(S'xxx'
p1289
g44
F0.6042
tp1290
a(S'that'
p1291
g3
F0.7947
tp1292
a(S'was'
p1293
g6
F0.9993
tp1294
a(S'mine'
p1295
g3
F0.9704
tp1296
asI159
(lp1297
(S'hunhunh'
p1298
g38
F0.2059
tp1299
a(S'bad'
p1300
g41
F0.9994
tp1301
a(S'boy'
p1302
g12
F0.9974
tp1303
asI160
(lp1304
(S'0'
p1305
g136
F0.9644
tp1306
a(S'clears'
p1307
g6
F0.8351
tp1308
a(S'throat'
p1309
g12
F0.9556
tp1310
asI161
(lp1311
(S'laughs'
p1312
g6
F0.9102
tp1313
asI162
(lp1314
(S'when'
p1315
g38
F0.9614
tp1316
a(g5
g142
F0.7358
tp1317
a(S'the'
p1318
g9
F0.9955
tp1319
a(S'opening'
p1320
g12
F0.7843
tp1321
a(S'statement'
p1322
g12
F0.9785
tp1323
asI163
(lp1324
(g1207
g18
F0.3055
tp1325
a(S'daddy'
p1326
g12
F0.9401
tp1327
a(S'read'
p1328
g6
F0.9938
tp1329
a(S'this'
p1330
g3
F0.7533
tp1331
asI164
(lp1332
(S'xxx'
p1333
g44
F0.5769
tp1334
a(S'his'
p1335
g9
F0.9947
tp1336
a(S'supper'
p1337
g12
F0.9929
tp1338
a(S'today'
p1339
g12
F0.9983
tp1340
asI165
(lp1341
(S'hey'
p1342
g27
F0.9986
tp1343
asI166
(lp1344
(S'eat'
p1345
g6
F0.9778
tp1346
a(S'this'
p1347
g3
F0.5782
tp1348
asI167
(lp1349
(S'what'
p1350
g3
F0.949
tp1351
asI168
(lp1352
(S'www'
p1353
g18
F0.3889
tp1354
asI169
(lp1355
(S'alright'
p1356
g27
F0.8775
tp1357
a(S'anyway'
p1358
g38
F0.9186
tp1359
asI170
(lp1360
(S'do'
p1361
g6
F0.9985
tp1362
a(S'you'
p1363
g3
F0.9996
tp1364
a(S'want'
p1365
g6
F0.9997
tp1366
a(S'to'
p1367
g68
F0.9924
tp1368
a(S'spell'
p1369
g6
F0.9555
tp1370
a(S'christmas'
p1371
g18
F0.9678
tp1372
a(S'q'
p1373
g142
F0.3504
tp1374
a(S'right'
p1375
g41
F0.3794
tp1376
asI171
(lp1377
(S'or'
p1378
g261
F0.9873
tp1379
a(S'do'
p1380
g6
F0.9995
tp1381
a(S'you'
p1382
g3
F0.9997
tp1383
a(S'want'
p1384
g6
F0.9997
tp1385
a(S'to'
p1386
g68
F0.9675
tp1387
a(S'just'
p1388
g38
F0.9977
tp1389
a(S'continue'
p1390
g6
F0.9938
tp1391
asI172
(lp1392
(S'hey'
p1393
g27
F0.9876
tp1394
a(S'dad'
p1395
g12
F0.8822
tp1396
asI173
(lp1397
(S'daddy'
p1398
g12
F0.9436
tp1399
asI174
(lp1400
(S'bigger'
p1401
g41
F0.9699
tp1402
a(S'than'
p1403
g68
F0.9956
tp1404
a(S'dump'
p1405
g12
F0.6936
tp1406
a(S'truck'
p1407
g12
F0.9979
tp1408
asI175
(lp1409
(g33
g3
F0.953
tp1410
a(g35
g6
F0.9784
tp1411
a(S'not'
p1412
g38
F0.995
tp1413
a(S'gonna'
p1414
g6
F0.9897
tp1415
a(S'xxx'
p1416
g6
F0.7001
tp1417
a(S'today'
p1418
g12
F0.9816
tp1419
asI176
(lp1420
(S'yeah'
p1421
g27
F0.9904
tp1422
a(S'here'
p1423
g38
F0.9656
tp1424
a(S'here'
p1425
g38
F0.9741
tp1426
a(S'have'
p1427
g6
F0.8727
tp1428
asI177
(lp1429
(S'here'
p1430
g38
F0.7796
tp1431
asI178
(lp1432
(g33
g3
F0.953
tp1433
a(g35
g6
F0.9784
tp1434
a(S'not'
p1435
g38
F0.995
tp1436
a(S'gonna'
p1437
g6
F0.9897
tp1438
a(S'xxx'
p1439
g6
F0.7001
tp1440
a(S'today'
p1441
g12
F0.9816
tp1442
asI179
(lp1443
(S'here'
p1444
g38
F0.9812
tp1445
a(S'here'
p1446
g38
F0.9664
tp1447
asI180
(lp1448
(S'mommy'
p1449
g12
F0.5271
tp1450
asI181
(lp1451
(S'mommy'
p1452
g12
F0.7309
tp1453
a(S'is'
p1454
g6
F0.997
tp1455
a(S'gonna'
p1456
g6
F0.9874
tp1457
a(S'spell'
p1458
g6
F0.9275
tp1459
a(S'christmas'
p1460
g18
F0.9611
tp1461
a(g1373
g142
F0.4711
tp1462
asI182
(lp1463
(S'this'
p1464
g3
F0.9521
tp1465
a(S'is'
p1466
g6
F0.9987
tp1467
a(S'the'
p1468
g9
F0.9854
tp1469
asI183
(lp1470
(S'like'
p1471
g68
F0.8911
tp1472
a(S'this'
p1473
g3
F0.8988
tp1474
asI184
(lp1475
(S'www'
p1476
g18
F0.3889
tp1477
asI185
(lp1478
(S'no'
p1479
g27
F0.7985
tp1480
a(S'you'
p1481
g3
F0.9776
tp1482
a(S're'
p1483
g6
F0.5559
tp1484
a(S'gonna'
p1485
g6
F0.994
tp1486
a(S'spell'
p1487
g6
F0.9977
tp1488
a(S'it'
p1489
g3
F0.9837
tp1490
a(S'chr'
p1491
g142
F0.4964
tp1492
a(S'k'
p1493
g142
F0.7684
tp1494
asI186
(lp1495
(g33
g3
F0.9902
tp1496
a(S'want'
p1497
g6
F0.9999
tp1498
a(S'those'
p1499
g3
F0.6164
tp1500
asI187
(lp1501
(S'you'
p1502
g3
F0.997
tp1503
a(S'want'
p1504
g6
F0.9998
tp1505
a(S'those'
p1506
g3
F0.6164
tp1507
asI188
(lp1508
(S'you'
p1509
g3
F0.9721
tp1510
a(S'better'
p1511
g41
F0.6701
tp1512
a(S'ask'
p1513
g6
F0.6695
tp1514
a(S'santa'
p1515
g18
F0.9902
tp1516
a(S'claus'
p1517
g18
F0.9431
tp1518
a(S'then'
p1519
g38
F0.9774
tp1520
asI189
(lp1521
(S'but'
p1522
g261
F0.9901
tp1523
asI190
(lp1524
(S'but'
p1525
g261
F0.9931
tp1526
a(S'dad'
p1527
g12
F0.9143
tp1528
a(S'but'
p1529
g261
F0.9907
tp1530
a(S'daddy'
p1531
g12
F0.9712
tp1532
a(S'willn'
p1533
g142
F0.3705
tp1534
a(g20
g142
F0.6009
tp1535
a(S'let'
p1536
g6
F0.998
tp1537
a(S'me'
p1538
g3
F0.9993
tp1539
a(S'use'
p1540
g6
F0.9848
tp1541
a(S'it'
p1542
g3
F0.9851
tp1543
asI191
(lp1544
(S'okay'
p1545
g27
F0.9857
tp1546
asI192
(lp1547
(S'you'
p1548
g3
F0.997
tp1549
a(S'ask'
p1550
g6
F0.9968
tp1551
a(S'santa'
p1552
g18
F0.9937
tp1553
a(S'claus'
p1554
g18
F0.9615
tp1555
a(S'if'
p1556
g68
F0.9983
tp1557
a(S'you'
p1558
g3
F0.9998
tp1559
a(S'want'
p1560
g6
F0.9988
tp1561
asI193
(lp1562
(S'it'
p1563
g3
F0.9888
tp1564
a(g5
g6
F0.5384
tp1565
a(S'too'
p1566
g38
F0.9974
tp1567
a(S'fine'
p1568
g41
F0.9847
tp1569
asI194
(lp1570
(S'xxx'
p1571
g44
F0.4267
tp1572
a(S'you'
p1573
g3
F0.9944
tp1574
a(S'don'
p1575
g6
F0.8576
tp1576
a(g20
g142
F0.2347
tp1577
a(S'need'
p1578
g6
F0.9854
tp1579
a(S'to'
p1580
g68
F0.9879
tp1581
a(S'use'
p1582
g6
F0.9981
tp1583
a(S'it'
p1584
g3
F0.9932
tp1585
asI195
(lp1586
(g33
g3
F0.9583
tp1587
a(g33
g3
F0.9505
tp1588
a(g35
g6
F0.9794
tp1589
a(S'not'
p1590
g38
F0.992
tp1591
a(S'copying'
p1592
g6
F0.9984
tp1593
a(S'over'
p1594
g68
F0.5437
tp1595
asI196
(lp1596
(S'let'
p1597
g6
F0.9968
tp1598
a(S'me'
p1599
g3
F0.9996
tp1600
a(S'see'
p1601
g6
F0.969
tp1602
asI197
(lp1603
(S'under'
p1604
g68
F0.9117
tp1605
a(S'response'
p1606
g12
F0.9774
tp1607
a(S'to'
p1608
g68
F0.992
tp1609
a(S'over'
p1610
g68
F0.5547
tp1611
a(S'you'
p1612
g3
F0.9994
tp1613
asI198
(lp1614
(S'not'
p1615
g38
F0.9798
tp1616
a(S'this'
p1617
g9
F0.9223
tp1618
a(S'one'
p1619
g136
F0.6915
tp1620
asI199
(lp1621
(S'there'
p1622
g1242
F0.4664
tp1623
a(g5
g142
F0.4396
tp1624
a(S'another'
p1625
g9
F0.9759
tp1626
a(S'one'
p1627
g136
F0.8812
tp1628
a(S'over'
p1629
g68
F0.9473
tp1630
a(S'there'
p1631
g38
F0.6868
tp1632
asI200
(lp1633
(S'come'
p1634
g6
F0.9849
tp1635
a(S'on'
p1636
g285
F0.5632
tp1637
asI201
(lp1638
(S'hey'
p1639
g27
F0.9986
tp1640
asI202
(lp1641
(S'he'
p1642
g3
F0.9858
tp1643
a(S'xxx'
p1644
g44
F0.4698
tp1645
asI203
(lp1646
(S'oh'
p1647
g27
F0.9988
tp1648
asI204
(lp1649
(S'xxx'
p1650
g44
F0.8437
tp1651
asI205
(lp1652
(S'what'
p1653
g3
F0.9965
tp1654
a(S'did'
p1655
g6
F0.9992
tp1656
a(S'you'
p1657
g3
F0.9995
tp1658
a(S'do'
p1659
g6
F0.9989
tp1660
asI206
(lp1661
(S'did'
p1662
g6
F0.9986
tp1663
a(S'you'
p1664
g3
F0.998
tp1665
a(S'just'
p1666
g38
F0.9997
tp1667
a(S'get'
p1668
g6
F0.9999
tp1669
a(S'yourself'
p1670
g3
F0.97
tp1671
a(S'some'
p1672
g9
F0.8277
tp1673
a(S'more'
p1674
g41
F0.9911
tp1675
a(S'paper'
p1676
g12
F0.9974
tp1677
asI207
(lp1678
(S'not'
p1679
g38
F0.954
tp1680
a(S'that'
p1681
g3
F0.7489
tp1682
asI208
(lp1683
(S'oh'
p1684
g27
F0.9938
tp1685
a(S'growls'
p1686
g6
F0.9638
tp1687
a(S'look'
p1688
g6
F0.8562
tp1689
asI209
(lp1690
(S'xxx'
p1691
g44
F0.8437
tp1692
asI210
(lp1693
(S'yeah'
p1694
g27
F0.998
tp1695
a(g33
g3
F0.997
tp1696
a(S'know'
p1697
g6
F0.9992
tp1698
asI211
(lp1699
(S'yeah'
p1700
g27
F0.9901
tp1701
a(S'take'
p1702
g6
F0.9647
tp1703
a(S'put'
p1704
g6
F0.9775
tp1705
a(S'it'
p1706
g3
F0.9628
tp1707
a(S'on'
p1708
g68
F0.9292
tp1709
a(g8
g9
F0.9968
tp1710
a(S'plate'
p1711
g12
F0.997
tp1712
a(S'please'
p1713
g6
F0.9685
tp1714
asI212
(lp1715
(S'oh'
p1716
g27
F0.9985
tp1717
a(S'why'
p1718
g38
F0.6158
tp1719
asI213
(lp1720
(S'train'
p1721
g12
F0.9408
tp1722
asI214
(lp1723
(S'no'
p1724
g27
F0.9033
tp1725
a(S'where'
p1726
g38
F0.9438
tp1727
asI215
(lp1728
(S'xxx'
p1729
g44
F0.8437
tp1730
asI216
(lp1731
(S'there'
p1732
g1242
F0.6048
tp1733
a(S'was'
p1734
g6
F0.9945
tp1735
a(S'um'
p1736
g27
F0.6609
tp1737
asI217
(lp1738
(S'train'
p1739
g12
F0.9408
tp1740
asI218
(lp1741
(S'no'
p1742
g27
F0.5844
tp1743
a(S'there'
p1744
g38
F0.4696
tp1745
a(S'was'
p1746
g6
F0.9989
tp1747
a(S'another'
p1748
g9
F0.9933
tp1749
a(S'one'
p1750
g136
F0.936
tp1751
a(S'like'
p1752
g68
F0.9882
tp1753
a(S'this'
p1754
g3
F0.8515
tp1755
asI219
(lp1756
(S'train'
p1757
g12
F0.9408
tp1758
asI220
(lp1759
(g33
g3
F0.9896
tp1760
a(S'had'
p1761
g6
F0.9996
tp1762
a(S'two'
p1763
g136
F0.9719
tp1764
a(S'of'
p1765
g68
F0.9983
tp1766
a(S'these'
p1767
g9
F0.4983
tp1768
a(S'in'
p1769
g68
F0.9603
tp1770
a(S'here'
p1771
g38
F0.9095
tp1772
asI221
(lp1773
(S'yeah'
p1774
g27
F0.9957
tp1775
a(S'you'
p1776
g3
F0.9994
tp1777
a(S'did'
p1778
g6
F0.9987
tp1779
asI222
(lp1780
(S'but'
p1781
g261
F0.9948
tp1782
a(g33
g3
F0.9899
tp1783
a(S'don'
p1784
g6
F0.9187
tp1785
a(g20
g12
F0.2208
tp1786
a(S'know'
p1787
g6
F0.9899
tp1788
a(S'where'
p1789
g38
F0.9661
tp1790
a(S'it'
p1791
g3
F0.9987
tp1792
a(S'is'
p1793
g6
F0.9993
tp1794
a(S'now'
p1795
g38
F0.9968
tp1796
asI223
(lp1797
(S'gee'
p1798
g27
F0.989
tp1799
asI224
(lp1800
(S'did'
p1801
g6
F0.9986
tp1802
a(S'you'
p1803
g3
F0.9987
tp1804
a(S'take'
p1805
g6
F0.9999
tp1806
a(S'it'
p1807
g3
F0.8719
tp1808
asI225
(lp1809
(S'www'
p1810
g18
F0.3889
tp1811
asI226
(lp1812
(S'no'
p1813
g27
F0.9253
tp1814
asI227
(lp1815
(S'you'
p1816
g3
F0.9787
tp1817
a(S'y'
p1818
g38
F0.5948
tp1819
a(S'you'
p1820
g3
F0.9991
tp1821
a(S'xxx'
p1822
g6
F0.8808
tp1823
a(S'that'
p1824
g3
F0.4747
tp1825
a(g33
g3
F0.9908
tp1826
a(S'used'
p1827
g6
F0.9952
tp1828
a(S'both'
p1829
g3
F0.3934
tp1830
a(S'the'
p1831
g9
F0.9979
tp1832
a(S'pencil'
p1833
g12
F0.9904
tp1834
a(S'xxx'
p1835
g44
F0.8163
tp1836
asI228
(lp1837
(S'and'
p1838
g261
F0.9991
tp1839
a(S'your'
p1840
g9
F0.9433
tp1841
a(S'pen'
p1842
g12
F0.9867
tp1843
a(S'is'
p1844
g6
F0.9979
tp1845
a(S'missin'
p1846
g6
F0.4132
tp1847
a(g990
g12
F0.3314
tp1848
a(S'too'
p1849
g38
F0.811
tp1850
a(S'isn'
p1851
g142
F0.5759
tp1852
a(g20
g142
F0.5194
tp1853
a(S'it'
p1854
g3
F0.9777
tp1855
asI229
(lp1856
(S'no'
p1857
g27
F0.9253
tp1858
asI230
(lp1859
(S'mine'
p1860
g3
F0.9638
tp1861
a(g5
g142
F0.5075
tp1862
a(S'right'
p1863
g38
F0.6868
tp1864
a(S'here'
p1865
g38
F0.9752
tp1866
asI231
(lp1867
(g1175
g261
F0.9129
tp1868
a(S'no'
p1869
g9
F0.7529
tp1870
a(g33
g3
F0.7937
tp1871
a(S'mean'
p1872
g6
F0.9757
tp1873
a(S'uh'
p1874
g27
F0.8474
tp1875
a(S'these'
p1876
g9
F0.8974
tp1877
a(S'fine'
p1878
g41
F0.9903
tp1879
a(S'point'
p1880
g12
F0.9935
tp1881
a(S'uh'
p1882
g27
F0.7249
tp1883
a(S'extra'
p1884
g41
F0.8014
tp1885
a(S'fine'
p1886
g41
F0.9652
tp1887
a(S'point'
p1888
g12
F0.9951
tp1889
asI232
(lp1890
(g33
g3
F0.9896
tp1891
a(S'have'
p1892
g6
F0.9993
tp1893
a(g33
g3
F0.9947
tp1894
a(S'have'
p1895
g6
F0.9994
tp1896
a(S'extra'
p1897
g41
F0.6977
tp1898
a(S'fine'
p1899
g41
F0.9633
tp1900
a(S'points'
p1901
g12
F0.998
tp1902
asI233
(lp1903
(S're'
p1904
g12
F0.7409
tp1905
a(S'member'
p1906
g12
F0.9402
tp1907
a(S'the'
p1908
g9
F0.9972
tp1909
a(S'one'
p1910
g136
F0.9307
tp1911
a(S'the'
p1912
g9
F0.9969
tp1913
a(S'one'
p1914
g136
F0.9074
tp1915
a(g33
g3
F0.9704
tp1916
a(S'gave'
p1917
g6
F0.9999
tp1918
a(S'you'
p1919
g3
F0.9971
tp1920
asI234
(lp1921
(S'oh'
p1922
g27
F0.9987
tp1923
a(S'yeah'
p1924
g27
F0.9997
tp1925
asI235
(lp1926
(S'that'
p1927
g3
F0.473
tp1928
a(g5
g6
F0.621
tp1929
a(S'on'
p1930
g68
F0.9439
tp1931
a(S'your'
p1932
g9
F0.9943
tp1933
a(S'bureau'
p1934
g12
F0.9966
tp1935
asI236
(lp1936
(g33
g3
F0.9897
tp1937
a(S'mean'
p1938
g6
F0.9921
tp1939
a(S'on'
p1940
g68
F0.505
tp1941
a(S'on'
p1942
g68
F0.9898
tp1943
a(S'that'
p1944
g9
F0.8457
tp1945
a(S'little'
p1946
g41
F0.9945
tp1947
a(S'table'
p1948
g12
F0.9965
tp1949
asI237
(lp1950
(S'well'
p1951
g27
F0.741
tp1952
a(S'you'
p1953
g3
F0.9994
tp1954
a(S'can'
p1955
g6
F0.9994
tp1956
a(g20
g6
F0.7751
tp1957
a(g1818
g38
F0.7836
tp1958
a(S'you'
p1959
g3
F0.9997
tp1960
a(S'can'
p1961
g6
F0.9993
tp1962
a(g20
g6
F0.9485
tp1963
a(S'you'
p1964
g3
F0.9994
tp1965
a(S'can'
p1966
g6
F0.9993
tp1967
a(g20
g6
F0.8114
tp1968
a(S'use'
p1969
g6
F0.9327
tp1970
a(S'that'
p1971
g9
F0.6717
tp1972
a(S'one'
p1973
g136
F0.912
tp1974
a(S'chi'
p1975
g142
F0.3021
tp1976
asI238
(lp1977
(S'one'
p1978
g136
F0.7703
tp1979
asI239
(lp1980
(S'are'
p1981
g6
F0.9964
tp1982
a(S'you'
p1983
g3
F0.9984
tp1984
a(S'sure'
p1985
g41
F0.8769
tp1986
a(S'those'
p1987
g3
F0.5006
tp1988
a(S'are'
p1989
g6
F0.9949
tp1990
a(S'xxx'
p1991
g44
F0.7695
tp1992
asI240
(lp1993
(S'you'
p1994
g3
F0.998
tp1995
a(S'have'
p1996
g6
F0.9994
tp1997
a(S'to'
p1998
g68
F0.9958
tp1999
a(S'either'
p2000
g9
F0.642
tp2001
a(S'find'
p2002
g6
F0.9832
tp2003
a(S'yours'
p2004
g3
F0.9158
tp2005
a(S'or'
p2006
g261
F0.9842
tp2007
a(S'there'
p2008
g38
F0.7099
tp2009
a(g5
g6
F0.4497
tp2010
a(S'another'
p2011
g9
F0.985
tp2012
a(S'one'
p2013
g136
F0.8985
tp2014
a(S'around'
p2015
g68
F0.8229
tp2016
a(S'like'
p2017
g68
F0.8942
tp2018
a(S'this'
p2019
g3
F0.8932
tp2020
asI241
(lp2021
(S'uh'
p2022
g27
F0.9849
tp2023
a(g33
g3
F0.9946
tp2024
a(S'have'
p2025
g6
F0.9998
tp2026
a(S'to'
p2027
g68
F0.9979
tp2028
a(S'get'
p2029
g6
F0.9999
tp2030
a(S'mine'
p2031
g3
F0.9752
tp2032
asI242
(lp2033
(S'hold'
p2034
g6
F0.9639
tp2035
a(S'on'
p2036
g285
F0.6538
tp2037
a(S'mom'
p2038
g12
F0.9754
tp2039
asI243
(lp2040
(S'and'
p2041
g261
F0.9989
tp2042
a(S'you'
p2043
g3
F0.9977
tp2044
asI244
(lp2045
(S'what'
p2046
g3
F0.9835
tp2047
a(S'are'
p2048
g6
F0.9978
tp2049
a(S'you'
p2050
g3
F0.9994
tp2051
a(S'doin'
p2052
g6
F0.9986
tp2053
a(g990
g6
F0.6541
tp2054
a(S'up'
p2055
g285
F0.8801
tp2056
a(S'here'
p2057
g38
F0.9859
tp2058
a(S'little'
p2059
g41
F0.993
tp2060
a(S'monkey'
p2061
g12
F0.9894
tp2062
asI245
(lp2063
(S'uh'
p2064
g27
F0.9927
tp2065
asI246
(lp2066
(g33
g3
F0.9914
tp2067
a(S'was'
p2068
g6
F0.9998
tp2069
a(S'on'
p2070
g68
F0.6501
tp2071
a(S'here'
p2072
g38
F0.9398
tp2073
asI247
(lp2074
(g1818
g38
F0.6573
tp2075
a(S'you'
p2076
g3
F0.9986
tp2077
a(S'what'
p2078
g3
F0.9287
tp2079
asI248
(lp2080
(S'you'
p2081
g3
F0.9765
tp2082
a(g33
g3
F0.9482
tp2083
a(S'was'
p2084
g6
F0.9999
tp2085
a(S'on'
p2086
g68
F0.7515
tp2087
a(S'here'
p2088
g38
F0.9909
tp2089
a(S'www'
p2090
g18
F0.3796
tp2091
asI249
(lp2092
(S'ah'
p2093
g27
F0.996
tp2094
asI250
(lp2095
(g33
g3
F0.9897
tp2096
a(S'want'
p2097
g6
F0.9996
tp2098
a(g33
g3
F0.9952
tp2099
a(S'wanna'
p2100
g6
F0.9965
tp2101
a(S'get'
p2102
g6
F0.9999
tp2103
a(S'that'
p2104
g3
F0.8555
tp2105
asI251
(lp2106
(S'watch'
p2107
g6
F0.8421
tp2108
asI252
(lp2109
(S'that'
p2110
g3
F0.5135
tp2111
a(S'come'
p2112
g6
F0.9974
tp2113
a(S'on'
p2114
g285
F0.7116
tp2115
asI253
(lp2116
(S'hold'
p2117
g6
F0.9639
tp2118
a(S'on'
p2119
g285
F0.7076
tp2120
a(S'bro'
p2121
g12
F0.9897
tp2122
asI254
(lp2123
(S'www'
p2124
g18
F0.3889
tp2125
asI255
(lp2126
(S'hold'
p2127
g6
F0.9639
tp2128
a(S'on'
p2129
g285
F0.8823
tp2130
asI256
(lp2131
(S'hold'
p2132
g6
F0.973
tp2133
a(S'on'
p2134
g285
F0.7076
tp2135
a(S'bro'
p2136
g12
F0.9909
tp2137
a(S'www'
p2138
g12
F0.3907
tp2139
asI257
(lp2140
(S'www'
p2141
g18
F0.3889
tp2142
asI258
(lp2143
(S'xxx'
p2144
g44
F0.8437
tp2145
asI259
(lp2146
(S'come'
p2147
g6
F0.9843
tp2148
a(S'here'
p2149
g38
F0.9694
tp2150
asI260
(lp2151
(S'show'
p2152
g6
F0.869
tp2153
a(S'me'
p2154
g3
F0.9955
tp2155
a(S'what'
p2156
g3
F0.941
tp2157
a(S'else'
p2158
g38
F0.8439
tp2159
a(S'you'
p2160
g3
F0.9938
tp2161
a(S're'
p2162
g6
F0.5665
tp2163
a(S'gonna'
p2164
g6
F0.9928
tp2165
a(S'going'
p2166
g6
F0.9999
tp2167
a(S'to'
p2168
g68
F0.9914
tp2169
a(S'ask'
p2170
g6
F0.9978
tp2171
a(S'santa'
p2172
g18
F0.9907
tp2173
a(S'claus'
p2174
g18
F0.9805
tp2175
a(S'for'
p2176
g68
F0.9965
tp2177
a(S'over'
p2178
g3
F0.3511
tp2179
a(S'here'
p2180
g38
F0.9851
tp2181
a(S'bro'
p2182
g12
F0.8505
tp2183
asI261
(lp2184
(S'how'
p2185
g38
F0.9703
tp2186
a(S'do'
p2187
g6
F0.9987
tp2188
a(S'you'
p2189
g3
F0.9974
tp2190
a(S'spell'
p2191
g6
F0.9394
tp2192
a(S'christmas'
p2193
g18
F0.9611
tp2194
a(g1373
g142
F0.4711
tp2195
asI262
(lp2196
(S'that'
p2197
g68
F0.4393
tp2198
a(S'www'
p2199
g18
F0.4629
tp2200
a(S'pain'
p2201
g12
F0.9863
tp2202
a(S'noises'
p2203
g12
F0.9939
tp2204
asI263
(lp2205
(S'ow'
p2206
g27
F0.9035
tp2207
a(S'ow'
p2208
g27
F0.9636
tp2209
a(S'ow'
p2210
g27
F0.9469
tp2211
a(S'ow'
p2212
g27
F0.9341
tp2213
a(S'ow'
p2214
g27
F0.9749
tp2215
asI264
(lp2216
(S'www'
p2217
g18
F0.6048
tp2218
a(S'laughs'
p2219
g6
F0.8907
tp2220
a(S'here'
p2221
g38
F0.9355
tp2222
asI265
(lp2223
(S'ow'
p2224
g27
F0.9487
tp2225
a(S'ow'
p2226
g27
F0.9718
tp2227
a(S'ow'
p2228
g27
F0.9661
tp2229
asI266
(lp2230
(g33
g3
F0.9894
tp2231
a(S'forgot'
p2232
g6
F0.9997
tp2233
a(S'what'
p2234
g3
F0.9858
tp2235
a(g33
g3
F0.9958
tp2236
a(S'was'
p2237
g6
F0.9998
tp2238
a(S'doing'
p2239
g6
F0.985
tp2240
a(S'and'
p2241
g261
F0.9973
tp2242
a(g33
g3
F0.99
tp2243
a(S'cut'
p2244
g6
F0.999
tp2245
a(S'it'
p2246
g3
F0.9916
tp2247
a(S'up'
p2248
g285
F0.9563
tp2249
a(S'for'
p2250
g68
F0.9996
tp2251
a(S'you'
p2252
g3
F0.999
tp2253
asI267
(lp2254
(S'ow'
p2255
g27
F0.9487
tp2256
a(S'ow'
p2257
g27
F0.9718
tp2258
a(S'ow'
p2259
g27
F0.9661
tp2260
asI268
(lp2261
(S'oh'
p2262
g27
F0.9978
tp2263
a(S'that'
p2264
g3
F0.6408
tp2265
a(g5
g142
F0.6938
tp2266
a(S'alright'
p2267
g27
F0.9025
tp2268
asI269
(lp2269
(S'wh'
p2270
g142
F0.6992
tp2271
a(S'xxx'
p2272
g142
F0.667
tp2273
a(S'don'
p2274
g142
F0.4322
tp2275
a(g20
g142
F0.7601
tp2276
a(S'do'
p2277
g6
F0.9983
tp2278
a(S'that'
p2279
g3
F0.856
tp2280
asI270
(lp2281
(S'what'
p2282
g3
F0.9784
tp2283
a(g5
g142
F0.613
tp2284
a(S'the'
p2285
g9
F0.9986
tp2286
a(S'matter'
p2287
g12
F0.9916
tp2288
asI271
(lp2289
(S'chi'
p2290
g27
F0.4684
tp2291
asI272
(lp2292
(S'what'
p2293
g3
F0.9864
tp2294
a(S'happened'
p2295
g6
F0.9921
tp2296
asI273
(lp2297
(S'xxx'
p2298
g44
F0.8437
tp2299
asI274
(lp2300
(S'cries'
p2301
g6
F0.6365
tp2302
asI275
(lp2303
(S'chi'
p2304
g27
F0.4684
tp2305
asI276
(lp2306
(S'oh'
p2307
g27
F0.9936
tp2308
a(S'look'
p2309
g6
F0.884
tp2310
a(S'at'
p2311
g68
F0.9987
tp2312
a(S'these'
p2313
g9
F0.7781
tp2314
asI277
(lp2315
(S'yeah'
p2316
g27
F0.9988
tp2317
asI278
(lp2318
(S'chi'
p2319
g27
F0.4684
tp2320
asI279
(lp2321
(S'golden'
p2322
g41
F0.6049
tp2323
a(S'pancakes'
p2324
g12
F0.9997
tp2325
asI280
(lp2326
(S'what'
p2327
g3
F0.949
tp2328
asI281
(lp2329
(S'you'
p2330
g3
F0.998
tp2331
a(S'got'
p2332
g6
F0.9959
tp2333
a(S'c'
p2334
g12
F0.3447
tp2335
a(S'l'
p2336
g142
F0.5773
tp2337
asI282
(lp2338
(S'yeah'
p2339
g27
F0.9988
tp2340
asI283
(lp2341
(g33
g3
F0.9897
tp2342
a(S'want'
p2343
g6
F0.9999
tp2344
a(S'that'
p2345
g9
F0.5982
tp2346
a(S'pancake'
p2347
g12
F0.6701
tp2348
asI284
(lp2349
(S'h'
p2350
g142
F0.4718
tp2351
a(g2336
g142
F0.8371
tp2352
asI285
(lp2353
(S'you'
p2354
g3
F0.997
tp2355
a(S'want'
p2356
g6
F0.9998
tp2357
a(S'those'
p2358
g3
F0.6164
tp2359
asI286
(lp2360
(g2334
g142
F0.5299
tp2361
a(g2336
g142
F0.9252
tp2362
a(g2350
g142
F0.8993
tp2363
a(g2336
g142
F0.8687
tp2364
asI287
(lp2365
(S'yep'
p2366
g27
F0.9977
tp2367
asI288
(lp2368
(g33
g3
F0.9793
tp2369
a(S'll'
p2370
g6
F0.8515
tp2371
a(S'share'
p2372
g6
F0.9971
tp2373
a(S'them'
p2374
g3
F0.9524
tp2375
a(S'with'
p2376
g68
F0.9988
tp2377
a(S'you'
p2378
g3
F0.9988
tp2379
asI289
(lp2380
(S'okay'
p2381
g27
F0.9857
tp2382
asI290
(lp2383
(g33
g3
F0.9902
tp2384
a(S'want'
p2385
g6
F0.9999
tp2386
a(S'that'
p2387
g3
F0.8053
tp2388
asI291
(lp2389
(g33
g3
F0.953
tp2390
a(g35
g6
F0.9274
tp2391
a(S'xxx'
p2392
g44
F0.3487
tp2393
a(S'we'
p2394
g3
F0.9957
tp2395
a(S'have'
p2396
g6
F0.9996
tp2397
a(S'enough'
p2398
g12
F0.4729
tp2399
a(S'xxx'
p2400
g44
F0.7577
tp2401
asI292
(lp2402
(g33
g3
F0.953
tp2403
a(g35
g6
F0.9842
tp2404
a(S'lickin'
p2405
g6
F0.8794
tp2406
a(g990
g6
F0.28
tp2407
a(S'this'
p2408
g3
F0.7868
tp2409
asI293
(lp2410
(S'you'
p2411
g3
F0.998
tp2412
a(S'need'
p2413
g6
F0.9995
tp2414
a(g8
g9
F0.9981
tp2415
a(S'whole'
p2416
g41
F0.9836
tp2417
a(S'new'
p2418
g41
F0.9855
tp2419
a(S'you'
p2420
g3
F0.9974
tp2421
a(S'can'
p2422
g6
F0.999
tp2423
a(g20
g6
F0.5747
tp2424
asI294
(lp2425
(S'syrup'
p2426
g12
F0.9904
tp2427
a(S'off'
p2428
g68
F0.687
tp2429
asI295
(lp2430
(S'it'
p2431
g3
F0.9888
tp2432
a(g5
g6
F0.4994
tp2433
a(S'christmas'
p2434
g18
F0.8905
tp2435
a(S'not'
p2436
g38
F0.9947
tp2437
a(S'gonna'
p2438
g6
F0.9966
tp2439
a(S'fit'
p2440
g6
F0.9865
tp2441
a(S'here'
p2442
g38
F0.9658
tp2443
asI296
(lp2444
(S'it'
p2445
g3
F0.9888
tp2446
a(g5
g6
F0.7285
tp2447
a(g8
g9
F0.9926
tp2448
a(S'long'
p2449
g41
F0.9958
tp2450
a(S'word'
p2451
g12
F0.9216
tp2452
asI297
(lp2453
(S'oh'
p2454
g27
F0.9988
tp2455
asI298
(lp2456
(S'try'
p2457
g6
F0.9725
tp2458
a(S'that'
p2459
g3
F0.7944
tp2460
asI299
(lp2461
(S'okay'
p2462
g27
F0.9857
tp2463
asI300
(lp2464
(S'hm'
p2465
g27
F0.995
tp2466
asI301
(lp2467
(S'hey'
p2468
g27
F0.9972
tp2469
a(S'chi'
p2470
g18
F0.4937
tp2471
a(S'look'
p2472
g6
F0.9185
tp2473
asI302
(lp2474
(S'huh'
p2475
g27
F0.993
tp2476
asI303
(lp2477
(S'come'
p2478
g6
F0.9897
tp2479
a(S'on'
p2480
g68
F0.7474
tp2481
a(S'just'
p2482
g38
F0.9991
tp2483
a(S'begin'
p2484
g6
F0.9997
tp2485
a(S'down'
p2486
g38
F0.6235
tp2487
a(S'here'
p2488
g38
F0.9888
tp2489
asI304
(lp2490
(S'don'
p2491
g18
F0.5427
tp2492
a(g20
g18
F0.4636
tp2493
a(S'start'
p2494
g6
F0.9922
tp2495
a(g8
g9
F0.9984
tp2496
a(S'new'
p2497
g41
F0.9978
tp2498
a(S'page'
p2499
g12
F0.9739
tp2500
asI305
(lp2501
(S'don'
p2502
g18
F0.5427
tp2503
a(g20
g18
F0.6368
tp2504
a(S'waste'
p2505
g6
F0.6281
tp2506
a(g8
g9
F0.9964
tp2507
a(S'whole'
p2508
g41
F0.992
tp2509
a(S'sheet'
p2510
g12
F0.9996
tp2511
a(S'of'
p2512
g68
F0.9954
tp2513
a(S'paper'
p2514
g12
F0.9453
tp2515
a(S'for'
p2516
g68
F0.9992
tp2517
a(S'one'
p2518
g136
F0.9184
tp2519
a(S'xxx'
p2520
g44
F0.8015
tp2521
asI306
(lp2522
(S'um'
p2523
g27
F0.9584
tp2524
a(g33
g3
F0.973
tp2525
a(g35
g6
F0.9489
tp2526
a(g33
g3
F0.9845
tp2527
a(g35
g6
F0.9432
tp2528
a(g33
g3
F0.9855
tp2529
a(g35
g6
F0.977
tp2530
a(S'not'
p2531
g38
F0.996
tp2532
a(S'goin'
p2533
g6
F0.9958
tp2534
a(g990
g6
F0.7946
tp2535
a(S'up'
p2536
g285
F0.9406
tp2537
a(S'xxx'
p2538
g44
F0.7541
tp2539
asI307
(lp2540
(S'you'
p2541
g3
F0.998
tp2542
a(S'want'
p2543
g6
F1.0
tp2544
a(S'you'
p2545
g3
F0.9995
tp2546
a(S'want'
p2547
g6
F0.9999
tp2548
a(S'another'
p2549
g9
F0.9934
tp2550
a(S'one'
p2551
g136
F0.8069
tp2552
asI308
(lp2553
(S'oh'
p2554
g27
F0.9981
tp2555
a(S'okay'
p2556
g27
F0.9822
tp2557
asI309
(lp2558
(S'hm'
p2559
g27
F0.995
tp2560
asI310
(lp2561
(S'you'
p2562
g3
F0.9969
tp2563
a(S'can'
p2564
g6
F0.9994
tp2565
a(g20
g6
F0.8281
tp2566
a(S'do'
p2567
g6
F0.9985
tp2568
a(S'it'
p2569
g3
F0.9919
tp2570
asI311
(lp2571
(S'xxx'
p2572
g44
F0.8437
tp2573
asI312
(lp2574
(g8
g9
F0.8253
tp2575
a(S'and'
p2576
g261
F0.9853
tp2577
a(S'and'
p2578
g261
F0.9975
tp2579
a(S'daddy'
p2580
g12
F0.9926
tp2581
a(S'says'
p2582
g6
F0.9961
tp2583
asI313
(lp2584
(S'will'
p2585
g6
F0.9979
tp2586
a(S'you'
p2587
g3
F0.9987
tp2588
a(S'try'
p2589
g6
F0.9999
tp2590
a(S'them'
p2591
g3
F0.9752
tp2592
a(S'with'
p2593
g68
F0.9982
tp2594
a(S'me'
p2595
g3
F0.9986
tp2596
asI314
(lp2597
(S'he'
p2598
g3
F0.9959
tp2599
a(S'has'
p2600
g6
F0.9998
tp2601
a(S'he'
p2602
g3
F0.9984
tp2603
a(S'has'
p2604
g6
F0.9999
tp2605
a(g8
g9
F0.9101
tp2606
a(g8
g9
F0.671
tp2607
a(S'another'
p2608
g9
F0.7816
tp2609
a(S'one'
p2610
g136
F0.9114
tp2611
a(S'of'
p2612
g68
F0.9991
tp2613
a(S'those'
p2614
g9
F0.9763
tp2615
a(S'razor'
p2616
g12
F0.9929
tp2617
a(S'tips'
p2618
g12
F0.9892
tp2619
a(S'type'
p2620
g12
F0.8705
tp2621
a(S'of'
p2622
g68
F0.988
tp2623
a(S'pen'
p2624
g12
F0.8671
tp2625
asI315
(lp2626
(S'okay'
p2627
g27
F0.9857
tp2628
asI316
(lp2629
(S'uh'
p2630
g27
F0.9824
tp2631
a(S'for'
p2632
g68
F0.9991
tp2633
a(S'me'
p2634
g3
F0.999
tp2635
asI317
(lp2636
(S'yeah'
p2637
g27
F0.9988
tp2638
asI318
(lp2639
(g5
g142
F0.7493
tp2640
a(g33
g3
F0.9839
tp2641
a(S'wanna'
p2642
g6
F0.9987
tp2643
a(S'see'
p2644
g6
F0.9992
tp2645
a(S'you'
p2646
g3
F0.9813
tp2647
a(S'laugh'
p2648
g6
F0.9874
tp2649
asI319
(lp2650
(S'do'
p2651
g6
F0.9985
tp2652
a(S'you'
p2653
g3
F0.9997
tp2654
a(S'know'
p2655
g6
F0.9987
tp2656
a(S'where'
p2657
g38
F0.9688
tp2658
a(S'it'
p2659
g3
F0.9991
tp2660
a(S'is'
p2661
g6
F0.9982
tp2662
a(S'mom'
p2663
g12
F0.8675
tp2664
asI320
(lp2665
(S'come'
p2666
g6
F0.9843
tp2667
a(S'here'
p2668
g38
F0.9694
tp2669
asI321
(lp2670
(S'no'
p2671
g27
F0.9253
tp2672
asI322
(lp2673
(S'no'
p2674
g27
F0.6769
tp2675
a(S'wait'
p2676
g6
F0.9474
tp2677
a(S'here'
p2678
g38
F0.924
tp2679
asI323
(lp2680
(S'the'
p2681
g9
F0.9978
tp2682
a(S'black'
p2683
g41
F0.9894
tp2684
a(S'one'
p2685
g136
F0.9172
tp2686
a(S'that'
p2687
g68
F0.9853
tp2688
a(S'you'
p2689
g3
F0.9995
tp2690
a(S'were'
p2691
g6
F0.9983
tp2692
a(S'playin'
p2693
g6
F0.9805
tp2694
a(g990
g12
F0.3749
tp2695
a(S'with'
p2696
g68
F0.9976
tp2697
a(S'last'
p2698
g41
F0.9963
tp2699
a(S'night'
p2700
g12
F0.9945
tp2701
asI324
(lp2702
(S'whee'
p2703
g27
F0.9822
tp2704
asI325
(lp2705
(S'yeah'
p2706
g27
F0.9947
tp2707
a(S'the'
p2708
g9
F0.9972
tp2709
a(S'black'
p2710
g41
F0.8747
tp2711
a(S'razor'
p2712
g12
F0.9983
tp2713
a(S'tip'
p2714
g12
F0.9676
tp2715
asI326
(lp2716
(S'well'
p2717
g27
F0.8573
tp2718
a(g33
g3
F0.9928
tp2719
a(S'don'
p2720
g6
F0.9187
tp2721
a(g20
g12
F0.2208
tp2722
a(S'know'
p2723
g6
F0.9916
tp2724
a(S'what'
p2725
g3
F0.9785
tp2726
a(S'you'
p2727
g3
F0.9998
tp2728
a(S'did'
p2729
g6
F0.9996
tp2730
a(S'with'
p2731
g68
F0.9971
tp2732
a(S'that'
p2733
g3
F0.7193
tp2734
asI327
(lp2735
(g33
g3
F0.9583
tp2736
a(g33
g3
F0.9279
tp2737
a(g33
g3
F0.9408
tp2738
a(S'didn'
p2739
g6
F0.9911
tp2740
a(g20
g6
F0.8259
tp2741
a(S'do'
p2742
g6
F0.9932
tp2743
a(g1175
g261
F0.8401
tp2744
a(S'anything'
p2745
g12
F0.9851
tp2746
a(S'with'
p2747
g68
F0.9998
tp2748
a(S'it'
p2749
g3
F0.9959
tp2750
asI328
(lp2751
(S'wow'
p2752
g27
F0.9963
tp2753
asI329
(lp2754
(S'you'
p2755
g3
F0.998
tp2756
a(S'have'
p2757
g6
F0.9953
tp2758
a(S'two'
p2759
g136
F0.9475
tp2760
a(S'of'
p2761
g68
F0.9978
tp2762
a(S'them'
p2763
g3
F0.901
tp2764
a(S'um'
p2765
g27
F0.4418
tp2766
a(S'somewhere'
p2767
g38
F0.9532
tp2768
a(S'the'
p2769
g9
F0.999
tp2770
a(S'same'
p2771
g41
F0.9695
tp2772
asI330
(lp2773
(S'oh'
p2774
g27
F0.9903
tp2775
a(S'no'
p2776
g27
F0.9593
tp2777
a(S'you'
p2778
g3
F0.9971
tp2779
a(S'found'
p2780
g6
F0.9997
tp2781
a(S'that'
p2782
g9
F0.6309
tp2783
a(S'one'
p2784
g136
F0.7659
tp2785
asI331
(lp2786
(S'okay'
p2787
g27
F0.9857
tp2788
asI332
(lp2789
(S'anyway'
p2790
g38
F0.9892
tp2791
a(S'r'
p2792
g6
F0.604
tp2793
a(g2336
g12
F0.5216
tp2794
asI333
(lp2795
(S'good'
p2796
g41
F0.9644
tp2797
asI334
(lp2798
(S'here'
p2799
g38
F0.7796
tp2800
asI335
(lp2801
(g2334
g142
F0.5299
tp2802
a(g2336
g142
F0.9301
tp2803
a(g2350
g142
F0.8837
tp2804
a(g2336
g142
F0.8332
tp2805
a(g2792
g142
F0.6143
tp2806
a(g2336
g142
F0.7473
tp2807
asI336
(lp2808
(S'mm'
p2809
g27
F0.627
tp2810
asI337
(lp2811
(S'yeah'
p2812
g27
F0.9988
tp2813
asI338
(lp2814
(g33
g3
F0.9276
tp2815
a(g2336
g142
F0.4519
tp2816
a(g5
g142
F0.9734
tp2817
a(g2336
g142
F0.7751
tp2818
a(g20
g142
F0.9218
tp2819
a(g2336
g142
F0.8459
tp2820
asI339
(lp2821
(g33
g3
F0.9276
tp2822
a(g2336
g142
F0.4519
tp2823
a(g5
g142
F0.9416
tp2824
a(g33
g3
F0.9695
tp2825
a(S'll'
p2826
g6
F0.8217
tp2827
a(S'share'
p2828
g6
F0.9621
tp2829
a(S'with'
p2830
g68
F0.9993
tp2831
a(S'you'
p2832
g3
F0.999
tp2833
asI340
(lp2834
(S'oh'
p2835
g27
F0.9989
tp2836
a(S'what'
p2837
g3
F0.9322
tp2838
asI341
(lp2839
(S'mhm'
p2840
g27
F0.9747
tp2841
asI342
(lp2842
(S'what'
p2843
g3
F0.949
tp2844
asI343
(lp2845
(S'why'
p2846
g38
F0.9199
tp2847
a(S'am'
p2848
g6
F0.8115
tp2849
a(g33
g3
F0.9952
tp2850
a(S'using'
p2851
g6
F0.9999
tp2852
a(S'this'
p2853
g9
F0.9736
tp2854
a(S'pen'
p2855
g12
F0.956
tp2856
a(S'for'
p2857
g68
F0.999
tp2858
asI344
(lp2859
(S'gee'
p2860
g27
F0.989
tp2861
asI345
(lp2862
(S'will'
p2863
g6
F0.9979
tp2864
a(S'you'
p2865
g3
F0.9987
tp2866
a(S'stop'
p2867
g6
F0.9971
tp2868
a(S'saying'
p2869
g6
F0.997
tp2870
a(S'that'
p2871
g3
F0.6633
tp2872
asI346
(lp2873
(S'it'
p2874
g3
F0.9914
tp2875
a(S'looks'
p2876
g6
F0.9973
tp2877
a(S'so'
p2878
g38
F0.9096
tp2879
a(S'sloppy'
p2880
g41
F0.9984
tp2881
asI347
(lp2882
(S'here'
p2883
g38
F0.7796
tp2884
asI348
(lp2885
(S'mm'
p2886
g27
F0.627
tp2887
asI349
(lp2888
(S'plenty'
p2889
g12
F0.952
tp2890
a(S'of'
p2891
g68
F0.994
tp2892
a(S'xxx'
p2893
g44
F0.5336
tp2894
asI350
(lp2895
(S'good'
p2896
g41
F0.9644
tp2897
asI351
(lp2898
(S'oh'
p2899
g27
F0.9988
tp2900
asI352
(lp2901
(S'no'
p2902
g27
F0.9253
tp2903
asI353
(lp2904
(S'no'
p2905
g27
F0.9253
tp2906
asI354
(lp2907
(S'that'
p2908
g3
F0.6201
tp2909
a(S'looks'
p2910
g6
F0.9962
tp2911
a(S'nice'
p2912
g41
F0.9937
tp2913
asI355
(lp2914
(S'laughs'
p2915
g6
F0.9102
tp2916
asI356
(lp2917
(S'make'
p2918
g6
F0.9707
tp2919
a(S'sure'
p2920
g41
F0.9736
tp2921
a(S'that'
p2922
g68
F0.8098
tp2923
a(g5
g142
F0.4197
tp2924
a(S'back'
p2925
g38
F0.772
tp2926
a(S'where'
p2927
g38
F0.9791
tp2928
a(S'it'
p2929
g3
F0.996
tp2930
a(S'belongs'
p2931
g6
F0.9935
tp2932
asI357
(lp2933
(S'here'
p2934
g38
F0.7796
tp2935
asI358
(lp2936
(g2334
g142
F0.4606
tp2937
a(g2336
g142
F0.8615
tp2938
asI359
(lp2939
(S'yeah'
p2940
g27
F0.9988
tp2941
asI360
(lp2942
(g2350
g142
F0.4718
tp2943
a(g2336
g142
F0.8371
tp2944
asI361
(lp2945
(S'yeah'
p2946
g27
F0.9988
tp2947
asI362
(lp2948
(g2792
g6
F0.3685
tp2949
a(g2336
g12
F0.4555
tp2950
asI363
(lp2951
(S'yeah'
p2952
g27
F0.9988
tp2953
asI364
(lp2954
(g33
g3
F0.9343
tp2955
a(g2336
g6
F0.5441
tp2956
asI365
(lp2957
(S'yeah'
p2958
g27
F0.9988
tp2959
asI366
(lp2960
(g5
g142
F0.8657
tp2961
a(g2336
g142
F0.7432
tp2962
a(g20
g142
F0.9313
tp2963
a(g2336
g142
F0.8685
tp2964
asI367
(lp2965
(S'yeah'
p2966
g27
F0.9988
tp2967
asI368
(lp2968
(g35
g142
F0.464
tp2969
a(g2336
g142
F0.7211
tp2970
a(g8
g9
F0.8983
tp2971
a(g2336
g12
F0.7245
tp2972
a(g5
g142
F0.9127
tp2973
a(g2336
g142
F0.6058
tp2974
asI369
(lp2975
(g1305
g136
F0.9644
tp2976
a(S'clears'
p2977
g6
F0.8351
tp2978
a(S'throat'
p2979
g12
F0.9556
tp2980
asI370
(lp2981
(g35
g142
F0.464
tp2982
a(g2336
g142
F0.7211
tp2983
a(g8
g9
F0.8983
tp2984
a(g2336
g12
F0.7245
tp2985
a(g5
g142
F0.9127
tp2986
a(g2336
g142
F0.6058
tp2987
asI371
(lp2988
(S'now'
p2989
g38
F0.9613
tp2990
asI372
(lp2991
(S'another'
p2992
g9
F0.9927
tp2993
a(S'way'
p2994
g12
F0.982
tp2995
a(S'to'
p2996
g68
F0.9983
tp2997
a(S'make'
p2998
g6
F0.9998
tp2999
a(S'it'
p3000
g3
F0.6842
tp3001
a(S'christmas'
p3002
g18
F0.9276
tp3003
a(S'is'
p3004
g6
F0.9966
tp3005
a(S'to'
p3006
g68
F0.983
tp3007
a(S'make'
p3008
g6
F0.9903
tp3009
a(S'x'
p3010
g142
F0.5378
tp3011
a(g2336
g142
F0.7791
tp3012
asI373
(lp3013
(S'capital'
p3014
g12
F0.753
tp3015
a(g3010
g142
F0.5449
tp3016
a(g2336
g142
F0.7543
tp3017
asI374
(lp3018
(S'where'
p3019
g38
F0.9493
tp3020
asI375
(lp3021
(S'well'
p3022
g27
F0.7553
tp3023
a(S'it'
p3024
g3
F0.9988
tp3025
a(S'would'
p3026
g6
F0.9994
tp3027
a(S'be'
p3028
g6
F0.9999
tp3029
a(S'another'
p3030
g9
F0.9765
tp3031
a(S'word'
p3032
g12
F0.9689
tp3033
asI376
(lp3034
(S'it'
p3035
g3
F0.9888
tp3036
a(g5
g6
F0.7285
tp3037
a(g8
g9
F0.9354
tp3038
a(S'just'
p3039
g38
F0.9995
tp3040
a(S'different'
p3041
g41
F0.9962
tp3042
a(S'way'
p3043
g12
F0.9861
tp3044
a(S'of'
p3045
g68
F0.9973
tp3046
a(S'writing'
p3047
g6
F0.8534
tp3048
a(S'christmas'
p3049
g18
F0.8985
tp3050
a(g1373
g142
F0.6382
tp3051
asI377
(lp3052
(S'that'
p3053
g3
F0.4727
tp3054
a(g5
g6
F0.7599
tp3055
a(S'all'
p3056
g9
F0.82
tp3057
asI378
(lp3058
(S'oh'
p3059
g27
F0.9988
tp3060
asI379
(lp3061
(S'mm'
p3062
g27
F0.627
tp3063
asI380
(lp3064
(S'okay'
p3065
g27
F0.9857
tp3066
asI381
(lp3067
(S'you'
p3068
g3
F0.9966
tp3069
a(S'make'
p3070
g6
F0.9997
tp3071
a(S'it'
p3072
g3
F0.7975
tp3073
a(S'oops'
p3074
g27
F0.8234
tp3075
asI382
(lp3076
(S'you'
p3077
g3
F0.9966
tp3078
a(S'make'
p3079
g6
F0.9996
tp3080
a(g8
g9
F0.9935
tp3081
a(S'capital'
p3082
g12
F0.9575
tp3083
a(g35
g142
F0.4836
tp3084
a(g2336
g142
F0.7142
tp3085
asI383
(lp3086
(S'are'
p3087
g6
F0.9963
tp3088
a(S'you'
p3089
g3
F0.9985
tp3090
a(S'sure'
p3091
g41
F0.9335
tp3092
asI384
(lp3093
(g33
g3
F0.9897
tp3094
a(S'mean'
p3095
g6
F0.9985
tp3096
a(g8
g9
F0.9935
tp3097
a(S'capital'
p3098
g12
F0.9379
tp3099
a(g35
g142
F0.5194
tp3100
a(g2336
g142
F0.7246
tp3101
a(g8
g9
F0.9739
tp3102
a(S'capital'
p3103
g12
F0.9474
tp3104
a(g3010
g142
F0.5417
tp3105
a(g2336
g142
F0.855
tp3106
asI385
(lp3107
(S'what'
p3108
g3
F0.9501
tp3109
a(S'what'
p3110
g3
F0.994
tp3111
asI386
(lp3112
(g35
g142
F0.464
tp3113
a(g2336
g142
F0.7211
tp3114
a(g8
g9
F0.8983
tp3115
a(g2336
g12
F0.7054
tp3116
a(g5
g142
F0.9127
tp3117
a(g2336
g142
F0.5824
tp3118
a(S'yeah'
p3119
g27
F0.9911
tp3120
asI387
(lp3121
(S'haven'
p3122
g18
F0.5274
tp3123
a(g20
g68
F0.4168
tp3124
a(S'you'
p3125
g3
F0.9988
tp3126
a(S'ever'
p3127
g38
F0.9883
tp3128
a(S'seen'
p3129
g6
F0.9995
tp3130
a(S'it'
p3131
g3
F0.9971
tp3132
a(S'spelled'
p3133
g6
F0.9995
tp3134
a(S'like'
p3135
g68
F0.8592
tp3136
a(S'that'
p3137
g3
F0.9222
tp3138
asI388
(lp3139
(S'daddy'
p3140
g12
F0.9436
tp3141
asI389
(lp3142
(S'daddy'
p3143
g12
F0.9436
tp3144
asI390
(lp3145
(S'yes'
p3146
g27
F0.9958
tp3147
asI391
(lp3148
(S'um'
p3149
g27
F0.8753
tp3150
a(S'grandpa'
p3151
g12
F0.4455
tp3152
a(S'has'
p3153
g6
F0.9988
tp3154
a(S'the'
p3155
g9
F0.9995
tp3156
a(S'same'
p3157
g41
F0.9983
tp3158
a(S'one'
p3159
g136
F0.9514
tp3160
a(S'as'
p3161
g68
F0.9942
tp3162
a(S'this'
p3163
g3
F0.8409
tp3164
asI392
(lp3165
(S'yeah'
p3166
g27
F0.9976
tp3167
a(S'well'
p3168
g27
F0.9616
tp3169
asI393
(lp3170
(S'you'
p3171
g3
F0.998
tp3172
a(S'took'
p3173
g6
F0.9994
tp3174
a(S'take'
p3175
g6
F0.962
tp3176
a(S'grandpa'
p3177
g12
F0.7416
tp3178
a(g5
g142
F0.8588
tp3179
asI394
(lp3180
(g8
g9
F0.9924
tp3181
a(S'lot'
p3182
g12
F0.9795
tp3183
a(S'of'
p3184
g68
F0.9957
tp3185
a(S'people'
p3186
g12
F0.9952
tp3187
a(S'like'
p3188
g68
F0.6122
tp3189
a(S'to'
p3190
g68
F0.991
tp3191
a(S'write'
p3192
g6
F0.9975
tp3193
a(S'with'
p3194
g68
F0.9986
tp3195
a(S'them'
p3196
g3
F0.7462
tp3197
a(g33
g3
F0.97
tp3198
a(S'guess'
p3199
g6
F0.9993
tp3200
asI395
(lp3201
(S'huh'
p3202
g27
F0.993
tp3203
asI396
(lp3204
(S'oh'
p3205
g27
F0.9983
tp3206
a(g33
g3
F0.9805
tp3207
a(S'xxx'
p3208
g44
F0.5578
tp3209
asI397
(lp3210
(S'okay'
p3211
g27
F0.9857
tp3212
asI398
(lp3213
(S'stupid'
p3214
g41
F0.9906
tp3215
asI399
(lp3216
(S'there'
p3217
g1242
F0.4664
tp3218
a(g5
g142
F0.6539
tp3219
a(g8
g9
F0.9948
tp3220
a(S'woman'
p3221
g12
F0.9925
tp3222
a(S'that'
p3223
g68
F0.9545
tp3224
a(S'works'
p3225
g6
F0.927
tp3226
a(S'where'
p3227
g38
F0.9937
tp3228
a(g33
g3
F0.9355
tp3229
a(S'work'
p3230
g6
F0.9805
tp3231
a(S'that'
p3232
g3
F0.7341
tp3233
a(S'got'
p3234
g6
F0.9991
tp3235
a(g8
g9
F0.9984
tp3236
a(S'job'
p3237
g12
F0.9952
tp3238
asI400
(lp3239
(S'remember'
p3240
g6
F0.9933
tp3241
a(S'that'
p3242
g9
F0.6203
tp3243
a(S'one'
p3244
g136
F0.8523
tp3245
a(S'at'
p3246
g68
F0.9999
tp3247
a(S'the'
p3248
g9
F0.9994
tp3249
a(S'job'
p3250
g12
F0.9951
tp3251
a(S'at'
p3252
g68
F0.9993
tp3253
a(S'planned'
p3254
g6
F0.6187
tp3255
a(S'parenthood'
p3256
g12
F0.9806
tp3257
a(g33
g3
F0.954
tp3258
a(S'was'
p3259
g6
F0.9998
tp3260
a(S'tryin'
p3261
g6
F0.9293
tp3262
a(g990
g6
F0.3741
tp3263
a(S'for'
p3264
g68
F0.9917
tp3265
asI401
(lp3266
(g1493
g142
F0.3597
tp3267
a(S'xxx'
p3268
g44
F0.4051
tp3269
a(S'christmas'
p3270
g18
F0.8175
tp3271
asI402
(lp3272
(S'and'
p3273
g261
F0.999
tp3274
a(g33
g3
F0.9942
tp3275
a(S'had'
p3276
g6
F0.9998
tp3277
a(S'glenda'
p3278
g18
F0.9867
tp3279
a(S'knew'
p3280
g6
F0.9976
tp3281
a(S'the'
p3282
g9
F0.9989
tp3283
a(S'director'
p3284
g12
F0.9981
tp3285
asI403
(lp3286
(S'here'
p3287
g38
F0.7796
tp3288
asI404
(lp3289
(S'yeah'
p3290
g27
F0.9988
tp3291
asI405
(lp3292
(S'and'
p3293
g261
F0.999
tp3294
a(S'she'
p3295
g3
F0.9983
tp3296
a(S'called'
p3297
g6
F0.9988
tp3298
a(S'and'
p3299
g261
F0.996
tp3300
a(S'sue'
p3301
g6
F0.9476
tp3302
a(S'called'
p3303
g6
F0.9885
tp3304
asI406
(lp3305
(S'mhm'
p3306
g27
F0.9747
tp3307
asI407
(lp3308
(S'raspberry'
p3309
g12
F0.7552
tp3310
asI408
(lp3311
(S'you'
p3312
g3
F0.9983
tp3313
a(S'know'
p3314
g6
F0.9991
tp3315
a(S'be'
p3316
g6
F0.9814
tp3317
a(S'cause'
p3318
g68
F0.9693
tp3319
a(S'she'
p3320
g3
F0.9987
tp3321
a(S'knew'
p3322
g6
F0.9996
tp3323
a(S'her'
p3324
g3
F0.7296
tp3325
asI409
(lp3326
(S'she'
p3327
g3
F0.9969
tp3328
a(S'wrote'
p3329
g6
F0.9996
tp3330
a(S'her'
p3331
g3
F0.6733
tp3332
a(g8
g9
F0.9934
tp3333
a(S'letter'
p3334
g12
F0.9926
tp3335
a(S'and'
p3336
g261
F0.997
tp3337
a(S'she'
p3338
g3
F0.9976
tp3339
a(S'went'
p3340
g6
F0.9881
tp3341
a(S'and'
p3342
g261
F0.992
tp3343
a(S'uh'
p3344
g27
F0.9042
tp3345
asI410
(lp3346
(S'well'
p3347
g27
F0.8176
tp3348
a(S'this'
p3349
g9
F0.8899
tp3350
a(S'woman'
p3351
g12
F0.9903
tp3352
a(S'that'
p3353
g68
F0.9593
tp3354
a(S'works'
p3355
g6
F0.8542
tp3356
a(S'at'
p3357
g68
F0.9947
tp3358
a(S'where'
p3359
g38
F0.9359
tp3360
a(g33
g3
F0.9468
tp3361
a(S'work'
p3362
g6
F0.8782
tp3363
a(S'xxx'
p3364
g44
F0.8273
tp3365
asI411
(lp3366
(g33
g3
F0.9563
tp3367
a(S'xxx'
p3368
g6
F0.7564
tp3369
a(S'here'
p3370
g38
F0.9288
tp3371
asI412
(lp3372
(S'she'
p3373
g3
F0.9902
tp3374
a(S'xxx'
p3375
g6
F0.479
tp3376
a(S'she'
p3377
g3
F0.993
tp3378
a(S'um'
p3379
g27
F0.6982
tp3380
asI413
(lp3381
(S'thank'
p3382
g6
F0.9631
tp3383
a(S'you'
p3384
g3
F0.9987
tp3385
asI414
(lp3386
(S'got'
p3387
g6
F0.9866
tp3388
a(S'the'
p3389
g9
F0.9993
tp3390
a(S'job'
p3391
g12
F0.9875
tp3392
a(S'laughs'
p3393
g6
F0.8404
tp3394
asI415
(lp3395
(S'she'
p3396
g3
F0.997
tp3397
a(S'loves'
p3398
g6
F0.9999
tp3399
a(S'it'
p3400
g3
F0.991
tp3401
asI416
(lp3402
(S'she'
p3403
g3
F0.9972
tp3404
a(S'says'
p3405
g6
F0.9999
tp3406
a(S'it'
p3407
g3
F0.9946
tp3408
a(g5
g142
F0.408
tp3409
a(S'great'
p3410
g41
F0.9906
tp3411
asI417
(lp3412
(g33
g3
F0.9914
tp3413
a(S'was'
p3414
g6
F0.9999
tp3415
a(S'like'
p3416
g38
F0.4238
tp3417
a(S'oh'
p3418
g27
F0.7851
tp3419
a(S'you'
p3420
g3
F0.9973
tp3421
a(S'got'
p3422
g6
F0.9998
tp3423
a(S'the'
p3424
g9
F0.9996
tp3425
a(S'job'
p3426
g12
F0.9945
tp3427
a(g33
g3
F0.93
tp3428
a(S'wanted'
p3429
g6
F0.998
tp3430
asI418
(lp3431
(S'laughs'
p3432
g6
F0.9102
tp3433
asI419
(lp3434
(S'came'
p3435
g6
F0.8786
tp3436
asI420
(lp3437
(S'but'
p3438
g261
F0.9936
tp3439
a(S'she'
p3440
g3
F0.9971
tp3441
a(S'xxx'
p3442
g6
F0.8739
tp3443
a(S'you'
p3444
g3
F0.9995
tp3445
a(S'know'
p3446
g6
F0.9995
tp3447
a(S'she'
p3448
g3
F0.9986
tp3449
a(S'had'
p3450
g6
F0.9984
tp3451
a(S'different'
p3452
g41
F0.9962
tp3453
a(S'experience'
p3454
g12
F0.9947
tp3455
a(S'than'
p3456
g68
F0.9919
tp3457
a(g33
g3
F0.9983
tp3458
a(S'do'
p3459
g6
F0.9997
tp3460
asI421
(lp3461
(S'she'
p3462
g3
F0.9971
tp3463
a(S'had'
p3464
g6
F0.9996
tp3465
a(S'she'
p3466
g3
F0.9987
tp3467
a(S'had'
p3468
g6
F0.9998
tp3469
a(g8
g9
F0.9968
tp3470
a(S'lot'
p3471
g12
F0.9842
tp3472
a(S'of'
p3473
g68
F0.9966
tp3474
a(S'experience'
p3475
g12
F0.9735
tp3476
a(S'actually'
p3477
g38
F0.998
tp3478
asI422
(lp3479
(S'how'
p3480
g38
F0.9703
tp3481
a(S'do'
p3482
g6
F0.9987
tp3483
a(S'you'
p3484
g3
F0.9974
tp3485
a(S'spell'
p3486
g6
F0.8906
tp3487
a(S'genie'
p3488
g12
F0.8506
tp3489
a(g1373
g142
F0.4917
tp3490
asI423
(lp3491
(S'right'
p3492
g27
F0.861
tp3493
asI424
(lp3494
(S'you'
p3495
g3
F0.9983
tp3496
a(S'know'
p3497
g6
F0.9993
tp3498
a(S'whereas'
p3499
g1205
F0.6721
tp3500
a(S'mine'
p3501
g3
F0.9821
tp3502
a(S'was'
p3503
g6
F0.9954
tp3504
a(S'only'
p3505
g38
F0.9539
tp3506
a(S'in'
p3507
g68
F0.9866
tp3508
a(g8
g9
F0.9627
tp3509
asI425
(lp3510
(S'how'
p3511
g38
F0.9703
tp3512
a(S'do'
p3513
g6
F0.9987
tp3514
a(S'you'
p3515
g3
F0.9974
tp3516
a(S'spell'
p3517
g6
F0.8906
tp3518
a(S'genie'
p3519
g12
F0.8506
tp3520
a(g1373
g142
F0.4917
tp3521
asI426
(lp3522
(g990
g142
F0.5093
tp3523
a(g2336
g142
F0.9509
tp3524
a(S'e'
p3525
g142
F0.8732
tp3526
a(g2336
g142
F0.7688
tp3527
a(g1175
g261
F0.8243
tp3528
a(g2336
g12
F0.6575
tp3529
a(g33
g3
F0.843
tp3530
a(g2336
g142
F0.6634
tp3531
a(g3525
g142
F0.8854
tp3532
a(g2336
g142
F0.9332
tp3533
asI427
(lp3534
(S'was'
p3535
g6
F0.9939
tp3536
a(S'she'
p3537
g3
F0.903
tp3538
a(S'older'
p3539
g41
F0.867
tp3540
a(S'or'
p3541
g261
F0.9911
tp3542
a(S'younger'
p3543
g41
F0.9746
tp3544
a(S'than'
p3545
g68
F0.999
tp3546
a(S'you'
p3547
g3
F0.9997
tp3548
a(S'were'
p3549
g6
F0.9954
tp3550
asI428
(lp3551
(S'um'
p3552
g27
F0.9082
tp3553
a(S'probably'
p3554
g38
F0.9942
tp3555
a(g8
g9
F0.9914
tp3556
a(S'little'
p3557
g41
F0.9971
tp3558
a(S'bit'
p3559
g12
F0.6144
tp3560
a(S'younger'
p3561
g41
F0.8947
tp3562
asI429
(lp3563
(g990
g142
F0.5093
tp3564
a(g2336
g142
F0.9495
tp3565
a(g3525
g142
F0.8959
tp3566
a(g2336
g142
F0.9012
tp3567
asI430
(lp3568
(S'probably'
p3569
g38
F0.9988
tp3570
a(S'in'
p3571
g68
F0.9863
tp3572
a(S'her'
p3573
g9
F0.9004
tp3574
a(S'late'
p3575
g41
F0.9354
tp3576
a(S'twenties'
p3577
g12
F0.9977
tp3578
asI431
(lp3579
(g990
g142
F0.5093
tp3580
a(g2336
g142
F0.9509
tp3581
a(g3525
g142
F0.8732
tp3582
a(g2336
g142
F0.7989
tp3583
a(g1175
g261
F0.8334
tp3584
a(g2336
g12
F0.4359
tp3585
asI432
(lp3586
(g33
g3
F0.9276
tp3587
a(g2336
g142
F0.6346
tp3588
a(g3525
g142
F0.8959
tp3589
a(g2336
g142
F0.9012
tp3590
asI433
(lp3591
(S'xxx'
p3592
g44
F0.5731
tp3593
a(S'genie'
p3594
g12
F0.943
tp3595
a(g1373
g142
F0.4695
tp3596
asI434
(lp3597
(g33
g3
F0.9635
tp3598
a(S'don'
p3599
g6
F0.9231
tp3600
a(g20
g12
F0.2503
tp3601
a(S'want'
p3602
g6
F0.9986
tp3603
a(S'my'
p3604
g9
F0.9933
tp3605
a(S'bagel'
p3606
g12
F0.9855
tp3607
asI435
(lp3608
(S'xxx'
p3609
g44
F0.6542
tp3610
a(S'have'
p3611
g6
F0.9983
tp3612
a(S'it'
p3613
g3
F0.9891
tp3614
asI436
(lp3615
(S'xxx'
p3616
g44
F0.8437
tp3617
asI437
(lp3618
(S'what'
p3619
g3
F0.9757
tp3620
a(S'else'
p3621
g38
F0.8752
tp3622
a(S'chi'
p3623
g142
F0.393
tp3624
asI438
(lp3625
(S'so'
p3626
g68
F0.9008
tp3627
a(S'she'
p3628
g3
F0.9991
tp3629
a(S'had'
p3630
g6
F0.9995
tp3631
a(S'like'
p3632
g68
F0.7779
tp3633
asI439
(lp3634
(S'too'
p3635
g38
F0.937
tp3636
asI440
(lp3637
(g8
g9
F0.9924
tp3638
a(S'lot'
p3639
g12
F0.6733
tp3640
a(S'more'
p3641
g41
F0.8132
tp3642
a(S'experience'
p3643
g12
F0.9887
tp3644
a(S'in'
p3645
g68
F0.9991
tp3646
a(S'the'
p3647
g9
F0.9989
tp3648
a(S'field'
p3649
g12
F0.9456
tp3650
a(S'or'
p3651
g261
F0.9896
tp3652
asI441
(lp3653
(S'mm'
p3654
g27
F0.627
tp3655
asI442
(lp3656
(S'base'
p3657
g12
F0.9556
tp3658
asI443
(lp3659
(S'well'
p3660
g27
F0.8954
tp3661
a(S'she'
p3662
g3
F0.9993
tp3663
a(S'had'
p3664
g6
F0.9974
tp3665
a(S'well'
p3666
g27
F0.4853
tp3667
a(S'she'
p3668
g3
F0.9993
tp3669
a(S'had'
p3670
g6
F0.9998
tp3671
a(S'all'
p3672
g9
F0.6945
tp3673
a(S'this'
p3674
g9
F0.9866
tp3675
a(S'volunteer'
p3676
g12
F0.9495
tp3677
a(S'stuff'
p3678
g12
F0.985
tp3679
a(S'and'
p3680
g261
F0.9885
tp3681
a(S'the'
p3682
g9
F0.9836
tp3683
asI444
(lp3684
(S'www'
p3685
g18
F0.4111
tp3686
a(g33
g3
F0.9092
tp3687
a(g35
g6
F0.9907
tp3688
a(g8
g9
F0.9812
tp3689
a(S'hyper'
p3690
g41
F0.9799
tp3691
a(S'xxx'
p3692
g44
F0.5395
tp3693
a(S'hyperspace'
p3694
g12
F0.7499
tp3695
asI445
(lp3696
(S'what'
p3697
g3
F0.9931
tp3698
a(S'does'
p3699
g6
F0.9978
tp3700
a(S'that'
p3701
g3
F0.9396
tp3702
a(S'say'
p3703
g6
F0.9738
tp3704
asI446
(lp3705
(S'too'
p3706
g38
F0.937
tp3707
asI447
(lp3708
(S'oh'
p3709
g27
F0.9981
tp3710
a(S'okay'
p3711
g27
F0.9822
tp3712
asI448
(lp3713
(S'yeah'
p3714
g27
F0.9892
tp3715
a(S'two'
p3716
g136
F0.8881
tp3717
a(S'is'
p3718
g6
F0.9723
tp3719
a(S'base'
p3720
g12
F0.9071
tp3721
asI449
(lp3722
(S'well'
p3723
g27
F0.8837
tp3724
a(g8
g9
F0.9883
tp3725
a(S'lot'
p3726
g12
F0.9886
tp3727
a(S'of'
p3728
g68
F0.9961
tp3729
a(S'times'
p3730
g12
F0.9816
tp3731
a(g33
g3
F0.9232
tp3732
a(S'make'
p3733
g6
F0.999
tp3734
a(S'lists'
p3735
g12
F0.9978
tp3736
a(S'of'
p3737
g68
F0.996
tp3738
a(S'things'
p3739
g12
F0.9825
tp3740
asI450
(lp3741
(S'instead'
p3742
g38
F0.8893
tp3743
a(S'of'
p3744
g68
F0.9947
tp3745
a(S'makin'
p3746
g18
F0.4765
tp3747
a(g990
g6
F0.5287
tp3748
a(S'it'
p3749
g3
F0.9929
tp3750
a(S'in'
p3751
g68
F0.9073
tp3752
a(g8
g9
F0.9488
tp3753
a(S'you'
p3754
g3
F0.9984
tp3755
a(S'know'
p3756
g6
F0.9987
tp3757
a(S'like'
p3758
g68
F0.8748
tp3759
a(S'that'
p3760
g3
F0.9179
tp3761
asI451
(lp3762
(S'you'
p3763
g3
F0.9754
tp3764
a(S're'
p3765
g6
F0.7716
tp3766
a(S'supposed'
p3767
g41
F0.7967
tp3768
a(S'to'
p3769
g68
F0.9933
tp3770
a(S'do'
p3771
g6
F1.0
tp3772
a(S'it'
p3773
g3
F0.994
tp3774
a(S'like'
p3775
g68
F0.823
tp3776
a(S'this'
p3777
g3
F0.9154
tp3778
asI452
(lp3779
(S'how'
p3780
g38
F0.9864
tp3781
a(S'you'
p3782
g3
F0.9993
tp3783
a(S'like'
p3784
g6
F0.8253
tp3785
a(S'you'
p3786
g3
F0.9999
tp3787
a(S'did'
p3788
g6
F0.9999
tp3789
a(S'your'
p3790
g9
F0.9864
tp3791
a(S'spelling'
p3792
g12
F0.9961
tp3793
a(S'thing'
p3794
g12
F0.9888
tp3795
asI453
(lp3796
(S'hey'
p3797
g27
F0.9972
tp3798
a(S'hey'
p3799
g27
F0.9903
tp3800
a(S'bro'
p3801
g12
F0.9129
tp3802
asI454
(lp3803
(S'yesterday'
p3804
g12
F0.6676
tp3805
asI455
(lp3806
(S'and'
p3807
g261
F0.9987
tp3808
a(S'do'
p3809
g6
F0.9998
tp3810
a(S'it'
p3811
g3
F0.9933
tp3812
a(S'in'
p3813
g68
F0.9005
tp3814
a(g8
g9
F0.995
tp3815
a(S'row'
p3816
g12
F0.9943
tp3817
a(S'like'
p3818
g68
F0.9791
tp3819
a(S'this'
p3820
g3
F0.9154
tp3821
asI456
(lp3822
(S'here'
p3823
g38
F0.9382
tp3824
a(g5
g142
F0.7812
tp3825
a(S'your'
p3826
g9
F0.6985
tp3827
a(S'xxx'
p3828
g12
F0.4287
tp3829
asI457
(lp3830
(S'that'
p3831
g9
F0.8481
tp3832
a(S'way'
p3833
g12
F0.9254
tp3834
a(S'it'
p3835
g3
F0.9562
tp3836
a(g5
g6
F0.6177
tp3837
a(S'easier'
p3838
g41
F0.9472
tp3839
a(S'to'
p3840
g68
F0.9989
tp3841
a(S'check'
p3842
g6
F0.9932
tp3843
a(S'things'
p3844
g12
F0.9797
tp3845
a(S'off'
p3846
g68
F0.4949
tp3847
a(S'and'
p3848
g261
F0.9959
tp3849
a(S'to'
p3850
g68
F0.9884
tp3851
a(S'get'
p3852
g6
F1.0
tp3853
a(S'it'
p3854
g3
F0.997
tp3855
a(S'organized'
p3856
g6
F0.9613
tp3857
asI458
(lp3858
(g33
g3
F0.9281
tp3859
a(g633
g68
F0.6672
tp3860
a(g33
g3
F0.9719
tp3861
a(g633
g68
F0.7039
tp3862
a(g33
g3
F0.9957
tp3863
a(S'washed'
p3864
g6
F0.9996
tp3865
a(S'it'
p3866
g3
F0.9758
tp3867
asI459
(lp3868
(S'oh'
p3869
g27
F0.9987
tp3870
a(S'yeah'
p3871
g27
F0.9997
tp3872
asI460
(lp3873
(S'you'
p3874
g3
F0.9983
tp3875
a(S'know'
p3876
g6
F0.9993
tp3877
a(S'like'
p3878
g68
F0.8809
tp3879
a(S'you'
p3880
g3
F0.9996
tp3881
a(S'get'
p3882
g6
F0.9991
tp3883
a(S'th'
p3884
g6
F0.4194
tp3885
a(S'em'
p3886
g3
F0.8721
tp3887
a(S'separate'
p3888
g41
F0.935
tp3889
a(S'in'
p3890
g68
F0.9977
tp3891
a(S'your'
p3892
g9
F0.9953
tp3893
a(S'mind'
p3894
g12
F0.9946
tp3895
asI461
(lp3896
(S'you'
p3897
g3
F0.9969
tp3898
a(S'do'
p3899
g6
F0.9993
tp3900
asI462
(lp3901
(S'mhm'
p3902
g27
F0.9747
tp3903
asI463
(lp3904
(S'yeah'
p3905
g27
F0.998
tp3906
a(S'okay'
p3907
g27
F0.9473
tp3908
asI464
(lp3909
(S'alright'
p3910
g27
F0.9864
tp3911
asI465
(lp3912
(S'yep'
p3913
g27
F0.9977
tp3914
asI466
(lp3915
(S'two'
p3916
g136
F0.9238
tp3917
asI467
(lp3918
(S'how'
p3919
g38
F0.9703
tp3920
a(S'do'
p3921
g6
F0.9987
tp3922
a(S'you'
p3923
g3
F0.9974
tp3924
a(S'spell'
p3925
g6
F0.9368
tp3926
a(S'baseball'
p3927
g12
F0.8812
tp3928
a(g1373
g12
F0.5335
tp3929
asI468
(lp3930
(S'b'
p3931
g6
F0.3078
tp3932
a(g2336
g6
F0.3269
tp3933
a(g8
g9
F0.9722
tp3934
a(g2336
g12
F0.8698
tp3935
asI469
(lp3936
(S'sound'
p3937
g6
F0.9676
tp3938
a(S'it'
p3939
g3
F0.9976
tp3940
a(S'out'
p3941
g285
F0.9729
tp3942
asI470
(lp3943
(S'yeah'
p3944
g27
F0.9988
tp3945
asI471
(lp3946
(g3931
g6
F0.3078
tp3947
a(g2336
g6
F0.3663
tp3948
a(g8
g9
F0.9772
tp3949
a(g2336
g12
F0.7054
tp3950
a(g5
g142
F0.9294
tp3951
a(g2336
g142
F0.8684
tp3952
a(g3525
g142
F0.8437
tp3953
a(g2336
g142
F0.899
tp3954
asI472
(lp3955
(S'yeah'
p3956
g27
F0.9988
tp3957
asI473
(lp3958
(S'mhm'
p3959
g27
F0.9747
tp3960
asI474
(lp3961
(S'that'
p3962
g3
F0.473
tp3963
a(g5
g142
F0.3574
tp3964
a(S'base'
p3965
g12
F0.9374
tp3966
a(g1373
g142
F0.5653
tp3967
asI475
(lp3968
(S'ball'
p3969
g12
F0.9745
tp3970
asI476
(lp3971
(S'is'
p3972
g6
F0.9906
tp3973
a(S'baseball'
p3974
g12
F0.8978
tp3975
a(g5
g142
F0.7818
tp3976
a(S'one'
p3977
g136
F0.9418
tp3978
a(S'word'
p3979
g12
F0.7792
tp3980
asI477
(lp3981
(S'yeah'
p3982
g27
F0.994
tp3983
a(S'right'
p3984
g27
F0.7355
tp3985
asI478
(lp3986
(S'mhm'
p3987
g27
F0.9747
tp3988
asI479
(lp3989
(S'baseball'
p3990
g12
F0.946
tp3991
asI480
(lp3992
(g2350
g142
F0.3324
tp3993
a(S'how'
p3994
g38
F0.9614
tp3995
a(S'do'
p3996
g6
F0.9989
tp3997
a(S'you'
p3998
g3
F0.9969
tp3999
a(S'spell'
p4000
g6
F0.9815
tp4001
a(S'somerthee'
p4002
g18
F0.4714
tp4003
a(g2334
g18
F0.4543
tp4004
asI481
(lp4005
(S'what'
p4006
g3
F0.949
tp4007
asI482
(lp4008
(S'is'
p4009
g6
F0.9993
tp4010
a(S'it'
p4011
g3
F0.9686
tp4012
a(S'baseball'
p4013
g12
F0.8919
tp4014
a(S'xxx'
p4015
g12
F0.4383
tp4016
a(S'or'
p4017
g261
F0.9914
tp4018
a(S'word'
p4019
g12
F0.8916
tp4020
a(g1373
g142
F0.5284
tp4021
asI483
(lp4022
(S'symphony'
p4023
g12
F0.7379
tp4024
asI484
(lp4025
(S'no'
p4026
g27
F0.9253
tp4027
asI485
(lp4028
(S'spell'
p4029
g6
F0.9193
tp4030
a(S'it'
p4031
g3
F0.9868
tp4032
asI486
(lp4033
(S'no'
p4034
g27
F0.6674
tp4035
a(S'no'
p4036
g27
F0.4752
tp4037
a(S'no'
p4038
g27
F0.4191
tp4039
a(S'no'
p4040
g9
F0.3526
tp4041
a(S'no'
p4042
g12
F0.364
tp4043
asI487
(lp4044
(g33
g3
F0.9635
tp4045
a(S'don'
p4046
g6
F0.9231
tp4047
a(g20
g142
F0.5454
tp4048
a(S'xxx'
p4049
g142
F0.4611
tp4050
a(S'that'
p4051
g3
F0.7129
tp4052
asI488
(lp4053
(g33
g3
F0.9635
tp4054
a(S'don'
p4055
g6
F0.9231
tp4056
a(g20
g12
F0.2639
tp4057
a(S'care'
p4058
g6
F0.9301
tp4059
a(S'if'
p4060
g68
F0.9976
tp4061
a(S'um'
p4062
g3
F0.3128
tp4063
a(S'and'
p4064
g261
F0.9959
tp4065
a(S'that'
p4066
g3
F0.8861
tp4067
a(S'and'
p4068
g261
F0.997
tp4069
a(S'then'
p4070
g38
F0.992
tp4071
a(g33
g3
F0.9971
tp4072
a(S'did'
p4073
g6
F0.9999
tp4074
a(S'anything'
p4075
g12
F0.9573
tp4076
asI489
(lp4077
(S'um'
p4078
g27
F0.8306
tp4079
a(S'baseball'
p4080
g12
F0.951
tp4081
a(S'is'
p4082
g6
F0.9953
tp4083
a(S'um'
p4084
g27
F0.4975
tp4085
a(S'xxx'
p4086
g44
F0.4475
tp4087
a(S'someone'
p4088
g12
F0.961
tp4089
asI490
(lp4090
(S'one'
p4091
g136
F0.9697
tp4092
a(S'point'
p4093
g12
F0.8575
tp4094
a(S'zero'
p4095
g136
F0.3175
tp4096
a(S'zero'
p4097
g136
F0.3332
tp4098
a(S'zero'
p4099
g136
F0.498
tp4100
a(S'because'
p4101
g68
F0.9993
tp4102
a(S'it'
p4103
g3
F0.9984
tp4104
a(g5
g6
F0.7126
tp4105
a(g8
g9
F0.9652
tp4106
a(S'xxx'
p4107
g12
F0.367
tp4108
a(S'when'
p4109
g38
F0.9754
tp4110
a(S'you'
p4111
g3
F0.9656
tp4112
a(S'pitch'
p4113
g6
F0.9789
tp4114
a(S'it'
p4115
g3
F0.9378
tp4116
a(S'um'
p4117
g27
F0.5712
tp4118
a(S'xxx'
p4119
g44
F0.7548
tp4120
asI491
(lp4121
(S'and'
p4122
g261
F0.9982
tp4123
a(S'that'
p4124
g3
F0.7617
tp4125
a(g5
g6
F0.6635
tp4126
a(S'like'
p4127
g68
F0.8097
tp4128
a(S'that'
p4129
g3
F0.8211
tp4130
a(g5
g6
F0.5819
tp4131
a(g8
g9
F0.9705
tp4132
a(S'xxx'
p4133
g44
F0.4048
tp4134
asI492
(lp4135
(S'is'
p4136
g6
F0.9981
tp4137
a(S'that'
p4138
g3
F0.7297
tp4139
a(g8
g9
F0.9894
tp4140
a(S'nintendo'
p4141
g18
F0.921
tp4142
a(S'game'
p4143
g12
F0.9864
tp4144
asI493
(lp4145
(S'yeah'
p4146
g27
F0.9951
tp4147
a(g8
g9
F0.771
tp4148
a(g8
g9
F0.4914
tp4149
a(S'um'
p4150
g27
F0.6548
tp4151
a(S'that'
p4152
g3
F0.5792
tp4153
a(g5
g6
F0.6363
tp4154
a(S'like'
p4155
g68
F0.9011
tp4156
a(g8
g9
F0.9939
tp4157
a(S'challenge'
p4158
g12
F0.9953
tp4159
a(S'it'
p4160
g3
F0.9447
tp4161
a(g5
g6
F0.3981
tp4162
a(S'fun'
p4163
g41
F0.6188
tp4164
a(S'right'
p4165
g38
F0.5622
tp4166
asI494
(lp4167
(S'laughs'
p4168
g6
F0.9102
tp4169
asI495
(lp4170
(S'like'
p4171
g68
F0.8907
tp4172
a(g8
g9
F0.936
tp4173
a(S'xxx'
p4174
g12
F0.6417
tp4175
a(S'bat'
p4176
g12
F0.9824
tp4177
asI496
(lp4178
(S'baseball'
p4179
g12
F0.8867
tp4180
a(S'symphony'
p4181
g12
F0.9867
tp4182
asI497
(lp4183
(g33
g3
F0.9892
tp4184
a(S'got'
p4185
g6
F0.9998
tp4186
a(S'to'
p4187
g68
F0.9426
tp4188
a(S'find'
p4189
g6
F0.9995
tp4190
a(S'out'
p4191
g285
F0.9594
tp4192
a(S'xxx'
p4193
g44
F0.7517
tp4194
asI498
(lp4195
(S'symmetry'
p4196
g12
F0.9838
tp4197
a(S'maybe'
p4198
g38
F0.9502
tp4199
asI499
(lp4200
(S'baseball'
p4201
g12
F0.9728
tp4202
a(g33
g3
F0.8446
tp4203
a(S'don'
p4204
g6
F0.9187
tp4205
a(g20
g12
F0.2707
tp4206
a(S'think'
p4207
g6
F0.9917
tp4208
a(S'so'
p4209
g38
F0.7787
tp4210
asI500
(lp4211
(g1305
g136
F0.9644
tp4212
a(S'clears'
p4213
g6
F0.8351
tp4214
a(S'throat'
p4215
g12
F0.9556
tp4216
asI501
(lp4217
(S'where'
p4218
g38
F0.9711
tp4219
a(g5
g142
F0.6962
tp4220
a(S'my'
p4221
g9
F0.9868
tp4222
a(S'nintendo'
p4223
g18
F0.8508
tp4224
a(S'power'
p4225
g12
F0.9267
tp4226
asI502
(lp4227
(S'can'
p4228
g6
F0.9627
tp4229
a(g20
g6
F0.5367
tp4230
a(S'xxx'
p4231
g44
F0.4237
tp4232
a(S'any'
p4233
g9
F0.7624
tp4234
a(S'xxx'
p4235
g44
F0.665
tp4236
asI503
(lp4237
(g33
g3
F0.989
tp4238
a(S'think'
p4239
g6
F0.9999
tp4240
a(S'they'
p4241
g3
F0.974
tp4242
a(S're'
p4243
g6
F0.7663
tp4244
a(S'on'
p4245
g68
F0.9811
tp4246
a(S'the'
p4247
g9
F0.9905
tp4248
a(S'um'
p4249
g142
F0.3344
tp4250
a(S'shelf'
p4251
g12
F0.9925
tp4252
a(S'of'
p4253
g68
F0.999
tp4254
a(S'your'
p4255
g9
F0.9268
tp4256
asI504
(lp4257
(S'oh'
p4258
g27
F0.9934
tp4259
a(S'you'
p4260
g3
F0.993
tp4261
a(S'could'
p4262
g6
F0.9992
tp4263
asI505
(lp4264
(S'laughs'
p4265
g6
F0.9102
tp4266
asI506
(lp4267
(g33
g3
F0.9896
tp4268
a(S'have'
p4269
g6
F1.0
tp4270
a(S'my'
p4271
g9
F0.9605
tp4272
a(S'um'
p4273
g142
F0.308
tp4274
a(S'conference'
p4275
g12
F0.9913
tp4276
a(S'with'
p4277
g68
F0.9999
tp4278
a(S'his'
p4279
g9
F0.9992
tp4280
a(S'teacher'
p4281
g12
F0.9952
tp4282
a(S'on'
p4283
g68
F0.996
tp4284
a(S'tuesday'
p4285
g18
F0.9635
tp4286
asI507
(lp4287
(S'oh'
p4288
g27
F0.9909
tp4289
a(S'this'
p4290
g3
F0.9853
tp4291
a(S'is'
p4292
g6
F0.9959
tp4293
a(S'so'
p4294
g38
F0.8534
tp4295
asI508
(lp4296
(S'daddy'
p4297
g12
F0.9816
tp4298
a(g33
g3
F0.9532
tp4299
a(S'wish'
p4300
g6
F0.9966
tp4301
a(g33
g3
F0.985
tp4302
a(S'xxx'
p4303
g44
F0.607
tp4304
asI509
(lp4305
(S'what'
p4306
g3
F0.5932
tp4307
a(S'time'
p4308
g12
F0.9934
tp4309
asI510
(lp4310
(S'oh'
p4311
g27
F0.9988
tp4312
asI511
(lp4313
(g33
g3
F0.9635
tp4314
a(S'don'
p4315
g6
F0.9156
tp4316
a(g20
g12
F0.3074
tp4317
a(S'know'
p4318
g6
F0.965
tp4319
asI512
(lp4320
(g33
g3
F0.9156
tp4321
a(S've'
p4322
g6
F0.9183
tp4323
a(S'written'
p4324
g6
F0.9987
tp4325
a(S'it'
p4326
g3
F0.9644
tp4327
a(S'on'
p4328
g68
F0.9596
tp4329
a(S'the'
p4330
g9
F0.9991
tp4331
a(S'calendar'
p4332
g12
F0.9962
tp4333
asI513
(lp4334
(S'okay'
p4335
g27
F0.9857
tp4336
asI514
(lp4337
(S'baseball'
p4338
g12
F0.9405
tp4339
a(S'xxx'
p4340
g44
F0.71
tp4341
asI515
(lp4342
(S'guess'
p4343
g6
F0.8849
tp4344
a(g33
g3
F0.9884
tp4345
a(g35
g6
F0.929
tp4346
a(S'xxx'
p4347
g6
F0.2685
tp4348
a(S'till'
p4349
g68
F0.9864
tp4350
a(S'they'
p4351
g3
F0.9915
tp4352
a(S'xxx'
p4353
g44
F0.5125
tp4354
asI516
(lp4355
(S'www'
p4356
g18
F0.3889
tp4357
asI517
(lp4358
(S'is'
p4359
g6
F0.9908
tp4360
a(S'monday'
p4361
g18
F0.7422
tp4362
a(g8
g9
F0.9884
tp4363
a(S'full'
p4364
g41
F0.9475
tp4365
a(g5
g142
F0.6368
tp4366
a(S'full'
p4367
g41
F0.9961
tp4368
a(S'day'
p4369
g12
F0.9997
tp4370
a(S'at'
p4371
g68
F0.9997
tp4372
a(S'school'
p4373
g12
F0.9866
tp4374
a(S'chi'
p4375
g142
F0.5855
tp4376
asI518
(lp4377
(S'monday'
p4378
g18
F0.8647
tp4379
asI519
(lp4380
(S'no'
p4381
g27
F0.7608
tp4382
a(S'it'
p4383
g3
F0.9828
tp4384
a(g5
g6
F0.7392
tp4385
a(g8
g9
F0.9974
tp4386
a(S'half'
p4387
g12
F0.3769
tp4388
a(g8
g9
F0.9762
tp4389
a(S'day'
p4390
g12
F0.9978
tp4391
asI520
(lp4392
(S'mm'
p4393
g27
F0.627
tp4394
asI521
(lp4395
(S'they'
p4396
g3
F0.909
tp4397
a(S're'
p4398
g6
F0.9396
tp4399
a(S'all'
p4400
g9
F0.7658
tp4401
asI522
(lp4402
(g33
g3
F0.989
tp4403
a(S'think'
p4404
g6
F0.9999
tp4405
a(S'there'
p4406
g38
F0.8164
tp4407
a(g5
g142
F0.6497
tp4408
a(S'only'
p4409
g41
F0.6713
tp4410
a(S'four'
p4411
g136
F0.6952
tp4412
a(S'half'
p4413
g136
F0.3201
tp4414
a(S'days'
p4415
g12
F0.9857
tp4416
asI523
(lp4417
(S'why'
p4418
g38
F0.9375
tp4419
a(S'don'
p4420
g12
F0.2525
tp4421
a(g20
g6
F0.5898
tp4422
a(S'you'
p4423
g3
F0.999
tp4424
a(S'come'
p4425
g6
F0.9997
tp4426
a(S'back'
p4427
g38
F0.9208
tp4428
a(S'to'
p4429
g68
F0.9965
tp4430
a(S'that'
p4431
g9
F0.8438
tp4432
a(S'one'
p4433
g136
F0.7289
tp4434
a(S'later'
p4435
g38
F0.796
tp4436
a(S'chi'
p4437
g142
F0.4038
tp4438
asI524
(lp4439
(S'no'
p4440
g27
F0.8501
tp4441
a(S'already'
p4442
g38
F0.9509
tp4443
asI525
(lp4444
(g33
g3
F0.9869
tp4445
a(S'gotta'
p4446
g6
F0.9997
tp4447
a(S'find'
p4448
g6
F0.9988
tp4449
a(S'out'
p4450
g285
F0.9658
tp4451
asI526
(lp4452
(g33
g3
F0.953
tp4453
a(g35
g6
F0.9629
tp4454
a(S'gonna'
p4455
g6
F0.9943
tp4456
a(S'ask'
p4457
g6
F0.9967
tp4458
a(S'linda'
p4459
g18
F0.9637
tp4460
asI527
(lp4461
(S'hey'
p4462
g27
F0.9986
tp4463
asI528
(lp4464
(S'baseball'
p4465
g12
F0.9405
tp4466
a(S'xxx'
p4467
g44
F0.71
tp4468
asI529
(lp4469
(S'xxx'
p4470
g44
F0.6291
tp4471
a(S'blades'
p4472
g12
F0.9881
tp4473
a(S'of'
p4474
g68
F0.9949
tp4475
a(S'steel'
p4476
g12
F0.7281
tp4477
asI530
(lp4478
(S'here'
p4479
g38
F0.8704
tp4480
a(S'it'
p4481
g3
F0.9997
tp4482
a(S'is'
p4483
g6
F0.9992
tp4484
asI531
(lp4485
(S'no'
p4486
g27
F0.9253
tp4487
asI532
(lp4488
(S'xxx'
p4489
g44
F0.5852
tp4490
a(S'that'
p4491
g3
F0.6963
tp4492
asI533
(lp4493
(g33
g3
F0.953
tp4494
a(g35
g6
F0.9784
tp4495
a(S'not'
p4496
g38
F0.9963
tp4497
a(S'even'
p4498
g38
F0.9997
tp4499
a(S'sure'
p4500
g41
F0.9805
tp4501
a(S'if'
p4502
g68
F0.9997
tp4503
a(S'this'
p4504
g3
F0.9908
tp4505
a(S'is'
p4506
g6
F0.9988
tp4507
a(S'the'
p4508
g9
F0.996
tp4509
a(S'right'
p4510
g41
F0.8012
tp4511
a(S'nintendo'
p4512
g18
F0.9574
tp4513
a(S'power'
p4514
g12
F0.9323
tp4515
a(S'xxx'
p4516
g44
F0.8113
tp4517
asI534
(lp4518
(S'and'
p4519
g261
F0.999
tp4520
a(g33
g3
F0.9862
tp4521
a(g35
g6
F0.9772
tp4522
a(S'not'
p4523
g38
F0.9954
tp4524
a(S'gonna'
p4525
g6
F0.9966
tp4526
asI535
(lp4527
(S'if'
p4528
g68
F0.997
tp4529
a(S'it'
p4530
g3
F0.9983
tp4531
a(g5
g6
F0.595
tp4532
a(S'not'
p4533
g38
F0.9916
tp4534
a(S'this'
p4535
g9
F0.9337
tp4536
a(S'one'
p4537
g136
F0.8701
tp4538
a(g33
g3
F0.974
tp4539
a(S'think'
p4540
g6
F0.9994
tp4541
a(g33
g3
F0.9958
tp4542
a(S'know'
p4543
g6
F0.9999
tp4544
a(S'which'
p4545
g9
F0.9852
tp4546
a(S'one'
p4547
g136
F0.8857
tp4548
a(S'it'
p4549
g3
F0.993
tp4550
a(S'is'
p4551
g6
F0.9992
tp4552
asI536
(lp4553
(S'not'
p4554
g38
F0.9798
tp4555
a(S'this'
p4556
g9
F0.9223
tp4557
a(S'one'
p4558
g136
F0.6915
tp4559
asI537
(lp4560
(S'then'
p4561
g38
F0.9477
tp4562
a(S'it'
p4563
g3
F0.9981
tp4564
a(S'has'
p4565
g6
F0.9997
tp4566
a(S'to'
p4567
g68
F0.9876
tp4568
a(S'be'
p4569
g6
F0.9997
tp4570
a(S'in'
p4571
g68
F0.8743
tp4572
asI538
(lp4573
(S'here'
p4574
g38
F0.8704
tp4575
a(S'it'
p4576
g3
F0.9997
tp4577
a(S'is'
p4578
g6
F0.9992
tp4579
asI539
(lp4580
(S'www'
p4581
g18
F0.7976
tp4582
a(S'clears'
p4583
g6
F0.864
tp4584
a(S'throat'
p4585
g12
F0.9667
tp4586
a(S'hey'
p4587
g27
F0.9844
tp4588
asI540
(lp4589
(S'take'
p4590
g6
F0.9896
tp4591
a(S'that'
p4592
g3
F0.7496
tp4593
a(S'off'
p4594
g68
F0.6711
tp4595
a(S'the'
p4596
g9
F0.9998
tp4597
a(S'floor'
p4598
g12
F0.9927
tp4599
a(S'bro'
p4600
g12
F0.972
tp4601
asI541
(lp4602
(S'grunts'
p4603
g6
F0.6753
tp4604
asI542
(lp4605
(S'no'
p4606
g27
F0.9253
tp4607
asI543
(lp4608
(S'you'
p4609
g3
F0.997
tp4610
a(S'want'
p4611
g6
F0.9998
tp4612
a(S'some'
p4613
g9
F0.8559
tp4614
asI544
(lp4615
(S'um'
p4616
g27
F0.9786
tp4617
a(S'yeah'
p4618
g27
F0.9956
tp4619
a(S'please'
p4620
g6
F0.9089
tp4621
asI545
(lp4622
(S'okay'
p4623
g27
F0.9857
tp4624
asI546
(lp4625
(S'yum'
p4626
g27
F0.9033
tp4627
a(S'lots'
p4628
g12
F0.9694
tp4629
a(S'of'
p4630
g68
F0.9963
tp4631
a(S'syrup'
p4632
g12
F0.9916
tp4633
a(S'on'
p4634
g68
F0.9979
tp4635
a(S'it'
p4636
g3
F0.9977
tp4637
asI547
(lp4638
(S'want'
p4639
g6
F0.9964
tp4640
a(S'this'
p4641
g3
F0.6346
tp4642
asI548
(lp4643
(g8
g9
F0.99
tp4644
a(S'golden'
p4645
g41
F0.9506
tp4646
a(S'brown'
p4647
g12
F0.7101
tp4648
asI549
(lp4649
(S'pancake'
p4650
g18
F0.5597
tp4651
asI550
(lp4652
(S'come'
p4653
g6
F0.9843
tp4654
a(S'here'
p4655
g38
F0.9799
tp4656
a(S'xxx'
p4657
g44
F0.7719
tp4658
asI551
(lp4659
(S'sighs'
p4660
g6
F0.7567
tp4661
asI552
(lp4662
(S'you'
p4663
g3
F0.9968
tp4664
a(S'should'
p4665
g6
F0.9996
tp4666
a(S'read'
p4667
g6
F0.9998
tp4668
a(S'the'
p4669
g9
F0.984
tp4670
a(S'um'
p4671
g142
F0.6491
tp4672
a(S'the'
p4673
g9
F0.9332
tp4674
a(S'um'
p4675
g142
F0.2826
tp4676
a(S'ingredients'
p4677
g12
F0.8479
tp4678
a(S'list'
p4679
g12
F0.8028
tp4680
a(S'in'
p4681
g68
F0.996
tp4682
a(S'that'
p4683
g9
F0.8116
tp4684
a(S'pancake'
p4685
g12
F0.4503
tp4686
a(S'mix'
p4687
g12
F0.9936
tp4688
asI553
(lp4689
(S'burps'
p4690
g6
F0.4198
tp4691
asI554
(lp4692
(S'ex'
p4693
g18
F0.4066
tp4694
a(S'cuse'
p4695
g18
F0.8574
tp4696
a(S'me'
p4697
g3
F0.9926
tp4698
asI555
(lp4699
(S'yuck'
p4700
g27
F0.9977
tp4701
asI556
(lp4702
(S'have'
p4703
g6
F0.9989
tp4704
a(S'you'
p4705
g3
F0.9988
tp4706
a(S'ever'
p4707
g38
F0.9803
tp4708
asI557
(lp4709
(S'excuse'
p4710
g6
F0.9751
tp4711
a(S'me'
p4712
g3
F0.9776
tp4713
a(S'one'
p4714
g136
F0.9552
tp4715
a(S'moment'
p4716
g12
F0.9931
tp4717
asI558
(lp4718
(S'chuckles'
p4719
g6
F0.8006
tp4720
asI559
(lp4721
(S'here'
p4722
g38
F0.7796
tp4723
asI560
(lp4724
(S'here'
p4725
g38
F0.7796
tp4726
asI561
(lp4727
(S'which'
p4728
g9
F0.9912
tp4729
a(S'one'
p4730
g136
F0.8109
tp4731
a(S'could'
p4732
g6
F0.9977
tp4733
a(S'it'
p4734
g3
F0.992
tp4735
a(S'be'
p4736
g6
F0.9982
tp4737
asI562
(lp4738
(S'mm'
p4739
g27
F0.627
tp4740
asI563
(lp4741
(g33
g3
F0.9894
tp4742
a(S'knew'
p4743
g6
F0.9999
tp4744
a(S'it'
p4745
g3
F0.996
tp4746
a(S'could'
p4747
g6
F0.9988
tp4748
a(S'be'
p4749
g6
F0.9975
tp4750
asI564
(lp4751
(S'screams'
p4752
g6
F0.7508
tp4753
asI565
(lp4754
(S'your'
p4755
g9
F0.9439
tp4756
a(S'basic'
p4757
g41
F0.8333
tp4758
a(S'flour'
p4759
g12
F0.9982
tp4760
a(S'and'
p4761
g261
F0.9979
tp4762
a(S'eggs'
p4763
g12
F0.9794
tp4764
a(S'and'
p4765
g261
F0.998
tp4766
a(S'um'
p4767
g27
F0.8315
tp4768
asI566
(lp4769
(S'well'
p4770
g27
F0.5172
tp4771
a(S'go'
p4772
g6
F0.9602
tp4773
a(S'on'
p4774
g68
F0.8746
tp4775
a(S'go'
p4776
g6
F0.7836
tp4777
a(S'on'
p4778
g68
F0.6322
tp4779
a(S'and'
p4780
g261
F0.9988
tp4781
a(S'um'
p4782
g27
F0.8315
tp4783
asI567
(lp4784
(S'yeah'
p4785
g27
F0.9988
tp4786
asI568
(lp4787
(S'is'
p4788
g6
F0.9981
tp4789
a(S'that'
p4790
g3
F0.914
tp4791
a(S'what'
p4792
g3
F0.9946
tp4793
a(S'xxx'
p4794
g44
F0.7576
tp4795
asI569
(lp4796
(S'yeah'
p4797
g27
F0.9988
tp4798
asI570
(lp4799
(S'xxx'
p4800
g44
F0.8437
tp4801
asI571
(lp4802
(g1305
g136
F0.9777
tp4803
a(S'exasperated'
p4804
g41
F0.9927
tp4805
a(S'sigh'
p4806
g12
F0.8216
tp4807
asI572
(lp4808
(S'go'
p4809
g6
F0.9724
tp4810
a(S'on'
p4811
g68
F0.6473
tp4812
a(S'on'
p4813
g68
F0.9936
tp4814
a(S'your'
p4815
g9
F0.9938
tp4816
a(S'list'
p4817
g12
F0.9961
tp4818
a(S'chi'
p4819
g142
F0.4042
tp4820
asI573
(lp4821
(S'okay'
p4822
g27
F0.9364
tp4823
a(S'don'
p4824
g18
F0.6508
tp4825
a(g20
g18
F0.4741
tp4826
a(S'get'
p4827
g6
F0.9862
tp4828
a(S'too'
p4829
g38
F0.8878
tp4830
a(S'xxx'
p4831
g44
F0.8181
tp4832
asI574
(lp4833
(S'we'
p4834
g3
F0.9948
tp4835
a(S'll'
p4836
g6
F0.7892
tp4837
a(S'figure'
p4838
g6
F0.997
tp4839
a(S'it'
p4840
g3
F0.9895
tp4841
a(S'out'
p4842
g285
F0.9594
tp4843
asI575
(lp4844
(S'oh'
p4845
g27
F0.9901
tp4846
a(S'here'
p4847
g38
F0.7411
tp4848
a(S'it'
p4849
g3
F0.9997
tp4850
a(S'is'
p4851
g6
F0.9991
tp4852
a(S'now'
p4853
g38
F0.9965
tp4854
asI576
(lp4855
(S'okay'
p4856
g27
F0.9857
tp4857
asI577
(lp4858
(S'and'
p4859
g261
F0.999
tp4860
a(g33
g3
F0.995
tp4861
a(S'know'
p4862
g6
F1.0
tp4863
a(S'it'
p4864
g3
F0.9917
tp4865
a(g5
g6
F0.7731
tp4866
a(S'in'
p4867
g68
F0.982
tp4868
a(S'this'
p4869
g9
F0.9764
tp4870
a(S'one'
p4871
g136
F0.7813
tp4872
asI578
(lp4873
(S'here'
p4874
g38
F0.8925
tp4875
a(S'it'
p4876
g3
F0.9981
tp4877
a(g5
g6
F0.7725
tp4878
a(S'this'
p4879
g3
F0.6608
tp4880
a(S'xxx'
p4881
g44
F0.7544
tp4882
asI579
(lp4883
(S'this'
p4884
g9
F0.974
tp4885
a(S'little'
p4886
g41
F0.9977
tp4887
a(S'rebate'
p4888
g12
F0.9983
tp4889
a(S'xxx'
p4890
g44
F0.8176
tp4891
asI580
(lp4892
(S'xxx'
p4893
g44
F0.7054
tp4894
a(S'let'
p4895
g6
F0.998
tp4896
a(S'me'
p4897
g3
F0.9994
tp4898
asI581
(lp4899
(S'no'
p4900
g9
F0.8365
tp4901
a(S'way'
p4902
g12
F0.9976
tp4903
asI582
(lp4904
(S'quick'
p4905
g41
F0.916
tp4906
a(S'search'
p4907
g12
F0.9977
tp4908
a(S'through'
p4909
g68
F0.9988
tp4910
a(S'your'
p4911
g9
F0.9641
tp4912
a(S'res'
p4913
g12
F0.6745
tp4914
a(S'uh'
p4915
g27
F0.7133
tp4916
a(S'your'
p4917
g9
F0.9436
tp4918
a(S'research'
p4919
g12
F0.9983
tp4920
a(S'um'
p4921
g27
F0.4639
tp4922
a(S'material'
p4923
g12
F0.9542
tp4924
a(S'there'
p4925
g38
F0.7513
tp4926
a(S'chi'
p4927
g142
F0.3393
tp4928
asI583
(lp4929
(S'it'
p4930
g3
F0.9888
tp4931
a(g5
g6
F0.585
tp4932
a(S'not'
p4933
g38
F0.9704
tp4934
a(S'material'
p4935
g12
F0.9305
tp4936
a(S'either'
p4937
g261
F0.4961
tp4938
asI584
(lp4939
(S'xxx'
p4940
g44
F0.7728
tp4941
a(g33
g3
F0.9855
tp4942
a(S'want'
p4943
g6
F0.9999
tp4944
a(S'to'
p4945
g68
F0.9955
tp4946
a(S'find'
p4947
g6
F0.9997
tp4948
a(S'out'
p4949
g285
F0.9461
tp4950
a(S'what'
p4951
g3
F0.9919
tp4952
a(g5
g142
F0.4496
tp4953
a(S'in'
p4954
g68
F0.9895
tp4955
a(S'them'
p4956
g3
F0.895
tp4957
asI585
(lp4958
(S'here'
p4959
g38
F0.8344
tp4960
a(S'we'
p4961
g3
F0.9994
tp4962
a(S'go'
p4963
g6
F0.9969
tp4964
asI586
(lp4965
(S'oh'
p4966
g27
F0.9959
tp4967
a(S'yes'
p4968
g27
F0.9916
tp4969
a(S'it'
p4970
g3
F0.9988
tp4971
a(S'is'
p4972
g6
F0.9985
tp4973
a(S'xxx'
p4974
g44
F0.7965
tp4975
asI587
(lp4976
(S'okay'
p4977
g27
F0.9616
tp4978
a(S'we'
p4979
g3
F0.9978
tp4980
a(S'went'
p4981
g6
F0.9995
tp4982
a(S'to'
p4983
g68
F0.9948
tp4984
a(S'this'
p4985
g9
F0.9634
tp4986
a(S'place'
p4987
g12
F0.9964
tp4988
a(S'yesterday'
p4989
g12
F0.9225
tp4990
asI588
(lp4991
(S'this'
p4992
g9
F0.937
tp4993
a(S'christmas'
p4994
g18
F0.8884
tp4995
a(S'store'
p4996
g12
F0.9343
tp4997
a(S'thing'
p4998
g12
F0.994
tp4999
asI589
(lp5000
(S'it'
p5001
g3
F0.9956
tp5002
a(S'was'
p5003
g6
F0.9992
tp5004
a(S'supposed'
p5005
g41
F0.9352
tp5006
a(S'to'
p5007
g68
F0.9979
tp5008
a(S'be'
p5009
g6
F0.999
tp5010
asI590
(lp5011
(S'no'
p5012
g27
F0.8465
tp5013
a(S'we'
p5014
g3
F0.9913
tp5015
a(S'didn'
p5016
g6
F0.987
tp5017
a(g20
g142
F0.4278
tp5018
asI591
(lp5019
(S'it'
p5020
g3
F0.9888
tp5021
a(g5
g6
F0.7704
tp5022
a(S'like'
p5023
g68
F0.7816
tp5024
a(S'art'
p5025
g12
F0.833
tp5026
a(S'you'
p5027
g3
F0.9901
tp5028
a(S'didn'
p5029
g6
F0.9866
tp5030
a(g20
g6
F0.7124
tp5031
a(S'go'
p5032
g6
F0.9497
tp5033
asI592
(lp5034
(S'mary'
p5035
g18
F0.9894
tp5036
a(S'and'
p5037
g261
F0.999
tp5038
a(g33
g3
F0.993
tp5039
a(S'went'
p5040
g6
F0.998
tp5041
asI593
(lp5042
(S'but'
p5043
g261
F0.9962
tp5044
a(S'it'
p5045
g3
F0.9988
tp5046
a(S'was'
p5047
g6
F0.9988
tp5048
a(S'really'
p5049
g38
F0.9998
tp5050
a(S'like'
p5051
g6
F0.5188
tp5052
a(S'arts'
p5053
g12
F0.9614
tp5054
a(S'collaborative'
p5055
g41
F0.9482
tp5056
a(S'league'
p5057
g12
F0.9042
tp5058
a(S'and'
p5059
g261
F0.9977
tp5060
asI594
(lp5061
(S'oh'
p5062
g27
F0.9988
tp5063
asI595
(lp5064
(S'xxx'
p5065
g44
F0.8437
tp5066
asI596
(lp5067
(S'where'
p5068
g38
F0.9835
tp5069
a(S'in'
p5070
g68
F0.9982
tp5071
a(S'lexington'
p5072
g18
F0.9619
tp5073
asI597
(lp5074
(S'no'
p5075
g27
F0.6674
tp5076
a(S'no'
p5077
g27
F0.5387
tp5078
a(S'no'
p5079
g27
F0.4191
tp5080
a(S'no'
p5081
g27
F0.645
tp5082
asI598
(lp5083
(S'that'
p5084
g3
F0.8288
tp5085
a(S'was'
p5086
g6
F0.9996
tp5087
a(S'that'
p5088
g3
F0.7344
tp5089
a(S'like'
p5090
g68
F0.6195
tp5091
a(S'some'
p5092
g9
F0.9852
tp5093
a(S'quilt'
p5094
g12
F0.9703
tp5095
a(S'thing'
p5096
g12
F0.9415
tp5097
a(S'that'
p5098
g68
F0.993
tp5099
a(S'we'
p5100
g3
F0.9979
tp5101
a(S'xxx'
p5102
g6
F0.7228
tp5103
a(S'sort'
p5104
g12
F0.9441
tp5105
a(S'of'
p5106
g68
F0.9927
tp5107
asI599
(lp5108
(S'yeah'
p5109
g27
F0.994
tp5110
a(S'right'
p5111
g27
F0.7355
tp5112
asI600
(lp5113
(S'no'
p5114
g27
F0.7608
tp5115
a(S'it'
p5116
g3
F0.9921
tp5117
a(S'was'
p5118
g6
F0.9997
tp5119
a(S'this'
p5120
g3
F0.6582
tp5121
a(S'like'
p5122
g68
F0.763
tp5123
a(S'store'
p5124
g12
F0.9461
tp5125
a(S'that'
p5126
g68
F0.9867
tp5127
a(S'this'
p5128
g9
F0.9775
tp5129
a(S'artists'
p5130
g12
F0.9935
tp5131
a(g5
g142
F0.8741
tp5132
a(S'co'
p5133
g18
F0.7262
tp5134
a(S'op'
p5135
g142
F0.3129
tp5136
asI601
(lp5137
(S'right'
p5138
g27
F0.861
tp5139
asI602
(lp5140
(S'runs'
p5141
g6
F0.9793
tp5142
a(S'like'
p5143
g68
F0.9509
tp5144
a(S'every'
p5145
g9
F0.9489
tp5146
a(S'christmas'
p5147
g18
F0.805
tp5148
a(S'time'
p5149
g12
F0.9848
tp5150
a(S'and'
p5151
g261
F0.998
tp5152
a(S'they'
p5153
g3
F0.9914
tp5154
a(S'sell'
p5155
g6
F0.9993
tp5156
a(S'their'
p5157
g9
F0.9949
tp5158
a(S'crafts'
p5159
g12
F0.9962
tp5160
a(S'and'
p5161
g261
F0.9977
tp5162
a(S'stuff'
p5163
g12
F0.9754
tp5164
asI603
(lp5165
(S'screams'
p5166
g6
F0.7508
tp5167
asI604
(lp5168
(S'xxx'
p5169
g44
F0.8437
tp5170
asI605
(lp5171
(S'anybody'
p5172
g12
F0.8936
tp5173
a(S'if'
p5174
g68
F0.9997
tp5175
a(S'they'
p5176
g3
F0.9988
tp5177
a(S'want'
p5178
g6
F0.9995
tp5179
a(S'to'
p5180
g68
F0.9492
tp5181
asI606
(lp5182
(S'but'
p5183
g261
F0.9921
tp5184
a(S'then'
p5185
g38
F0.9837
tp5186
a(S'we'
p5187
g3
F0.9971
tp5188
a(S'went'
p5189
g6
F0.9994
tp5190
a(S'into'
p5191
g68
F0.9984
tp5192
a(S'this'
p5193
g9
F0.9607
tp5194
a(S'other'
p5195
g41
F0.9945
tp5196
a(S'place'
p5197
g12
F0.9947
tp5198
asI607
(lp5199
(S'which'
p5200
g9
F0.6166
tp5201
a(S'was'
p5202
g6
F0.9372
tp5203
asI608
(lp5204
(S'xxx'
p5205
g44
F0.8437
tp5206
asI609
(lp5207
(S'oh'
p5208
g27
F0.9928
tp5209
a(S'the'
p5210
g9
F0.9973
tp5211
a(S'children'
p5212
g12
F0.9276
tp5213
a(g5
g142
F0.796
tp5214
a(S'gallery'
p5215
g12
F0.9479
tp5216
asI610
(lp5217
(S'and'
p5218
g261
F0.9994
tp5219
a(S'it'
p5220
g3
F0.9983
tp5221
a(S'had'
p5222
g6
F0.9996
tp5223
a(S'like'
p5224
g68
F0.6582
tp5225
a(S'things'
p5226
g12
F0.9938
tp5227
a(S'for'
p5228
g68
F0.9996
tp5229
a(S'children'
p5230
g12
F0.8116
tp5231
a(S'like'
p5232
g68
F0.9213
tp5233
a(S'accessories'
p5234
g12
F0.9928
tp5235
a(S'and'
p5236
g261
F0.9955
tp5237
a(S'you'
p5238
g3
F0.9997
tp5239
a(S'know'
p5240
g6
F0.9977
tp5241
asI611
(lp5242
(S'mirrors'
p5243
g12
F0.4884
tp5244
a(S'and'
p5245
g261
F0.9977
tp5246
a(S'chairs'
p5247
g12
F0.9247
tp5248
a(S'and'
p5249
g261
F0.9968
tp5250
a(S'they'
p5251
g3
F0.9964
tp5252
a(S'have'
p5253
g6
F0.9989
tp5254
a(S'jewelry'
p5255
g12
F0.991
tp5256
a(S'and'
p5257
g261
F0.9974
tp5258
a(S'all'
p5259
g9
F0.5488
tp5260
a(S'that'
p5261
g9
F0.9356
tp5262
a(S'stuff'
p5263
g12
F0.9937
tp5264
a(S'that'
p5265
g68
F0.8938
tp5266
a(S'xxx'
p5267
g44
F0.5836
tp5268
a(S'xxx'
p5269
g44
F0.9833
tp5270
asI612
(lp5271
(S'screams'
p5272
g6
F0.7508
tp5273
asI613
(lp5274
(S'and'
p5275
g261
F0.9985
tp5276
a(S'mary'
p5277
g18
F0.9814
tp5278
a(S'said'
p5279
g6
F0.9897
tp5280
a(S'do'
p5281
g6
F0.9954
tp5282
a(S'you'
p5283
g3
F0.9993
tp5284
a(S'get'
p5285
g6
F0.9984
tp5286
a(S'much'
p5287
g41
F0.9872
tp5288
a(S'quilts'
p5289
g12
F0.9854
tp5290
a(S'in'
p5291
g68
F0.9895
tp5292
a(S'here'
p5293
g38
F0.9686
tp5294
a(S'and'
p5295
g261
F0.997
tp5296
a(S'then'
p5297
g38
F0.9784
tp5298
a(S'he'
p5299
g3
F0.9979
tp5300
a(S'said'
p5301
g6
F0.9997
tp5302
a(S'no'
p5303
g27
F0.6356
tp5304
a(S'no'
p5305
g27
F0.4092
tp5306
a(S'really'
p5307
g38
F0.9943
tp5308
a(S'but'
p5309
g261
F0.9683
tp5310
a(S'that'
p5311
g68
F0.6207
tp5312
a(S'it'
p5313
g3
F0.9978
tp5314
a(g5
g6
F0.6339
tp5315
a(S'the'
p5316
g9
F0.9994
tp5317
a(S'last'
p5318
g41
F0.996
tp5319
a(S'time'
p5320
g12
F0.9992
tp5321
a(S'that'
p5322
g68
F0.979
tp5323
a(S'they'
p5324
g3
F0.9966
tp5325
a(S'had'
p5326
g6
F0.9995
tp5327
a(S'had'
p5328
g6
F0.9879
tp5329
a(S'quilts'
p5330
g12
F0.8479
tp5331
a(S'in'
p5332
g68
F0.9944
tp5333
a(S'there'
p5334
g1242
F0.4544
tp5335
a(S'they'
p5336
g3
F0.9867
tp5337
a(S'became'
p5338
g6
F0.9994
tp5339
a(S'too'
p5340
g38
F0.9899
tp5341
a(S'big'
p5342
g41
F0.9518
tp5343
a(S'to'
p5344
g68
F0.9937
tp5345
a(S'xxx'
p5346
g44
F0.4552
tp5347
asI614
(lp5348
(S'screams'
p5349
g6
F0.7508
tp5350
asI615
(lp5351
(S'they'
p5352
g3
F0.9795
tp5353
a(S'didn'
p5354
g6
F0.9891
tp5355
a(g20
g6
F0.7416
tp5356
a(S'really'
p5357
g38
F0.9987
tp5358
a(S'sell'
p5359
g6
F0.9995
tp5360
a(S'them'
p5361
g3
F0.9418
tp5362
asI616
(lp5363
(S'this'
p5364
g9
F0.9803
tp5365
a(S'place'
p5366
g12
F0.9942
tp5367
a(S'was'
p5368
g6
F0.9953
tp5369
a(S'kind'
p5370
g12
F0.692
tp5371
a(S'of'
p5372
g68
F0.9923
tp5373
a(S'wild'
p5374
g41
F0.9734
tp5375
a(S'off'
p5376
g68
F0.928
tp5377
a(S'the'
p5378
g9
F0.9996
tp5379
a(S'wall'
p5380
g12
F0.9629
tp5381
a(S'xxx'
p5382
g44
F0.7329
tp5383
asI617
(lp5384
(S'screams'
p5385
g6
F0.7508
tp5386
asI618
(lp5387
(S'yeah'
p5388
g27
F0.9988
tp5389
a(S'yeah'
p5390
g27
F0.9991
tp5391
asI619
(lp5392
(S'so'
p5393
g68
F0.5318
tp5394
a(S'mary'
p5395
g18
F0.9693
tp5396
a(S'said'
p5397
g6
F0.9775
tp5398
asI620
(lp5399
(S'xxx'
p5400
g44
F0.8391
tp5401
a(S'why'
p5402
g38
F0.8718
tp5403
a(S'do'
p5404
g6
F0.9984
tp5405
a(S'you'
p5406
g3
F0.9996
tp5407
a(S'do'
p5408
g6
F0.9998
tp5409
a(S'quilts'
p5410
g12
F0.6842
tp5411
asI621
(lp5412
(S'and'
p5413
g261
F0.9985
tp5414
a(S'mary'
p5415
g18
F0.97
tp5416
a(S'said'
p5417
g6
F0.9775
tp5418
asI622
(lp5419
(S'well'
p5420
g27
F0.7518
tp5421
a(S'actually'
p5422
g38
F0.9965
tp5423
a(S'yeah'
p5424
g27
F0.9768
tp5425
a(g33
g3
F0.9845
tp5426
a(g35
g6
F0.9698
tp5427
a(S'just'
p5428
g38
F0.9994
tp5429
a(S'you'
p5430
g3
F0.9992
tp5431
a(S'know'
p5432
g6
F0.9938
tp5433
a(S'and'
p5434
g261
F0.997
tp5435
asI623
(lp5436
(S'screams'
p5437
g6
F0.7508
tp5438
asI624
(lp5439
(S'so'
p5440
g38
F0.5696
tp5441
a(S'maybe'
p5442
g38
F0.984
tp5443
a(S'she'
p5444
g3
F0.9979
tp5445
a(S'might'
p5446
g6
F0.9982
tp5447
a(S'do'
p5448
g6
F0.9999
tp5449
a(S'some'
p5450
g9
F0.9947
tp5451
a(S'baby'
p5452
g12
F0.98
tp5453
a(S'quilts'
p5454
g12
F0.9664
tp5455
a(S'and'
p5456
g261
F0.9963
tp5457
a(S'bring'
p5458
g6
F0.9962
tp5459
a(S'th'
p5460
g142
F0.2422
tp5461
a(S'em'
p5462
g3
F0.9122
tp5463
a(S'in'
p5464
g68
F0.8385
tp5465
asI625
(lp5466
(S'she'
p5467
g3
F0.9956
tp5468
a(S'should'
p5469
g6
F0.9981
tp5470
asI626
(lp5471
(S'that'
p5472
g3
F0.7305
tp5473
a(S'would'
p5474
g6
F0.9992
tp5475
a(S'be'
p5476
g6
F0.9997
tp5477
a(S'really'
p5478
g38
F0.9999
tp5479
a(S'good'
p5480
g41
F0.9963
tp5481
asI627
(lp5482
(S'be'
p5483
g6
F0.9727
tp5484
a(S'cause'
p5485
g68
F0.9142
tp5486
a(S'it'
p5487
g3
F0.9967
tp5488
a(S'wouldn'
p5489
g6
F0.964
tp5490
a(g20
g6
F0.7833
tp5491
a(S'take'
p5492
g6
F0.9983
tp5493
a(S'her'
p5494
g9
F0.9452
tp5495
a(S'eight'
p5496
g136
F0.8097
tp5497
a(S'months'
p5498
g12
F0.9851
tp5499
a(S'to'
p5500
g68
F0.996
tp5501
a(S'do'
p5502
g6
F1.0
tp5503
a(S'it'
p5504
g3
F0.9906
tp5505
asI628
(lp5506
(S'screaming'
p5507
g6
F0.983
tp5508
asI629
(lp5509
(S'you'
p5510
g3
F0.9983
tp5511
a(S'know'
p5512
g6
F0.9977
tp5513
a(S'xxx'
p5514
g6
F0.5338
tp5515
a(S'it'
p5516
g3
F0.9969
tp5517
a(S'took'
p5518
g6
F0.9998
tp5519
a(S'her'
p5520
g3
F0.8085
tp5521
a(S'so'
p5522
g38
F0.9792
tp5523
a(S'long'
p5524
g41
F0.8904
tp5525
a(S'to'
p5526
g68
F0.9936
tp5527
a(S'do'
p5528
g6
F0.9999
tp5529
a(S'these'
p5530
g9
F0.9827
tp5531
a(S'quilts'
p5532
g12
F0.9688
tp5533
a(S'that'
p5534
g68
F0.9878
tp5535
a(S'the'
p5536
g9
F0.9995
tp5537
a(S'money'
p5538
g12
F0.9973
tp5539
asI630
(lp5540
(S'screams'
p5541
g6
F0.7508
tp5542
asI631
(lp5543
(S'well'
p5544
g27
F0.741
tp5545
a(S'laughs'
p5546
g6
F0.9289
tp5547
asI632
(lp5548
(S'well'
p5549
g27
F0.9664
tp5550
asI633
(lp5551
(S'xxx'
p5552
g44
F0.6465
tp5553
a(g8
g9
F0.9785
tp5554
a(S'thousand'
p5555
g136
F0.9354
tp5556
a(S'dollars'
p5557
g12
F0.9923
tp5558
a(S'for'
p5559
g68
F0.9995
tp5560
a(S'six'
p5561
g136
F0.6214
tp5562
a(S'months'
p5563
g12
F0.9554
tp5564
a(g5
g142
F0.672
tp5565
a(S'time'
p5566
g12
F0.9931
tp5567
a(S'is'
p5568
g6
F0.9984
tp5569
a(S'not'
p5570
g38
F0.996
tp5571
a(S'all'
p5572
g1242
F0.4681
tp5573
a(S'that'
p5574
g9
F0.9404
tp5575
a(S'great'
p5576
g41
F0.9907
tp5577
asI634
(lp5578
(S'yeah'
p5579
g27
F0.994
tp5580
a(S'right'
p5581
g27
F0.7355
tp5582
asI635
(lp5583
(S'and'
p5584
g261
F0.9979
tp5585
a(S'at'
p5586
g68
F0.9964
tp5587
a(S'this'
p5588
g9
F0.9449
tp5589
a(S'christmas'
p5590
g18
F0.9348
tp5591
a(S'store'
p5592
g12
F0.9347
tp5593
a(S'we'
p5594
g3
F0.9882
tp5595
a(S'saw'
p5596
g6
F0.9997
tp5597
a(S'this'
p5598
g9
F0.9591
tp5599
a(S'quilt'
p5600
g12
F0.9953
tp5601
a(S'that'
p5602
g68
F0.7601
tp5603
a(S'was'
p5604
g6
F0.9985
tp5605
a(S'like'
p5606
g68
F0.8169
tp5607
a(S'they'
p5608
g3
F0.9968
tp5609
a(S'were'
p5610
g6
F0.9987
tp5611
a(S'asking'
p5612
g6
F0.9657
tp5613
a(S'twelve'
p5614
g136
F0.5526
tp5615
a(S'fifty'
p5616
g136
F0.7995
tp5617
a(S'for'
p5618
g68
F0.9997
tp5619
a(S'it'
p5620
g3
F0.9981
tp5621
asI636
(lp5622
(S'it'
p5623
g3
F0.9956
tp5624
a(S'was'
p5625
g6
F0.9997
tp5626
a(g8
g9
F0.9984
tp5627
a(S'wall'
p5628
g12
F0.9822
tp5629
a(S'hanging'
p5630
g6
F0.9858
tp5631
asI637
(lp5632
(S'it'
p5633
g3
F0.9851
tp5634
a(S'wasn'
p5635
g6
F0.9186
tp5636
a(g20
g142
F0.3108
tp5637
a(S'even'
p5638
g38
F0.9979
tp5639
a(S'like'
p5640
g68
F0.6666
tp5641
a(g8
g9
F0.827
tp5642
a(S'for'
p5643
g68
F0.9949
tp5644
a(g8
g9
F0.9966
tp5645
a(S'bed'
p5646
g12
F0.995
tp5647
a(S'or'
p5648
g261
F0.9923
tp5649
a(S'anything'
p5650
g12
F0.9966
tp5651
asI638
(lp5652
(S'right'
p5653
g27
F0.861
tp5654
asI639
(lp5655
(S'and'
p5656
g261
F0.9994
tp5657
a(S'it'
p5658
g3
F0.9985
tp5659
a(S'was'
p5660
g6
F0.9977
tp5661
a(S'was'
p5662
g6
F0.965
tp5663
a(S'ugly'
p5664
g41
F0.9906
tp5665
a(S'and'
p5666
g261
F0.9985
tp5667
a(S'it'
p5668
g3
F0.9986
tp5669
a(S'was'
p5670
g6
F0.999
tp5671
a(S'not'
p5672
g38
F0.9993
tp5673
a(S'as'
p5674
g68
F0.5958
tp5675
a(S'even'
p5676
g38
F0.9948
tp5677
a(S'as'
p5678
g38
F0.5083
tp5679
a(S'well'
p5680
g38
F0.943
tp5681
a(S'done'
p5682
g6
F0.9097
tp5683
a(S'as'
p5684
g68
F0.9909
tp5685
a(S'the'
p5686
g9
F0.9993
tp5687
a(S'ones'
p5688
g12
F0.9817
tp5689
a(S'that'
p5690
g68
F0.9908
tp5691
a(S'she'
p5692
g3
F0.9977
tp5693
a(g5
g6
F0.6266
tp5694
a(S'making'
p5695
g6
F0.9913
tp5696
asI640
(lp5697
(S'no'
p5698
g27
F0.7705
tp5699
a(g33
g3
F0.9268
tp5700
asI641
(lp5701
(S'well'
p5702
g27
F0.8954
tp5703
a(S'she'
p5704
g3
F0.9958
tp5705
a(S'she'
p5706
g3
F0.9949
tp5707
a(S'has'
p5708
g6
F0.9992
tp5709
a(S'to'
p5710
g68
F0.9854
tp5711
a(S'um'
p5712
g27
F0.623
tp5713
asI642
(lp5714
(S'right'
p5715
g27
F0.6562
tp5716
a(S'she'
p5717
g3
F0.9894
tp5718
a(g5
g142
F0.5491
tp5719
a(S'gotta'
p5720
g6
F0.9782
tp5721
a(S'get'
p5722
g6
F0.9984
tp5723
a(S'xxx'
p5724
g44
F0.7665
tp5725
asI643
(lp5726
(S'set'
p5727
g6
F0.7703
tp5728
a(S'aside'
p5729
g38
F0.644
tp5730
a(S'more'
p5731
g41
F0.9789
tp5732
a(S'time'
p5733
g12
F0.9988
tp5734
asI644
(lp5735
(S'get'
p5736
g6
F0.9927
tp5737
a(S'organized'
p5738
g41
F0.5375
tp5739
a(S'yeah'
p5740
g27
F0.9801
tp5741
asI645
(lp5742
(S'get'
p5743
g6
F0.9702
tp5744
a(S'xxx'
p5745
g44
F0.6423
tp5746
asI646
(lp5747
(g33
g3
F0.953
tp5748
a(g35
g6
F0.9629
tp5749
a(S'gonna'
p5750
g6
F0.9943
tp5751
a(S'tell'
p5752
g6
F0.9993
tp5753
a(S'her'
p5754
g3
F0.8504
tp5755
asI647
(lp5756
(S'you'
p5757
g3
F0.9983
tp5758
a(S'know'
p5759
g6
F0.9986
tp5760
a(S'actually'
p5761
g38
F0.9987
tp5762
a(g33
g3
F0.9753
tp5763
a(S'think'
p5764
g6
F0.9999
tp5765
a(S'she'
p5766
g3
F0.9972
tp5767
a(g5
g6
F0.636
tp5768
a(S'on'
p5769
g68
F0.9644
tp5770
a(S'welfare'
p5771
g12
F0.9518
tp5772
asI648
(lp5773
(g33
g3
F0.953
tp5774
a(g35
g6
F0.9629
tp5775
a(S'gonna'
p5776
g6
F0.9944
tp5777
a(S'tell'
p5778
g6
F0.9996
tp5779
a(S'her'
p5780
g3
F0.9365
tp5781
a(S'that'
p5782
g68
F0.9299
tp5783
a(S'she'
p5784
g3
F0.9985
tp5785
a(S'really'
p5786
g38
F0.9991
tp5787
a(S'ought'
p5788
g6
F0.9949
tp5789
a(S'to'
p5790
g68
F0.9904
tp5791
a(S'think'
p5792
g6
F0.9998
tp5793
a(S'about'
p5794
g68
F0.9303
tp5795
a(S'making'
p5796
g6
F0.9749
tp5797
a(S'baby'
p5798
g12
F0.9909
tp5799
a(S'quilts'
p5800
g12
F0.9266
tp5801
a(S'clothes'
p5802
g12
F0.9822
tp5803
asI649
(lp5804
(S'so'
p5805
g68
F0.8719
tp5806
a(S'this'
p5807
g3
F0.9413
tp5808
a(S'was'
p5809
g6
F0.9973
tp5810
a(S'in'
p5811
g68
F0.6707
tp5812
a(S'okay'
p5813
g41
F0.6156
tp5814
a(g33
g3
F0.9881
tp5815
a(S'think'
p5816
g6
F1.0
tp5817
a(S'it'
p5818
g3
F0.9936
tp5819
a(g5
g6
F0.7731
tp5820
a(S'in'
p5821
g68
F0.9855
tp5822
a(S'this'
p5823
g9
F0.9724
tp5824
a(S'one'
p5825
g136
F0.805
tp5826
asI650
(lp5827
(S'be'
p5828
g6
F0.9727
tp5829
a(S'cause'
p5830
g68
F0.8053
tp5831
a(S'if'
p5832
g68
F0.9972
tp5833
a(S'you'
p5834
g3
F0.9998
tp5835
a(S'know'
p5836
g6
F0.9995
tp5837
a(S'she'
p5838
g3
F0.9981
tp5839
a(S'could'
p5840
g6
F0.9988
tp5841
a(S'get'
p5842
g6
F0.9972
tp5843
a(S'th'
p5844
g6
F0.4194
tp5845
a(S'em'
p5846
g3
F0.99
tp5847
a(S'done'
p5848
g6
F0.9917
tp5849
a(S'in'
p5850
g68
F0.9302
tp5851
a(g8
g9
F0.9978
tp5852
a(S'week'
p5853
g12
F0.9965
tp5854
asI651
(lp5855
(S'you'
p5856
g3
F0.9983
tp5857
a(S'know'
p5858
g6
F0.9958
tp5859
a(S'and'
p5860
g261
F0.9957
tp5861
a(S'sell'
p5862
g6
F0.9959
tp5863
a(S'them'
p5864
g3
F0.9672
tp5865
a(S'for'
p5866
g68
F0.9961
tp5867
a(S'five'
p5868
g136
F0.5206
tp5869
a(S'hundred'
p5870
g136
F0.7255
tp5871
a(S'bucks'
p5872
g12
F0.8526
tp5873
a(S'that'
p5874
g68
F0.9285
tp5875
a(g5
g142
F0.6306
tp5876
a(S'not'
p5877
g38
F0.999
tp5878
a(S'bad'
p5879
g41
F0.95
tp5880
asI652
(lp5881
(g33
g3
F0.9897
tp5882
a(S'want'
p5883
g6
F0.9998
tp5884
a(S'more'
p5885
g41
F0.8786
tp5886
a(S'pancakes'
p5887
g12
F0.9993
tp5888
asI653
(lp5889
(S'no'
p5890
g27
F0.9253
tp5891
asI654
(lp5892
(g33
g3
F0.9897
tp5893
a(S'want'
p5894
g6
F0.9998
tp5895
a(S'more'
p5896
g41
F0.8786
tp5897
a(S'pancakes'
p5898
g12
F0.9993
tp5899
asI655
(lp5900
(S'you'
p5901
g3
F0.9969
tp5902
a(S'do'
p5903
g6
F0.9993
tp5904
asI656
(lp5905
(S'yeah'
p5906
g27
F0.9988
tp5907
asI657
(lp5908
(S'alright'
p5909
g27
F0.9864
tp5910
asI658
(lp5911
(S'star'
p5912
g18
F0.5389
tp5913
a(S'trek'
p5914
g12
F0.9868
tp5915
asI659
(lp5916
(S'star'
p5917
g18
F0.5389
tp5918
a(S'trek'
p5919
g12
F0.9868
tp5920
asI660
(lp5921
(S'da'
p5922
g9
F0.8365
tp5923
a(g1207
g142
F0.5011
tp5924
a(S'da'
p5925
g9
F0.7711
tp5926
a(g1207
g142
F0.4721
tp5927
a(S'da'
p5928
g9
F0.7746
tp5929
a(g1207
g142
F0.5057
tp5930
a(S'da'
p5931
g9
F0.8003
tp5932
a(g1207
g12
F0.4832
tp5933
a(S'screaming'
p5934
g6
F0.9962
tp5935
asI661
(lp5936
(S'xxx'
p5937
g44
F0.8437
tp5938
asI662
(lp5939
(S'can'
p5940
g6
F0.9755
tp5941
a(g33
g3
F0.9806
tp5942
a(S'help'
p5943
g6
F0.9999
tp5944
a(S'you'
p5945
g3
F0.9978
tp5946
asI663
(lp5947
(S'can'
p5948
g6
F0.9755
tp5949
a(g33
g3
F0.9806
tp5950
a(S'help'
p5951
g6
F0.9999
tp5952
a(S'you'
p5953
g3
F0.9978
tp5954
asI664
(lp5955
(S'can'
p5956
g6
F0.9701
tp5957
a(g33
g3
F0.9806
tp5958
a(S'help'
p5959
g6
F0.9971
tp5960
asI665
(lp5961
(S'uh'
p5962
g27
F0.9731
tp5963
a(S'well'
p5964
g27
F0.9177
tp5965
a(g33
g3
F0.9951
tp5966
a(S'just'
p5967
g38
F0.9997
tp5968
a(S'gotta'
p5969
g6
F0.9989
tp5970
a(S'pour'
p5971
g6
F0.9946
tp5972
a(S'it'
p5973
g3
F0.9881
tp5974
a(S'in'
p5975
g68
F0.9343
tp5976
a(S'there'
p5977
g38
F0.6786
tp5978
asI666
(lp5979
(S'there'
p5980
g1242
F0.4664
tp5981
a(g5
g142
F0.6672
tp5982
a(S'not'
p5983
g38
F0.9996
tp5984
a(S'much'
p5985
g38
F0.7885
tp5986
a(S'you'
p5987
g3
F0.9984
tp5988
a(S'can'
p5989
g6
F0.9998
tp5990
a(S'do'
p5991
g6
F0.9993
tp5992
asI667
(lp5993
(g33
g3
F0.9869
tp5994
a(S'wanna'
p5995
g6
F0.9994
tp5996
a(S'do'
p5997
g6
F0.9999
tp5998
a(S'it'
p5999
g3
F0.9766
tp6000
a(S'all'
p6001
g9
F0.5754
tp6002
a(S'by'
p6003
g68
F0.9968
tp6004
a(S'myself'
p6005
g3
F0.9888
tp6006
asI668
(lp6007
(S'can'
p6008
g6
F0.9759
tp6009
a(S'xxx'
p6010
g6
F0.7791
tp6011
a(S'do'
p6012
g6
F0.9984
tp6013
a(S'that'
p6014
g3
F0.8292
tp6015
asI669
(lp6016
(g33
g3
F0.9869
tp6017
a(S'wanna'
p6018
g6
F0.9993
tp6019
a(S'do'
p6020
g6
F0.9999
tp6021
a(S'it'
p6022
g3
F0.9923
tp6023
asI670
(lp6024
(S'you'
p6025
g3
F0.9951
tp6026
a(S'wanna'
p6027
g6
F0.9968
tp6028
asI671
(lp6029
(S'xxx'
p6030
g44
F0.4516
tp6031
a(S'it'
p6032
g3
F0.9878
tp6033
a(g5
g6
F0.529
tp6034
a(S'really'
p6035
g38
F0.9996
tp6036
a(S'dangerous'
p6037
g41
F0.9817
tp6038
a(S'to'
p6039
g68
F0.9986
tp6040
a(S'put'
p6041
g6
F0.9996
tp6042
a(S'your'
p6043
g9
F0.9952
tp6044
a(S'little'
p6045
g41
F0.9914
tp6046
a(S'arm'
p6047
g12
F0.9962
tp6048
a(S'over'
p6049
g68
F0.9958
tp6050
a(S'this'
p6051
g9
F0.9184
tp6052
a(S'hot'
p6053
g41
F0.9529
tp6054
a(S'pan'
p6055
g12
F0.8986
tp6056
asI672
(lp6057
(S'xxx'
p6058
g44
F0.8437
tp6059
asI673
(lp6060
(S'well'
p6061
g27
F0.5172
tp6062
a(S'go'
p6063
g6
F0.9602
tp6064
a(S'on'
p6065
g68
F0.6679
tp6066
a(S'and'
p6067
g261
F0.9968
tp6068
a(S'find'
p6069
g6
F0.999
tp6070
a(S'you'
p6071
g3
F0.9995
tp6072
a(S'know'
p6073
g6
F0.9983
tp6074
a(S'just'
p6075
g38
F0.9993
tp6076
a(S'continue'
p6077
g6
F0.9988
tp6078
a(S'with'
p6079
g68
F0.9993
tp6080
a(S'your'
p6081
g9
F0.9961
tp6082
a(S'list'
p6083
g12
F0.9981
tp6084
asI674
(lp6085
(S'okay'
p6086
g27
F0.9857
tp6087
asI675
(lp6088
(g33
g3
F0.9897
tp6089
a(S'mean'
p6090
g6
F0.9993
tp6091
a(S'you'
p6092
g3
F0.9953
tp6093
a(S're'
p6094
g6
F0.8305
tp6095
a(S'spending'
p6096
g6
F0.9926
tp6097
a(S'so'
p6098
g38
F0.9839
tp6099
a(S'much'
p6100
g41
F0.9334
tp6101
a(S'time'
p6102
g12
F0.9985
tp6103
a(S'on'
p6104
g68
F0.9864
tp6105
a(S'uh'
p6106
g27
F0.8114
tp6107
asI676
(lp6108
(S'okay'
p6109
g27
F0.9857
tp6110
asI677
(lp6111
(g33
g3
F0.9895
tp6112
a(S'think'
p6113
g6
F0.9995
tp6114
a(S'okay'
p6115
g27
F0.8393
tp6116
asI678
(lp6117
(S'how'
p6118
g38
F0.9647
tp6119
a(g8
g9
F0.973
tp6120
a(S'bout'
p6121
g68
F0.7441
tp6122
a(S'you'
p6123
g3
F0.9992
tp6124
a(S'help'
p6125
g6
F0.9982
tp6126
a(S'with'
p6127
g68
F0.9985
tp6128
a(S'it'
p6129
g3
F0.9962
tp6130
asI679
(lp6131
(S'oh'
p6132
g27
F0.9939
tp6133
a(S'come'
p6134
g6
F0.9859
tp6135
a(S'on'
p6136
g285
F0.7116
tp6137
asI680
(lp6138
(g33
g3
F0.9586
tp6139
a(g35
g6
F0.9333
tp6140
asI681
(lp6141
(S'you'
p6142
g3
F0.9627
tp6143
asI682
(lp6144
(S'you'
p6145
g3
F0.9969
tp6146
a(S'can'
p6147
g6
F0.9994
tp6148
a(S'xxx'
p6149
g6
F0.7347
tp6150
a(S'help'
p6151
g6
F0.7732
tp6152
asI683
(lp6153
(g33
g3
F0.9671
tp6154
a(S'don'
p6155
g6
F0.9156
tp6156
a(g20
g142
F0.4526
tp6157
asI684
(lp6158
(S'thanks'
p6159
g12
F0.6407
tp6160
a(g8
g9
F0.9729
tp6161
a(S'lot'
p6162
g12
F0.9646
tp6163
asI685
(lp6164
(S'oh'
p6165
g27
F0.9901
tp6166
a(S'now'
p6167
g38
F0.9722
tp6168
a(S'you'
p6169
g3
F0.9942
tp6170
a(S're'
p6171
g6
F0.7938
tp6172
a(S'in'
p6173
g68
F0.8544
tp6174
a(S'big'
p6175
g41
F0.9786
tp6176
a(S'trouble'
p6177
g12
F0.9899
tp6178
asI686
(lp6179
(S'oh'
p6180
g27
F0.9978
tp6181
a(S'that'
p6182
g68
F0.7702
tp6183
a(S'you'
p6184
g3
F0.9995
tp6185
a(S'see'
p6186
g6
F0.9927
tp6187
asI687
(lp6188
(S'that'
p6189
g3
F0.473
tp6190
a(g5
g142
F0.4404
tp6191
a(S'what'
p6192
g3
F0.9623
tp6193
a(g33
g3
F0.9824
tp6194
a(g35
g6
F0.9893
tp6195
a(S'talking'
p6196
g6
F0.9834
tp6197
a(S'about'
p6198
g68
F0.9394
tp6199
asI688
(lp6200
(S'taking'
p6201
g6
F0.9898
tp6202
a(S'responsibility'
p6203
g12
F0.9964
tp6204
a(S'for'
p6205
g68
F0.9999
tp6206
a(S'the'
p6207
g9
F0.9994
tp6208
a(S'things'
p6209
g12
F0.9955
tp6210
a(S'you'
p6211
g3
F0.9986
tp6212
a(S'did'
p6213
g6
F0.9979
tp6214
asI689
(lp6215
(S'how'
p6216
g38
F0.9703
tp6217
a(S'do'
p6218
g6
F0.9987
tp6219
a(S'you'
p6220
g3
F0.9975
tp6221
a(S'figure'
p6222
g6
F0.9981
tp6223
a(S'that'
p6224
g3
F0.8563
tp6225
a(S'had'
p6226
g6
F0.9992
tp6227
a(S'anything'
p6228
g12
F0.9897
tp6229
a(S'to'
p6230
g68
F0.9927
tp6231
a(S'do'
p6232
g6
F0.9998
tp6233
a(S'with'
p6234
g68
F0.9981
tp6235
a(S'me'
p6236
g3
F0.9984
tp6237
asI690
(lp6238
(S'yeah'
p6239
g27
F0.9922
tp6240
a(S'you'
p6241
g3
F0.9981
tp6242
a(S'be'
p6243
g6
F0.999
tp6244
a(S'cause'
p6245
g68
F0.9431
tp6246
a(S'you'
p6247
g3
F0.9994
tp6248
a(S'distracted'
p6249
g6
F0.999
tp6250
a(S'me'
p6251
g3
F0.9974
tp6252
asI691
(lp6253
(S'chi'
p6254
g27
F0.4684
tp6255
asI692
(lp6256
(S'you'
p6257
g3
F0.9945
tp6258
a(S'were'
p6259
g6
F0.9987
tp6260
a(S'handing'
p6261
g6
F0.9996
tp6262
a(S'me'
p6263
g3
F0.9944
tp6264
a(S'something'
p6265
g12
F0.8782
tp6266
a(S'that'
p6267
g68
F0.7731
tp6268
a(g33
g3
F0.9923
tp6269
a(S'didn'
p6270
g6
F0.989
tp6271
a(g20
g6
F0.7392
tp6272
a(S'want'
p6273
g6
F0.9934
tp6274
asI693
(lp6275
(S'and'
p6276
g261
F0.9982
tp6277
a(S'that'
p6278
g3
F0.6412
tp6279
a(g33
g3
F0.9934
tp6280
a(S'made'
p6281
g6
F0.9999
tp6282
a(S'it'
p6283
g3
F0.9909
tp6284
a(S'clear'
p6285
g41
F0.5222
tp6286
a(S'that'
p6287
g68
F0.6765
tp6288
a(g33
g3
F0.9923
tp6289
a(S'didn'
p6290
g6
F0.9904
tp6291
a(g20
g6
F0.7645
tp6292
a(S'want'
p6293
g6
F0.9828
tp6294
asI694
(lp6295
(S'that'
p6296
g3
F0.473
tp6297
a(g5
g142
F0.6423
tp6298
a(S'exactly'
p6299
g38
F0.8199
tp6300
a(S'what'
p6301
g3
F0.9803
tp6302
a(g33
g3
F0.9942
tp6303
a(S'mean'
p6304
g6
F0.9972
tp6305
a(S'about'
p6306
g68
F0.9695
tp6307
a(S'taking'
p6308
g6
F0.9788
tp6309
a(S'responsibility'
p6310
g12
F0.997
tp6311
a(S'for'
p6312
g68
F0.9995
tp6313
a(S'things'
p6314
g12
F0.9859
tp6315
a(S'that'
p6316
g68
F0.9599
tp6317
a(S'happen'
p6318
g6
F0.9968
tp6319
asI695
(lp6320
(S'wow'
p6321
g27
F0.9963
tp6322
asI696
(lp6323
(S'isn'
p6324
g142
F0.5578
tp6325
a(g20
g142
F0.7091
tp6326
a(S'that'
p6327
g3
F0.6903
tp6328
a(S'xxx'
p6329
g44
F0.7156
tp6330
asI697
(lp6331
(S'well'
p6332
g27
F0.9664
tp6333
asI698
(lp6334
(S'you'
p6335
g3
F0.9983
tp6336
a(S'know'
p6337
g6
F0.9999
tp6338
a(S'it'
p6339
g3
F0.9912
tp6340
a(S'just'
p6341
g38
F0.9994
tp6342
a(S'doesn'
p6343
g6
F0.9866
tp6344
a(g20
g12
F0.2425
tp6345
a(S'make'
p6346
g6
F0.9604
tp6347
a(S'sense'
p6348
g12
F0.9746
tp6349
a(S'for'
p6350
g68
F0.9999
tp6351
a(S'you'
p6352
g3
F0.9994
tp6353
a(S'to'
p6354
g68
F0.9908
tp6355
a(S'blame'
p6356
g6
F0.9999
tp6357
a(S'me'
p6358
g3
F0.9985
tp6359
a(S'for'
p6360
g68
F0.9924
tp6361
a(S'everything'
p6362
g12
F0.9541
tp6363
a(S'laughing'
p6364
g6
F0.9977
tp6365
a(S'that'
p6366
g68
F0.4826
tp6367
a(S'happens'
p6368
g6
F0.9974
tp6369
a(S'to'
p6370
g68
F0.9947
tp6371
a(S'you'
p6372
g3
F0.9983
tp6373
asI699
(lp6374
(S'xxx'
p6375
g44
F0.8437
tp6376
asI700
(lp6377
(g33
g3
F0.9914
tp6378
a(S'was'
p6379
g6
F0.9997
tp6380
a(S'even'
p6381
g38
F0.9992
tp6382
a(S'ta'
p6383
g68
F0.9823
tp6384
a(S'putting'
p6385
g6
F0.9988
tp6386
a(S'my'
p6387
g9
F0.999
tp6388
a(S'hand'
p6389
g12
F0.9976
tp6390
a(S'out'
p6391
g68
F0.9148
tp6392
a(S'to'
p6393
g68
F0.9955
tp6394
a(S'take'
p6395
g6
F0.9999
tp6396
a(S'it'
p6397
g3
F0.8823
tp6398
asI701
(lp6399
(S'you'
p6400
g3
F0.9983
tp6401
a(S'know'
p6402
g6
F0.9999
tp6403
a(S'you'
p6404
g3
F0.9963
tp6405
a(S're'
p6406
g6
F0.6372
tp6407
a(S'unbelievable'
p6408
g41
F0.9927
tp6409
asI702
(lp6410
(g33
g3
F0.953
tp6411
a(g35
g6
F0.9738
tp6412
a(S'not'
p6413
g38
F0.9889
tp6414
a(S'xxx'
p6415
g44
F0.7582
tp6416
asI703
(lp6417
(S'xxx'
p6418
g44
F0.8437
tp6419
asI704
(lp6420
(S'xxx'
p6421
g44
F0.8437
tp6422
asI705
(lp6423
(S'why'
p6424
g38
F0.9441
tp6425
a(S'can'
p6426
g6
F0.9874
tp6427
a(g20
g6
F0.9558
tp6428
a(S'you'
p6429
g3
F0.9989
tp6430
a(S'just'
p6431
g38
F0.9996
tp6432
a(S'continue'
p6433
g6
F0.9981
tp6434
a(S'on'
p6435
g68
F0.9763
tp6436
a(S'your'
p6437
g9
F0.9925
tp6438
a(S'list'
p6439
g12
F0.9982
tp6440
asI706
(lp6441
(S'okay'
p6442
g27
F0.9857
tp6443
asI707
(lp6444
(S'xxx'
p6445
g44
F0.8437
tp6446
asI708
(lp6447
(S'sum'
p6448
g12
F0.3154
tp6449
a(S'sumerti'
p6450
g12
F0.3804
tp6451
a(S'u'
p6452
g3
F0.9905
tp6453
asI709
(lp6454
(S'simulator'
p6455
g12
F0.9721
tp6456
asI710
(lp6457
(S'simulator'
p6458
g12
F0.9721
tp6459
asI711
(lp6460
(S'xxx'
p6461
g44
F0.8402
tp6462
a(S'what'
p6463
g3
F0.983
tp6464
a(g5
g142
F0.4507
tp6465
a(S'that'
p6466
g3
F0.6341
tp6467
asI712
(lp6468
(S'summer'
p6469
g12
F0.9132
tp6470
a(S'thing'
p6471
g12
F0.9971
tp6472
asI713
(lp6473
(S'laughs'
p6474
g6
F0.9102
tp6475
asI714
(lp6476
(S'sorry'
p6477
g27
F0.541
tp6478
asI715
(lp6479
(S'sim'
p6480
g27
F0.3791
tp6481
a(g6452
g3
F0.9888
tp6482
asI716
(lp6483
(S'spell'
p6484
g6
F0.9193
tp6485
a(S'it'
p6486
g3
F0.9934
tp6487
a(S'out'
p6488
g285
F0.9729
tp6489
asI717
(lp6490
(S'you'
p6491
g3
F0.9926
tp6492
a(S'don'
p6493
g6
F0.8675
tp6494
a(g20
g12
F0.2384
tp6495
a(S'have'
p6496
g6
F0.9977
tp6497
a(S'to'
p6498
g68
F0.995
tp6499
a(S'look'
p6500
g6
F0.9949
tp6501
a(S'at'
p6502
g68
F0.999
tp6503
a(S'it'
p6504
g3
F0.9986
tp6505
a(S'again'
p6506
g38
F0.9879
tp6507
a(S'do'
p6508
g6
F0.998
tp6509
a(S'you'
p6510
g3
F0.9981
tp6511
asI718
(lp6512
(S'how'
p6513
g38
F0.9435
tp6514
asI719
(lp6515
(S'how'
p6516
g38
F0.9703
tp6517
a(S'do'
p6518
g6
F0.9987
tp6519
a(S'you'
p6520
g3
F0.9979
tp6521
a(S'spell'
p6522
g6
F0.9793
tp6523
a(S'that'
p6524
g3
F0.7763
tp6525
asI720
(lp6526
(S'you'
p6527
g3
F0.9969
tp6528
a(S'can'
p6529
g6
F0.9998
tp6530
a(S'write'
p6531
g6
F0.9997
tp6532
a(S'you'
p6533
g3
F0.9993
tp6534
a(S'can'
p6535
g6
F0.9998
tp6536
a(S'spell'
p6537
g6
F0.9561
tp6538
a(S'simulator'
p6539
g12
F0.942
tp6540
a(g1373
g142
F0.5696
tp6541
asI721
(lp6542
(S'how'
p6543
g38
F0.9824
tp6544
a(S'how'
p6545
g38
F0.9503
tp6546
a(S'do'
p6547
g6
F0.9989
tp6548
a(S'you'
p6549
g3
F0.9969
tp6550
a(S'spell'
p6551
g6
F0.9653
tp6552
a(S'xxx'
p6553
g44
F0.6396
tp6554
a(S'that'
p6555
g3
F0.553
tp6556
asI722
(lp6557
(g5
g142
F0.8657
tp6558
a(g2336
g12
F0.4852
tp6559
a(g33
g3
F0.8498
tp6560
a(g2336
g142
F0.6542
tp6561
a(g35
g142
F0.7784
tp6562
a(g2336
g142
F0.7142
tp6563
asI723
(lp6564
(g6452
g3
F0.9824
tp6565
a(g2336
g142
F0.3711
tp6566
asI724
(lp6567
(g6452
g3
F0.9824
tp6568
a(g2336
g142
F0.3711
tp6569
asI725
(lp6570
(S'sim'
p6571
g27
F0.2393
tp6572
a(g6452
g3
F0.9952
tp6573
a(g6452
g3
F0.9912
tp6574
a(g2336
g142
F0.4538
tp6575
asI726
(lp6576
(S'yeah'
p6577
g27
F0.9988
tp6578
asI727
(lp6579
(g2336
g142
F0.5906
tp6580
a(g2336
g142
F0.803
tp6581
a(g8
g9
F0.8738
tp6582
a(g2336
g12
F0.8698
tp6583
asI728
(lp6584
(S'yeah'
p6585
g27
F0.9988
tp6586
asI729
(lp6587
(g20
g142
F0.7039
tp6588
a(g2336
g142
F0.9449
tp6589
a(g138
g142
F0.6087
tp6590
a(g2336
g142
F0.8079
tp6591
a(g2792
g142
F0.6143
tp6592
a(g2336
g142
F0.7473
tp6593
asI730
(lp6594
(S'laughs'
p6595
g6
F0.9102
tp6596
asI731
(lp6597
(S'okay'
p6598
g27
F0.9857
tp6599
asI732
(lp6600
(S'xxx'
p6601
g44
F0.6481
tp6602
a(S'baseball'
p6603
g12
F0.92
tp6604
a(S'sim'
p6605
g142
F0.3584
tp6606
asI733
(lp6607
(S'what'
p6608
g3
F0.9757
tp6609
a(S'else'
p6610
g38
F0.7978
tp6611
asI734
(lp6612
(S'hey'
p6613
g27
F0.9955
tp6614
a(g33
g3
F0.991
tp6615
a(g35
g6
F0.9794
tp6616
a(S'not'
p6617
g38
F0.9963
tp6618
a(S'done'
p6619
g6
F0.9931
tp6620
a(S'writing'
p6621
g6
F0.9149
tp6622
asI735
(lp6623
(S'okay'
p6624
g27
F0.9857
tp6625
asI736
(lp6626
(S'there'
p6627
g1242
F0.4664
tp6628
a(g5
g142
F0.4396
tp6629
a(S'another'
p6630
g9
F0.9869
tp6631
a(S'box'
p6632
g12
F0.9897
tp6633
a(S'there'
p6634
g38
F0.751
tp6635
a(g5
g6
F0.4497
tp6636
a(S'another'
p6637
g9
F0.985
tp6638
a(S'one'
p6639
g136
F0.9476
tp6640
a(S'in'
p6641
g68
F0.9848
tp6642
a(S'xxx'
p6643
g44
F0.5465
tp6644
asI737
(lp6645
(S'you'
p6646
g3
F0.9983
tp6647
a(S'know'
p6648
g6
F0.9966
tp6649
a(g33
g3
F0.995
tp6650
a(S'forgot'
p6651
g6
F0.9999
tp6652
a(S'to'
p6653
g68
F0.9937
tp6654
a(S'send'
p6655
g6
F0.9991
tp6656
a(S'back'
p6657
g38
F0.4603
tp6658
a(S'that'
p6659
g9
F0.8306
tp6660
a(S'thing'
p6661
g12
F0.9928
tp6662
a(S'that'
p6663
g68
F0.9323
tp6664
a(g33
g3
F0.9959
tp6665
a(S'got'
p6666
g6
F0.9998
tp6667
a(S'from'
p6668
g68
F0.9594
tp6669
a(S'for'
p6670
g68
F0.995
tp6671
a(S'jury'
p6672
g12
F0.7739
tp6673
a(S'duty'
p6674
g12
F0.9981
tp6675
asI738
(lp6676
(S'wonder'
p6677
g6
F0.9086
tp6678
a(S'if'
p6679
g68
F0.9926
tp6680
a(g33
g3
F0.9903
tp6681
a(g35
g6
F0.9616
tp6682
a(S'gonna'
p6683
g6
F0.9907
tp6684
a(S'get'
p6685
g6
F0.9998
tp6686
a(S'in'
p6687
g68
F0.9525
tp6688
a(S'trouble'
p6689
g12
F0.9778
tp6690
a(S'laughing'
p6691
g6
F0.9587
tp6692
asI739
(lp6693
(g33
g3
F0.989
tp6694
a(S'think'
p6695
g6
F0.9999
tp6696
a(S'that'
p6697
g3
F0.8075
tp6698
a(S'since'
p6699
g68
F0.974
tp6700
a(S'it'
p6701
g3
F0.9994
tp6702
a(S'was'
p6703
g6
F0.9998
tp6704
a(S'my'
p6705
g9
F0.9984
tp6706
a(S'first'
p6707
g41
F0.9966
tp6708
a(S'one'
p6709
g136
F0.9178
tp6710
a(S'they'
p6711
g3
F0.939
tp6712
a(S'um'
p6713
g27
F0.4436
tp6714
a(S'they'
p6715
g3
F0.9929
tp6716
a(S'll'
p6717
g6
F0.6486
tp6718
a(S'send'
p6719
g6
F0.9995
tp6720
a(S'me'
p6721
g3
F0.9902
tp6722
a(S'another'
p6723
g9
F0.9602
tp6724
a(S'one'
p6725
g136
F0.8425
tp6726
a(S'and'
p6727
g261
F0.9986
tp6728
a(g33
g3
F0.9941
tp6729
a(S'have'
p6730
g6
F0.9991
tp6731
a(S'five'
p6732
g136
F0.7212
tp6733
a(S'days'
p6734
g12
F0.9966
tp6735
a(S'to'
p6736
g68
F0.998
tp6737
a(S'answer'
p6738
g6
F0.9951
tp6739
a(S'it'
p6740
g3
F0.9857
tp6741
asI740
(lp6742
(S'no'
p6743
g27
F0.5629
tp6744
a(S'screams'
p6745
g12
F0.5988
tp6746
asI741
(lp6747
(S'wait'
p6748
g6
F0.9897
tp6749
a(g8
g9
F0.994
tp6750
a(S'minute'
p6751
g12
F0.9741
tp6752
asI742
(lp6753
(S'let'
p6754
g6
F0.8948
tp6755
a(g5
g142
F0.4277
tp6756
a(S'go'
p6757
g6
F0.9751
tp6758
a(S'let'
p6759
g6
F0.8384
tp6760
a(g5
g142
F0.4434
tp6761
a(S'go'
p6762
g6
F0.9716
tp6763
a(S'check'
p6764
g6
F0.9192
tp6765
a(S'that'
p6766
g9
F0.4872
tp6767
a(S'pancake'
p6768
g12
F0.7203
tp6769
asI743
(lp6770
(g33
g3
F0.9897
tp6771
a(S'want'
p6772
g6
F0.9999
tp6773
a(S'to'
p6774
g68
F0.9638
tp6775
a(S'do'
p6776
g6
F1.0
tp6777
a(S'it'
p6778
g3
F0.9909
tp6779
a(S'but'
p6780
g261
F0.9766
tp6781
asI744
(lp6782
(S'that'
p6783
g3
F0.5044
tp6784
a(S'johnny'
p6785
g18
F0.8535
tp6786
a(S'hot'
p6787
g41
F0.9269
tp6788
a(S'cake'
p6789
g12
F0.9985
tp6790
asI745
(lp6791
(g33
g3
F0.9635
tp6792
a(S'don'
p6793
g6
F0.9231
tp6794
a(g20
g12
F0.2457
tp6795
a(S'know'
p6796
g6
F0.9914
tp6797
a(S'how'
p6798
g38
F0.9908
tp6799
a(g33
g3
F0.9965
tp6800
a(S'can'
p6801
g6
F0.9997
tp6802
asI746
(lp6803
(g33
g3
F0.9843
tp6804
a(S'catch'
p6805
g6
F0.9999
tp6806
a(S'you'
p6807
g3
F0.9979
tp6808
a(S'johnny'
p6809
g18
F0.9682
tp6810
a(S'cake'
p6811
g12
F0.8359
tp6812
asI747
(lp6813
(S'get'
p6814
g6
F0.9933
tp6815
a(S'back'
p6816
g38
F0.431
tp6817
a(S'here'
p6818
g38
F0.949
tp6819
asI748
(lp6820
(S'johnny'
p6821
g18
F0.9959
tp6822
a(S'cake'
p6823
g12
F0.8809
tp6824
a(S'laughs'
p6825
g6
F0.7913
tp6826
asI749
(lp6827
(S'xxx'
p6828
g44
F0.8437
tp6829
asI750
(lp6830
(S'you'
p6831
g3
F0.998
tp6832
a(S'remember'
p6833
g6
F0.9997
tp6834
a(S'the'
p6835
g9
F0.9916
tp6836
a(S'johnny'
p6837
g18
F0.9964
tp6838
a(S'cake'
p6839
g12
F0.8359
tp6840
asI751
(lp6841
(S'when'
p6842
g38
F0.9604
tp6843
a(S'we'
p6844
g3
F0.9958
tp6845
a(S'read'
p6846
g6
F0.9991
tp6847
a(S'that'
p6848
g9
F0.7703
tp6849
a(S'story'
p6850
g12
F0.9981
tp6851
asI752
(lp6852
(S'yeah'
p6853
g27
F0.9988
tp6854
asI753
(lp6855
(S'oh'
p6856
g27
F0.9988
tp6857
asI754
(lp6858
(g33
g3
F0.9586
tp6859
a(g35
g6
F0.9298
tp6860
a(S'sorry'
p6861
g41
F0.8759
tp6862
asI755
(lp6863
(S'what'
p6864
g3
F0.949
tp6865
asI756
(lp6866
(S'well'
p6867
g27
F0.7553
tp6868
a(S'it'
p6869
g3
F0.9978
tp6870
a(g5
g6
F0.5532
tp6871
a(S'kind'
p6872
g12
F0.9205
tp6873
a(S'of'
p6874
g68
F0.9902
tp6875
a(S'brown'
p6876
g18
F0.7743
tp6877
asI757
(lp6878
(S'oh'
p6879
g27
F0.9971
tp6880
a(S'brown'
p6881
g41
F0.4851
tp6882
asI758
(lp6883
(S'what'
p6884
g3
F0.949
tp6885
asI759
(lp6886
(S'okay'
p6887
g27
F0.9857
tp6888
asI760
(lp6889
(S'let'
p6890
g6
F0.9968
tp6891
a(S'me'
p6892
g3
F0.9994
tp6893
a(S'xxx'
p6894
g44
F0.6796
tp6895
asI761
(lp6896
(S'bro'
p6897
g12
F0.7862
tp6898
asI762
(lp6899
(S'bro'
p6900
g12
F0.7862
tp6901
asI763
(lp6902
(S'give'
p6903
g6
F0.9976
tp6904
a(S'it'
p6905
g3
F0.9906
tp6906
a(S'xxx'
p6907
g44
F0.5781
tp6908
asI764
(lp6909
(S'okay'
p6910
g27
F0.9857
tp6911
asI765
(lp6912
(S'go'
p6913
g6
F0.966
tp6914
a(S'find'
p6915
g6
F0.9952
tp6916
a(S'your'
p6917
g9
F0.9955
tp6918
a(S'book'
p6919
g12
F0.9934
tp6920
a(S'johnny'
p6921
g18
F0.9755
tp6922
a(S'cake'
p6923
g12
F0.8446
tp6924
asI766
(lp6925
(S'um'
p6926
g27
F0.9671
tp6927
a(S'oh'
p6928
g27
F0.99
tp6929
a(S'no'
p6930
g27
F0.9754
tp6931
asI767
(lp6932
(S'do'
p6933
g6
F0.9985
tp6934
a(S'you'
p6935
g3
F0.9997
tp6936
a(S'know'
p6937
g6
F0.9987
tp6938
a(S'where'
p6939
g38
F0.9701
tp6940
a(S'it'
p6941
g3
F0.9991
tp6942
a(S'is'
p6943
g6
F0.9991
tp6944
asI768
(lp6945
(S'uh'
p6946
g27
F0.9592
tp6947
a(S'this'
p6948
g3
F0.9843
tp6949
a(S'is'
p6950
g6
F0.9878
tp6951
a(S'is'
p6952
g6
F0.9535
tp6953
a(S'is'
p6954
g6
F0.9509
tp6955
a(S'is'
p6956
g6
F0.9509
tp6957
a(S'is'
p6958
g6
F0.9974
tp6959
a(S'this'
p6960
g9
F0.863
tp6961
a(S'two'
p6962
g136
F0.9358
tp6963
a(S'of'
p6964
g68
F0.9983
tp6965
a(S'them'
p6966
g3
F0.9108
tp6967
a(S'xxx'
p6968
g44
F0.7076
tp6969
asI769
(lp6970
(S'www'
p6971
g18
F0.3889
tp6972
asI770
(lp6973
(S'what'
p6974
g3
F0.9674
tp6975
a(S'xxx'
p6976
g44
F0.6988
tp6977
asI771
(lp6978
(S'xxx'
p6979
g44
F0.8437
tp6980
asI772
(lp6981
(S'you'
p6982
g3
F0.961
tp6983
a(S'okay'
p6984
g41
F0.9341
tp6985
a(S'bro'
p6986
g12
F0.9927
tp6987
asI773
(lp6988
(S'now'
p6989
g38
F0.996
tp6990
a(S'well'
p6991
g38
F0.6245
tp6992
a(g33
g3
F0.9964
tp6993
a(S'have'
p6994
g6
F0.9997
tp6995
a(S'asked'
p6996
g6
F0.9519
tp6997
a(S'xxx'
p6998
g44
F0.4527
tp6999
a(S'to'
p7000
g68
F0.9845
tp7001
a(S'xxx'
p7002
g44
F0.4763
tp7003
asI774
(lp7004
(S'come'
p7005
g6
F0.9888
tp7006
a(S'here'
p7007
g38
F0.9821
tp7008
a(S'come'
p7009
g6
F0.9637
tp7010
a(S'here'
p7011
g38
F0.9854
tp7012
asI775
(lp7013
(S'you'
p7014
g3
F0.9386
tp7015
a(S'poor'
p7016
g41
F0.9882
tp7017
a(S'boy'
p7018
g12
F0.9986
tp7019
asI776
(lp7020
(S'come'
p7021
g6
F0.9888
tp7022
a(S'here'
p7023
g38
F0.9805
tp7024
a(S'let'
p7025
g6
F0.9925
tp7026
a(S'me'
p7027
g3
F0.9994
tp7028
a(S'see'
p7029
g6
F0.9731
tp7030
asI777
(lp7031
(S'okay'
p7032
g27
F0.9439
tp7033
a(S'so'
p7034
g38
F0.5398
tp7035
a(g33
g3
F0.9938
tp7036
a(S'have'
p7037
g6
F0.9972
tp7038
a(S'one'
p7039
g136
F0.7987
tp7040
asI778
(lp7041
(S'wait'
p7042
g6
F0.9113
tp7043
asI779
(lp7044
(S'on'
p7045
g68
F0.9931
tp7046
a(S'the'
p7047
g9
F0.9997
tp7048
a(S'other'
p7049
g41
F0.9843
tp7050
a(S'hand'
p7051
g12
F0.9966
tp7052
a(g33
g3
F0.8529
tp7053
a(S'don'
p7054
g6
F0.9198
tp7055
a(g20
g12
F0.225
tp7056
a(S'know'
p7057
g6
F0.9913
tp7058
a(S'how'
p7059
g38
F0.9854
tp7060
a(S'bro'
p7061
g12
F0.9179
tp7062
a(S'could'
p7063
g6
F0.9938
tp7064
a(S'trip'
p7065
g6
F0.7348
tp7066
a(S'over'
p7067
g68
F0.9047
tp7068
a(g8
g9
F0.9735
tp7069
a(S'xxx'
p7070
g12
F0.515
tp7071
a(S'rug'
p7072
g12
F0.9758
tp7073
asI780
(lp7074
(S'you'
p7075
g3
F0.9875
tp7076
a(S'cannot'
p7077
g6
F0.9946
tp7078
a(S'step'
p7079
g6
F0.9624
tp7080
a(S'on'
p7081
g68
F0.8586
tp7082
a(S'things'
p7083
g12
F0.9932
tp7084
a(S'on'
p7085
g68
F0.9995
tp7086
a(S'the'
p7087
g9
F0.9994
tp7088
a(S'floor'
p7089
g12
F0.9922
tp7090
a(S'bro'
p7091
g12
F0.9717
tp7092
asI781
(lp7093
(S'alright'
p7094
g27
F0.8985
tp7095
a(S'you'
p7096
g3
F0.999
tp7097
a(S'know'
p7098
g6
F0.9998
tp7099
a(S'you'
p7100
g3
F0.9988
tp7101
a(S'were'
p7102
g6
F0.9981
tp7103
a(S'supposed'
p7104
g41
F0.9665
tp7105
a(S'to'
p7106
g68
F0.9981
tp7107
a(S'help'
p7108
g6
F0.9905
tp7109
a(S'pick'
p7110
g6
F0.9799
tp7111
a(S'that'
p7112
g9
F0.8681
tp7113
a(S'stuff'
p7114
g12
F0.9916
tp7115
a(S'up'
p7116
g285
F0.5107
tp7117
a(S'before'
p7118
g68
F0.8066
tp7119
asI782
(lp7120
(g33
g3
F0.9912
tp7121
a(S'know'
p7122
g6
F0.9989
tp7123
asI783
(lp7124
(S'breakfast'
p7125
g12
F0.8795
tp7126
asI784
(lp7127
(S'oh'
p7128
g27
F0.9933
tp7129
a(S'man'
p7130
g27
F0.9039
tp7131
asI785
(lp7132
(g33
g3
F0.9869
tp7133
a(S'gotta'
p7134
g6
F0.9998
tp7135
a(S'write'
p7136
g6
F0.9974
tp7137
a(S'this'
p7138
g9
F0.9867
tp7139
a(S'stuff'
p7140
g12
F0.9974
tp7141
a(S'with'
p7142
g68
F0.9998
tp7143
a(S'all'
p7144
g9
F0.622
tp7145
a(S'my'
p7146
g9
F0.9986
tp7147
a(S'favorite'
p7148
g41
F0.9705
tp7149
a(S'games'
p7150
g12
F0.9951
tp7151
asI786
(lp7152
(S'okay'
p7153
g27
F0.9857
tp7154
asI787
(lp7155
(S'number'
p7156
g12
F0.9491
tp7157
a(S'four'
p7158
g136
F0.6975
tp7159
asI788
(lp7160
(S'well'
p7161
g27
F0.741
tp7162
a(S'you'
p7163
g3
F0.9997
tp7164
a(S'know'
p7165
g6
F0.9998
tp7166
a(S'the'
p7167
g9
F0.9992
tp7168
a(S'thing'
p7169
g12
F0.9988
tp7170
a(S'is'
p7171
g6
F0.9954
tp7172
a(S'is'
p7173
g6
F0.9988
tp7174
a(S'you'
p7175
g3
F0.999
tp7176
a(S've'
p7177
g6
F0.7987
tp7178
a(S'got'
p7179
g6
F0.9978
tp7180
a(S'all'
p7181
g1242
F0.5262
tp7182
a(S'these'
p7183
g9
F0.9978
tp7184
a(S'games'
p7185
g12
F0.9951
tp7186
a(S'that'
p7187
g68
F0.9898
tp7188
a(S'you'
p7189
g3
F0.9991
tp7190
a(S'don'
p7191
g6
F0.8626
tp7192
a(g20
g142
F0.3832
tp7193
a(S'even'
p7194
g38
F0.996
tp7195
a(S'play'
p7196
g6
F0.991
tp7197
asI789
(lp7198
(S'you'
p7199
g3
F0.9968
tp7200
a(S'should'
p7201
g6
F0.9994
tp7202
a(S'just'
p7203
g38
F0.9989
tp7204
a(S'rent'
p7205
g6
F0.9891
tp7206
a(S'those'
p7207
g9
F0.9693
tp7208
a(S'games'
p7209
g12
F0.9972
tp7210
asI790
(lp7211
(S'number'
p7212
g12
F0.9491
tp7213
a(S'four'
p7214
g136
F0.6975
tp7215
asI791
(lp7216
(S'xxx'
p7217
g44
F0.8325
tp7218
a(S'xxx'
p7219
g44
F0.9813
tp7220
asI792
(lp7221
(S'xxx'
p7222
g44
F0.6622
tp7223
a(S'get'
p7224
g6
F0.997
tp7225
a(S'to'
p7226
g68
F0.9772
tp7227
a(S'five'
p7228
g136
F0.7838
tp7229
a(g33
g3
F0.9686
tp7230
a(S'guess'
p7231
g6
F0.9992
tp7232
a(g33
g3
F0.9921
tp7233
a(S'll'
p7234
g6
F0.6341
tp7235
a(S'stop'
p7236
g6
F0.9629
tp7237
asI793
(lp7238
(S'hey'
p7239
g27
F0.9986
tp7240
asI794
(lp7241
(S'four'
p7242
g136
F0.7786
tp7243
a(S'five'
p7244
g136
F0.5502
tp7245
a(S'xxx'
p7246
g44
F0.6059
tp7247
asI795
(lp7248
(S'oh'
p7249
g27
F0.9988
tp7250
asI796
(lp7251
(S'sighs'
p7252
g6
F0.7567
tp7253
asI797
(lp7254
(S'oh'
p7255
g27
F0.9961
tp7256
a(S'gee'
p7257
g27
F0.9943
tp7258
a(g33
g3
F0.99
tp7259
a(S'just'
p7260
g38
F0.9996
tp7261
a(S'found'
p7262
g6
F0.9999
tp7263
a(S'it'
p7264
g3
F0.991
tp7265
asI798
(lp7266
(S'here'
p7267
g38
F0.8704
tp7268
a(S'it'
p7269
g3
F0.9997
tp7270
a(S'is'
p7271
g6
F0.9992
tp7272
asI799
(lp7273
(S'what'
p7274
g3
F0.8935
tp7275
a(S'this'
p7276
g3
F0.8527
tp7277
a(S'doesn'
p7278
g6
F0.9224
tp7279
a(g20
g142
F0.468
tp7280
asI800
(lp7281
(S'okay'
p7282
g27
F0.896
tp7283
a(S'bring'
p7284
g6
F0.9972
tp7285
a(S'that'
p7286
g9
F0.8425
tp7287
a(S'one'
p7288
g136
F0.9157
tp7289
a(S'in'
p7290
g68
F0.9822
tp7291
a(S'here'
p7292
g38
F0.9057
tp7293
asI801
(lp7294
(g33
g3
F0.9896
tp7295
a(S'have'
p7296
g6
F0.9998
tp7297
a(S'to'
p7298
g68
F0.9933
tp7299
a(g3931
g6
F0.9615
tp7300
a(S'check'
p7301
g6
F0.9818
tp7302
a(S'out'
p7303
g285
F0.966
tp7304
a(S'that'
p7305
g68
F0.4749
tp7306
a(S'pancake'
p7307
g12
F0.4545
tp7308
a(S'again'
p7309
g38
F0.9341
tp7310
asI802
(lp7311
(S'take'
p7312
g6
F0.9896
tp7313
a(S'that'
p7314
g3
F0.7054
tp7315
a(S'with'
p7316
g68
F0.998
tp7317
a(S'you'
p7318
g3
F0.9984
tp7319
asI803
(lp7320
(S'what'
p7321
g3
F0.949
tp7322
asI804
(lp7323
(S'xxx'
p7324
g44
F0.8437
tp7325
asI805
(lp7326
(S'www'
p7327
g18
F0.3889
tp7328
asI806
(lp7329
(S'you'
p7330
g3
F0.9966
tp7331
a(S'take'
p7332
g6
F0.9995
tp7333
a(S'that'
p7334
g9
F0.8375
tp7335
a(S'pancake'
p7336
g12
F0.6701
tp7337
asI807
(lp7338
(S'okay'
p7339
g27
F0.9857
tp7340
asI808
(lp7341
(S'yup'
p7342
g27
F0.9978
tp7343
asI809
(lp7344
(g138
g27
F0.5131
tp7345
a(S'kay'
p7346
g27
F0.6089
tp7347
asI810
(lp7348
(S'okay'
p7349
g27
F0.9857
tp7350
asI811
(lp7351
(S'ready'
p7352
g41
F0.9553
tp7353
asI812
(lp7354
(S'get'
p7355
g6
F0.9868
tp7356
a(S'set'
p7357
g6
F0.5376
tp7358
asI813
(lp7359
(S'uh'
p7360
g27
F0.9849
tp7361
a(g33
g3
F0.9946
tp7362
a(S'want'
p7363
g6
F0.9998
tp7364
a(S'nine'
p7365
g41
F0.2625
tp7366
a(S'more'
p7367
g41
F0.569
tp7368
asI814
(lp7369
(g33
g3
F0.9583
tp7370
a(g33
g3
F0.9279
tp7371
a(g33
g3
F0.8243
tp7372
a(S'like'
p7373
g6
F0.6068
tp7374
a(g33
g3
F0.9951
tp7375
a(S'like'
p7376
g6
F0.6818
tp7377
a(S'baseball'
p7378
g12
F0.9303
tp7379
a(S'game'
p7380
g12
F0.9937
tp7381
a(S'stuff'
p7382
g12
F0.9885
tp7383
asI815
(lp7384
(S'go'
p7385
g6
F0.8465
tp7386
asI816
(lp7387
(S'okay'
p7388
g27
F0.9857
tp7389
asI817
(lp7390
(S'and'
p7391
g261
F0.9994
tp7392
a(S'it'
p7393
g3
F0.9971
tp7394
a(g5
g6
F0.5677
tp7395
a(S'so'
p7396
g38
F0.815
tp7397
a(S'real'
p7398
g38
F0.5747
tp7399
a(S'like'
p7400
g68
F0.9553
tp7401
a(S'it'
p7402
g3
F0.9983
tp7403
asI818
(lp7404
(S'uh'
p7405
g27
F0.9501
tp7406
a(S'first'
p7407
g41
F0.8135
tp7408
a(g33
g3
F0.929
tp7409
a(S'like'
p7410
g6
F0.8549
tp7411
a(S'like'
p7412
g38
F0.6834
tp7413
a(S'hard'
p7414
g41
F0.9035
tp7415
a(S'xxx'
p7416
g44
F0.3801
tp7417
a(S'like'
p7418
g68
F0.6752
tp7419
a(S'like'
p7420
g68
F0.5626
tp7421
asI819
(lp7422
(S'like'
p7423
g68
F0.9333
tp7424
a(S'mario'
p7425
g18
F0.9866
tp7426
a(S'games'
p7427
g12
F0.9829
tp7428
asI820
(lp7429
(S'and'
p7430
g261
F0.9983
tp7431
a(S'now'
p7432
g38
F0.9955
tp7433
a(g33
g3
F0.9725
tp7434
a(S'like'
p7435
g6
F0.5556
tp7436
a(S'baseball'
p7437
g12
F0.9466
tp7438
a(S'games'
p7439
g12
F0.997
tp7440
asI821
(lp7441
(S'yeah'
p7442
g27
F0.9988
tp7443
asI822
(lp7444
(S'they'
p7445
g3
F0.909
tp7446
a(S're'
p7447
g6
F0.7419
tp7448
a(S'fun'
p7449
g12
F0.6367
tp7450
asI823
(lp7451
(S'yeah'
p7452
g27
F0.9988
tp7453
asI824
(lp7454
(g33
g3
F0.9897
tp7455
a(S'want'
p7456
g6
F0.9997
tp7457
a(S'oh'
p7458
g27
F0.9864
tp7459
a(g33
g3
F0.9751
tp7460
a(g35
g6
F0.977
tp7461
a(S'not'
p7462
g38
F0.9953
tp7463
a(S'gonna'
p7464
g6
F0.9944
tp7465
a(S'get'
p7466
g6
F0.9999
tp7467
a(S'those'
p7468
g3
F0.6893
tp7469
asI825
(lp7470
(g33
g3
F0.9914
tp7471
a(S'was'
p7472
g6
F0.9996
tp7473
a(S'gonna'
p7474
g6
F0.9903
tp7475
a(S'write'
p7476
g6
F0.9983
tp7477
a(S'um'
p7478
g27
F0.3465
tp7479
a(S'rbi'
p7480
g18
F0.6246
tp7481
a(g1493
g18
F0.6519
tp7482
a(S'one'
p7483
g136
F0.953
tp7484
a(S'rbi'
p7485
g12
F0.7561
tp7486
a(g1493
g12
F0.3177
tp7487
a(S'two'
p7488
g136
F0.9317
tp7489
a(S'rbi'
p7490
g12
F0.7445
tp7491
a(g1493
g12
F0.3174
tp7492
a(S'three'
p7493
g136
F0.8728
tp7494
asI826
(lp7495
(S'what'
p7496
g3
F0.9784
tp7497
a(g5
g6
F0.4607
tp7498
a(S'in'
p7499
g68
F0.9491
tp7500
a(S'your'
p7501
g9
F0.9959
tp7502
a(S'ear'
p7503
g12
F0.9977
tp7504
asI827
(lp7505
(S'www'
p7506
g18
F0.6152
tp7507
a(S'noise'
p7508
g12
F0.9363
tp7509
asI828
(lp7510
(S'you'
p7511
g3
F0.9754
tp7512
a(S're'
p7513
g6
F0.5739
tp7514
a(S'so'
p7515
g38
F0.6694
tp7516
a(S'xxx'
p7517
g44
F0.7169
tp7518
asI829
(lp7519
(g2792
g142
F0.4051
tp7520
a(g2336
g142
F0.7144
tp7521
a(g3931
g142
F0.4743
tp7522
a(g2336
g142
F0.4426
tp7523
a(g33
g3
F0.8193
tp7524
a(g2336
g6
F0.7495
tp7525
a(S'one'
p7526
g136
F0.8615
tp7527
asI830
(lp7528
(S'you'
p7529
g3
F0.9969
tp7530
a(S'can'
p7531
g6
F0.9998
tp7532
a(S'ask'
p7533
g6
F0.9991
tp7534
a(S'for'
p7535
g68
F0.9991
tp7536
a(S'it'
p7537
g3
F0.9981
tp7538
a(S'but'
p7539
g261
F0.9634
tp7540
a(S'you'
p7541
g3
F0.9997
tp7542
a(S'know'
p7543
g6
F0.9983
tp7544
a(S'just'
p7545
g38
F0.9993
tp7546
a(S'don'
p7547
g6
F0.6094
tp7548
a(g20
g6
F0.2479
tp7549
a(S'expect'
p7550
g6
F0.998
tp7551
a(S'it'
p7552
g3
F0.9938
tp7553
a(S'laughing'
p7554
g6
F0.9889
tp7555
asI831
(lp7556
(g2792
g142
F0.4051
tp7557
a(g2336
g142
F0.7144
tp7558
a(g3931
g142
F0.4743
tp7559
a(g2336
g142
F0.4616
tp7560
a(g33
g3
F0.8193
tp7561
a(g2336
g6
F0.5444
tp7562
asI832
(lp7563
(S'rb'
p7564
g18
F0.5251
tp7565
a(g2792
g6
F0.5286
tp7566
a(g2336
g12
F0.3502
tp7567
a(g3931
g6
F0.5084
tp7568
a(g2336
g12
F0.6285
tp7569
a(g33
g3
F0.8464
tp7570
a(g2336
g6
F0.544
tp7571
asI833
(lp7572
(g2792
g142
F0.4051
tp7573
a(g2336
g142
F0.7144
tp7574
a(g3931
g142
F0.5109
tp7575
a(g2336
g142
F0.8112
tp7576
a(S'xxx'
p7577
g44
F0.6546
tp7578
asI834
(lp7579
(S'bro'
p7580
g12
F0.9127
tp7581
a(S'still'
p7582
g38
F0.9865
tp7583
a(S'makes'
p7584
g6
F0.9996
tp7585
a(S'that'
p7586
g9
F0.7729
tp7587
a(S'little'
p7588
g41
F0.9937
tp7589
a(S'noise'
p7590
g12
F0.9937
tp7591
a(S'when'
p7592
g38
F0.9242
tp7593
a(S'he'
p7594
g3
F0.9952
tp7595
a(S'goes'
p7596
g6
F0.9994
tp7597
a(S'www'
p7598
g18
F0.4491
tp7599
a(S'noise'
p7600
g12
F0.9379
tp7601
asI835
(lp7602
(g33
g3
F0.9912
tp7603
a(S'know'
p7604
g6
F0.9989
tp7605
asI836
(lp7606
(S'laughs'
p7607
g6
F0.9102
tp7608
asI837
(lp7609
(S'he'
p7610
g3
F0.9927
tp7611
a(S'also'
p7612
g38
F0.9947
tp7613
a(S'makes'
p7614
g6
F0.9999
tp7615
a(S'his'
p7616
g9
F0.9968
tp7617
a(S'van'
p7618
g18
F0.6799
tp7619
a(S'noise'
p7620
g12
F0.9561
tp7621
asI838
(lp7622
(S'yeah'
p7623
g27
F0.9988
tp7624
asI839
(lp7625
(S'aw'
p7626
g27
F0.991
tp7627
a(S'the'
p7628
g9
F0.993
tp7629
a(S'punisher'
p7630
g12
F0.6847
tp7631
asI840
(lp7632
(S'nah'
p7633
g27
F0.9921
tp7634
asI841
(lp7635
(S'what'
p7636
g3
F0.9784
tp7637
a(g5
g142
F0.613
tp7638
a(S'the'
p7639
g9
F0.9951
tp7640
a(S'punisher'
p7641
g12
F0.6463
tp7642
asI842
(lp7643
(S'it'
p7644
g3
F0.9888
tp7645
a(g5
g6
F0.7285
tp7646
a(g8
g9
F0.9864
tp7647
a(S'video'
p7648
g12
F0.9963
tp7649
a(S'game'
p7650
g12
F0.9784
tp7651
asI843
(lp7652
(S'laughs'
p7653
g6
F0.9102
tp7654
asI844
(lp7655
(S'it'
p7656
g3
F0.9858
tp7657
a(g5
g6
F0.4853
tp7658
a(S'what'
p7659
g3
F0.9938
tp7660
asI845
(lp7661
(S'it'
p7662
g3
F0.9695
tp7663
a(S'it'
p7664
g3
F0.9671
tp7665
a(g5
g6
F0.7392
tp7666
a(g8
g9
F0.9898
tp7667
a(S'video'
p7668
g12
F0.9956
tp7669
a(S'game'
p7670
g12
F0.8836
tp7671
a(S'the'
p7672
g9
F0.9925
tp7673
a(S'punisher'
p7674
g12
F0.5578
tp7675
asI846
(lp7676
(S'alright'
p7677
g27
F0.9552
tp7678
a(S'we'
p7679
g3
F0.997
tp7680
a(S'll'
p7681
g6
F0.614
tp7682
a(S'get'
p7683
g6
F0.9997
tp7684
a(S'it'
p7685
g3
F0.9926
tp7686
asI847
(lp7687
(S'you'
p7688
g3
F0.9942
tp7689
a(S'just'
p7690
g38
F0.9991
tp7691
a(S'want'
p7692
g6
F0.9999
tp7693
a(S'all'
p7694
g1242
F0.4911
tp7695
a(S'the'
p7696
g9
F0.9998
tp7697
a(S'nintendo'
p7698
g18
F0.9844
tp7699
a(S'games'
p7700
g12
F0.985
tp7701
asI848
(lp7702
(g33
g3
F0.9849
tp7703
a(S'get'
p7704
g6
F0.9999
tp7705
a(S'under'
p7706
g68
F0.8759
tp7707
a(S'xxx'
p7708
g44
F0.6781
tp7709
asI849
(lp7710
(S'no'
p7711
g27
F0.9253
tp7712
asI850
(lp7713
(S'you'
p7714
g3
F0.9754
tp7715
a(S're'
p7716
g6
F0.5918
tp7717
a(S'gonna'
p7718
g6
F0.9898
tp7719
a(S'go'
p7720
g6
F0.9989
tp7721
a(S'under'
p7722
g68
F0.9764
tp7723
a(S'me'
p7724
g3
F0.998
tp7725
a(S'huh'
p7726
g27
F0.9696
tp7727
asI851
(lp7728
(S'yeah'
p7729
g27
F0.9988
tp7730
asI852
(lp7731
(S'well'
p7732
g27
F0.8598
tp7733
a(S'okay'
p7734
g27
F0.9097
tp7735
asI853
(lp7736
(S'the'
p7737
g9
F0.9792
tp7738
asI854
(lp7739
(g33
g3
F0.9849
tp7740
a(S'get'
p7741
g6
F0.9999
tp7742
a(S'under'
p7743
g68
F0.9878
tp7744
a(S'you'
p7745
g3
F0.9987
tp7746
a(S'xxx'
p7747
g44
F0.4682
tp7748
asI855
(lp7749
(S'wait'
p7750
g6
F0.9113
tp7751
asI856
(lp7752
(S'you'
p7753
g3
F0.9754
tp7754
a(S're'
p7755
g6
F0.5918
tp7756
a(S'gonna'
p7757
g6
F0.991
tp7758
a(S'have'
p7759
g6
F0.9998
tp7760
a(S'some'
p7761
g9
F0.8878
tp7762
a(S'of'
p7763
g68
F0.9963
tp7764
a(S'these'
p7765
g9
F0.9867
tp7766
a(S'cakes'
p7767
g12
F0.9979
tp7768
asI857
(lp7769
(S'these'
p7770
g9
F0.7386
tp7771
a(S'johnny'
p7772
g18
F0.9824
tp7773
a(S'cakes'
p7774
g12
F0.9541
tp7775
asI858
(lp7776
(S'yeah'
p7777
g27
F0.9988
tp7778
asI859
(lp7779
(S'okay'
p7780
g27
F0.9857
tp7781
asI860
(lp7782
(S'they'
p7783
g3
F0.9104
tp7784
a(S're'
p7785
g6
F0.7741
tp7786
a(S'not'
p7787
g38
F0.9912
tp7788
a(S'johnny'
p7789
g18
F0.9852
tp7790
a(S'cakes'
p7791
g12
F0.9084
tp7792
asI861
(lp7793
(S'yes'
p7794
g27
F0.993
tp7795
a(S'they'
p7796
g3
F0.9951
tp7797
a(S'are'
p7798
g6
F0.9994
tp7799
asI862
(lp7800
(S'xxx'
p7801
g44
F0.8437
tp7802
asI863
(lp7803
(S'pancakes'
p7804
g12
F0.9793
tp7805
a(S'bro'
p7806
g12
F0.9926
tp7807
a(S'are'
p7808
g6
F0.991
tp7809
a(S'johnny'
p7810
g18
F0.9533
tp7811
a(S'cakes'
p7812
g12
F0.9084
tp7813
asI864
(lp7814
(S'no'
p7815
g27
F0.9253
tp7816
asI865
(lp7817
(g33
g3
F0.9873
tp7818
a(S'can'
p7819
g6
F0.9999
tp7820
a(S'catch'
p7821
g6
F0.9998
tp7822
a(S'you'
p7823
g3
F0.9973
tp7824
a(S'johnny'
p7825
g18
F0.9662
tp7826
a(S'cake'
p7827
g12
F0.8446
tp7828
asI866
(lp7829
(S'johnny'
p7830
g18
F0.9959
tp7831
a(S'cake'
p7832
g12
F0.8809
tp7833
a(S'laughs'
p7834
g6
F0.7913
tp7835
asI867
(lp7836
(S'oh'
p7837
g27
F0.9903
tp7838
a(S'no'
p7839
g27
F0.9593
tp7840
a(S'you'
p7841
g3
F0.9966
tp7842
a(S'can'
p7843
g6
F0.9988
tp7844
a(g20
g6
F0.7046
tp7845
asI868
(lp7846
(S'daddy'
p7847
g12
F0.967
tp7848
a(S'can'
p7849
g6
F0.9937
tp7850
a(g33
g3
F0.9695
tp7851
a(S'use'
p7852
g6
F0.9934
tp7853
a(S'um'
p7854
g27
F0.8223
tp7855
asI869
(lp7856
(S'look'
p7857
g6
F0.8183
tp7858
asI870
(lp7859
(S'he'
p7860
g3
F0.9848
tp7861
a(S'lifts'
p7862
g6
F0.9984
tp7863
a(S'me'
p7864
g3
F0.9984
tp7865
a(S'up'
p7866
g285
F0.9773
tp7867
asI871
(lp7868
(S'he'
p7869
g3
F0.9848
tp7870
a(S'lifts'
p7871
g6
F0.9984
tp7872
a(S'me'
p7873
g3
F0.9984
tp7874
a(S'up'
p7875
g285
F0.9773
tp7876
asI872
(lp7877
(S'watch'
p7878
g6
F0.9907
tp7879
a(S'out'
p7880
g285
F0.8233
tp7881
a(S'for'
p7882
g68
F0.9996
tp7883
a(S'your'
p7884
g9
F0.9965
tp7885
a(S'toes'
p7886
g12
F0.9974
tp7887
asI873
(lp7888
(g33
g3
F0.9793
tp7889
a(S'll'
p7890
g6
F0.7693
tp7891
a(S'have'
p7892
g6
F0.9986
tp7893
a(S'to'
p7894
g68
F0.9884
tp7895
a(S'whoa'
p7896
g27
F0.9459
tp7897
asI874
(lp7898
(g33
g3
F0.9893
tp7899
a(S'thought'
p7900
g6
F0.9995
tp7901
a(S'they'
p7902
g3
F0.993
tp7903
a(S'were'
p7904
g6
F0.9993
tp7905
a(g8
g9
F0.995
tp7906
a(S'pancake'
p7907
g12
F0.7425
tp7908
asI875
(lp7909
(S'listen'
p7910
g6
F0.9885
tp7911
a(S'judith'
p7912
g18
F0.9959
tp7913
a(S'said'
p7914
g6
F0.9968
tp7915
a(S'that'
p7916
g9
F0.5542
tp7917
a(S'woman'
p7918
g12
F0.9708
tp7919
a(S'that'
p7920
g68
F0.9943
tp7921
a(S'um'
p7922
g27
F0.6401
tp7923
asI876
(lp7924
(g33
g3
F0.989
tp7925
a(S'told'
p7926
g6
F1.0
tp7927
a(S'you'
p7928
g3
F0.9996
tp7929
a(S'got'
p7930
g6
F0.9998
tp7931
a(S'the'
p7932
g9
F0.9996
tp7933
a(S'job'
p7934
g12
F0.9904
tp7935
a(S'that'
p7936
g68
F0.8759
tp7937
a(g33
g3
F0.997
tp7938
a(S'had'
p7939
g6
F0.9996
tp7940
asI877
(lp7941
(S'yeah'
p7942
g27
F0.9988
tp7943
asI878
(lp7944
(S'applied'
p7945
g6
F0.9677
tp7946
a(S'for'
p7947
g68
F0.991
tp7948
asI879
(lp7949
(S'daddy'
p7950
g12
F0.9436
tp7951
asI880
(lp7952
(S'daddy'
p7953
g12
F0.967
tp7954
a(S'can'
p7955
g6
F0.9959
tp7956
a(S'can'
p7957
g6
F0.9994
tp7958
a(g33
g3
F0.9591
tp7959
a(S'use'
p7960
g6
F0.9984
tp7961
a(S'this'
p7962
g3
F0.8778
tp7963
a(S'to'
p7964
g68
F0.9856
tp7965
a(S'say'
p7966
g6
F0.9998
tp7967
a(S'you'
p7968
g3
F0.9994
tp7969
a(S'have'
p7970
g6
F0.9979
tp7971
a(S'xxx'
p7972
g9
F0.3021
tp7973
a(S'markers'
p7974
g12
F0.9821
tp7975
a(S'xxx'
p7976
g44
F0.7491
tp7977
asI881
(lp7978
(S'to'
p7979
g68
F0.998
tp7980
a(S'the'
p7981
g9
F0.9827
tp7982
a(S'um'
p7983
g142
F0.3681
tp7984
asI882
(lp7985
(S'so'
p7986
g38
F0.5039
tp7987
a(S'xxx'
p7988
g44
F0.6702
tp7989
asI883
(lp7990
(S'you'
p7991
g3
F0.9968
tp7992
a(S'could'
p7993
g6
F0.9994
tp7994
a(S'ask'
p7995
g6
F0.9997
tp7996
a(S'him'
p7997
g3
F0.9836
tp7998
asI884
(lp7999
(S'what'
p8000
g3
F0.949
tp8001
asI885
(lp8002
(S'can'
p8003
g6
F0.9755
tp8004
a(g33
g3
F0.9638
tp8005
a(S'use'
p8006
g6
F0.9994
tp8007
a(S'it'
p8008
g3
F0.9901
tp8009
a(S'to'
p8010
g68
F0.9939
tp8011
a(S'write'
p8012
g6
F0.9952
tp8013
a(S'nintendo'
p8014
g18
F0.972
tp8015
a(S'games'
p8016
g12
F0.9851
tp8017
asI886
(lp8018
(S'xxx'
p8019
g44
F0.8437
tp8020
asI887
(lp8021
(S'did'
p8022
g6
F0.9986
tp8023
a(S'you'
p8024
g3
F0.9986
tp8025
a(S'hear'
p8026
g6
F0.9991
tp8027
a(S'your'
p8028
g9
F0.9959
tp8029
a(S'mother'
p8030
g12
F0.9978
tp8031
a(S'talking'
p8032
g6
F0.9626
tp8033
a(S'to'
p8034
g68
F0.9971
tp8035
a(S'me'
p8036
g3
F0.998
tp8037
a(S'chi'
p8038
g142
F0.3762
tp8039
asI888
(lp8040
(g33
g3
F0.953
tp8041
a(g35
g6
F0.9928
tp8042
a(S'all'
p8043
g9
F0.8172
tp8044
a(S'done'
p8045
g6
F0.4507
tp8046
asI889
(lp8047
(S'right'
p8048
g38
F0.4841
tp8049
a(S'be'
p8050
g6
F0.9584
tp8051
a(S'cause'
p8052
g68
F0.5864
tp8053
a(g33
g3
F0.9889
tp8054
a(S'didn'
p8055
g6
F0.9913
tp8056
a(g20
g6
F0.7869
tp8057
a(S'hear'
p8058
g6
F0.9753
tp8059
a(g8
g9
F0.9983
tp8060
a(S'word'
p8061
g12
F0.964
tp8062
a(S'you'
p8063
g3
F0.9958
tp8064
a(S'said'
p8065
g6
F0.995
tp8066
asI890
(lp8067
(S'and'
p8068
g261
F0.9988
tp8069
a(S'what'
p8070
g3
F0.9988
tp8071
a(S'did'
p8072
g6
F0.9659
tp8073
a(g33
g3
F0.9932
tp8074
a(S'just'
p8075
g38
F0.9994
tp8076
a(S'say'
p8077
g6
F0.9905
tp8078
asI891
(lp8079
(S'um'
p8080
g27
F0.9786
tp8081
a(S'yeah'
p8082
g27
F0.9985
tp8083
asI892
(lp8084
(S'what'
p8085
g3
F0.949
tp8086
asI893
(lp8087
(S'no'
p8088
g27
F0.9253
tp8089
asI894
(lp8090
(S'you'
p8091
g3
F0.9754
tp8092
a(S're'
p8093
g6
F0.7415
tp8094
a(S'under'
p8095
g68
F0.9864
tp8096
a(S'an'
p8097
g9
F0.9962
tp8098
a(S'illusion'
p8099
g12
F0.999
tp8100
a(S'again'
p8101
g38
F0.9657
tp8102
asI895
(lp8103
(S'we'
p8104
g3
F0.9973
tp8105
a(S'have'
p8106
g6
F0.9979
tp8107
a(S'two'
p8108
g136
F0.9338
tp8109
a(S'of'
p8110
g68
F0.9978
tp8111
a(S'them'
p8112
g3
F0.9288
tp8113
asI896
(lp8114
(g33
g3
F0.9893
tp8115
a(S'said'
p8116
g6
F0.9996
tp8117
a(S'no'
p8118
g27
F0.7478
tp8119
a(g1373
g12
F0.8232
tp8120
asI897
(lp8121
(S'there'
p8122
g1242
F0.4664
tp8123
a(g5
g142
F0.4752
tp8124
a(S'two'
p8125
g136
F0.9719
tp8126
a(S'of'
p8127
g68
F0.9978
tp8128
a(S'them'
p8129
g3
F0.9288
tp8130
asI898
(lp8131
(S'what'
p8132
g3
F0.949
tp8133
asI899
(lp8134
(S'those'
p8135
g3
F0.4868
tp8136
asI900
(lp8137
(S'aren'
p8138
g18
F0.4046
tp8139
a(g20
g142
F0.3437
tp8140
a(S'those'
p8141
g3
F0.6675
tp8142
asI901
(lp8143
(S'it'
p8144
g3
F0.9858
tp8145
a(g5
g142
F0.582
tp8146
asI902
(lp8147
(S'xxx'
p8148
g44
F0.4516
tp8149
a(S'it'
p8150
g3
F0.9908
tp8151
a(S'just'
p8152
g38
F0.999
tp8153
a(S'xxx'
p8154
g44
F0.7434
tp8155
asI903
(lp8156
(S'they'
p8157
g3
F0.9104
tp8158
a(S're'
p8159
g6
F0.8072
tp8160
a(S'different'
p8161
g41
F0.9921
tp8162
a(S'colors'
p8163
g12
F0.9984
tp8164
a(S'actually'
p8165
g38
F0.9996
tp8166
a(S'and'
p8167
g261
F0.9979
tp8168
a(S'it'
p8169
g3
F0.9971
tp8170
a(g5
g6
F0.5675
tp8171
a(S'not'
p8172
g38
F0.9966
tp8173
a(S'even'
p8174
g38
F0.9892
tp8175
a(S'it'
p8176
g3
F0.9925
tp8177
a(g5
g6
F0.5675
tp8178
a(S'not'
p8179
g38
F0.9966
tp8180
a(S'even'
p8181
g38
F0.9946
tp8182
a(g8
g9
F0.7142
tp8183
a(g8
g9
F0.5525
tp8184
asI904
(lp8185
(S'no'
p8186
g27
F0.8412
tp8187
a(S'they'
p8188
g3
F0.9651
tp8189
a(S'aren'
p8190
g6
F0.6301
tp8191
a(g20
g142
F0.6599
tp8192
asI905
(lp8193
(S'watch'
p8194
g6
F0.9852
tp8195
a(S'this'
p8196
g3
F0.6052
tp8197
asI906
(lp8198
(g33
g3
F0.9656
tp8199
a(g3931
g6
F0.9666
tp8200
a(g33
g3
F0.9958
tp8201
a(S'bet'
p8202
g6
F0.9979
tp8203
asI907
(lp8204
(g8
g9
F0.9955
tp8205
a(S'choice'
p8206
g12
F0.9909
tp8207
a(S'that'
p8208
g68
F0.9873
tp8209
a(S'you'
p8210
g3
F0.9996
tp8211
a(S'can'
p8212
g6
F0.9997
tp8213
a(S'select'
p8214
g6
F0.9884
tp8215
a(S'here'
p8216
g38
F0.9793
tp8217
a(S'chi'
p8218
g142
F0.3117
tp8219
asI908
(lp8220
(S'oh'
p8221
g27
F0.9903
tp8222
a(S'no'
p8223
g27
F0.9435
tp8224
a(S'chi'
p8225
g12
F0.8502
tp8226
a(S'come'
p8227
g6
F0.9847
tp8228
a(S'on'
p8229
g285
F0.6227
tp8230
asI909
(lp8231
(S'xxx'
p8232
g44
F0.8437
tp8233
asI910
(lp8234
(S'chi'
p8235
g18
F0.4191
tp8236
a(S'chi'
p8237
g18
F0.7731
tp8238
asI911
(lp8239
(S'just'
p8240
g38
F0.999
tp8241
a(S'forget'
p8242
g6
F0.9996
tp8243
a(S'it'
p8244
g3
F0.9901
tp8245
asI912
(lp8246
(S'alright'
p8247
g27
F0.9864
tp8248
asI913
(lp8249
(S'aw'
p8250
g27
F0.9971
tp8251
asI914
(lp8252
(S'well'
p8253
g27
F0.8102
tp8254
a(S'breakfast'
p8255
g12
F0.9624
tp8256
a(S'is'
p8257
g6
F0.9987
tp8258
a(S'over'
p8259
g68
F0.4748
tp8260
asI915
(lp8261
(S'no'
p8262
g27
F0.7822
tp8263
a(S'no'
p8264
g27
F0.8036
tp8265
asI916
(lp8266
(S'what'
p8267
g3
F0.9931
tp8268
a(S'do'
p8269
g6
F0.9993
tp8270
a(S'you'
p8271
g3
F0.9997
tp8272
a(S'mean'
p8273
g6
F0.9762
tp8274
a(S'no'
p8275
g9
F0.6086
tp8276
a(g1373
g12
F0.9356
tp8277
asI917
(lp8278
(S'xxx'
p8279
g44
F0.8437
tp8280
asI918
(lp8281
(S'as'
p8282
g68
F0.7296
tp8283
a(g33
g3
F0.9973
tp8284
a(S'said'
p8285
g6
F1.0
tp8286
a(S'you'
p8287
g3
F0.9994
tp8288
a(S'know'
p8289
g6
F0.9999
tp8290
a(S'you'
p8291
g3
F0.9994
tp8292
a(S'can'
p8293
g6
F0.9993
tp8294
asI919
(lp8295
(S'xxx'
p8296
g44
F0.8437
tp8297
asI920
(lp8298
(S'www'
p8299
g18
F0.5547
tp8300
a(S'xxx'
p8301
g44
F0.6616
tp8302
asI921
(lp8303
(S'www'
p8304
g18
F0.602
tp8305
a(S'mimicks'
p8306
g18
F0.8868
tp8307
a(S'bro'
p8308
g12
F0.889
tp8309
a(g5
g142
F0.712
tp8310
a(S'noises'
p8311
g12
F0.9327
tp8312
asI922
(lp8313
(S'www'
p8314
g18
F0.4711
tp8315
a(S'yum'
p8316
g27
F0.912
tp8317
asI923
(lp8318
(S'yum'
p8319
g27
F0.9758
tp8320
a(S'mimicking'
p8321
g6
F0.579
tp8322
a(S'bro'
p8323
g12
F0.9904
tp8324
asI924
(lp8325
(S'xxx'
p8326
g44
F0.8437
tp8327
asI925
(lp8328
(S'here'
p8329
g38
F0.8857
tp8330
a(S'chi'
p8331
g142
F0.2774
tp8332
asI926
(lp8333
(S'this'
p8334
g3
F0.9526
tp8335
a(S'is'
p8336
g6
F0.9967
tp8337
a(S'johnny'
p8338
g18
F0.9877
tp8339
a(S'cakes'
p8340
g12
F0.9473
tp8341
asI927
(lp8342
(S'xxx'
p8343
g44
F0.8437
tp8344
asI928
(lp8345
(S'mhm'
p8346
g27
F0.9747
tp8347
asI929
(lp8348
(S'oh'
p8349
g27
F0.9988
tp8350
asI930
(lp8351
(S'www'
p8352
g18
F0.4885
tp8353
a(S'noises'
p8354
g12
F0.9427
tp8355
asI931
(lp8356
(g33
g3
F0.9908
tp8357
a(S'hate'
p8358
g6
F0.9999
tp8359
a(S'this'
p8360
g3
F0.5427
tp8361
a(S'xxx'
p8362
g44
F0.7467
tp8363
asI932
(lp8364
(S'it'
p8365
g3
F0.9888
tp8366
a(g5
g6
F0.5248
tp8367
a(S'so'
p8368
g38
F0.9023
tp8369
a(S'fat'
p8370
g41
F0.9929
tp8371
asI933
(lp8372
(S'well'
p8373
g27
F0.9268
tp8374
a(S'why'
p8375
g38
F0.8535
tp8376
a(S'are'
p8377
g6
F0.9944
tp8378
a(S'you'
p8379
g3
F0.9992
tp8380
a(S'using'
p8381
g6
F0.9999
tp8382
a(S'that'
p8383
g3
F0.7732
tp8384
asI934
(lp8385
(S'because'
p8386
g68
F0.9903
tp8387
a(S'there'
p8388
g1242
F0.575
tp8389
a(g5
g142
F0.5446
tp8390
a(S'no'
p8391
g9
F0.8771
tp8392
a(S'other'
p8393
g41
F0.953
tp8394
a(S'marker'
p8395
g12
F0.983
tp8396
asI935
(lp8397
(S'be'
p8398
g6
F0.9727
tp8399
a(S'cause'
p8400
g68
F0.9756
tp8401
a(S'he'
p8402
g3
F0.9946
tp8403
a(S'willn'
p8404
g6
F0.5841
tp8405
a(g20
g6
F0.2294
tp8406
a(S'let'
p8407
g6
F0.9985
tp8408
a(S'me'
p8409
g3
F0.9987
tp8410
a(S'use'
p8411
g6
F0.7617
tp8412
a(S'xxx'
p8413
g44
F0.8229
tp8414
asI936
(lp8415
(S'well'
p8416
g27
F0.7961
tp8417
a(S'maybe'
p8418
g38
F0.9572
tp8419
a(S'we'
p8420
g3
F0.9974
tp8421
a(S'll'
p8422
g6
F0.5559
tp8423
a(S'get'
p8424
g6
F0.9998
tp8425
a(S'you'
p8426
g3
F0.9981
tp8427
a(S'your'
p8428
g9
F0.9922
tp8429
a(S'own'
p8430
g41
F0.6994
tp8431
a(S'markers'
p8432
g12
F0.9922
tp8433
a(S'to'
p8434
g68
F0.9991
tp8435
a(S'use'
p8436
g6
F0.9464
tp8437
a(S'okay'
p8438
g27
F0.6613
tp8439
asI937
(lp8440
(S'mm'
p8441
g27
F0.627
tp8442
asI938
(lp8443
(S'but'
p8444
g261
F0.993
tp8445
a(S'you'
p8446
g3
F0.9981
tp8447
a(S've'
p8448
g6
F0.8266
tp8449
a(S'had'
p8450
g6
F0.993
tp8451
a(S'markers'
p8452
g12
F0.9639
tp8453
a(S'before'
p8454
g68
F0.7618
tp8455
a(S'and'
p8456
g261
F0.9989
tp8457
a(S'they'
p8458
g3
F0.9621
tp8459
a(S're'
p8460
g6
F0.9398
tp8461
a(S'all'
p8462
g9
F0.741
tp8463
a(S'gone'
p8464
g41
F0.7593
tp8465
asI939
(lp8466
(S'see'
p8467
g6
F0.9603
tp8468
a(S'because'
p8469
g68
F0.9993
tp8470
a(S'they'
p8471
g3
F0.9949
tp8472
a(S'get'
p8473
g6
F0.9996
tp8474
a(S'wrecked'
p8475
g6
F0.8366
tp8476
asI940
(lp8477
(S'there'
p8478
g1242
F0.8447
tp8479
a(S'are'
p8480
g6
F0.9905
tp8481
a(S'these'
p8482
g9
F0.9707
tp8483
a(S'markers'
p8484
g12
F0.992
tp8485
a(S'that'
p8486
g68
F0.8246
tp8487
a(g33
g3
F0.9962
tp8488
a(S'have'
p8489
g6
F0.9991
tp8490
asI941
(lp8491
(S'right'
p8492
g27
F0.861
tp8493
asI942
(lp8494
(S'and'
p8495
g261
F0.9991
tp8496
a(S'they'
p8497
g3
F0.9626
tp8498
a(S're'
p8499
g6
F0.5206
tp8500
a(S'so'
p8501
g38
F0.914
tp8502
a(S'fat'
p8503
g41
F0.9892
tp8504
asI943
(lp8505
(S'do'
p8506
g6
F0.9985
tp8507
a(S'you'
p8508
g3
F0.9997
tp8509
a(S'want'
p8510
g6
F1.0
tp8511
a(S'them'
p8512
g3
F0.9309
tp8513
asI944
(lp8514
(S'no'
p8515
g27
F0.8487
tp8516
a(S'because'
p8517
g68
F0.9985
tp8518
a(S'they'
p8519
g3
F0.9646
tp8520
a(S're'
p8521
g12
F0.4764
tp8522
a(S'too'
p8523
g38
F0.9928
tp8524
a(S'fat'
p8525
g41
F0.9964
tp8526
asI945
(lp8527
(S'to'
p8528
g68
F0.9946
tp8529
a(S'write'
p8530
g6
F0.997
tp8531
a(S'with'
p8532
g68
F0.9693
tp8533
asI946
(lp8534
(S'all'
p8535
g1242
F0.437
tp8536
a(S'you'
p8537
g3
F0.9981
tp8538
a(S'have'
p8539
g6
F0.9996
tp8540
a(S'to'
p8541
g68
F0.9849
tp8542
a(S'do'
p8543
g6
F0.9977
tp8544
a(S'is'
p8545
g6
F0.9928
tp8546
a(S'lighten'
p8547
g6
F0.9848
tp8548
a(S'the'
p8549
g9
F0.9993
tp8550
a(S'pressure'
p8551
g12
F0.9865
tp8552
asI947
(lp8553
(S'don'
p8554
g18
F0.5427
tp8555
a(g20
g18
F0.4522
tp8556
a(S'put'
p8557
g6
F0.9056
tp8558
a(S'so'
p8559
g38
F0.9835
tp8560
a(S'much'
p8561
g41
F0.8212
tp8562
a(S'pressure'
p8563
g12
F0.9942
tp8564
a(S'on'
p8565
g68
F0.9995
tp8566
a(S'the'
p8567
g9
F0.9991
tp8568
a(S'point'
p8569
g12
F0.9924
tp8570
asI948
(lp8571
(S'really'
p8572
g38
F0.9979
tp8573
a(g33
g3
F0.9787
tp8574
a(S'can'
p8575
g6
F0.9999
tp8576
a(S'do'
p8577
g6
F0.9996
tp8578
a(S'really'
p8579
g38
F0.9996
tp8580
a(S'thin'
p8581
g41
F0.9396
tp8582
a(S'lines'
p8583
g12
F0.9948
tp8584
a(S'with'
p8585
g68
F0.9998
tp8586
a(S'this'
p8587
g3
F0.529
tp8588
asI949
(lp8589
(S'well'
p8590
g27
F0.8573
tp8591
a(g33
g3
F0.9976
tp8592
a(S'can'
p8593
g6
F0.9996
tp8594
a(g20
g6
F0.4527
tp8595
asI950
(lp8596
(S'well'
p8597
g27
F0.9502
tp8598
a(S'that'
p8599
g3
F0.813
tp8600
a(g5
g6
F0.6413
tp8601
a(S'because'
p8602
g68
F0.9984
tp8603
a(S'you'
p8604
g3
F0.9988
tp8605
a(S'you'
p8606
g3
F0.9512
tp8607
a(S're'
p8608
g6
F0.7982
tp8609
a(S'bearing'
p8610
g6
F0.9977
tp8611
a(S'down'
p8612
g285
F0.6529
tp8613
a(S'on'
p8614
g68
F0.9953
tp8615
a(S'it'
p8616
g3
F0.9974
tp8617
asI951
(lp8618
(S'you'
p8619
g3
F0.9983
tp8620
a(S'know'
p8621
g6
F0.9983
tp8622
a(S'less'
p8623
g41
F0.9328
tp8624
a(S'pressure'
p8625
g12
F0.9931
tp8626
a(S'on'
p8627
g68
F0.9982
tp8628
a(S'your'
p8629
g9
F0.9958
tp8630
a(S'hand'
p8631
g12
F0.9987
tp8632
asI952
(lp8633
(S'just'
p8634
g38
F0.999
tp8635
a(S'let'
p8636
g6
F0.9996
tp8637
a(S'it'
p8638
g3
F0.996
tp8639
a(S'let'
p8640
g6
F0.9997
tp8641
a(S'it'
p8642
g3
F0.9968
tp8643
a(S'let'
p8644
g6
F0.9997
tp8645
a(S'it'
p8646
g3
F0.9968
tp8647
a(S'float'
p8648
g6
F0.9952
tp8649
a(S'real'
p8650
g38
F0.7437
tp8651
a(S'lightly'
p8652
g38
F0.8766
tp8653
asI953
(lp8654
(S'what'
p8655
g3
F0.9931
tp8656
a(S'do'
p8657
g6
F0.9993
tp8658
a(S'you'
p8659
g3
F0.9997
tp8660
a(S'want'
p8661
g6
F0.9995
tp8662
a(S'to'
p8663
g68
F0.9932
tp8664
a(S'write'
p8665
g6
F0.9915
tp8666
asI954
(lp8667
(S'here'
p8668
g38
F0.7796
tp8669
asI955
(lp8670
(g33
g3
F0.9163
tp8671
a(S'al'
p8672
g9
F0.2333
tp8673
a(g33
g3
F0.9804
tp8674
a(S'already'
p8675
g38
F0.997
tp8676
a(S'wrote'
p8677
g6
F0.9996
tp8678
a(S'it'
p8679
g3
F0.9896
tp8680
asI956
(lp8681
(S'nintendo'
p8682
g18
F0.9862
tp8683
a(S'games'
p8684
g12
F0.9889
tp8685
asI957
(lp8686
(S'alright'
p8687
g27
F0.9864
tp8688
asI958
(lp8689
(S'well'
p8690
g27
F0.9735
tp8691
a(S'what'
p8692
g3
F0.9957
tp8693
a(S'else'
p8694
g38
F0.8213
tp8695
asI959
(lp8696
(S'for'
p8697
g68
F0.997
tp8698
a(S'nintendo'
p8699
g18
F0.9761
tp8700
a(S'games'
p8701
g12
F0.9909
tp8702
asI960
(lp8703
(g33
g3
F0.989
tp8704
a(S'think'
p8705
g6
F0.9996
tp8706
a(S'eight'
p8707
g136
F0.5153
tp8708
a(S'is'
p8709
g6
F0.9956
tp8710
a(g8
g9
F0.9545
tp8711
a(g8
g9
F0.9238
tp8712
a(S'good'
p8713
g41
F0.9985
tp8714
a(S'place'
p8715
g12
F0.9982
tp8716
a(S'to'
p8717
g68
F0.9988
tp8718
a(S'stop'
p8719
g6
F0.9962
tp8720
a(S'on'
p8721
g68
F0.8634
tp8722
a(S'nintendo'
p8723
g18
F0.9917
tp8724
a(S'games'
p8725
g12
F0.9846
tp8726
asI961
(lp8727
(S'on'
p8728
g68
F0.9742
tp8729
a(S'that'
p8730
g3
F0.8058
tp8731
a(S'xxx'
p8732
g44
F0.4175
tp8733
a(S'p'
p8734
g44
F0.6015
tp8735
asI962
(lp8736
(S'alright'
p8737
g27
F0.9531
tp8738
a(g33
g3
F0.9866
tp8739
a(S'don'
p8740
g6
F0.9187
tp8741
a(g20
g12
F0.2247
tp8742
a(S'want'
p8743
g6
F0.9957
tp8744
a(S'to'
p8745
g68
F0.9974
tp8746
a(S'you'
p8747
g3
F0.9996
tp8748
a(S'know'
p8749
g6
F0.9966
tp8750
a(S'dash'
p8751
g12
F0.9169
tp8752
a(S'all'
p8753
g9
F0.4724
tp8754
a(S'your'
p8755
g9
F0.7823
tp8756
a(S'hopes'
p8757
g12
F0.721
tp8758
a(S'but'
p8759
g261
F0.9772
tp8760
a(S'you'
p8761
g3
F0.9994
tp8762
a(S'probably'
p8763
g38
F0.999
tp8764
a(S'willn'
p8765
g41
F0.2377
tp8766
a(g20
g12
F0.6588
tp8767
a(S'be'
p8768
g6
F0.9937
tp8769
a(S'getting'
p8770
g6
F0.9917
tp8771
a(S'eight'
p8772
g136
F0.7093
tp8773
a(S'nintendo'
p8774
g18
F0.9482
tp8775
a(S'games'
p8776
g12
F0.9908
tp8777
a(S'from'
p8778
g68
F0.9988
tp8779
a(S'anybody'
p8780
g12
F0.9654
tp8781
asI963
(lp8782
(S'ma'
p8783
g9
F0.5636
tp8784
a(g33
g3
F0.9825
tp8785
a(S'wanna'
p8786
g6
F0.9994
tp8787
a(S'do'
p8788
g6
F0.9999
tp8789
a(S'it'
p8790
g3
F0.9919
tp8791
asI964
(lp8792
(S'hypo'
p8793
g41
F0.5577
tp8794
a(S'puncher'
p8795
g12
F0.9943
tp8796
asI965
(lp8797
(S'wails'
p8798
g12
F0.5132
tp8799
asI966
(lp8800
(S'chy'
p8801
g27
F0.389
tp8802
a(g1493
g68
F0.2062
tp8803
a(S'laughing'
p8804
g6
F0.9634
tp8805
a(S'chi'
p8806
g18
F0.6826
tp8807
a(g5
g142
F0.4004
tp8808
a(S'first'
p8809
g41
F0.9823
tp8810
a(S'name'
p8811
g12
F0.9989
tp8812
asI967
(lp8813
(g8734
g6
F0.2774
tp8814
a(g6452
g3
F0.9978
tp8815
asI968
(lp8816
(S'hey'
p8817
g27
F0.9972
tp8818
a(S'hey'
p8819
g27
F0.9985
tp8820
as.