(dp0
I0
(lp1
(S'the'
p2
S'D'
p3
F0.999
tp4
a(S'big'
p5
S'A'
p6
F0.932
tp7
a(S'xxx'
p8
S'E'
p9
F0.5713
tp10
asI1
(lp11
(S'yeah'
p12
S'!'
p13
F0.9988
tp14
asI2
(lp15
(S'xxx'
p16
g9
F0.6502
tp17
a(S'a'
p18
g3
F0.9881
tp19
a(S'house'
p20
S'N'
p21
F0.9945
tp22
asI3
(lp23
(S'where'
p24
S'R'
p25
F0.9835
tp26
a(S'in'
p27
S'P'
p28
F0.9986
tp29
a(S'boston'
p30
S'^'
p31
F0.9875
tp32
asI4
(lp33
(S'yeah'
p34
g13
F0.9988
tp35
asI5
(lp36
(S'xxx'
p37
g9
F0.8437
tp38
asI6
(lp39
(S'xxx'
p40
g9
F0.7525
tp41
a(S'she'
p42
S'O'
p43
F0.9925
tp44
a(S's'
p45
S'V'
p46
F0.5708
tp47
a(S'planning'
p48
g46
F0.9782
tp49
a(S'to'
p50
g28
F0.9943
tp51
a(S'leave'
p52
g46
F0.9951
tp53
asI7
(lp54
(S'it'
p55
g43
F0.9888
tp56
a(g45
g46
F0.5104
tp57
a(S'almost'
p58
g25
F0.996
tp59
a(S'like'
p60
g28
F0.6429
tp61
a(S'xxx'
p62
g9
F0.6891
tp63
asI8
(lp64
(S're'
p65
g21
F0.7409
tp66
a(S'member'
p67
g21
F0.9856
tp68
a(S'when'
p69
g25
F0.9662
tp70
a(S'we'
p71
g43
F0.9959
tp72
a(S'were'
p73
g46
F0.9982
tp74
a(S'goin'
p75
g46
F0.9698
tp76
a(S'g'
p77
g46
F0.4267
tp78
a(S'to'
p79
g28
F0.9956
tp80
a(S'boston'
p81
g31
F0.9645
tp82
asI9
(lp83
(S'we'
p84
g43
F0.9968
tp85
a(S'seen'
p86
g46
F0.9974
tp87
a(S'n'
p88
S'&'
p89
F0.5979
tp90
a(S'saw'
p91
g46
F0.9935
tp92
a(S'the'
p93
g3
F0.9863
tp94
a(S'um'
p95
S'G'
p96
F0.4108
tp97
a(S'aquarium'
p98
g21
F0.8359
tp99
a(S'um'
p100
g13
F0.4933
tp101
a(S'thing'
p102
g21
F0.9764
tp103
asI10
(lp104
(S'like'
p105
g28
F0.7786
tp106
a(S'uh'
p107
g13
F0.482
tp108
a(S'it'
p109
g43
F0.997
tp110
a(S'goes'
p111
g46
F0.9998
tp112
a(S'up'
p113
S'T'
p114
F0.9819
tp115
a(S'and'
p116
g89
F0.9972
tp117
a(S'down'
p118
g25
F0.6793
tp119
asI11
(lp120
(S'mhm'
p121
g13
F0.9747
tp122
asI12
(lp123
(S'we'
p124
g43
F0.9968
tp125
a(S'seen'
p126
g46
F0.9974
tp127
a(g88
g89
F0.6416
tp128
a(S'saw'
p129
g46
F0.9856
tp130
a(S'that'
p131
g43
F0.8106
tp132
asI13
(lp133
(S'i'
p134
g43
F0.9888
tp135
a(S'went'
p136
g46
F0.9997
tp137
a(S'in'
p138
g28
F0.8313
tp139
a(g18
g3
F0.971
tp140
a(S'quarium'
p141
g21
F0.7504
tp142
asI14
(lp143
(S'yeah'
p144
g13
F0.9933
tp145
a(S'and'
p146
g89
F0.9991
tp147
a(g134
g43
F0.9936
tp148
a(S'liked'
p149
g46
F0.9999
tp150
a(S'that'
p151
g3
F0.8476
tp152
a(S'wind'
p153
g21
F0.978
tp154
a(S'thing'
p155
g21
F0.992
tp156
asI15
(lp157
(S'uh'
p158
g13
F0.9234
tp159
a(S'thing'
p160
g21
F0.9062
tp161
a(S'that'
p162
g28
F0.7359
tp163
a(S'pumps'
p164
g21
F0.9021
tp165
a(S'the'
p166
g3
F0.9969
tp167
a(S'water'
p168
g21
F0.9978
tp169
a(S'out'
p170
g28
F0.9551
tp171
a(S'of'
p172
g28
F0.9932
tp173
a(S'um'
p174
g3
F0.312
tp175
a(S'sea'
p176
g21
F0.8806
tp177
a(S'in'
p178
g28
F0.9991
tp179
a(S'the'
p180
g3
F0.9983
tp181
a(S'ocean'
p182
g21
F0.6903
tp183
a(S'and'
p184
g89
F0.9968
tp185
a(S'push'
p186
g46
F0.9836
tp187
a(S'it'
p188
g43
F0.9865
tp189
a(S'in'
p190
g28
F0.6487
tp191
asI16
(lp192
(S'mhm'
p193
g13
F0.9747
tp194
asI17
(lp195
(S'oh'
p196
g13
F0.9971
tp197
a(g134
g43
F0.9842
tp198
a(S'like'
p199
g46
F0.9157
tp200
a(S'that'
p201
g43
F0.9192
tp202
asI18
(lp203
(S'maybe'
p204
g25
F0.9457
tp205
a(S'margaret'
p206
g31
F0.939
tp207
a(S'should'
p208
g46
F0.9921
tp209
a(S'bring'
p210
g46
F1.0
tp211
a(S'me'
p212
g43
F0.9975
tp213
a(S'to'
p214
g28
F0.9966
tp215
a(S'the'
p216
g3
F0.9764
tp217
a(g18
g21
F0.4361
tp218
a(S'quarium'
p219
g21
F0.7087
tp220
a(S'someday'
p221
g25
F0.8837
tp222
asI19
(lp223
(S'me'
p224
g43
F0.9918
tp225
asI20
(lp226
(S'mm'
p227
g13
F0.627
tp228
asI21
(lp229
(g134
g43
F0.9896
tp230
a(S'have'
p231
g46
F0.9997
tp232
a(S'already'
p233
g25
F0.9304
tp234
a(S'been'
p235
g46
F0.9888
tp236
a(S'there'
p237
g25
F0.8146
tp238
asI22
(lp239
(g134
g43
F0.9897
tp240
a(S'mean'
p241
g46
F0.9988
tp242
a(S'my'
p243
g3
F0.9962
tp244
a(S'brother'
p245
g21
F0.9902
tp246
asI23
(lp247
(S'with'
p248
g28
F0.9984
tp249
a(S'you'
p250
g43
F0.9985
tp251
asI24
(lp252
(g134
g43
F0.9913
tp253
a(S'been'
p254
g46
F0.999
tp255
a(S'there'
p256
g25
F0.9053
tp257
a(S'before'
p258
g28
F0.8571
tp259
asI25
(lp260
(S'mhm'
p261
g13
F0.9747
tp262
asI26
(lp263
(g134
g43
F0.9901
tp264
a(S'have'
p265
g46
F0.999
tp266
asI27
(lp267
(S'did'
p268
g46
F0.9986
tp269
a(S'you'
p270
g43
F0.9986
tp271
a(S'see'
p272
g46
F0.9995
tp273
a(S'the'
p274
g3
F0.9998
tp275
a(S'little'
p276
g6
F0.9814
tp277
a(S'um'
p278
g13
F0.5051
tp279
a(S'know'
p280
g46
F0.9675
tp281
a(S'what'
p282
g43
F0.9942
tp283
asI28
(lp284
(g134
g43
F0.9885
tp285
a(S'seen'
p286
g46
F0.9987
tp287
a(g88
g89
F0.5979
tp288
a(S'saw'
p289
g46
F0.9935
tp290
a(S'the'
p291
g3
F0.9995
tp292
a(S'little'
p293
g6
F0.9916
tp294
a(S'penguin'
p295
g21
F0.9737
tp296
a(S'who'
p297
g43
F0.9813
tp298
a(S'sits'
p299
g46
F0.9985
tp300
a(S'lookin'
p301
g46
F0.834
tp302
a(g77
g46
F0.8399
tp303
a(S'up'
p304
g114
F0.935
tp305
a(S'through'
p306
g28
F0.9978
tp307
a(S'his'
p308
g3
F0.9994
tp309
a(S'neck'
p310
g21
F0.9965
tp311
a(S'and'
p312
g89
F0.9964
tp313
a(S'falls'
p314
g46
F0.9618
tp315
a(S'xxx'
p316
g9
F0.6456
tp317
asI29
(lp318
(S'they'
p319
g43
F0.9898
tp320
a(S'peed'
p321
g46
F0.9988
tp322
a(S'laughs'
p323
g46
F0.9273
tp324
asI30
(lp325
(S'laughs'
p326
g46
F0.9102
tp327
asI31
(lp328
(S'xxx'
p329
g9
F0.6854
tp330
a(S'laughs'
p331
g46
F0.948
tp332
asI32
(lp333
(S'what'
p334
g43
F0.8653
tp335
a(g18
g3
F0.9282
tp336
a(S'xxx'
p337
g21
F0.5033
tp338
asI33
(lp339
(S'well'
p340
g13
F0.7646
tp341
a(S'everybody'
p342
g21
F0.6853
tp343
a(S'has'
p344
g46
F0.9944
tp345
a(S'got'
p346
g46
F0.9955
tp347
a(S'to'
p348
g28
F0.7737
tp349
a(S'do'
p350
g46
F1.0
tp351
a(S'it'
p352
g43
F0.9927
tp353
asI34
(lp354
(S'laughs'
p355
g46
F0.9102
tp356
asI35
(lp357
(S'right'
p358
g13
F0.861
tp359
asI36
(lp360
(S'yeah'
p361
g13
F0.9988
tp362
asI37
(lp363
(S'so'
p364
g25
F0.5368
tp365
a(g134
g43
F0.9726
tp366
a(g134
g43
F0.9635
tp367
a(S'seen'
p368
g46
F0.9987
tp369
a(g88
g89
F0.6819
tp370
a(S'saw'
p371
g46
F0.9337
tp372
a(S'uh'
p373
g13
F0.8803
tp374
a(S'xxx'
p375
g9
F0.5489
tp376
a(S'pink'
p377
g6
F0.8497
tp378
a(S'she'
p379
g43
F0.9933
tp380
a(S'has'
p381
g46
F0.9985
tp382
a(S'feathers'
p383
g21
F0.9435
tp384
a(S'uh'
p385
g13
F0.7454
tp386
a(S'stickin'
p387
g46
F0.7124
tp388
a(g77
g46
F0.8378
tp389
a(S'up'
p390
g114
F0.9722
tp391
a(S'on'
p392
g28
F0.9912
tp393
a(S'its'
p394
g3
F0.6707
tp395
a(S'legs'
p396
g21
F0.9935
tp397
asI38
(lp398
(S'and'
p399
g89
F0.9981
tp400
a(S'xxx'
p401
g46
F0.5216
tp402
a(S'the'
p403
g3
F0.9983
tp404
a(S'dolphin'
p405
g21
F0.9716
tp406
a(S'show'
p407
g21
F0.937
tp408
asI39
(lp409
(S'yeah'
p410
g13
F0.9925
tp411
a(S'some'
p412
g3
F0.6249
tp413
a(S'of'
p414
g28
F0.9761
tp415
a(S'th'
p416
g96
F0.2822
tp417
a(S'em'
p418
g43
F0.878
tp419
a(S'xxx'
p420
g9
F0.3253
tp421
a(S'have'
p422
g46
F0.9918
tp423
a(S'different'
p424
g6
F0.9394
tp425
a(S'like'
p426
g28
F0.9912
tp427
a(S'you'
p428
g43
F0.9999
tp429
a(S'know'
p430
g46
F0.9987
tp431
a(S'how'
p432
g25
F0.9901
tp433
a(S'you'
p434
g43
F0.9998
tp435
a(S'have'
p436
g46
F0.9987
tp437
a(S'different'
p438
g6
F0.985
tp439
a(S'hair'
p440
g21
F0.995
tp441
a(S'cuts'
p442
g21
F0.7163
tp443
a(S'from'
p444
g28
F0.9984
tp445
a(S'other'
p446
g6
F0.9926
tp447
a(S'people'
p448
g21
F0.9981
tp449
a(S'xxx'
p450
g9
F0.7532
tp451
asI40
(lp452
(S'xxx'
p453
g9
F0.7016
tp454
a(S'they'
p455
g43
F0.9944
tp456
a(S'do'
p457
g46
F0.9995
tp458
asI41
(lp459
(S'shapes'
p460
g46
F0.9615
tp461
a(S'them'
p462
g43
F0.901
tp463
asI42
(lp464
(S'xxx'
p465
g9
F0.8437
tp466
asI43
(lp467
(S'mom'
p468
g21
F0.7188
tp469
asI44
(lp470
(S'um'
p471
g13
F0.9106
tp472
a(S'and'
p473
g89
F0.9988
tp474
a(g134
g43
F0.9929
tp475
a(S'seen'
p476
g46
F0.999
tp477
a(S'wp'
p478
g31
F0.7479
tp479
a(S'saw'
p480
g46
F0.9763
tp481
a(g18
g3
F0.9945
tp482
a(S'dolphin'
p483
g21
F0.9829
tp484
a(S'show'
p485
g21
F0.9653
tp486
asI45
(lp487
(S'at'
p488
g28
F0.9988
tp489
a(S'the'
p490
g3
F0.9994
tp491
a(S'aquarium'
p492
g21
F0.9926
tp493
asI46
(lp494
(S'mhm'
p495
g13
F0.9747
tp496
asI47
(lp497
(S'they'
p498
g43
F0.9926
tp499
a(S'have'
p500
g46
F0.9987
tp501
a(g134
g43
F0.9944
tp502
a(S'watched'
p503
g46
F1.0
tp504
a(S'it'
p505
g43
F0.9462
tp506
a(S'this'
p507
g3
F0.9747
tp508
a(S'one'
p509
S'$'
p510
F0.9332
tp511
a(S'that'
p512
g28
F0.7725
tp513
a(S'jumped'
p514
g46
F0.9983
tp515
a(S'over'
p516
g28
F0.9473
tp517
a(S'the'
p518
g3
F0.9995
tp519
a(S'big'
p520
g6
F0.9478
tp521
a(S'giant'
p522
g6
F0.9179
tp523
a(S'hoop'
p524
g21
F0.9966
tp525
asI48
(lp526
(S'hm'
p527
g13
F0.995
tp528
asI49
(lp529
(g134
g43
F0.9718
tp530
a(S'like'
p531
g46
F0.8608
tp532
a(S'that'
p533
g43
F0.9536
tp534
asI50
(lp535
(S'xxx'
p536
g9
F0.8437
tp537
asI51
(lp538
(g134
g43
F0.9708
tp539
a(S'like'
p540
g46
F0.7423
tp541
a(S'when'
p542
g25
F0.9741
tp543
a(S'um'
p544
g13
F0.5552
tp545
a(S'he'
p546
g43
F0.9959
tp547
a(S'tried'
p548
g46
F0.9989
tp549
a(S'to'
p550
g28
F0.992
tp551
a(S'catch'
p552
g46
F0.9992
tp553
a(S'the'
p554
g3
F0.999
tp555
a(S'balloon'
p556
g21
F0.8837
tp557
asI52
(lp558
(S'oh'
p559
g13
F0.9824
tp560
a(S'way'
p561
g21
F0.624
tp562
a(S'up'
p563
g28
F0.4337
tp564
a(S'in'
p565
g28
F0.965
tp566
a(S'in'
p567
g28
F0.9875
tp568
a(S'the'
p569
g3
F0.9994
tp570
a(S'way'
p571
g21
F0.9696
tp572
a(S'up'
p573
g28
F0.7007
tp574
a(S'there'
p575
g25
F0.7385
tp576
asI53
(lp577
(S'mm'
p578
g13
F0.627
tp579
asI54
(lp580
(S'mhm'
p581
g13
F0.9747
tp582
asI55
(lp583
(S'we'
p584
g43
F0.9953
tp585
a(S'were'
p586
g46
F0.9992
tp587
a(S'in'
p588
g28
F0.9199
tp589
a(g18
g3
F0.9961
tp590
a(S'boat'
p591
g21
F0.9848
tp592
asI56
(lp593
(S'watching'
p594
g46
F0.9994
tp595
a(S'it'
p596
g43
F0.995
tp597
asI57
(lp598
(S'yeah'
p599
g13
F0.9988
tp600
asI58
(lp601
(S'in'
p602
g28
F0.9537
tp603
a(g18
g3
F0.9966
tp604
a(S'boat'
p605
g21
F0.9923
tp606
asI59
(lp607
(S'yeah'
p608
g13
F0.9988
tp609
asI60
(lp610
(S'yeah'
p611
g13
F0.9988
tp612
asI61
(lp613
(S'at'
p614
g28
F0.9866
tp615
a(S'least'
p616
g6
F0.9679
tp617
a(S'it'
p618
g43
F0.9885
tp619
a(S'stayed'
p620
g46
F0.9268
tp621
asI62
(lp622
(S'hm'
p623
g13
F0.995
tp624
asI63
(lp625
(S'it'
p626
g43
F0.9888
tp627
a(g45
g46
F0.7475
tp628
a(S'on'
p629
g28
F0.9637
tp630
a(S'the'
p631
g3
F0.9994
tp632
a(S'water'
p633
g21
F0.9947
tp634
asI64
(lp635
(S'yeah'
p636
g13
F0.9988
tp637
asI65
(lp638
(S'and'
p639
g89
F0.9991
tp640
a(S'we'
p641
g43
F0.9978
tp642
a(S'would'
p643
g46
F0.9997
tp644
a(S'see'
p645
g46
F0.9999
tp646
a(S'it'
p647
g43
F0.9387
tp648
a(S'in'
p649
g28
F0.9352
tp650
a(S'that'
p651
g43
F0.7164
tp652
asI66
(lp653
(g134
g43
F0.9897
tp654
a(S'mean'
p655
g46
F0.9903
tp656
a(S'not'
p657
g25
F0.991
tp658
a(S'chi'
p659
g96
F0.5756
tp660
asI67
(lp661
(S'chi'
p662
g31
F0.6686
tp663
a(S'wanted'
p664
g46
F0.9256
tp665
a(S'chi'
p666
g31
F0.5242
tp667
a(S'wanted'
p668
g46
F0.9286
tp669
a(S'xxx'
p670
g9
F0.4183
tp671
a(S'with'
p672
g28
F0.9991
tp673
a(S'us'
p674
g43
F0.9735
tp675
asI68
(lp676
(S'but'
p677
g89
F0.9948
tp678
a(g134
g43
F0.9971
tp679
a(S'was'
p680
g46
F1.0
tp681
a(S'his'
p682
g3
F0.9908
tp683
a(S'xxx'
p684
g9
F0.5044
tp685
asI69
(lp686
(S'yeah'
p687
g13
F0.9945
tp688
a(S'laughs'
p689
g46
F0.9273
tp690
asI70
(lp691
(S'what'
p692
g43
F0.9739
tp693
a(g45
g96
F0.8309
tp694
a(S'xxx'
p695
g9
F0.487
tp696
asI71
(lp697
(S'good'
p698
g6
F0.9644
tp699
asI72
(lp700
(S'oh'
p701
g13
F0.9878
tp702
a(S'you'
p703
g43
F0.9906
tp704
a(S'playin'
p705
g46
F0.9994
tp706
a(g77
g28
F0.3245
tp707
a(S'the'
p708
g3
F0.9988
tp709
a(S'tape'
p710
g21
F0.9951
tp711
a(S'recorder'
p712
g21
F0.9951
tp713
asI73
(lp714
(S'mhm'
p715
g13
F0.9747
tp716
asI74
(lp717
(g134
g43
F0.953
tp718
a(S'm'
p719
g46
F0.9805
tp720
a(S'tapin'
p721
g46
F0.6744
tp722
a(g77
g96
F0.3553
tp723
asI75
(lp724
(S'fooled'
p725
g46
F0.9985
tp726
a(S'you'
p727
g43
F0.9473
tp728
a(S'guys'
p729
g21
F0.9697
tp730
a(S'huh'
p731
g13
F0.9071
tp732
asI76
(lp733
(S'you'
p734
g43
F0.9911
tp735
a(S'didn'
p736
g46
F0.9886
tp737
a(S't'
p738
g46
F0.7047
tp739
a(S'even'
p740
g25
F0.9959
tp741
a(S'know'
p742
g46
F0.9961
tp743
asI77
(lp744
(S'oh'
p745
g13
F0.9988
tp746
asI78
(lp747
(g134
g43
F0.9866
tp748
a(S'would'
p749
g46
F0.9995
tp750
a(S've'
p751
g46
F0.927
tp752
a(S'got'
p753
g46
F0.9953
tp754
a(S'away'
p755
g25
F0.8777
tp756
a(S'with'
p757
g28
F0.9994
tp758
a(S'it'
p759
g43
F0.9977
tp760
a(S'if'
p761
g28
F0.9972
tp762
a(S'it'
p763
g43
F0.9981
tp764
a(S'wasn'
p765
g46
F0.9223
tp766
a(g738
g96
F0.367
tp767
a(S'squeaky'
p768
g6
F0.9062
tp769
asI79
(lp770
(S'that'
p771
g43
F0.7824
tp772
a(S'gave'
p773
g46
F0.9998
tp774
a(S'me'
p775
g43
F0.9992
tp776
a(S'away'
p777
g25
F0.9796
tp778
asI80
(lp779
(S'oh'
p780
g13
F0.9988
tp781
asI81
(lp782
(g134
g43
F0.9869
tp783
a(S'wanna'
p784
g46
F0.9989
tp785
a(S'www'
p786
g31
F0.2976
tp787
a(S'growling'
p788
g46
F0.9805
tp789
asI82
(lp790
(g134
g43
F0.9888
tp791
a(S'tried'
p792
g46
F0.9987
tp793
a(S'to'
p794
g28
F0.9934
tp795
a(S'get'
p796
g46
F0.9998
tp797
a(S'away'
p798
g25
F0.7989
tp799
a(S'with'
p800
g28
F0.9994
tp801
a(S'it'
p802
g43
F0.9978
tp803
a(S'without'
p804
g28
F0.9965
tp805
a(S'you'
p806
g43
F0.9863
tp807
a(S'guys'
p808
g21
F0.7184
tp809
a(S'knowin'
p810
g46
F0.8955
tp811
a(g77
g96
F0.4079
tp812
asI83
(lp813
(S'yeah'
p814
g13
F0.9905
tp815
a(S'sis'
p816
g21
F0.9099
tp817
a(S'know'
p818
g46
F0.9892
tp819
a(S'what'
p820
g43
F0.9769
tp821
a(S'you'
p822
g43
F0.9998
tp823
a(S'did'
p824
g46
F0.9986
tp825
asI84
(lp826
(S'what'
p827
g43
F0.949
tp828
asI85
(lp829
(S'we'
p830
g43
F0.9971
tp831
a(S'made'
p832
g46
F0.9999
tp833
a(S'it'
p834
g43
F0.9478
tp835
a(S'you'
p836
g43
F0.9981
tp837
a(S'made'
p838
g46
F0.9997
tp839
a(S'the'
p840
g3
F0.9986
tp841
a(S'red'
p842
g6
F0.976
tp843
a(S'light'
p844
g21
F0.9872
tp845
a(S'go'
p846
g46
F0.9832
tp847
a(S'on'
p848
g28
F0.8435
tp849
asI86
(lp850
(S'0'
p851
g510
F0.9725
tp852
a(S'growling'
p853
g46
F0.9851
tp854
a(S'then'
p855
g25
F0.8131
tp856
a(S'laughter'
p857
g21
F0.9681
tp858
asI87
(lp859
(g851
g510
F0.9725
tp860
a(S'growling'
p861
g46
F0.9851
tp862
a(S'then'
p863
g25
F0.8131
tp864
a(S'laughter'
p865
g21
F0.9681
tp866
asI88
(lp867
(S'okay'
p868
g13
F0.909
tp869
a(S'laughing'
p870
g46
F0.8238
tp871
asI89
(lp872
(S'you'
p873
g43
F0.9475
tp874
a(S'kooks'
p875
g31
F0.4571
tp876
asI90
(lp877
(S'growls'
p878
g46
F0.9496
tp879
asI91
(lp880
(S'let'
p881
g46
F0.8948
tp882
a(g45
g96
F0.4054
tp883
a(S'finish'
p884
g46
F0.9505
tp885
a(S'eatin'
p886
g46
F0.5613
tp887
a(g77
g96
F0.3027
tp888
asI92
(lp889
(S'sis'
p890
g21
F0.8652
tp891
asI93
(lp892
(g851
g510
F0.9723
tp893
a(S'grunting'
p894
g46
F0.9445
tp895
a(S'noise'
p896
g21
F0.9802
tp897
asI94
(lp898
(S'how'
p899
g25
F0.9764
tp900
a(g45
g96
F0.739
tp901
a(S'the'
p902
g3
F0.9982
tp903
a(S'potato'
p904
g21
F0.9929
tp905
a(S'xxx'
p906
g9
F0.779
tp907
asI95
(lp908
(S'yum'
p909
g13
F0.9847
tp910
asI96
(lp911
(S'it'
p912
g43
F0.9858
tp913
a(g45
g46
F0.6231
tp914
a(S'good'
p915
g6
F0.991
tp916
asI97
(lp917
(S'yeah'
p918
g13
F0.9988
tp919
asI98
(lp920
(S'how'
p921
g25
F0.9802
tp922
a(S'come'
p923
g46
F0.9985
tp924
a(S'the'
p925
g3
F0.9986
tp926
a(S'light'
p927
g21
F0.982
tp928
a(S'goes'
p929
g46
F0.9924
tp930
a(S'on'
p931
g114
F0.5404
tp932
a(S'whenever'
p933
g25
F0.9749
tp934
a(S'we'
p935
g43
F0.998
tp936
a(S'talk'
p937
g46
F0.9896
tp938
asI99
(lp939
(S'be'
p940
g46
F0.9727
tp941
a(S'cause'
p942
g28
F0.9298
tp943
a(S'um'
p944
g13
F0.3781
tp945
a(S'it'
p946
g43
F0.9663
tp947
a(S'um'
p948
g13
F0.4083
tp949
a(S'measures'
p950
g46
F0.9267
tp951
a(S'the'
p952
g3
F0.9997
tp953
a(S'volume'
p954
g21
F0.9971
tp955
asI100
(lp956
(S'yeah'
p957
g13
F0.9988
tp958
asI101
(lp959
(S'so'
p960
g28
F0.7418
tp961
a(S'what'
p962
g43
F0.9989
tp963
a(S'did'
p964
g46
F0.9993
tp965
a(S'you'
p966
g43
F0.9993
tp967
a(S'have'
p968
g46
F0.9994
tp969
a(S'for'
p970
g28
F0.9985
tp971
a(S'lunch'
p972
g21
F0.9072
tp973
a(S'today'
p974
g21
F0.9972
tp975
a(S'in'
p976
g28
F0.9974
tp977
a(S'school'
p978
g21
F0.9939
tp979
a(S'xxx'
p980
g9
F0.768
tp981
asI102
(lp982
(S'pork'
p983
g21
F0.9374
tp984
a(S'xxx'
p985
g9
F0.3463
tp986
a(S'with'
p987
g28
F0.9868
tp988
a(S'honey'
p989
g21
F0.8611
tp990
asI103
(lp991
(S'oh'
p992
g13
F0.9988
tp993
asI104
(lp994
(S'and'
p995
g89
F0.9988
tp996
a(S'potato'
p997
g21
F0.9727
tp998
a(S'fries'
p999
g21
F0.9903
tp1000
asI105
(lp1001
(g134
g43
F0.9843
tp1002
a(S'call'
p1003
g46
F0.9988
tp1004
a(S'mine'
p1005
g43
F0.9029
tp1006
a(S'french'
p1007
g6
F0.6653
tp1008
a(S'fries'
p1009
g21
F0.9963
tp1010
asI106
(lp1011
(S'and'
p1012
g89
F0.9982
tp1013
a(S'on'
p1014
g28
F0.9575
tp1015
a(S'monday'
p1016
g31
F0.9372
tp1017
a(S'we'
p1018
g43
F0.9926
tp1019
a(S'have'
p1020
g46
F0.9992
tp1021
a(S'pizza'
p1022
g21
F0.9873
tp1023
asI107
(lp1024
(S'every'
p1025
g3
F0.9569
tp1026
a(S'monday'
p1027
g21
F0.5674
tp1028
asI108
(lp1029
(S'mhm'
p1030
g13
F0.9747
tp1031
asI109
(lp1032
(S'every'
p1033
g3
F0.9627
tp1034
a(S'monday'
p1035
g31
F0.4981
tp1036
a(S'my'
p1037
g3
F0.9935
tp1038
a(S'class'
p1039
g21
F0.9987
tp1040
a(S'has'
p1041
g46
F0.9918
tp1042
a(S'pizza'
p1043
g21
F0.9616
tp1044
asI110
(lp1045
(S'and'
p1046
g89
F0.9991
tp1047
a(S'um'
p1048
g13
F0.8866
tp1049
asI111
(lp1050
(S'when'
p1051
g25
F0.9811
tp1052
a(g134
g43
F0.9941
tp1053
a(S'was'
p1054
g46
F0.9999
tp1055
a(S'in'
p1056
g28
F0.9657
tp1057
a(S'my'
p1058
g3
F0.9964
tp1059
a(S'school'
p1060
g21
F0.9977
tp1061
a(S'every'
p1062
g3
F0.9017
tp1063
a(S'friday'
p1064
g31
F0.501
tp1065
a(S'either'
p1066
g89
F0.4524
tp1067
a(S'had'
p1068
g46
F0.9931
tp1069
a(S'pizza'
p1070
g21
F0.9671
tp1071
asI112
(lp1072
(S'one'
p1073
g510
F0.9559
tp1074
a(S'friday'
p1075
g31
F0.5712
tp1076
a(S'they'
p1077
g43
F0.982
tp1078
a(S'had'
p1079
g46
F0.9995
tp1080
a(S'pizza'
p1081
g21
F0.926
tp1082
a(S'the'
p1083
g3
F0.9978
tp1084
a(S'next'
p1085
g6
F0.9152
tp1086
a(S'friday'
p1087
g31
F0.483
tp1088
a(S'we'
p1089
g43
F0.9929
tp1090
a(S'had'
p1091
g46
F0.9995
tp1092
a(S'fish'
p1093
g21
F0.9801
tp1094
a(S'sticks'
p1095
g21
F0.6266
tp1096
asI113
(lp1097
(S'laughs'
p1098
g46
F0.9102
tp1099
asI114
(lp1100
(g134
g43
F0.9908
tp1101
a(S'know'
p1102
g46
F0.9999
tp1103
a(S'you'
p1104
g43
F0.9805
tp1105
a(S'guys'
p1106
g21
F0.9586
tp1107
a(S'would'
p1108
g46
F0.9994
tp1109
a(S'love'
p1110
g46
F0.9964
tp1111
a(S'that'
p1112
g43
F0.6357
tp1113
a(S'huh'
p1114
g13
F0.8572
tp1115
asI115
(lp1116
(S'mm'
p1117
g13
F0.627
tp1118
asI116
(lp1119
(S'what'
p1120
g43
F0.7394
tp1121
a(S'grade'
p1122
g21
F0.9852
tp1123
a(S'was'
p1124
g46
F0.9982
tp1125
a(S'that'
p1126
g43
F0.6919
tp1127
asI117
(lp1128
(S'first'
p1129
g6
F0.5213
tp1130
a(S'second'
p1131
g6
F0.8949
tp1132
asI118
(lp1133
(S'oh'
p1134
g13
F0.9881
tp1135
a(S'mom'
p1136
g21
F0.8251
tp1137
a(S'tell'
p1138
g46
F0.9991
tp1139
a(S'him'
p1140
g43
F0.9936
tp1141
a(S'what'
p1142
g43
F0.9355
tp1143
a(S'um'
p1144
g13
F0.5007
tp1145
a(S'jimmy'
p1146
g31
F0.9954
tp1147
a(S'and'
p1148
g89
F0.9993
tp1149
a(S'um'
p1150
g13
F0.5626
tp1151
a(S'his'
p1152
g3
F0.9968
tp1153
a(S'friends'
p1154
g21
F0.9879
tp1155
a(S'used'
p1156
g46
F0.965
tp1157
a(S'to'
p1158
g28
F0.9703
tp1159
a(S'do'
p1160
g46
F0.9998
tp1161
a(S'to'
p1162
g28
F0.9923
tp1163
a(S'your'
p1164
g3
F0.9781
tp1165
a(S'snowman'
p1166
g21
F0.8233
tp1167
asI119
(lp1168
(S'probably'
p1169
g25
F0.9958
tp1170
asI120
(lp1171
(S'you'
p1172
g43
F0.9945
tp1173
a(S'tell'
p1174
g46
F0.9998
tp1175
a(S'him'
p1176
g43
F0.9956
tp1177
asI121
(lp1178
(S'you'
p1179
g43
F0.9983
tp1180
a(S'know'
p1181
g46
F0.9997
tp1182
a(S'the'
p1183
g3
F0.9986
tp1184
a(S'story'
p1185
g21
F0.9989
tp1186
asI122
(lp1187
(S'they'
p1188
g43
F0.9899
tp1189
a(S'used'
p1190
g46
F0.9919
tp1191
a(S'to'
p1192
g28
F0.9591
tp1193
a(S'always'
p1194
g25
F0.9771
tp1195
a(S'go'
p1196
g46
F0.9991
tp1197
a(S'up'
p1198
g114
F0.6919
tp1199
a(S'and'
p1200
g89
F0.9988
tp1201
a(S'um'
p1202
g13
F0.5986
tp1203
a(S'wreck'
p1204
g21
F0.6146
tp1205
a(S'th'
p1206
g96
F0.3388
tp1207
a(S'em'
p1208
g43
F0.9033
tp1209
asI123
(lp1210
(S'so'
p1211
g28
F0.5295
tp1212
a(S'jimmy'
p1213
g31
F0.9911
tp1214
a(g45
g96
F0.4892
tp1215
a(S'grandpa'
p1216
g21
F0.5077
tp1217
a(S'xxx'
p1218
g9
F0.7596
tp1219
asI124
(lp1220
(S'no'
p1221
g13
F0.7428
tp1222
a(S'y'
p1223
g25
F0.2528
tp1224
a(S'your'
p1225
g3
F0.9371
tp1226
a(S'grandpa'
p1227
g21
F0.959
tp1228
asI125
(lp1229
(S'our'
p1230
g3
F0.9845
tp1231
a(S'grandpa'
p1232
g21
F0.8461
tp1233
asI126
(lp1234
(S'jimmy'
p1235
g31
F0.9899
tp1236
a(S'jimmy'
p1237
g31
F0.9987
tp1238
a(g45
g96
F0.7105
tp1239
a(S'um'
p1240
g13
F0.8199
tp1241
asI127
(lp1242
(S'he'
p1243
g43
F0.9944
tp1244
a(S'used'
p1245
g46
F0.9909
tp1246
a(S'to'
p1247
g28
F0.9816
tp1248
a(S'chase'
p1249
g46
F0.9526
tp1250
a(S'jimmy'
p1251
g31
F0.9804
tp1252
asI128
(lp1253
(S'yeah'
p1254
g13
F0.9988
tp1255
asI129
(lp1256
(S'when'
p1257
g25
F0.9604
tp1258
a(S'we'
p1259
g43
F0.997
tp1260
a(S'were'
p1261
g46
F0.9974
tp1262
a(S'kids'
p1263
g21
F0.9759
tp1264
asI130
(lp1265
(S'yeah'
p1266
g13
F0.9963
tp1267
a(S'because'
p1268
g28
F0.999
tp1269
a(S'he'
p1270
g43
F0.9987
tp1271
a(S'always'
p1272
g25
F0.9969
tp1273
a(S'used'
p1274
g46
F0.9418
tp1275
a(S'to'
p1276
g28
F0.9916
tp1277
a(S'break'
p1278
g46
F0.999
tp1279
a(S'the'
p1280
g3
F0.9989
tp1281
a(S'snowman'
p1282
g21
F0.7622
tp1283
asI131
(lp1284
(S'so'
p1285
g25
F0.5039
tp1286
a(S'xxx'
p1287
g9
F0.6702
tp1288
asI132
(lp1289
(S'xxx'
p1290
g9
F0.6909
tp1291
a(S'uncle'
p1292
g21
F0.8398
tp1293
a(S'david'
p1294
g31
F0.979
tp1295
a(g45
g96
F0.4926
tp1296
a(S'snowman'
p1297
g31
F0.4588
tp1298
asI133
(lp1299
(S'yeah'
p1300
g13
F0.9988
tp1301
asI134
(lp1302
(S'so'
p1303
g28
F0.9134
tp1304
a(S'he'
p1305
g43
F0.9942
tp1306
a(S'd'
p1307
g46
F0.4607
tp1308
a(S'chase'
p1309
g46
F0.9887
tp1310
a(S'them'
p1311
g43
F0.9412
tp1312
a(S'um'
p1313
g13
F0.6724
tp1314
a(S'all'
p1315
g3
F0.3669
tp1316
a(S'around'
p1317
g28
F0.5598
tp1318
a(S'in'
p1319
g28
F0.9942
tp1320
a(S'the'
p1321
g3
F0.9992
tp1322
a(S'yard'
p1323
g21
F0.9866
tp1324
asI135
(lp1325
(S'tryin'
p1326
g46
F0.9189
tp1327
a(g77
g46
F0.5224
tp1328
a(S'to'
p1329
g28
F0.9855
tp1330
a(S'catch'
p1331
g46
F0.9922
tp1332
a(S'jimmy'
p1333
g31
F0.9854
tp1334
asI136
(lp1335
(S'mm'
p1336
g13
F0.2494
tp1337
a(S'laughs'
p1338
g46
F0.9387
tp1339
asI137
(lp1340
(S'jimmy'
p1341
g31
F0.9868
tp1342
a(S'who'
p1343
g43
F0.9857
tp1344
asI138
(lp1345
(S'donovan'
p1346
g31
F0.9382
tp1347
asI139
(lp1348
(S'jimmy'
p1349
g31
F0.9933
tp1350
a(S'donovan'
p1351
g31
F0.9904
tp1352
asI140
(lp1353
(S'but'
p1354
g89
F0.993
tp1355
a(S'he'
p1356
g43
F0.9985
tp1357
a(S'was'
p1358
g46
F0.9995
tp1359
a(S'too'
p1360
g25
F0.9996
tp1361
a(S'fast'
p1362
g6
F0.8033
tp1363
a(S'for'
p1364
g28
F0.9997
tp1365
a(S'an'
p1366
g3
F0.997
tp1367
a(S'old'
p1368
g6
F0.9975
tp1369
a(S'man'
p1370
g21
F0.8972
tp1371
asI141
(lp1372
(S'laughs'
p1373
g46
F0.9102
tp1374
asI142
(lp1375
(S'like'
p1376
g28
F0.8623
tp1377
a(S'who'
p1378
g43
F0.999
tp1379
asI143
(lp1380
(S'for'
p1381
g28
F0.9988
tp1382
a(S'an'
p1383
g3
F0.9968
tp1384
a(S'old'
p1385
g6
F0.9947
tp1386
a(S'man'
p1387
g21
F0.9666
tp1388
a(S'like'
p1389
g28
F0.9452
tp1390
a(S'who'
p1391
g43
F0.9987
tp1392
asI144
(lp1393
(S'our'
p1394
g3
F0.9845
tp1395
a(S'grandpa'
p1396
g21
F0.8461
tp1397
asI145
(lp1398
(S'laughs'
p1399
g46
F0.9102
tp1400
asI146
(lp1401
(S'yeah'
p1402
g13
F0.9988
tp1403
asI147
(lp1404
(S'grandpa'
p1405
g13
F0.4036
tp1406
a(S'xxx'
p1407
g9
F0.8238
tp1408
asI148
(lp1409
(S'mhm'
p1410
g13
F0.9747
tp1411
asI149
(lp1412
(S'your'
p1413
g3
F0.9652
tp1414
a(S'father'
p1415
g21
F0.9962
tp1416
asI150
(lp1417
(S'whose'
p1418
S'L'
p1419
F0.6757
tp1420
a(S'father'
p1421
g21
F0.9084
tp1422
asI151
(lp1423
(S'yours'
p1424
g43
F0.8232
tp1425
asI152
(lp1426
(S'yup'
p1427
g13
F0.9978
tp1428
asI153
(lp1429
(S'mom'
p1430
g21
F0.7188
tp1431
asI154
(lp1432
(S'if'
p1433
g28
F0.9857
tp1434
a(S'grandpa'
p1435
g21
F0.6746
tp1436
a(S'is'
p1437
g46
F0.9995
tp1438
a(S'your'
p1439
g3
F0.9923
tp1440
a(S'father'
p1441
g21
F0.9961
tp1442
a(S'and'
p1443
g89
F0.9981
tp1444
a(S'how'
p1445
g25
F0.9882
tp1446
a(S'come'
p1447
g46
F0.9846
tp1448
a(S'uh'
p1449
g13
F0.8286
tp1450
a(S'but'
p1451
g89
F0.993
tp1452
a(S'nana'
p1453
g21
F0.5381
tp1454
a(g45
g96
F0.6358
tp1455
a(S'your'
p1456
g3
F0.973
tp1457
a(S'mother'
p1458
g21
F0.9978
tp1459
asI155
(lp1460
(S'how'
p1461
g25
F0.9802
tp1462
a(S'come'
p1463
g46
F0.9874
tp1464
a(S'grandpa'
p1465
g21
F0.3273
tp1466
a(S'doesn'
p1467
g46
F0.9554
tp1468
a(g738
g21
F0.2162
tp1469
a(S'live'
p1470
g46
F0.9151
tp1471
a(S'with'
p1472
g28
F0.9943
tp1473
a(S'nana'
p1474
g21
F0.6216
tp1475
asI156
(lp1476
(S'they'
p1477
g43
F0.9898
tp1478
a(S'used'
p1479
g46
F0.9853
tp1480
a(S'to'
p1481
g28
F0.9127
tp1482
asI157
(lp1483
(S'xxx'
p1484
g9
F0.704
tp1485
a(S'they'
p1486
g43
F0.9789
tp1487
a(S'don'
p1488
g46
F0.8571
tp1489
a(g738
g21
F0.2122
tp1490
a(S'have'
p1491
g46
F0.9972
tp1492
a(S'www'
p1493
g31
F0.4157
tp1494
a(S'num'
p1495
g31
F0.6956
tp1496
a(S'num'
p1497
g31
F0.4602
tp1498
a(S'noises'
p1499
g21
F0.9005
tp1500
asI158
(lp1501
(S'but'
p1502
g89
F0.9878
tp1503
a(S'now'
p1504
g25
F0.9974
tp1505
a(S'grandpa'
p1506
g21
F0.3116
tp1507
a(S'moved'
p1508
g46
F0.9981
tp1509
a(S'out'
p1510
g114
F0.8622
tp1511
a(S'and'
p1512
g89
F0.9966
tp1513
a(S'he'
p1514
g43
F0.9963
tp1515
a(g45
g46
F0.7731
tp1516
a(S'livin'
p1517
g46
F0.7416
tp1518
a(g77
g46
F0.4271
tp1519
a(S'with'
p1520
g28
F0.9944
tp1521
a(S'jean'
p1522
g31
F0.9968
tp1523
asI159
(lp1524
(S'and'
p1525
g89
F0.9985
tp1526
a(S'nana'
p1527
g21
F0.65
tp1528
a(g45
g96
F0.6622
tp1529
a(S'livin'
p1530
g46
F0.6565
tp1531
a(g77
g46
F0.4599
tp1532
a(S'with'
p1533
g28
F0.9958
tp1534
a(S'mack'
p1535
g31
F0.9699
tp1536
asI160
(lp1537
(S'when'
p1538
g25
F0.9811
tp1539
a(g134
g43
F0.9941
tp1540
a(S'was'
p1541
g46
F0.9999
tp1542
a(g18
g3
F0.9995
tp1543
a(S'kid'
p1544
g21
F0.9781
tp1545
a(S'we'
p1546
g43
F0.9848
tp1547
a(S'used'
p1548
g46
F0.9913
tp1549
a(S'to'
p1550
g28
F0.9933
tp1551
a(S'all'
p1552
g3
F0.8241
tp1553
a(S'live'
p1554
g6
F0.6095
tp1555
a(S'together'
p1556
g25
F0.8991
tp1557
asI161
(lp1558
(S'sometimes'
p1559
g25
F0.8632
tp1560
a(S'things'
p1561
g21
F0.9552
tp1562
a(S'just'
p1563
g25
F0.9996
tp1564
a(S'happen'
p1565
g46
F0.9998
tp1566
a(S'this'
p1567
g3
F0.9754
tp1568
a(S'way'
p1569
g21
F0.9586
tp1570
asI162
(lp1571
(S'sometimes'
p1572
g25
F0.862
tp1573
a(S'people'
p1574
g21
F0.9802
tp1575
a(S'go'
p1576
g46
F0.9951
tp1577
a(S'separate'
p1578
g6
F0.9965
tp1579
a(S'ways'
p1580
g21
F0.9964
tp1581
asI163
(lp1582
(S'but'
p1583
g89
F0.9915
tp1584
a(S'still'
p1585
g25
F0.9979
tp1586
a(S'see'
p1587
g46
F0.9972
tp1588
a(S'each'
p1589
g3
F0.9945
tp1590
a(S'other'
p1591
g6
F0.9655
tp1592
a(S'right'
p1593
g6
F0.3975
tp1594
asI164
(lp1595
(S'we'
p1596
g43
F0.9956
tp1597
a(S'still'
p1598
g25
F0.9888
tp1599
a(S'see'
p1600
g46
F0.9697
tp1601
a(S'nana'
p1602
g21
F0.795
tp1603
asI165
(lp1604
(g134
g43
F0.9889
tp1605
a(S'need'
p1606
g46
F0.9991
tp1607
a(S'to'
p1608
g28
F0.8124
tp1609
asI166
(lp1610
(S'and'
p1611
g89
F0.9986
tp1612
a(S'grandpa'
p1613
g21
F0.6008
tp1614
asI167
(lp1615
(S'and'
p1616
g89
F0.998
tp1617
a(S'xxx'
p1618
g9
F0.6761
tp1619
asI168
(lp1620
(S'mhm'
p1621
g13
F0.9747
tp1622
asI169
(lp1623
(S'excu'
p1624
g13
F0.3337
tp1625
a(S'se'
p1626
g46
F0.3934
tp1627
a(S'me'
p1628
g43
F0.9988
tp1629
asI170
(lp1630
(S'you'
p1631
g43
F0.9754
tp1632
a(S're'
p1633
g46
F0.9629
tp1634
a(S'his'
p1635
g3
F0.9941
tp1636
a(S'three'
p1637
g510
F0.8818
tp1638
a(S'great'
p1639
g6
F0.991
tp1640
a(S'xxx'
p1641
g9
F0.788
tp1642
asI171
(lp1643
(S'mhm'
p1644
g13
F0.9747
tp1645
asI172
(lp1646
(S'and'
p1647
g89
F0.9991
tp1648
a(S'we'
p1649
g43
F0.9973
tp1650
a(S'also'
p1651
g25
F0.9916
tp1652
a(S'xxx'
p1653
g9
F0.7753
tp1654
asI173
(lp1655
(S'except'
p1656
g89
F0.2157
tp1657
a(S'dadda'
p1658
g21
F0.9819
tp1659
a(g134
g43
F0.6396
tp1660
a(S'haven'
p1661
g46
F0.8227
tp1662
a(g738
g96
F0.2851
tp1663
a(S'seen'
p1664
g46
F0.999
tp1665
a(S'him'
p1666
g43
F0.9933
tp1667
a(S'for'
p1668
g28
F0.999
tp1669
a(g18
g3
F0.996
tp1670
a(S'long'
p1671
g6
F0.9986
tp1672
a(S'time'
p1673
g21
F0.9991
tp1674
asI174
(lp1675
(S'we'
p1676
g43
F0.9956
tp1677
a(S'probably'
p1678
g25
F0.9991
tp1679
a(S'never'
p1680
g25
F0.9948
tp1681
a(S'will'
p1682
g46
F0.994
tp1683
asI175
(lp1684
(S'we'
p1685
g43
F0.9964
tp1686
a(S'will'
p1687
g46
F0.9987
tp1688
asI176
(lp1689
(S'oh'
p1690
g13
F0.9903
tp1691
a(S'don'
p1692
g31
F0.5133
tp1693
a(g738
g31
F0.708
tp1694
a(S'say'
p1695
g46
F0.8885
tp1696
a(S'never'
p1697
g25
F0.9935
tp1698
a(S'q'
p1699
g96
F0.4953
tp1700
a(S'but'
p1701
g89
F0.9906
tp1702
asI177
(lp1703
(g18
g3
F0.9924
tp1704
a(S'lot'
p1705
g21
F0.9795
tp1706
a(S'of'
p1707
g28
F0.9957
tp1708
a(S'people'
p1709
g21
F0.9902
tp1710
a(S'haven'
p1711
g21
F0.7713
tp1712
a(g738
g21
F0.3539
tp1713
a(S'seen'
p1714
g46
F0.9997
tp1715
a(S'him'
p1716
g43
F0.9933
tp1717
a(S'for'
p1718
g28
F0.999
tp1719
a(g18
g3
F0.9963
tp1720
a(S'long'
p1721
g6
F0.9985
tp1722
a(S'time'
p1723
g21
F0.9991
tp1724
asI178
(lp1725
(S'yup'
p1726
g13
F0.9978
tp1727
asI179
(lp1728
(S'probably'
p1729
g25
F0.9977
tp1730
a(S'took'
p1731
g46
F0.9938
tp1732
a(S'care'
p1733
g21
F0.6961
tp1734
a(S'of'
p1735
g28
F0.9993
tp1736
a(S'his'
p1737
g3
F0.9994
tp1738
a(S'leg'
p1739
g21
F0.992
tp1740
asI180
(lp1741
(S'it'
p1742
g43
F0.9695
tp1743
a(S'it'
p1744
g43
F0.9671
tp1745
a(g45
g46
F0.8596
tp1746
a(S'all'
p1747
g3
F0.9071
tp1748
a(S'better'
p1749
g6
F0.7438
tp1750
a(S'probably'
p1751
g25
F0.9998
tp1752
a(S'by'
p1753
g28
F0.9559
tp1754
a(S'now'
p1755
g25
F0.9836
tp1756
asI181
(lp1757
(S'xxx'
p1758
g9
F0.6645
tp1759
a(S'chicken'
p1760
g21
F0.857
tp1761
asI182
(lp1762
(S'with'
p1763
g28
F0.9912
tp1764
a(S'potatoes'
p1765
g21
F0.9845
tp1766
asI183
(lp1767
(S'mm'
p1768
g13
F0.627
tp1769
asI184
(lp1770
(S'eat'
p1771
g46
F0.99
tp1772
a(S'your'
p1773
g3
F0.9928
tp1774
a(S'chicken'
p1775
g21
F0.9912
tp1776
a(S'now'
p1777
g25
F0.9876
tp1778
asI185
(lp1779
(S'you'
p1780
g43
F0.9754
tp1781
a(S're'
p1782
g46
F0.7849
tp1783
a(S'not'
p1784
g25
F0.9964
tp1785
a(S'gonna'
p1786
g46
F0.9973
tp1787
a(S'eat'
p1788
g46
F0.9993
tp1789
a(S'the'
p1790
g3
F0.9996
tp1791
a(S'rest'
p1792
g21
F0.9979
tp1793
a(S'of'
p1794
g28
F0.9991
tp1795
a(S'your'
p1796
g3
F0.9926
tp1797
a(S'potato'
p1798
g21
F0.9957
tp1799
a(S'xxx'
p1800
g9
F0.7119
tp1801
asI186
(lp1802
(g134
g43
F0.9635
tp1803
a(S'don'
p1804
g46
F0.9231
tp1805
a(g738
g46
F0.4437
tp1806
a(S'like'
p1807
g28
F0.96
tp1808
a(S'the'
p1809
g3
F0.9994
tp1810
a(S'skin'
p1811
g21
F0.9992
tp1812
asI187
(lp1813
(S'no'
p1814
g13
F0.9253
tp1815
asI188
(lp1816
(S'you'
p1817
g43
F0.995
tp1818
a(S'always'
p1819
g25
F0.9913
tp1820
a(S'liked'
p1821
g46
F0.9998
tp1822
a(S'it'
p1823
g43
F0.9896
tp1824
asI189
(lp1825
(S'xxx'
p1826
g9
F0.8437
tp1827
asI190
(lp1828
(g134
g43
F0.953
tp1829
a(g719
g46
F0.9629
tp1830
a(S'gonna'
p1831
g46
F0.9944
tp1832
a(S'eat'
p1833
g46
F0.9996
tp1834
a(S'it'
p1835
g43
F0.9893
tp1836
asI191
(lp1837
(S'have'
p1838
g46
F0.9967
tp1839
a(S'some'
p1840
g3
F0.9747
tp1841
a(S'more'
p1842
g6
F0.9373
tp1843
a(S'xxx'
p1844
g9
F0.7422
tp1845
asI192
(lp1846
(S'oh'
p1847
g13
F0.9947
tp1848
a(S'good'
p1849
g6
F0.9861
tp1850
asI193
(lp1851
(S'now'
p1852
g25
F0.9804
tp1853
a(S'we'
p1854
g43
F0.9914
tp1855
a(S're'
p1856
g21
F0.5854
tp1857
a(S'gonna'
p1858
g46
F0.9772
tp1859
a(S'xxx'
p1860
g9
F0.5577
tp1861
asI194
(lp1862
(S'yeah'
p1863
g13
F0.9945
tp1864
a(S'it'
p1865
g43
F0.9989
tp1866
a(S'is'
p1867
g46
F0.9992
tp1868
asI195
(lp1869
(S'the'
p1870
g3
F0.9992
tp1871
a(S'skin'
p1872
g21
F0.9994
tp1873
a(S'is'
p1874
g46
F0.9968
tp1875
a(S'the'
p1876
g3
F0.9995
tp1877
a(S'best'
p1878
g6
F0.9931
tp1879
a(S'part'
p1880
g21
F0.9988
tp1881
asI196
(lp1882
(S'you'
p1883
g43
F0.998
tp1884
a(S'used'
p1885
g46
F0.9743
tp1886
a(S'to'
p1887
g28
F0.9619
tp1888
a(S'didn'
p1889
g46
F0.9751
tp1890
a(g738
g46
F0.8905
tp1891
a(S'like'
p1892
g28
F0.8275
tp1893
a(S'it'
p1894
g43
F0.9765
tp1895
a(S'sis'
p1896
g21
F0.7251
tp1897
asI197
(lp1898
(S'it'
p1899
g43
F0.9858
tp1900
a(g45
g46
F0.5457
tp1901
a(S'great'
p1902
g6
F0.9918
tp1903
asI198
(lp1904
(S'so'
p1905
g28
F0.7418
tp1906
a(S'what'
p1907
g43
F0.9978
tp1908
a(S'do'
p1909
g46
F0.9993
tp1910
a(S'you'
p1911
g43
F0.9996
tp1912
a(S'have'
p1913
g46
F0.9995
tp1914
a(S'left'
p1915
g46
F0.7982
tp1916
a(S'for'
p1917
g28
F0.9974
tp1918
a(S'homework'
p1919
g21
F0.9682
tp1920
a(S'guys'
p1921
g21
F0.9919
tp1922
asI199
(lp1923
(S'uh'
p1924
g13
F0.9698
tp1925
a(S'just'
p1926
g25
F0.9985
tp1927
a(S'to'
p1928
g28
F0.9774
tp1929
a(S'study'
p1930
g46
F0.9553
tp1931
a(S'my'
p1932
g3
F0.9495
tp1933
a(S'uh'
p1934
g6
F0.2739
tp1935
a(S'spelling'
p1936
g21
F0.9843
tp1937
a(S'words'
p1938
g21
F0.9633
tp1939
asI200
(lp1940
(S'you'
p1941
g43
F0.9787
tp1942
a(S'you'
p1943
g43
F0.9929
tp1944
a(S'can'
p1945
g46
F0.9997
tp1946
a(S'write'
p1947
g46
F0.9994
tp1948
a(g18
g3
F0.9958
tp1949
a(S'nice'
p1950
g6
F0.9901
tp1951
a(S'xxx'
p1952
g9
F0.8001
tp1953
asI201
(lp1954
(g134
g43
F0.984
tp1955
a(S'already'
p1956
g25
F0.9931
tp1957
a(S'did'
p1958
g46
F0.9966
tp1959
asI202
(lp1960
(S'all'
p1961
g3
F0.9491
tp1962
a(g134
g43
F0.9828
tp1963
a(S'gotta'
p1964
g46
F0.9999
tp1965
a(S'do'
p1966
g46
F0.9943
tp1967
a(S'is'
p1968
g46
F0.9983
tp1969
a(S'to'
p1970
g28
F0.9377
tp1971
a(S'study'
p1972
g46
F0.9431
tp1973
a(S'my'
p1974
g3
F0.9946
tp1975
a(S'math'
p1976
g21
F0.9972
tp1977
asI203
(lp1978
(S'and'
p1979
g89
F0.9988
tp1980
a(S'what'
p1981
g43
F0.9926
tp1982
a(S'else'
p1983
g25
F0.8715
tp1984
a(S'do'
p1985
g46
F0.9988
tp1986
a(S'you'
p1987
g43
F0.9997
tp1988
a(S'have'
p1989
g46
F0.9994
tp1990
a(S'to'
p1991
g28
F0.9968
tp1992
a(S'finish'
p1993
g46
F0.993
tp1994
asI204
(lp1995
(S'nothing'
p1996
g21
F0.9905
tp1997
a(S'else'
p1998
g25
F0.879
tp1999
asI205
(lp2000
(S'think'
p2001
g46
F0.9624
tp2002
asI206
(lp2003
(S'oh'
p2004
g13
F0.9948
tp2005
a(S'my'
p2006
g3
F0.9817
tp2007
a(S'project'
p2008
g21
F0.9994
tp2009
asI207
(lp2010
(S'yeah'
p2011
g13
F0.9988
tp2012
asI208
(lp2013
(S'you'
p2014
g43
F0.9983
tp2015
a(S'know'
p2016
g46
F0.9995
tp2017
a(S'we'
p2018
g43
F0.9982
tp2019
a(S'found'
p2020
g46
F0.9982
tp2021
a(S'one'
p2022
g510
F0.877
tp2023
a(S'xxx'
p2024
g9
F0.8665
tp2025
asI209
(lp2026
(S'mhm'
p2027
g13
F0.9747
tp2028
asI210
(lp2029
(S'how'
p2030
g25
F0.9945
tp2031
a(S'many'
p2032
g6
F0.9556
tp2033
a(S'more'
p2034
g6
F0.4469
tp2035
a(S'in'
p2036
g28
F0.9873
tp2037
a(S'xxx'
p2038
g9
F0.6351
tp2039
asI211
(lp2040
(S'xxx'
p2041
g9
F0.6615
tp2042
a(S'can'
p2043
g46
F0.9865
tp2044
a(g738
g46
F0.5963
tp2045
asI212
(lp2046
(g134
g43
F0.9635
tp2047
a(S'don'
p2048
g46
F0.9156
tp2049
a(g738
g21
F0.3074
tp2050
a(S'know'
p2051
g46
F0.965
tp2052
asI213
(lp2053
(S'we'
p2054
g43
F0.9967
tp2055
a(S'might'
p2056
g46
F0.9996
tp2057
a(S'we'
p2058
g43
F0.9931
tp2059
a(S'might'
p2060
g46
F0.9987
tp2061
a(S'not'
p2062
g25
F0.9959
tp2063
a(S'be'
p2064
g46
F0.9965
tp2065
a(S'able'
p2066
g6
F0.9807
tp2067
a(S'to'
p2068
g28
F0.9942
tp2069
a(S'do'
p2070
g46
F0.9994
tp2071
asI214
(lp2072
(S'if'
p2073
g28
F0.9657
tp2074
a(S'not'
p2075
g25
F0.9819
tp2076
a(S'we'
p2077
g43
F0.9969
tp2078
a(S'can'
p2079
g46
F0.9996
tp2080
a(S'just'
p2081
g25
F0.9996
tp2082
a(S'draw'
p2083
g46
F0.9994
tp2084
a(S'them'
p2085
g43
F0.9297
tp2086
asI215
(lp2087
(S'and'
p2088
g89
F0.9983
tp2089
a(S'color'
p2090
g46
F0.7489
tp2091
a(S'them'
p2092
g43
F0.9629
tp2093
a(S'in'
p2094
g28
F0.8514
tp2095
a(S'and'
p2096
g89
F0.9971
tp2097
a(S'cut'
p2098
g21
F0.6602
tp2099
a(S'th'
p2100
g46
F0.2758
tp2101
a(S'em'
p2102
g43
F0.9826
tp2103
a(S'out'
p2104
g114
F0.7307
tp2105
asI216
(lp2106
(S'you'
p2107
g43
F0.997
tp2108
a(S'need'
p2109
g46
F0.9922
tp2110
a(S'chalk'
p2111
g21
F0.922
tp2112
asI217
(lp2113
(S'and'
p2114
g89
F0.9987
tp2115
a(S'then'
p2116
g25
F0.9867
tp2117
a(g134
g43
F0.9927
tp2118
a(S'could'
p2119
g46
F0.9996
tp2120
a(S'draw'
p2121
g46
F0.9959
tp2122
a(S'the'
p2123
g3
F0.9995
tp2124
a(S'picture'
p2125
g21
F0.9937
tp2126
a(S'on'
p2127
g28
F0.9972
tp2128
a(g18
g3
F0.9961
tp2129
a(S'white'
p2130
g6
F0.946
tp2131
a(S'piece'
p2132
g21
F0.9991
tp2133
a(S'of'
p2134
g28
F0.9953
tp2135
a(S'paper'
p2136
g21
F0.9374
tp2137
a(S'and'
p2138
g89
F0.9986
tp2139
a(S'color'
p2140
g46
F0.6552
tp2141
a(S'it'
p2142
g43
F0.981
tp2143
a(S'in'
p2144
g28
F0.7661
tp2145
a(S'and'
p2146
g89
F0.9971
tp2147
a(S'cut'
p2148
g46
F0.9355
tp2149
a(S'it'
p2150
g43
F0.9919
tp2151
a(S'out'
p2152
g28
F0.7382
tp2153
a(S'of'
p2154
g28
F0.9942
tp2155
a(S'that'
p2156
g43
F0.7905
tp2157
asI218
(lp2158
(g134
g43
F0.9635
tp2159
a(S'don'
p2160
g46
F0.9156
tp2161
a(g738
g21
F0.3074
tp2162
a(S'know'
p2163
g46
F0.965
tp2164
asI219
(lp2165
(S'right'
p2166
g13
F0.861
tp2167
asI220
(lp2168
(S'we'
p2169
g43
F0.9943
tp2170
a(S'don'
p2171
g46
F0.8461
tp2172
a(g738
g21
F0.2384
tp2173
a(S'have'
p2174
g46
F0.9977
tp2175
a(S'to'
p2176
g28
F0.9896
tp2177
a(S'color'
p2178
g46
F0.9438
tp2179
a(S'it'
p2180
g43
F0.98
tp2181
a(S'in'
p2182
g28
F0.7045
tp2183
asI221
(lp2184
(S'we'
p2185
g43
F0.9969
tp2186
a(S'can'
p2187
g46
F0.9998
tp2188
a(S'use'
p2189
g46
F0.9743
tp2190
a(S'construction'
p2191
g21
F0.9655
tp2192
a(S'paper'
p2193
g21
F0.9942
tp2194
asI222
(lp2195
(S'and'
p2196
g89
F0.9976
tp2197
a(S'like'
p2198
g28
F0.522
tp2199
a(S'this'
p2200
g43
F0.8893
tp2201
a(S'you'
p2202
g43
F0.9993
tp2203
a(S'can'
p2204
g46
F0.9994
tp2205
a(S'draw'
p2206
g46
F0.9992
tp2207
a(S'the'
p2208
g3
F0.9995
tp2209
a(S'things'
p2210
g21
F0.9972
tp2211
asI223
(lp2212
(S'and'
p2213
g89
F0.999
tp2214
a(g134
g43
F0.995
tp2215
a(S'can'
p2216
g46
F0.9997
tp2217
a(S'draw'
p2218
g46
F0.9797
tp2219
asI224
(lp2220
(S'no'
p2221
g13
F0.9253
tp2222
asI225
(lp2223
(S'uhoh'
p2224
g13
F0.9916
tp2225
a(g134
g43
F0.9955
tp2226
a(S'got'
p2227
g46
F0.9988
tp2228
asI226
(lp2229
(g1223
g25
F0.6573
tp2230
a(S'you'
p2231
g43
F0.9996
tp2232
a(S'make'
p2233
g46
F0.9917
tp2234
asI227
(lp2235
(S'all'
p2236
g3
F0.9491
tp2237
a(g134
g43
F0.9828
tp2238
a(S'gotta'
p2239
g46
F0.9999
tp2240
a(S'do'
p2241
g46
F0.9943
tp2242
a(S'is'
p2243
g46
F0.992
tp2244
a(S'just'
p2245
g25
F0.9995
tp2246
a(S'cut'
p2247
g46
F0.8087
tp2248
a(S'th'
p2249
g46
F0.257
tp2250
a(S'em'
p2251
g43
F0.9748
tp2252
a(S'out'
p2253
g114
F0.7422
tp2254
asI228
(lp2255
(S'and'
p2256
g89
F0.9987
tp2257
a(S'just'
p2258
g25
F0.9952
tp2259
a(S'glue'
p2260
g46
F0.9193
tp2261
a(S'them'
p2262
g43
F0.9764
tp2263
a(S'on'
p2264
g28
F0.7124
tp2265
asI229
(lp2266
(S'yeah'
p2267
g13
F0.9988
tp2268
asI230
(lp2269
(S'out'
p2270
g28
F0.6142
tp2271
a(S'o'
p2272
g28
F0.7321
tp2273
a(S'f'
p2274
g96
F0.4992
tp2275
a(S'the'
p2276
g3
F0.993
tp2277
a(S'construction'
p2278
g21
F0.9921
tp2279
a(S'paper'
p2280
g21
F0.9959
tp2281
asI231
(lp2282
(S'yeah'
p2283
g13
F0.9988
tp2284
asI232
(lp2285
(S'alright'
p2286
g13
F0.9864
tp2287
asI233
(lp2288
(S'that'
p2289
g43
F0.473
tp2290
a(g45
g46
F0.6118
tp2291
a(g18
g3
F0.9927
tp2292
a(S'good'
p2293
g6
F0.9988
tp2294
a(S'idea'
p2295
g21
F0.9554
tp2296
asI234
(lp2297
(S'that'
p2298
g43
F0.473
tp2299
a(g45
g46
F0.6338
tp2300
a(S'an'
p2301
g3
F0.9836
tp2302
a(S'awful'
p2303
g6
F0.991
tp2304
a(S'noise'
p2305
g21
F0.9958
tp2306
a(S'xxx'
p2307
g9
F0.349
tp2308
a(S'tape'
p2309
g21
F0.9851
tp2310
a(S'recorder'
p2311
g21
F0.9945
tp2312
a(S'xxx'
p2313
g9
F0.7731
tp2314
asI235
(lp2315
(S'xxx'
p2316
g9
F0.8437
tp2317
asI236
(lp2318
(g134
g43
F0.9893
tp2319
a(S'wish'
p2320
g46
F0.9995
tp2321
a(S'that'
p2322
g3
F0.8293
tp2323
a(S'thing'
p2324
g21
F0.9975
tp2325
a(S'would'
p2326
g46
F0.9987
tp2327
a(S'shut'
p2328
g46
F0.9997
tp2329
a(S'up'
p2330
g114
F0.981
tp2331
asI237
(lp2332
(S'uhoh'
p2333
g13
F0.9931
tp2334
asI238
(lp2335
(S'uhoh'
p2336
g13
F0.9931
tp2337
asI239
(lp2338
(S'laughs'
p2339
g46
F0.9102
tp2340
asI240
(lp2341
(S'uhoh'
p2342
g13
F0.9931
tp2343
asI241
(lp2344
(g134
g43
F0.9728
tp2345
a(S'dunno'
p2346
g46
F0.7665
tp2347
a(S'don'
p2348
g31
F0.2743
tp2349
a(g738
g31
F0.604
tp2350
a(S'know'
p2351
g46
F0.9676
tp2352
asI242
(lp2353
(S'uh'
p2354
g13
F0.9877
tp2355
a(S'oh'
p2356
g13
F0.9991
tp2357
asI243
(lp2358
(S'xxx'
p2359
g9
F0.6645
tp2360
a(S'chicken'
p2361
g21
F0.857
tp2362
asI244
(lp2363
(S'pisgettio'
p2364
g31
F0.3164
tp2365
a(S'c'
p2366
g31
F0.383
tp2367
a(S'spaghettio'
p2368
g31
F0.6879
tp2369
asI245
(lp2370
(S'now'
p2371
g25
F0.9797
tp2372
a(S'they'
p2373
g43
F0.9319
tp2374
a(S're'
p2375
g46
F0.5473
tp2376
a(S'gonna'
p2377
g46
F0.9872
tp2378
a(S'hear'
p2379
g46
F0.9987
tp2380
a(S'you'
p2381
g43
F0.9976
tp2382
asI246
(lp2383
(S'uh'
p2384
g13
F0.9877
tp2385
a(S'oh'
p2386
g13
F0.9951
tp2387
a(S'spaghettios'
p2388
g21
F0.79
tp2389
asI247
(lp2390
(S'um'
p2391
g13
F0.8765
tp2392
a(S'xxx'
p2393
g9
F0.4811
tp2394
a(S'gonna'
p2395
g46
F0.9942
tp2396
a(S'hear'
p2397
g46
F0.9981
tp2398
a(S'yours'
p2399
g43
F0.9497
tp2400
asI248
(lp2401
(S'they'
p2402
g43
F0.909
tp2403
a(S're'
p2404
g46
F0.724
tp2405
a(S'not'
p2406
g25
F0.9893
tp2407
asI249
(lp2408
(S'laughs'
p2409
g46
F0.9102
tp2410
asI250
(lp2411
(S'if'
p2412
g28
F0.9975
tp2413
a(S'they'
p2414
g43
F0.9977
tp2415
a(S'can'
p2416
g46
F0.9997
tp2417
a(S'hear'
p2418
g46
F0.9993
tp2419
a(S'it'
p2420
g43
F0.9902
tp2421
a(S'over'
p2422
g28
F0.9444
tp2423
a(S'the'
p2424
g3
F0.9986
tp2425
a(S'squeak'
p2426
g21
F0.9732
tp2427
asI251
(lp2428
(S'what'
p2429
g43
F0.949
tp2430
asI252
(lp2431
(g851
g510
F0.9725
tp2432
a(S'squeaking'
p2433
g46
F0.941
tp2434
a(S'then'
p2435
g25
F0.9723
tp2436
a(S'laughing'
p2437
g46
F0.9127
tp2438
asI253
(lp2439
(S'can'
p2440
g46
F0.999
tp2441
a(S'you'
p2442
g43
F0.9987
tp2443
a(S'hear'
p2444
g46
F0.9994
tp2445
a(S'our'
p2446
g3
F0.9844
tp2447
a(S'talk'
p2448
g21
F0.8619
tp2449
a(S'talk'
p2450
g46
F0.7565
tp2451
a(S'talk'
p2452
g46
F0.8064
tp2453
asI254
(lp2454
(S'mhm'
p2455
g13
F0.9747
tp2456
asI255
(lp2457
(S'right'
p2458
g13
F0.4489
tp2459
a(S'there'
p2460
g25
F0.4509
tp2461
asI256
(lp2462
(S'get'
p2463
g46
F0.997
tp2464
a(g18
g3
F0.9985
tp2465
a(S'seat'
p2466
g21
F0.997
tp2467
a(S'xxx'
p2468
g9
F0.8585
tp2469
asI257
(lp2470
(S'xxx'
p2471
g9
F0.8437
tp2472
asI258
(lp2473
(S'what'
p2474
g43
F0.9931
tp2475
a(S'do'
p2476
g46
F0.9991
tp2477
a(S'you'
p2478
g43
F0.9997
tp2479
a(S'say'
p2480
g46
F0.9924
tp2481
asI259
(lp2482
(S'thank'
p2483
g46
F0.9631
tp2484
a(S'you'
p2485
g43
F0.9987
tp2486
asI260
(lp2487
(S'thank'
p2488
g46
F0.9631
tp2489
a(S'you'
p2490
g43
F0.9987
tp2491
asI261
(lp2492
(S'mom'
p2493
g21
F0.8488
tp2494
a(S'do'
p2495
g46
F0.9945
tp2496
a(g134
g43
F0.9968
tp2497
a(S'have'
p2498
g46
F0.9998
tp2499
a(S'to'
p2500
g28
F0.9975
tp2501
a(S'eat'
p2502
g46
F0.9991
tp2503
a(S'this'
p2504
g3
F0.9797
tp2505
a(S'whole'
p2506
g6
F0.9894
tp2507
a(S'thing'
p2508
g21
F0.9977
tp2509
asI262
(lp2510
(S'that'
p2511
g3
F0.7214
tp2512
a(S'chicken'
p2513
g21
F0.9547
tp2514
asI263
(lp2515
(S'no'
p2516
g13
F0.8024
tp2517
a(S'but'
p2518
g89
F0.9935
tp2519
a(g134
g43
F0.9958
tp2520
a(S'want'
p2521
g46
F1.0
tp2522
a(S'you'
p2523
g43
F0.9989
tp2524
a(S'to'
p2525
g28
F0.989
tp2526
a(S'eat'
p2527
g46
F0.9992
tp2528
a(S'some'
p2529
g3
F0.928
tp2530
a(S'more'
p2531
g6
F0.9707
tp2532
a(S'meat'
p2533
g21
F0.9932
tp2534
asI264
(lp2535
(S'careful'
p2536
g6
F0.7911
tp2537
a(S'there'
p2538
g25
F0.5872
tp2539
a(g45
g96
F0.4856
tp2540
a(S'bones'
p2541
g21
F0.967
tp2542
a(S'in'
p2543
g28
F0.9926
tp2544
a(S'there'
p2545
g25
F0.5783
tp2546
asI265
(lp2547
(S'really'
p2548
g25
F0.9938
tp2549
asI266
(lp2550
(S'yeah'
p2551
g13
F0.9988
tp2552
asI267
(lp2553
(S'but'
p2554
g89
F0.9911
tp2555
a(S'there'
p2556
g25
F0.8359
tp2557
a(S'might'
p2558
g46
F0.9898
tp2559
a(S'be'
p2560
g46
F0.999
tp2561
a(S'little'
p2562
g6
F0.9911
tp2563
a(S'ones'
p2564
g21
F0.9751
tp2565
asI268
(lp2566
(S'is'
p2567
g46
F0.9955
tp2568
a(S'there'
p2569
S'X'
p2570
F0.9284
tp2571
a(g18
g3
F0.9987
tp2572
a(S'little'
p2573
g6
F0.9988
tp2574
a(S'one'
p2575
g510
F0.9734
tp2576
a(S'in'
p2577
g28
F0.9935
tp2578
a(S'there'
p2579
g25
F0.5807
tp2580
asI269
(lp2581
(S'is'
p2582
g46
F0.9954
tp2583
a(S'there'
p2584
g25
F0.4654
tp2585
asI270
(lp2586
(g134
g43
F0.989
tp2587
a(S'told'
p2588
g46
F1.0
tp2589
a(S'you'
p2590
g43
F0.9959
tp2591
a(S'you'
p2592
g43
F0.9937
tp2593
a(S'have'
p2594
g46
F0.9995
tp2595
a(S'to'
p2596
g28
F0.9947
tp2597
a(S'be'
p2598
g46
F0.999
tp2599
a(S'careful'
p2600
g6
F0.9243
tp2601
asI271
(lp2602
(S'why'
p2603
g25
F0.9322
tp2604
a(S'does'
p2605
g46
F0.9966
tp2606
a(S'he'
p2607
g43
F0.9981
tp2608
a(S'xxx'
p2609
g9
F0.6065
tp2610
asI272
(lp2611
(S'there'
p2612
g2570
F0.4664
tp2613
a(g45
g96
F0.4305
tp2614
a(S'little'
p2615
g6
F0.9946
tp2616
a(S'bones'
p2617
g21
F0.9977
tp2618
a(S'in'
p2619
g28
F0.9926
tp2620
a(S'there'
p2621
g25
F0.5783
tp2622
asI273
(lp2623
(g134
g43
F0.988
tp2624
a(S'am'
p2625
g46
F0.9871
tp2626
a(S'careful'
p2627
g6
F0.9889
tp2628
asI274
(lp2629
(S'yeah'
p2630
g13
F0.9988
tp2631
asI275
(lp2632
(g134
g43
F0.9887
tp2633
a(S'cooked'
p2634
g46
F1.0
tp2635
a(S'the'
p2636
g3
F0.9991
tp2637
a(S'chicken'
p2638
g21
F0.9626
tp2639
a(S'too'
p2640
g25
F0.9966
tp2641
a(S'much'
p2642
g6
F0.7698
tp2643
a(S'it'
p2644
g43
F0.9784
tp2645
a(S'xxx'
p2646
g9
F0.6266
tp2647
asI276
(lp2648
(S'it'
p2649
g43
F0.9888
tp2650
a(g45
g46
F0.6023
tp2651
a(S'fallin'
p2652
g46
F0.8308
tp2653
a(g77
g46
F0.6102
tp2654
a(S'off'
p2655
g114
F0.628
tp2656
a(S'the'
p2657
g3
F0.9997
tp2658
a(S'bones'
p2659
g21
F0.9912
tp2660
asI277
(lp2661
(S'the'
p2662
g3
F0.9985
tp2663
a(S'bones'
p2664
g21
F0.9906
tp2665
a(S'are'
p2666
g46
F0.9831
tp2667
a(S'fallin'
p2668
g46
F0.5426
tp2669
a(g77
g46
F0.697
tp2670
a(S'off'
p2671
g114
F0.7754
tp2672
asI278
(lp2673
(S'the'
p2674
g3
F0.9981
tp2675
a(S'meat'
p2676
g21
F0.9465
tp2677
a(g45
g96
F0.7909
tp2678
a(S'fallin'
p2679
g46
F0.7198
tp2680
a(g77
g46
F0.6016
tp2681
a(S'off'
p2682
g28
F0.499
tp2683
a(S'the'
p2684
g3
F0.9998
tp2685
a(S'bones'
p2686
g21
F0.9914
tp2687
asI279
(lp2688
(S'oh'
p2689
g13
F0.9936
tp2690
a(S'look'
p2691
g46
F0.884
tp2692
a(S'at'
p2693
g28
F0.9935
tp2694
a(S'that'
p2695
g43
F0.7507
tp2696
asI280
(lp2697
(g134
g43
F0.9873
tp2698
a(S'can'
p2699
g46
F0.9999
tp2700
a(S'see'
p2701
g46
F0.9958
tp2702
a(S'xxx'
p2703
g9
F0.4113
tp2704
a(S'that'
p2705
g43
F0.6792
tp2706
asI281
(lp2707
(S'oh'
p2708
g13
F0.9988
tp2709
asI282
(lp2710
(S'can'
p2711
g46
F0.999
tp2712
a(S'you'
p2713
g43
F0.9987
tp2714
a(S'eat'
p2715
g46
F0.9995
tp2716
a(S'over'
p2717
g28
F0.9468
tp2718
a(S'the'
p2719
g3
F0.9993
tp2720
a(S'plate'
p2721
g21
F0.9941
tp2722
a(S'please'
p2723
g46
F0.9636
tp2724
asI283
(lp2725
(S'what'
p2726
g43
F0.9739
tp2727
a(g45
g96
F0.4807
tp2728
a(S'tomorrow'
p2729
g21
F0.9684
tp2730
asI284
(lp2731
(S'tomorrow'
p2732
g21
F0.9398
tp2733
asI285
(lp2734
(S'dinosaur'
p2735
g21
F0.9567
tp2736
a(S'day'
p2737
g21
F0.9894
tp2738
asI286
(lp2739
(S'look'
p2740
g46
F0.8259
tp2741
a(S'xxx'
p2742
g9
F0.7194
tp2743
asI287
(lp2744
(S'hm'
p2745
g13
F0.995
tp2746
asI288
(lp2747
(S'mm'
p2748
g13
F0.627
tp2749
asI289
(lp2750
(S'mm'
p2751
g13
F0.627
tp2752
asI290
(lp2753
(S'what'
p2754
g43
F0.9923
tp2755
a(S'was'
p2756
g46
F0.9927
tp2757
a(S'today'
p2758
g21
F0.9397
tp2759
a(g45
g96
F0.7586
tp2760
a(S'date'
p2761
g21
F0.8739
tp2762
asI291
(lp2763
(S'um'
p2764
g13
F0.9357
tp2765
a(S'xxx'
p2766
g9
F0.751
tp2767
asI292
(lp2768
(S'tuesday'
p2769
g31
F0.9084
tp2770
asI293
(lp2771
(S'tuesday'
p2772
g31
F0.9473
tp2773
a(g1699
g96
F0.401
tp2774
a(S'what'
p2775
g43
F0.9814
tp2776
asI294
(lp2777
(S'tuesday'
p2778
g31
F0.8718
tp2779
a(S'the'
p2780
g3
F0.9987
tp2781
a(S'nineteenth'
p2782
g6
F0.7166
tp2783
asI295
(lp2784
(S'tuesday'
p2785
g31
F0.9861
tp2786
a(S'november'
p2787
g31
F0.9684
tp2788
a(S'eigh'
p2789
g31
F0.4105
tp2790
a(S'xxx'
p2791
g9
F0.4039
tp2792
a(S'nineteenth'
p2793
g6
F0.8766
tp2794
asI296
(lp2795
(S'oh'
p2796
g13
F0.9988
tp2797
asI297
(lp2798
(S'nineteen'
p2799
g510
F0.5512
tp2800
asI298
(lp2801
(S'comma'
p2802
g21
F0.9424
tp2803
asI299
(lp2804
(S'xxx'
p2805
g9
F0.6195
tp2806
a(S'day'
p2807
g21
F0.9604
tp2808
asI300
(lp2809
(S'come'
p2810
g46
F0.9849
tp2811
a(S'on'
p2812
g28
F0.7375
tp2813
a(S'xxx'
p2814
g9
F0.4873
tp2815
asI301
(lp2816
(S'nineteen'
p2817
g510
F0.7517
tp2818
a(S'ninety'
p2819
g6
F0.6166
tp2820
a(S'one'
p2821
g510
F0.7467
tp2822
asI302
(lp2823
(S'grunting'
p2824
g46
F0.9889
tp2825
asI303
(lp2826
(S'that'
p2827
g43
F0.4727
tp2828
a(g45
g46
F0.3914
tp2829
a(S'lucky'
p2830
g6
F0.9947
tp2831
asI304
(lp2832
(S'mm'
p2833
g13
F0.627
tp2834
asI305
(lp2835
(S'and'
p2836
g89
F0.9982
tp2837
a(S'that'
p2838
g43
F0.8058
tp2839
a(g45
g96
F0.7819
tp2840
a(S'xxx'
p2841
g9
F0.6136
tp2842
asI306
(lp2843
(S'oh'
p2844
g13
F0.9983
tp2845
a(g134
g43
F0.9908
tp2846
a(S'feel'
p2847
g46
F0.999
tp2848
asI307
(lp2849
(S'you'
p2850
g43
F0.9931
tp2851
a(S'overcooked'
p2852
g46
F0.9986
tp2853
a(S'it'
p2854
g43
F0.9946
tp2855
asI308
(lp2856
(S'look'
p2857
g46
F0.88
tp2858
a(S'at'
p2859
g28
F0.9992
tp2860
a(S'this'
p2861
g43
F0.5704
tp2862
asI309
(lp2863
(S'sorry'
p2864
g13
F0.541
tp2865
asI310
(lp2866
(S'that'
p2867
g43
F0.4727
tp2868
a(g45
g96
F0.636
tp2869
a(S'okay'
p2870
g13
F0.8596
tp2871
asI311
(lp2872
(S'xxx'
p2873
g9
F0.8252
tp2874
a(S'xxx'
p2875
g9
F0.8915
tp2876
a(S'saying'
p2877
g46
F0.9996
tp2878
a(S'it'
p2879
g43
F0.9836
tp2880
asI312
(lp2881
(S'xxx'
p2882
g9
F0.8308
tp2883
a(S'what'
p2884
g43
F0.9717
tp2885
asI313
(lp2886
(S'no'
p2887
g13
F0.8234
tp2888
a(S'xxx'
p2889
g9
F0.519
tp2890
asI314
(lp2891
(S'xxx'
p2892
g9
F0.8437
tp2893
asI315
(lp2894
(g134
g43
F0.9586
tp2895
a(g719
g46
F0.9744
tp2896
a(S'full'
p2897
g6
F0.9542
tp2898
asI316
(lp2899
(S'xxx'
p2900
g9
F0.8437
tp2901
asI317
(lp2902
(S'nope'
p2903
g13
F0.9614
tp2904
a(S'it'
p2905
g43
F0.9933
tp2906
a(g45
g46
F0.595
tp2907
a(S'not'
p2908
g25
F0.9902
tp2909
a(g18
g3
F0.9887
tp2910
a(S'washcloth'
p2911
g21
F0.9689
tp2912
asI318
(lp2913
(S'xxx'
p2914
g9
F0.8437
tp2915
asI319
(lp2916
(S'you'
p2917
g43
F0.998
tp2918
a(S'want'
p2919
g46
F0.9999
tp2920
a(S'the'
p2921
g3
F0.9997
tp2922
a(S'other'
p2923
g6
F0.9875
tp2924
a(S'half'
p2925
g21
F0.7557
tp2926
a(S'of'
p2927
g28
F0.9987
tp2928
a(S'it'
p2929
g43
F0.9964
tp2930
asI320
(lp2931
(S'let'
p2932
g46
F0.936
tp2933
a(S'go'
p2934
g46
F0.973
tp2935
a(S'for'
p2936
g28
F0.9971
tp2937
a(g18
g3
F0.9965
tp2938
a(S'minute'
p2939
g21
F0.9525
tp2940
asI321
(lp2941
(S'yeah'
p2942
g13
F0.9983
tp2943
a(S'that'
p2944
g43
F0.6675
tp2945
a(g45
g46
F0.5498
tp2946
a(S'the'
p2947
g3
F0.9994
tp2948
a(S'other'
p2949
g6
F0.9852
tp2950
a(S'half'
p2951
g21
F0.7739
tp2952
a(S'of'
p2953
g28
F0.9979
tp2954
a(g18
g3
F0.9974
tp2955
a(S'dish'
p2956
g21
F0.9906
tp2957
a(S'towel'
p2958
g21
F0.9868
tp2959
asI322
(lp2960
(S'wonder'
p2961
g46
F0.9086
tp2962
a(S'if'
p2963
g28
F0.9926
tp2964
a(g134
g43
F0.997
tp2965
a(S'have'
p2966
g46
F1.0
tp2967
a(S'all'
p2968
g3
F0.6664
tp2969
a(S'those'
p2970
g3
F0.9753
tp2971
a(S'stuff'
p2972
g21
F0.996
tp2973
asI323
(lp2974
(S'too'
p2975
g25
F0.9954
tp2976
a(S'proud'
p2977
g6
F0.9983
tp2978
a(S'to'
p2979
g28
F0.9973
tp2980
a(S'help'
p2981
g46
F0.9944
tp2982
a(S'dry'
p2983
g6
F0.758
tp2984
a(S'these'
p2985
g3
F0.769
tp2986
asI324
(lp2987
(S'know'
p2988
g46
F0.9631
tp2989
a(S'what'
p2990
g43
F0.985
tp2991
a(g134
g43
F0.9904
tp2992
a(S'just'
p2993
g25
F0.9996
tp2994
a(S'xxx'
p2995
g46
F0.8579
tp2996
a(S'it'
p2997
g43
F0.9912
tp2998
asI325
(lp2999
(g18
g3
F0.917
tp3000
a(S'xxx'
p3001
g21
F0.4025
tp3002
asI326
(lp3003
(S'no'
p3004
g13
F0.9253
tp3005
asI327
(lp3006
(S'that'
p3007
g43
F0.7306
tp3008
a(S'could'
p3009
g46
F0.9989
tp3010
a(S'be'
p3011
g46
F0.9986
tp3012
a(S'smaller'
p3013
g6
F0.9644
tp3014
asI328
(lp3015
(S'xxx'
p3016
g9
F0.6042
tp3017
a(S'that'
p3018
g3
F0.6198
tp3019
a(S'piece'
p3020
g21
F0.9931
tp3021
a(S'xxx'
p3022
g9
F0.8267
tp3023
asI329
(lp3024
(S'probably'
p3025
g25
F0.9961
tp3026
a(S'that'
p3027
g28
F0.6233
tp3028
a(g45
g96
F0.813
tp3029
a(S'xxx'
p3030
g9
F0.6136
tp3031
asI330
(lp3032
(S'don'
p3033
g31
F0.4468
tp3034
a(g738
g96
F0.4162
tp3035
asI331
(lp3036
(S'xxx'
p3037
g9
F0.6706
tp3038
a(S'don'
p3039
g21
F0.2432
tp3040
a(g738
g96
F0.439
tp3041
asI332
(lp3042
(S'ready'
p3043
g6
F0.9938
tp3044
a(S'mom'
p3045
g21
F0.964
tp3046
asI333
(lp3047
(S'ready'
p3048
g6
F0.9553
tp3049
asI334
(lp3050
(S'it'
p3051
g43
F0.9888
tp3052
a(g45
g46
F0.3625
tp3053
a(S'honey'
p3054
g21
F0.7729
tp3055
a(S'you'
p3056
g43
F0.9954
tp3057
a(S'can'
p3058
g46
F0.9993
tp3059
a(g738
g46
F0.8457
tp3060
a(S'do'
p3061
g46
F0.9991
tp3062
a(S'it'
p3063
g43
F0.9959
tp3064
a(S'like'
p3065
g28
F0.5854
tp3066
a(S'that'
p3067
g43
F0.8841
tp3068
asI335
(lp3069
(S'here'
p3070
g25
F0.884
tp3071
a(S'buddy'
p3072
g21
F0.8509
tp3073
a(S'you'
p3074
g43
F0.9683
tp3075
a(S're'
p3076
g46
F0.8986
tp3077
a(S'all'
p3078
g3
F0.7337
tp3079
a(S'done'
p3080
g46
F0.5911
tp3081
asI336
(lp3082
(S'xxx'
p3083
g9
F0.5672
tp3084
a(S'for'
p3085
g28
F0.9994
tp3086
a(S'me'
p3087
g43
F0.999
tp3088
asI337
(lp3089
(S'anybody'
p3090
g21
F0.9354
tp3091
a(S'want'
p3092
g46
F0.9988
tp3093
a(S'any'
p3094
g3
F0.9206
tp3095
a(S'more'
p3096
g6
F0.943
tp3097
a(S'corn'
p3098
g21
F0.9981
tp3099
asI338
(lp3100
(S'me'
p3101
g43
F0.9876
tp3102
a(S'mm'
p3103
g13
F0.4406
tp3104
asI339
(lp3105
(S'yeah'
p3106
g13
F0.9988
tp3107
asI340
(lp3108
(S'mm'
p3109
g13
F0.627
tp3110
asI341
(lp3111
(S'mhm'
p3112
g13
F0.9451
tp3113
a(S'mm'
p3114
g13
F0.6961
tp3115
asI342
(lp3116
(S'okay'
p3117
g13
F0.9857
tp3118
asI343
(lp3119
(S'mm'
p3120
g13
F0.627
tp3121
asI344
(lp3122
(g134
g43
F0.9802
tp3123
a(S'll'
p3124
g46
F0.7295
tp3125
a(S'have'
p3126
g46
F0.9959
tp3127
asI345
(lp3128
(S'yeah'
p3129
g13
F0.9988
tp3130
asI346
(lp3131
(S'xxx'
p3132
g9
F0.8437
tp3133
asI347
(lp3134
(S'and'
p3135
g89
F0.999
tp3136
a(g134
g43
F0.9899
tp3137
a(S'll'
p3138
g46
F0.7597
tp3139
a(S'have'
p3140
g46
F0.9987
tp3141
a(S'some'
p3142
g3
F0.9266
tp3143
asI348
(lp3144
(S'are'
p3145
g46
F0.9964
tp3146
a(S'you'
p3147
g43
F0.9984
tp3148
a(S'sure'
p3149
g6
F0.5405
tp3150
a(S'you'
p3151
g43
F0.9985
tp3152
a(S'want'
p3153
g46
F1.0
tp3154
a(S'the'
p3155
g3
F0.9993
tp3156
a(S'rest'
p3157
g21
F0.987
tp3158
asI349
(lp3159
(S'hm'
p3160
g13
F0.995
tp3161
asI350
(lp3162
(S'hm'
p3163
g13
F0.9917
tp3164
a(S'hm'
p3165
g13
F0.9947
tp3166
a(S'hm'
p3167
g13
F0.9936
tp3168
asI351
(lp3169
(S'you'
p3170
g43
F0.998
tp3171
a(S'want'
p3172
g46
F0.9999
tp3173
a(S'the'
p3174
g3
F0.9994
tp3175
a(S'rest'
p3176
g21
F0.9926
tp3177
asI352
(lp3178
(S'xxx'
p3179
g9
F0.8402
tp3180
a(S'what'
p3181
g43
F0.9484
tp3182
a(S'you'
p3183
g43
F0.9997
tp3184
a(S'want'
p3185
g46
F0.9982
tp3186
asI353
(lp3187
(S'oh'
p3188
g13
F0.9984
tp3189
a(S'thank'
p3190
g46
F0.9629
tp3191
a(S'you'
p3192
g43
F0.999
tp3193
asI354
(lp3194
(S'xxx'
p3195
g9
F0.8437
tp3196
asI355
(lp3197
(S'out'
p3198
g28
F0.8043
tp3199
a(S'of'
p3200
g28
F0.9818
tp3201
a(S'olives'
p3202
g21
F0.9806
tp3203
asI356
(lp3204
(S'sighs'
p3205
g46
F0.7567
tp3206
asI357
(lp3207
(S'xxx'
p3208
g9
F0.7374
tp3209
a(S'too'
p3210
g25
F0.924
tp3211
asI358
(lp3212
(S'xxx'
p3213
g9
F0.8325
tp3214
a(S'xxx'
p3215
g9
F0.9813
tp3216
asI359
(lp3217
(S'xxx'
p3218
g9
F0.8437
tp3219
asI360
(lp3220
(g134
g43
F0.9635
tp3221
a(S'don'
p3222
g46
F0.9231
tp3223
a(g738
g21
F0.2457
tp3224
a(S'know'
p3225
g46
F0.997
tp3226
a(S'if'
p3227
g28
F0.9988
tp3228
a(S'the'
p3229
g3
F0.9977
tp3230
a(S'butter'
p3231
g21
F0.964
tp3232
a(g45
g96
F0.8462
tp3233
a(S'gonna'
p3234
g46
F0.9937
tp3235
a(S'melt'
p3236
g46
F0.9794
tp3237
asI361
(lp3238
(S'the'
p3239
g3
F0.9982
tp3240
a(S'corn'
p3241
g21
F0.9971
tp3242
a(S'xxx'
p3243
g9
F0.6523
tp3244
asI362
(lp3245
(S'too'
p3246
g25
F0.9985
tp3247
a(S'much'
p3248
g6
F0.9802
tp3249
a(S'butter'
p3250
g21
F0.9981
tp3251
asI363
(lp3252
(S'the'
p3253
g3
F0.9981
tp3254
a(S'butter'
p3255
g21
F0.9617
tp3256
a(g45
g96
F0.8573
tp3257
a(S'cold'
p3258
g6
F0.994
tp3259
a(S'xxx'
p3260
g9
F0.7378
tp3261
asI364
(lp3262
(g134
g43
F0.9912
tp3263
a(S'know'
p3264
g46
F0.9989
tp3265
asI365
(lp3266
(S'the'
p3267
g3
F0.9981
tp3268
a(S'butter'
p3269
g21
F0.9617
tp3270
a(g45
g96
F0.8489
tp3271
a(S'always'
p3272
g25
F0.9989
tp3273
a(S'cold'
p3274
g6
F0.997
tp3275
a(S'sis'
p3276
g21
F0.9932
tp3277
a(S'laughing'
p3278
g46
F0.963
tp3279
asI366
(lp3280
(S'the'
p3281
g3
F0.9981
tp3282
a(S'corn'
p3283
g21
F0.9969
tp3284
a(S'is'
p3285
g46
F0.9958
tp3286
a(S'cold'
p3287
g6
F0.9862
tp3288
a(S'now'
p3289
g25
F0.9901
tp3290
asI367
(lp3291
(S'will'
p3292
g46
F0.9886
tp3293
a(S'we'
p3294
g43
F0.9945
tp3295
a(S'have'
p3296
g46
F0.9997
tp3297
a(S'to'
p3298
g28
F0.996
tp3299
a(S'break'
p3300
g46
F0.9998
tp3301
a(S'it'
p3302
g43
F0.9937
tp3303
a(S'up'
p3304
g114
F0.9771
tp3305
asI368
(lp3306
(S'mm'
p3307
g13
F0.5247
tp3308
a(S'that'
p3309
g43
F0.5149
tp3310
a(g45
g46
F0.7913
tp3311
a(S'all'
p3312
g2570
F0.6446
tp3313
a(S'the'
p3314
g3
F0.9999
tp3315
a(S'stuff'
p3316
g21
F0.9984
tp3317
a(S'in'
p3318
g28
F0.9992
tp3319
a(S'the'
p3320
g3
F0.9834
tp3321
a(S'the'
p3322
g3
F0.8237
tp3323
a(S'xxx'
p3324
g9
F0.3885
tp3325
asI369
(lp3326
(S'you'
p3327
g43
F0.963
tp3328
a(S're'
p3329
g46
F0.7663
tp3330
a(S'done'
p3331
g46
F0.9314
tp3332
asI370
(lp3333
(S'please'
p3334
g46
F0.8246
tp3335
asI371
(lp3336
(S'please'
p3337
g46
F0.8246
tp3338
asI372
(lp3339
(g134
g43
F0.9802
tp3340
a(S'll'
p3341
g46
F0.6582
tp3342
a(S'xxx'
p3343
g9
F0.6631
tp3344
asI373
(lp3345
(S'please'
p3346
g46
F0.9425
tp3347
a(S'may'
p3348
g46
F0.9047
tp3349
a(g134
g43
F0.9895
tp3350
a(S'have'
p3351
g46
F0.9999
tp3352
a(S'some'
p3353
g3
F0.9748
tp3354
a(S'more'
p3355
g6
F0.9664
tp3356
a(S'cranberry'
p3357
g21
F0.4835
tp3358
a(S'sauce'
p3359
g21
F0.9983
tp3360
asI374
(lp3361
(S'mm'
p3362
g13
F0.627
tp3363
asI375
(lp3364
(S'sure'
p3365
g6
F0.8345
tp3366
asI376
(lp3367
(S'thank'
p3368
g46
F0.9631
tp3369
a(S'you'
p3370
g43
F0.9987
tp3371
asI377
(lp3372
(S'thank'
p3373
g46
F0.9631
tp3374
a(S'you'
p3375
g43
F0.999
tp3376
a(S'xxx'
p3377
g9
F0.412
tp3378
asI378
(lp3379
(S'thank'
p3380
g46
F0.9631
tp3381
a(S'you'
p3382
g43
F0.9994
tp3383
a(S'laughs'
p3384
g46
F0.9967
tp3385
asI379
(lp3386
(S'thank'
p3387
g46
F0.9661
tp3388
a(S'you'
p3389
g43
F0.9993
tp3390
a(S'for'
p3391
g28
F0.9974
tp3392
a(S'it'
p3393
g43
F0.9976
tp3394
asI380
(lp3395
(S'xxx'
p3396
g9
F0.4267
tp3397
a(S'you'
p3398
g43
F0.9815
tp3399
a(S're'
p3400
g46
F0.567
tp3401
a(S'welcome'
p3402
g6
F0.3658
tp3403
asI381
(lp3404
(S'www'
p3405
g31
F0.6936
tp3406
a(S'laughs'
p3407
g46
F0.8127
tp3408
a(S'look'
p3409
g46
F0.8879
tp3410
a(S'at'
p3411
g28
F0.9987
tp3412
a(S'all'
p3413
g3
F0.833
tp3414
a(S'this'
p3415
g3
F0.5864
tp3416
asI382
(lp3417
(S'oh'
p3418
g13
F0.9966
tp3419
a(S'screams'
p3420
g46
F0.796
tp3421
asI383
(lp3422
(S'oh'
p3423
g13
F0.9988
tp3424
asI384
(lp3425
(S'xxx'
p3426
g9
F0.6465
tp3427
a(g18
g3
F0.9928
tp3428
a(S'little'
p3429
g6
F0.9775
tp3430
a(S'xxx'
p3431
g9
F0.4658
tp3432
a(S'too'
p3433
g25
F0.999
tp3434
a(S'much'
p3435
g6
F0.7731
tp3436
asI385
(lp3437
(S'you'
p3438
g43
F0.9946
tp3439
a(S'laughs'
p3440
g46
F0.9971
tp3441
a(S'xxx'
p3442
g9
F0.6548
tp3443
asI386
(lp3444
(S'why'
p3445
g25
F0.8805
tp3446
a(S'did'
p3447
g46
F0.9987
tp3448
a(S'you'
p3449
g43
F0.9988
tp3450
a(S'give'
p3451
g46
F0.9999
tp3452
a(S'me'
p3453
g43
F0.997
tp3454
a(S'all'
p3455
g25
F0.372
tp3456
a(S'that'
p3457
g3
F0.4621
tp3458
asI387
(lp3459
(S'xxx'
p3460
g9
F0.8437
tp3461
asI388
(lp3462
(S'why'
p3463
g25
F0.9447
tp3464
a(S'eat'
p3465
g46
F0.9193
tp3466
asI389
(lp3467
(S'be'
p3468
g46
F0.9727
tp3469
a(S'cause'
p3470
g28
F0.7105
tp3471
a(g134
g43
F0.996
tp3472
a(S'know'
p3473
g46
F0.9997
tp3474
a(S'he'
p3475
g43
F0.9956
tp3476
a(S'll'
p3477
g46
F0.5539
tp3478
a(S'eat'
p3479
g46
F0.9987
tp3480
a(S'it'
p3481
g43
F0.9828
tp3482
a(S'all'
p3483
g3
F0.8356
tp3484
asI390
(lp3485
(S'alright'
p3486
g13
F0.9807
tp3487
a(S'that'
p3488
g43
F0.5804
tp3489
a(g45
g46
F0.4491
tp3490
a(S'not'
p3491
g25
F0.9966
tp3492
a(S'too'
p3493
g25
F0.9971
tp3494
a(S'many'
p3495
g6
F0.9914
tp3496
a(S'dishes'
p3497
g21
F0.9976
tp3498
a(S'tonight'
p3499
g25
F0.6793
tp3500
asI391
(lp3501
(S'what'
p3502
g43
F0.9338
tp3503
a(g134
g43
F0.9865
tp3504
a(S'like'
p3505
g46
F0.8723
tp3506
asI392
(lp3507
(S'we'
p3508
g43
F0.9973
tp3509
a(S'have'
p3510
g46
F0.9975
tp3511
a(S'salt'
p3512
g21
F0.9108
tp3513
a(S'shakers'
p3514
g21
F0.9683
tp3515
asI393
(lp3516
(S'full'
p3517
g6
F0.8636
tp3518
asI394
(lp3519
(S'he'
p3520
g43
F0.9905
tp3521
a(g45
g46
F0.7942
tp3522
a(S'peein'
p3523
g46
F0.8798
tp3524
a(g77
g96
F0.4431
tp3525
asI395
(lp3526
(S'xxx'
p3527
g9
F0.8437
tp3528
asI396
(lp3529
(S'oh'
p3530
g13
F0.9988
tp3531
asI397
(lp3532
(S'mm'
p3533
g13
F0.627
tp3534
asI398
(lp3535
(S'it'
p3536
g43
F0.9858
tp3537
a(g45
g46
F0.6905
tp3538
a(S'taping'
p3539
g46
F0.9353
tp3540
asI399
(lp3541
(S'hm'
p3542
g13
F0.995
tp3543
asI400
(lp3544
(S'it'
p3545
g43
F0.9888
tp3546
a(g45
g46
F0.6866
tp3547
a(S'tapin'
p3548
g46
F0.6708
tp3549
a(g77
g46
F0.6957
tp3550
a(S'up'
p3551
g114
F0.9226
tp3552
a(S'all'
p3553
g3
F0.6391
tp3554
a(S'our'
p3555
g3
F0.9974
tp3556
a(S'words'
p3557
g21
F0.9867
tp3558
a(S'that'
p3559
g28
F0.9857
tp3560
a(S'we'
p3561
g43
F0.9951
tp3562
a(S're'
p3563
g46
F0.6034
tp3564
a(S'sayin'
p3565
g46
F0.9424
tp3566
a(g77
g96
F0.4082
tp3567
asI401
(lp3568
(S'laughs'
p3569
g46
F0.9102
tp3570
asI402
(lp3571
(S'sis'
p3572
g21
F0.6134
tp3573
a(S'you'
p3574
g43
F0.9884
tp3575
a(S'don'
p3576
g46
F0.8576
tp3577
a(g738
g21
F0.2122
tp3578
a(S'have'
p3579
g46
F0.9978
tp3580
a(S'to'
p3581
g28
F0.9975
tp3582
a(S'speak'
p3583
g46
F0.9993
tp3584
a(S'like'
p3585
g28
F0.8797
tp3586
a(S'that'
p3587
g43
F0.9116
tp3588
a(S'to'
p3589
g28
F0.9852
tp3590
a(S'them'
p3591
g43
F0.9533
tp3592
asI403
(lp3593
(S'laughs'
p3594
g46
F0.9102
tp3595
asI404
(lp3596
(S'she'
p3597
g43
F0.9917
tp3598
a(g45
g46
F0.6336
tp3599
a(S'laughing'
p3600
g46
F0.9903
tp3601
a(S'in'
p3602
g28
F0.9832
tp3603
a(S'the'
p3604
g3
F0.9993
tp3605
a(S'tape'
p3606
g21
F0.9951
tp3607
a(S'recorder'
p3608
g21
F0.9951
tp3609
asI405
(lp3610
(S'sis'
p3611
g21
F0.8919
tp3612
a(S'come'
p3613
g46
F0.9896
tp3614
a(S'on'
p3615
g28
F0.5942
tp3616
a(S'xxx'
p3617
g9
F0.6055
tp3618
asI406
(lp3619
(S'xxx'
p3620
g9
F0.8437
tp3621
asI407
(lp3622
(S'xxx'
p3623
g9
F0.615
tp3624
a(S'do'
p3625
g46
F0.9973
tp3626
a(S'that'
p3627
g43
F0.892
tp3628
asI408
(lp3629
(S'xxx'
p3630
g9
F0.6863
tp3631
a(S'stop'
p3632
g46
F0.8607
tp3633
asI409
(lp3634
(S'xxx'
p3635
g9
F0.6791
tp3636
a(S'put'
p3637
g46
F0.9793
tp3638
a(S'that'
p3639
g43
F0.7659
tp3640
a(S'into'
p3641
g28
F0.9989
tp3642
a(S'the'
p3643
g3
F0.9994
tp3644
a(S'tape'
p3645
g21
F0.9951
tp3646
a(S'recorder'
p3647
g21
F0.9951
tp3648
asI410
(lp3649
(g134
g43
F0.9912
tp3650
a(S'know'
p3651
g46
F0.9984
tp3652
a(S'oops'
p3653
g13
F0.9553
tp3654
asI411
(lp3655
(S'oh'
p3656
g13
F0.9949
tp3657
a(S'careful'
p3658
g6
F0.9166
tp3659
asI412
(lp3660
(S'careful'
p3661
g6
F0.786
tp3662
asI413
(lp3663
(S'okay'
p3664
g13
F0.8881
tp3665
a(S'it'
p3666
g43
F0.994
tp3667
a(g45
g46
F0.6746
tp3668
a(S'going'
p3669
g46
F0.9973
tp3670
a(S'to'
p3671
g28
F0.9523
tp3672
a(S'be'
p3673
g46
F0.9993
tp3674
a(S'hot'
p3675
g6
F0.9848
tp3676
asI414
(lp3677
(S'oh'
p3678
g13
F0.9988
tp3679
asI415
(lp3680
(S'please'
p3681
g46
F0.9412
tp3682
a(S'tape'
p3683
g21
F0.937
tp3684
a(S'chi'
p3685
g96
F0.4428
tp3686
asI416
(lp3687
(S'every'
p3688
g3
F0.9776
tp3689
a(S'word'
p3690
g21
F0.9735
tp3691
a(S'he'
p3692
g43
F0.9939
tp3693
a(S'says'
p3694
g46
F0.999
tp3695
asI417
(lp3696
(S'and'
p3697
g89
F0.9985
tp3698
a(S'tape'
p3699
g21
F0.6248
tp3700
a(S'it'
p3701
g43
F0.9596
tp3702
a(S'into'
p3703
g28
F0.9956
tp3704
a(S'that'
p3705
g3
F0.9005
tp3706
a(S'tape'
p3707
g21
F0.9961
tp3708
a(S'recorder'
p3709
g21
F0.9951
tp3710
asI418
(lp3711
(S'you'
p3712
g43
F0.9968
tp3713
a(S'gotta'
p3714
g46
F0.9996
tp3715
a(S'say'
p3716
g46
F0.9933
tp3717
a(S'more'
p3718
g6
F0.9504
tp3719
a(S'words'
p3720
g21
F0.9929
tp3721
a(S'into'
p3722
g28
F0.9999
tp3723
a(S'the'
p3724
g3
F0.9994
tp3725
a(S'tape'
p3726
g21
F0.9957
tp3727
a(S'recorder'
p3728
g21
F0.9955
tp3729
asI419
(lp3730
(S'uhoh'
p3731
g13
F0.9799
tp3732
a(S'they'
p3733
g43
F0.9654
tp3734
a(S're'
p3735
g46
F0.8175
tp3736
a(S'tapin'
p3737
g46
F0.4651
tp3738
a(g77
g46
F0.784
tp3739
a(S'me'
p3740
g43
F0.9988
tp3741
asI420
(lp3742
(S'come'
p3743
g46
F0.9897
tp3744
a(S'on'
p3745
g28
F0.8787
tp3746
a(S'youse'
p3747
g43
F0.8416
tp3748
a(S'you'
p3749
g43
F0.9694
tp3750
a(S'two'
p3751
g510
F0.7216
tp3752
asI421
(lp3753
(S'www'
p3754
g31
F0.5889
tp3755
a(S'gasps'
p3756
g46
F0.5957
tp3757
a(S'no'
p3758
g3
F0.481
tp3759
asI422
(lp3760
(S'are'
p3761
g46
F0.987
tp3762
a(S'we'
p3763
g43
F0.9992
tp3764
a(S'gonna'
p3765
g46
F0.9997
tp3766
a(S'die'
p3767
g46
F0.9928
tp3768
asI423
(lp3769
(S'are'
p3770
g46
F0.987
tp3771
a(S'we'
p3772
g43
F0.9992
tp3773
a(S'gonna'
p3774
g46
F0.9997
tp3775
a(S'die'
p3776
g46
F0.9928
tp3777
asI424
(lp3778
(S'ouch'
p3779
g13
F0.9864
tp3780
a(S'laughs'
p3781
g46
F0.9251
tp3782
asI425
(lp3783
(S'laughs'
p3784
g46
F0.9102
tp3785
asI426
(lp3786
(S'laughs'
p3787
g46
F0.9102
tp3788
asI427
(lp3789
(S'you'
p3790
g43
F0.998
tp3791
a(S'want'
p3792
g46
F0.9978
tp3793
a(S'one'
p3794
g510
F0.8803
tp3795
a(S'too'
p3796
g25
F0.9137
tp3797
asI428
(lp3798
(S'why'
p3799
g25
F0.8805
tp3800
a(S'did'
p3801
g46
F0.9987
tp3802
a(S'you'
p3803
g43
F0.9995
tp3804
a(S'do'
p3805
g46
F0.9998
tp3806
a(S'that'
p3807
g43
F0.8584
tp3808
asI429
(lp3809
(S'she'
p3810
g43
F0.9949
tp3811
a(S'tickled'
p3812
g46
F0.9985
tp3813
a(S'my'
p3814
g3
F0.8984
tp3815
a(S'back'
p3816
g21
F0.7494
tp3817
a(S'laughs'
p3818
g46
F0.9395
tp3819
asI430
(lp3820
(S'go'
p3821
g46
F0.9589
tp3822
a(S'ahead'
p3823
g25
F0.9616
tp3824
a(S'laughing'
p3825
g46
F0.9256
tp3826
asI431
(lp3827
(S'did'
p3828
g46
F0.9987
tp3829
a(S'it'
p3830
g43
F0.9941
tp3831
a(S'make'
p3832
g46
F0.9996
tp3833
a(S'you'
p3834
g43
F0.9799
tp3835
a(S'laugh'
p3836
g46
F0.9927
tp3837
asI432
(lp3838
(S'laughs'
p3839
g46
F0.9102
tp3840
asI433
(lp3841
(S'laughs'
p3842
g46
F0.9102
tp3843
asI434
(lp3844
(S'okay'
p3845
g13
F0.9622
tp3846
a(g134
g43
F0.9863
tp3847
a(g719
g46
F0.9872
tp3848
a(S'done'
p3849
g46
F0.8955
tp3850
asI435
(lp3851
(S'why'
p3852
g25
F0.8805
tp3853
a(S'did'
p3854
g46
F0.9987
tp3855
a(S'you'
p3856
g43
F0.9995
tp3857
a(S'do'
p3858
g46
F0.9998
tp3859
a(S'that'
p3860
g43
F0.8584
tp3861
asI436
(lp3862
(S'because'
p3863
g28
F0.9987
tp3864
a(S'he'
p3865
g43
F0.9981
tp3866
a(g45
g46
F0.7393
tp3867
a(S'sittin'
p3868
g46
F0.9046
tp3869
a(g77
g46
F0.3685
tp3870
a(S'there'
p3871
g25
F0.9016
tp3872
a(S'talkin'
p3873
g46
F0.8841
tp3874
a(g77
g46
F0.4075
tp3875
a(S'to'
p3876
g28
F0.9979
tp3877
a(S'the'
p3878
g3
F0.999
tp3879
a(S'tape'
p3880
g21
F0.9982
tp3881
asI437
(lp3882
(S'xxx'
p3883
g9
F0.6599
tp3884
a(S'dumb'
p3885
g6
F0.9885
tp3886
asI438
(lp3887
(S'don'
p3888
g31
F0.4468
tp3889
a(g738
g31
F0.3413
tp3890
a(S'sis'
p3891
g21
F0.6173
tp3892
asI439
(lp3893
(g134
g43
F0.9869
tp3894
a(S'wanna'
p3895
g46
F0.9987
tp3896
a(S'die'
p3897
g46
F0.9962
tp3898
a(S'laughing'
p3899
g46
F0.8711
tp3900
asI440
(lp3901
(S'that'
p3902
g43
F0.473
tp3903
a(g45
g96
F0.4353
tp3904
a(S'not'
p3905
g25
F0.9981
tp3906
a(S'nice'
p3907
g6
F0.9917
tp3908
asI441
(lp3909
(S'come'
p3910
g46
F0.9849
tp3911
a(S'on'
p3912
g114
F0.5632
tp3913
asI442
(lp3914
(g134
g43
F0.9793
tp3915
a(S'll'
p3916
g46
F0.8021
tp3917
a(S'take'
p3918
g46
F0.9977
tp3919
a(S'that'
p3920
g3
F0.7108
tp3921
a(S'cranberry'
p3922
g21
F0.467
tp3923
a(S'sauce'
p3924
g21
F0.9981
tp3925
a(S'and'
p3926
g89
F0.9953
tp3927
a(S'give'
p3928
g46
F0.9993
tp3929
a(S'it'
p3930
g43
F0.9905
tp3931
a(S'to'
p3932
g28
F0.9949
tp3933
a(S'your'
p3934
g3
F0.9883
tp3935
a(S'brother'
p3936
g21
F0.9961
tp3937
asI443
(lp3938
(S'laughs'
p3939
g46
F0.9102
tp3940
asI444
(lp3941
(S'you'
p3942
g43
F0.9787
tp3943
a(S'you'
p3944
g43
F0.985
tp3945
a(S'didn'
p3946
g46
F0.9885
tp3947
a(g738
g46
F0.8378
tp3948
a(S'do'
p3949
g46
F0.9931
tp3950
a(S'xxx'
p3951
g9
F0.4925
tp3952
a(S'laughing'
p3953
g46
F0.9123
tp3954
asI445
(lp3955
(S'don'
p3956
g31
F0.5427
tp3957
a(g738
g31
F0.6133
tp3958
a(S'doin'
p3959
g46
F0.9712
tp3960
a(g77
g21
F0.3579
tp3961
a(S'that'
p3962
g43
F0.4749
tp3963
asI446
(lp3964
(S'hm'
p3965
g13
F0.995
tp3966
asI447
(lp3967
(S'take'
p3968
g46
F0.9104
tp3969
a(S'xxx'
p3970
g9
F0.6256
tp3971
asI448
(lp3972
(S'oh'
p3973
g13
F0.9988
tp3974
asI449
(lp3975
(S'www'
p3976
g31
F0.6936
tp3977
a(S'laughs'
p3978
g46
F0.6605
tp3979
a(g134
g43
F0.989
tp3980
a(g719
g46
F0.8596
tp3981
a(S'xxx'
p3982
g9
F0.7478
tp3983
asI450
(lp3984
(S'chi'
p3985
g31
F0.6802
tp3986
a(S'come'
p3987
g46
F0.9926
tp3988
a(S'on'
p3989
g28
F0.5942
tp3990
a(S'xxx'
p3991
g9
F0.6055
tp3992
asI451
(lp3993
(S'xxx'
p3994
g9
F0.5309
tp3995
a(S'my'
p3996
g3
F0.9932
tp3997
a(S'sister'
p3998
g21
F0.9981
tp3999
a(g45
g96
F0.6577
tp4000
a(S'laughing'
p4001
g46
F0.9185
tp4002
a(S'xxx'
p4003
g9
F0.313
tp4004
a(S'to'
p4005
g28
F0.9988
tp4006
a(S'the'
p4007
g3
F0.9991
tp4008
a(S'tape'
p4009
g21
F0.9961
tp4010
a(S'recorder'
p4011
g21
F0.9953
tp4012
a(S'makes'
p4013
g46
F0.9981
tp4014
a(S'me'
p4015
g43
F0.9957
tp4016
a(S'laugh'
p4017
g46
F0.935
tp4018
asI452
(lp4019
(S'she'
p4020
g43
F0.997
tp4021
a(S'makes'
p4022
g46
F0.9999
tp4023
a(S'me'
p4024
g43
F0.9975
tp4025
a(S'laugh'
p4026
g46
F0.8891
tp4027
asI453
(lp4028
(S'oh'
p4029
g13
F0.9979
tp4030
a(S'what'
p4031
g43
F0.975
tp4032
a(g45
g46
F0.4541
tp4033
a(S'this'
p4034
g43
F0.6912
tp4035
asI454
(lp4036
(S'sis'
p4037
g21
F0.6982
tp4038
a(S'what'
p4039
g43
F0.9572
tp4040
a(g45
g46
F0.4541
tp4041
a(S'this'
p4042
g43
F0.6912
tp4043
asI455
(lp4044
(S'xxx'
p4045
g9
F0.8437
tp4046
asI456
(lp4047
(S'oh'
p4048
g13
F0.9975
tp4049
a(S'yeah'
p4050
g13
F0.9996
tp4051
a(S'what'
p4052
g43
F0.994
tp4053
a(g45
g96
F0.555
tp4054
a(S'this'
p4055
g43
F0.6452
tp4056
asI457
(lp4057
(S'what'
p4058
g43
F0.9739
tp4059
a(g45
g46
F0.4504
tp4060
a(S'this'
p4061
g43
F0.7676
tp4062
asI458
(lp4063
(S'cranberry'
p4064
g21
F0.2499
tp4065
asI459
(lp4066
(S'see'
p4067
g46
F0.8684
tp4068
a(S'mom'
p4069
g21
F0.9523
tp4070
a(S'look'
p4071
g46
F0.9736
tp4072
asI460
(lp4073
(S'we'
p4074
g43
F0.9942
tp4075
a(S'didn'
p4076
g46
F0.9879
tp4077
a(g738
g46
F0.7941
tp4078
a(S'eat'
p4079
g46
F0.9876
tp4080
a(S'all'
p4081
g3
F0.8052
tp4082
a(S'this'
p4083
g3
F0.5864
tp4084
asI461
(lp4085
(S'hey'
p4086
g13
F0.9876
tp4087
a(S'mom'
p4088
g21
F0.7579
tp4089
asI462
(lp4090
(S'you'
p4091
g43
F0.9974
tp4092
a(S'know'
p4093
g46
F0.9977
tp4094
a(S'what'
p4095
g43
F0.994
tp4096
asI463
(lp4097
(g134
g43
F0.9896
tp4098
a(S'have'
p4099
g46
F0.9998
tp4100
a(S'to'
p4101
g28
F0.9936
tp4102
a(S'talk'
p4103
g46
F0.9964
tp4104
a(S'to'
p4105
g28
F0.997
tp4106
a(S'some'
p4107
g3
F0.9903
tp4108
a(S'kids'
p4109
g21
F0.9816
tp4110
asI464
(lp4111
(S'but'
p4112
g89
F0.9948
tp4113
a(g134
g43
F0.9899
tp4114
a(S'don'
p4115
g46
F0.9187
tp4116
a(g738
g46
F0.2388
tp4117
a(S'yell'
p4118
g46
F0.8362
tp4119
a(S'at'
p4120
g28
F0.9959
tp4121
a(S'th'
p4122
g96
F0.2777
tp4123
a(S'em'
p4124
g43
F0.9224
tp4125
asI465
(lp4126
(g134
g43
F0.9811
tp4127
a(S'just'
p4128
g25
F0.9993
tp4129
a(S'talk'
p4130
g46
F0.9955
tp4131
a(S'to'
p4132
g28
F0.9969
tp4133
a(S'th'
p4134
g46
F0.8949
tp4135
a(S'em'
p4136
g43
F0.9777
tp4137
asI466
(lp4138
(S'where'
p4139
g25
F0.9767
tp4140
a(S'at'
p4141
g28
F0.9992
tp4142
a(S'school'
p4143
g21
F0.993
tp4144
asI467
(lp4145
(S'yeah'
p4146
g13
F0.9966
tp4147
a(S'um'
p4148
g13
F0.897
tp4149
a(S'to'
p4150
g28
F0.9893
tp4151
a(S'tell'
p4152
g46
F0.9889
tp4153
a(S'th'
p4154
g46
F0.2758
tp4155
a(S'em'
p4156
g43
F0.9727
tp4157
a(S'to'
p4158
g28
F0.9908
tp4159
a(S'stop'
p4160
g46
F0.9979
tp4161
a(S'runnin'
p4162
g46
F0.8458
tp4163
a(g77
g46
F0.295
tp4164
a(S'in'
p4165
g28
F0.9851
tp4166
a(S'the'
p4167
g3
F0.9991
tp4168
a(S'bath'
p4169
g21
F0.9946
tp4170
a(S'room'
p4171
g21
F0.9908
tp4172
a(S'be'
p4173
g46
F0.9874
tp4174
a(S'cause'
p4175
g28
F0.9535
tp4176
a(S'they'
p4177
g43
F0.9891
tp4178
a(S'all'
p4179
g3
F0.765
tp4180
a(S'bump'
p4181
g21
F0.8032
tp4182
a(S'into'
p4183
g28
F0.9995
tp4184
a(S'me'
p4185
g43
F0.9984
tp4186
asI468
(lp4187
(S'do'
p4188
g46
F0.9929
tp4189
a(S'they'
p4190
g43
F0.9912
tp4191
asI469
(lp4192
(S'yeah'
p4193
g13
F0.9988
tp4194
asI470
(lp4195
(S'did'
p4196
g46
F0.9986
tp4197
a(S'you'
p4198
g43
F0.9985
tp4199
a(S'tell'
p4200
g46
F0.9972
tp4201
a(S'mrs'
p4202
g31
F0.8847
tp4203
a(S'browntree'
p4204
g31
F0.693
tp4205
asI471
(lp4206
(S'hm'
p4207
g13
F0.995
tp4208
asI472
(lp4209
(S'how'
p4210
g25
F0.9782
tp4211
a(S'come'
p4212
g46
F0.9829
tp4213
asI473
(lp4214
(S'the'
p4215
g3
F0.9988
tp4216
a(S'kids'
p4217
g21
F0.9834
tp4218
a(S'the'
p4219
g3
F0.9977
tp4220
a(S'kids'
p4221
g21
F0.9848
tp4222
a(S'never'
p4223
g25
F0.9965
tp4224
a(S'let'
p4225
g46
F0.9996
tp4226
a(S'me'
p4227
g43
F0.9992
tp4228
asI474
(lp4229
(S'why'
p4230
g25
F0.8527
tp4231
asI475
(lp4232
(S'they'
p4233
g43
F0.9909
tp4234
a(S'always'
p4235
g25
F0.995
tp4236
a(S'push'
p4237
g46
F0.9985
tp4238
a(S'me'
p4239
g43
F0.9981
tp4240
a(S'if'
p4241
g28
F0.9618
tp4242
a(g134
g43
F0.9967
tp4243
a(S'do'
p4244
g46
F0.9996
tp4245
asI476
(lp4246
(S'tell'
p4247
g46
F0.9902
tp4248
a(S'her'
p4249
g43
F0.9366
tp4250
a(S'that'
p4251
g28
F0.8592
tp4252
a(S'they'
p4253
g43
F0.9825
tp4254
a(S'they'
p4255
g43
F0.9608
tp4256
a(S'push'
p4257
g46
F0.9989
tp4258
a(S'you'
p4259
g43
F0.9983
tp4260
a(S'then'
p4261
g25
F0.9916
tp4262
asI477
(lp4263
(S'well'
p4264
g13
F0.906
tp4265
a(S'they'
p4266
g43
F0.998
tp4267
a(S'tried'
p4268
g46
F0.9993
tp4269
a(S'to'
p4270
g28
F0.991
tp4271
a(S'keep'
p4272
g46
F0.9998
tp4273
a(S'me'
p4274
g43
F0.9986
tp4275
asI478
(lp4276
(S'they'
p4277
g43
F0.9795
tp4278
a(S'wouldn'
p4279
g46
F0.9867
tp4280
a(g738
g46
F0.7461
tp4281
a(S'want'
p4282
g46
F0.9996
tp4283
a(S'me'
p4284
g43
F0.9984
tp4285
a(S'to'
p4286
g28
F0.9853
tp4287
a(S'tell'
p4288
g46
F0.9916
tp4289
asI479
(lp4290
(S'so'
p4291
g25
F0.5368
tp4292
a(g134
g43
F0.9784
tp4293
a(S'don'
p4294
g46
F0.9162
tp4295
a(g738
g96
F0.5134
tp4296
asI480
(lp4297
(S'xxx'
p4298
g9
F0.8437
tp4299
asI481
(lp4300
(S'are'
p4301
g46
F0.9904
tp4302
a(S'they'
p4303
g43
F0.9953
tp4304
a(S'in'
p4305
g28
F0.9055
tp4306
a(S'your'
p4307
g3
F0.989
tp4308
a(S'class'
p4309
g21
F0.9952
tp4310
a(S'room'
p4311
g21
F0.993
tp4312
asI482
(lp4313
(S'mhm'
p4314
g13
F0.9747
tp4315
asI483
(lp4316
(S'who'
p4317
g43
F0.9852
tp4318
a(S'xxx'
p4319
g9
F0.6044
tp4320
asI484
(lp4321
(S'no'
p4322
g3
F0.5217
tp4323
a(S'runnin'
p4324
g21
F0.649
tp4325
a(g77
g46
F0.4469
tp4326
a(S'down'
p4327
g114
F0.4619
tp4328
a(S'in'
p4329
g28
F0.9968
tp4330
a(S'the'
p4331
g3
F0.9987
tp4332
a(S'bath'
p4333
g21
F0.9938
tp4334
a(S'room'
p4335
g21
F0.9899
tp4336
asI485
(lp4337
(S'no'
p4338
g13
F0.6302
tp4339
a(S'pushing'
p4340
g46
F0.9894
tp4341
a(S'no'
p4342
g3
F0.8382
tp4343
a(S'fighting'
p4344
g46
F0.8721
tp4345
asI486
(lp4346
(S'oh'
p4347
g13
F0.9896
tp4348
a(S'those'
p4349
g43
F0.8095
tp4350
a(S'are'
p4351
g46
F0.9924
tp4352
a(S'rules'
p4353
g21
F0.9506
tp4354
asI487
(lp4355
(g134
g43
F0.9893
tp4356
a(S'said'
p4357
g46
F0.9991
tp4358
a(S'who'
p4359
g43
F0.9966
tp4360
a(g45
g46
F0.5452
tp4361
a(S'the'
p4362
g3
F0.9995
tp4363
a(S'boys'
p4364
g21
F0.9992
tp4365
asI488
(lp4366
(S'mm'
p4367
g13
F0.3838
tp4368
a(g134
g43
F0.98
tp4369
a(S'don'
p4370
g46
F0.9187
tp4371
a(g738
g96
F0.2374
tp4372
a(S'wanna'
p4373
g46
F0.9755
tp4374
a(S'say'
p4375
g46
F0.9997
tp4376
a(S'them'
p4377
g43
F0.932
tp4378
asI489
(lp4379
(S'matthew'
p4380
g31
F0.9876
tp4381
a(S'billy'
p4382
g31
F0.9913
tp4383
asI490
(lp4384
(S'matthew'
p4385
g31
F0.9861
tp4386
a(S'www'
p4387
g31
F0.8929
tp4388
a(S'name'
p4389
g21
F0.9832
tp4390
asI491
(lp4391
(S'billy'
p4392
g31
F0.9784
tp4393
a(S'who'
p4394
g43
F0.9857
tp4395
asI492
(lp4396
(S'uh'
p4397
g13
F0.9477
tp4398
a(S'billy'
p4399
g31
F0.8685
tp4400
a(S'www'
p4401
g31
F0.9283
tp4402
a(S'name'
p4403
g21
F0.9808
tp4404
asI493
(lp4405
(S'matthew'
p4406
g31
F0.9893
tp4407
a(S'www'
p4408
g31
F0.9304
tp4409
a(S'name'
p4410
g21
F0.9732
tp4411
a(S'billy'
p4412
g31
F0.7519
tp4413
a(S'um'
p4414
g13
F0.9265
tp4415
asI494
(lp4416
(S'billy'
p4417
g31
F0.9784
tp4418
a(S'who'
p4419
g43
F0.9857
tp4420
asI495
(lp4421
(S'chi'
p4422
g31
F0.3822
tp4423
a(S'shh'
p4424
g13
F0.9841
tp4425
asI496
(lp4426
(S'matthew'
p4427
g31
F0.9893
tp4428
a(S'www'
p4429
g31
F0.9304
tp4430
a(S'name'
p4431
g21
F0.9732
tp4432
a(S'billy'
p4433
g31
F0.8938
tp4434
a(S'xxx'
p4435
g9
F0.7403
tp4436
asI497
(lp4437
(S'xxx'
p4438
g9
F0.8437
tp4439
asI498
(lp4440
(g738
g96
F0.7039
tp4441
a(S'l'
p4442
g96
F0.9194
tp4443
a(S'j'
p4444
g96
F0.8867
tp4445
a(g4442
g96
F0.8379
tp4446
asI499
(lp4447
(S'b'
p4448
g46
F0.3078
tp4449
a(g4442
g96
F0.4949
tp4450
a(g4444
g96
F0.8867
tp4451
a(g4442
g96
F0.8379
tp4452
asI500
(lp4453
(g738
g96
F0.7039
tp4454
a(g4442
g96
F0.9194
tp4455
a(g4444
g96
F0.8867
tp4456
a(g4442
g96
F0.8379
tp4457
asI501
(lp4458
(g738
g96
F0.7039
tp4459
a(g4442
g96
F0.9194
tp4460
a(g4444
g96
F0.8867
tp4461
a(g4442
g96
F0.8379
tp4462
asI502
(lp4463
(S'hm'
p4464
g13
F0.995
tp4465
asI503
(lp4466
(g738
g96
F0.7039
tp4467
a(g4442
g96
F0.9248
tp4468
a(g4444
g96
F0.8867
tp4469
a(g4442
g96
F0.884
tp4470
a(S'xxx'
p4471
g9
F0.6546
tp4472
asI504
(lp4473
(g738
g96
F0.7039
tp4474
a(g4442
g96
F0.9248
tp4475
a(g4444
g96
F0.8867
tp4476
a(g4442
g96
F0.884
tp4477
a(S'xxx'
p4478
g9
F0.6546
tp4479
asI505
(lp4480
(g134
g43
F0.9912
tp4481
a(S'hate'
p4482
g46
F1.0
tp4483
a(S'him'
p4484
g43
F0.9808
tp4485
asI506
(lp4486
(S'he'
p4487
g43
F0.9858
tp4488
a(S'xxx'
p4489
g9
F0.4698
tp4490
asI507
(lp4491
(g738
g96
F0.7039
tp4492
a(g4442
g96
F0.9248
tp4493
a(g4444
g96
F0.8867
tp4494
a(g4442
g96
F0.8953
tp4495
a(S'maxx'
p4496
g31
F0.9154
tp4497
asI508
(lp4498
(g738
g96
F0.7039
tp4499
a(g4442
g96
F0.9248
tp4500
a(g4444
g96
F0.8867
tp4501
a(g4442
g96
F0.8953
tp4502
a(S'maxx'
p4503
g31
F0.9154
tp4504
asI509
(lp4505
(S'come'
p4506
g46
F0.9849
tp4507
a(S'on'
p4508
g28
F0.7375
tp4509
a(S'xxx'
p4510
g9
F0.4873
tp4511
asI510
(lp4512
(S'and'
p4513
g89
F0.9992
tp4514
a(S'um'
p4515
g13
F0.5436
tp4516
a(S'www'
p4517
g31
F0.7259
tp4518
a(S'name'
p4519
g21
F0.9808
tp4520
asI511
(lp4521
(S'xxx'
p4522
g9
F0.8437
tp4523
asI512
(lp4524
(S'xxx'
p4525
g9
F0.8437
tp4526
asI513
(lp4527
(S'anthony'
p4528
g31
F0.9938
tp4529
a(S'www'
p4530
g31
F0.9304
tp4531
a(S'name'
p4532
g21
F0.9715
tp4533
a(S'and'
p4534
g89
F0.9979
tp4535
a(S'um'
p4536
g13
F0.8558
tp4537
asI514
(lp4538
(S'anthony'
p4539
g31
F0.9875
tp4540
asI515
(lp4541
(S'alan'
p4542
g31
F0.9044
tp4543
a(S'www'
p4544
g31
F0.8929
tp4545
a(S'name'
p4546
g21
F0.9832
tp4547
asI516
(lp4548
(S'yes'
p4549
g13
F0.9958
tp4550
asI517
(lp4551
(S'and'
p4552
g89
F0.9981
tp4553
asI518
(lp4554
(S'anthony'
p4555
g31
F0.991
tp4556
a(S'www'
p4557
g31
F0.8929
tp4558
a(S'name'
p4559
g21
F0.9832
tp4560
asI519
(lp4561
(S'all'
p4562
g3
F0.6097
tp4563
a(g2272
g28
F0.5612
tp4564
a(g2274
g96
F0.3115
tp4565
a(S'those'
p4566
g3
F0.9384
tp4567
a(S'boys'
p4568
g21
F0.9989
tp4569
a(S'pushin'
p4570
g46
F0.8428
tp4571
a(g77
g46
F0.5776
tp4572
a(S'you'
p4573
g43
F0.999
tp4574
a(S'and'
p4575
g89
F0.9931
tp4576
a(S'stopping'
p4577
g46
F0.9999
tp4578
a(S'you'
p4579
g43
F0.9991
tp4580
a(S'from'
p4581
g28
F0.9942
tp4582
a(S'telling'
p4583
g46
F0.9958
tp4584
a(S'the'
p4585
g3
F0.9996
tp4586
a(S'teacher'
p4587
g21
F0.9865
tp4588
asI520
(lp4589
(S'some'
p4590
g3
F0.9907
tp4591
a(S'girls'
p4592
g21
F0.9722
tp4593
a(S'some'
p4594
g3
F0.976
tp4595
a(S'girls'
p4596
g21
F0.9958
tp4597
a(S'do'
p4598
g46
F0.9995
tp4599
a(S'it'
p4600
g43
F0.9931
tp4601
asI521
(lp4602
(S'could'
p4603
g46
F0.9599
tp4604
a(S'h'
p4605
g46
F0.44
tp4606
a(S'ave'
p4607
g21
F0.4207
tp4608
a(S'fooled'
p4609
g46
F0.9987
tp4610
a(S'me'
p4611
g43
F0.9973
tp4612
asI522
(lp4613
(S'like'
p4614
g28
F0.7692
tp4615
a(S'casey'
p4616
g31
F0.9945
tp4617
a(S'did'
p4618
g46
F0.9993
tp4619
a(S'it'
p4620
g43
F0.9926
tp4621
a(S'today'
p4622
g21
F0.8629
tp4623
asI523
(lp4624
(S'well'
p4625
g13
F0.9009
tp4626
a(S'the'
p4627
g3
F0.9975
tp4628
a(S'teacher'
p4629
g21
F0.9759
tp4630
a(S'will'
p4631
g46
F0.9796
tp4632
a(S'catch'
p4633
g46
F0.9999
tp4634
a(S'them'
p4635
g43
F0.9547
tp4636
asI524
(lp4637
(S'be'
p4638
g46
F0.9727
tp4639
a(S'cause'
p4640
g28
F0.8053
tp4641
a(S'if'
p4642
g28
F0.9968
tp4643
a(S'they'
p4644
g43
F0.9981
tp4645
a(S'do'
p4646
g46
F1.0
tp4647
a(S'it'
p4648
g43
F0.982
tp4649
a(S'all'
p4650
g3
F0.4734
tp4651
a(S'the'
p4652
g3
F0.999
tp4653
a(S'time'
p4654
g21
F0.999
tp4655
a(S'eventually'
p4656
g25
F0.9983
tp4657
asI525
(lp4658
(S'sis'
p4659
g21
F0.8652
tp4660
asI526
(lp4661
(S'if'
p4662
g28
F0.9975
tp4663
a(S'they'
p4664
g43
F0.9813
tp4665
a(S're'
p4666
g46
F0.5473
tp4667
a(S'gonna'
p4668
g46
F0.9936
tp4669
a(S'push'
p4670
g46
F0.9987
tp4671
a(S'you'
p4672
g43
F0.9963
tp4673
a(S'drop'
p4674
g46
F0.9839
tp4675
a(S'to'
p4676
g28
F0.9962
tp4677
a(S'the'
p4678
g3
F0.999
tp4679
a(S'floor'
p4680
g21
F0.9917
tp4681
asI527
(lp4682
(S'www'
p4683
g31
F0.6936
tp4684
a(S'laughs'
p4685
g46
F0.9074
tp4686
a(S'drop'
p4687
g46
F0.5869
tp4688
a(S'to'
p4689
g28
F0.9956
tp4690
a(S'the'
p4691
g3
F0.999
tp4692
a(S'floor'
p4693
g21
F0.9943
tp4694
asI528
(lp4695
(S'why'
p4696
g25
F0.9528
tp4697
a(S'laughs'
p4698
g46
F0.9393
tp4699
asI529
(lp4700
(S'so'
p4701
g28
F0.9492
tp4702
a(S'the'
p4703
g3
F0.9547
tp4704
a(S'so'
p4705
g28
F0.6298
tp4706
a(S'they'
p4707
g43
F0.9945
tp4708
a(S'll'
p4709
g46
F0.6513
tp4710
a(S'miss'
p4711
g46
F0.9476
tp4712
asI530
(lp4713
(S'then'
p4714
g25
F0.9783
tp4715
a(S'if'
p4716
g28
F0.9985
tp4717
a(S'they'
p4718
g43
F0.9814
tp4719
a(S're'
p4720
g46
F0.5702
tp4721
a(S'gonna'
p4722
g46
F0.993
tp4723
a(S'fall'
p4724
g46
F0.9822
tp4725
a(S'on'
p4726
g28
F0.9649
tp4727
a(S'you'
p4728
g43
F0.9995
tp4729
a(S'just'
p4730
g25
F0.9998
tp4731
a(S'push'
p4732
g46
F0.9954
tp4733
a(S'over'
p4734
g114
F0.5002
tp4735
asI531
(lp4736
(S'they'
p4737
g43
F0.9885
tp4738
a(S'could'
p4739
g46
F0.9997
tp4740
a(S'fall'
p4741
g46
F0.9143
tp4742
a(S'on'
p4743
g28
F0.8386
tp4744
a(S'xxx'
p4745
g9
F0.6423
tp4746
asI532
(lp4747
(S'roll'
p4748
g46
F0.8027
tp4749
a(S'on'
p4750
g28
F0.9491
tp4751
a(S'your'
p4752
g3
F0.9936
tp4753
a(S'side'
p4754
g21
F0.9967
tp4755
asI533
(lp4756
(S'yeah'
p4757
g13
F0.9967
tp4758
a(S'they'
p4759
g43
F0.9953
tp4760
a(S'll'
p4761
g25
F0.4428
tp4762
a(S'bump'
p4763
g46
F0.9913
tp4764
a(S'their'
p4765
g3
F0.9957
tp4766
a(S'head'
p4767
g21
F0.9982
tp4768
asI534
(lp4769
(S'bonk'
p4770
g13
F0.8724
tp4771
a(g2272
g13
F0.838
tp4772
asI535
(lp4773
(S'but'
p4774
g89
F0.9931
tp4775
a(S'mom'
p4776
g21
F0.8671
tp4777
asI536
(lp4778
(g134
g43
F0.9793
tp4779
a(S'll'
p4780
g46
F0.7927
tp4781
a(S'tell'
p4782
g46
F0.9984
tp4783
a(S'you'
p4784
g43
F0.9987
tp4785
a(S'the'
p4786
g3
F0.9951
tp4787
a(S'only'
p4788
g6
F0.9736
tp4789
a(S'ones'
p4790
g21
F0.9454
tp4791
a(S'that'
p4792
g28
F0.9358
tp4793
a(S'are'
p4794
g46
F0.997
tp4795
a(S'good'
p4796
g6
F0.9992
tp4797
a(S'to'
p4798
g28
F0.9988
tp4799
a(S'me'
p4800
g43
F0.9977
tp4801
asI537
(lp4802
(S'of'
p4803
g28
F0.9953
tp4804
a(S'the'
p4805
g3
F0.9995
tp4806
a(S'boys'
p4807
g21
F0.9976
tp4808
a(g738
g96
F0.6294
tp4809
a(g4442
g96
F0.9229
tp4810
a(g4444
g96
F0.8763
tp4811
a(g4442
g96
F0.8234
tp4812
a(S'um'
p4813
g96
F0.642
tp4814
a(S'matthew'
p4815
g31
F0.9675
tp4816
a(S'www'
p4817
g31
F0.933
tp4818
a(S'name'
p4819
g21
F0.9774
tp4820
asI538
(lp4821
(S'he'
p4822
g43
F0.9956
tp4823
a(S'kissed'
p4824
g46
F1.0
tp4825
a(S'me'
p4826
g43
F0.9993
tp4827
a(S'once'
p4828
g25
F0.9762
tp4829
asI539
(lp4830
(S'oh'
p4831
g13
F0.9987
tp4832
a(S'yeah'
p4833
g13
F0.9997
tp4834
asI540
(lp4835
(S'and'
p4836
g89
F0.999
tp4837
a(g134
g43
F0.994
tp4838
a(S'kissed'
p4839
g46
F1.0
tp4840
a(S'him'
p4841
g43
F0.9948
tp4842
a(S'once'
p4843
g25
F0.9815
tp4844
asI541
(lp4845
(S'oh'
p4846
g13
F0.9962
tp4847
a(S'mushy'
p4848
g6
F0.9604
tp4849
a(S'mushy'
p4850
g6
F0.8128
tp4851
asI542
(lp4852
(S'why'
p4853
g25
F0.8527
tp4854
asI543
(lp4855
(S'be'
p4856
g46
F0.9727
tp4857
a(S'cause'
p4858
g28
F0.9035
tp4859
a(S'laughs'
p4860
g46
F0.862
tp4861
a(g134
g43
F0.9866
tp4862
a(S'like'
p4863
g46
F0.9521
tp4864
a(S'him'
p4865
g43
F0.9972
tp4866
asI544
(lp4867
(S'yeah'
p4868
g13
F0.9988
tp4869
asI545
(lp4870
(S'then'
p4871
g25
F0.9818
tp4872
a(S'how'
p4873
g25
F0.9869
tp4874
a(S'come'
p4875
g46
F0.9966
tp4876
a(S'he'
p4877
g43
F0.9949
tp4878
a(S'pushin'
p4879
g46
F0.9708
tp4880
a(g77
g46
F0.5505
tp4881
a(S'you'
p4882
g43
F0.9968
tp4883
asI546
(lp4884
(S'where'
p4885
g25
F0.9164
tp4886
a(S'did'
p4887
g46
F0.9986
tp4888
a(S'you'
p4889
g43
F0.9982
tp4890
a(S'kiss'
p4891
g46
F0.9996
tp4892
a(S'him'
p4893
g43
F0.9952
tp4894
a(S'out'
p4895
g114
F0.6653
tp4896
a(S'at'
p4897
g28
F0.9982
tp4898
a(S'recess'
p4899
g21
F0.8351
tp4900
a(S'or'
p4901
g89
F0.9856
tp4902
a(S'in'
p4903
g28
F0.993
tp4904
a(S'the'
p4905
g3
F0.999
tp4906
a(S'class'
p4907
g21
F0.9896
tp4908
a(S'room'
p4909
g21
F0.9932
tp4910
asI547
(lp4911
(S'in'
p4912
g28
F0.9915
tp4913
a(S'the'
p4914
g3
F0.9986
tp4915
a(S'class'
p4916
g21
F0.9929
tp4917
a(S'room'
p4918
g21
F0.9952
tp4919
asI548
(lp4920
(S'did'
p4921
g46
F0.9986
tp4922
a(S'you'
p4923
g43
F0.9972
tp4924
a(S'like'
p4925
g46
F0.9251
tp4926
a(S'it'
p4927
g43
F0.9983
tp4928
asI549
(lp4929
(S'yeah'
p4930
g13
F0.9988
tp4931
asI550
(lp4932
(S'laughs'
p4933
g46
F0.9102
tp4934
asI551
(lp4935
(S'he'
p4936
g43
F0.9961
tp4937
a(S'said'
p4938
g46
F0.9989
tp4939
a(S'someday'
p4940
g25
F0.8488
tp4941
a(S'he'
p4942
g43
F0.998
tp4943
a(S'wants'
p4944
g46
F0.9999
tp4945
a(S'to'
p4946
g28
F0.9948
tp4947
a(S'marry'
p4948
g46
F0.9997
tp4949
a(S'me'
p4950
g43
F0.9985
tp4951
asI552
(lp4952
(S'oh'
p4953
g13
F0.995
tp4954
a(S'he'
p4955
g43
F0.998
tp4956
a(S'did'
p4957
g46
F0.9991
tp4958
a(S'did'
p4959
g46
F0.9893
tp4960
a(S'he'
p4961
g43
F0.994
tp4962
asI553
(lp4963
(S'and'
p4964
g89
F0.999
tp4965
a(g134
g43
F0.9936
tp4966
a(S'wanna'
p4967
g46
F0.9991
tp4968
a(S'marry'
p4969
g46
F0.9994
tp4970
a(S'him'
p4971
g43
F0.9833
tp4972
asI554
(lp4973
(S'oh'
p4974
g13
F0.9988
tp4975
asI555
(lp4976
(S'good'
p4977
g6
F0.99
tp4978
a(S'pack'
p4979
g21
F0.9932
tp4980
a(S'your'
p4981
g3
F0.9629
tp4982
a(S'bags'
p4983
g21
F0.9983
tp4984
asI556
(lp4985
(g134
g43
F0.9869
tp4986
a(S'wanna'
p4987
g46
F0.9989
tp4988
a(S'stay'
p4989
g46
F0.9887
tp4990
a(S'with'
p4991
g28
F0.9981
tp4992
a(S'him'
p4993
g43
F0.9843
tp4994
asI557
(lp4995
(S'you'
p4996
g43
F0.9968
tp4997
a(S'wanna'
p4998
g46
F0.9984
tp4999
a(S'stay'
p5000
g46
F0.9887
tp5001
a(S'with'
p5002
g28
F0.9981
tp5003
a(S'him'
p5004
g43
F0.9843
tp5005
asI558
(lp5006
(S'yeah'
p5007
g13
F0.9988
tp5008
asI559
(lp5009
(S'do'
p5010
g46
F0.9985
tp5011
a(S'you'
p5012
g43
F0.9996
tp5013
a(S'think'
p5014
g46
F0.9999
tp5015
a(S'his'
p5016
g3
F0.9952
tp5017
a(S'mother'
p5018
g21
F0.9961
tp5019
a(S'will'
p5020
g46
F0.9932
tp5021
a(S'let'
p5022
g46
F0.9998
tp5023
a(S'you'
p5024
g43
F0.9992
tp5025
a(S'move'
p5026
g46
F0.981
tp5027
a(S'in'
p5028
g28
F0.6165
tp5029
asI560
(lp5030
(S'maybe'
p5031
g25
F0.9678
tp5032
a(S'laughs'
p5033
g46
F0.9734
tp5034
asI561
(lp5035
(S'maybe'
p5036
g25
F0.9308
tp5037
asI562
(lp5038
(S'she'
p5039
g43
F0.9917
tp5040
a(g45
g46
F0.6223
tp5041
a(g18
g3
F0.9931
tp5042
a(S'nice'
p5043
g6
F0.9977
tp5044
a(S'mother'
p5045
g21
F0.9914
tp5046
asI563
(lp5047
(g134
g43
F0.9635
tp5048
a(S'don'
p5049
g46
F0.9231
tp5050
a(g738
g21
F0.2457
tp5051
a(S'know'
p5052
g46
F0.99
tp5053
a(S'where'
p5054
g25
F0.9778
tp5055
a(S'he'
p5056
g43
F0.9948
tp5057
a(S'lives'
p5058
g46
F0.9745
tp5059
asI564
(lp5060
(S'he'
p5061
g43
F0.9953
tp5062
a(S'kissed'
p5063
g46
F1.0
tp5064
a(S'me'
p5065
g43
F0.9987
tp5066
asI565
(lp5067
(g851
g510
F0.9872
tp5068
a(S'humming'
p5069
g46
F0.8447
tp5070
a(S'then'
p5071
g25
F0.9779
tp5072
a(S'laughing'
p5073
g46
F0.9127
tp5074
asI566
(lp5075
(S'what'
p5076
g43
F0.9674
tp5077
a(S'xxx'
p5078
g9
F0.6988
tp5079
asI567
(lp5080
(S'yeah'
p5081
g13
F0.9983
tp5082
a(S'that'
p5083
g43
F0.9093
tp5084
a(S'means'
p5085
g46
F0.996
tp5086
a(S'napkins'
p5087
g21
F0.964
tp5088
a(S'go'
p5089
g46
F0.9956
tp5090
a(S'right'
p5091
g25
F0.9497
tp5092
a(S'in'
p5093
g28
F0.9905
tp5094
a(S'here'
p5095
g25
F0.9062
tp5096
asI568
(lp5097
(S'xxx'
p5098
g9
F0.8437
tp5099
asI569
(lp5100
(S'oh'
p5101
g13
F0.9903
tp5102
a(S'mine'
p5103
g43
F0.9556
tp5104
a(g45
g96
F0.8571
tp5105
a(S'xxx'
p5106
g96
F0.3769
tp5107
a(S'the'
p5108
g3
F0.9983
tp5109
a(S'tape'
p5110
g21
F0.9951
tp5111
a(S'recorder'
p5112
g21
F0.9951
tp5113
asI570
(lp5114
(S'xxx'
p5115
g9
F0.8325
tp5116
a(S'xxx'
p5117
g9
F0.9813
tp5118
asI571
(lp5119
(S'www'
p5120
g31
F0.5369
tp5121
a(S'humming'
p5122
g46
F0.9174
tp5123
asI572
(lp5124
(S'xxx'
p5125
g9
F0.8437
tp5126
asI573
(lp5127
(S'tape'
p5128
g21
F0.9705
tp5129
a(S'recorder'
p5130
g21
F0.9889
tp5131
a(S'two'
p5132
g510
F0.9621
tp5133
a(S'too'
p5134
g25
F0.9494
tp5135
asI574
(lp5136
(S'two'
p5137
g510
F0.9238
tp5138
asI575
(lp5139
(S'two'
p5140
g510
F0.9614
tp5141
a(S'two'
p5142
g510
F0.9249
tp5143
a(S'two'
p5144
g510
F0.9388
tp5145
a(S'two'
p5146
g510
F0.936
tp5147
a(S'two'
p5148
g510
F0.9384
tp5149
a(S'two'
p5150
g510
F0.9384
tp5151
a(S'two'
p5152
g510
F0.9384
tp5153
a(S'two'
p5154
g510
F0.7285
tp5155
a(S'sing'
p5156
g46
F0.8831
tp5157
a(S'song'
p5158
g21
F0.9839
tp5159
asI576
(lp5160
(g134
g43
F0.9793
tp5161
a(S'll'
p5162
g46
F0.7831
tp5163
a(S'sing'
p5164
g46
F0.9997
tp5165
a(g18
g3
F0.9982
tp5166
a(S'song'
p5167
g21
F0.9991
tp5168
asI577
(lp5169
(S'twinkle'
p5170
g31
F0.9648
tp5171
a(S'twinkle'
p5172
g31
F0.8666
tp5173
a(S'little'
p5174
g6
F0.9796
tp5175
a(S'star'
p5176
g21
F0.9153
tp5177
asI578
(lp5178
(S'don'
p5179
g31
F0.4468
tp5180
a(g738
g96
F0.4162
tp5181
asI579
(lp5182
(S'how'
p5183
g25
F0.9805
tp5184
a(g134
g43
F0.9956
tp5185
a(S'wonder'
p5186
g46
F0.9909
tp5187
a(S'what'
p5188
g43
F0.959
tp5189
a(S'you'
p5190
g43
F0.9992
tp5191
a(S'are'
p5192
g46
F0.9987
tp5193
asI580
(lp5194
(S'up'
p5195
g114
F0.8351
tp5196
a(S'above'
p5197
g28
F0.9958
tp5198
a(S'singing'
p5199
g46
F0.9969
tp5200
a(S'www'
p5201
g31
F0.4572
tp5202
a(S'humming'
p5203
g46
F0.955
tp5204
asI581
(lp5205
(S'xxx'
p5206
g9
F0.8437
tp5207
asI582
(lp5208
(S'yeah'
p5209
g13
F0.9988
tp5210
asI583
(lp5211
(S'you'
p5212
g43
F0.9974
tp5213
a(S'done'
p5214
g46
F0.9826
tp5215
asI584
(lp5216
(S'sighs'
p5217
g46
F0.7567
tp5218
asI585
(lp5219
(S'are'
p5220
g46
F0.9963
tp5221
a(S'you'
p5222
g43
F0.9964
tp5223
asI586
(lp5224
(S'then'
p5225
g25
F0.9697
tp5226
a(S'take'
p5227
g46
F0.9859
tp5228
a(S'care'
p5229
g21
F0.542
tp5230
a(g2272
g28
F0.8911
tp5231
a(g2274
g96
F0.3967
tp5232
a(S'your'
p5233
g3
F0.8667
tp5234
a(S'mess'
p5235
g21
F0.9946
tp5236
asI587
(lp5237
(S'can'
p5238
g46
F0.9701
tp5239
a(g134
g43
F0.9778
tp5240
a(S'xxx'
p5241
g9
F0.5578
tp5242
asI588
(lp5243
(S'after'
p5244
g28
F0.9852
tp5245
a(S'your'
p5246
g3
F0.9488
tp5247
a(S'showers'
p5248
g21
F0.998
tp5249
asI589
(lp5250
(S'www'
p5251
g31
F0.6828
tp5252
a(S'gasps'
p5253
g21
F0.5057
tp5254
a(S'not'
p5255
g25
F0.9973
tp5256
a(S'till'
p5257
g28
F0.9927
tp5258
a(S'our'
p5259
g3
F0.9953
tp5260
a(S'showers'
p5261
g21
F0.9904
tp5262
asI590
(lp5263
(S'chi'
p5264
g31
F0.3954
tp5265
a(g134
g43
F0.9716
tp5266
a(S'need'
p5267
g46
F0.9998
tp5268
a(S'you'
p5269
g43
F0.9984
tp5270
a(S'to'
p5271
g28
F0.9857
tp5272
a(S'listen'
p5273
g46
F0.9998
tp5274
a(S'to'
p5275
g28
F0.996
tp5276
a(S'it'
p5277
g43
F0.9971
tp5278
asI591
(lp5279
(S'be'
p5280
g46
F0.9727
tp5281
a(S'cause'
p5282
g28
F0.8053
tp5283
a(S'if'
p5284
g28
F0.9972
tp5285
a(S'you'
p5286
g43
F0.9996
tp5287
a(S'sit'
p5288
g46
F0.9935
tp5289
a(S'and'
p5290
g89
F0.9953
tp5291
a(S'listen'
p5292
g46
F0.9984
tp5293
a(S'to'
p5294
g28
F0.9949
tp5295
a(S'it'
p5296
g43
F0.9929
tp5297
a(S'right'
p5298
g25
F0.9392
tp5299
a(S'now'
p5300
g25
F0.9895
tp5301
a(S'we'
p5302
g43
F0.9965
tp5303
a(S'll'
p5304
g46
F0.6934
tp5305
a(S'waste'
p5306
g46
F0.6802
tp5307
a(S'we'
p5308
g43
F0.9964
tp5309
a(S'll'
p5310
g46
F0.7492
tp5311
a(S'use'
p5312
g46
F0.9897
tp5313
a(S'up'
p5314
g114
F0.8784
tp5315
a(S'the'
p5316
g3
F0.9997
tp5317
a(S'time'
p5318
g21
F0.9972
tp5319
a(S'when'
p5320
g25
F0.9863
tp5321
a(S'you'
p5322
g43
F0.9993
tp5323
a(S'need'
p5324
g46
F0.9987
tp5325
a(S'to'
p5326
g28
F0.9732
tp5327
a(S'shower'
p5328
g21
F0.6765
tp5329
asI592
(lp5330
(S'mommy'
p5331
g21
F0.5271
tp5332
asI593
(lp5333
(S'how'
p5334
g25
F0.9438
tp5335
a(S're'
p5336
g21
F0.4264
tp5337
a(S'we'
p5338
g43
F0.9945
tp5339
a(S'gonna'
p5340
g46
F0.9994
tp5341
a(S'get'
p5342
g46
F0.9999
tp5343
a(g18
g3
F0.973
tp5344
a(S'xxx'
p5345
g9
F0.487
tp5346
asI594
(lp5347
(g134
g43
F0.9635
tp5348
a(S'don'
p5349
g46
F0.9231
tp5350
a(g738
g21
F0.2457
tp5351
a(S'know'
p5352
g46
F0.9925
tp5353
a(S'yet'
p5354
g25
F0.9545
tp5355
a(S'xxx'
p5356
g9
F0.6706
tp5357
a(g134
g43
F0.9436
tp5358
a(g719
g46
F0.9607
tp5359
a(S'gonna'
p5360
g46
F0.9868
tp5361
a(g134
g43
F0.9774
tp5362
a(g719
g46
F0.9432
tp5363
a(g134
g43
F0.9804
tp5364
a(g719
g46
F0.9811
tp5365
a(S'calling'
p5366
g46
F0.9936
tp5367
asI595
(lp5368
(S'she'
p5369
g43
F0.9917
tp5370
a(g45
g96
F0.558
tp5371
a(S'gonna'
p5372
g46
F0.9933
tp5373
a(S'call'
p5374
g46
F0.9984
tp5375
a(S'us'
p5376
g43
F0.9811
tp5377
asI596
(lp5378
(S'be'
p5379
g46
F0.9727
tp5380
a(S'cause'
p5381
g28
F0.9236
tp5382
a(S'her'
p5383
g43
F0.9043
tp5384
a(S'and'
p5385
g89
F0.9962
tp5386
a(S'uncle'
p5387
g21
F0.898
tp5388
a(S'brian'
p5389
g31
F0.9689
tp5390
a(S'may'
p5391
g46
F0.7307
tp5392
a(S'come'
p5393
g46
F0.9998
tp5394
a(S'down'
p5395
g25
F0.6467
tp5396
a(S'and'
p5397
g89
F0.994
tp5398
a(S'take'
p5399
g46
F0.9566
tp5400
a(S'showers'
p5401
g21
F0.9881
tp5402
asI597
(lp5403
(S'be'
p5404
g46
F0.9727
tp5405
a(S'cause'
p5406
g28
F0.9573
tp5407
a(S'they'
p5408
g43
F0.9949
tp5409
a(S'can'
p5410
g46
F0.9994
tp5411
a(g738
g46
F0.8017
tp5412
a(S'take'
p5413
g46
F0.9757
tp5414
a(S'showers'
p5415
g21
F0.9954
tp5416
a(S'at'
p5417
g28
F0.9999
tp5418
a(S'their'
p5419
g3
F0.9961
tp5420
a(S'house'
p5421
g21
F0.992
tp5422
asI598
(lp5423
(S'why'
p5424
g25
F0.8527
tp5425
asI599
(lp5426
(S'be'
p5427
g46
F0.9727
tp5428
a(S'cause'
p5429
g28
F0.9703
tp5430
a(S'she'
p5431
g43
F0.997
tp5432
a(g45
g46
F0.5815
tp5433
a(S'paintin'
p5434
g46
F0.7334
tp5435
a(g77
g46
F0.3622
tp5436
a(S'the'
p5437
g3
F0.9988
tp5438
a(S'bath'
p5439
g21
F0.9941
tp5440
a(S'room'
p5441
g21
F0.9916
tp5442
asI600
(lp5443
(S'oh'
p5444
g13
F0.9988
tp5445
asI601
(lp5446
(S'and'
p5447
g89
F0.999
tp5448
a(S'she'
p5449
g43
F0.9972
tp5450
a(S'put'
p5451
g46
F0.9959
tp5452
a(S'this'
p5453
g3
F0.9901
tp5454
a(S'stuff'
p5455
g21
F0.9953
tp5456
a(S'up'
p5457
g28
F0.5283
tp5458
a(S'over'
p5459
g28
F0.9787
tp5460
a(S'the'
p5461
g3
F0.9692
tp5462
a(S'the'
p5463
g3
F0.9632
tp5464
a(S'tub'
p5465
g21
F0.9959
tp5466
a(S'over'
p5467
g28
F0.9966
tp5468
a(S'the'
p5469
g3
F0.9993
tp5470
a(S'shower'
p5471
g21
F0.9944
tp5472
asI602
(lp5473
(S'but'
p5474
g89
F0.9962
tp5475
a(S'it'
p5476
g43
F0.9983
tp5477
a(S'can'
p5478
g46
F0.9983
tp5479
a(g738
g46
F0.6946
tp5480
a(S'get'
p5481
g46
F0.9951
tp5482
a(S'moist'
p5483
g6
F0.9941
tp5484
a(S'or'
p5485
g89
F0.9921
tp5486
a(S'wet'
p5487
g6
F0.6889
tp5488
a(S'for'
p5489
g28
F0.9988
tp5490
a(S'two'
p5491
g510
F0.9624
tp5492
a(S'days'
p5493
g21
F0.9939
tp5494
asI603
(lp5495
(S'hm'
p5496
g13
F0.995
tp5497
asI604
(lp5498
(S'does'
p5499
g46
F0.9945
tp5500
a(S'dusty'
p5501
g6
F0.9942
tp5502
a(S'and'
p5503
g89
F0.9964
tp5504
a(S'xxx'
p5505
g9
F0.4175
tp5506
a(S'probably'
p5507
g25
F0.9875
tp5508
a(S'names'
p5509
g21
F0.9642
tp5510
a(S'of'
p5511
g28
F0.9953
tp5512
a(S'cousin'
p5513
g21
F0.9838
tp5514
a(S'have'
p5515
g46
F0.9978
tp5516
a(S'to'
p5517
g28
F0.9971
tp5518
a(S'take'
p5519
g46
F0.9949
tp5520
a(S'showers'
p5521
g21
F0.9898
tp5522
a(S'here'
p5523
g25
F0.9556
tp5524
asI605
(lp5525
(g134
g43
F0.9635
tp5526
a(S'don'
p5527
g46
F0.9231
tp5528
a(g738
g21
F0.2457
tp5529
a(S'know'
p5530
g46
F0.997
tp5531
a(S'if'
p5532
g28
F0.9987
tp5533
a(S'he'
p5534
g43
F0.9988
tp5535
a(S'needs'
p5536
g46
F1.0
tp5537
a(S'them'
p5538
g43
F0.9361
tp5539
a(S'he'
p5540
g43
F0.9891
tp5541
a(S'll'
p5542
g46
F0.6109
tp5543
a(S'take'
p5544
g46
F0.9994
tp5545
a(S'them'
p5546
g43
F0.796
tp5547
asI606
(lp5548
(S'sis'
p5549
g21
F0.6134
tp5550
a(S'you'
p5551
g43
F0.9968
tp5552
a(S'have'
p5553
g46
F0.9996
tp5554
a(S'to'
p5555
g28
F0.9894
tp5556
a(S'go'
p5557
g46
F0.9993
tp5558
a(S'in'
p5559
g28
F0.9003
tp5560
a(S'first'
p5561
g6
F0.7684
tp5562
a(S'tonight'
p5563
g21
F0.7978
tp5564
asI607
(lp5565
(S'what'
p5566
g43
F0.9923
tp5567
a(S'was'
p5568
g46
F0.9982
tp5569
a(S'that'
p5570
g3
F0.9109
tp5571
a(S'noise'
p5572
g21
F0.9966
tp5573
asI608
(lp5574
(g851
g510
F0.9859
tp5575
a(S'small'
p5576
g6
F0.9696
tp5577
a(S'pretend'
p5578
g46
F0.4486
tp5579
a(S'scream'
p5580
g46
F0.9581
tp5581
asI609
(lp5582
(S'laura'
p5583
g31
F0.9686
tp5584
asI610
(lp5585
(S'maggie'
p5586
g31
F0.9597
tp5587
asI611
(lp5588
(S'xxx'
p5589
g9
F0.8437
tp5590
asI612
(lp5591
(S'they'
p5592
g43
F0.9926
tp5593
a(S'have'
p5594
g46
F0.9999
tp5595
a(S'the'
p5596
g3
F0.9998
tp5597
a(S'day'
p5598
g21
F0.9991
tp5599
a(S'after'
p5600
g28
F0.9748
tp5601
a(S'tomorrow'
p5602
g21
F0.9608
tp5603
asI613
(lp5604
(S'come'
p5605
g46
F0.9849
tp5606
a(S'on'
p5607
g114
F0.5632
tp5608
asI614
(lp5609
(S'you'
p5610
g43
F0.9969
tp5611
a(S'can'
p5612
g46
F0.9996
tp5613
a(S'get'
p5614
g46
F0.9998
tp5615
a(S'in'
p5616
g28
F0.6841
tp5617
a(S'and'
p5618
g89
F0.9968
tp5619
a(S'take'
p5620
g46
F0.9988
tp5621
a(S'your'
p5622
g3
F0.9951
tp5623
a(S'shower'
p5624
g21
F0.9936
tp5625
a(S'first'
p5626
g25
F0.4996
tp5627
asI615
(lp5628
(S'mom'
p5629
g21
F0.7188
tp5630
asI616
(lp5631
(S'you'
p5632
g43
F0.9946
tp5633
a(S'look'
p5634
g46
F0.9936
tp5635
a(S'awfully'
p5636
g25
F0.9983
tp5637
a(S'white'
p5638
g6
F0.9916
tp5639
a(S'today'
p5640
g21
F0.9974
tp5641
asI617
(lp5642
(g134
g43
F0.9914
tp5643
a(S'was'
p5644
g46
F0.9998
tp5645
a(S'looking'
p5646
g46
F0.9343
tp5647
a(S'xxx'
p5648
g9
F0.4335
tp5649
a(S'for'
p5650
g28
F0.9954
tp5651
a(S'mandy'
p5652
g31
F0.9875
tp5653
asI618
(lp5654
(S'she'
p5655
g43
F0.9969
tp5656
a(S'was'
p5657
g46
F0.9989
tp5658
a(S'looking'
p5659
g46
F0.9357
tp5660
asI619
(lp5661
(S'oh'
p5662
g13
F0.9979
tp5663
a(S'what'
p5664
g43
F0.9127
tp5665
a(S'she'
p5666
g43
F0.9984
tp5667
a(S'laughing'
p5668
g46
F0.9874
tp5669
asI620
(lp5670
(S'yeah'
p5671
g13
F0.9988
tp5672
asI621
(lp5673
(S'oh'
p5674
g13
F0.9968
tp5675
a(S'how'
p5676
g25
F0.9335
tp5677
a(S'do'
p5678
g46
F0.9989
tp5679
a(S'you'
p5680
g43
F0.9997
tp5681
a(S'know'
p5682
g46
F0.9998
tp5683
a(S'that'
p5684
g43
F0.8018
tp5685
asI622
(lp5686
(S'be'
p5687
g46
F0.9727
tp5688
a(S'cause'
p5689
g28
F0.9703
tp5690
a(S'she'
p5691
g43
F0.9982
tp5692
a(S'came'
p5693
g46
F0.9975
tp5694
a(S'um'
p5695
g13
F0.4317
tp5696
a(S'down'
p5697
g25
F0.5972
tp5698
a(S'after'
p5699
g28
F0.9742
tp5700
a(S'me'
p5701
g43
F0.9998
tp5702
a(S'and'
p5703
g89
F0.9914
tp5704
a(S'april'
p5705
g31
F0.9326
tp5706
a(S'and'
p5707
g89
F0.9986
tp5708
a(S'maria'
p5709
g31
F0.9124
tp5710
asI623
(lp5711
(S'today'
p5712
g21
F0.9895
tp5713
asI624
(lp5714
(S'mm'
p5715
g13
F0.627
tp5716
asI625
(lp5717
(S'she'
p5718
g43
F0.9971
tp5719
a(S'said'
p5720
g46
F0.9953
tp5721
a(S'is'
p5722
g46
F0.9945
tp5723
a(S'mandy'
p5724
g31
F0.9078
tp5725
a(S'down'
p5726
g25
F0.7999
tp5727
a(S'here'
p5728
g25
F0.9888
tp5729
asI626
(lp5730
(S'be'
p5731
g46
F0.9727
tp5732
a(S'cause'
p5733
g28
F0.7105
tp5734
a(g134
g43
F0.9945
tp5735
a(S'can'
p5736
g46
F0.9996
tp5737
a(g738
g46
F0.8017
tp5738
a(S'find'
p5739
g46
F0.998
tp5740
a(S'her'
p5741
g43
F0.7242
tp5742
a(S'anywhere'
p5743
g25
F0.994
tp5744
asI627
(lp5745
(S'probably'
p5746
g25
F0.995
tp5747
a(S'aunt'
p5748
g21
F0.6498
tp5749
a(S'bonnie'
p5750
g31
F0.6495
tp5751
asI628
(lp5752
(S'get'
p5753
g46
F0.9973
tp5754
a(S'the'
p5755
g3
F0.9994
tp5756
a(S'paper'
p5757
g21
F0.9848
tp5758
a(S'towels'
p5759
g21
F0.9731
tp5760
a(S'bud'
p5761
g21
F0.8008
tp5762
a(S'dy'
p5763
g96
F0.4373
tp5764
asI629
(lp5765
(S'www'
p5766
g31
F0.3889
tp5767
asI630
(lp5768
(S'babbling'
p5769
g46
F0.9317
tp5770
asI631
(lp5771
(S'twinkle'
p5772
g31
F0.9648
tp5773
a(S'twinkle'
p5774
g31
F0.9089
tp5775
a(S'little'
p5776
g6
F0.9677
tp5777
a(S'star'
p5778
g21
F0.8585
tp5779
a(S'how'
p5780
g25
F0.994
tp5781
a(g134
g43
F0.9951
tp5782
a(S'wonder'
p5783
g46
F0.988
tp5784
a(S'what'
p5785
g43
F0.9704
tp5786
a(S'you'
p5787
g43
F0.9991
tp5788
a(S'are'
p5789
g46
F0.999
tp5790
asI632
(lp5791
(S'up'
p5792
g114
F0.8351
tp5793
a(S'above'
p5794
g28
F0.9994
tp5795
a(S'the'
p5796
g3
F0.9993
tp5797
a(S'world'
p5798
g21
F0.9874
tp5799
a(S'so'
p5800
g25
F0.5013
tp5801
a(S'high'
p5802
g6
F0.5728
tp5803
a(S'like'
p5804
g28
F0.9937
tp5805
a(g18
g3
F0.9871
tp5806
a(S'diamond'
p5807
g21
F0.9798
tp5808
a(S'in'
p5809
g28
F0.9994
tp5810
a(S'the'
p5811
g3
F0.9994
tp5812
a(S'sky'
p5813
g21
F0.8225
tp5814
asI633
(lp5815
(S'twinkle'
p5816
g31
F0.9648
tp5817
a(S'twinkle'
p5818
g31
F0.924
tp5819
a(S'laughs'
p5820
g46
F0.9801
tp5821
a(S'little'
p5822
g6
F0.988
tp5823
a(S'star'
p5824
g21
F0.879
tp5825
a(S'how'
p5826
g25
F0.994
tp5827
a(g134
g43
F0.9951
tp5828
a(S'wonder'
p5829
g46
F0.988
tp5830
a(S'what'
p5831
g43
F0.9569
tp5832
a(S'you'
p5833
g43
F0.9989
tp5834
a(S'are'
p5835
g46
F0.9982
tp5836
asI634
(lp5837
(S'go'
p5838
g46
F0.966
tp5839
a(S'take'
p5840
g46
F0.9477
tp5841
a(S'care'
p5842
g21
F0.542
tp5843
a(g2272
g28
F0.8911
tp5844
a(g2274
g96
F0.3967
tp5845
a(S'your'
p5846
g3
F0.8667
tp5847
a(S'messes'
p5848
g21
F0.9945
tp5849
asI635
(lp5850
(S'right'
p5851
g25
F0.7278
tp5852
a(S'now'
p5853
g25
F0.9839
tp5854
asI636
(lp5855
(S'xxx'
p5856
g9
F0.8437
tp5857
asI637
(lp5858
(S'www'
p5859
g31
F0.3889
tp5860
asI638
(lp5861
(S'uh'
p5862
g13
F0.9672
tp5863
a(S'with'
p5864
g28
F0.9974
tp5865
a(g18
g3
F0.9985
tp5866
a(S'gun'
p5867
g21
F0.991
tp5868
a(S'www'
p5869
g28
F0.5089
tp5870
a(S'chuckling'
p5871
g46
F0.9912
tp5872
asI639
(lp5873
(S'laughs'
p5874
g46
F0.9102
tp5875
asI640
(lp5876
(S'laughs'
p5877
g46
F0.9102
tp5878
asI641
(lp5879
(S'no'
p5880
g13
F0.557
tp5881
a(S'laughs'
p5882
g46
F0.7527
tp5883
asI642
(lp5884
(S'on'
p5885
g28
F0.9889
tp5886
a(S'your'
p5887
g3
F0.997
tp5888
a(S'face'
p5889
g21
F0.9989
tp5890
asI643
(lp5891
(S'oh'
p5892
g13
F0.9903
tp5893
a(S'my'
p5894
g3
F0.982
tp5895
a(S'cousin'
p5896
g21
F0.9986
tp5897
a(S'has'
p5898
g46
F0.9984
tp5899
a(g18
g3
F0.9977
tp5900
a(S'dog'
p5901
g21
F0.9991
tp5902
a(S'named'
p5903
g46
F0.9908
tp5904
a(S'louie'
p5905
g31
F0.9966
tp5906
asI644
(lp5907
(S'spot'
p5908
g21
F0.9429
tp5909
a(S'cooey'
p5910
g21
F0.4272
tp5911
a(S'louie'
p5912
g31
F0.9399
tp5913
asI645
(lp5914
(S'www'
p5915
g31
F0.3889
tp5916
asI646
(lp5917
(S'spots'
p5918
g21
F0.9528
tp5919
a(S'cooey'
p5920
g21
F0.2541
tp5921
a(S'louie'
p5922
g31
F0.9399
tp5923
asI647
(lp5924
(S'xxx'
p5925
g9
F0.8437
tp5926
asI648
(lp5927
(S'www'
p5928
g31
F0.3889
tp5929
asI649
(lp5930
(S'xxx'
p5931
g9
F0.5897
tp5932
a(S'tape'
p5933
g21
F0.9842
tp5934
a(S'xxx'
p5935
g9
F0.7412
tp5936
asI650
(lp5937
(S'mhm'
p5938
g13
F0.9206
tp5939
a(S'xxx'
p5940
g9
F0.7883
tp5941
asI651
(lp5942
(S'xxx'
p5943
g9
F0.8437
tp5944
asI652
(lp5945
(S'www'
p5946
g31
F0.3889
tp5947
asI653
(lp5948
(S'laughs'
p5949
g46
F0.9102
tp5950
asI654
(lp5951
(S'yeah'
p5952
g13
F0.9988
tp5953
asI655
(lp5954
(S'come'
p5955
g46
F0.9897
tp5956
a(S'on'
p5957
g28
F0.9519
tp5958
a(S'get'
p5959
g46
F0.9815
tp5960
a(S'the'
p5961
g3
F0.992
tp5962
a(g45
g96
F0.6761
tp5963
a(g4442
g96
F0.8223
tp5964
a(g2272
g96
F0.5843
tp5965
a(g4442
g96
F0.9021
tp5966
a(g45
g96
F0.9771
tp5967
a(g4442
g96
F0.7437
tp5968
asI656
(lp5969
(S'xxx'
p5970
g9
F0.8437
tp5971
asI657
(lp5972
(S'www'
p5973
g31
F0.3889
tp5974
asI658
(lp5975
(S'laughs'
p5976
g46
F0.9102
tp5977
asI659
(lp5978
(S'can'
p5979
g46
F0.9627
tp5980
a(g738
g46
F0.9529
tp5981
a(S'you'
p5982
g43
F0.9992
tp5983
a(S'see'
p5984
g46
F0.9984
tp5985
a(S'there'
p5986
g25
F0.6511
tp5987
a(g45
g96
F0.606
tp5988
a(g18
g3
F0.9942
tp5989
a(S'big'
p5990
g6
F0.9856
tp5991
a(S'leak'
p5992
g21
F0.9904
tp5993
a(S'there'
p5994
g25
F0.7889
tp5995
asI660
(lp5996
(S'xxx'
p5997
g9
F0.8437
tp5998
asI661
(lp5999
(S'cantcha'
p6000
g31
F0.8106
tp6001
a(S'can'
p6002
g46
F0.9457
tp6003
a(g738
g46
F0.9558
tp6004
a(S'you'
p6005
g43
F0.9991
tp6006
a(S'see'
p6007
g46
F0.9998
tp6008
a(S'it'
p6009
g43
F0.9514
tp6010
a(g45
g46
F0.584
tp6011
a(S'rollin'
p6012
g46
F0.916
tp6013
a(g77
g46
F0.5988
tp6014
a(S'down'
p6015
g114
F0.526
tp6016
a(S'my'
p6017
g3
F0.9974
tp6018
a(S'floor'
p6019
g21
F0.9912
tp6020
a(S'buddy'
p6021
g21
F0.9917
tp6022
asI662
(lp6023
(S'while'
p6024
g28
F0.922
tp6025
a(S'you'
p6026
g43
F0.9981
tp6027
a(S're'
p6028
g46
F0.7511
tp6029
a(S'sittin'
p6030
g46
F0.8542
tp6031
a(g77
g46
F0.3136
tp6032
a(S'here'
p6033
g25
F0.9733
tp6034
a(S'playin'
p6035
g46
F0.9575
tp6036
a(g77
g46
F0.4517
tp6037
a(S'your'
p6038
g3
F0.9817
tp6039
a(S'games'
p6040
g21
F0.9983
tp6041
asI663
(lp6042
(S'oh'
p6043
g13
F0.9988
tp6044
asI664
(lp6045
(S'we'
p6046
g43
F0.9849
tp6047
a(S're'
p6048
g46
F0.9345
tp6049
a(S'all'
p6050
g3
F0.7564
tp6051
a(S'done'
p6052
g46
F0.5488
tp6053
a(S'but'
p6054
g89
F0.9849
tp6055
a(S'he'
p6056
g43
F0.9962
tp6057
a(S'just'
p6058
g25
F0.9998
tp6059
a(S'dumped'
p6060
g46
F0.9995
tp6061
a(S'his'
p6062
g3
F0.9989
tp6063
a(S'milk'
p6064
g21
F0.9973
tp6065
a(S'and'
p6066
g89
F0.9982
tp6067
a(g134
g43
F0.9747
tp6068
a(S've'
p6069
g46
F0.866
tp6070
a(S'got'
p6071
g46
F0.9972
tp6072
a(S'the'
p6073
g3
F0.9996
tp6074
a(S'tape'
p6075
g21
F0.9955
tp6076
a(S'recorder'
p6077
g21
F0.9887
tp6078
a(S'on'
p6079
g28
F0.9802
tp6080
asI665
(lp6081
(S'laughs'
p6082
g46
F0.9102
tp6083
asI666
(lp6084
(S'for'
p6085
g28
F0.9996
tp6086
a(S'the'
p6087
g3
F0.9898
tp6088
a(S'um'
p6089
g96
F0.3038
tp6090
a(S'language'
p6091
g21
F0.8965
tp6092
a(S'study'
p6093
g21
F0.8166
tp6094
a(S'that'
p6095
g28
F0.9565
tp6096
a(S'harvard'
p6097
g31
F0.9776
tp6098
a(S'language'
p6099
g21
F0.9359
tp6100
a(S'study'
p6101
g21
F0.9584
tp6102
asI667
(lp6103
(S'and'
p6104
g89
F0.9981
tp6105
asI668
(lp6106
(S'the'
p6107
g3
F0.9983
tp6108
a(S'language'
p6109
g21
F0.9897
tp6110
a(S'study'
p6111
g21
F0.9681
tp6112
asI669
(lp6113
(S'they'
p6114
g43
F0.9104
tp6115
a(S're'
p6116
g46
F0.7716
tp6117
a(S'sittin'
p6118
g46
F0.855
tp6119
a(g77
g46
F0.3183
tp6120
a(S'here'
p6121
g25
F0.9881
tp6122
a(S'while'
p6123
g28
F0.7662
tp6124
a(g134
g43
F0.9926
tp6125
a(g719
g46
F0.9859
tp6126
a(S'talkin'
p6127
g46
F0.8394
tp6128
a(g77
g46
F0.3707
tp6129
a(S'on'
p6130
g28
F0.9836
tp6131
a(S'the'
p6132
g3
F0.9995
tp6133
a(S'phone'
p6134
g21
F0.9985
tp6135
asI670
(lp6136
(S'singin'
p6137
g46
F0.9195
tp6138
a(g77
g46
F0.371
tp6139
a(S'into'
p6140
g28
F0.9969
tp6141
a(S'it'
p6142
g43
F0.9976
tp6143
a(S'and'
p6144
g89
F0.9949
tp6145
a(S'clappin'
p6146
g46
F0.9413
tp6147
a(g77
g46
F0.4167
tp6148
a(S'their'
p6149
g3
F0.9909
tp6150
a(S'hands'
p6151
g21
F0.9985
tp6152
a(S'be'
p6153
g46
F0.9825
tp6154
a(S'cause'
p6155
g28
F0.8325
tp6156
a(S'there'
p6157
g25
F0.582
tp6158
a(g45
g96
F0.606
tp6159
a(g18
g3
F0.9941
tp6160
a(S'little'
p6161
g6
F0.9786
tp6162
a(S'red'
p6163
g6
F0.9842
tp6164
a(S'light'
p6165
g21
F0.9805
tp6166
asI671
(lp6167
(S'when'
p6168
g25
F0.9456
tp6169
a(S'your'
p6170
g3
F0.98
tp6171
a(S'voice'
p6172
g21
F0.997
tp6173
a(S'the'
p6174
g3
F0.9983
tp6175
a(S'level'
p6176
g21
F0.9985
tp6177
a(S'of'
p6178
g28
F0.9991
tp6179
a(S'your'
p6180
g3
F0.9955
tp6181
a(S'voice'
p6182
g21
F0.9985
tp6183
asI672
(lp6184
(S'so'
p6185
g28
F0.7512
tp6186
a(S'that'
p6187
g43
F0.7765
tp6188
a(S'yeah'
p6189
g13
F0.6267
tp6190
a(S'it'
p6191
g43
F0.9973
tp6192
a(S'goes'
p6193
g46
F0.9993
tp6194
a(S'the'
p6195
g3
F0.9995
tp6196
a(S'light'
p6197
g21
F0.962
tp6198
a(S'flashes'
p6199
g46
F0.6178
tp6200
asI673
(lp6201
(S'yeah'
p6202
g13
F0.9955
tp6203
a(S'so'
p6204
g28
F0.888
tp6205
a(S'they'
p6206
g43
F0.9719
tp6207
a(S're'
p6208
g46
F0.747
tp6209
a(S'playin'
p6210
g46
F0.9899
tp6211
a(g77
g21
F0.2704
tp6212
a(S'games'
p6213
g21
F0.9574
tp6214
a(S'as'
p6215
g28
F0.9953
tp6216
a(S'my'
p6217
g3
F0.9928
tp6218
a(S'milk'
p6219
g21
F0.9989
tp6220
a(S'as'
p6221
g28
F0.9983
tp6222
a(S'his'
p6223
g3
F0.9972
tp6224
a(S'glass'
p6225
g21
F0.9985
tp6226
a(S'of'
p6227
g28
F0.9968
tp6228
a(S'milk'
p6229
g21
F0.9846
tp6230
a(S'is'
p6231
g46
F0.9931
tp6232
a(S'just'
p6233
g25
F0.9995
tp6234
a(S'rolling'
p6235
g46
F0.9989
tp6236
a(S'all'
p6237
g3
F0.8065
tp6238
a(S'over'
p6239
g28
F0.9596
tp6240
a(S'my'
p6241
g3
F0.9916
tp6242
a(S'floor'
p6243
g21
F0.9981
tp6244
asI674
(lp6245
(S'you'
p6246
g43
F0.9974
tp6247
a(S'know'
p6248
g46
F0.9967
tp6249
asI675
(lp6250
(S'www'
p6251
g31
F0.3889
tp6252
asI676
(lp6253
(S'give'
p6254
g46
F0.9985
tp6255
a(S'me'
p6256
g43
F0.9983
tp6257
a(S'xxx'
p6258
g46
F0.7433
tp6259
a(S'up'
p6260
g114
F0.899
tp6261
a(S'there'
p6262
g25
F0.7635
tp6263
asI677
(lp6264
(S'say'
p6265
g46
F0.8557
tp6266
a(S'goodbye'
p6267
g13
F0.9815
tp6268
a(g134
g43
F0.9828
tp6269
a(g719
g46
F0.9835
tp6270
a(S'shuttin'
p6271
g46
F0.8033
tp6272
a(g77
g46
F0.4281
tp6273
a(S'this'
p6274
g43
F0.9158
tp6275
a(S'off'
p6276
g114
F0.6835
tp6277
a(S'now'
p6278
g25
F0.9981
tp6279
asI678
(lp6280
(S'can'
p6281
g46
F0.9989
tp6282
a(S'you'
p6283
g43
F0.9979
tp6284
a(S'xxx'
p6285
g9
F0.412
tp6286
as.