(lp0
S'solutions_only_eaten/HSLLD/HV5/MT/melmt5.cha'
p1
aS'solutions_only_eaten/HSLLD/HV5/MT/jammt5.cha'
p2
aS'solutions_only_eaten/HSLLD/HV5/MT/kurmt5.cha'
p3
aS'solutions_only_eaten/HSLLD/HV5/MT/petmt5.cha'
p4
aS'solutions_only_eaten/HSLLD/HV5/MT/shlmt5.cha'
p5
aS'solutions_only_eaten/HSLLD/HV5/MT/rosmt5.cha'
p6
aS'solutions_only_eaten/HSLLD/HV5/MT/davmt5.cha'
p7
aS'solutions_only_eaten/HSLLD/HV5/MT/brnmt5.cha'
p8
aS'solutions_only_eaten/HSLLD/HV5/MT/zenmt5.cha'
p9
aS'solutions_only_eaten/HSLLD/HV5/MT/mrkmt5.cha'
p10
aS'solutions_only_eaten/HSLLD/HV5/MT/bramt5.cha'
p11
aS'solutions_only_eaten/HSLLD/HV5/MT/ethmt5.cha'
p12
aS'solutions_only_eaten/HSLLD/HV3/MT/kurmt3.cha'
p13
aS'solutions_only_eaten/HSLLD/HV3/MT/geomt3.cha'
p14
aS'solutions_only_eaten/HSLLD/HV3/MT/brnmt3.cha'
p15
aS'solutions_only_eaten/HSLLD/HV3/MT/bobmt3.cha'
p16
aS'solutions_only_eaten/HSLLD/HV3/MT/melmt3.cha'
p17
aS'solutions_only_eaten/HSLLD/HV3/MT/devmt3.cha'
p18
aS'solutions_only_eaten/HSLLD/HV3/MT/stnmt3.cha'
p19
aS'solutions_only_eaten/HSLLD/HV3/MT/deamt3.cha'
p20
aS'solutions_only_eaten/HSLLD/HV3/MT/tommt3.cha'
p21
aS'solutions_only_eaten/HSLLD/HV3/MT/catmt3.cha'
p22
aS'solutions_only_eaten/HSLLD/HV3/MT/ethmt3.cha'
p23
aS'solutions_only_eaten/HSLLD/HV3/MT/sarmt3.cha'
p24
aS'solutions_only_eaten/HSLLD/HV3/MT/vicmt3.cha'
p25
aS'solutions_only_eaten/HSLLD/HV3/MT/rosmt3.cha'
p26
aS'solutions_only_eaten/HSLLD/HV1/MT/maymt1.cha'
p27
aS'solutions_only_eaten/HSLLD/HV1/MT/tamtp1.cha'
p28
aS'solutions_only_eaten/HSLLD/HV1/MT/zenmt1.cha'
p29
aS'solutions_only_eaten/HSLLD/HV1/MT/kurmt1.cha'
p30
aS'solutions_only_eaten/HSLLD/HV1/MT/seamt1.cha'
p31
aS'solutions_only_eaten/HSLLD/HV1/MT/vicmt1.cha'
p32
aS'solutions_only_eaten/HSLLD/HV1/MT/megmt1.cha'
p33
aS'solutions_only_eaten/HSLLD/HV2/MT/zenmt2.cha'
p34
aS'solutions_only_eaten/HSLLD/HV2/MT/inamt2.cha'
p35
aS'solutions_only_eaten/HSLLD/HV2/MT/kurmt2.cha'
p36
aS'solutions_only_eaten/HSLLD/HV2/MT/vicmt2.cha'
p37
aS'solutions_only_eaten/HSLLD/HV2/MT/rosmt2.cha'
p38
aS'solutions_only_eaten/HSLLD/HV2/MT/ethmt2.cha'
p39
aS'solutions_only_eaten/HSLLD/HV2/MT/diamt2.cha'
p40
aS'solutions_only_eaten/HSLLD/HV2/MT/catmt2.cha'
p41
aS'solutions_only_eaten/HSLLD/HV2/MT/seamt2.cha'
p42
aS'solutions_only_eaten/HSLLD/HV2/MT/karmt2.cha'
p43
aS'solutions_only_eaten/HSLLD/HV2/MT/megmt2.cha'
p44
aS'solutions_only_eaten/HSLLD/HV2/MT/petmt2.cha'
p45
aS'solutions_only_eaten/HSLLD/HV2/MT/stnmt2.cha'
p46
aS'solutions_only_eaten/HSLLD/HV2/MT/brnmt2.cha'
p47
aS'solutions_only_eaten/HSLLD/HV7/MT/jebmt7.cha'
p48
aS'solutions_only_eaten/HSLLD/HV7/MT/tommt7.cha'
p49
aS'solutions_only_eaten/HSLLD/HV7/MT/admmt7.cha'
p50
aS'solutions_only_eaten/HSLLD/HV7/MT/allmt7.cha'
p51
aS'solutions_only_eaten/HSLLD/HV7/MT/davmt7.cha'
p52
a.