(lp0
S'solutions/HSLLD/HV5/MT/kurmt5.cha'
p1
aS'solutions/HSLLD/HV5/MT/shlmt5.cha'
p2
aS'solutions/HSLLD/HV5/MT/davmt5.cha'
p3
aS'solutions/HSLLD/HV5/MT/zenmt5.cha'
p4
aS'solutions/HSLLD/HV5/MT/bramt5.cha'
p5
aS'solutions/HSLLD/HV1/MT/gremt1.cha'
p6
aS'solutions/HSLLD/HV1/MT/brnmt1.cha'
p7
aS'solutions/HSLLD/HV1/MT/diamt1.cha'
p8
aS'solutions/HSLLD/HV1/MT/annmt1.cha'
p9
aS'solutions/HSLLD/HV1/MT/maymt1.cha'
p10
aS'solutions/HSLLD/HV1/MT/tamtp1.cha'
p11
aS'solutions/HSLLD/HV1/MT/zenmt1.cha'
p12
aS'solutions/HSLLD/HV1/MT/anamt1.cha'
p13
aS'solutions/HSLLD/HV1/MT/casmt1.cha'
p14
aS'solutions/HSLLD/HV1/MT/emimt1.cha'
p15
aS'solutions/HSLLD/HV1/MT/ethmt1.cha'
p16
aS'solutions/HSLLD/HV1/MT/gilmt1.cha'
p17
aS'solutions/HSLLD/HV1/MT/kurmt1.cha'
p18
aS'solutions/HSLLD/HV1/MT/seamt1.cha'
p19
aS'solutions/HSLLD/HV1/MT/jacmt1.cha'
p20
aS'solutions/HSLLD/HV1/MT/admmt1.cha'
p21
aS'solutions/HSLLD/HV1/MT/brimt1.cha'
p22
aS'solutions/HSLLD/HV1/MT/davmt1.cha'
p23
aS'solutions/HSLLD/HV1/MT/geomt1.cha'
p24
aS'solutions/HSLLD/HV1/MT/vicmt1.cha'
p25
aS'solutions/HSLLD/HV1/MT/megmt1.cha'
p26
aS'solutions/HSLLD/HV1/MT/guymt1.cha'
p27
aS'solutions/HSLLD/HV1/MT/brtmt1.cha'
p28
aS'solutions/HSLLD/HV1/MT/allmt1.cha'
p29
aS'solutions/HSLLD/HV1/MT/bramt1.cha'
p30
aS'solutions/HSLLD/HV1/MT/conmt1.cha'
p31
aS'solutions/HSLLD/HV1/MT/aimmt1.cha'
p32
aS'solutions/HSLLD/HV1/MT/aprmt1.cha'
p33
aS'solutions/HSLLD/HV2/MT/vicmt2.cha'
p34
aS'solutions/HSLLD/HV2/MT/ethmt2.cha'
p35
aS'solutions/HSLLD/HV2/MT/stnmt2.cha'
p36
aS'solutions/HSLLD/HV7/MT/jebmt7.cha'
p37
aS'solutions/HSLLD/HV7/MT/tommt7.cha'
p38
aS'solutions/HSLLD/HV7/MT/admmt7.cha'
p39
aS'solutions/HSLLD/HV7/MT/allmt7.cha'
p40
aS'solutions/HSLLD/HV7/MT/davmt7.cha'
p41
a.