(lp0
S'solutions_only_eaten/HSLLD/HV1/MT/maymt1.cha'
p1
aS'solutions_only_eaten/HSLLD/HV1/MT/tamtp1.cha'
p2
aS'solutions_only_eaten/HSLLD/HV1/MT/zenmt1.cha'
p3
aS'solutions_only_eaten/HSLLD/HV1/MT/kurmt1.cha'
p4
aS'solutions_only_eaten/HSLLD/HV1/MT/seamt1.cha'
p5
aS'solutions_only_eaten/HSLLD/HV7/MT/jebmt7.cha'
p6
aS'solutions_only_eaten/HSLLD/HV7/MT/tommt7.cha'
p7
aS'solutions_only_eaten/HSLLD/HV7/MT/admmt7.cha'
p8
aS'solutions_only_eaten/HSLLD/HV7/MT/allmt7.cha'
p9
aS'solutions_only_eaten/HSLLD/HV7/MT/davmt7.cha'
p10
a.