(dp0
I0
(lp1
(S'xxx'
p2
S'E'
p3
F0.6498
tp4
a(S'say'
p5
S'V'
p6
F0.997
tp7
a(S'you'
p8
S'O'
p9
F0.9995
tp10
a(S'know'
p11
g6
F0.9994
tp12
a(S'that'
p13
g9
F0.836
tp14
asI1
(lp15
(S'this'
p16
g9
F0.9521
tp17
a(S'is'
p18
g6
F0.9947
tp19
asI2
(lp20
(S'xxx'
p21
g3
F0.8437
tp22
asI3
(lp23
(S'cross'
p24
g6
F0.763
tp25
a(S'off'
p26
S'T'
p27
F0.5774
tp28
a(S'the'
p29
S'D'
p30
F0.9999
tp31
a(S'thing'
p32
S'N'
p33
F0.9986
tp34
a(S'that'
p35
S'P'
p36
F0.9256
tp37
a(S'doesn'
p38
g6
F0.9503
tp39
a(S't'
p40
g33
F0.2059
tp41
a(S'belong'
p42
g6
F0.9819
tp43
asI4
(lp44
(S'this'
p45
g9
F0.9521
tp46
a(S'is'
p47
g6
F0.9941
tp48
a(S'one'
p49
S'$'
p50
F0.7018
tp51
asI5
(lp52
(S'well'
p53
S'!'
p54
F0.6617
tp55
a(S'says'
p56
g6
F0.996
tp57
a(S'she'
p58
g9
F0.9973
tp59
a(S'didn'
p60
g6
F0.9683
tp61
a(g40
g6
F0.7413
tp62
a(S'talk'
p63
g6
F0.9676
tp64
a(S'to'
p65
g36
F0.9897
tp66
a(S'xxx'
p67
g6
F0.5004
tp68
a(S'sis'
p69
g33
F0.8702
tp70
a(S'she'
p71
g9
F0.9914
tp72
a(S'gotta'
p73
g6
F0.9993
tp74
a(S'tell'
p75
g6
F0.999
tp76
a(S'you'
p77
g9
F0.9993
tp78
a(S'something'
p79
g33
F0.9263
tp80
asI6
(lp81
(S'xxx'
p82
g3
F0.7217
tp83
a(S'doesn'
p84
g6
F0.9262
tp85
a(g40
g33
F0.2764
tp86
a(S'know'
p87
g6
F0.9915
tp88
a(S'what'
p89
g9
F0.9805
tp90
a(S'she'
p91
g9
F0.9974
tp92
a(S's'
p93
g6
F0.5766
tp94
a(S'doing'
p95
g6
F0.9953
tp96
asI7
(lp97
(S'0'
p98
g50
F0.9644
tp99
a(S'clears'
p100
g6
F0.8351
tp101
a(S'throat'
p102
g33
F0.9556
tp103
asI8
(lp104
(S'you'
p105
g9
F0.9968
tp106
a(S'gotta'
p107
g6
F0.9996
tp108
a(S'tell'
p109
g6
F0.9993
tp110
a(S'me'
p111
g9
F0.999
tp112
a(S'something'
p113
g33
F0.9213
tp114
asI9
(lp115
(S'no'
p116
g54
F0.9253
tp117
asI10
(lp118
(S'so'
p119
g36
F0.9008
tp120
a(S'she'
p121
g9
F0.9978
tp122
a(S'just'
p123
S'R'
p124
F0.9999
tp125
a(S'talked'
p126
g6
F0.9975
tp127
a(S'to'
p128
g36
F0.9794
tp129
a(S'xxx'
p130
g6
F0.6449
tp131
a(S'she'
p132
g9
F0.9982
tp133
a(S'gonna'
p134
g6
F0.9992
tp135
a(S'tell'
p136
g6
F0.9996
tp137
a(S'you'
p138
g9
F0.9991
tp139
a(S'something'
p140
g33
F0.9524
tp141
asI11
(lp142
(S'when'
p143
g124
F0.9619
tp144
a(S'she'
p145
g9
F0.9978
tp146
a(S'gets'
p147
g6
F0.9998
tp148
a(S'in'
p149
g36
F0.7786
tp150
asI12
(lp151
(S'mhm'
p152
g54
F0.9747
tp153
asI13
(lp154
(S'here'
p155
g124
F0.7796
tp156
asI14
(lp157
(S'hello'
p158
g54
F0.9965
tp159
asI15
(lp160
(S'you'
p161
g9
F0.9929
tp162
a(S'there'
p163
g124
F0.812
tp164
asI16
(lp165
(S'what'
p166
g9
F0.9461
tp167
a(S'you'
p168
g9
F0.9995
tp169
a(S'looking'
p170
g6
F0.9988
tp171
a(S'for'
p172
g36
F0.9961
tp173
a(S'xxx'
p174
g3
F0.6627
tp175
asI17
(lp176
(S'xxx'
p177
g3
F0.6814
tp178
a(S'birthday'
p179
g33
F0.9955
tp180
a(S'is'
p181
g6
F0.9931
tp182
a(S'sunday'
p183
S'^'
p184
F0.6832
tp185
asI18
(lp186
(S'chi'
p187
g184
F0.6564
tp188
a(S'give'
p189
g6
F0.948
tp190
a(S'fireball'
p191
g33
F0.732
tp192
a(S'the'
p193
g30
F0.9983
tp194
a(S'dog'
p195
g33
F0.9973
tp196
a(S'some'
p197
g30
F0.9655
tp198
a(S'water'
p199
g33
F0.9859
tp200
asI19
(lp201
(S'well'
p202
g54
F0.8573
tp203
a(S'i'
p204
g9
F0.9928
tp205
a(S'don'
p206
g6
F0.9162
tp207
a(g40
g33
F0.2903
tp208
a(S'know'
p209
g6
F0.9882
tp210
asI20
(lp211
(S'for'
p212
g36
F0.9962
tp213
a(S'got'
p214
g6
F0.9856
tp215
a(S'how'
p216
g124
F0.9444
tp217
a(S'they'
p218
g9
F0.9935
tp219
a(S'get'
p220
g6
F0.9998
tp221
a(S'to'
p222
g36
F0.996
tp223
a(S'his'
p224
g30
F0.9957
tp225
a(S'house'
p226
g33
F0.9917
tp227
a(S'be'
p228
g6
F0.9865
tp229
a(S'cause'
p230
g36
F0.9727
tp231
a(S'he'
p232
g9
F0.9984
tp233
a(S'was'
p234
g6
F0.9998
tp235
a(S'lives'
p236
g6
F0.4919
tp237
a(S'far'
p238
g124
F0.989
tp239
a(S'away'
p240
g124
F0.9771
tp241
asI21
(lp242
(S'see'
p243
g6
F0.958
tp244
a(S'we'
p245
g9
F0.9946
tp246
a(S'could'
p247
g6
F0.9997
tp248
a(S'walk'
p249
g6
F0.9691
tp250
a(S'there'
p251
g124
F0.9074
tp252
asI22
(lp253
(S'huh'
p254
g54
F0.993
tp255
asI23
(lp256
(S'cocoa'
p257
g33
F0.9577
tp258
a(S'puffs'
p259
g33
F0.967
tp260
asI24
(lp261
(S'you'
p262
g9
F0.9977
tp263
a(S'heard'
p264
g6
F0.9979
tp265
a(S'chi'
p266
g184
F0.5826
tp267
asI25
(lp268
(S'okay'
p269
g54
F0.9857
tp270
asI26
(lp271
(S'cocoa'
p272
g33
F0.9577
tp273
a(S'puffs'
p274
g33
F0.967
tp275
asI27
(lp276
(S'have'
p277
g6
F0.9636
tp278
a(S'th'
p279
g33
F0.288
tp280
a(S'em'
p281
g9
F0.9053
tp282
asI28
(lp283
(S'you'
p284
g9
F0.9963
tp285
a(S'call'
p286
g6
F0.9994
tp287
a(S'them'
p288
g9
F0.9266
tp289
a(S'xxx'
p290
g3
F0.5394
tp291
a(g204
g9
F0.985
tp292
a(S'said'
p293
g6
F0.9989
tp294
a(g204
g9
F0.9961
tp295
a(S'missed'
p296
g6
F1.0
tp297
a(S'you'
p298
g9
F0.9971
tp299
asI29
(lp300
(g204
g9
F0.9853
tp301
a(S'give'
p302
g6
F0.9999
tp303
a(S'this'
p304
g9
F0.8865
tp305
a(S'to'
p306
g36
F0.9737
tp307
a(S'xxx'
p308
g3
F0.5025
tp309
asI30
(lp310
(S'hey'
p311
g54
F0.9951
tp312
a(S'you'
p313
g9
F0.9904
tp314
a(S'two'
p315
g50
F0.7703
tp316
asI31
(lp317
(S'xxx'
p318
g3
F0.6388
tp319
a(S'said'
p320
g6
F0.9957
tp321
a(S'that'
p322
g36
F0.8569
tp323
a(S'she'
p324
g9
F0.9979
tp325
a(S'll'
p326
g124
F0.4734
tp327
a(S'call'
p328
g6
F0.997
tp329
a(S'you'
p330
g9
F0.9991
tp331
a(S'back'
p332
g124
F0.9046
tp333
a(S'and'
p334
S'&'
p335
F0.9986
tp336
a(S'talk'
p337
g6
F0.9606
tp338
a(S'to'
p339
g36
F0.9984
tp340
a(S'you'
p341
g9
F0.999
tp342
a(S'later'
p343
g124
F0.9161
tp344
asI32
(lp345
(S'mm'
p346
g54
F0.4764
tp347
a(S'well'
p348
g54
F0.9729
tp349
asI33
(lp350
(S'mhm'
p351
g54
F0.9747
tp352
asI34
(lp353
(S'you'
p354
g9
F0.9911
tp355
a(S'didn'
p356
g6
F0.9886
tp357
a(g40
g6
F0.7941
tp358
a(S'eat'
p359
g6
F0.9823
tp360
a(S'nothin'
p361
g33
F0.9821
tp362
a(S'g'
p363
g36
F0.3621
tp364
a(S'they'
p365
g9
F0.953
tp366
a(S're'
p367
g6
F0.7994
tp368
a(S'eatin'
p369
g6
F0.6891
tp370
a(g363
S'G'
p371
F0.2566
tp372
a(S'cereal'
p373
g33
F0.9359
tp374
asI35
(lp375
(S'hm'
p376
g54
F0.995
tp377
asI36
(lp378
(S'xxx'
p379
g3
F0.6645
tp380
a(S'cocoa'
p381
g33
F0.9821
tp382
a(S'puffs'
p383
g33
F0.9752
tp384
asI37
(lp385
(S'hey'
p386
g54
F0.9951
tp387
a(S'you'
p388
g9
F0.9903
tp389
asI38
(lp390
(S'mm'
p391
g30
F0.2801
tp392
a(S'cocoa'
p393
g33
F0.9901
tp394
a(S'puffs'
p395
g33
F0.9752
tp396
asI39
(lp397
(S'mm'
p398
g30
F0.2801
tp399
a(S'cocoa'
p400
g33
F0.9901
tp401
a(S'puffs'
p402
g33
F0.9752
tp403
asI40
(lp404
(S'ain'
p405
g6
F0.4641
tp406
a(g40
g6
F0.429
tp407
a(S'cocoa'
p408
g33
F0.9734
tp409
a(S'puffs'
p410
g33
F0.9368
tp411
a(S'good'
p412
S'A'
p413
F0.9737
tp414
asI41
(lp415
(S'who'
p416
g9
F0.9764
tp417
asI42
(lp418
(S'xxx'
p419
g3
F0.8437
tp420
asI43
(lp421
(S'cocoa'
p422
g33
F0.9577
tp423
a(S'puffs'
p424
g33
F0.967
tp425
asI44
(lp426
(S'cocoa'
p427
g33
F0.9361
tp428
asI45
(lp429
(S'cocoa'
p430
g33
F0.9234
tp431
a(S'puffs'
p432
g33
F0.9023
tp433
a(S'www'
p434
g33
F0.7465
tp435
a(S'cocoa'
p436
g33
F0.9982
tp437
a(S'puffs'
p438
g33
F0.9438
tp439
asI46
(lp440
(S'cocoa'
p441
g33
F0.9458
tp442
a(S'cocoa'
p443
g33
F0.9979
tp444
a(S'puffs'
p445
g33
F0.9752
tp446
asI47
(lp447
(S'cocoa'
p448
g33
F0.9577
tp449
a(S'puffs'
p450
g33
F0.967
tp451
asI48
(lp452
(S'www'
p453
g184
F0.3889
tp454
asI49
(lp455
(S'cocoa'
p456
g33
F0.9361
tp457
asI50
(lp458
(S'cocoa'
p459
g33
F0.9577
tp460
a(S'puffs'
p461
g33
F0.967
tp462
asI51
(lp463
(S'whoo'
p464
g54
F0.9741
tp465
a(S'o'
p466
g54
F0.8384
tp467
asI52
(lp468
(S'cocoa'
p469
g33
F0.9577
tp470
a(S'puffs'
p471
g33
F0.967
tp472
asI53
(lp473
(S'we'
p474
g9
F0.9945
tp475
a(S'never'
p476
g124
F0.993
tp477
a(S'have'
p478
g6
F0.9921
tp479
a(S'cocoa'
p480
g33
F0.9898
tp481
a(S'puffs'
p482
g33
F0.949
tp483
a(S'before'
p484
g36
F0.9675
tp485
a(S'in'
p486
g36
F0.9813
tp487
a(S'our'
p488
g30
F0.9979
tp489
a(S'life'
p490
g33
F0.9973
tp491
asI54
(lp492
(S'xxx'
p493
g3
F0.8437
tp494
asI55
(lp495
(g204
g9
F0.9912
tp496
a(S'know'
p497
g6
F0.9989
tp498
asI56
(lp499
(S'in'
p500
g36
F0.9558
tp501
a(S'day'
p502
g33
F0.9945
tp503
asI57
(lp504
(S'this'
p505
g9
F0.9526
tp506
a(S'is'
p507
g6
F0.9989
tp508
a(S'the'
p509
g30
F0.9995
tp510
a(S'first'
p511
g413
F0.9951
tp512
a(S'time'
p513
g33
F0.9974
tp514
a(S'we'
p515
g9
F0.988
tp516
a(S'have'
p517
g6
F0.9976
tp518
a(S'cocoa'
p519
g33
F0.9903
tp520
a(S'puffs'
p521
g33
F0.9694
tp522
asI58
(lp523
(S'get'
p524
g6
F0.9933
tp525
a(S'outta'
p526
g36
F0.9587
tp527
a(S'd'
p528
g33
F0.6534
tp529
a(S'out'
p530
g36
F0.9028
tp531
a(S'of'
p532
g36
F0.9653
tp533
a(S'here'
p534
g124
F0.9078
tp535
asI59
(lp536
(S'first'
p537
g413
F0.9762
tp538
a(S'time'
p539
g33
F0.9979
tp540
asI60
(lp541
(S'first'
p542
g413
F0.9762
tp543
a(S'time'
p544
g33
F0.9961
tp545
a(S'cocoa'
p546
g33
F0.9936
tp547
asI61
(lp548
(S'cocoa'
p549
g33
F0.9577
tp550
a(S'puffs'
p551
g33
F0.967
tp552
asI62
(lp553
(S'xxx'
p554
g3
F0.663
tp555
a(S'can'
p556
g6
F0.9886
tp557
a(g40
g6
F0.7034
tp558
a(S'get'
p559
g6
F0.9987
tp560
a(S'this'
p561
g9
F0.9113
tp562
a(S'up'
p563
g27
F0.9664
tp564
a(S'xxx'
p565
g3
F0.7941
tp566
asI63
(lp567
(S'so'
p568
g36
F0.7512
tp569
a(S'that'
p570
g36
F0.5285
tp571
a(S'we'
p572
g9
F0.9989
tp573
a(S'have'
p574
g6
F0.9996
tp575
a(S'to'
p576
g36
F0.9965
tp577
a(S'climb'
p578
g6
F0.9956
tp579
a(S'chairs'
p580
g33
F0.9378
tp581
a(S'to'
p582
g36
F0.9962
tp583
a(S'xxx'
p584
g3
F0.4666
tp585
asI64
(lp586
(S'sis'
p587
g33
F0.6134
tp588
a(S'you'
p589
g9
F0.9957
tp590
a(S'can'
p591
g6
F0.9997
tp592
a(S'sit'
p593
g6
F0.9982
tp594
a(S'with'
p595
g36
F0.995
tp596
a(S'me'
p597
g9
F0.9986
tp598
asI65
(lp599
(S'let'
p600
g6
F0.9975
tp601
a(S'me'
p602
g9
F0.9985
tp603
a(S'move'
p604
g6
F0.9596
tp605
a(S'that'
p606
g30
F0.6739
tp607
a(S'chair'
p608
g33
F0.9905
tp609
a(S'ove'
p610
g36
F0.6245
tp611
a(S'r'
p612
g6
F0.6624
tp613
asI66
(lp614
(S'cocoa'
p615
g33
F0.9491
tp616
a(S'xxx'
p617
g3
F0.7015
tp618
asI67
(lp619
(S'sis'
p620
g33
F0.6134
tp621
a(S'you'
p622
g9
F0.9955
tp623
a(S'wanna'
p624
g6
F0.9979
tp625
a(S'sit'
p626
g6
F0.9962
tp627
a(S'with'
p628
g36
F0.995
tp629
a(S'me'
p630
g9
F0.9986
tp631
asI68
(lp632
(S'sis'
p633
g33
F0.8919
tp634
a(S'come'
p635
g6
F0.9973
tp636
a(S'over'
p637
g36
F0.4352
tp638
a(S'here'
p639
g124
F0.9874
tp640
a(S'and'
p641
g335
F0.9968
tp642
a(S'sit'
p643
g6
F0.9707
tp644
asI69
(lp645
(S'tape'
p646
g33
F0.9841
tp647
a(S'recorder'
p648
g33
F0.9953
tp649
asI70
(lp650
(S'hello'
p651
g54
F0.9965
tp652
asI71
(lp653
(S'tape'
p654
g33
F0.9722
tp655
a(S'recorde'
p656
g33
F0.2967
tp657
a(g612
g6
F0.6595
tp658
asI72
(lp659
(S'cut'
p660
g6
F0.8288
tp661
a(S'it'
p662
g9
F0.9928
tp663
a(S'out'
p664
g27
F0.9729
tp665
asI73
(lp666
(S'so'
p667
g36
F0.8338
tp668
a(S'you'
p669
g9
F0.9904
tp670
a(S'sis'
p671
g33
F0.8295
tp672
a(S'wanna'
p673
g6
F0.985
tp674
a(S'sit'
p675
g6
F0.9988
tp676
a(S'with'
p677
g36
F0.9973
tp678
a(S'me'
p679
g9
F0.998
tp680
asI74
(lp681
(S'sit'
p682
g6
F0.9825
tp683
a(S'down'
p684
g27
F0.9271
tp685
asI75
(lp686
(S'she'
p687
g9
F0.9971
tp688
a(S'said'
p689
g6
F0.9991
tp690
a(S'no'
p691
g54
F0.4073
tp692
a(S'sit'
p693
g6
F0.9024
tp694
a(S'with'
p695
g36
F0.995
tp696
a(S'me'
p697
g9
F0.9656
tp698
a(S'sis'
p699
g33
F0.7708
tp700
asI76
(lp701
(S'sit'
p702
g6
F0.964
tp703
a(S'with'
p704
g36
F0.9962
tp705
a(S'me'
p706
g9
F0.9987
tp707
asI77
(lp708
(S'where'
p709
g124
F0.9493
tp710
asI78
(lp711
(S'that'
p712
g9
F0.473
tp713
a(g93
g6
F0.587
tp714
a(S'my'
p715
g30
F0.9962
tp716
a(S'place'
p717
g33
F0.9985
tp718
asI79
(lp719
(S'that'
p720
g9
F0.473
tp721
a(g93
g6
F0.6131
tp722
a(S'my'
p723
g30
F0.9954
tp724
a(S'stool'
p725
g33
F0.9987
tp726
a(S'there'
p727
g124
F0.8014
tp728
asI80
(lp729
(S'now'
p730
g124
F0.9804
tp731
a(S'we'
p732
g9
F0.998
tp733
a(S'have'
p734
g6
F0.9999
tp735
a(S'a'
p736
g30
F0.9981
tp737
a(S'bigger'
p738
g413
F0.9926
tp739
a(S'space'
p740
g33
F0.9951
tp741
a(S'sis'
p742
g33
F0.9753
tp743
asI81
(lp744
(S'hey'
p745
g54
F0.9866
tp746
a(S'now'
p747
g124
F0.9537
tp748
a(S'we'
p749
g9
F0.9914
tp750
a(S're'
p751
g33
F0.5577
tp752
a(S'locked'
p753
g6
F0.9961
tp754
a(S'in'
p755
g36
F0.6451
tp756
asI82
(lp757
(S'okay'
p758
g54
F0.7684
tp759
a(S'www'
p760
g184
F0.6016
tp761
a(S'laughs'
p762
g6
F0.7495
tp763
asI83
(lp764
(S'what'
p765
g9
F0.9784
tp766
a(g93
g371
F0.5769
tp767
a(S'so'
p768
g124
F0.9327
tp769
a(S'funny'
p770
g413
F0.9991
tp771
asI84
(lp772
(S'that'
p773
g30
F0.7218
tp774
a(S'cocoa'
p775
g33
F0.992
tp776
a(S'puff'
p777
g33
F0.9978
tp778
a(S'xxx'
p779
g3
F0.7415
tp780
asI85
(lp781
(S'cocoa'
p782
g33
F0.9709
tp783
a(S'pop'
p784
g33
F0.9655
tp785
a(S'xxx'
p786
g3
F0.653
tp787
asI86
(lp788
(S'cocoa'
p789
g33
F0.9458
tp790
a(S'pie'
p791
g33
F0.9959
tp792
asI87
(lp793
(S'watch'
p794
g6
F0.9118
tp795
a(S'what'
p796
g9
F0.9801
tp797
a(S'you'
p798
g9
F0.9964
tp799
a(S're'
p800
g6
F0.5685
tp801
a(S'doin'
p802
g6
F0.9838
tp803
a(g363
g33
F0.3372
tp804
asI88
(lp805
(S'be'
p806
g6
F0.9727
tp807
a(S'cause'
p808
g36
F0.9443
tp809
a(S'you'
p810
g9
F0.9965
tp811
a(S're'
p812
g6
F0.5762
tp813
a(S'gonna'
p814
g6
F0.9926
tp815
a(S'make'
p816
g6
F0.9995
tp817
a(g736
g30
F0.9948
tp818
a(S'mess'
p819
g33
F0.9898
tp820
a(S'sis'
p821
g33
F0.9808
tp822
asI89
(lp823
(S'fireball'
p824
g33
F0.8734
tp825
asI90
(lp826
(g204
g9
F0.953
tp827
a(S'm'
p828
g6
F0.9629
tp829
a(S'gonna'
p830
g6
F0.9948
tp831
a(S'see'
p832
g6
F0.9995
tp833
a(g736
g30
F0.9981
tp834
a(S'cocoa'
p835
g33
F0.9973
tp836
a(S'pop'
p837
g33
F0.9445
tp838
a(S'tree'
p839
g33
F0.9967
tp840
asI91
(lp841
(S'cocoa'
p842
g33
F0.9709
tp843
a(S'pop'
p844
g33
F0.9429
tp845
a(S'tree'
p846
g33
F0.9979
tp847
asI92
(lp848
(g736
g30
F0.995
tp849
a(S'pig'
p850
g33
F0.9905
tp851
a(S'ain'
p852
g6
F0.7285
tp853
a(g40
g6
F0.5201
tp854
a(S'supposed'
p855
g413
F0.8059
tp856
a(S'to'
p857
g36
F0.9989
tp858
a(S'eat'
p859
g6
F0.9903
tp860
a(S'cocoa'
p861
g33
F0.989
tp862
a(S'pop'
p863
g33
F0.9614
tp864
asI93
(lp865
(g736
g30
F0.995
tp866
a(S'pig'
p867
g33
F0.9835
tp868
a(g93
g371
F0.7488
tp869
a(S'not'
p870
g124
F0.995
tp871
a(S'supposed'
p872
g413
F0.6677
tp873
a(S'to'
p874
g36
F0.9989
tp875
a(S'eat'
p876
g6
F0.9928
tp877
a(S'cocoa'
p878
g33
F0.9794
tp879
a(S'pops'
p880
g33
F0.7525
tp881
a(S'either'
p882
g30
F0.7485
tp883
a(S'sis'
p884
g33
F0.9829
tp885
asI94
(lp886
(g736
g30
F0.995
tp887
a(S'duck'
p888
g33
F0.9987
tp889
a(S'goes'
p890
g6
F0.977
tp891
a(S'swimming'
p892
g6
F0.7911
tp893
a(S'in'
p894
g36
F0.9923
tp895
a(S'the'
p896
g30
F0.9993
tp897
a(S'water'
p898
g33
F0.9953
tp899
a(S'with'
p900
g36
F0.9997
tp901
a(g736
g30
F0.9933
tp902
a(S'skate'
p903
g33
F0.8868
tp904
a(S'board'
p905
g33
F0.9906
tp906
asI95
(lp907
(g204
g9
F0.9912
tp908
a(S'know'
p909
g6
F0.9989
tp910
asI96
(lp911
(S'or'
p912
g335
F0.9836
tp913
a(S'that'
p914
g9
F0.4858
tp915
a(S'hen'
p916
g6
F0.3108
tp917
a(S'will'
p918
g6
F0.9886
tp919
a(S'lay'
p920
g6
F0.998
tp921
a(g736
g30
F0.9969
tp922
a(S'mouse'
p923
g33
F0.9905
tp924
asI97
(lp925
(S'hen'
p926
g184
F0.6463
tp927
a(S'don'
p928
g184
F0.8927
tp929
a(g40
g184
F0.5798
tp930
a(S'lay'
p931
g6
F0.8058
tp932
a(S'no'
p933
g30
F0.9769
tp934
a(S'mouse'
p935
g33
F0.9992
tp936
asI98
(lp937
(g736
g30
F0.9928
tp938
a(S'turkey'
p939
g33
F0.9904
tp940
a(S'wore'
p941
g6
F0.9439
tp942
a(S'oh'
p943
g54
F0.9687
tp944
a(g736
g30
F0.9844
tp945
a(S'turkey'
p946
g33
F0.9912
tp947
a(S'wore'
p948
g6
F0.9932
tp949
a(g736
g30
F0.9902
tp950
a(S'bow'
p951
g33
F0.8642
tp952
asI99
(lp953
(S'laughs'
p954
g6
F0.9102
tp955
asI100
(lp956
(S'oh'
p957
g54
F0.9914
tp958
a(S'sis'
p959
g33
F0.8278
tp960
a(S'look'
p961
g6
F0.9212
tp962
a(S'at'
p963
g36
F0.9974
tp964
a(S'that'
p965
g30
F0.9696
tp966
a(S'thing'
p967
g33
F0.9975
tp968
asI101
(lp969
(S'oh'
p970
g54
F0.9988
tp971
asI102
(lp972
(S'or'
p973
g335
F0.9824
tp974
a(S'the'
p975
g30
F0.9988
tp976
a(S'ducks'
p977
g33
F0.7518
tp978
a(S'have'
p979
g6
F0.9974
tp980
a(g736
g30
F0.9987
tp981
a(S'hat'
p982
g33
F0.9898
tp983
asI103
(lp984
(S'or'
p985
g335
F0.9941
tp986
a(S'this'
p987
g9
F0.9174
tp988
a(S'has'
p989
g6
F0.992
tp990
a(S'glasses'
p991
g33
F0.9645
tp992
asI104
(lp993
(g204
g9
F0.9805
tp994
a(S'never'
p995
g124
F0.9908
tp996
a(S'saw'
p997
g6
F0.9992
tp998
a(g736
g30
F0.9974
tp999
a(S'cow'
p1000
g33
F0.9949
tp1001
a(S'with'
p1002
g36
F0.9987
tp1003
a(S'glasses'
p1004
g33
F0.9355
tp1005
asI105
(lp1006
(S'hey'
p1007
g54
F0.9959
tp1008
a(S'look'
p1009
g6
F0.8071
tp1010
asI106
(lp1011
(S'somebody'
p1012
g33
F0.9368
tp1013
a(g93
g371
F0.4636
tp1014
a(S'in'
p1015
g36
F0.9931
tp1016
a(S'the'
p1017
g30
F0.9966
tp1018
a(S'somebody'
p1019
g33
F0.9968
tp1020
a(g93
g371
F0.483
tp1021
a(S'in'
p1022
g36
F0.9959
tp1023
a(S'the'
p1024
g30
F0.9988
tp1025
a(S'cup'
p1026
g33
F0.9888
tp1027
a(S'playing'
p1028
g6
F0.9968
tp1029
asI107
(lp1030
(S'stop'
p1031
g6
F0.8577
tp1032
a(S'sit'
p1033
g6
F0.9857
tp1034
a(S'down'
p1035
g27
F0.9538
tp1036
asI108
(lp1037
(S'what'
p1038
g9
F0.9674
tp1039
a(S'xxx'
p1040
g3
F0.3391
tp1041
a(S'see'
p1042
g6
F0.9443
tp1043
asI109
(lp1044
(S'stop'
p1045
g6
F0.9198
tp1046
a(S'eating'
p1047
g6
F0.9963
tp1048
a(S'like'
p1049
g36
F0.8318
tp1050
a(S'that'
p1051
g9
F0.912
tp1052
asI110
(lp1053
(S'hey'
p1054
g54
F0.9986
tp1055
asI111
(lp1056
(S'somebody'
p1057
g33
F0.9368
tp1058
a(g93
g371
F0.5238
tp1059
a(S'going'
p1060
g6
F0.9974
tp1061
a(S'to'
p1062
g36
F0.9845
tp1063
a(S'ruin'
p1064
g6
F0.9998
tp1065
a(S'this'
p1066
g30
F0.9557
tp1067
a(S'book'
p1068
g33
F0.9863
tp1069
asI112
(lp1070
(S'and'
p1071
g335
F0.9992
tp1072
a(S'this'
p1073
g30
F0.9223
tp1074
a(S'box'
p1075
g33
F0.9928
tp1076
asI113
(lp1077
(g736
g30
F0.9937
tp1078
a(S'house'
p1079
g33
F0.9852
tp1080
a(S'with'
p1081
g36
F0.999
tp1082
a(S'that'
p1083
g30
F0.9063
tp1084
a(S'sis'
p1085
g33
F0.9782
tp1086
asI114
(lp1087
(S'xxx'
p1088
g3
F0.8437
tp1089
asI115
(lp1090
(S'hey'
p1091
g54
F0.9959
tp1092
a(S'look'
p1093
g6
F0.832
tp1094
a(S'sis'
p1095
g33
F0.955
tp1096
asI116
(lp1097
(S'see'
p1098
g6
F0.9217
tp1099
a(S'see'
p1100
g6
F0.8634
tp1101
asI117
(lp1102
(S'maybe'
p1103
g124
F0.9445
tp1104
a(S'something'
p1105
g33
F0.9273
tp1106
a(g93
g371
F0.6751
tp1107
a(S'going'
p1108
g6
F0.9891
tp1109
a(S'on'
p1110
g27
F0.7731
tp1111
asI118
(lp1112
(S'no'
p1113
g54
F0.5116
tp1114
a(S'wonder'
p1115
g6
F0.4753
tp1116
asI119
(lp1117
(S'this'
p1118
g30
F0.5528
tp1119
a(S'don'
p1120
g33
F0.6425
tp1121
a(g40
g33
F0.4079
tp1122
a(S'belong'
p1123
g6
F0.975
tp1124
asI120
(lp1125
(S'hm'
p1126
g54
F0.995
tp1127
asI121
(lp1128
(S'this'
p1129
g30
F0.5528
tp1130
a(S'don'
p1131
g33
F0.6425
tp1132
a(g40
g33
F0.4079
tp1133
a(S'belong'
p1134
g6
F0.975
tp1135
asI122
(lp1136
(S'this'
p1137
g30
F0.5528
tp1138
a(S'don'
p1139
g33
F0.6425
tp1140
a(g40
g33
F0.4079
tp1141
a(S'belong'
p1142
g6
F0.975
tp1143
asI123
(lp1144
(S'hm'
p1145
g54
F0.995
tp1146
asI124
(lp1147
(S'and'
p1148
g335
F0.9984
tp1149
a(S'sunglasses'
p1150
g33
F0.9865
tp1151
a(S'definitely'
p1152
g124
F0.9996
tp1153
a(S'don'
p1154
g6
F0.6186
tp1155
a(g40
g6
F0.3199
tp1156
a(S'belong'
p1157
g6
F0.9867
tp1158
a(S'on'
p1159
g36
F0.9864
tp1160
a(S'the'
p1161
g30
F0.9993
tp1162
a(S'cow'
p1163
g33
F0.9957
tp1164
asI125
(lp1165
(S'even'
p1166
g124
F0.9586
tp1167
a(S'glasses'
p1168
g33
F0.6265
tp1169
asI126
(lp1170
(S'you'
p1171
g9
F0.9968
tp1172
a(S'wanna'
p1173
g6
F0.9985
tp1174
a(S'see'
p1175
g6
F0.9946
tp1176
a(S'cocoa'
p1177
g33
F0.9769
tp1178
a(S'pops'
p1179
g33
F0.945
tp1180
a(S'xxx'
p1181
g3
F0.7987
tp1182
asI127
(lp1183
(S'mhm'
p1184
g54
F0.9747
tp1185
asI128
(lp1186
(S'cocoa'
p1187
g33
F0.9709
tp1188
a(S'pop'
p1189
g33
F0.9607
tp1190
asI129
(lp1191
(S'hey'
p1192
g54
F0.9986
tp1193
asI130
(lp1194
(S'that'
p1195
g9
F0.6755
tp1196
a(S'supposed'
p1197
g413
F0.6283
tp1198
a(S'to'
p1199
g36
F0.9941
tp1200
a(S'go'
p1201
g6
F0.9986
tp1202
a(S'with'
p1203
g36
F0.9984
tp1204
a(S'him'
p1205
g9
F0.9866
tp1206
asI131
(lp1207
(S'that'
p1208
g9
F0.6755
tp1209
a(S'supposed'
p1210
g413
F0.6283
tp1211
a(S'to'
p1212
g36
F0.9941
tp1213
a(S'go'
p1214
g6
F0.9986
tp1215
a(S'with'
p1216
g36
F0.9984
tp1217
a(S'her'
p1218
g9
F0.6503
tp1219
asI132
(lp1220
(S'but'
p1221
g335
F0.9889
tp1222
a(S'that'
p1223
g9
F0.5755
tp1224
a(S'don'
p1225
g6
F0.551
tp1226
a(g40
g33
F0.2197
tp1227
a(S'go'
p1228
g6
F0.9964
tp1229
a(S'with'
p1230
g36
F0.9985
tp1231
a(S'that'
p1232
g9
F0.7241
tp1233
asI133
(lp1234
(S'hey'
p1235
g54
F0.998
tp1236
a(S'that'
p1237
g9
F0.8002
tp1238
a(g93
g371
F0.7819
tp1239
a(S'xxx'
p1240
g3
F0.6136
tp1241
asI134
(lp1242
(S'these'
p1243
g30
F0.9692
tp1244
a(S'kind'
p1245
g33
F0.9743
tp1246
a(S'of'
p1247
g36
F0.9963
tp1248
a(S'cocoa'
p1249
g33
F0.9696
tp1250
a(S'pop'
p1251
g33
F0.9904
tp1252
a(S'is'
p1253
g6
F0.9972
tp1254
a(S'not'
p1255
g124
F0.9995
tp1256
a(S'dark'
p1257
g413
F0.7562
tp1258
a(S'like'
p1259
g36
F0.973
tp1260
a(S'that'
p1261
g9
F0.8841
tp1262
asI135
(lp1263
(S'no'
p1264
g54
F0.9253
tp1265
asI136
(lp1266
(S'dark'
p1267
g33
F0.7796
tp1268
a(S'is'
p1269
g6
F0.9957
tp1270
a(S'darkly'
p1271
g124
F0.9442
tp1272
a(S'c'
p1273
g371
F0.5113
tp1274
asI137
(lp1275
(S'is'
p1276
g6
F0.9981
tp1277
a(S'that'
p1278
g9
F0.7297
tp1279
a(g736
g30
F0.9948
tp1280
a(S'dark'
p1281
g413
F0.5547
tp1282
a(S'like'
p1283
g36
F0.9636
tp1284
a(S'that'
p1285
g9
F0.9267
tp1286
asI138
(lp1287
(S'xxx'
p1288
g3
F0.6691
tp1289
a(S'kind'
p1290
g33
F0.8758
tp1291
a(S'of'
p1292
g36
F0.9945
tp1293
a(S'cocoa'
p1294
g33
F0.9796
tp1295
a(S'pop'
p1296
g33
F0.9285
tp1297
asI139
(lp1298
(S'it'
p1299
g9
F0.9888
tp1300
a(g93
g6
F0.4836
tp1301
a(S'dark'
p1302
g413
F0.6748
tp1303
a(S'like'
p1304
g36
F0.9819
tp1305
a(S'that'
p1306
g9
F0.869
tp1307
a(S'see'
p1308
g6
F0.9873
tp1309
asI140
(lp1310
(S'see'
p1311
g6
F0.8335
tp1312
asI141
(lp1313
(S'but'
p1314
g335
F0.9955
tp1315
a(S'ours'
p1316
g9
F0.9919
tp1317
a(S'are'
p1318
g6
F0.9951
tp1319
a(S'bigger'
p1320
g413
F0.9959
tp1321
a(S'than'
p1322
g36
F0.9989
tp1323
a(S'those'
p1324
g30
F0.8541
tp1325
a(S'little'
p1326
g413
F0.9992
tp1327
a(S'ones'
p1328
g33
F0.9729
tp1329
asI142
(lp1330
(S'see'
p1331
g6
F0.8335
tp1332
asI143
(lp1333
(S'it'
p1334
g9
F0.9888
tp1335
a(g93
g6
F0.4836
tp1336
a(S'dark'
p1337
g413
F0.6748
tp1338
a(S'like'
p1339
g36
F0.9849
tp1340
a(S'them'
p1341
g9
F0.9506
tp1342
a(S'right'
p1343
g124
F0.6305
tp1344
asI144
(lp1345
(S'mhm'
p1346
g54
F0.9747
tp1347
asI145
(lp1348
(S'but'
p1349
g335
F0.9954
tp1350
a(S'somebody'
p1351
g33
F0.9258
tp1352
a(g93
g371
F0.7112
tp1353
a(S'gonna'
p1354
g6
F0.9899
tp1355
a(S'know'
p1356
g6
F0.9997
tp1357
a(g736
g30
F0.852
tp1358
a(g736
g30
F0.6028
tp1359
a(S'xxx'
p1360
g371
F0.3277
tp1361
a(S'tr'
p1362
g371
F0.6249
tp1363
a(S'look'
p1364
g6
F0.9374
tp1365
asI146
(lp1366
(g736
g30
F0.917
tp1367
a(S'xxx'
p1368
g33
F0.4025
tp1369
asI147
(lp1370
(g736
g30
F0.992
tp1371
a(S'cocoa'
p1372
g33
F0.9898
tp1373
a(S'bed'
p1374
g33
F0.993
tp1375
asI148
(lp1376
(g204
g9
F0.9908
tp1377
a(S'know'
p1378
g6
F0.9998
tp1379
a(g736
g30
F0.9333
tp1380
a(S'xxx'
p1381
g3
F0.4385
tp1382
asI149
(lp1383
(S'huh'
p1384
g54
F0.993
tp1385
asI150
(lp1386
(S'mhm'
p1387
g54
F0.9599
tp1388
a(S'mhm'
p1389
g54
F0.986
tp1390
asI151
(lp1391
(S'xxx'
p1392
g3
F0.5295
tp1393
a(S'going'
p1394
g6
F0.9985
tp1395
a(S'around'
p1396
g36
F0.6241
tp1397
a(S'this'
p1398
g30
F0.9725
tp1399
a(S'book'
p1400
g33
F0.9836
tp1401
asI152
(lp1402
(S'that'
p1403
g9
F0.473
tp1404
a(g93
g371
F0.4403
tp1405
a(S'so'
p1406
g124
F0.9117
tp1407
a(S'silly'
p1408
g413
F0.9939
tp1409
asI153
(lp1410
(S'look'
p1411
g6
F0.8183
tp1412
asI154
(lp1413
(S'hi'
p1414
g54
F0.9674
tp1415
a(S'mr'
p1416
g184
F0.9191
tp1417
a(S'cow'
p1418
g33
F0.8596
tp1419
a(S'are'
p1420
g6
F0.9835
tp1421
a(S'you'
p1422
g9
F0.9987
tp1423
a(S'talkin'
p1424
g6
F0.9905
tp1425
a(g363
g6
F0.3767
tp1426
a(S'to'
p1427
g36
F0.9948
tp1428
a(S'me'
p1429
g9
F0.9983
tp1430
asI155
(lp1431
(S'huh'
p1432
g54
F0.993
tp1433
asI156
(lp1434
(S'hi'
p1435
g54
F0.9674
tp1436
a(S'mr'
p1437
g184
F0.725
tp1438
a(S'um'
p1439
g54
F0.5577
tp1440
a(S'moon'
p1441
g33
F0.9897
tp1442
asI157
(lp1443
(S'are'
p1444
g6
F0.9964
tp1445
a(S'you'
p1446
g9
F0.9985
tp1447
a(S'talkin'
p1448
g6
F0.9884
tp1449
a(g363
g371
F0.3102
tp1450
a(S'look'
p1451
g6
F0.9414
tp1452
asI158
(lp1453
(S'shoes'
p1454
g33
F0.9584
tp1455
a(S'on'
p1456
g36
F0.9978
tp1457
a(S'him'
p1458
g9
F0.992
tp1459
a(S'laughs'
p1460
g6
F0.9601
tp1461
asI159
(lp1462
(S'hi'
p1463
g54
F0.9674
tp1464
a(S'mr'
p1465
g184
F0.8052
tp1466
a(g204
g9
F0.9463
tp1467
a(S'dunno'
p1468
g6
F0.7382
tp1469
a(S'don'
p1470
g184
F0.3031
tp1471
a(g40
g184
F0.6835
tp1472
a(S'know'
p1473
g6
F0.944
tp1474
asI160
(lp1475
(g204
g9
F0.9756
tp1476
a(S'didn'
p1477
g6
F0.9919
tp1478
a(g40
g6
F0.7449
tp1479
a(S'know'
p1480
g6
F0.998
tp1481
a(S'you'
p1482
g9
F0.9962
tp1483
a(S'all'
p1484
g30
F0.858
tp1485
a(S'liked'
p1486
g6
F0.8136
tp1487
a(S'cocoa'
p1488
g33
F0.9716
tp1489
a(S'puffs'
p1490
g33
F0.9694
tp1491
asI161
(lp1492
(S'thought'
p1493
g6
F0.994
tp1494
a(S'you'
p1495
g9
F0.9956
tp1496
a(S'all'
p1497
g30
F0.9078
tp1498
a(S'didn'
p1499
g6
F0.436
tp1500
a(g40
g6
F0.8905
tp1501
a(S'like'
p1502
g36
F0.8752
tp1503
a(S'cocoa'
p1504
g33
F0.9845
tp1505
a(S'puffs'
p1506
g33
F0.9619
tp1507
asI162
(lp1508
(S'whoo'
p1509
g54
F0.992
tp1510
asI163
(lp1511
(S'please'
p1512
g6
F0.8727
tp1513
a(g204
g9
F0.9947
tp1514
a(S'love'
p1515
g6
F0.9997
tp1516
a(S'them'
p1517
g9
F0.9777
tp1518
asI164
(lp1519
(S'but'
p1520
g335
F0.993
tp1521
a(S'you'
p1522
g9
F0.9992
tp1523
a(S'just'
p1524
g124
F0.9998
tp1525
a(S'never'
p1526
g124
F0.9968
tp1527
a(S'buy'
p1528
g6
F0.9991
tp1529
a(S'them'
p1530
g9
F0.9729
tp1531
a(S'for'
p1532
g36
F0.9989
tp1533
a(S'us'
p1534
g9
F0.9887
tp1535
asI165
(lp1536
(S'mm'
p1537
g54
F0.627
tp1538
asI166
(lp1539
(g204
g9
F0.9583
tp1540
a(g204
g9
F0.9681
tp1541
a(S'say'
p1542
g6
F0.9998
tp1543
a(S'this'
p1544
g9
F0.7879
tp1545
a(S'for'
p1546
g36
F0.9942
tp1547
a(g204
g9
F0.997
tp1548
a(S'say'
p1549
g6
F0.9992
tp1550
a(S'save'
p1551
g6
F0.9922
tp1552
a(S'the'
p1553
g30
F0.9997
tp1554
a(S'pictures'
p1555
g33
F0.9784
tp1556
a(S'one'
p1557
g50
F0.9506
tp1558
a(S'and'
p1559
g335
F0.9986
tp1560
a(g204
g9
F0.9896
tp1561
a(S'll'
p1562
g6
F0.7376
tp1563
a(S'say'
p1564
g6
F0.9799
tp1565
a(S'oh'
p1566
g54
F0.9963
tp1567
a(S'yeah'
p1568
g54
F0.9968
tp1569
a(S'pick'
p1570
g6
F0.98
tp1571
a(S'that'
p1572
g30
F0.6463
tp1573
a(S'one'
p1574
g50
F0.7854
tp1575
asI167
(lp1576
(S'laughs'
p1577
g6
F0.9102
tp1578
asI168
(lp1579
(g204
g9
F0.9805
tp1580
a(S'never'
p1581
g124
F0.9908
tp1582
a(S'saw'
p1583
g6
F0.9992
tp1584
a(g736
g30
F0.9952
tp1585
a(S'drain'
p1586
g33
F0.9859
tp1587
a(S'pouring'
p1588
g6
F0.9775
tp1589
a(S'out'
p1590
g36
F0.5733
tp1591
a(S'cocoa'
p1592
g33
F0.9732
tp1593
a(S'juice'
p1594
g33
F0.9934
tp1595
asI169
(lp1596
(S'look'
p1597
g6
F0.8183
tp1598
asI170
(lp1599
(S'he'
p1600
g9
F0.9905
tp1601
a(g93
g6
F0.7456
tp1602
a(S'sitting'
p1603
g6
F0.9958
tp1604
a(S'in'
p1605
g36
F0.9509
tp1606
a(S'cocoa'
p1607
g33
F0.9685
tp1608
a(S'juice'
p1609
g33
F0.9922
tp1610
asI171
(lp1611
(S'that'
p1612
g9
F0.6755
tp1613
a(S'supposed'
p1614
g413
F0.6283
tp1615
a(S'to'
p1616
g36
F0.9972
tp1617
a(S'pour'
p1618
g6
F0.9953
tp1619
a(S'out'
p1620
g27
F0.783
tp1621
a(S'water'
p1622
g33
F0.9931
tp1623
a(S'not'
p1624
g124
F0.9854
tp1625
a(S'cocoa'
p1626
g33
F0.962
tp1627
a(S'juice'
p1628
g33
F0.9934
tp1629
asI172
(lp1630
(S'water'
p1631
g33
F0.9661
tp1632
asI173
(lp1633
(g204
g9
F0.9728
tp1634
a(S'dunno'
p1635
g6
F0.7665
tp1636
a(S'don'
p1637
g184
F0.2743
tp1638
a(g40
g184
F0.604
tp1639
a(S'know'
p1640
g6
F0.9676
tp1641
asI174
(lp1642
(S'huh'
p1643
g54
F0.993
tp1644
asI175
(lp1645
(S'there'
p1646
g124
F0.4143
tp1647
asI176
(lp1648
(S'and'
p1649
g335
F0.9987
tp1650
a(S'where'
p1651
g124
F0.9686
tp1652
a(g93
g371
F0.6595
tp1653
a(g736
g30
F0.9887
tp1654
a(S'snowman'
p1655
g33
F0.8935
tp1656
a(S'in'
p1657
g36
F0.999
tp1658
a(S'the'
p1659
g30
F0.9993
tp1660
a(S'grass'
p1661
g33
F0.8601
tp1662
asI177
(lp1663
(S'that'
p1664
g9
F0.6972
tp1665
a(S'doesn'
p1666
g6
F0.979
tp1667
a(g40
g33
F0.2779
tp1668
a(S'belong'
p1669
g6
F0.975
tp1670
asI178
(lp1671
(S'when'
p1672
g124
F0.975
tp1673
a(S'there'
p1674
g124
F0.6151
tp1675
a(g93
g371
F0.4754
tp1676
a(S'snow'
p1677
g6
F0.6391
tp1678
a(S'you'
p1679
g9
F0.9988
tp1680
a(S'could'
p1681
g6
F0.9996
tp1682
a(S'make'
p1683
g6
F0.9823
tp1684
a(S'snowman'
p1685
g33
F0.7846
tp1686
a(S'in'
p1687
g36
F0.9989
tp1688
a(S'the'
p1689
g30
F0.9993
tp1690
a(S'snow'
p1691
g33
F0.984
tp1692
asI179
(lp1693
(g204
g9
F0.9912
tp1694
a(S'know'
p1695
g6
F0.9989
tp1696
asI180
(lp1697
(S'something'
p1698
g33
F0.9812
tp1699
a(S'has'
p1700
g6
F0.9962
tp1701
a(S'gone'
p1702
g6
F0.9589
tp1703
a(S'wrong'
p1704
g413
F0.9498
tp1705
asI181
(lp1706
(S'maybe'
p1707
g124
F0.9614
tp1708
a(S'if'
p1709
g36
F0.9882
tp1710
a(S'say'
p1711
g6
F0.967
tp1712
a(S'um'
p1713
g54
F0.7279
tp1714
a(S'made'
p1715
g6
F0.9957
tp1716
a(S'the'
p1717
g30
F0.9878
tp1718
a(S'um'
p1719
g371
F0.4186
tp1720
a(S'snowman'
p1721
g184
F0.6806
tp1722
a(S'with'
p1723
g36
F0.9978
tp1724
a(S'grass'
p1725
g184
F0.5633
tp1726
a(S'and'
p1727
g335
F0.9988
tp1728
a(S'then'
p1729
g124
F0.979
tp1730
a(S'they'
p1731
g9
F0.9906
tp1732
a(S'and'
p1733
g335
F0.9918
tp1734
a(S'then'
p1735
g124
F0.9931
tp1736
a(S'when'
p1737
g124
F0.9844
tp1738
a(S'it'
p1739
g9
F0.9975
tp1740
a(S'was'
p1741
g6
F0.9984
tp1742
a(S'sn'
p1743
g184
F0.2222
tp1744
a(S'and'
p1745
g335
F0.9987
tp1746
a(S'then'
p1747
g124
F0.979
tp1748
a(S'they'
p1749
g9
F0.9923
tp1750
a(S'put'
p1751
g6
F0.9983
tp1752
a(S'some'
p1753
g30
F0.9906
tp1754
a(S'ice'
p1755
g33
F0.7125
tp1756
a(g736
g30
F0.4927
tp1757
a(S'and'
p1758
g335
F0.9981
tp1759
a(S'they'
p1760
g9
F0.9915
tp1761
a(S'put'
p1762
g6
F0.9983
tp1763
a(S'some'
p1764
g30
F0.9906
tp1765
a(S'ice'
p1766
g33
F0.7311
tp1767
a(S'on'
p1768
g36
F0.9993
tp1769
a(S'the'
p1770
g30
F0.9995
tp1771
a(S'grass'
p1772
g33
F0.7572
tp1773
a(S'snowman'
p1774
g33
F0.7842
tp1775
asI182
(lp1776
(S'and'
p1777
g335
F0.9987
tp1778
a(S'then'
p1779
g124
F0.9659
tp1780
a(S'they'
p1781
g9
F0.9946
tp1782
a(S'put'
p1783
g6
F0.9812
tp1784
a(S'button'
p1785
g33
F0.9658
tp1786
asI183
(lp1787
(S'and'
p1788
g335
F0.9987
tp1789
a(S'then'
p1790
g124
F0.9486
tp1791
a(S'it'
p1792
g9
F0.9972
tp1793
a(S'turned'
p1794
g6
F0.999
tp1795
a(S'into'
p1796
g36
F0.9927
tp1797
a(g736
g30
F0.9932
tp1798
a(S'snowman'
p1799
g33
F0.8717
tp1800
asI184
(lp1801
(S'hm'
p1802
g54
F0.995
tp1803
asI185
(lp1804
(S'maybe'
p1805
g124
F0.9267
tp1806
a(S'that'
p1807
g9
F0.9153
tp1808
a(S'did'
p1809
g6
F0.9998
tp1810
a(S'it'
p1811
g9
F0.9882
tp1812
asI186
(lp1813
(S'there'
p1814
S'X'
p1815
F0.4664
tp1816
a(g93
g371
F0.5367
tp1817
a(S'no'
p1818
g30
F0.8876
tp1819
a(S'snowmen'
p1820
g33
F0.9798
tp1821
a(S'made'
p1822
g6
F0.9988
tp1823
a(S'out'
p1824
g36
F0.676
tp1825
a(S'of'
p1826
g36
F0.9899
tp1827
a(S'grass'
p1828
g33
F0.5895
tp1829
asI187
(lp1830
(S'that'
p1831
g9
F0.473
tp1832
a(g93
g6
F0.53
tp1833
a(S'supposed'
p1834
g413
F0.802
tp1835
a(S'to'
p1836
g36
F0.9979
tp1837
a(S'be'
p1838
g6
F0.9989
tp1839
a(S'bowling'
p1840
g33
F0.4542
tp1841
a(S'pins'
p1842
g33
F0.9921
tp1843
asI188
(lp1844
(S'hm'
p1845
g54
F0.995
tp1846
asI189
(lp1847
(S'and'
p1848
g335
F0.9989
tp1849
a(S'he'
p1850
g9
F0.9963
tp1851
a(g93
g6
F0.7938
tp1852
a(S'going'
p1853
g6
F0.9839
tp1854
a(S'bowling'
p1855
g6
F0.8778
tp1856
a(S'in'
p1857
g36
F0.9921
tp1858
a(S'the'
p1859
g30
F0.9993
tp1860
a(S'grass'
p1861
g33
F0.8601
tp1862
asI190
(lp1863
(S'hm'
p1864
g54
F0.995
tp1865
asI191
(lp1866
(S'that'
p1867
g9
F0.473
tp1868
a(g93
g6
F0.53
tp1869
a(S'supposed'
p1870
g413
F0.802
tp1871
a(S'to'
p1872
g36
F0.9979
tp1873
a(S'be'
p1874
g6
F0.9995
tp1875
a(S'in'
p1876
g36
F0.992
tp1877
a(S'the'
p1878
g30
F0.9993
tp1879
a(S'house'
p1880
g33
F0.9783
tp1881
asI192
(lp1882
(S'in'
p1883
g36
F0.9915
tp1884
a(S'the'
p1885
g30
F0.9992
tp1886
a(S'bowling'
p1887
g33
F0.9707
tp1888
a(S'place'
p1889
g33
F0.9946
tp1890
asI193
(lp1891
(S'not'
p1892
g124
F0.9957
tp1893
a(S'outside'
p1894
g124
F0.3891
tp1895
asI194
(lp1896
(S'no'
p1897
g54
F0.9253
tp1898
asI195
(lp1899
(S'and'
p1900
g335
F0.9977
tp1901
a(S'the'
p1902
g30
F0.9988
tp1903
a(S'pig'
p1904
g33
F0.9495
tp1905
a(g93
g371
F0.5529
tp1906
a(S'wearing'
p1907
g6
F0.9951
tp1908
a(S'newspape'
p1909
g184
F0.251
tp1910
a(g612
g6
F0.614
tp1911
asI196
(lp1912
(S'hm'
p1913
g54
F0.995
tp1914
asI197
(lp1915
(S'and'
p1916
g335
F0.9992
tp1917
a(S'this'
p1918
g9
F0.9821
tp1919
a(S'is'
p1920
g6
F0.9965
tp1921
a(S'not'
p1922
g124
F0.9951
tp1923
a(g736
g30
F0.9938
tp1924
a(S'barn'
p1925
g33
F0.9919
tp1926
asI198
(lp1927
(S'that'
p1928
g9
F0.473
tp1929
a(g93
g6
F0.5844
tp1930
a(g736
g30
F0.9958
tp1931
a(S'house'
p1932
g33
F0.9929
tp1933
asI199
(lp1934
(S'it'
p1935
g9
F0.9702
tp1936
a(S'the'
p1937
g30
F0.9991
tp1938
a(S'barn'
p1939
g33
F0.9143
tp1940
a(g93
g371
F0.6075
tp1941
a(S'supposed'
p1942
g413
F0.8969
tp1943
a(S'to'
p1944
g36
F0.9979
tp1945
a(S'be'
p1946
g6
F0.9996
tp1947
a(S'right'
p1948
g124
F0.9561
tp1949
a(S'here'
p1950
g124
F0.9837
tp1951
a(S'be'
p1952
g6
F0.9331
tp1953
a(S'cause'
p1954
g36
F0.9272
tp1955
a(S'all'
p1956
g1815
F0.7297
tp1957
a(S'the'
p1958
g30
F0.9998
tp1959
a(S'animals'
p1960
g33
F0.9879
tp1961
a(S'are'
p1962
g6
F0.9928
tp1963
a(S'here'
p1964
g124
F0.968
tp1965
asI200
(lp1966
(S'be'
p1967
g6
F0.9727
tp1968
a(S'cause'
p1969
g36
F0.8602
tp1970
a(S'there'
p1971
g124
F0.5848
tp1972
a(g93
g371
F0.5701
tp1973
a(g736
g30
F0.9927
tp1974
a(S'barn'
p1975
g33
F0.9889
tp1976
a(S'right'
p1977
g124
F0.6375
tp1978
a(S'there'
p1979
g124
F0.7688
tp1980
a(S'sis'
p1981
g33
F0.8469
tp1982
asI201
(lp1983
(S'not'
p1984
g124
F0.9994
tp1985
a(S'far'
p1986
g124
F0.9867
tp1987
a(S'far'
p1988
g124
F0.9584
tp1989
a(S'away'
p1990
g124
F0.9775
tp1991
asI202
(lp1992
(S'there'
p1993
g1815
F0.4664
tp1994
a(g93
g371
F0.6539
tp1995
a(g736
g30
F0.9926
tp1996
a(S'barn'
p1997
g33
F0.9875
tp1998
a(S'right'
p1999
g124
F0.7422
tp2000
a(S'there'
p2001
g124
F0.8567
tp2002
a(S'too'
p2003
g124
F0.9702
tp2004
asI203
(lp2005
(S'there'
p2006
g1815
F0.4664
tp2007
a(g93
g371
F0.4608
tp2008
a(S'two'
p2009
g50
F0.9751
tp2010
a(S'barns'
p2011
g33
F0.9953
tp2012
asI204
(lp2013
(S'one'
p2014
g50
F0.9605
tp2015
a(S'right'
p2016
g413
F0.434
tp2017
a(S'there'
p2018
g124
F0.9152
tp2019
a(S'and'
p2020
g335
F0.9924
tp2021
a(S'one'
p2022
g50
F0.9148
tp2023
a(S'right'
p2024
g124
F0.5575
tp2025
a(S'there'
p2026
g124
F0.7922
tp2027
asI205
(lp2028
(S'yeah'
p2029
g54
F0.9988
tp2030
asI206
(lp2031
(S'so'
p2032
g36
F0.8698
tp2033
a(S'they'
p2034
g9
F0.9962
tp2035
a(S'can'
p2036
g6
F0.9996
tp2037
a(S'go'
p2038
g6
F0.9992
tp2039
a(S'around'
p2040
g124
F0.7433
tp2041
asI207
(lp2042
(S'mm'
p2043
g54
F0.627
tp2044
asI208
(lp2045
(S'these'
p2046
g30
F0.6677
tp2047
a(S'xxx'
p2048
g33
F0.5704
tp2049
a(S'are'
p2050
g6
F0.9969
tp2051
a(S'silly'
p2052
g413
F0.9981
tp2053
asI209
(lp2054
(S'right'
p2055
g54
F0.861
tp2056
asI210
(lp2057
(S'mhm'
p2058
g54
F0.9747
tp2059
asI211
(lp2060
(S'mhm'
p2061
g54
F0.9747
tp2062
asI212
(lp2063
(S'and'
p2064
g335
F0.9973
tp2065
a(S'and'
p2066
g335
F0.999
tp2067
a(S'this'
p2068
g30
F0.9663
tp2069
a(S'thing'
p2070
g33
F0.9975
tp2071
a(S'ain'
p2072
g6
F0.8096
tp2073
a(g40
g6
F0.5101
tp2074
a(S'supposed'
p2075
g413
F0.8059
tp2076
a(S'to'
p2077
g36
F0.9979
tp2078
a(S'be'
p2079
g6
F0.9995
tp2080
a(S'in'
p2081
g36
F0.9718
tp2082
a(g736
g30
F0.9968
tp2083
a(S'barn'
p2084
g33
F0.9939
tp2085
asI213
(lp2086
(S'that'
p2087
g9
F0.473
tp2088
a(g93
g6
F0.6118
tp2089
a(g736
g30
F0.9957
tp2090
a(S'juice'
p2091
g33
F0.9778
tp2092
a(S'thing'
p2093
g33
F0.9941
tp2094
asI214
(lp2095
(S'it'
p2096
g9
F0.9888
tp2097
a(g93
g6
F0.6711
tp2098
a(S'supposed'
p2099
g413
F0.802
tp2100
a(S'to'
p2101
g36
F0.9979
tp2102
a(S'be'
p2103
g6
F0.9995
tp2104
a(S'in'
p2105
g36
F0.9622
tp2106
a(g736
g30
F0.9956
tp2107
a(S'lunch'
p2108
g33
F0.8859
tp2109
a(S'box'
p2110
g33
F0.9878
tp2111
asI215
(lp2112
(g204
g9
F0.9912
tp2113
a(S'know'
p2114
g6
F0.9989
tp2115
asI216
(lp2116
(S'hey'
p2117
g54
F0.9912
tp2118
a(S'you'
p2119
g9
F0.9913
tp2120
a(S're'
p2121
g6
F0.5438
tp2122
a(S'xxx'
p2123
g3
F0.4694
tp2124
a(S'going'
p2125
g6
F0.9992
tp2126
a(S'around'
p2127
g27
F0.4187
tp2128
asI217
(lp2129
(S'hey'
p2130
g54
F0.9986
tp2131
asI218
(lp2132
(S'something'
p2133
g33
F0.9743
tp2134
a(g93
g371
F0.6167
tp2135
a(S'going'
p2136
g6
F0.9946
tp2137
a(S'on'
p2138
g36
F0.7
tp2139
a(S'here'
p2140
g124
F0.9531
tp2141
asI219
(lp2142
(S'and'
p2143
g335
F0.999
tp2144
a(g204
g9
F0.988
tp2145
a(S'don'
p2146
g6
F0.9187
tp2147
a(g40
g33
F0.2208
tp2148
a(S'know'
p2149
g6
F0.9915
tp2150
a(S'why'
p2151
g124
F0.9457
tp2152
a(S'it'
p2153
g9
F0.9979
tp2154
a(S'would'
p2155
g6
F0.9996
tp2156
a(S'do'
p2157
g6
F1.0
tp2158
a(S'that'
p2159
g9
F0.7882
tp2160
a(S'for'
p2161
g36
F0.9924
tp2162
asI220
(lp2163
(S'mm'
p2164
g54
F0.627
tp2165
asI221
(lp2166
(S'mm'
p2167
g54
F0.627
tp2168
asI222
(lp2169
(S'chi'
p2170
g54
F0.4684
tp2171
asI223
(lp2172
(g204
g9
F0.953
tp2173
a(g828
g6
F0.9655
tp2174
a(S'almost'
p2175
g124
F0.9919
tp2176
a(S'done'
p2177
g6
F0.9518
tp2178
asI224
(lp2179
(S'if'
p2180
g36
F0.9977
tp2181
a(S'you'
p2182
g9
F0.9996
tp2183
a(S'wait'
p2184
g6
F0.9996
tp2185
a(S'for'
p2186
g36
F0.9984
tp2187
a(S'me'
p2188
g9
F0.9966
tp2189
a(g204
g9
F0.9642
tp2190
a(S'll'
p2191
g6
F0.8765
tp2192
a(S'wait'
p2193
g6
F0.9963
tp2194
a(S'for'
p2195
g36
F0.9987
tp2196
a(S'you'
p2197
g9
F0.9986
tp2198
asI225
(lp2199
(S'if'
p2200
g36
F0.9977
tp2201
a(S'you'
p2202
g9
F0.9995
tp2203
a(S'don'
p2204
g6
F0.8576
tp2205
a(g40
g6
F0.4106
tp2206
a(S'wait'
p2207
g6
F0.991
tp2208
a(S'for'
p2209
g36
F0.9985
tp2210
a(S'me'
p2211
g9
F0.9966
tp2212
a(g204
g9
F0.9349
tp2213
a(S'willn'
p2214
g6
F0.6947
tp2215
a(g40
g6
F0.4454
tp2216
a(S'wait'
p2217
g6
F0.9856
tp2218
a(S'for'
p2219
g36
F0.9991
tp2220
a(S'you'
p2221
g9
F0.999
tp2222
asI226
(lp2223
(S'oh'
p2224
g54
F0.9988
tp2225
asI227
(lp2226
(S'cocoa'
p2227
g33
F0.9447
tp2228
a(S'juice'
p2229
g33
F0.9926
tp2230
asI228
(lp2231
(S'cocoa'
p2232
g33
F0.9447
tp2233
a(S'juice'
p2234
g33
F0.9926
tp2235
asI229
(lp2236
(S'mm'
p2237
g54
F0.627
tp2238
asI230
(lp2239
(S'hey'
p2240
g54
F0.9959
tp2241
a(S'look'
p2242
g6
F0.8071
tp2243
asI231
(lp2244
(S'they'
p2245
g9
F0.9104
tp2246
a(S're'
p2247
g6
F0.768
tp2248
a(S'supposed'
p2249
g413
F0.7967
tp2250
a(S'to'
p2251
g36
F0.9979
tp2252
a(S'be'
p2253
g6
F0.9997
tp2254
a(S'with'
p2255
g36
F0.9992
tp2256
a(S'him'
p2257
g9
F0.9793
tp2258
asI232
(lp2259
(S'that'
p2260
g9
F0.473
tp2261
a(g93
g6
F0.53
tp2262
a(S'supposed'
p2263
g413
F0.802
tp2264
a(S'to'
p2265
g36
F0.9979
tp2266
a(S'be'
p2267
g6
F0.9997
tp2268
a(S'with'
p2269
g36
F0.995
tp2270
a(S'sis'
p2271
g33
F0.8998
tp2272
asI233
(lp2273
(S'look'
p2274
g6
F0.88
tp2275
a(S'at'
p2276
g36
F0.9987
tp2277
a(S'it'
p2278
g9
F0.9975
tp2279
asI234
(lp2280
(S'that'
p2281
g9
F0.6755
tp2282
a(S'supposed'
p2283
g413
F0.6283
tp2284
a(S'to'
p2285
g36
F0.9968
tp2286
a(S'be'
p2287
g6
F0.9991
tp2288
a(S'with'
p2289
g36
F0.9975
tp2290
a(S'that'
p2291
g9
F0.8051
tp2292
asI235
(lp2293
(g204
g9
F0.9912
tp2294
a(S'know'
p2295
g6
F0.9989
tp2296
asI236
(lp2297
(S'mm'
p2298
g54
F0.627
tp2299
asI237
(lp2300
(S'and'
p2301
g335
F0.9996
tp2302
a(g736
g30
F0.9866
tp2303
a(S'ghost'
p2304
g33
F0.9417
tp2305
a(S'doesn'
p2306
g6
F0.8284
tp2307
a(g40
g33
F0.3252
tp2308
a(S'swim'
p2309
g6
F0.8403
tp2310
a(S'in'
p2311
g36
F0.9804
tp2312
a(S'the'
p2313
g30
F0.9993
tp2314
a(S'water'
p2315
g33
F0.9953
tp2316
a(S'with'
p2317
g36
F0.9997
tp2318
a(g736
g30
F0.998
tp2319
a(S'skateboard'
p2320
g33
F0.9333
tp2321
a(S'and'
p2322
g335
F0.9979
tp2323
a(S'with'
p2324
g36
F0.9957
tp2325
a(g736
g30
F0.9921
tp2326
a(S'sail'
p2327
g33
F0.9063
tp2328
a(S'hat'
p2329
g33
F0.9558
tp2330
asI238
(lp2331
(S'gosh'
p2332
g54
F0.9988
tp2333
asI239
(lp2334
(S'and'
p2335
g335
F0.9981
tp2336
asI240
(lp2337
(S'and'
p2338
g335
F0.9977
tp2339
a(S'the'
p2340
g30
F0.999
tp2341
a(S'other'
p2342
g413
F0.9633
tp2343
a(S'ghost'
p2344
g33
F0.913
tp2345
a(S'doesn'
p2346
g6
F0.8233
tp2347
a(g40
g371
F0.2716
tp2348
a(S'doesn'
p2349
g6
F0.8841
tp2350
a(g40
g371
F0.3974
tp2351
a(S'um'
p2352
g371
F0.4441
tp2353
a(S'skate'
p2354
g6
F0.8818
tp2355
a(S'on'
p2356
g36
F0.5324
tp2357
a(S'on'
p2358
g36
F0.9809
tp2359
a(S'ice'
p2360
g413
F0.5528
tp2361
a(S'skaters'
p2362
g33
F0.9932
tp2363
a(S'in'
p2364
g36
F0.9986
tp2365
a(S'the'
p2366
g30
F0.9919
tp2367
a(S'xxx'
p2368
g3
F0.4024
tp2369
asI241
(lp2370
(S'and'
p2371
g335
F0.9973
tp2372
a(S'and'
p2373
g335
F0.9992
tp2374
a(S'um'
p2375
g54
F0.5424
tp2376
a(S'and'
p2377
g335
F0.9991
tp2378
a(S'um'
p2379
g54
F0.6003
tp2380
a(g736
g30
F0.9927
tp2381
a(S'thing'
p2382
g33
F0.9974
tp2383
a(g736
g30
F0.3759
tp2384
a(S'around'
p2385
g36
F0.6933
tp2386
a(S'it'
p2387
g9
F0.9967
tp2388
a(g93
g6
F0.3621
tp2389
a(S'ears'
p2390
g33
F0.9813
tp2391
a(S'in'
p2392
g36
F0.9985
tp2393
a(S'um'
p2394
g54
F0.3741
tp2395
a(S'in'
p2396
g36
F0.9899
tp2397
a(S'his'
p2398
g30
F0.9987
tp2399
a(S'coffee'
p2400
g33
F0.9964
tp2401
asI242
(lp2402
(S'xxx'
p2403
g3
F0.5898
tp2404
a(S'cup'
p2405
g33
F0.9046
tp2406
asI243
(lp2407
(S'and'
p2408
g335
F0.9994
tp2409
a(S'it'
p2410
g9
F0.9975
tp2411
a(g93
g6
F0.4761
tp2412
a(S'fluffy'
p2413
g413
F0.9581
tp2414
asI244
(lp2415
(S'and'
p2416
g335
F0.9992
tp2417
a(S'um'
p2418
g54
F0.5246
tp2419
a(S'it'
p2420
g9
F0.9949
tp2421
a(S'doesn'
p2422
g6
F0.9905
tp2423
a(g40
g6
F0.5936
tp2424
a(S'it'
p2425
g9
F0.9955
tp2426
a(S'doesn'
p2427
g6
F0.991
tp2428
a(g40
g371
F0.3974
tp2429
a(S'um'
p2430
g371
F0.4441
tp2431
a(S'skate'
p2432
g6
F0.8986
tp2433
a(S'in'
p2434
g36
F0.9012
tp2435
a(S'in'
p2436
g36
F0.8778
tp2437
a(S'ice'
p2438
g33
F0.8424
tp2439
asI245
(lp2440
(g736
g30
F0.9944
tp2441
a(S'goose'
p2442
g33
F0.9883
tp2443
asI246
(lp2444
(g204
g9
F0.9912
tp2445
a(S'know'
p2446
g6
F0.9989
tp2447
asI247
(lp2448
(S'that'
p2449
g9
F0.473
tp2450
a(g93
g371
F0.4403
tp2451
a(S'so'
p2452
g124
F0.9117
tp2453
a(S'silly'
p2454
g413
F0.9939
tp2455
asI248
(lp2456
(S'what'
p2457
g9
F0.949
tp2458
asI249
(lp2459
(S'oh'
p2460
g54
F0.9988
tp2461
asI250
(lp2462
(S'we'
p2463
g9
F0.9849
tp2464
a(S're'
p2465
g6
F0.4838
tp2466
a(S'almost'
p2467
g124
F0.9946
tp2468
a(S'done'
p2469
g6
F0.9518
tp2470
asI251
(lp2471
(g204
g9
F0.953
tp2472
a(g828
g6
F0.9153
tp2473
a(S'xxx'
p2474
g6
F0.242
tp2475
a(S'done'
p2476
g6
F0.9244
tp2477
asI252
(lp2478
(S'mm'
p2479
g54
F0.627
tp2480
asI253
(lp2481
(S'oh'
p2482
g54
F0.9945
tp2483
a(S'almost'
p2484
g124
F0.9748
tp2485
a(S'finished'
p2486
g6
F0.9981
tp2487
a(S'eatin'
p2488
g6
F0.562
tp2489
a(g363
g371
F0.3027
tp2490
asI254
(lp2491
(S'is'
p2492
g6
F0.9955
tp2493
a(S'there'
p2494
g1815
F0.9284
tp2495
a(g736
g30
F0.9982
tp2496
a(S'ticket'
p2497
g33
F0.9966
tp2498
a(S'in'
p2499
g36
F0.998
tp2500
a(S'this'
p2501
g30
F0.9589
tp2502
a(S'coca'
p2503
g33
F0.8569
tp2504
a(S'box'
p2505
g33
F0.9845
tp2506
asI255
(lp2507
(g204
g9
F0.9586
tp2508
a(g828
g6
F0.9849
tp2509
a(S'done'
p2510
g6
F0.9405
tp2511
asI256
(lp2512
(g204
g9
F0.9871
tp2513
a(S'going'
p2514
g6
F0.9997
tp2515
a(S'to'
p2516
g36
F0.9124
tp2517
a(S'xxx'
p2518
g3
F0.5952
tp2519
asI257
(lp2520
(g736
g30
F0.9942
tp2521
a(S'balanced'
p2522
g413
F0.999
tp2523
a(S'complete'
p2524
g33
F0.5798
tp2525
a(S'breakfast'
p2526
g33
F0.9936
tp2527
asI258
(lp2528
(S'sis'
p2529
g33
F0.937
tp2530
a(g204
g9
F0.8459
tp2531
a(g828
g6
F0.9644
tp2532
a(S'gonna'
p2533
g6
F0.9978
tp2534
a(S'wait'
p2535
g6
F0.9992
tp2536
a(S'for'
p2537
g36
F0.999
tp2538
a(S'you'
p2539
g9
F0.9975
tp2540
a(S'okay'
p2541
g413
F0.5671
tp2542
asI259
(lp2543
(S'because'
p2544
g36
F0.983
tp2545
a(g204
g9
F0.9932
tp2546
a(g828
g6
F0.9872
tp2547
a(S'done'
p2548
g6
F0.8955
tp2549
asI260
(lp2550
(S'mhm'
p2551
g54
F0.9747
tp2552
asI261
(lp2553
(S'xxx'
p2554
g3
F0.6078
tp2555
a(S'in'
p2556
g36
F0.9909
tp2557
a(S'my'
p2558
g30
F0.9964
tp2559
a(S'cocoa'
p2560
g33
F0.9989
tp2561
asI262
(lp2562
(g204
g9
F0.9586
tp2563
a(g828
g6
F0.9849
tp2564
a(S'done'
p2565
g6
F0.9405
tp2566
asI263
(lp2567
(S'mm'
p2568
g54
F0.627
tp2569
asI264
(lp2570
(S'xxx'
p2571
g3
F0.5437
tp2572
a(S'my'
p2573
g30
F0.9898
tp2574
a(S'cocoa'
p2575
g33
F0.9991
tp2576
asI265
(lp2577
(S'mm'
p2578
g54
F0.627
tp2579
asI266
(lp2580
(S'mm'
p2581
g54
F0.627
tp2582
asI267
(lp2583
(S'do'
p2584
g6
F0.9985
tp2585
a(S'you'
p2586
g9
F0.9997
tp2587
a(S'want'
p2588
g6
F0.9999
tp2589
a(S'this'
p2590
g9
F0.5727
tp2591
asI268
(lp2592
(S'hm'
p2593
g54
F0.995
tp2594
asI269
(lp2595
(S'oh'
p2596
g54
F0.9988
tp2597
asI270
(lp2598
(g204
g9
F0.953
tp2599
a(g828
g6
F0.9928
tp2600
a(S'all'
p2601
g30
F0.8172
tp2602
a(S'done'
p2603
g6
F0.4507
tp2604
asI271
(lp2605
(S'drinking'
p2606
g6
F0.9967
tp2607
a(S'my'
p2608
g30
F0.9949
tp2609
a(S'cocoa'
p2610
g33
F0.997
tp2611
a(S'juice'
p2612
g33
F0.9943
tp2613
asI272
(lp2614
(S'ah'
p2615
g54
F0.996
tp2616
asI273
(lp2617
(S'that'
p2618
g9
F0.8283
tp2619
a(S'was'
p2620
g6
F0.9987
tp2621
a(S'good'
p2622
g413
F0.9959
tp2623
asI274
(lp2624
(S'now'
p2625
g124
F0.9613
tp2626
asI275
(lp2627
(g204
g9
F0.9635
tp2628
a(S'don'
p2629
g6
F0.9231
tp2630
a(g40
g33
F0.2503
tp2631
a(S'want'
p2632
g6
F0.997
tp2633
a(S'no'
p2634
g30
F0.5542
tp2635
a(S'more'
p2636
g413
F0.495
tp2637
asI276
(lp2638
(S'what'
p2639
g9
F0.9898
tp2640
a(S'should'
p2641
g6
F0.9986
tp2642
a(S'we'
p2643
g9
F0.99
tp2644
a(S'do'
p2645
g6
F0.9993
tp2646
a(S'now'
p2647
g124
F0.9937
tp2648
asI277
(lp2649
(S'play'
p2650
g6
F0.9401
tp2651
a(S'house'
p2652
g33
F0.959
tp2653
asI278
(lp2654
(S'okay'
p2655
g54
F0.8974
tp2656
a(S'let'
p2657
g6
F0.8616
tp2658
a(g93
g371
F0.4375
tp2659
a(S'play'
p2660
g6
F0.9278
tp2661
a(S'house'
p2662
g33
F0.9499
tp2663
asI279
(lp2664
(S'that'
p2665
g9
F0.8288
tp2666
a(S'was'
p2667
g6
F0.9996
tp2668
a(g736
g30
F0.9979
tp2669
a(S'good'
p2670
g413
F0.9974
tp2671
a(S'sis'
p2672
g33
F0.9882
tp2673
asI280
(lp2674
(S'could'
p2675
g6
F0.9929
tp2676
a(S'we'
p2677
g9
F0.9971
tp2678
a(S'have'
p2679
g6
F0.999
tp2680
a(S'cocoa'
p2681
g33
F0.9898
tp2682
a(S'puffs'
p2683
g33
F0.9797
tp2684
a(S'at'
p2685
g36
F0.9999
tp2686
a(S'the'
p2687
g30
F0.9994
tp2688
a(S'party'
p2689
g33
F0.9881
tp2690
asI281
(lp2691
(S'to'
p2692
g36
F0.9906
tp2693
a(S'be'
p2694
g6
F0.9994
tp2695
a(S'lucky'
p2696
g413
F0.988
tp2697
a(S'we'
p2698
g9
F0.9937
tp2699
a(S'could'
p2700
g6
F0.9993
tp2701
a(S'xxx'
p2702
g6
F0.3573
tp2703
a(S'cocoa'
p2704
g33
F0.9723
tp2705
a(S'puffs'
p2706
g33
F0.9797
tp2707
a(S'at'
p2708
g36
F0.9999
tp2709
a(S'the'
p2710
g30
F0.9994
tp2711
a(S'party'
p2712
g33
F0.9908
tp2713
asI282
(lp2714
(S'yeah'
p2715
g54
F0.9988
tp2716
asI283
(lp2717
(S'sis'
p2718
g33
F0.8652
tp2719
asI284
(lp2720
(S'let'
p2721
g6
F0.8948
tp2722
a(g93
g371
F0.3973
tp2723
a(S'put'
p2724
g6
F0.933
tp2725
a(S'away'
p2726
g124
F0.954
tp2727
a(g204
g9
F0.9894
tp2728
a(S'mean'
p2729
g6
F0.9866
tp2730
asI285
(lp2731
(S'burps'
p2732
g6
F0.4198
tp2733
asI286
(lp2734
(S'let'
p2735
g6
F0.8654
tp2736
a(g93
g371
F0.4781
tp2737
a(S'do'
p2738
g6
F0.988
tp2739
asI287
(lp2740
(S'laughs'
p2741
g6
F0.9102
tp2742
asI288
(lp2743
(S'let'
p2744
g6
F0.8948
tp2745
a(g93
g371
F0.3973
tp2746
a(S'put'
p2747
g6
F0.933
tp2748
a(S'away'
p2749
g124
F0.78
tp2750
a(S'the'
p2751
g30
F0.983
tp2752
a(S'um'
p2753
g371
F0.3335
tp2754
a(S'cereal'
p2755
g33
F0.7869
tp2756
a(S'first'
p2757
g413
F0.6809
tp2758
asI289
(lp2759
(S'chi'
p2760
g184
F0.6744
tp2761
a(S'wait'
p2762
g6
F0.9892
tp2763
a(S'for'
p2764
g36
F0.9976
tp2765
a(S'me'
p2766
g9
F0.9961
tp2767
a(g204
g9
F0.9807
tp2768
a(S'got'
p2769
g6
F0.9998
tp2770
a(S'to'
p2771
g36
F0.9666
tp2772
a(S'put'
p2773
g6
F0.9962
tp2774
a(S'away'
p2775
g124
F0.8765
tp2776
a(S'the'
p2777
g30
F0.9989
tp2778
a(S'cereal'
p2779
g33
F0.9927
tp2780
asI290
(lp2781
(S'that'
p2782
g9
F0.8288
tp2783
a(S'was'
p2784
g6
F0.9987
tp2785
a(S'good'
p2786
g413
F0.9981
tp2787
a(S'sis'
p2788
g33
F0.9922
tp2789
asI291
(lp2790
(S'chi'
p2791
g184
F0.5023
tp2792
a(S'chi'
p2793
g184
F0.8452
tp2794
a(g204
g9
F0.962
tp2795
a(S'keep'
p2796
g6
F0.9951
tp2797
a(S'saying'
p2798
g6
F0.9794
tp2799
a(g204
g9
F0.9948
tp2800
a(S'mean'
p2801
g6
F0.9855
tp2802
a(g204
g9
F0.9926
tp2803
a(S'keep'
p2804
g6
F0.9954
tp2805
a(S'saying'
p2806
g6
F0.9996
tp2807
a(S'my'
p2808
g30
F0.9989
tp2809
a(S'name'
p2810
g33
F0.9995
tp2811
asI292
(lp2812
(S'you'
p2813
g9
F0.9971
tp2814
a(S'say'
p2815
g6
F0.993
tp2816
a(S'sis'
p2817
g33
F0.9174
tp2818
asI293
(lp2819
(S'you'
p2820
g9
F0.998
tp2821
a(S'say'
p2822
g6
F0.9993
tp2823
a(S'wait'
p2824
g6
F0.9833
tp2825
a(S'for'
p2826
g36
F0.9985
tp2827
a(S'me'
p2828
g9
F0.999
tp2829
asI294
(lp2830
(S'come'
p2831
g6
F0.9849
tp2832
a(S'on'
p2833
g27
F0.5632
tp2834
asI295
(lp2835
(S'how'
p2836
g124
F0.9794
tp2837
a(S'could'
p2838
g6
F0.9848
tp2839
a(g204
g9
F0.9776
tp2840
a(S'wait'
p2841
g6
F0.9996
tp2842
a(S'for'
p2843
g36
F0.9968
tp2844
a(S'myself'
p2845
g9
F0.9948
tp2846
asI296
(lp2847
(g204
g9
F0.9586
tp2848
a(g828
g6
F0.9806
tp2849
a(S'leaving'
p2850
g6
F0.9913
tp2851
asI297
(lp2852
(S'toodiloodiloo'
p2853
g184
F0.3102
tp2854
a(g1273
g184
F0.3168
tp2855
asI298
(lp2856
(S'sis'
p2857
g33
F0.7838
tp2858
a(S'xxx'
p2859
g3
F0.3593
tp2860
a(S'with'
p2861
g36
F0.9983
tp2862
a(S'me'
p2863
g9
F0.9982
tp2864
asI299
(lp2865
(S'xxx'
p2866
g3
F0.615
tp2867
a(S'do'
p2868
g6
F0.991
tp2869
a(S'what'
p2870
g9
F0.995
tp2871
asI300
(lp2872
(S'xxx'
p2873
g3
F0.6382
tp2874
a(S'this'
p2875
g30
F0.9473
tp2876
a(S'tape'
p2877
g33
F0.9986
tp2878
a(S'xxx'
p2879
g3
F0.8217
tp2880
asI301
(lp2881
(S'www'
p2882
g184
F0.3889
tp2883
asI302
(lp2884
(S'xxx'
p2885
g3
F0.8437
tp2886
asI303
(lp2887
(S'hi'
p2888
g54
F0.9635
tp2889
a(S'funny'
p2890
g413
F0.9982
tp2891
asI304
(lp2892
(S'that'
p2893
g9
F0.473
tp2894
a(g93
g371
F0.4404
tp2895
a(S'what'
p2896
g9
F0.9938
tp2897
a(S'have'
p2898
g6
F0.9866
tp2899
a(S'xxx'
p2900
g3
F0.5303
tp2901
a(S'one'
p2902
g50
F0.9125
tp2903
a(S'two'
p2904
g50
F0.9126
tp2905
a(S'three'
p2906
g50
F0.8838
tp2907
asI305
(lp2908
(S'one'
p2909
g50
F0.9496
tp2910
a(S'two'
p2911
g50
F0.9083
tp2912
a(S'three'
p2913
g50
F0.8429
tp2914
asI306
(lp2915
(S'one'
p2916
g50
F0.9496
tp2917
a(S'two'
p2918
g50
F0.9112
tp2919
asI307
(lp2920
(S'count'
p2921
g6
F0.9788
tp2922
a(S'all'
p2923
g30
F0.5446
tp2924
a(S'the'
p2925
g30
F0.9993
tp2926
a(S'money'
p2927
g33
F0.9975
tp2928
asI308
(lp2929
(S'that'
p2930
g9
F0.473
tp2931
a(g93
g6
F0.4372
tp2932
a(S'not'
p2933
g124
F0.9957
tp2934
a(S'how'
p2935
g124
F0.9965
tp2936
a(S'you'
p2937
g9
F0.9996
tp2938
a(S'count'
p2939
g6
F0.9966
tp2940
a(S'money'
p2941
g33
F0.9674
tp2942
asI309
(lp2943
(g204
g9
F0.9908
tp2944
a(S'know'
p2945
g6
F0.9994
tp2946
a(S'how'
p2947
g124
F0.9927
tp2948
a(S'to'
p2949
g36
F0.9942
tp2950
a(S'count'
p2951
g6
F0.9973
tp2952
a(S'money'
p2953
g33
F0.9732
tp2954
a(S'xxx'
p2955
g3
F0.8281
tp2956
asI310
(lp2957
(S'first'
p2958
g413
F0.584
tp2959
a(g204
g9
F0.9516
tp2960
a(S'put'
p2961
g6
F0.9995
tp2962
a(S'the'
p2963
g30
F0.9989
tp2964
a(S'twenty'
p2965
g50
F0.6266
tp2966
a(S'five'
p2967
g50
F0.7748
tp2968
a(S'cent'
p2969
g33
F0.9926
tp2970
a(S'here'
p2971
g124
F0.953
tp2972
asI311
(lp2973
(S'be'
p2974
g6
F0.9727
tp2975
a(S'cause'
p2976
g36
F0.8834
tp2977
a(S'that'
p2978
g9
F0.6514
tp2979
a(g93
g6
F0.4237
tp2980
a(S'how'
p2981
g124
F0.9918
tp2982
a(S'in'
p2983
g36
F0.9966
tp2984
a(S'my'
p2985
g30
F0.9964
tp2986
a(S'class'
p2987
g33
F0.9987
tp2988
a(S'that'
p2989
g36
F0.933
tp2990
a(g93
g371
F0.5567
tp2991
a(S'how'
p2992
g124
F0.9715
tp2993
a(S'they'
p2994
g9
F0.9921
tp2995
a(S'count'
p2996
g6
F0.9917
tp2997
asI312
(lp2998
(S'wait'
p2999
g6
F0.9113
tp3000
asI313
(lp3001
(g204
g9
F0.953
tp3002
a(g828
g6
F0.9629
tp3003
a(S'gonna'
p3004
g6
F0.9965
tp3005
a(S'do'
p3006
g6
F0.9999
tp3007
a(S'it'
p3008
g9
F0.9911
tp3009
a(S'with'
p3010
g36
F0.9885
tp3011
asI314
(lp3012
(S'and'
p3013
g335
F0.9989
tp3014
a(S'you'
p3015
g9
F0.9993
tp3016
a(S'count'
p3017
g6
F0.9903
tp3018
a(S'too'
p3019
g124
F0.9853
tp3020
asI315
(lp3021
(S'no'
p3022
g54
F0.9253
tp3023
asI316
(lp3024
(S'you'
p3025
g9
F0.9981
tp3026
a(S'said'
p3027
g6
F0.9919
tp3028
a(S'eight'
p3029
g50
F0.5137
tp3030
a(S'is'
p3031
g6
F0.9868
tp3032
a(S'not'
p3033
g124
F0.9998
tp3034
a(S'bad'
p3035
g413
F0.9282
tp3036
a(S'for'
p3037
g36
F0.9998
tp3038
a(S'her'
p3039
g9
F0.7832
tp3040
asI317
(lp3041
(S'and'
p3042
g335
F0.9986
tp3043
a(S'then'
p3044
g124
F0.9712
tp3045
asI318
(lp3046
(S'what'
p3047
g9
F0.949
tp3048
asI319
(lp3049
(S'eighty'
p3050
g50
F0.8611
tp3051
a(S'cents'
p3052
g33
F0.9903
tp3053
asI320
(lp3054
(S'you'
p3055
g9
F0.9981
tp3056
a(S'said'
p3057
g6
F0.9919
tp3058
a(S'eight'
p3059
g50
F0.8712
tp3060
a(S'cents'
p3061
g33
F0.9929
tp3062
a(S'xxx'
p3063
g3
F0.8385
tp3064
asI321
(lp3065
(S'said'
p3066
g6
F0.9938
tp3067
a(S'that'
p3068
g36
F0.5175
tp3069
a(g93
g371
F0.4668
tp3070
a(S'eighty'
p3071
g50
F0.7501
tp3072
a(S'cents'
p3073
g33
F0.9879
tp3074
asI322
(lp3075
(S'now'
p3076
g124
F0.9613
tp3077
asI323
(lp3078
(S'that'
p3079
g9
F0.473
tp3080
a(g93
g6
F0.5844
tp3081
a(g736
g30
F0.9948
tp3082
a(S'dollar'
p3083
g33
F0.9968
tp3084
asI324
(lp3085
(S'twenty'
p3086
g50
F0.766
tp3087
a(S'six'
p3088
g50
F0.3959
tp3089
asI325
(lp3090
(S'be'
p3091
g6
F0.9727
tp3092
a(S'cause'
p3093
g36
F0.8602
tp3094
a(S'there'
p3095
g124
F0.5848
tp3096
a(g93
g371
F0.6595
tp3097
a(S'already'
p3098
g124
F0.9778
tp3099
a(g736
g30
F0.9727
tp3100
a(S'twenty'
p3101
g50
F0.8421
tp3102
a(S'five'
p3103
g50
F0.4595
tp3104
asI326
(lp3105
(S'twenty'
p3106
g50
F0.7634
tp3107
a(S'six'
p3108
g50
F0.4411
tp3109
a(S'twenty'
p3110
g50
F0.6721
tp3111
a(S'seven'
p3112
g50
F0.8208
tp3113
a(S'twenty'
p3114
g50
F0.7057
tp3115
a(S'eight'
p3116
g50
F0.7801
tp3117
a(S'twenty'
p3118
g50
F0.6607
tp3119
a(S'nine'
p3120
g33
F0.4971
tp3121
asI327
(lp3122
(S'thirty'
p3123
g50
F0.3344
tp3124
asI328
(lp3125
(S'what'
p3126
g9
F0.9835
tp3127
a(S'are'
p3128
g6
F0.993
tp3129
a(S'y'
p3130
g124
F0.685
tp3131
a(S'what'
p3132
g9
F0.994
tp3133
a(S'what'
p3134
g9
F0.993
tp3135
a(S'what'
p3136
g9
F0.9938
tp3137
asI329
(lp3138
(S'look'
p3139
g6
F0.8963
tp3140
a(S'see'
p3141
g6
F0.8503
tp3142
asI330
(lp3143
(g204
g9
F0.953
tp3144
a(g828
g6
F0.9854
tp3145
a(S'coloring'
p3146
g6
F0.939
tp3147
a(S'this'
p3148
g30
F0.5294
tp3149
asI331
(lp3150
(S'look'
p3151
g6
F0.8183
tp3152
asI332
(lp3153
(S'that'
p3154
g9
F0.473
tp3155
a(g93
g6
F0.4372
tp3156
a(S'not'
p3157
g124
F0.9957
tp3158
a(S'how'
p3159
g124
F0.9967
tp3160
a(S'you'
p3161
g9
F0.9996
tp3162
a(S'count'
p3163
g6
F0.9883
tp3164
asI333
(lp3165
(S'twenty'
p3166
g50
F0.7634
tp3167
a(S'five'
p3168
g50
F0.4128
tp3169
a(S'and'
p3170
g335
F0.9972
tp3171
a(S'twenty'
p3172
g50
F0.6249
tp3173
a(S'five'
p3174
g50
F0.4268
tp3175
a(S'fifty'
p3176
g50
F0.4956
tp3177
asI334
(lp3178
(S'seventy'
p3179
g413
F0.4832
tp3180
a(S'five'
p3181
g413
F0.437
tp3182
a(S'eighty'
p3183
g33
F0.4619
tp3184
asI335
(lp3185
(S'this'
p3186
g9
F0.9526
tp3187
a(S'is'
p3188
g6
F0.9968
tp3189
a(S'how'
p3190
g124
F0.9906
tp3191
a(g204
g9
F0.9947
tp3192
a(S'count'
p3193
g6
F0.9999
tp3194
a(S'my'
p3195
g30
F0.9113
tp3196
asI336
(lp3197
(S'ninety'
p3198
g50
F0.4
tp3199
asI337
(lp3200
(S'mom'
p3201
g33
F0.7188
tp3202
asI338
(lp3203
(S'you'
p3204
g9
F0.9926
tp3205
a(S'don'
p3206
g6
F0.8675
tp3207
a(g40
g33
F0.2457
tp3208
a(S'know'
p3209
g6
F0.9914
tp3210
a(S'how'
p3211
g124
F0.9888
tp3212
a(g204
g9
F0.9952
tp3213
a(S'count'
p3214
g6
F0.9996
tp3215
a(S'that'
p3216
g9
F0.8073
tp3217
asI339
(lp3218
(S'okay'
p3219
g54
F0.9469
tp3220
a(S'you'
p3221
g9
F0.9871
tp3222
a(S'better'
p3223
g124
F0.5982
tp3224
a(S'get'
p3225
g6
F0.9954
tp3226
a(S'the'
p3227
g30
F0.9996
tp3228
a(S'same'
p3229
g413
F0.9962
tp3230
a(S'thing'
p3231
g33
F0.9992
tp3232
a(g204
g9
F0.8781
tp3233
a(S'get'
p3234
g6
F0.9997
tp3235
asI340
(lp3236
(g204
g9
F0.953
tp3237
a(g828
g6
F0.9455
tp3238
a(g204
g9
F0.9858
tp3239
a(g828
g6
F0.9616
tp3240
a(S'gonna'
p3241
g6
F0.9966
tp3242
a(S'do'
p3243
g6
F1.0
tp3244
a(S'it'
p3245
g9
F0.9762
tp3246
a(g736
g30
F0.9937
tp3247
a(S'different'
p3248
g413
F0.9965
tp3249
a(S'way'
p3250
g33
F0.9194
tp3251
a(S'though'
p3252
g36
F0.9071
tp3253
asI341
(lp3254
(g204
g9
F0.953
tp3255
a(g828
g6
F0.9717
tp3256
a(S'just'
p3257
g124
F0.9986
tp3258
a(S'gonna'
p3259
g6
F0.998
tp3260
a(S'um'
p3261
g54
F0.8426
tp3262
asI342
(lp3263
(S'go'
p3264
g6
F0.9676
tp3265
a(S'on'
p3266
g36
F0.7689
tp3267
asI343
(lp3268
(S'twenty'
p3269
g50
F0.766
tp3270
a(S'six'
p3271
g50
F0.3959
tp3272
asI344
(lp3273
(S'twen'
p3274
g184
F0.4825
tp3275
a(S'twenty'
p3276
g50
F0.5142
tp3277
a(S'seven'
p3278
g50
F0.8286
tp3279
a(S'twenty'
p3280
g50
F0.6974
tp3281
a(S'eight'
p3282
g50
F0.7418
tp3283
a(S'twenty'
p3284
g50
F0.7012
tp3285
a(S'nine'
p3286
g33
F0.4676
tp3287
asI345
(lp3288
(S'xxx'
p3289
g3
F0.5818
tp3290
a(S'upstairs'
p3291
g33
F0.4245
tp3292
asI346
(lp3293
(S'yeah'
p3294
g54
F0.9968
tp3295
a(g204
g9
F0.9955
tp3296
a(S'need'
p3297
g6
F0.9978
tp3298
a(S'more'
p3299
g413
F0.8407
tp3300
a(S'ice'
p3301
g33
F0.9326
tp3302
asI347
(lp3303
(S'xxx'
p3304
g3
F0.8437
tp3305
asI348
(lp3306
(S'eat'
p3307
g6
F0.7659
tp3308
a(S'chi'
p3309
g184
F0.3298
tp3310
asI349
(lp3311
(S'stop'
p3312
g6
F0.9182
tp3313
a(S'complaining'
p3314
g6
F0.992
tp3315
asI350
(lp3316
(S'we'
p3317
g9
F0.9948
tp3318
a(S'll'
p3319
g6
F0.6313
tp3320
a(S'get'
p3321
g6
F0.9983
tp3322
a(S'three'
p3323
g50
F0.7843
tp3324
a(S'big'
p3325
g413
F0.9762
tp3326
a(S'spoons'
p3327
g33
F0.9637
tp3328
a(S'xxx'
p3329
g3
F0.7393
tp3330
asI351
(lp3331
(S'yeah'
p3332
g54
F0.9988
tp3333
asI352
(lp3334
(S'yes'
p3335
g54
F0.9795
tp3336
a(S'miss'
p3337
g6
F0.7556
tp3338
a(S'sweetie'
p3339
g33
F0.9506
tp3340
asI353
(lp3341
(g204
g9
F0.9563
tp3342
a(S'xxx'
p3343
g6
F0.9635
tp3344
a(S'them'
p3345
g9
F0.9692
tp3346
asI354
(lp3347
(g204
g9
F0.953
tp3348
a(g828
g6
F0.9784
tp3349
a(S'not'
p3350
g124
F0.9873
tp3351
a(S'no'
p3352
g30
F0.3929
tp3353
a(S'xxx'
p3354
g33
F0.6357
tp3355
asI355
(lp3356
(S'dump'
p3357
g6
F0.7377
tp3358
a(S'in'
p3359
g36
F0.9701
tp3360
a(S'don'
p3361
g184
F0.6106
tp3362
a(g40
g184
F0.5426
tp3363
a(S'go'
p3364
g6
F0.9871
tp3365
a(S'like'
p3366
g36
F0.9494
tp3367
a(S'this'
p3368
g9
F0.8515
tp3369
asI356
(lp3370
(S'mm'
p3371
g54
F0.627
tp3372
asI357
(lp3373
(S'pour'
p3374
g6
F0.9642
tp3375
a(S'me'
p3376
g9
F0.9915
tp3377
a(S'some'
p3378
g30
F0.9704
tp3379
a(S'water'
p3380
g33
F0.9936
tp3381
a(S'then'
p3382
g124
F0.9814
tp3383
asI358
(lp3384
(S'that'
p3385
g36
F0.838
tp3386
a(S'my'
p3387
g30
F0.995
tp3388
a(S'water'
p3389
g33
F0.9987
tp3390
asI359
(lp3391
(S'no'
p3392
g54
F0.9253
tp3393
asI360
(lp3394
(S'that'
p3395
g36
F0.7914
tp3396
a(S'your'
p3397
g30
F0.9839
tp3398
a(S'water'
p3399
g33
F0.9992
tp3400
asI361
(lp3401
(S'no'
p3402
g54
F0.9688
tp3403
a(S'that'
p3404
g36
F0.5143
tp3405
a(g93
g371
F0.7793
tp3406
asI362
(lp3407
(g204
g9
F0.9891
tp3408
a(S'drank'
p3409
g6
F0.9999
tp3410
a(S'some'
p3411
g30
F0.7917
tp3412
a(S'of'
p3413
g36
F0.9956
tp3414
a(S'this'
p3415
g9
F0.5578
tp3416
asI363
(lp3417
(S'yours'
p3418
g9
F0.8232
tp3419
asI364
(lp3420
(S'and'
p3421
g335
F0.9988
tp3422
a(S'juice'
p3423
g33
F0.9286
tp3424
a(S'thank'
p3425
g6
F0.9059
tp3426
a(S'you'
p3427
g9
F0.9987
tp3428
asI365
(lp3429
(S'it'
p3430
g9
F0.9979
tp3431
a(S'is'
p3432
g6
F0.9985
tp3433
a(S'water'
p3434
g33
F0.9454
tp3435
a(S'and'
p3436
g335
F0.9976
tp3437
a(S'it'
p3438
g9
F0.9971
tp3439
a(g93
g371
F0.6836
tp3440
a(S'xxx'
p3441
g3
F0.6626
tp3442
asI366
(lp3443
(S'what'
p3444
g9
F0.949
tp3445
asI367
(lp3446
(g204
g9
F0.9891
tp3447
a(S'washed'
p3448
g6
F0.9993
tp3449
a(S'up'
p3450
g27
F0.9901
tp3451
asI368
(lp3452
(g204
g9
F0.9869
tp3453
a(S'wanna'
p3454
g6
F0.9981
tp3455
a(S'go'
p3456
g6
F0.9989
tp3457
a(S'to'
p3458
g36
F0.9816
tp3459
a(S'sleep'
p3460
g6
F0.9287
tp3461
a(S'xxx'
p3462
g3
F0.8314
tp3463
asI369
(lp3464
(S'no'
p3465
g54
F0.6674
tp3466
a(S'no'
p3467
g54
F0.4752
tp3468
a(S'no'
p3469
g54
F0.4191
tp3470
a(S'no'
p3471
g30
F0.3526
tp3472
a(S'no'
p3473
g33
F0.364
tp3474
asI370
(lp3475
(S'no'
p3476
g54
F0.7985
tp3477
a(S'you'
p3478
g9
F0.978
tp3479
a(S're'
p3480
g6
F0.6994
tp3481
a(S'not'
p3482
g124
F0.9941
tp3483
asI371
(lp3484
(S'just'
p3485
g124
F0.999
tp3486
a(S'wanna'
p3487
g6
F0.9937
tp3488
a(S'play'
p3489
g6
F0.9982
tp3490
a(S'outside'
p3491
g27
F0.2673
tp3492
asI372
(lp3493
(S'yeah'
p3494
g54
F0.9962
tp3495
a(S'but'
p3496
g335
F0.9951
tp3497
a(S'this'
p3498
g9
F0.9878
tp3499
a(S'is'
p3500
g6
F0.9929
tp3501
a(S'expensive'
p3502
g413
F0.9918
tp3503
asI373
(lp3504
(S'how'
p3505
g124
F0.999
tp3506
a(S'much'
p3507
g413
F0.9378
tp3508
asI374
(lp3509
(S'how'
p3510
g124
F0.9991
tp3511
a(S'much'
p3512
g413
F0.8239
tp3513
a(S'did'
p3514
g6
F0.9903
tp3515
a(S'it'
p3516
g9
F0.9316
tp3517
a(S'cost'
p3518
g6
F0.8684
tp3519
asI375
(lp3520
(S'hundred'
p3521
g50
F0.7484
tp3522
a(S'dollars'
p3523
g33
F0.9912
tp3524
asI376
(lp3525
(S'they'
p3526
g9
F0.9925
tp3527
a(S'do'
p3528
g6
F0.9995
tp3529
asI377
(lp3530
(S'and'
p3531
g335
F0.9987
tp3532
a(S'where'
p3533
g124
F0.9763
tp3534
a(S'you'
p3535
g9
F0.9993
tp3536
a(S'buy'
p3537
g6
F0.9991
tp3538
a(S'it'
p3539
g9
F0.9898
tp3540
a(S'from'
p3541
g36
F0.9864
tp3542
asI378
(lp3543
(S'hm'
p3544
g54
F0.995
tp3545
asI379
(lp3546
(S'where'
p3547
g124
F0.9806
tp3548
a(S'you'
p3549
g9
F0.9993
tp3550
a(S'buy'
p3551
g6
F0.9996
tp3552
a(S'it'
p3553
g9
F0.9894
tp3554
asI380
(lp3555
(S'xxx'
p3556
g3
F0.8437
tp3557
asI381
(lp3558
(S'xxx'
p3559
g3
F0.5943
tp3560
a(S'store'
p3561
g33
F0.9402
tp3562
asI382
(lp3563
(S'yeah'
p3564
g54
F0.9988
tp3565
asI383
(lp3566
(S'mm'
p3567
g54
F0.627
tp3568
asI384
(lp3569
(S'mm'
p3570
g54
F0.627
tp3571
asI385
(lp3572
(S'mm'
p3573
g54
F0.627
tp3574
asI386
(lp3575
(S'male'
p3576
g33
F0.467
tp3577
asI387
(lp3578
(S'hm'
p3579
g54
F0.995
tp3580
asI388
(lp3581
(S'what'
p3582
g9
F0.9784
tp3583
a(g93
g6
F0.4928
tp3584
a(S'your'
p3585
g30
F0.9804
tp3586
a(S'last'
p3587
g413
F0.9724
tp3588
a(S'name'
p3589
g33
F0.9995
tp3590
asI389
(lp3591
(S'www'
p3592
g184
F0.3889
tp3593
asI390
(lp3594
(S'male'
p3595
g413
F0.6316
tp3596
a(S'www'
p3597
g33
F0.7434
tp3598
asI391
(lp3599
(S'yeah'
p3600
g54
F0.992
tp3601
a(S'www'
p3602
g184
F0.5193
tp3603
a(S'laughs'
p3604
g6
F0.7495
tp3605
asI392
(lp3606
(S'what'
p3607
g9
F0.9784
tp3608
a(g93
g6
F0.4928
tp3609
a(S'your'
p3610
g30
F0.9804
tp3611
a(S'last'
p3612
g413
F0.9724
tp3613
a(S'name'
p3614
g33
F0.9995
tp3615
asI393
(lp3616
(S'ask'
p3617
g6
F0.993
tp3618
a(S'my'
p3619
g30
F0.9974
tp3620
a(S'mom'
p3621
g33
F0.9941
tp3622
asI394
(lp3623
(S'hm'
p3624
g54
F0.995
tp3625
asI395
(lp3626
(S'you'
p3627
g9
F0.9926
tp3628
a(S'don'
p3629
g6
F0.85
tp3630
a(g40
g33
F0.3074
tp3631
a(S'know'
p3632
g6
F0.965
tp3633
asI396
(lp3634
(S'www'
p3635
g184
F0.3889
tp3636
asI397
(lp3637
(S'www'
p3638
g184
F0.3889
tp3639
asI398
(lp3640
(S'hm'
p3641
g54
F0.995
tp3642
asI399
(lp3643
(S'xxx'
p3644
g3
F0.6482
tp3645
a(S'named'
p3646
g6
F0.9864
tp3647
a(S'www'
p3648
g184
F0.6466
tp3649
a(S'ha'
p3650
g54
F0.9413
tp3651
asI400
(lp3652
(S'the'
p3653
g30
F0.9989
tp3654
a(S'name'
p3655
g33
F0.9986
tp3656
a(S'is'
p3657
g6
F0.9968
tp3658
a(S'male'
p3659
g413
F0.9314
tp3660
a(S'www'
p3661
g33
F0.6625
tp3662
asI401
(lp3663
(S'uhhuh'
p3664
g54
F0.9892
tp3665
asI402
(lp3666
(S'male'
p3667
g413
F0.6316
tp3668
a(S'www'
p3669
g33
F0.7434
tp3670
asI403
(lp3671
(S'hm'
p3672
g54
F0.995
tp3673
asI404
(lp3674
(S'yeah'
p3675
g54
F0.9988
tp3676
asI405
(lp3677
(S'king'
p3678
g33
F0.5878
tp3679
a(S'male'
p3680
g33
F0.7054
tp3681
asI406
(lp3682
(S'hunhunh'
p3683
g184
F0.2462
tp3684
a(S'male'
p3685
g413
F0.733
tp3686
a(S'the'
p3687
g30
F0.9743
tp3688
a(S'xxx'
p3689
g33
F0.4345
tp3690
asI407
(lp3691
(S'king'
p3692
g33
F0.5878
tp3693
a(S'male'
p3694
g33
F0.7054
tp3695
asI408
(lp3696
(S'your'
p3697
g30
F0.9832
tp3698
a(S'name'
p3699
g33
F0.9997
tp3700
a(S'is'
p3701
g6
F0.9985
tp3702
a(S'www'
p3703
g36
F0.5104
tp3704
a(S'your'
p3705
g30
F0.9921
tp3706
a(S'name'
p3707
g33
F0.9996
tp3708
a(S'is'
p3709
g6
F0.9975
tp3710
a(S'www'
p3711
g184
F0.3759
tp3712
asI409
(lp3713
(S'because'
p3714
g36
F0.9985
tp3715
a(S'your'
p3716
g30
F0.9908
tp3717
a(S'name'
p3718
g33
F0.9997
tp3719
a(S'is'
p3720
g6
F0.9968
tp3721
a(S'www'
p3722
g33
F0.2263
tp3723
a(S'too'
p3724
g124
F0.9494
tp3725
asI410
(lp3726
(S'no'
p3727
g54
F0.9253
tp3728
asI411
(lp3729
(S'that'
p3730
g9
F0.473
tp3731
a(g93
g6
F0.5844
tp3732
a(g736
g30
F0.9962
tp3733
a(S'cafe'
p3734
g33
F0.988
tp3735
asI412
(lp3736
(S'king'
p3737
g33
F0.6191
tp3738
asI413
(lp3739
(S'that'
p3740
g9
F0.7829
tp3741
a(S'means'
p3742
g6
F0.99
tp3743
a(S'castle'
p3744
g33
F0.649
tp3745
asI414
(lp3746
(S'so'
p3747
g124
F0.5368
tp3748
a(g204
g9
F0.963
tp3749
a(g828
g6
F0.9897
tp3750
a(S'in'
p3751
g36
F0.9872
tp3752
a(S'the'
p3753
g30
F0.9993
tp3754
a(S'cafe'
p3755
g33
F0.9216
tp3756
asI415
(lp3757
(S'xxx'
p3758
g3
F0.6385
tp3759
a(S'castle'
p3760
g33
F0.5714
tp3761
a(S'xxx'
p3762
g3
F0.6664
tp3763
asI416
(lp3764
(S'mhm'
p3765
g54
F0.9747
tp3766
asI417
(lp3767
(S'mhm'
p3768
g54
F0.9747
tp3769
asI418
(lp3770
(S'xxx'
p3771
g3
F0.8437
tp3772
asI419
(lp3773
(S'you'
p3774
g9
F0.9951
tp3775
a(S'gotta'
p3776
g6
F0.9988
tp3777
a(S'xxx'
p3778
g3
F0.5758
tp3779
asI420
(lp3780
(S'chi'
p3781
g184
F0.4611
tp3782
a(S'xxx'
p3783
g3
F0.6493
tp3784
asI421
(lp3785
(S'what'
p3786
g9
F0.949
tp3787
asI422
(lp3788
(S'ah'
p3789
g54
F0.996
tp3790
asI423
(lp3791
(S'ah'
p3792
g54
F0.996
tp3793
asI424
(lp3794
(S'we'
p3795
g9
F0.9975
tp3796
a(S'been'
p3797
g6
F0.9945
tp3798
a(S'very'
p3799
g124
F0.9911
tp3800
a(S'blessed'
p3801
g413
F0.9934
tp3802
a(S'tonight'
p3803
g33
F0.8261
tp3804
asI425
(lp3805
(S'xxx'
p3806
g3
F0.8437
tp3807
asI426
(lp3808
(g204
g9
F0.9519
tp3809
a(S'xxx'
p3810
g6
F0.9354
tp3811
a(S'you'
p3812
g9
F0.9992
tp3813
a(S'though'
p3814
g36
F0.5506
tp3815
asI427
(lp3816
(S'oh'
p3817
g54
F0.9988
tp3818
asI428
(lp3819
(S'but'
p3820
g335
F0.9948
tp3821
a(g204
g9
F0.9963
tp3822
a(S'want'
p3823
g6
F1.0
tp3824
a(S'you'
p3825
g9
F0.9987
tp3826
a(S'to'
p3827
g36
F0.9929
tp3828
a(S'get'
p3829
g6
F0.9997
tp3830
a(S'married'
p3831
g6
F0.8762
tp3832
a(S'to'
p3833
g36
F0.9805
tp3834
a(S'mom'
p3835
g33
F0.8506
tp3836
asI429
(lp3837
(S'laughs'
p3838
g6
F0.9102
tp3839
asI430
(lp3840
(S'mm'
p3841
g54
F0.627
tp3842
asI431
(lp3843
(S'mummy'
p3844
g33
F0.8842
tp3845
a(S'is'
p3846
g6
F0.9985
tp3847
a(S'there'
p3848
g124
F0.5601
tp3849
a(S'xxx'
p3850
g3
F0.8221
tp3851
asI432
(lp3852
(g204
g9
F0.9866
tp3853
a(S'would'
p3854
g6
F0.9999
tp3855
a(S'like'
p3856
g6
F0.9401
tp3857
a(S'sis'
p3858
g33
F0.9815
tp3859
a(S'after'
p3860
g36
F0.9913
tp3861
a(S'that'
p3862
g9
F0.97
tp3863
a(S'xxx'
p3864
g3
F0.7191
tp3865
asI433
(lp3866
(S'xxx'
p3867
g3
F0.663
tp3868
a(S'can'
p3869
g6
F0.9896
tp3870
a(g204
g9
F0.9889
tp3871
a(S'have'
p3872
g6
F0.999
tp3873
a(S'xxx'
p3874
g3
F0.7607
tp3875
asI434
(lp3876
(g204
g9
F0.9897
tp3877
a(S'want'
p3878
g6
F0.9999
tp3879
a(S'to'
p3880
g36
F0.9841
tp3881
a(S'have'
p3882
g6
F0.9984
tp3883
a(S'money'
p3884
g33
F0.9918
tp3885
asI435
(lp3886
(g204
g9
F0.9586
tp3887
a(g828
g6
F0.9853
tp3888
a(S'broke'
p3889
g413
F0.7262
tp3890
asI436
(lp3891
(S'mm'
p3892
g54
F0.627
tp3893
asI437
(lp3894
(g204
g9
F0.953
tp3895
a(g828
g6
F0.9901
tp3896
a(S'like'
p3897
g36
F0.888
tp3898
a(S'give'
p3899
g6
F0.9978
tp3900
a(S'me'
p3901
g9
F0.9924
tp3902
a(S'some'
p3903
g30
F0.9723
tp3904
a(S'money'
p3905
g33
F0.9837
tp3906
asI438
(lp3907
(S'where'
p3908
g124
F0.9806
tp3909
a(S'you'
p3910
g9
F0.9992
tp3911
a(S'get'
p3912
g6
F1.0
tp3913
a(S'it'
p3914
g9
F0.9928
tp3915
asI439
(lp3916
(g736
g30
F0.8253
tp3917
a(S'and'
p3918
g335
F0.9911
tp3919
a(S'xxx'
p3920
g6
F0.4373
tp3921
a(S'went'
p3922
g6
F0.9897
tp3923
a(S'like'
p3924
g36
F0.8845
tp3925
a(S'this'
p3926
g9
F0.9025
tp3927
asI440
(lp3928
(S'hi'
p3929
g54
F0.9365
tp3930
a(S'fireball'
p3931
g33
F0.8923
tp3932
asI441
(lp3933
(S'then'
p3934
g124
F0.9928
tp3935
a(S'and'
p3936
g335
F0.9985
tp3937
a(g204
g9
F0.9949
tp3938
a(S'said'
p3939
g6
F0.9985
tp3940
asI442
(lp3941
(S'give'
p3942
g6
F0.9985
tp3943
a(S'me'
p3944
g9
F0.9972
tp3945
a(S'all'
p3946
g30
F0.463
tp3947
a(S'your'
p3948
g30
F0.9911
tp3949
a(S'money'
p3950
g33
F0.9982
tp3951
asI443
(lp3952
(S'xxx'
p3953
g3
F0.4548
tp3954
a(S'over'
p3955
g36
F0.8812
tp3956
a(S'there'
p3957
g124
F0.6356
tp3958
a(S'fireboy'
p3959
g413
F0.2545
tp3960
asI444
(lp3961
(S'fireball'
p3962
g33
F0.8734
tp3963
asI445
(lp3964
(S'get'
p3965
g6
F0.9988
tp3966
a(S'up'
p3967
g27
F0.9739
tp3968
asI446
(lp3969
(S'be'
p3970
g6
F0.9727
tp3971
a(S'cause'
p3972
g36
F0.7105
tp3973
a(g204
g9
F0.9837
tp3974
a(g828
g6
F0.8596
tp3975
a(S'xxx'
p3976
g3
F0.7478
tp3977
asI447
(lp3978
(S'look'
p3979
g6
F0.8477
tp3980
a(S'boy'
p3981
g33
F0.967
tp3982
asI448
(lp3983
(S'look'
p3984
g6
F0.8183
tp3985
asI449
(lp3986
(S'food'
p3987
g33
F0.9401
tp3988
asI450
(lp3989
(S'no'
p3990
g54
F0.8176
tp3991
a(S'look'
p3992
g6
F0.686
tp3993
asI451
(lp3994
(S'yep'
p3995
g54
F0.9977
tp3996
asI452
(lp3997
(S'eat'
p3998
g6
F0.8267
tp3999
asI453
(lp4000
(S'eat'
p4001
g6
F0.9909
tp4002
a(S'you'
p4003
g9
F0.9788
tp4004
a(S'skinny'
p4005
g413
F0.9947
tp4006
asI454
(lp4007
(S'leave'
p4008
g6
F0.9917
tp4009
a(S'her'
p4010
g9
F0.7463
tp4011
a(S'there'
p4012
g124
F0.8186
tp4013
asI455
(lp4014
(S'see'
p4015
g6
F0.8354
tp4016
a(S'fireball'
p4017
g33
F0.9
tp4018
a(g93
g371
F0.7312
tp4019
a(S'the'
p4020
g30
F0.9989
tp4021
a(S'same'
p4022
g413
F0.9959
tp4023
a(S'thing'
p4024
g33
F0.9985
tp4025
asI456
(lp4026
(S'fireball'
p4027
g33
F0.8734
tp4028
asI457
(lp4029
(S'fireball'
p4030
g33
F0.8904
tp4031
a(S'look'
p4032
g6
F0.8242
tp4033
asI458
(lp4034
(S'it'
p4035
g9
F0.9888
tp4036
a(g93
g6
F0.6529
tp4037
a(S'the'
p4038
g30
F0.9994
tp4039
a(S'same'
p4040
g413
F0.996
tp4041
a(S'thing'
p4042
g33
F0.998
tp4043
asI459
(lp4044
(S'fireball'
p4045
g33
F0.8282
tp4046
a(S'look'
p4047
g6
F0.9871
tp4048
a(S'it'
p4049
g9
F0.9959
tp4050
a(g93
g6
F0.6519
tp4051
a(S'the'
p4052
g30
F0.9994
tp4053
a(S'same'
p4054
g413
F0.996
tp4055
a(S'thing'
p4056
g33
F0.9982
tp4057
asI460
(lp4058
(S'then'
p4059
g124
F0.9375
tp4060
a(S'he'
p4061
g9
F0.9978
tp4062
a(S'had'
p4063
g6
F0.9998
tp4064
a(S'he'
p4065
g9
F0.9974
tp4066
a(S'went'
p4067
g6
F0.9993
tp4068
a(S'at'
p4069
g36
F0.9907
tp4070
a(S'xxx'
p4071
g3
F0.6276
tp4072
asI461
(lp4073
(S'see'
p4074
g6
F0.8247
tp4075
a(g204
g9
F0.9435
tp4076
a(g828
g6
F0.9794
tp4077
a(S'not'
p4078
g124
F0.9992
tp4079
a(S'older'
p4080
g413
F0.9539
tp4081
a(S'than'
p4082
g36
F0.9937
tp4083
a(S'daphna'
p4084
g184
F0.312
tp4085
asI462
(lp4086
(S'today'
p4087
g33
F0.9834
tp4088
a(S'was'
p4089
g6
F0.9983
tp4090
a(S'you'
p4091
g9
F0.9427
tp4092
a(S'birthday'
p4093
g33
F0.975
tp4094
asI463
(lp4095
(S'who'
p4096
g9
F0.9963
tp4097
a(S'told'
p4098
g6
F0.9999
tp4099
a(S'you'
p4100
g9
F0.9944
tp4101
a(S'my'
p4102
g30
F0.9954
tp4103
a(S'better'
p4104
g413
F0.9961
tp4105
a(S'day'
p4106
g33
F0.9933
tp4107
a(g93
g371
F0.5982
tp4108
a(S'today'
p4109
g33
F0.9852
tp4110
asI464
(lp4111
(S'see'
p4112
g6
F0.8335
tp4113
asI465
(lp4114
(S'who'
p4115
g9
F0.9963
tp4116
a(S'told'
p4117
g6
F0.9999
tp4118
a(S'you'
p4119
g9
F0.9944
tp4120
a(S'my'
p4121
g30
F0.999
tp4122
a(S'birthday'
p4123
g33
F0.9992
tp4124
a(S'is'
p4125
g6
F0.9901
tp4126
a(S'today'
p4127
g33
F0.9503
tp4128
asI466
(lp4129
(S'huh'
p4130
g54
F0.993
tp4131
asI467
(lp4132
(g204
g9
F0.9948
tp4133
a(S'did'
p4134
g6
F0.9993
tp4135
asI468
(lp4136
(S'hey'
p4137
g54
F0.9986
tp4138
asI469
(lp4139
(S'hm'
p4140
g54
F0.995
tp4141
asI470
(lp4142
(S'male'
p4143
g413
F0.6722
tp4144
a(S'male'
p4145
g413
F0.5566
tp4146
a(S'birthday'
p4147
g33
F0.9996
tp4148
a(S'today'
p4149
g33
F0.9974
tp4150
asI471
(lp4151
(S'it'
p4152
g9
F0.9888
tp4153
a(g93
g6
F0.7995
tp4154
a(S'your'
p4155
g30
F0.9883
tp4156
a(S'birthday'
p4157
g33
F0.9995
tp4158
a(S'today'
p4159
g33
F0.9951
tp4160
asI472
(lp4161
(g204
g9
F0.989
tp4162
a(S'told'
p4163
g6
F1.0
tp4164
a(S'my'
p4165
g30
F0.9961
tp4166
a(S'mom'
p4167
g33
F0.9927
tp4168
asI473
(lp4169
(S'mommy'
p4170
g33
F0.5271
tp4171
asI474
(lp4172
(S'male'
p4173
g413
F0.7776
tp4174
a(S'birthday'
p4175
g33
F0.9975
tp4176
a(S'it'
p4177
g9
F0.9491
tp4178
a(g93
g6
F0.5358
tp4179
a(S'male'
p4180
g413
F0.8736
tp4181
a(S'birthday'
p4182
g33
F0.9985
tp4183
a(S'okay'
p4184
g54
F0.8411
tp4185
asI475
(lp4186
(S'laughs'
p4187
g6
F0.9102
tp4188
asI476
(lp4189
(S'hey'
p4190
g54
F0.9912
tp4191
a(S'you'
p4192
g9
F0.9932
tp4193
a(S'aren'
p4194
g6
F0.6837
tp4195
a(g40
g6
F0.5399
tp4196
a(S'you'
p4197
g9
F0.997
tp4198
a(S'aren'
p4199
g6
F0.6789
tp4200
a(g40
g6
F0.5332
tp4201
a(S'you'
p4202
g9
F0.9986
tp4203
a(S'didn'
p4204
g6
F0.9878
tp4205
a(g40
g6
F0.7795
tp4206
a(S'eat'
p4207
g6
F0.9892
tp4208
a(S'that'
p4209
g36
F0.6608
tp4210
a(S'all'
p4211
g30
F0.7271
tp4212
a(S'up'
p4213
g27
F0.4345
tp4214
a(S'mommy'
p4215
g33
F0.7985
tp4216
asI477
(lp4217
(S'so'
p4218
g124
F0.5317
tp4219
asI478
(lp4220
(S'finish'
p4221
g6
F0.9933
tp4222
a(S'it'
p4223
g9
F0.9885
tp4224
asI479
(lp4225
(S'can'
p4226
g6
F0.9635
tp4227
a(g40
g6
F0.6032
tp4228
asI480
(lp4229
(S'you'
p4230
g9
F0.9754
tp4231
a(S're'
p4232
g6
F0.6045
tp4233
a(S'too'
p4234
g124
F0.973
tp4235
a(S'xxx'
p4236
g3
F0.7727
tp4237
asI481
(lp4238
(S'me'
p4239
g9
F0.9951
tp4240
a(S'too'
p4241
g124
F0.9856
tp4242
asI482
(lp4243
(S'mhm'
p4244
g54
F0.9747
tp4245
asI483
(lp4246
(S'yeah'
p4247
g54
F0.994
tp4248
a(S'right'
p4249
g54
F0.7355
tp4250
asI484
(lp4251
(S'are'
p4252
g6
F0.9963
tp4253
a(S'you'
p4254
g9
F0.9949
tp4255
a(S'serious'
p4256
g413
F0.9974
tp4257
asI485
(lp4258
(S'you'
p4259
g9
F0.9542
tp4260
a(S'full'
p4261
g413
F0.9884
tp4262
asI486
(lp4263
(S'fireball'
p4264
g33
F0.8058
tp4265
a(S'didn'
p4266
g6
F0.8372
tp4267
a(g40
g6
F0.7417
tp4268
a(S'even'
p4269
g124
F0.9969
tp4270
a(S'eat'
p4271
g6
F0.9989
tp4272
a(S'all'
p4273
g30
F0.7088
tp4274
a(S'his'
p4275
g30
F0.9991
tp4276
a(S'food'
p4277
g33
F0.9947
tp4278
asI487
(lp4279
(S'hm'
p4280
g54
F0.995
tp4281
asI488
(lp4282
(S'or'
p4283
g335
F0.9864
tp4284
a(S'did'
p4285
g6
F0.9994
tp4286
a(S'you'
p4287
g9
F0.9988
tp4288
a(S'give'
p4289
g6
F0.9999
tp4290
a(S'him'
p4291
g9
F0.9412
tp4292
a(S'more'
p4293
g124
F0.6209
tp4294
asI489
(lp4295
(S'no'
p4296
g54
F0.9253
tp4297
asI490
(lp4298
(S'no'
p4299
g54
F0.9253
tp4300
asI491
(lp4301
(S'xxx'
p4302
g3
F0.8437
tp4303
asI492
(lp4304
(S'didn'
p4305
g6
F0.598
tp4306
a(g40
g6
F0.7658
tp4307
a(S'eat'
p4308
g6
F0.9966
tp4309
a(S'it'
p4310
g9
F0.9894
tp4311
asI493
(lp4312
(S'do'
p4313
g6
F0.9985
tp4314
a(S'you'
p4315
g9
F0.9996
tp4316
a(S'want'
p4317
g6
F0.9999
tp4318
a(S'this'
p4319
g30
F0.9641
tp4320
a(S'ice'
p4321
g33
F0.894
tp4322
asI494
(lp4323
(S'yeah'
p4324
g54
F0.9988
tp4325
asI495
(lp4326
(S'you'
p4327
g9
F0.998
tp4328
a(S'gave'
p4329
g6
F0.9999
tp4330
a(S'you'
p4331
g9
F0.9996
tp4332
a(S'gave'
p4333
g6
F0.9999
tp4334
a(S'him'
p4335
g9
F0.9761
tp4336
a(S'he'
p4337
g9
F0.9953
tp4338
a(S'ate'
p4339
g6
F0.9996
tp4340
a(S'some'
p4341
g30
F0.7907
tp4342
a(S'of'
p4343
g36
F0.9956
tp4344
a(S'it'
p4345
g9
F0.996
tp4346
asI496
(lp4347
(S'xxx'
p4348
g3
F0.617
tp4349
a(S'on'
p4350
g36
F0.995
tp4351
a(S'the'
p4352
g30
F0.9895
tp4353
a(S'xxx'
p4354
g33
F0.4345
tp4355
asI497
(lp4356
(S'come'
p4357
g6
F0.9897
tp4358
a(S'on'
p4359
g36
F0.7375
tp4360
a(S'xxx'
p4361
g33
F0.2544
tp4362
a(S'fireball'
p4363
g33
F0.9587
tp4364
asI498
(lp4365
(S'right'
p4366
g54
F0.861
tp4367
asI499
(lp4368
(S'mhm'
p4369
g54
F0.9747
tp4370
asI500
(lp4371
(S'that'
p4372
g9
F0.4727
tp4373
a(g93
g6
F0.8468
tp4374
a(S'me'
p4375
g9
F0.9987
tp4376
asI501
(lp4377
(S'yes'
p4378
g54
F0.9958
tp4379
asI502
(lp4380
(S'that'
p4381
g9
F0.4727
tp4382
a(g93
g371
F0.4099
tp4383
a(S'sis'
p4384
g33
F0.9126
tp4385
asI503
(lp4386
(S'yeah'
p4387
g54
F0.9988
tp4388
asI504
(lp4389
(S'that'
p4390
g9
F0.473
tp4391
a(g93
g371
F0.4099
tp4392
a(S'sis'
p4393
g33
F0.867
tp4394
a(S'father'
p4395
g33
F0.9818
tp4396
asI505
(lp4397
(S'that'
p4398
g9
F0.4727
tp4399
a(g93
g6
F0.8468
tp4400
a(S'me'
p4401
g9
F0.9987
tp4402
asI506
(lp4403
(S'that'
p4404
g9
F0.4727
tp4405
a(g93
g371
F0.38
tp4406
a(S'fireball'
p4407
g33
F0.9122
tp4408
asI507
(lp4409
(S'right'
p4410
g54
F0.861
tp4411
asI508
(lp4412
(S'that'
p4413
g9
F0.4727
tp4414
a(g93
g6
F0.8468
tp4415
a(S'me'
p4416
g9
F0.9987
tp4417
asI509
(lp4418
(S'that'
p4419
g9
F0.473
tp4420
a(g93
g371
F0.7798
tp4421
a(g93
g371
F0.945
tp4422
a(S'ma'
p4423
g371
F0.3673
tp4424
a(S'that'
p4425
g36
F0.5176
tp4426
a(g93
g371
F0.5916
tp4427
a(S'my'
p4428
g30
F0.9917
tp4429
a(S'mommy'
p4430
g33
F0.9633
tp4431
asI510
(lp4432
(S'and'
p4433
g335
F0.9982
tp4434
a(S'that'
p4435
g9
F0.7617
tp4436
a(g93
g6
F0.5753
tp4437
a(S'my'
p4438
g30
F0.9963
tp4439
a(S'father'
p4440
g33
F0.9932
tp4441
asI511
(lp4442
(S'but'
p4443
g335
F0.9914
tp4444
a(S'his'
p4445
g30
F0.9971
tp4446
a(S'father'
p4447
g33
F0.9801
tp4448
a(S'fireball'
p4449
g33
F0.8442
tp4450
a(g93
g371
F0.7257
tp4451
a(S'father'
p4452
g33
F0.9071
tp4453
a(S'lives'
p4454
g6
F0.7441
tp4455
a(S'xxx'
p4456
g3
F0.351
tp4457
a(S'down'
p4458
g124
F0.7729
tp4459
a(S'south'
p4460
g124
F0.6214
tp4461
asI512
(lp4462
(S'what'
p4463
g9
F0.949
tp4464
asI513
(lp4465
(S'f'
p4466
g371
F0.3799
tp4467
a(S'fireball'
p4468
g33
F0.5427
tp4469
a(g93
g371
F0.7186
tp4470
a(S'father'
p4471
g33
F0.9486
tp4472
a(S'has'
p4473
g6
F0.9977
tp4474
a(S'lives'
p4475
g6
F0.9327
tp4476
a(S'down'
p4477
g124
F0.5173
tp4478
a(S'south'
p4479
g124
F0.5856
tp4480
asI514
(lp4481
(S'down'
p4482
g124
F0.6715
tp4483
a(S'south'
p4484
g413
F0.402
tp4485
asI515
(lp4486
(S'yeah'
p4487
g54
F0.9988
tp4488
asI516
(lp4489
(S'laughs'
p4490
g6
F0.9102
tp4491
asI517
(lp4492
(S'that'
p4493
g9
F0.4727
tp4494
a(g93
g6
F0.7931
tp4495
a(S'her'
p4496
g9
F0.8014
tp4497
asI518
(lp4498
(S'daddy'
p4499
g33
F0.9436
tp4500
asI519
(lp4501
(S'you'
p4502
g9
F0.9911
tp4503
a(S'didn'
p4504
g6
F0.9886
tp4505
a(g40
g6
F0.7702
tp4506
a(S'eat'
p4507
g6
F0.9876
tp4508
a(S'all'
p4509
g30
F0.9221
tp4510
asI520
(lp4511
(g204
g9
F0.9586
tp4512
a(g828
g6
F0.9744
tp4513
a(S'full'
p4514
g413
F0.9542
tp4515
asI521
(lp4516
(S'xxx'
p4517
g3
F0.8437
tp4518
asI522
(lp4519
(S'oh'
p4520
g54
F0.9988
tp4521
asI523
(lp4522
(S'xxx'
p4523
g3
F0.8437
tp4524
asI524
(lp4525
(S'you'
p4526
g9
F0.998
tp4527
a(S'got'
p4528
g6
F0.9998
tp4529
a(g736
g30
F0.9953
tp4530
a(S'hole'
p4531
g33
F0.9987
tp4532
a(S'in'
p4533
g36
F0.9969
tp4534
a(S'your'
p4535
g30
F0.9951
tp4536
a(S'pocket'
p4537
g33
F0.9954
tp4538
asI525
(lp4539
(S'got'
p4540
g6
F0.9846
tp4541
a(g736
g30
F0.9957
tp4542
a(S'hole'
p4543
g33
F0.9986
tp4544
a(S'right'
p4545
g124
F0.7114
tp4546
a(S'there'
p4547
g124
F0.8093
tp4548
asI526
(lp4549
(S'why'
p4550
g124
F0.8931
tp4551
a(S'are'
p4552
g6
F0.9938
tp4553
a(S'your'
p4554
g30
F0.9704
tp4555
a(S'kids'
p4556
g33
F0.9959
tp4557
a(S'xxx'
p4558
g3
F0.7971
tp4559
asI527
(lp4560
(S'is'
p4561
g6
F0.9964
tp4562
a(S'she'
p4563
g9
F0.9982
tp4564
as.