(dp0
I0
(lp1
(S'3'
p2
S'$'
p3
F0.9492
tp4
a(S'is'
p5
S'V'
p6
F0.9951
tp7
a(S'that'
p8
S'O'
p9
F0.9454
tp10
a(S'for'
p11
S'P'
p12
F0.9983
tp13
a(S'that'
p14
S'D'
p15
F0.9491
tp16
a(S'lady'
p17
S'N'
p18
F0.9787
tp19
a(S'was'
p20
g6
F0.9907
tp21
a(S'here'
p22
S'R'
p23
F0.9908
tp24
asI1
(lp25
(S'oh'
p26
S'!'
p27
F0.998
tp28
a(S'yum'
p29
g27
F0.9964
tp30
asI2
(lp31
(S'remember'
p32
g6
F0.9853
tp33
a(S'um'
p34
g27
F0.9162
tp35
a(S'yuck'
p36
g27
F0.9936
tp37
asI3
(lp38
(S'just'
p39
g23
F0.9991
tp40
a(S'eat'
p41
g6
F0.9991
tp42
a(S'it'
p43
g9
F0.9901
tp44
asI4
(lp45
(g2
g3
F0.9482
tp46
a(S'xxx'
p47
S'E'
p48
F0.661
tp49
asI5
(lp50
(S'it'
p51
g9
F0.9922
tp52
a(S'doesn'
p53
g6
F0.991
tp54
a(S't'
p55
g18
F0.2695
tp56
a(S'have'
p57
g6
F0.998
tp58
a(S'anything'
p59
g18
F0.996
tp60
a(S'on'
p61
g12
F0.9979
tp62
a(S'it'
p63
g9
F0.9969
tp64
asI6
(lp65
(S'it'
p66
g9
F0.9888
tp67
a(S's'
p68
g6
F0.7157
tp69
a(S'for'
p70
g12
F0.9993
tp71
a(S'the'
p72
g15
F0.9994
tp73
a(S'ladies'
p74
g18
F0.9978
tp75
asI7
(lp76
(S'yeah'
p77
g27
F0.9947
tp78
a(S'the'
p79
g15
F0.9985
tp80
a(S'lady'
p81
g18
F0.9579
tp82
a(g68
S'G'
p83
F0.5962
tp84
a(S'coming'
p85
g6
F0.9967
tp86
a(S'back'
p87
g23
F0.6715
tp88
a(S'with'
p89
g12
F0.9933
tp90
a(S'different'
p91
S'A'
p92
F0.994
tp93
a(S'toy'
p94
g18
F0.9919
tp95
asI8
(lp96
(S'i'
p97
g9
F0.9812
tp98
a(S'only'
p99
g23
F0.8844
tp100
a(S'remember'
p101
g6
F0.9993
tp102
a(S'the'
p103
g15
F0.9994
tp104
a(S'phones'
p105
g18
F0.9953
tp106
asI9
(lp107
(g2
g3
F0.9758
tp108
a(S'that'
p109
g12
F0.585
tp110
a(S'tape'
p111
g18
F0.9753
tp112
a(S'didn'
p113
g6
F0.8291
tp114
a(g55
g6
F0.7396
tp115
a(S'have'
p116
g6
F0.9963
tp117
a(S'anything'
p118
g18
F0.9976
tp119
a(S'on'
p120
g12
F0.9981
tp121
a(S'it'
p122
g9
F0.9975
tp123
asI10
(lp124
(S'no'
p125
g27
F0.9253
tp126
asI11
(lp127
(g2
g3
F0.9446
tp128
a(S'excuse'
p129
g6
F0.8024
tp130
a(S'me'
p131
g9
F0.9987
tp132
asI12
(lp133
(S'2'
p134
g3
F0.6765
tp135
a(S'xxx'
p136
g48
F0.6773
tp137
asI13
(lp138
(g2
g3
F0.9347
tp139
a(S'these'
p140
g15
F0.5436
tp141
a(S'are'
p142
g6
F0.9675
tp143
a(S'mine'
p144
g9
F0.9393
tp145
asI14
(lp146
(g134
g3
F0.6004
tp147
a(S'nuhhuh'
p148
g27
F0.3939
tp149
asI15
(lp150
(g2
g3
F0.9586
tp151
a(S'ow'
p152
g27
F0.8621
tp153
asI16
(lp154
(S'here'
p155
g23
F0.9047
tp156
a(S'cousin'
p157
g18
F0.9434
tp158
asI17
(lp159
(S'can'
p160
g6
F0.9627
tp161
a(g55
g6
F0.7821
tp162
a(S'eat'
p163
g6
F0.9688
tp164
a(S'yet'
p165
g23
F0.9491
tp166
asI18
(lp167
(g2
g3
F0.958
tp168
a(S'why'
p169
g23
F0.92
tp170
asI19
(lp171
(S'be'
p172
g6
F0.9696
tp173
a(S'cause'
p174
g12
F0.6746
tp175
asI20
(lp176
(S'have'
p177
g6
F0.9954
tp178
a(S'to'
p179
g12
F0.9966
tp180
a(S'wait'
p181
g6
F0.9988
tp182
a(S'for'
p183
g12
F0.9977
tp184
a(S'that'
p185
g9
F0.8375
tp186
asI21
(lp187
(S'it'
p188
g9
F0.9888
tp189
a(g68
g6
F0.6905
tp190
a(S'recording'
p191
g6
F0.9988
tp192
a(S'you'
p193
g9
F0.9954
tp194
asI22
(lp195
(g97
g9
F0.9635
tp196
a(S'don'
p197
g6
F0.9156
tp198
a(g55
g18
F0.3286
tp199
a(S'care'
p200
g18
F0.5
tp201
asI23
(lp202
(S'alrighty'
p203
g27
F0.5774
tp204
a(S'wp'
p205
g27
F0.3619
tp206
asI24
(lp207
(S'auntie'
p208
g18
F0.6319
tp209
a(S'can'
p210
g6
F0.992
tp211
a(g97
g9
F0.9823
tp212
a(S'eat'
p213
g6
F0.9964
tp214
asI25
(lp215
(S'go'
p216
g6
F0.9589
tp217
a(S'ahead'
p218
g23
F0.8755
tp219
asI26
(lp220
(S'you'
p221
g9
F0.9969
tp222
a(S'can'
p223
g6
F0.9998
tp224
a(S'eat'
p225
g6
F0.9977
tp226
a(S'anytime'
p227
g23
F0.9834
tp228
a(S'you'
p229
g9
F0.9993
tp230
a(S'want'
p231
g6
F0.999
tp232
asI27
(lp233
(S'oh'
p234
g27
F0.9988
tp235
asI28
(lp236
(g2
g3
F0.9493
tp237
a(S'dunk'
p238
g18
F0.9614
tp239
asI29
(lp240
(S'it'
p241
g9
F0.9858
tp242
a(g68
g6
F0.4689
tp243
a(S'hot'
p244
g92
F0.9497
tp245
asI30
(lp246
(g2
g3
F0.9133
tp247
a(S'a'
p248
g15
F0.9636
tp249
a(S'dunk'
p250
g18
F0.9948
tp251
asI31
(lp252
(S'cousin'
p253
g18
F0.7951
tp254
a(S'this'
p255
g9
F0.939
tp256
a(S'is'
p257
g6
F0.998
tp258
a(S'recording'
p259
g6
F0.9954
tp260
a(S'you'
p261
g9
F0.995
tp262
asI32
(lp263
(g134
g3
F0.6877
tp264
a(g97
g9
F0.9543
tp265
a(S'hope'
p266
g6
F0.9994
tp267
a(S'that'
p268
g9
F0.6305
tp269
a(S'wasn'
p270
g6
F0.8705
tp271
a(g55
g6
F0.2239
tp272
a(S'running'
p273
g6
F0.9968
tp274
a(S'when'
p275
g23
F0.9783
tp276
a(S'we'
p277
g9
F0.9964
tp278
a(S'were'
p279
g6
F0.9979
tp280
asI33
(lp281
(g2
g3
F0.9572
tp282
a(S'huh'
p283
g27
F0.968
tp284
asI34
(lp285
(S'this'
p286
g9
F0.9526
tp287
a(S'is'
p288
g6
F0.9976
tp289
a(S'recording'
p290
g6
F0.9978
tp291
a(S'me'
p292
g9
F0.9966
tp293
asI35
(lp294
(g134
g3
F0.618
tp295
a(S'when'
p296
g23
F0.9723
tp297
a(S'you'
p298
g9
F0.9976
tp299
a(S'xxx'
p300
g6
F0.8297
tp301
a(S'my'
p302
g15
F0.9976
tp303
a(S'thing'
p304
g18
F0.9991
tp305
asI36
(lp306
(g2
g3
F0.9064
tp307
a(S'it'
p308
g9
F0.9933
tp309
a(S'is'
p310
g6
F0.9992
tp311
asI37
(lp312
(S'uhhuh'
p313
g27
F0.9892
tp314
asI38
(lp315
(S'xxx'
p316
g48
F0.6328
tp317
a(S'time'
p318
g18
F0.9765
tp319
asI39
(lp320
(g2
g3
F0.9758
tp321
a(S'that'
p322
g12
F0.9171
tp323
a(g68
g83
F0.4316
tp324
a(S'recording'
p325
g6
F0.9332
tp326
a(S'chi'
p327
S'^'
p328
F0.404
tp329
asI40
(lp330
(S'get'
p331
g6
F0.997
tp332
a(S'over'
p333
g12
F0.5719
tp334
a(S'here'
p335
g23
F0.9121
tp336
asI41
(lp337
(S'are'
p338
g6
F0.9908
tp339
a(S'there'
p340
S'X'
p341
F0.7358
tp342
a(S'any'
p343
g15
F0.9419
tp344
asI42
(lp345
(g134
g3
F0.6834
tp346
a(S'oh'
p347
g27
F0.998
tp348
asI43
(lp349
(g2
g3
F0.9758
tp350
a(S'that'
p351
g12
F0.6222
tp352
a(S'is'
p353
g6
F0.9981
tp354
a(S'recording'
p355
g6
F0.9926
tp356
a(S'her'
p357
g9
F0.5543
tp358
asI44
(lp359
(g134
g3
F0.6845
tp360
a(S'ow'
p361
g27
F0.9604
tp362
asI45
(lp363
(g2
g3
F0.9596
tp364
a(S'why'
p365
g23
F0.8811
tp366
a(S'is'
p367
g6
F0.9988
tp368
a(S'that'
p369
g9
F0.7717
tp370
a(S'recording'
p371
g6
F0.9998
tp372
a(S'you'
p373
g9
F0.9961
tp374
asI46
(lp375
(S'it'
p376
g9
F0.9888
tp377
a(g68
g6
F0.7157
tp378
a(S'for'
p379
g12
F0.9971
tp380
a(S'that'
p381
g15
F0.952
tp382
a(S'lady'
p383
g18
F0.9875
tp384
asI47
(lp385
(S'cousin'
p386
g18
F0.9795
tp387
a(S'get'
p388
g6
F0.9991
tp389
a(S'over'
p390
g12
F0.5296
tp391
a(S'here'
p392
g23
F0.9874
tp393
a(S'and'
p394
S'&'
p395
F0.9964
tp396
a(S'eat'
p397
g6
F0.9728
tp398
asI48
(lp399
(S'now'
p400
g23
F0.9944
tp401
a(S'just'
p402
g23
F0.9996
tp403
a(S'sit'
p404
g6
F0.9986
tp405
a(S'down'
p406
S'T'
p407
F0.71
tp408
a(S'and'
p409
g395
F0.9966
tp410
a(S'eat'
p411
g6
F0.9728
tp412
asI49
(lp413
(g2
g3
F0.9732
tp414
a(S'that'
p415
g12
F0.7067
tp416
a(S'hurt'
p417
g6
F0.9076
tp418
asI50
(lp419
(S'probably'
p420
g23
F0.9982
tp421
a(S'will'
p422
g6
F0.9979
tp423
a(S'be'
p424
g6
F0.9986
tp425
a(S'mother'
p426
g18
F0.9571
tp427
a(g68
g83
F0.88
tp428
asI51
(lp429
(S'hi'
p430
g27
F0.9864
tp431
a(S'fem'
p432
g27
F0.6342
tp433
asI52
(lp434
(S'hi'
p435
g27
F0.993
tp436
asI53
(lp437
(S'laughs'
p438
g6
F0.9102
tp439
asI54
(lp440
(g2
g3
F0.9072
tp441
a(S'it'
p442
g9
F0.9796
tp443
a(S'just'
p444
g23
F0.9994
tp445
a(S'recorded'
p446
g6
F0.9923
tp447
a(S'that'
p448
g9
F0.6294
tp449
asI55
(lp450
(S'so'
p451
g12
F0.7361
tp452
a(S'what'
p453
g9
F0.995
tp454
asI56
(lp455
(g134
g3
F0.5283
tp456
a(S'where'
p457
g23
F0.9736
tp458
a(g68
g83
F0.7551
tp459
a(S'my'
p460
g15
F0.9071
tp461
a(S'xxx'
p462
g18
F0.4839
tp463
asI57
(lp464
(S'it'
p465
g9
F0.9888
tp466
a(g68
g6
F0.6711
tp467
a(S'supposed'
p468
g92
F0.802
tp469
a(S'to'
p470
g12
F0.9947
tp471
a(S'record'
p472
g6
F0.8935
tp473
a(S'anything'
p474
g18
F0.9883
tp475
asI58
(lp476
(S'it'
p477
g9
F0.9922
tp478
a(S'doesn'
p479
g6
F0.991
tp480
a(g55
g83
F0.2195
tp481
a(S'matter'
p482
g6
F0.4232
tp483
a(S'what'
p484
g9
F0.9716
tp485
a(S'they'
p486
g9
F0.7817
tp487
a(S'record'
p488
g6
F0.6111
tp489
asI59
(lp490
(S'it'
p491
g9
F0.9888
tp492
a(g68
g6
F0.5138
tp493
a(S'just'
p494
g23
F0.9979
tp495
a(S'the'
p496
g15
F0.9941
tp497
a(S'suppertime'
p498
g18
F0.5393
tp499
a(S'thing'
p500
g18
F0.9964
tp501
asI60
(lp502
(g2
g3
F0.8933
tp503
a(S'you'
p504
g9
F0.9733
tp505
a(S're'
p506
g6
F0.8567
tp507
a(S'sure'
p508
g92
F0.8742
tp509
a(S'that'
p510
g12
F0.675
tp511
a(S'didn'
p512
g6
F0.8827
tp513
a(g55
g6
F0.7396
tp514
a(S'have'
p515
g6
F0.9963
tp516
a(S'anything'
p517
g18
F0.9977
tp518
a(S'on'
p519
g12
F0.9983
tp520
a(S'it'
p521
g9
F0.9974
tp522
asI61
(lp523
(g134
g12
F0.7491
tp524
a(S'it'
p525
g9
F0.9917
tp526
a(S'didn'
p527
g6
F0.9716
tp528
a(g55
g83
F0.4278
tp529
asI62
(lp530
(g134
g12
F0.7737
tp531
a(S'she'
p532
g9
F0.9974
tp533
a(S'gave'
p534
g6
F0.9999
tp535
a(S'us'
p536
g9
F0.9752
tp537
a(S'that'
p538
g15
F0.7778
tp539
a(S'blank'
p540
g92
F0.9644
tp541
a(S'tape'
p542
g18
F0.999
tp543
asI63
(lp544
(g134
g3
F0.6906
tp545
a(S'and'
p546
g395
F0.9985
tp547
a(S'then'
p548
g23
F0.9922
tp549
a(g97
g9
F0.9919
tp550
a(S'played'
p551
g6
F1.0
tp552
a(S'it'
p553
g9
F0.9873
tp554
asI64
(lp555
(g97
g9
F0.9896
tp556
a(S'had'
p557
g6
F0.9997
tp558
a(S'fun'
p559
g18
F0.5935
tp560
a(S'looking'
p561
g6
F0.9954
tp562
a(S'at'
p563
g12
F0.9989
tp564
a(S'the'
p565
g15
F0.9994
tp566
a(S'pictures'
p567
g18
F0.9949
tp568
asI65
(lp569
(S'really'
p570
g23
F0.9938
tp571
asI66
(lp572
(S'mhm'
p573
g27
F0.9747
tp574
asI67
(lp575
(S'noises'
p576
g18
F0.9302
tp577
asI68
(lp578
(g2
g3
F0.9651
tp579
a(g97
g9
F0.9087
tp580
a(S'm'
p581
g6
F0.9745
tp582
a(S'hot'
p583
g92
F0.9617
tp584
asI69
(lp585
(g2
g3
F0.9263
tp586
a(S'do'
p587
g6
F0.8885
tp588
a(g97
g9
F0.9946
tp589
a(S'just'
p590
g23
F0.9995
tp591
a(S'have'
p592
g6
F0.9986
tp593
a(S'to'
p594
g12
F0.9846
tp595
a(S'do'
p596
g6
F0.9989
tp597
a(g97
g9
F0.997
tp598
a(S'have'
p599
g6
F0.9998
tp600
a(S'to'
p601
g12
F0.9846
tp602
a(S'do'
p603
g6
F0.9999
tp604
a(S'the'
p605
g15
F0.9996
tp606
a(S'dishes'
p607
g18
F0.9956
tp608
a(S'right'
p609
g23
F0.9404
tp610
a(S'now'
p611
g23
F0.9961
tp612
a(S'because'
p613
g12
F0.9761
tp614
a(S'bro'
p615
g18
F0.974
tp616
a(S'and'
p617
g395
F0.9974
tp618
a(S'them'
p619
g9
F0.9706
tp620
a(S'didn'
p621
g6
F0.9139
tp622
a(g55
g6
F0.7557
tp623
a(S'eat'
p624
g6
F0.9371
tp625
asI70
(lp626
(S'xxx'
p627
g48
F0.8437
tp628
asI71
(lp629
(g2
g3
F0.9372
tp630
a(S'no'
p631
g15
F0.4424
tp632
a(g97
g9
F0.795
tp633
a(S'can'
p634
g6
F0.9999
tp635
a(S'wait'
p636
g6
F0.9987
tp637
asI72
(lp638
(g134
g12
F0.8717
tp639
a(S'the'
p640
g15
F0.9882
tp641
a(S'xxx'
p642
g18
F0.5906
tp643
a(S'was'
p644
g6
F0.9973
tp645
a(S'supposed'
p646
g92
F0.9838
tp647
a(S'was'
p648
g6
F0.9651
tp649
a(S'supposed'
p650
g92
F0.9424
tp651
a(S'to'
p652
g12
F0.9979
tp653
a(S'be'
p654
g6
F0.9994
tp655
a(S'on'
p656
g12
F0.8777
tp657
a(S'at'
p658
g12
F0.9903
tp659
a(S'night'
p660
g18
F0.9707
tp661
asI73
(lp662
(g97
g9
F0.9793
tp663
a(S'll'
p664
g6
F0.8523
tp665
a(S'check'
p666
g6
F0.9948
tp667
a(S'the'
p668
g15
F0.9992
tp669
a(S'tv'
p670
g18
F0.9698
tp671
a(S'guide'
p672
g18
F0.9649
tp673
asI74
(lp674
(S'maybe'
p675
g23
F0.9732
tp676
a(S'at'
p677
g12
F0.9948
tp678
a(S'night'
p679
g18
F0.9584
tp680
a(S'what'
p681
g9
F0.9934
tp682
asI75
(lp683
(g97
g9
F0.9793
tp684
a(S'll'
p685
g6
F0.8523
tp686
a(S'check'
p687
g6
F0.9948
tp688
a(S'the'
p689
g15
F0.9993
tp690
a(S'tv'
p691
g18
F0.9698
tp692
a(S'guide'
p693
g18
F0.9636
tp694
a(S'later'
p695
g23
F0.804
tp696
asI76
(lp697
(g134
g3
F0.6606
tp698
a(S'what'
p699
g9
F0.9508
tp700
asI77
(lp701
(g2
g3
F0.9072
tp702
a(S'it'
p703
g9
F0.9621
tp704
a(g68
g6
F0.8426
tp705
a(S'all'
p706
g15
F0.6324
tp707
a(S'over'
p708
g12
F0.5272
tp709
asI78
(lp710
(g97
g9
F0.9861
tp711
a(S'will'
p712
g6
F0.9997
tp713
a(S'check'
p714
g6
F0.999
tp715
a(S'the'
p716
g15
F0.9992
tp717
a(S'tv'
p718
g18
F0.9698
tp719
a(S'guide'
p720
g18
F0.9649
tp721
asI79
(lp722
(S'will'
p723
g6
F0.9979
tp724
a(S'you'
p725
g9
F0.9551
tp726
a(S'hand'
p727
g6
F0.9715
tp728
a(S'me'
p729
g9
F0.9907
tp730
a(g248
g15
F0.9546
tp731
a(S'l'
p732
g18
F0.5902
tp733
a(S'one'
p734
g3
F0.9491
tp735
a(S'sauce'
p736
g18
F0.9952
tp737
asI80
(lp738
(g134
g3
F0.6961
tp739
a(S'great'
p740
g92
F0.989
tp741
a(S'now'
p742
g23
F0.9908
tp743
a(g97
g9
F0.9907
tp744
a(S'can'
p745
g6
F0.9999
tp746
a(S'use'
p747
g6
F0.9968
tp748
a(S'this'
p749
g9
F0.8849
tp750
a(S'on'
p751
g12
F0.9026
tp752
a(S'that'
p753
g9
F0.6512
tp754
a(S'uh'
p755
g27
F0.5362
tp756
a(S'current'
p757
g92
F0.9883
tp758
a(S'affair'
p759
g18
F0.9989
tp760
asI81
(lp761
(S'you'
p762
g9
F0.998
tp763
a(S'got'
p764
g6
F0.9996
tp765
a(S'to'
p766
g12
F0.9426
tp767
a(S'put'
p768
g6
F0.999
tp769
a(S'some'
p770
g15
F0.9937
tp771
a(S'ketchup'
p772
g18
F0.9911
tp773
a(S'in'
p774
g12
F0.9985
tp775
a(S'it'
p776
g9
F0.9969
tp777
asI82
(lp778
(g2
g3
F0.9685
tp779
a(S'current'
p780
g92
F0.9917
tp781
a(S'affair'
p782
g18
F0.9993
tp783
asI83
(lp784
(g134
g3
F0.6471
tp785
a(S'extra'
p786
g92
F0.9715
tp787
asI84
(lp788
(g134
g3
F0.4379
tp789
a(S'did'
p790
g6
F0.9941
tp791
a(S'um'
p792
g27
F0.8919
tp793
a(S'xxx'
p794
g48
F0.7328
tp795
a(S'one'
p796
g3
F0.7548
tp797
asI85
(lp798
(g2
g3
F0.9674
tp799
a(S'then'
p800
g23
F0.7835
tp801
a(S'flash'
p802
g18
F0.8679
tp803
asI86
(lp804
(S'hot'
p805
g92
F0.9734
tp806
a(S'cups'
p807
g18
F0.9973
tp808
asI87
(lp809
(g134
g12
F0.6791
tp810
a(S'no'
p811
g27
F0.7209
tp812
a(S'the'
p813
g15
F0.9978
tp814
a(S'flash'
p815
g18
F0.9685
tp816
a(S'isn'
p817
g83
F0.4295
tp818
a(g55
g83
F0.7224
tp819
a(S'on'
p820
g12
F0.9249
tp821
asI88
(lp822
(g134
g12
F0.7491
tp823
a(S'it'
p824
g9
F0.9914
tp825
a(g68
g6
F0.7219
tp826
a(S'on'
p827
g12
F0.9512
tp828
a(S'saturday'
p829
g328
F0.9686
tp830
asI89
(lp831
(g2
g3
F0.9572
tp832
a(S'oh'
p833
g27
F0.993
tp834
asI90
(lp835
(S'check'
p836
g6
F0.8781
tp837
a(S'on'
p838
g12
F0.8082
tp839
a(S'the'
p840
g15
F0.9993
tp841
a(S'door'
p842
g18
F0.9983
tp843
asI91
(lp844
(g134
g3
F0.4839
tp845
a(S'excuse'
p846
g6
F0.9594
tp847
a(S'me'
p848
g9
F0.9987
tp849
asI92
(lp850
(g2
g3
F0.966
tp851
a(S'what'
p852
g9
F0.9579
tp853
a(g68
g83
F0.4313
tp854
a(S'on'
p855
g12
F0.9487
tp856
a(S'after'
p857
g12
F0.9674
tp858
a(S'um'
p859
g27
F0.3643
tp860
a(S'tough'
p861
g92
F0.9966
tp862
a(S'cops'
p863
g18
F0.9946
tp864
asI93
(lp865
(g134
g3
F0.6877
tp866
a(g97
g9
F0.9435
tp867
a(S'don'
p868
g6
F0.9162
tp869
a(g55
g18
F0.2903
tp870
a(S'know'
p871
g6
F0.9882
tp872
asI94
(lp873
(g134
g3
F0.7349
tp874
a(S'flash'
p875
g18
F0.9651
tp876
a(S'might'
p877
g6
F0.9728
tp878
a(S'be'
p879
g6
F0.9993
tp880
a(S'on'
p881
g12
F0.6968
tp882
asI95
(lp883
(g134
g3
F0.6877
tp884
a(g97
g9
F0.9435
tp885
a(S'don'
p886
g6
F0.9162
tp887
a(g55
g18
F0.2903
tp888
a(S'know'
p889
g6
F0.9882
tp890
asI96
(lp891
(g134
g3
F0.6877
tp892
a(g97
g9
F0.9764
tp893
a(S'think'
p894
g6
F1.0
tp895
a(S'it'
p896
g9
F0.992
tp897
a(g68
g6
F0.7993
tp898
a(S'on'
p899
g12
F0.9536
tp900
a(S'saturday'
p901
g328
F0.963
tp902
asI97
(lp903
(g97
g9
F0.9893
tp904
a(S'thought'
p905
g6
F0.9998
tp906
a(S'that'
p907
g9
F0.9225
tp908
a(S'was'
p909
g6
F0.9966
tp910
a(S'milk'
p911
g18
F0.9796
tp912
asI98
(lp913
(S'that'
p914
g12
F0.8329
tp915
a(S'you'
p916
g9
F0.9995
tp917
a(S'were'
p918
g6
F0.996
tp919
a(S'pouring'
p920
g92
F0.5815
tp921
asI99
(lp922
(S'no'
p923
g27
F0.7608
tp924
a(S'it'
p925
g9
F0.9844
tp926
a(g68
g6
F0.5535
tp927
a(S'not'
p928
g23
F0.9922
tp929
asI100
(lp930
(g2
g3
F0.9651
tp931
a(g97
g9
F0.9635
tp932
a(S'am'
p933
g6
F0.9966
tp934
a(S'not'
p935
g23
F0.9962
tp936
a(S'going'
p937
g6
F0.9992
tp938
a(S'to'
p939
g12
F0.9882
tp940
a(S'watch'
p941
g6
F0.9993
tp942
a(g248
g15
F0.9984
tp943
a(S'current'
p944
g92
F0.9838
tp945
a(S'affair'
p946
g18
F0.9978
tp947
asI101
(lp948
(S'is'
p949
g6
F0.998
tp950
a(S'that'
p951
g9
F0.8861
tp952
a(S'mine'
p953
g9
F0.9614
tp954
asI102
(lp955
(g134
g12
F0.7491
tp956
a(S'it'
p957
g9
F0.9914
tp958
a(g68
g6
F0.7527
tp959
a(S'on'
p960
g12
F0.8717
tp961
a(S'for'
p962
g12
F0.9993
tp963
a(S'an'
p964
g15
F0.9914
tp965
a(S'hour'
p966
g18
F0.9863
tp967
a(S'cousin'
p968
g18
F0.9852
tp969
asI103
(lp970
(g2
g3
F0.9651
tp971
a(g97
g9
F0.8877
tp972
a(g581
g6
F0.9794
tp973
a(S'not'
p974
g23
F0.9963
tp975
a(S'going'
p976
g6
F0.9992
tp977
a(S'to'
p978
g12
F0.9882
tp979
a(S'watch'
p980
g6
F0.9993
tp981
a(g248
g15
F0.9984
tp982
a(S'current'
p983
g92
F0.9838
tp984
a(S'affair'
p985
g18
F0.9978
tp986
asI104
(lp987
(S'hey'
p988
g27
F0.9953
tp989
a(S'gasps'
p990
g18
F0.5489
tp991
asI105
(lp992
(S'xxx'
p993
g48
F0.7953
tp994
a(S'ah'
p995
g27
F0.984
tp996
asI106
(lp997
(S'what'
p998
g9
F0.949
tp999
asI107
(lp1000
(S'goose'
p1001
g18
F0.8327
tp1002
a(S'bumps'
p1003
g18
F0.7779
tp1004
asI108
(lp1005
(S'hm'
p1006
g27
F0.995
tp1007
asI109
(lp1008
(S'what'
p1009
g9
F0.949
tp1010
asI110
(lp1011
(S'xxx'
p1012
g48
F0.8437
tp1013
asI111
(lp1014
(g134
g3
F0.7421
tp1015
a(S'mom'
p1016
g18
F0.9636
tp1017
a(S'can'
p1018
g6
F0.9973
tp1019
a(g97
g9
F0.9851
tp1020
a(S'have'
p1021
g6
F1.0
tp1022
a(S'the'
p1023
g15
F0.9996
tp1024
a(S'juice'
p1025
g18
F0.9753
tp1026
asI112
(lp1027
(g2
g3
F0.9651
tp1028
a(g97
g9
F0.8877
tp1029
a(g581
g6
F0.9794
tp1030
a(S'not'
p1031
g23
F0.9963
tp1032
a(S'going'
p1033
g6
F0.9992
tp1034
a(S'to'
p1035
g12
F0.9882
tp1036
a(S'watch'
p1037
g6
F0.9937
tp1038
a(S'current'
p1039
g92
F0.9885
tp1040
a(S'affair'
p1041
g18
F0.999
tp1042
asI113
(lp1043
(g134
g3
F0.6558
tp1044
a(S'how'
p1045
g23
F0.9992
tp1046
a(S'much'
p1047
g92
F0.5569
tp1048
a(S'is'
p1049
g6
F0.9885
tp1050
a(S'this'
p1051
g15
F0.9461
tp1052
a(S'mom'
p1053
g18
F0.9777
tp1054
asI114
(lp1055
(S'xxx'
p1056
g48
F0.8437
tp1057
asI115
(lp1058
(g134
g3
F0.6606
tp1059
a(S'what'
p1060
g9
F0.9508
tp1061
asI116
(lp1062
(S'put'
p1063
g6
F0.9891
tp1064
a(S'it'
p1065
g9
F0.985
tp1066
a(S'in'
p1067
g407
F0.5659
tp1068
asI117
(lp1069
(g134
g12
F0.6646
tp1070
a(g248
g15
F0.9915
tp1071
a(S'quart'
p1072
g18
F0.9984
tp1073
asI118
(lp1074
(S'no'
p1075
g27
F0.7608
tp1076
a(S'it'
p1077
g9
F0.9828
tp1078
a(g68
g6
F0.8069
tp1079
a(S'that'
p1080
g9
F0.4742
tp1081
a(g68
g6
F0.5213
tp1082
a(S'two'
p1083
g3
F0.9727
tp1084
a(S'quarts'
p1085
g18
F0.9732
tp1086
asI119
(lp1087
(g134
g3
F0.6765
tp1088
a(S'xxx'
p1089
g48
F0.6773
tp1090
asI120
(lp1091
(S'put'
p1092
g6
F0.9108
tp1093
a(S'in'
p1094
g12
F0.8625
tp1095
a(S'eight'
p1096
g3
F0.8755
tp1097
a(S'tablespoons'
p1098
g18
F0.9953
tp1099
a(g97
g9
F0.9521
tp1100
a(S'think'
p1101
g6
F1.0
tp1102
a(S'it'
p1103
g9
F0.9978
tp1104
a(S'is'
p1105
g6
F0.999
tp1106
asI121
(lp1107
(g134
g3
F0.5805
tp1108
a(S'0'
p1109
g3
F0.981
tp1110
asI122
(lp1111
(S'it'
p1112
g9
F0.9956
tp1113
a(S'was'
p1114
g6
F0.9991
tp1115
a(S'good'
p1116
g92
F0.9885
tp1117
a(S'when'
p1118
g23
F0.987
tp1119
a(S'you'
p1120
g9
F0.9993
tp1121
a(S'made'
p1122
g6
F0.9998
tp1123
a(S'it'
p1124
g9
F0.9892
tp1125
asI123
(lp1126
(g97
g9
F0.989
tp1127
a(S'think'
p1128
g6
F1.0
tp1129
a(S'it'
p1130
g9
F0.9959
tp1131
a(S'was'
p1132
g6
F0.9981
tp1133
a(S'eight'
p1134
g3
F0.7299
tp1135
a(S'tablespoons'
p1136
g18
F0.9918
tp1137
asI124
(lp1138
(S'everybody'
p1139
g18
F0.9331
tp1140
a(S'in'
p1141
g12
F0.9978
tp1142
a(S'my'
p1143
g15
F0.9983
tp1144
a(S'whole'
p1145
g92
F0.9862
tp1146
a(S'whole'
p1147
g92
F0.9912
tp1148
a(S'family'
p1149
g18
F0.9954
tp1150
a(S'is'
p1151
g6
F0.9924
tp1152
a(S'fucking'
p1153
g23
F0.8225
tp1154
a(S'good'
p1155
g92
F0.999
tp1156
asI125
(lp1157
(S'huh'
p1158
g27
F0.993
tp1159
asI126
(lp1160
(S'it'
p1161
g9
F0.9888
tp1162
a(g68
g6
F0.7285
tp1163
a(g248
g15
F0.9933
tp1164
a(S'good'
p1165
g92
F0.9993
tp1166
a(S'thing'
p1167
g18
F0.9989
tp1168
a(S'that'
p1169
g12
F0.9455
tp1170
a(S'charlene'
p1171
g328
F0.9913
tp1172
a(S'did'
p1173
g6
F0.9749
tp1174
a(S'xxx'
p1175
g48
F0.7557
tp1176
asI127
(lp1177
(S'you'
p1178
g9
F0.961
tp1179
a(S'okay'
p1180
g92
F0.5359
tp1181
asI128
(lp1182
(S'you'
p1183
g9
F0.961
tp1184
a(S'okay'
p1185
g92
F0.5359
tp1186
asI129
(lp1187
(g134
g3
F0.5623
tp1188
a(S'sure'
p1189
g92
F0.9784
tp1190
asI130
(lp1191
(g134
g3
F0.6765
tp1192
a(S'xxx'
p1193
g48
F0.6773
tp1194
asI131
(lp1195
(S'xxx'
p1196
g48
F0.8437
tp1197
asI132
(lp1198
(g97
g9
F0.9818
tp1199
a(S'love'
p1200
g6
F0.9988
tp1201
a(S'these'
p1202
g15
F0.9734
tp1203
a(S'things'
p1204
g18
F0.9986
tp1205
asI133
(lp1206
(S'do'
p1207
g6
F0.9983
tp1208
a(S'you'
p1209
g9
F0.9974
tp1210
asI134
(lp1211
(g2
g3
F0.9522
tp1212
a(S'ma'
p1213
g18
F0.4011
tp1214
a(S'see'
p1215
g6
F0.9954
tp1216
a(S'those'
p1217
g15
F0.8306
tp1218
asI135
(lp1219
(S'uhhuh'
p1220
g27
F0.9892
tp1221
asI136
(lp1222
(g97
g9
F0.9793
tp1223
a(S'll'
p1224
g6
F0.7693
tp1225
a(S'have'
p1226
g6
F0.9989
tp1227
a(S'to'
p1228
g12
F0.9984
tp1229
a(S'ask'
p1230
g6
F0.9998
tp1231
a(S'your'
p1232
g15
F0.995
tp1233
a(S'mom'
p1234
g18
F0.9966
tp1235
a(S'to'
p1236
g12
F0.9994
tp1237
a(S'buy'
p1238
g6
F0.9991
tp1239
a(S'some'
p1240
g15
F0.931
tp1241
a(S'more'
p1242
g92
F0.9537
tp1243
a(S'huh'
p1244
g27
F0.8895
tp1245
asI137
(lp1246
(S'mhm'
p1247
g27
F0.9747
tp1248
asI138
(lp1249
(g2
g3
F0.9635
tp1250
a(S'mom'
p1251
g18
F0.9511
tp1252
a(S'this'
p1253
g15
F0.6417
tp1254
a(S'right'
p1255
g92
F0.5551
tp1256
asI139
(lp1257
(S'hot'
p1258
g92
F0.8061
tp1259
asI140
(lp1260
(g2
g3
F0.9376
tp1261
a(S'this'
p1262
g15
F0.9789
tp1263
a(S'morning'
p1264
g18
F0.9961
tp1265
a(S'right'
p1266
g23
F0.4974
tp1267
asI141
(lp1268
(g1109
g3
F0.9513
tp1269
a(S'kiss'
p1270
g18
F0.8597
tp1271
a(S'noise'
p1272
g18
F0.9971
tp1273
asI142
(lp1274
(g2
g3
F0.9484
tp1275
a(S'xxx'
p1276
g18
F0.2941
tp1277
a(S'goes'
p1278
g6
F0.9938
tp1279
a(S'what'
p1280
g9
F0.9932
tp1281
a(S'does'
p1282
g6
F0.9996
tp1283
a(S'your'
p1284
g15
F0.9804
tp1285
a(S'cereal'
p1286
g18
F0.9976
tp1287
a(S'say'
p1288
g6
F0.9245
tp1289
a(S'to'
p1290
g12
F0.9932
tp1291
a(S'you'
p1292
g9
F0.9969
tp1293
a(S'right'
p1294
g92
F0.4864
tp1295
asI143
(lp1296
(g2
g3
F0.9558
tp1297
a(S'and'
p1298
g395
F0.9967
tp1299
a(S'bro'
p1300
g18
F0.9851
tp1301
a(S'goes'
p1302
g6
F0.9673
tp1303
asI144
(lp1304
(g2
g3
F0.9582
tp1305
a(S'bro'
p1306
g18
F0.9878
tp1307
a(S'goes'
p1308
g6
F0.9989
tp1309
a(S'it'
p1310
g9
F0.9652
tp1311
a(g68
g6
F0.707
tp1312
a(S'telling'
p1313
g6
F0.9997
tp1314
a(S'me'
p1315
g9
F0.9983
tp1316
a(S'to'
p1317
g12
F0.9856
tp1318
a(S'make'
p1319
g6
F0.9997
tp1320
a(S'my'
p1321
g15
F0.9978
tp1322
a(S'bed'
p1323
g18
F0.9953
tp1324
asI145
(lp1325
(g134
g3
F0.6877
tp1326
a(g97
g9
F0.978
tp1327
a(S'made'
p1328
g6
F1.0
tp1329
a(S'my'
p1330
g15
F0.9952
tp1331
a(S'bed'
p1332
g18
F0.9857
tp1333
a(S'this'
p1334
g15
F0.9728
tp1335
a(S'morning'
p1336
g18
F0.9946
tp1337
asI146
(lp1338
(S'you'
p1339
g9
F0.9984
tp1340
a(S'did'
p1341
g6
F0.9978
tp1342
asI147
(lp1343
(g134
g12
F0.6779
tp1344
a(S'laughs'
p1345
g6
F0.9798
tp1346
asI148
(lp1347
(g134
g3
F0.6877
tp1348
a(g97
g9
F0.978
tp1349
a(S'made'
p1350
g6
F0.9988
tp1351
a(g97
g9
F0.9662
tp1352
a(S'um'
p1353
g27
F0.8262
tp1354
a(g97
g9
F0.9904
tp1355
a(S'flattened'
p1356
g6
F0.9998
tp1357
a(S'my'
p1358
g15
F0.9458
tp1359
a(S'um'
p1360
g83
F0.2938
tp1361
a(S'sleeping'
p1362
g6
F0.9934
tp1363
a(S'bag'
p1364
g18
F0.9761
tp1365
a(S'out'
p1366
g12
F0.6614
tp1367
asI149
(lp1368
(g134
g3
F0.7218
tp1369
a(S'because'
p1370
g12
F0.9953
tp1371
a(g97
g9
F0.9908
tp1372
a(g581
g6
F0.9824
tp1373
a(S'going'
p1374
g6
F0.9891
tp1375
a(S'sleep'
p1376
g6
F0.8937
tp1377
a(S'in'
p1378
g12
F0.9893
tp1379
a(S'my'
p1380
g15
F0.9298
tp1381
a(S'xxx'
p1382
g18
F0.6221
tp1383
asI150
(lp1384
(S'okay'
p1385
g27
F0.9857
tp1386
asI151
(lp1387
(g2
g3
F0.9673
tp1388
a(S'okay'
p1389
g27
F0.7034
tp1390
asI152
(lp1391
(S'quieter'
p1392
g92
F0.7267
tp1393
a(S'in'
p1394
g12
F0.9937
tp1395
a(S'there'
p1396
g23
F0.4529
tp1397
asI153
(lp1398
(g2
g3
F0.9554
tp1399
a(S'yeah'
p1400
g27
F0.9929
tp1401
asI154
(lp1402
(g2
g3
F0.8927
tp1403
a(S'laughs'
p1404
g6
F0.6685
tp1405
asI155
(lp1406
(S'you'
p1407
g9
F0.9876
tp1408
a(S'fall'
p1409
g6
F0.9846
tp1410
a(S'asleep'
p1411
g23
F0.8626
tp1412
a(S'on'
p1413
g12
F0.9794
tp1414
a(S'xxx'
p1415
g48
F0.6423
tp1416
asI156
(lp1417
(S'sis'
p1418
g18
F0.8689
tp1419
a(S'pushed'
p1420
g6
F0.999
tp1421
a(S'me'
p1422
g9
F0.9981
tp1423
a(S'out'
p1424
g407
F0.5653
tp1425
a(S'the'
p1426
g15
F0.9989
tp1427
a(S'bed'
p1428
g18
F0.9705
tp1429
a(S'last'
p1430
g92
F0.9788
tp1431
a(S'night'
p1432
g18
F0.9906
tp1433
a(S'and'
p1434
g395
F0.9988
tp1435
a(g97
g9
F0.9906
tp1436
a(S'fell'
p1437
g6
F0.9962
tp1438
a(S'on'
p1439
g12
F0.9433
tp1440
a(S'him'
p1441
g9
F0.9874
tp1442
asI157
(lp1443
(S'ouch'
p1444
g27
F0.9968
tp1445
asI158
(lp1446
(S'laughs'
p1447
g6
F0.9102
tp1448
asI159
(lp1449
(g2
g3
F0.9558
tp1450
a(S'and'
p1451
g395
F0.9982
tp1452
a(g97
g9
F0.9871
tp1453
a(S'and'
p1454
g395
F0.9975
tp1455
a(g97
g9
F0.9877
tp1456
a(S'and'
p1457
g395
F0.9977
tp1458
a(g97
g9
F0.9953
tp1459
a(S'heard'
p1460
g6
F0.9995
tp1461
a(S'sis'
p1462
g18
F0.9374
tp1463
a(S'say'
p1464
g6
F0.9913
tp1465
a(S'something'
p1466
g18
F0.976
tp1467
asI160
(lp1468
(g2
g3
F0.9698
tp1469
a(S'kind'
p1470
g18
F0.9572
tp1471
a(S'of'
p1472
g12
F0.9941
tp1473
a(S'like'
p1474
g12
F0.8482
tp1475
a(S'this'
p1476
g9
F0.9277
tp1477
a(S'where'
p1478
g23
F0.8829
tp1479
a(S'is'
p1480
g6
F0.9912
tp1481
a(S'he'
p1482
g9
F0.9986
tp1483
a(S'laughs'
p1484
g6
F0.9977
tp1485
asI161
(lp1486
(g2
g3
F0.9651
tp1487
a(g97
g9
F0.9646
tp1488
a(S'went'
p1489
g6
F0.9997
tp1490
a(S'like'
p1491
g12
F0.9487
tp1492
a(S'this'
p1493
g9
F0.8716
tp1494
a(S'xxx'
p1495
g48
F0.7935
tp1496
asI162
(lp1497
(g2
g3
F0.9558
tp1498
a(S'and'
p1499
g395
F0.9982
tp1500
a(g97
g9
F0.995
tp1501
a(S'heard'
p1502
g6
F1.0
tp1503
a(S'her'
p1504
g9
F0.9031
tp1505
a(S'say'
p1506
g6
F0.9157
tp1507
a(S'xxx'
p1508
g48
F0.8201
tp1509
asI163
(lp1510
(g2
g3
F0.9558
tp1511
a(S'and'
p1512
g395
F0.9982
tp1513
a(g97
g9
F0.9922
tp1514
a(S'put'
p1515
g6
F0.9901
tp1516
a(S'xxx'
p1517
g48
F0.7478
tp1518
asI164
(lp1519
(g2
g3
F0.9651
tp1520
a(g97
g9
F0.9646
tp1521
a(S'went'
p1522
g6
F0.9997
tp1523
a(S'like'
p1524
g12
F0.894
tp1525
a(S'that'
p1526
g9
F0.9105
tp1527
a(S'laughing'
p1528
g6
F0.9886
tp1529
asI165
(lp1530
(S'you'
p1531
g9
F0.998
tp1532
a(S'want'
p1533
g6
F0.9996
tp1534
a(S'to'
p1535
g12
F0.991
tp1536
a(S'make'
p1537
g6
F0.985
tp1538
asI166
(lp1539
(g97
g9
F0.9893
tp1540
a(S'wish'
p1541
g6
F0.9999
tp1542
a(S'you'
p1543
g9
F0.9996
tp1544
a(S'had'
p1545
g6
F0.9988
tp1546
a(S'better'
p1547
g92
F0.8161
tp1548
a(S'mouths'
p1549
g18
F0.9584
tp1550
asI167
(lp1551
(g2
g3
F0.9651
tp1552
a(g97
g9
F0.9689
tp1553
a(S'think'
p1554
g6
F0.9999
tp1555
a(S'she'
p1556
g9
F0.9985
tp1557
a(S'was'
p1558
g6
F0.9989
tp1559
a(S'saying'
p1560
g6
F0.9953
tp1561
a(S'something'
p1562
g18
F0.9414
tp1563
a(S'about'
p1564
g12
F0.9927
tp1565
a(S'me'
p1566
g9
F0.9995
tp1567
asI168
(lp1568
(g2
g3
F0.9675
tp1569
a(S'when'
p1570
g23
F0.9518
tp1571
a(S'you'
p1572
g9
F0.9993
tp1573
a(S'stopped'
p1574
g6
F0.9997
tp1575
a(S'coughing'
p1576
g6
F0.976
tp1577
a(S'and'
p1578
g395
F0.9986
tp1579
a(S'stuff'
p1580
g18
F0.973
tp1581
asI169
(lp1582
(S'ow'
p1583
g27
F0.9101
tp1584
a(S'hot'
p1585
g92
F0.9509
tp1586
asI170
(lp1587
(g2
g3
F0.9482
tp1588
a(S'xxx'
p1589
g48
F0.661
tp1590
asI171
(lp1591
(g134
g3
F0.6765
tp1592
a(S'xxx'
p1593
g48
F0.6773
tp1594
asI172
(lp1595
(S'ow'
p1596
g27
F0.9682
tp1597
asI173
(lp1598
(S'can'
p1599
g6
F0.9755
tp1600
a(g97
g9
F0.987
tp1601
a(S'have'
p1602
g6
F1.0
tp1603
a(S'the'
p1604
g15
F0.9997
tp1605
a(S'butter'
p1606
g18
F0.9837
tp1607
asI174
(lp1608
(g2
g3
F0.9689
tp1609
a(S'then'
p1610
g23
F0.9673
tp1611
a(g97
g9
F0.9904
tp1612
a(S'fell'
p1613
g6
F0.9977
tp1614
a(S'back'
p1615
g23
F0.8576
tp1616
a(S'to'
p1617
g12
F0.9947
tp1618
a(S'sleep'
p1619
g6
F0.8862
tp1620
asI175
(lp1621
(g2
g3
F0.9484
tp1622
a(S'xxx'
p1623
g48
F0.3593
tp1624
a(S'like'
p1625
g12
F0.8218
tp1626
a(S'this'
p1627
g15
F0.851
tp1628
a(S'one'
p1629
g3
F0.7693
tp1630
asI176
(lp1631
(S'some'
p1632
g15
F0.7991
tp1633
a(S'xxx'
p1634
g48
F0.408
tp1635
a(S'minnie'
p1636
g328
F0.8921
tp1637
asI177
(lp1638
(g2
g3
F0.9675
tp1639
a(S'when'
p1640
g23
F0.9871
tp1641
a(g97
g9
F0.98
tp1642
a(S'when'
p1643
g23
F0.9964
tp1644
a(g97
g9
F0.9917
tp1645
a(S'got'
p1646
g6
F1.0
tp1647
a(S'up'
p1648
g407
F0.9783
tp1649
a(S'out'
p1650
g12
F0.8904
tp1651
a(S'of'
p1652
g12
F0.9889
tp1653
a(S'bed'
p1654
g18
F0.9191
tp1655
a(S'and'
p1656
g395
F0.9978
tp1657
a(S'they'
p1658
g9
F0.9941
tp1659
a(S'were'
p1660
g6
F0.9979
tp1661
a(S'like'
p1662
g12
F0.92
tp1663
a(S'this'
p1664
g9
F0.8734
tp1665
asI178
(lp1666
(S'mhm'
p1667
g27
F0.9747
tp1668
asI179
(lp1669
(S'good'
p1670
g92
F0.984
tp1671
a(S'meatballs'
p1672
g18
F0.9703
tp1673
asI180
(lp1674
(g2
g3
F0.9554
tp1675
a(S'yeah'
p1676
g27
F0.9705
tp1677
a(S'meatballs'
p1678
g18
F0.7195
tp1679
asI181
(lp1680
(g2
g3
F0.9598
tp1681
a(S'meatball'
p1682
g18
F0.8924
tp1683
a(S'fire'
p1684
g18
F0.9432
tp1685
a(S'www'
p1686
g12
F0.4652
tp1687
a(S'laughs'
p1688
g6
F0.8671
tp1689
asI182
(lp1690
(g2
g3
F0.9598
tp1691
a(S'meatballs'
p1692
g18
F0.9864
tp1693
a(S'of'
p1694
g12
F0.9888
tp1695
a(S'fire'
p1696
g18
F0.7662
tp1697
asI183
(lp1698
(S'yeah'
p1699
g27
F0.9905
tp1700
a(S'go'
p1701
g6
F0.9661
tp1702
a(S'eat'
p1703
g6
F0.9896
tp1704
a(S'your'
p1705
g15
F0.9944
tp1706
a(S'food'
p1707
g18
F0.9977
tp1708
asI184
(lp1709
(S'hm'
p1710
g27
F0.995
tp1711
asI185
(lp1712
(g134
g12
F0.4568
tp1713
a(S'look'
p1714
g6
F0.9496
tp1715
a(S'mom'
p1716
g18
F0.9435
tp1717
asI186
(lp1718
(g2
g3
F0.9598
tp1719
a(S'meatballs'
p1720
g18
F0.9864
tp1721
a(S'of'
p1722
g12
F0.9888
tp1723
a(S'fire'
p1724
g18
F0.7662
tp1725
asI187
(lp1726
(S'leave'
p1727
g6
F0.9941
tp1728
a(S'my'
p1729
g15
F0.9985
tp1730
a(S'hair'
p1731
g18
F0.999
tp1732
a(S'alone'
p1733
g23
F0.5617
tp1734
asI188
(lp1735
(g134
g3
F0.6558
tp1736
a(S'how'
p1737
g23
F0.9658
tp1738
a(S'did'
p1739
g6
F0.9991
tp1740
a(S'you'
p1741
g9
F0.9986
tp1742
a(S'get'
p1743
g6
F1.0
tp1744
a(S'my'
p1745
g15
F0.9615
tp1746
a(S'home'
p1747
g18
F0.9836
tp1748
a(S'room'
p1749
g18
F0.9825
tp1750
a(S'teacher'
p1751
g18
F0.9791
tp1752
a(g68
g83
F0.7858
tp1753
a(S'name'
p1754
g18
F0.9889
tp1755
asI189
(lp1756
(g2
g3
F0.9635
tp1757
a(S'mom'
p1758
g18
F0.9804
tp1759
a(S'can'
p1760
g6
F0.997
tp1761
a(g97
g9
F0.9749
tp1762
asI190
(lp1763
(g2
g3
F0.9647
tp1764
a(S'mom'
p1765
g18
F0.9639
tp1766
asI191
(lp1767
(S'what'
p1768
g9
F0.949
tp1769
asI192
(lp1770
(g2
g3
F0.9482
tp1771
a(S'xxx'
p1772
g48
F0.661
tp1773
asI193
(lp1774
(g2
g3
F0.9426
tp1775
a(S'can'
p1776
g6
F0.9413
tp1777
a(g97
g9
F0.9777
tp1778
a(S'eat'
p1779
g6
F0.9994
tp1780
a(S'that'
p1781
g9
F0.6529
tp1782
a(S'xxx'
p1783
g48
F0.7422
tp1784
asI194
(lp1785
(g2
g3
F0.9263
tp1786
a(S'do'
p1787
g6
F0.8885
tp1788
a(g97
g9
F0.9968
tp1789
a(S'have'
p1790
g6
F0.9998
tp1791
a(S'to'
p1792
g12
F0.9975
tp1793
a(S'eat'
p1794
g6
F0.9989
tp1795
a(S'that'
p1796
g15
F0.8667
tp1797
a(S'dirty'
p1798
g92
F0.7773
tp1799
a(S'stuffing'
p1800
g6
F0.707
tp1801
asI195
(lp1802
(S'that'
p1803
g9
F0.473
tp1804
a(g68
g83
F0.4353
tp1805
a(S'not'
p1806
g23
F0.9971
tp1807
a(S'dirty'
p1808
g92
F0.9216
tp1809
asI196
(lp1810
(S'it'
p1811
g9
F0.9888
tp1812
a(g68
g6
F0.5138
tp1813
a(S'just'
p1814
g23
F0.9986
tp1815
a(S'that'
p1816
g12
F0.6721
tp1817
a(g68
g83
F0.3988
tp1818
a(S'part'
p1819
g18
F0.9874
tp1820
a(S'of'
p1821
g12
F0.9996
tp1822
a(S'the'
p1823
g15
F0.9989
tp1824
a(S'steak'
p1825
g18
F0.9982
tp1826
asI197
(lp1827
(g2
g3
F0.9615
tp1828
a(g97
g9
F0.977
tp1829
a(S'know'
p1830
g6
F0.9992
tp1831
asI198
(lp1832
(g2
g3
F0.9655
tp1833
a(S'but'
p1834
g395
F0.9926
tp1835
a(g97
g9
F0.9918
tp1836
a(S'just'
p1837
g23
F0.9993
tp1838
a(S'but'
p1839
g395
F0.9872
tp1840
a(S'it'
p1841
g9
F0.9988
tp1842
a(S'was'
p1843
g6
F0.999
tp1844
a(S'stuff'
p1845
g18
F0.9728
tp1846
a(g97
g9
F0.9102
tp1847
a(S'didn'
p1848
g6
F0.9913
tp1849
a(g55
g6
F0.7402
tp1850
a(S'want'
p1851
g6
F0.9965
tp1852
a(S'to'
p1853
g12
F0.9902
tp1854
a(S'have'
p1855
g6
F0.9992
tp1856
asI199
(lp1857
(S'can'
p1858
g6
F0.9755
tp1859
a(g97
g9
F0.9904
tp1860
a(S'have'
p1861
g6
F0.9999
tp1862
a(S'this'
p1863
g15
F0.5729
tp1864
asI200
(lp1865
(S'that'
p1866
g9
F0.4727
tp1867
a(g68
g83
F0.6495
tp1868
a(S'alright'
p1869
g27
F0.9186
tp1870
asI201
(lp1871
(S'xxx'
p1872
g48
F0.8437
tp1873
asI202
(lp1874
(g134
g12
F0.7977
tp1875
a(S'he'
p1876
g9
F0.9967
tp1877
a(S'started'
p1878
g6
F0.9988
tp1879
a(S'xxx'
p1880
g48
F0.6165
tp1881
a(S'one'
p1882
g3
F0.9766
tp1883
a(S'of'
p1884
g12
F0.9992
tp1885
a(S'their'
p1886
g15
F0.9974
tp1887
a(S'names'
p1888
g18
F0.9994
tp1889
asI203
(lp1890
(S'what'
p1891
g9
F0.949
tp1892
asI204
(lp1893
(g134
g3
F0.6759
tp1894
a(S'xxx'
p1895
g48
F0.5443
tp1896
a(S'one'
p1897
g3
F0.9724
tp1898
a(S'of'
p1899
g12
F0.9994
tp1900
a(S'the'
p1901
g15
F0.9995
tp1902
a(S'kids'
p1903
g18
F0.9445
tp1904
a(g68
g83
F0.5428
tp1905
a(S'names'
p1906
g18
F0.9846
tp1907
asI205
(lp1908
(S'oh'
p1909
g27
F0.9987
tp1910
a(S'yeah'
p1911
g27
F0.9997
tp1912
asI206
(lp1913
(S'xxx'
p1914
g48
F0.8437
tp1915
asI207
(lp1916
(g134
g3
F0.4379
tp1917
a(S'did'
p1918
g6
F0.999
tp1919
a(S'you'
p1920
g9
F0.9994
tp1921
a(S'want'
p1922
g6
F0.9997
tp1923
a(S'to'
p1924
g12
F0.9862
tp1925
a(S'have'
p1926
g6
F0.9999
tp1927
a(g248
g15
F0.9832
tp1928
asI208
(lp1929
(g134
g3
F0.7419
tp1930
a(S'cousin'
p1931
g18
F0.9807
tp1932
asI209
(lp1933
(S'what'
p1934
g9
F0.949
tp1935
asI210
(lp1936
(g134
g12
F0.7014
tp1937
a(S'tell'
p1938
g6
F0.999
tp1939
a(S'me'
p1940
g9
F0.9993
tp1941
a(S'if'
p1942
g12
F0.9968
tp1943
a(S'you'
p1944
g9
F0.9995
tp1945
a(S'wouldn'
p1946
g6
F0.9866
tp1947
a(g55
g6
F0.7361
tp1948
a(S'want'
p1949
g6
F0.9966
tp1950
a(S'to'
p1951
g12
F0.9912
tp1952
a(S'be'
p1953
g6
F0.9984
tp1954
a(S'called'
p1955
g6
F0.9873
tp1956
a(S'mrs'
p1957
g328
F0.9584
tp1958
a(S'xxx'
p1959
g48
F0.6657
tp1960
asI211
(lp1961
(S'not'
p1962
g23
F0.9913
tp1963
a(S'really'
p1964
g23
F0.997
tp1965
asI212
(lp1966
(g134
g3
F0.6183
tp1967
a(S'that'
p1968
g12
F0.7798
tp1969
a(g68
g83
F0.5598
tp1970
a(S'my'
p1971
g15
F0.996
tp1972
a(S'teacher'
p1973
g18
F0.9878
tp1974
a(g68
g83
F0.727
tp1975
a(S'name'
p1976
g18
F0.9848
tp1977
asI213
(lp1978
(g97
g9
F0.9912
tp1979
a(S'know'
p1980
g6
F0.9989
tp1981
asI214
(lp1982
(g134
g3
F0.6765
tp1983
a(S'xxx'
p1984
g48
F0.6773
tp1985
asI215
(lp1986
(S'handsome'
p1987
g92
F0.9599
tp1988
asI216
(lp1989
(S'xxx'
p1990
g48
F0.8437
tp1991
asI217
(lp1992
(g2
g3
F0.9482
tp1993
a(S'xxx'
p1994
g48
F0.661
tp1995
asI218
(lp1996
(S'dog'
p1997
g18
F0.9821
tp1998
a(S'xxx'
p1999
g48
F0.8062
tp2000
asI219
(lp2001
(S'turn'
p2002
g6
F0.9848
tp2003
a(S'around'
p2004
g23
F0.4761
tp2005
a(S'in'
p2006
g12
F0.9961
tp2007
a(S'the'
p2008
g15
F0.9992
tp2009
a(S'chair'
p2010
g18
F0.9934
tp2011
a(S'and'
p2012
g395
F0.9969
tp2013
a(S'sit'
p2014
g6
F0.9892
tp2015
a(S'right'
p2016
g92
F0.7548
tp2017
a(S'cousin'
p2018
g18
F0.9975
tp2019
asI220
(lp2020
(S'so'
p2021
g12
F0.9492
tp2022
a(S'the'
p2023
g15
F0.9984
tp2024
a(S'dog'
p2025
g18
F0.9983
tp2026
a(S'willn'
p2027
g83
F0.2385
tp2028
a(g55
g83
F0.5994
tp2029
a(S'eat'
p2030
g6
F0.9897
tp2031
a(S'your'
p2032
g15
F0.9949
tp2033
a(S'food'
p2034
g18
F0.9979
tp2035
asI221
(lp2036
(S'laughs'
p2037
g6
F0.9102
tp2038
asI222
(lp2039
(S'what'
p2040
g9
F0.9835
tp2041
a(S'are'
p2042
g6
F0.9976
tp2043
a(S'you'
p2044
g9
F0.9994
tp2045
a(S'doing'
p2046
g6
F0.9994
tp2047
asI223
(lp2048
(S'mm'
p2049
g27
F0.627
tp2050
asI224
(lp2051
(S'xxx'
p2052
g48
F0.5863
tp2053
a(S'back'
p2054
g23
F0.866
tp2055
a(S'here'
p2056
g23
F0.949
tp2057
asI225
(lp2058
(S'oh'
p2059
g27
F0.9945
tp2060
a(S'food'
p2061
g18
F0.9219
tp2062
a(S'yummy'
p2063
g92
F0.4995
tp2064
asI226
(lp2065
(g2
g3
F0.8906
tp2066
a(S'let'
p2067
g6
F0.6135
tp2068
a(g68
g83
F0.4101
tp2069
a(S'listen'
p2070
g6
F0.9969
tp2071
a(S'in'
p2072
g12
F0.7587
tp2073
a(S'to'
p2074
g12
F0.984
tp2075
a(S'um'
p2076
g27
F0.6896
tp2077
asI227
(lp2078
(g2
g3
F0.9758
tp2079
a(S'that'
p2080
g12
F0.9171
tp2081
a(g68
g83
F0.3758
tp2082
a(S'recording'
p2083
g6
F0.9336
tp2084
a(S'xxx'
p2085
g48
F0.7398
tp2086
a(S'chi'
p2087
g48
F0.2455
tp2088
asI228
(lp2089
(S'no'
p2090
g27
F0.9253
tp2091
asI229
(lp2092
(S'mhm'
p2093
g27
F0.9747
tp2094
asI230
(lp2095
(S'recording'
p2096
g6
F0.9882
tp2097
a(S'everybody'
p2098
g18
F0.9198
tp2099
asI231
(lp2100
(S'xxx'
p2101
g48
F0.5374
tp2102
a(S'rushed'
p2103
g6
F0.9572
tp2104
asI232
(lp2105
(g2
g3
F0.9583
tp2106
a(S'mhm'
p2107
g27
F0.8876
tp2108
asI233
(lp2109
(S'we'
p2110
g9
F0.9849
tp2111
a(S're'
p2112
g6
F0.9155
tp2113
a(S'all'
p2114
g15
F0.6241
tp2115
a(S'talking'
p2116
g18
F0.777
tp2117
asI234
(lp2118
(g1109
g3
F0.9638
tp2119
asI235
(lp2120
(S'oh'
p2121
g27
F0.9903
tp2122
a(S'no'
p2123
g27
F0.9593
tp2124
a(S'you'
p2125
g9
F0.981
tp2126
a(S're'
p2127
g6
F0.6376
tp2128
a(S'joking'
p2129
g6
F0.9787
tp2130
asI236
(lp2131
(S'xxx'
p2132
g48
F0.5161
tp2133
a(S'joking'
p2134
g6
F0.9489
tp2135
asI237
(lp2136
(S'whoever'
p2137
g9
F0.3264
tp2138
a(S'you'
p2139
g9
F0.9975
tp2140
a(S'are'
p2141
g6
F0.9991
tp2142
asI238
(lp2143
(S'laughs'
p2144
g6
F0.9102
tp2145
asI239
(lp2146
(g2
g3
F0.9582
tp2147
a(S'joke'
p2148
g18
F0.8089
tp2149
a(S'me'
p2150
g9
F0.9926
tp2151
a(S'joking'
p2152
g6
F0.9714
tp2153
a(S'xxx'
p2154
g48
F0.7769
tp2155
asI240
(lp2156
(g2
g3
F0.9651
tp2157
a(g97
g9
F0.9646
tp2158
a(S'went'
p2159
g6
F0.9997
tp2160
a(S'like'
p2161
g12
F0.9487
tp2162
a(S'this'
p2163
g9
F0.8872
tp2164
asI241
(lp2165
(g2
g3
F0.9346
tp2166
a(S'joking'
p2167
g6
F0.9522
tp2168
a(S'joking'
p2169
g6
F0.9728
tp2170
asI242
(lp2171
(g2
g3
F0.8927
tp2172
a(S'laughs'
p2173
g6
F0.6685
tp2174
asI243
(lp2175
(S'xxx'
p2176
g48
F0.5163
tp2177
a(S'joking'
p2178
g6
F0.966
tp2179
a(S'don'
p2180
g328
F0.4146
tp2181
a(g55
g328
F0.4748
tp2182
a(S'call'
p2183
g6
F0.9894
tp2184
a(S'me'
p2185
g9
F0.9984
tp2186
a(S'xxx'
p2187
g23
F0.2941
tp2188
a(S'joking'
p2189
g6
F0.966
tp2190
asI244
(lp2191
(g97
g9
F0.9873
tp2192
a(S'can'
p2193
g6
F0.9996
tp2194
a(g55
g6
F0.7193
tp2195
a(S'believe'
p2196
g6
F0.9945
tp2197
a(S'that'
p2198
g9
F0.7553
tp2199
asI245
(lp2200
(g2
g3
F0.9651
tp2201
a(g97
g9
F0.9646
tp2202
a(S'went'
p2203
g6
F0.9997
tp2204
a(S'like'
p2205
g12
F0.9365
tp2206
a(S'this'
p2207
g9
F0.9297
tp2208
a(S'joking'
p2209
g6
F0.9926
tp2210
a(S'joking'
p2211
g6
F0.9798
tp2212
a(S'laughs'
p2213
g6
F0.9524
tp2214
asI246
(lp2215
(g2
g3
F0.9253
tp2216
a(S'burps'
p2217
g18
F0.5631
tp2218
asI247
(lp2219
(S'you'
p2220
g9
F0.9956
tp2221
a(S'scream'
p2222
g6
F0.9984
tp2223
a(S'things'
p2224
g18
F0.9954
tp2225
asI248
(lp2226
(S'xxx'
p2227
g48
F0.6311
tp2228
a(S'shades'
p2229
g18
F0.9764
tp2230
asI249
(lp2231
(g2
g3
F0.9456
tp2232
a(S'bye'
p2233
g27
F0.4096
tp2234
a(S'www'
p2235
g328
F0.5292
tp2236
a(S'singing'
p2237
g6
F0.9818
tp2238
asI250
(lp2239
(S'where'
p2240
g23
F0.9689
tp2241
a(g68
g83
F0.5585
tp2242
a(S'mine'
p2243
g9
F0.9217
tp2244
asI251
(lp2245
(g134
g3
F0.6765
tp2246
a(S'xxx'
p2247
g48
F0.4093
tp2248
a(S'cousin'
p2249
g18
F0.9706
tp2250
asI252
(lp2251
(g2
g3
F0.9565
tp2252
a(S'hey'
p2253
g27
F0.9891
tp2254
asI253
(lp2255
(g134
g3
F0.6853
tp2256
a(S'hey'
p2257
g27
F0.9966
tp2258
a(S'that'
p2259
g9
F0.9532
tp2260
a(S'was'
p2261
g6
F0.9985
tp2262
a(S'supposed'
p2263
g92
F0.9424
tp2264
a(S'to'
p2265
g12
F0.9979
tp2266
a(S'be'
p2267
g6
F0.999
tp2268
a(S'for'
p2269
g12
F0.9978
tp2270
a(S'chi'
p2271
g328
F0.5246
tp2272
asI254
(lp2273
(g2
g3
F0.9641
tp2274
a(S'what'
p2275
g9
F0.9636
tp2276
asI255
(lp2277
(g134
g3
F0.6143
tp2278
a(S'that'
p2279
g15
F0.5594
tp2280
a(S'cup'
p2281
g18
F0.9913
tp2282
asI256
(lp2283
(S'that'
p2284
g15
F0.5994
tp2285
a(S'grey'
p2286
g92
F0.9582
tp2287
a(S'cup'
p2288
g18
F0.9974
tp2289
asI257
(lp2290
(g2
g3
F0.9641
tp2291
a(S'what'
p2292
g9
F0.9636
tp2293
asI258
(lp2294
(S'that'
p2295
g9
F0.8288
tp2296
a(S'was'
p2297
g6
F0.9968
tp2298
a(S'chi'
p2299
g328
F0.4383
tp2300
a(g68
g328
F0.4278
tp2301
a(S'nickname'
p2302
g18
F0.9054
tp2303
asI259
(lp2304
(S'chi'
p2305
g328
F0.6213
tp2306
a(g68
g83
F0.5127
tp2307
a(S'full'
p2308
g92
F0.9905
tp2309
a(S'name'
p2310
g18
F0.9997
tp2311
asI260
(lp2312
(g2
g3
F0.9374
tp2313
a(S'ducking'
p2314
g6
F0.9782
tp2315
asI261
(lp2316
(S'she'
p2317
g9
F0.9961
tp2318
a(S'can'
p2319
g6
F0.9993
tp2320
a(S'have'
p2321
g6
F0.9999
tp2322
a(S'the'
p2323
g15
F0.9996
tp2324
a(S'one'
p2325
g3
F0.9671
tp2326
a(S'with'
p2327
g12
F0.9991
tp2328
a(S'ducks'
p2329
g18
F0.5331
tp2330
a(S'on'
p2331
g12
F0.9987
tp2332
a(S'it'
p2333
g9
F0.9975
tp2334
asI262
(lp2335
(g2
g3
F0.9482
tp2336
a(S'xxx'
p2337
g48
F0.661
tp2338
asI263
(lp2339
(g2
g3
F0.9587
tp2340
a(S'ernie'
p2341
g328
F0.9847
tp2342
a(S'has'
p2343
g6
F0.9904
tp2344
a(S'has'
p2345
g6
F0.9989
tp2346
a(S'his'
p2347
g15
F0.9973
tp2348
a(S'full'
p2349
g92
F0.9578
tp2350
a(S'up'
p2351
g407
F0.6179
tp2352
asI264
(lp2353
(g2
g3
F0.8899
tp2354
a(S'wait'
p2355
g6
F0.8319
tp2356
asI265
(lp2357
(g2
g3
F0.9253
tp2358
a(S'burps'
p2359
g18
F0.5631
tp2360
asI266
(lp2361
(S'hi'
p2362
g27
F0.9732
tp2363
a(S'you'
p2364
g9
F0.9837
tp2365
asI267
(lp2366
(g134
g3
F0.6857
tp2367
a(S'oh'
p2368
g27
F0.9962
tp2369
a(g97
g9
F0.9918
tp2370
a(S'thought'
p2371
g6
F0.9997
tp2372
a(S'you'
p2373
g9
F0.9996
tp2374
a(S'said'
p2375
g6
F0.9948
tp2376
a(S'hi'
p2377
g27
F0.975
tp2378
a(S'dave'
p2379
g328
F0.9703
tp2380
asI268
(lp2381
(S'laughs'
p2382
g6
F0.9102
tp2383
asI269
(lp2384
(S'xxx'
p2385
g48
F0.6456
tp2386
a(S'gives'
p2387
g6
F0.9921
tp2388
asI270
(lp2389
(g134
g12
F0.6646
tp2390
a(g248
g15
F0.9359
tp2391
a(S'xxx'
p2392
g18
F0.5033
tp2393
asI271
(lp2394
(g2
g3
F0.9463
tp2395
a(S'woo'
p2396
g27
F0.8054
tp2397
a(S'laughs'
p2398
g6
F0.9127
tp2399
asI272
(lp2400
(g2
g3
F0.9581
tp2401
a(S'hi'
p2402
g27
F0.9078
tp2403
a(S'dave'
p2404
g328
F0.9659
tp2405
asI273
(lp2406
(g2
g3
F0.958
tp2407
a(S'why'
p2408
g23
F0.92
tp2409
asI274
(lp2410
(g134
g3
F0.6877
tp2411
a(g97
g9
F0.9852
tp2412
a(S'know'
p2413
g6
F0.9995
tp2414
a(S'dave'
p2415
g328
F0.9753
tp2416
asI275
(lp2417
(S'dave'
p2418
g328
F0.9788
tp2419
a(S'who'
p2420
g9
F0.9857
tp2421
asI276
(lp2422
(g134
g12
F0.6659
tp2423
a(g248
g15
F0.9951
tp2424
a(S'little'
p2425
g92
F0.9941
tp2426
a(S'kid'
p2427
g18
F0.9769
tp2428
a(S'that'
p2429
g12
F0.9026
tp2430
a(S'lives'
p2431
g6
F0.9369
tp2432
a(S'right'
p2433
g23
F0.8681
tp2434
a(S'near'
p2435
g12
F0.9987
tp2436
a(S'the'
p2437
g15
F0.9994
tp2438
a(S'park'
p2439
g18
F0.7362
tp2440
asI277
(lp2441
(S'oh'
p2442
g27
F0.9988
tp2443
asI278
(lp2444
(g134
g12
F0.7977
tp2445
a(S'he'
p2446
g9
F0.9934
tp2447
a(g68
g6
F0.8552
tp2448
a(S'this'
p2449
g15
F0.9505
tp2450
a(S'big'
p2451
g92
F0.8889
tp2452
asI279
(lp2453
(g134
g3
F0.6877
tp2454
a(g97
g9
F0.9764
tp2455
a(S'think'
p2456
g6
F0.9999
tp2457
a(S'he'
p2458
g9
F0.9986
tp2459
a(S'is'
p2460
g6
F0.9997
tp2461
a(S'only'
p2462
g92
F0.542
tp2463
a(S'three'
p2464
g3
F0.8469
tp2465
a(S'or'
p2466
g395
F0.9905
tp2467
a(S'four'
p2468
g3
F0.4996
tp2469
asI280
(lp2470
(g2
g3
F0.9496
tp2471
a(S'four'
p2472
g3
F0.4952
tp2473
asI281
(lp2474
(g134
g3
F0.6556
tp2475
a(S'sis'
p2476
g18
F0.9608
tp2477
a(S'babysits'
p2478
g6
F0.9201
tp2479
a(S'him'
p2480
g9
F0.97
tp2481
asI282
(lp2482
(g2
g3
F0.9482
tp2483
a(S'xxx'
p2484
g18
F0.3182
tp2485
a(S'help'
p2486
g6
F0.7605
tp2487
asI283
(lp2488
(g2
g3
F0.9064
tp2489
a(S'it'
p2490
g9
F0.9891
tp2491
a(S'helps'
p2492
g6
F0.9984
tp2493
asI284
(lp2494
(g134
g3
F0.6644
tp2495
a(S'what'
p2496
g9
F0.9904
tp2497
a(S'do'
p2498
g6
F0.9993
tp2499
a(S'you'
p2500
g9
F0.9997
tp2501
a(S'mean'
p2502
g6
F0.9699
tp2503
asI285
(lp2504
(g134
g12
F0.4681
tp2505
a(S'aren'
p2506
g328
F0.3035
tp2507
a(g55
g6
F0.3921
tp2508
a(S'you'
p2509
g9
F0.9988
tp2510
a(S'babysat'
p2511
g6
F0.9212
tp2512
asI286
(lp2513
(g97
g9
F0.9805
tp2514
a(S'never'
p2515
g23
F0.9908
tp2516
a(S'helped'
p2517
g6
F0.9999
tp2518
a(S'her'
p2519
g9
F0.5469
tp2520
a(S'babysit'
p2521
g6
F0.6657
tp2522
asI287
(lp2523
(g134
g3
F0.7706
tp2524
a(S'haven'
p2525
g18
F0.8489
tp2526
a(g55
g12
F0.392
tp2527
a(S'you'
p2528
g9
F0.9994
tp2529
a(S'been'
p2530
g6
F0.9977
tp2531
a(S'going'
p2532
g6
F0.9993
tp2533
a(S'to'
p2534
g12
F0.9645
tp2535
a(S'xxx'
p2536
g48
F0.4763
tp2537
asI288
(lp2538
(g97
g9
F0.9805
tp2539
a(S'never'
p2540
g23
F0.9931
tp2541
a(S'was'
p2542
g6
F0.9988
tp2543
a(S'going'
p2544
g6
F0.9887
tp2545
a(S'to'
p2546
g12
F0.8584
tp2547
asI289
(lp2548
(S'oh'
p2549
g27
F0.9975
tp2550
a(S'yeah'
p2551
g27
F0.9975
tp2552
a(S'remember'
p2553
g6
F0.9822
tp2554
a(S'when'
p2555
g23
F0.9785
tp2556
a(S'we'
p2557
g9
F0.9964
tp2558
a(S'came'
p2559
g6
F0.9994
tp2560
a(S'down'
p2561
g23
F0.5004
tp2562
a(S'here'
p2563
g23
F0.9954
tp2564
a(S'to'
p2565
g12
F0.9901
tp2566
a(S'visit'
p2567
g6
F0.9865
tp2568
asI290
(lp2569
(S'she'
p2570
g9
F0.9969
tp2571
a(S'asked'
p2572
g6
F0.9998
tp2573
a(S'you'
p2574
g9
F0.9983
tp2575
a(S'if'
p2576
g12
F0.9941
tp2577
a(S'you'
p2578
g9
F0.9997
tp2579
a(S'could'
p2580
g6
F0.9994
tp2581
a(S'go'
p2582
g6
F0.9977
tp2583
a(S'babysitting'
p2584
g6
F0.9499
tp2585
a(S'with'
p2586
g12
F0.9987
tp2587
a(S'her'
p2588
g9
F0.5403
tp2589
asI291
(lp2590
(g97
g9
F0.9635
tp2591
a(S'don'
p2592
g6
F0.9231
tp2593
a(g55
g18
F0.2457
tp2594
a(S'know'
p2595
g6
F0.997
tp2596
a(S'if'
p2597
g12
F0.9938
tp2598
a(S'that'
p2599
g9
F0.9614
tp2600
a(S'was'
p2601
g6
F0.9996
tp2602
a(S'the'
p2603
g15
F0.9995
tp2604
a(S'one'
p2605
g3
F0.8272
tp2606
a(S'or'
p2607
g395
F0.9918
tp2608
a(S'not'
p2609
g23
F0.9903
tp2610
asI292
(lp2611
(g97
g9
F0.9908
tp2612
a(S'know'
p2613
g6
F0.9988
tp2614
a(S'two'
p2615
g3
F0.9106
tp2616
a(S'davids'
p2617
g328
F0.8332
tp2618
asI293
(lp2619
(S'little'
p2620
g92
F0.9617
tp2621
a(S'david'
p2622
g328
F0.9869
tp2623
a(S'xxx'
p2624
g328
F0.4462
tp2625
a(S'and'
p2626
g395
F0.998
tp2627
a(S'big'
p2628
g92
F0.9068
tp2629
a(S'david'
p2630
g328
F0.9719
tp2631
asI294
(lp2632
(g134
g3
F0.6877
tp2633
a(g97
g9
F0.9852
tp2634
a(S'know'
p2635
g6
F0.9995
tp2636
a(S'david'
p2637
g328
F0.9857
tp2638
asI295
(lp2639
(S'who'
p2640
g9
F0.9764
tp2641
asI296
(lp2642
(g2
g3
F0.9607
tp2643
a(S'who'
p2644
g9
F0.9812
tp2645
asI297
(lp2646
(g134
g3
F0.6512
tp2647
a(S'not'
p2648
g23
F0.9974
tp2649
a(S'here'
p2650
g23
F0.9838
tp2651
a(S'in'
p2652
g12
F0.9916
tp2653
a(S'lowell'
p2654
g328
F0.991
tp2655
asI298
(lp2656
(S'out'
p2657
g12
F0.4084
tp2658
a(S'in'
p2659
g12
F0.9896
tp2660
a(S'woburn'
p2661
g328
F0.9128
tp2662
asI299
(lp2663
(g134
g3
F0.6477
tp2664
a(S'david'
p2665
g328
F0.9851
tp2666
a(S'xxx'
p2667
g328
F0.4462
tp2668
a(S'and'
p2669
g395
F0.9983
tp2670
a(S'david'
p2671
g328
F0.9801
tp2672
a(S'um'
p2673
g27
F0.729
tp2674
a(S'gibbons'
p2675
g328
F0.8463
tp2676
asI300
(lp2677
(S'xxx'
p2678
g48
F0.8437
tp2679
asI301
(lp2680
(g2
g3
F0.9558
tp2681
a(S'and'
p2682
g395
F0.9976
tp2683
a(S'little'
p2684
g92
F0.9665
tp2685
a(S'david'
p2686
g328
F0.972
tp2687
asI302
(lp2688
(g134
g3
F0.6765
tp2689
a(S'xxx'
p2690
g48
F0.4701
tp2691
a(S'too'
p2692
g23
F0.9432
tp2693
asI303
(lp2694
(S'yes'
p2695
g27
F0.9958
tp2696
asI304
(lp2697
(S'that'
p2698
g9
F0.473
tp2699
a(g68
g83
F0.4404
tp2700
a(S'what'
p2701
g9
F0.9436
tp2702
a(S'he'
p2703
g9
F0.9985
tp2704
a(S'said'
p2705
g6
F0.9993
tp2706
a(S'david'
p2707
g328
F0.9948
tp2708
a(S'gibbons'
p2709
g328
F0.9481
tp2710
asI305
(lp2711
(g134
g3
F0.6877
tp2712
a(g97
g9
F0.982
tp2713
a(S'know'
p2714
g6
F0.9999
tp2715
a(g248
g15
F0.9564
tp2716
a(S'david'
p2717
g328
F0.9715
tp2718
a(S'in'
p2719
g12
F0.9388
tp2720
a(S'xxx'
p2721
g48
F0.6175
tp2722
asI306
(lp2723
(g97
g9
F0.9908
tp2724
a(S'know'
p2725
g6
F0.9992
tp2726
a(S'two'
p2727
g3
F0.9038
tp2728
a(S'davids'
p2729
g328
F0.7974
tp2730
a(S'that'
p2731
g12
F0.6264
tp2732
a(S'live'
p2733
g6
F0.9133
tp2734
a(S'down'
p2735
g23
F0.8198
tp2736
a(S'here'
p2737
g23
F0.9884
tp2738
asI307
(lp2739
(g134
g3
F0.6877
tp2740
a(g97
g9
F0.9794
tp2741
a(S'have'
p2742
g6
F1.0
tp2743
a(g248
g15
F0.9978
tp2744
a(S'lot'
p2745
g18
F0.9842
tp2746
a(S'of'
p2747
g12
F0.9966
tp2748
a(S'black'
p2749
g92
F0.8508
tp2750
a(S'xxx'
p2751
g48
F0.6093
tp2752
asI308
(lp2753
(g2
g3
F0.9651
tp2754
a(g97
g9
F0.9726
tp2755
a(S'know'
p2756
g6
F0.9994
tp2757
a(S'two'
p2758
g3
F0.9256
tp2759
a(S'cousins'
p2760
g18
F0.9905
tp2761
asI309
(lp2762
(g2
g3
F0.9172
tp2763
a(S'me'
p2764
g9
F0.9903
tp2765
a(S'and'
p2766
g395
F0.9955
tp2767
a(S'um'
p2768
g27
F0.5467
tp2769
a(S'my'
p2770
g15
F0.9922
tp2771
a(S'teacher'
p2772
g18
F0.9884
tp2773
a(g68
g83
F0.6402
tp2774
a(S'son'
p2775
g18
F0.9066
tp2776
asI310
(lp2777
(g134
g12
F0.7166
tp2778
a(S'me'
p2779
g9
F0.9973
tp2780
a(S'and'
p2781
g395
F0.9937
tp2782
a(S'my'
p2783
g15
F0.9952
tp2784
a(S'teacher'
p2785
g18
F0.9878
tp2786
a(g68
g83
F0.7032
tp2787
a(S'son'
p2788
g18
F0.9075
tp2789
asI311
(lp2790
(g134
g12
F0.6779
tp2791
a(S'laughs'
p2792
g6
F0.9798
tp2793
asI312
(lp2794
(S'someone'
p2795
g18
F0.9266
tp2796
a(S'who'
p2797
g9
F0.9919
tp2798
a(S'has'
p2799
g6
F0.9988
tp2800
a(S'xxx'
p2801
g48
F0.6241
tp2802
a(S'too'
p2803
g23
F0.9643
tp2804
asI313
(lp2805
(S'did'
p2806
g6
F0.9983
tp2807
a(S'your'
p2808
g15
F0.9881
tp2809
a(S'teacher'
p2810
g18
F0.9955
tp2811
a(S'tell'
p2812
g6
F0.9918
tp2813
a(S'you'
p2814
g9
F0.9982
tp2815
a(S'he'
p2816
g9
F0.9765
tp2817
a(S'had'
p2818
g6
F0.9998
tp2819
a(S'she'
p2820
g9
F0.9988
tp2821
a(S'had'
p2822
g6
F0.9998
tp2823
a(g248
g15
F0.9984
tp2824
a(S'little'
p2825
g92
F0.9973
tp2826
a(S'boy'
p2827
g18
F0.9982
tp2828
a(S'named'
p2829
g6
F0.988
tp2830
a(S'cousin'
p2831
g18
F0.9623
tp2832
asI314
(lp2833
(S'oh'
p2834
g27
F0.9954
tp2835
a(S'big'
p2836
g92
F0.9896
tp2837
a(S'boy'
p2838
g18
F0.9977
tp2839
asI315
(lp2840
(g2
g3
F0.8927
tp2841
a(S'laughs'
p2842
g6
F0.6685
tp2843
asI316
(lp2844
(g2
g3
F0.9742
tp2845
a(S'bigger'
p2846
g92
F0.9958
tp2847
a(S'than'
p2848
g12
F0.9972
tp2849
a(S'her'
p2850
g9
F0.891
tp2851
asI317
(lp2852
(g2
g3
F0.8927
tp2853
a(S'laughs'
p2854
g6
F0.6685
tp2855
asI318
(lp2856
(S'you'
p2857
g9
F0.9754
tp2858
a(S're'
p2859
g6
F0.7708
tp2860
a(S'going'
p2861
g6
F0.9981
tp2862
a(S'to'
p2863
g12
F0.9713
tp2864
a(S'be'
p2865
g6
F0.9999
tp2866
a(S'the'
p2867
g15
F0.9975
tp2868
a(S'teacher'
p2869
g18
F0.9809
tp2870
asI319
(lp2871
(g2
g3
F0.8927
tp2872
a(S'laughs'
p2873
g6
F0.6685
tp2874
asI320
(lp2875
(S'mm'
p2876
g27
F0.2985
tp2877
a(S'he'
p2878
g9
F0.9931
tp2879
a(g68
g6
F0.7247
tp2880
a(S'bigger'
p2881
g92
F0.9693
tp2882
asI321
(lp2883
(S'hey'
p2884
g27
F0.9912
tp2885
a(S'you'
p2886
g9
F0.9988
tp2887
a(S'get'
p2888
g6
F0.9997
tp2889
a(S'back'
p2890
g23
F0.3322
tp2891
a(S'over'
p2892
g12
F0.6901
tp2893
a(S'here'
p2894
g23
F0.9526
tp2895
asI322
(lp2896
(g134
g3
F0.4718
tp2897
a(S'chi'
p2898
g328
F0.5796
tp2899
a(S'is'
p2900
g6
F0.9943
tp2901
a(S'what'
p2902
g9
F0.9944
tp2903
a(S'are'
p2904
g6
F0.9931
tp2905
a(S'xxx'
p2906
g48
F0.7695
tp2907
asI323
(lp2908
(g134
g3
F0.6071
tp2909
a(S'is'
p2910
g6
F0.9995
tp2911
a(S'your'
p2912
g15
F0.9924
tp2913
a(S'teacher'
p2914
g18
F0.9959
tp2915
a(S'nice'
p2916
g92
F0.9677
tp2917
asI324
(lp2918
(g134
g3
F0.472
tp2919
a(S'chi'
p2920
g27
F0.486
tp2921
asI325
(lp2922
(S'chewies'
p2923
g328
F0.4745
tp2924
a(S'wp'
p2925
g328
F0.7293
tp2926
asI326
(lp2927
(g134
g3
F0.6071
tp2928
a(S'is'
p2929
g6
F0.9995
tp2930
a(S'your'
p2931
g15
F0.9924
tp2932
a(S'teacher'
p2933
g18
F0.9959
tp2934
a(S'nice'
p2935
g92
F0.9677
tp2936
asI327
(lp2937
(S'how'
p2938
g23
F0.9078
tp2939
a(S'is'
p2940
g6
F0.9895
tp2941
a(S'life'
p2942
g18
F0.9932
tp2943
a(S'at'
p2944
g12
F0.9998
tp2945
a(S'school'
p2946
g18
F0.9856
tp2947
asI328
(lp2948
(S'uhhuh'
p2949
g27
F0.9892
tp2950
asI329
(lp2951
(S'because'
p2952
g12
F0.9985
tp2953
a(S'she'
p2954
g9
F0.9987
tp2955
a(S'yells'
p2956
g6
F0.979
tp2957
a(S'at'
p2958
g12
F0.992
tp2959
a(S'gregory'
p2960
g328
F0.9986
tp2961
a(S'all'
p2962
g341
F0.7919
tp2963
a(S'the'
p2964
g15
F0.9998
tp2965
a(S'time'
p2966
g18
F0.9975
tp2967
asI330
(lp2968
(S'honey'
p2969
g18
F0.7452
tp2970
a(S'can'
p2971
g6
F0.9985
tp2972
a(S'you'
p2973
g9
F0.9987
tp2974
a(S'reach'
p2975
g6
F0.9988
tp2976
a(S'behind'
p2977
g12
F0.9937
tp2978
a(S'you'
p2979
g9
F0.9995
tp2980
a(S'and'
p2981
g395
F0.9926
tp2982
a(S'get'
p2983
g6
F0.9995
tp2984
a(S'the'
p2985
g15
F0.9993
tp2986
a(S'diet'
p2987
g18
F0.9972
tp2988
a(S'coke'
p2989
g18
F0.9958
tp2990
asI331
(lp2991
(g134
g3
F0.8074
tp2992
a(S'in'
p2993
g12
F0.9952
tp2994
a(S'my'
p2995
g15
F0.9965
tp2996
a(S'class'
p2997
g18
F0.9979
tp2998
a(S'there'
p2999
g23
F0.7593
tp3000
a(g68
g83
F0.606
tp3001
a(g248
g15
F0.9942
tp3002
a(S'real'
p3003
g92
F0.8145
tp3004
a(S'nasty'
p3005
g92
F0.9984
tp3006
a(S'kid'
p3007
g18
F0.9635
tp3008
asI332
(lp3009
(S'mom'
p3010
g18
F0.8391
tp3011
a(S'can'
p3012
g6
F0.9973
tp3013
a(g97
g9
F0.9862
tp3014
a(S'have'
p3015
g6
F0.9999
tp3016
a(S'some'
p3017
g15
F0.9893
tp3018
a(S'mashed'
p3019
g92
F0.9474
tp3020
a(S'potatoes'
p3021
g18
F0.9993
tp3022
asI333
(lp3023
(S'very'
p3024
g23
F0.9844
tp3025
a(S'little'
p3026
g92
F0.9991
tp3027
asI334
(lp3028
(S'you'
p3029
g9
F0.9968
tp3030
a(S'gotta'
p3031
g6
F0.9997
tp3032
a(S'save'
p3033
g6
F0.9991
tp3034
a(S'some'
p3035
g15
F0.7945
tp3036
a(S'for'
p3037
g12
F0.9998
tp3038
a(S'the'
p3039
g15
F0.9992
tp3040
a(S'rest'
p3041
g18
F0.9971
tp3042
a(S'of'
p3043
g12
F0.9986
tp3044
a(S'them'
p3045
g9
F0.9321
tp3046
asI335
(lp3047
(g134
g3
F0.6877
tp3048
a(g97
g9
F0.7796
tp3049
a(S'haven'
p3050
g6
F0.8049
tp3051
a(g55
g83
F0.2583
tp3052
a(S'seen'
p3053
g6
F0.9952
tp3054
a(S'any'
p3055
g15
F0.9953
tp3056
a(S'names'
p3057
g18
F0.9987
tp3058
a(S'on'
p3059
g12
F0.9993
tp3060
a(S'the'
p3061
g15
F0.9995
tp3062
a(S'board'
p3063
g18
F0.9944
tp3064
a(S'though'
p3065
g12
F0.9478
tp3066
asI336
(lp3067
(S'xxx'
p3068
g48
F0.6042
tp3069
a(S'that'
p3070
g12
F0.4739
tp3071
a(S'surprise'
p3072
g6
F0.791
tp3073
a(S'that'
p3074
g9
F0.4947
tp3075
a(S'charlene'
p3076
g328
F0.9786
tp3077
a(S'bought'
p3078
g6
F0.9922
tp3079
a(S'yous'
p3080
g9
F0.5906
tp3081
a(S'you'
p3082
g9
F0.9943
tp3083
asI337
(lp3084
(g134
g3
F0.6842
tp3085
a(S'huh'
p3086
g27
F0.9914
tp3087
asI338
(lp3088
(S'what'
p3089
g9
F0.949
tp3090
asI339
(lp3091
(g134
g3
F0.6857
tp3092
a(S'oh'
p3093
g27
F0.9967
tp3094
a(S'okay'
p3095
g27
F0.9772
tp3096
a(S'okay'
p3097
g27
F0.891
tp3098
a(S'okay'
p3099
g27
F0.9394
tp3100
a(S'okay'
p3101
g27
F0.9004
tp3102
a(S'okay'
p3103
g27
F0.916
tp3104
asI340
(lp3105
(S'for'
p3106
g12
F0.9989
tp3107
a(S'him'
p3108
g9
F0.9907
tp3109
asI341
(lp3110
(S'all'
p3111
g15
F0.752
tp3112
a(S'of'
p3113
g12
F0.9827
tp3114
a(S'yous'
p3115
g9
F0.8099
tp3116
a(S'you'
p3117
g9
F0.9921
tp3118
asI342
(lp3119
(S'oh'
p3120
g27
F0.9988
tp3121
asI343
(lp3122
(S'you'
p3123
g9
F0.9829
tp3124
a(S'too'
p3125
g23
F0.9787
tp3126
asI344
(lp3127
(g134
g3
F0.7379
tp3128
a(S'except'
p3129
g6
F0.5102
tp3130
a(S'for'
p3131
g12
F0.9798
tp3132
asI345
(lp3133
(S'me'
p3134
g9
F0.9918
tp3135
asI346
(lp3136
(g134
g3
F0.6765
tp3137
a(S'xxx'
p3138
g48
F0.6773
tp3139
asI347
(lp3140
(S'what'
p3141
g9
F0.949
tp3142
asI348
(lp3143
(g134
g3
F0.6877
tp3144
a(g97
g9
F0.9628
tp3145
a(S'll'
p3146
g6
F0.741
tp3147
a(S'run'
p3148
g6
F0.9988
tp3149
a(S'down'
p3150
g23
F0.7178
tp3151
a(S'and'
p3152
g395
F0.9937
tp3153
a(S'get'
p3154
g6
F0.9996
tp3155
a(S'you'
p3156
g9
F0.9892
tp3157
a(S'one'
p3158
g3
F0.7264
tp3159
asI349
(lp3160
(S'they'
p3161
g9
F0.9742
tp3162
a(S'don'
p3163
g6
F0.8659
tp3164
a(g55
g18
F0.301
tp3165
a(S'have'
p3166
g6
F0.9996
tp3167
a(S'them'
p3168
g9
F0.8956
tp3169
asI350
(lp3170
(S'we'
p3171
g9
F0.9956
tp3172
a(S'already'
p3173
g23
F0.995
tp3174
a(S'went'
p3175
g6
F0.9973
tp3176
a(S'through'
p3177
g12
F0.969
tp3178
a(S'that'
p3179
g9
F0.6833
tp3180
a(S'today'
p3181
g18
F0.9866
tp3182
asI351
(lp3183
(g134
g3
F0.568
tp3184
a(S'one'
p3185
g3
F0.9682
tp3186
a(S'of'
p3187
g12
F0.9992
tp3188
a(S'the'
p3189
g15
F0.9992
tp3190
a(S'one'
p3191
g3
F0.9396
tp3192
a(S'of'
p3193
g12
F0.9994
tp3194
a(S'the'
p3195
g15
F0.9992
tp3196
a(S'stores'
p3197
g18
F0.9859
tp3198
a(S'does'
p3199
g6
F0.9891
tp3200
asI352
(lp3201
(g2
g3
F0.9576
tp3202
a(S'yeah'
p3203
g27
F0.9924
tp3204
a(S'that'
p3205
g9
F0.9311
tp3206
a(S'was'
p3207
g6
F0.9986
tp3208
a(S'why'
p3209
g23
F0.9885
tp3210
a(S'we'
p3211
g9
F0.9989
tp3212
a(S'had'
p3213
g6
F0.9997
tp3214
a(S'to'
p3215
g12
F0.9958
tp3216
a(S'get'
p3217
g6
F0.9999
tp3218
a(g248
g15
F0.9775
tp3219
asI353
(lp3220
(g134
g3
F0.5798
tp3221
a(g1109
g3
F0.9901
tp3222
a(S'car'
p3223
g18
F0.9981
tp3224
a(S'noise'
p3225
g18
F0.9808
tp3226
asI354
(lp3227
(g2
g3
F0.9758
tp3228
a(S'that'
p3229
g12
F0.6009
tp3230
a(S'was'
p3231
g6
F0.9915
tp3232
a(S'xxx'
p3233
g48
F0.7732
tp3234
asI355
(lp3235
(g2
g3
F0.9582
tp3236
a(S'bro'
p3237
g18
F0.9776
tp3238
a(g68
g83
F0.897
tp3239
asI356
(lp3240
(S'cumberland'
p3241
g328
F0.9128
tp3242
a(g68
g83
F0.4947
tp3243
a(S'and'
p3244
g395
F0.9977
tp3245
a(S'marie'
p3246
g328
F0.9894
tp3247
a(g68
g83
F0.6419
tp3248
asI357
(lp3249
(S'but'
p3250
g395
F0.9947
tp3251
a(S'neither'
p3252
g15
F0.8125
tp3253
a(S'one'
p3254
g3
F0.9216
tp3255
a(S'of'
p3256
g12
F0.9986
tp3257
a(S'them'
p3258
g9
F0.9774
tp3259
a(S'had'
p3260
g6
F0.9998
tp3261
a(S'them'
p3262
g9
F0.931
tp3263
asI358
(lp3264
(g134
g12
F0.7165
tp3265
a(S'they'
p3266
g9
F0.9918
tp3267
a(S'could'
p3268
g6
F0.9995
tp3269
asI359
(lp3270
(g2
g3
F0.9482
tp3271
a(S'xxx'
p3272
g48
F0.661
tp3273
asI360
(lp3274
(g134
g3
F0.6477
tp3275
a(S'marie'
p3276
g328
F0.983
tp3277
a(g68
g328
F0.5272
tp3278
a(S'did'
p3279
g6
F0.9708
tp3280
a(S'but'
p3281
g395
F0.9882
tp3282
a(g97
g9
F0.9956
tp3283
a(S'think'
p3284
g6
F0.9994
tp3285
a(g97
g9
F0.9949
tp3286
a(S'got'
p3287
g6
F0.9999
tp3288
a(S'the'
p3289
g15
F0.9997
tp3290
a(S'last'
p3291
g92
F0.9978
tp3292
a(S'one'
p3293
g3
F0.8546
tp3294
a(S'today'
p3295
g18
F0.9966
tp3296
asI361
(lp3297
(g2
g3
F0.9376
tp3298
a(S'this'
p3299
g15
F0.7182
tp3300
a(S'this'
p3301
g15
F0.7706
tp3302
a(S'one'
p3303
g3
F0.6846
tp3304
a(S'is'
p3305
g6
F0.9885
tp3306
asI362
(lp3307
(g2
g3
F0.9647
tp3308
a(S'mom'
p3309
g18
F0.9639
tp3310
asI363
(lp3311
(S'what'
p3312
g9
F0.949
tp3313
asI364
(lp3314
(g2
g3
F0.9582
tp3315
a(S'bro'
p3316
g18
F0.9776
tp3317
a(g68
g83
F0.897
tp3318
asI365
(lp3319
(S'yeah'
p3320
g27
F0.9958
tp3321
a(S'well'
p3322
g27
F0.7068
tp3323
a(S'leave'
p3324
g6
F0.9955
tp3325
a(S'it'
p3326
g9
F0.9917
tp3327
a(S'there'
p3328
g23
F0.9672
tp3329
a(S'and'
p3330
g395
F0.9972
tp3331
a(S'sit'
p3332
g6
F0.9901
tp3333
a(S'there'
p3334
g23
F0.9465
tp3335
a(S'and'
p3336
g395
F0.9961
tp3337
a(S'eat'
p3338
g6
F0.9827
tp3339
asI366
(lp3340
(g2
g3
F0.9647
tp3341
a(S'mom'
p3342
g18
F0.9639
tp3343
asI367
(lp3344
(S'what'
p3345
g9
F0.949
tp3346
asI368
(lp3347
(g2
g3
F0.9651
tp3348
a(g97
g9
F0.9726
tp3349
a(S'know'
p3350
g6
F0.9994
tp3351
a(S'how'
p3352
g23
F0.9937
tp3353
a(S'to'
p3354
g12
F0.996
tp3355
a(S'make'
p3356
g6
F0.9992
tp3357
a(S'this'
p3358
g15
F0.7895
tp3359
a(S'flying'
p3360
g6
F0.9374
tp3361
a(S'awesomer'
p3362
g92
F0.57
tp3363
a(S'n'
p3364
g395
F0.8479
tp3365
asI369
(lp3366
(S'that'
p3367
g9
F0.4727
tp3368
a(g68
g6
F0.4689
tp3369
a(S'good'
p3370
g92
F0.991
tp3371
asI370
(lp3372
(g2
g3
F0.9651
tp3373
a(g97
g9
F0.8877
tp3374
a(g581
g6
F0.9838
tp3375
a(S'going'
p3376
g6
F0.9973
tp3377
a(S'to'
p3378
g12
F0.9838
tp3379
a(S'fly'
p3380
g6
F0.9967
tp3381
a(S'in'
p3382
g12
F0.9332
tp3383
a(S'front'
p3384
g18
F0.8738
tp3385
a(S'xxx'
p3386
g6
F0.2955
tp3387
a(S'over'
p3388
g12
F0.8363
tp3389
a(S'there'
p3390
g23
F0.6361
tp3391
asI371
(lp3392
(g2
g3
F0.9351
tp3393
a(S'all'
p3394
g341
F0.6623
tp3395
a(S'the'
p3396
g15
F0.9999
tp3397
a(S'way'
p3398
g18
F0.9735
tp3399
a(S'to'
p3400
g12
F0.9997
tp3401
a(S'the'
p3402
g15
F0.9994
tp3403
a(S'other'
p3404
g92
F0.9801
tp3405
a(S'side'
p3406
g18
F0.9968
tp3407
a(S'of'
p3408
g12
F0.9994
tp3409
a(S'the'
p3410
g15
F0.9992
tp3411
a(S'room'
p3412
g18
F0.9951
tp3413
asI372
(lp3414
(S'xxx'
p3415
g48
F0.8437
tp3416
asI373
(lp3417
(g2
g3
F0.9681
tp3418
a(S'other'
p3419
g92
F0.9947
tp3420
a(S'side'
p3421
g18
F0.9976
tp3422
a(S'of'
p3423
g12
F0.9995
tp3424
a(S'the'
p3425
g15
F0.9929
tp3426
a(S'living'
p3427
g92
F0.3865
tp3428
a(S'room'
p3429
g18
F0.9906
tp3430
a(S'mom'
p3431
g18
F0.9011
tp3432
asI374
(lp3433
(g2
g3
F0.8933
tp3434
a(S'you'
p3435
g9
F0.9977
tp3436
a(S'know'
p3437
g6
F0.9985
tp3438
a(S'when'
p3439
g23
F0.9839
tp3440
a(S'beginning'
p3441
g6
F0.5517
tp3442
a(S'of'
p3443
g12
F0.9918
tp3444
a(S'that'
p3445
g15
F0.8992
tp3446
a(S'chair'
p3447
g18
F0.9966
tp3448
a(S'is'
p3449
g6
F0.9958
tp3450
asI375
(lp3451
(g134
g3
F0.6794
tp3452
a(S'yeah'
p3453
g27
F0.9982
tp3454
asI376
(lp3455
(S'why'
p3456
g23
F0.9375
tp3457
a(S'don'
p3458
g18
F0.2525
tp3459
a(g55
g6
F0.5898
tp3460
a(S'you'
p3461
g9
F0.9916
tp3462
a(S'two'
p3463
g3
F0.498
tp3464
a(S'take'
p3465
g6
F0.9681
tp3466
a(S'the'
p3467
g15
F0.9997
tp3468
a(S'dog'
p3469
g18
F0.9992
tp3470
a(S'out'
p3471
g12
F0.7872
tp3472
a(S'when'
p3473
g23
F0.9757
tp3474
a(S'you'
p3475
g9
F0.9921
tp3476
a(S're'
p3477
g6
F0.7813
tp3478
a(S'done'
p3479
g6
F0.9278
tp3480
asI377
(lp3481
(S'cousin'
p3482
g18
F0.9745
tp3483
a(S'and'
p3484
g395
F0.9973
tp3485
a(S'him'
p3486
g9
F0.9919
tp3487
asI378
(lp3488
(S'yep'
p3489
g27
F0.9977
tp3490
asI379
(lp3491
(g2
g3
F0.9169
tp3492
a(S'we'
p3493
g9
F0.9948
tp3494
a(S'got'
p3495
g6
F0.9997
tp3496
a(S'to'
p3497
g12
F0.9648
tp3498
a(S'take'
p3499
g6
F0.9998
tp3500
a(S'the'
p3501
g15
F0.9997
tp3502
a(S'trash'
p3503
g18
F0.9979
tp3504
a(S'out'
p3505
g12
F0.9399
tp3506
a(S'there'
p3507
g23
F0.8662
tp3508
a(S'too'
p3509
g23
F0.9682
tp3510
asI380
(lp3511
(S'what'
p3512
g9
F0.949
tp3513
asI381
(lp3514
(g134
g3
F0.4814
tp3515
a(S'ma'
p3516
g27
F0.2726
tp3517
asI382
(lp3518
(g2
g3
F0.9169
tp3519
a(S'we'
p3520
g9
F0.9948
tp3521
a(S'got'
p3522
g6
F0.9997
tp3523
a(S'to'
p3524
g12
F0.9648
tp3525
a(S'take'
p3526
g6
F0.9998
tp3527
a(S'the'
p3528
g15
F0.9997
tp3529
a(S'trash'
p3530
g18
F0.9979
tp3531
a(S'out'
p3532
g12
F0.9318
tp3533
a(S'there'
p3534
g23
F0.9517
tp3535
a(S'tonight'
p3536
g23
F0.9309
tp3537
a(S'too'
p3538
g23
F0.9704
tp3539
asI383
(lp3540
(g2
g3
F0.9582
tp3541
a(S'bro'
p3542
g18
F0.9881
tp3543
a(S'can'
p3544
g6
F0.9965
tp3545
a(S'help'
p3546
g6
F0.9996
tp3547
a(S'me'
p3548
g9
F0.9983
tp3549
asI384
(lp3550
(S'well'
p3551
g27
F0.7958
tp3552
a(S'then'
p3553
g23
F0.9765
tp3554
a(S'you'
p3555
g9
F0.9991
tp3556
a(S'and'
p3557
g395
F0.991
tp3558
a(S'bro'
p3559
g18
F0.9797
tp3560
a(S'can'
p3561
g6
F0.9979
tp3562
a(S'do'
p3563
g6
F0.9999
tp3564
a(S'it'
p3565
g9
F0.9953
tp3566
asI385
(lp3567
(S'ma'
p3568
g15
F0.5636
tp3569
a(g97
g9
F0.989
tp3570
a(S'was'
p3571
g6
F0.9998
tp3572
a(S'at'
p3573
g12
F0.9776
tp3574
a(S'diane'
p3575
g328
F0.9887
tp3576
a(g68
g83
F0.3938
tp3577
a(S'house'
p3578
g18
F0.9282
tp3579
a(S'today'
p3580
g18
F0.9916
tp3581
a(S'xxx'
p3582
g48
F0.7641
tp3583
asI386
(lp3584
(S'yeah'
p3585
g27
F0.9988
tp3586
asI387
(lp3587
(S'and'
p3588
g395
F0.999
tp3589
a(S'she'
p3590
g9
F0.9987
tp3591
a(S'was'
p3592
g6
F0.9992
tp3593
a(S'giving'
p3594
g6
F0.999
tp3595
a(S'me'
p3596
g9
F0.998
tp3597
a(S'the'
p3598
g15
F0.9749
tp3599
a(S'xxx'
p3600
g48
F0.4257
tp3601
asI388
(lp3602
(S'mhm'
p3603
g27
F0.9747
tp3604
asI389
(lp3605
(S'and'
p3606
g395
F0.999
tp3607
a(g97
g9
F0.996
tp3608
a(S'was'
p3609
g6
F0.9998
tp3610
a(S'patting'
p3611
g6
F0.9979
tp3612
a(S'the'
p3613
g15
F0.9997
tp3614
a(S'dog'
p3615
g18
F0.9971
tp3616
a(S'bubbles'
p3617
g18
F0.9777
tp3618
asI390
(lp3619
(S'mhm'
p3620
g27
F0.9747
tp3621
asI391
(lp3622
(S'he'
p3623
g9
F0.996
tp3624
a(S'was'
p3625
g6
F0.9997
tp3626
a(S'kissing'
p3627
g6
F0.9998
tp3628
a(S'my'
p3629
g15
F0.9995
tp3630
a(S'face'
p3631
g18
F0.9895
tp3632
a(S'and'
p3633
g395
F0.9983
tp3634
a(S'everything'
p3635
g18
F0.9799
tp3636
a(S'and'
p3637
g395
F0.9983
tp3638
a(g97
g9
F0.9935
tp3639
a(S'got'
p3640
g6
F1.0
tp3641
a(S'up'
p3642
g407
F0.9906
tp3643
asI392
(lp3644
(S'and'
p3645
g395
F0.999
tp3646
a(g97
g9
F0.994
tp3647
a(S'saw'
p3648
g6
F0.9998
tp3649
a(S'the'
p3650
g15
F0.9993
tp3651
a(S'cat'
p3652
g18
F0.7585
tp3653
asI393
(lp3654
(S'you'
p3655
g9
F0.998
tp3656
a(S'want'
p3657
g6
F0.9997
tp3658
a(S'to'
p3659
g12
F0.9738
tp3660
a(S'go'
p3661
g6
F0.9976
tp3662
a(S'check'
p3663
g6
F0.9581
tp3664
a(S'that'
p3665
g9
F0.8282
tp3666
asI394
(lp3667
(S'he'
p3668
g9
F0.9913
tp3669
a(S'just'
p3670
g23
F0.9997
tp3671
a(S'peed'
p3672
g6
F0.9961
tp3673
a(S'on'
p3674
g12
F0.9786
tp3675
a(S'the'
p3676
g15
F0.9994
tp3677
a(S'floor'
p3678
g18
F0.9943
tp3679
asI395
(lp3680
(S'ew'
p3681
g27
F0.9054
tp3682
a(S'disgusted'
p3683
g92
F0.8774
tp3684
asI396
(lp3685
(S'check'
p3686
g6
F0.9827
tp3687
a(S'it'
p3688
g9
F0.9745
tp3689
asI397
(lp3690
(S'he'
p3691
g9
F0.9888
tp3692
a(g68
g6
F0.6533
tp3693
a(S'fine'
p3694
g92
F0.9639
tp3695
asI398
(lp3696
(S'okay'
p3697
g27
F0.9857
tp3698
asI399
(lp3699
(S'paper'
p3700
g18
F0.8722
tp3701
a(S'towel'
p3702
g18
F0.995
tp3703
asI400
(lp3704
(S'um'
p3705
g27
F0.9574
tp3706
a(S'he'
p3707
g9
F0.99
tp3708
asI401
(lp3709
(S'and'
p3710
g395
F0.9977
tp3711
a(S'the'
p3712
g15
F0.9988
tp3713
a(S'dog'
p3714
g18
F0.9975
tp3715
a(S'was'
p3716
g6
F0.9948
tp3717
a(S'licking'
p3718
g6
F0.9989
tp3719
a(S'my'
p3720
g15
F0.9992
tp3721
a(S'face'
p3722
g18
F0.9825
tp3723
a(S'and'
p3724
g395
F0.9983
tp3725
a(S'everything'
p3726
g18
F0.9781
tp3727
asI402
(lp3728
(S'mhm'
p3729
g27
F0.9747
tp3730
asI403
(lp3731
(S'xxx'
p3732
g48
F0.7728
tp3733
a(g97
g9
F0.9849
tp3734
a(S'saw'
p3735
g6
F0.9998
tp3736
a(S'the'
p3737
g15
F0.9993
tp3738
a(S'cat'
p3739
g18
F0.7585
tp3740
asI404
(lp3741
(S'you'
p3742
g9
F0.9983
tp3743
a(S'know'
p3744
g6
F0.9997
tp3745
a(S'the'
p3746
g15
F0.9778
tp3747
a(S'xxx'
p3748
g18
F0.4345
tp3749
asI405
(lp3750
(S'and'
p3751
g395
F0.999
tp3752
a(g97
g9
F0.9919
tp3753
a(S'went'
p3754
g6
F0.9997
tp3755
a(S'to'
p3756
g12
F0.9774
tp3757
a(S'pat'
p3758
g6
F0.7686
tp3759
a(S'it'
p3760
g9
F0.9916
tp3761
a(S'and'
p3762
g395
F0.9962
tp3763
a(S'it'
p3764
g9
F0.9975
tp3765
a(S'went'
p3766
g6
F0.997
tp3767
a(S'www'
p3768
g328
F0.3312
tp3769
a(S'noise'
p3770
g18
F0.9379
tp3771
asI406
(lp3772
(S'hm'
p3773
g27
F0.995
tp3774
asI407
(lp3775
(S'yeah'
p3776
g27
F0.9988
tp3777
asI408
(lp3778
(S'diane'
p3779
g328
F0.9661
tp3780
a(S'said'
p3781
g6
F0.9964
tp3782
a(S'that'
p3783
g15
F0.4999
tp3784
a(S'cat'
p3785
g18
F0.8512
tp3786
a(S'is'
p3787
g6
F0.9981
tp3788
a(S'mean'
p3789
g92
F0.6661
tp3790
asI409
(lp3791
(S'but'
p3792
g395
F0.9841
tp3793
a(S'the'
p3794
g15
F0.999
tp3795
a(S'dog'
p3796
g18
F0.9978
tp3797
a(g68
g83
F0.8027
tp3798
a(S'nice'
p3799
g92
F0.9901
tp3800
asI410
(lp3801
(g134
g3
F0.8789
tp3802
a(S'bubbles'
p3803
g18
F0.9801
tp3804
a(S'xxx'
p3805
g48
F0.7217
tp3806
asI411
(lp3807
(g134
g12
F0.7977
tp3808
a(S'he'
p3809
g9
F0.9944
tp3810
a(S'doesn'
p3811
g6
F0.9961
tp3812
a(g55
g83
F0.2383
tp3813
a(S'when'
p3814
g23
F0.9891
tp3815
a(g97
g9
F0.8942
tp3816
a(S'first'
p3817
g23
F0.6468
tp3818
a(S'met'
p3819
g6
F0.9882
tp3820
a(S'him'
p3821
g9
F0.9757
tp3822
asI412
(lp3823
(S'who'
p3824
g9
F0.9764
tp3825
asI413
(lp3826
(g134
g3
F0.8789
tp3827
a(S'bubbles'
p3828
g18
F0.9773
tp3829
asI414
(lp3830
(S'he'
p3831
g9
F0.99
tp3832
a(S'didn'
p3833
g6
F0.9881
tp3834
a(g55
g6
F0.7093
tp3835
a(S'know'
p3836
g6
F0.9967
tp3837
a(S'you'
p3838
g9
F0.9961
tp3839
asI415
(lp3840
(g97
g9
F0.9844
tp3841
a(S'walk'
p3842
g6
F0.9999
tp3843
a(S'him'
p3844
g9
F0.9698
tp3845
a(S'every'
p3846
g15
F0.9849
tp3847
a(S'night'
p3848
g18
F0.9933
tp3849
a(S'with'
p3850
g12
F0.9988
tp3851
a(S'sis'
p3852
g18
F0.8998
tp3853
asI416
(lp3854
(g97
g9
F0.9888
tp3855
a(S'walked'
p3856
g6
F0.9998
tp3857
a(S'in'
p3858
g12
F0.829
tp3859
a(S'right'
p3860
g92
F0.6608
tp3861
a(S'and'
p3862
g395
F0.9982
tp3863
a(S'he'
p3864
g9
F0.9964
tp3865
a(S'goes'
p3866
g6
F0.9983
tp3867
asI417
(lp3868
(S'he'
p3869
g9
F0.9905
tp3870
a(g68
g6
F0.7911
tp3871
a(S'looking'
p3872
g6
F0.9843
tp3873
a(S'at'
p3874
g12
F0.9939
tp3875
a(S'xxx'
p3876
g48
F0.628
tp3877
asI418
(lp3878
(g97
g9
F0.9843
tp3879
a(S'go'
p3880
g6
F0.9994
tp3881
a(S'to'
p3882
g12
F0.9772
tp3883
a(S'pat'
p3884
g6
F0.8024
tp3885
a(S'him'
p3886
g9
F0.9848
tp3887
a(S'right'
p3888
g23
F0.8016
tp3889
a(S'and'
p3890
g395
F0.9971
tp3891
a(S'he'
p3892
g9
F0.9963
tp3893
a(S'goes'
p3894
g6
F0.9985
tp3895
a(S'woof'
p3896
g27
F0.8711
tp3897
a(S'woof'
p3898
g27
F0.9797
tp3899
a(S'woof'
p3900
g27
F0.9797
tp3901
a(S'woof'
p3902
g27
F0.9797
tp3903
a(S'woof'
p3904
g27
F0.9092
tp3905
a(S'dog'
p3906
g18
F0.966
tp3907
a(S'barking'
p3908
g6
F0.9785
tp3909
a(S'noise'
p3910
g18
F0.8997
tp3911
asI419
(lp3912
(S'barking'
p3913
g6
F0.9983
tp3914
a(S'his'
p3915
g15
F0.9994
tp3916
a(S'head'
p3917
g18
F0.9973
tp3918
a(S'off'
p3919
g12
F0.7892
tp3920
asI420
(lp3921
(g2
g3
F0.8927
tp3922
a(S'laughs'
p3923
g6
F0.6685
tp3924
asI421
(lp3925
(g2
g3
F0.9697
tp3926
a(S'barking'
p3927
g6
F0.9916
tp3928
a(S'her'
p3929
g9
F0.6246
tp3930
a(S'laughing'
p3931
g6
F0.992
tp3932
a(S'barking'
p3933
g6
F0.9979
tp3934
a(S'her'
p3935
g15
F0.979
tp3936
a(S'head'
p3937
g18
F0.9988
tp3938
a(S'off'
p3939
g12
F0.8058
tp3940
asI422
(lp3941
(S'oh'
p3942
g27
F0.9975
tp3943
a(S'yeah'
p3944
g27
F0.9976
tp3945
a(S'it'
p3946
g9
F0.9956
tp3947
a(g68
g6
F0.7289
tp3948
a(g248
g15
F0.9977
tp3949
a(S'girl'
p3950
g18
F0.9897
tp3951
a(S'www'
p3952
g12
F0.7481
tp3953
a(S'laughs'
p3954
g6
F0.7787
tp3955
asI423
(lp3956
(g134
g3
F0.6765
tp3957
a(S'xxx'
p3958
g48
F0.6773
tp3959
asI424
(lp3960
(g2
g3
F0.9376
tp3961
a(S'this'
p3962
g15
F0.9844
tp3963
a(S'thing'
p3964
g18
F0.9981
tp3965
a(S'doesn'
p3966
g6
F0.9709
tp3967
a(g55
g6
F0.2534
tp3968
a(S'cut'
p3969
g18
F0.6348
tp3970
a(S'xxx'
p3971
g48
F0.6728
tp3972
asI425
(lp3973
(S'put'
p3974
g6
F0.9517
tp3975
a(S'that'
p3976
g9
F0.8499
tp3977
a(S'down'
p3978
g23
F0.3753
tp3979
asI426
(lp3980
(g134
g12
F0.7491
tp3981
a(S'it'
p3982
g9
F0.9914
tp3983
a(g68
g6
F0.5535
tp3984
a(S'not'
p3985
g23
F0.9954
tp3986
a(S'cutting'
p3987
g6
F0.9957
tp3988
asI427
(lp3989
(S'use'
p3990
g6
F0.9346
tp3991
a(S'your'
p3992
g15
F0.9943
tp3993
a(S'muscles'
p3994
g18
F0.9993
tp3995
asI428
(lp3996
(g134
g3
F0.5798
tp3997
a(g1109
g3
F0.9792
tp3998
a(S'grunting'
p3999
g6
F0.9691
tp4000
a(S'noise'
p4001
g18
F0.9784
tp4002
asI429
(lp4003
(g134
g12
F0.6779
tp4004
a(S'laughs'
p4005
g6
F0.9798
tp4006
asI430
(lp4007
(g97
g9
F0.9844
tp4008
a(S'cut'
p4009
g6
F0.9949
tp4010
a(S'mine'
p4011
g9
F0.9345
tp4012
a(S'chi'
p4013
g83
F0.416
tp4014
a(g68
g83
F0.8893
tp4015
a(S'and'
p4016
g395
F0.9981
tp4017
a(S'cousin'
p4018
g18
F0.9574
tp4019
a(g68
g83
F0.6802
tp4020
a(S'with'
p4021
g12
F0.9977
tp4022
a(S'that'
p4023
g9
F0.7383
tp4024
a(S'so'
p4025
g23
F0.6942
tp4026
asI431
(lp4027
(S'what'
p4028
g9
F0.9965
tp4029
a(S'did'
p4030
g6
F0.9992
tp4031
a(S'you'
p4032
g9
F0.9995
tp4033
a(S'do'
p4034
g6
F0.9989
tp4035
asI432
(lp4036
(S'oh'
p4037
g27
F0.9988
tp4038
asI433
(lp4039
(g134
g12
F0.4652
tp4040
a(S'want'
p4041
g6
F0.9991
tp4042
a(S'some'
p4043
g15
F0.9914
tp4044
a(S'ketchup'
p4045
g18
F0.9917
tp4046
asI434
(lp4047
(g134
g3
F0.7059
tp4048
a(S'hot'
p4049
g92
F0.9891
tp4050
a(S'butter'
p4051
g18
F0.9979
tp4052
asI435
(lp4053
(S'laughs'
p4054
g6
F0.9102
tp4055
asI436
(lp4056
(S'huh'
p4057
g27
F0.9804
tp4058
a(S'sigh'
p4059
g6
F0.7186
tp4060
asI437
(lp4061
(g2
g3
F0.9572
tp4062
a(S'huh'
p4063
g27
F0.9083
tp4064
a(S'sigh'
p4065
g6
F0.7118
tp4066
asI438
(lp4067
(g134
g3
F0.6759
tp4068
a(S'xxx'
p4069
g48
F0.6309
tp4070
a(S'how'
p4071
g23
F0.9881
tp4072
a(S'could'
p4073
g6
F0.999
tp4074
a(S'you'
p4075
g9
F0.9988
tp4076
a(S'cut'
p4077
g6
F0.9725
tp4078
a(S'that'
p4079
g9
F0.6307
tp4080
asI439
(lp4081
(g97
g9
F0.9948
tp4082
a(S'did'
p4083
g6
F0.9993
tp4084
asI440
(lp4085
(g97
g9
F0.9844
tp4086
a(S'cut'
p4087
g6
F0.9883
tp4088
a(S'three'
p4089
g3
F0.8598
tp4090
a(S'pieces'
p4091
g18
F0.9986
tp4092
a(S'of'
p4093
g12
F0.9962
tp4094
a(S'that'
p4095
g9
F0.8208
tp4096
asI441
(lp4097
(S'one'
p4098
g3
F0.9496
tp4099
a(S'two'
p4100
g3
F0.9083
tp4101
a(S'three'
p4102
g3
F0.8429
tp4103
asI442
(lp4104
(S'yep'
p4105
g27
F0.9977
tp4106
asI443
(lp4107
(g134
g3
F0.6834
tp4108
a(S'oh'
p4109
g27
F0.9933
tp4110
a(S'sighs'
p4111
g6
F0.7751
tp4112
asI444
(lp4113
(g134
g3
F0.6834
tp4114
a(S'oh'
p4115
g27
F0.998
tp4116
asI445
(lp4117
(g134
g12
F0.4751
tp4118
a(S'fudge'
p4119
g18
F0.6052
tp4120
a(S'fudgie'
p4121
g18
F0.6818
tp4122
a(S'fudge'
p4123
g18
F0.9364
tp4124
asI446
(lp4125
(g2
g3
F0.9482
tp4126
a(S'xxx'
p4127
g48
F0.661
tp4128
asI447
(lp4129
(S'who'
p4130
g9
F0.9905
tp4131
a(g68
g6
F0.528
tp4132
a(S'still'
p4133
g23
F0.9927
tp4134
a(S'in'
p4135
g12
F0.9107
tp4136
a(S'there'
p4137
g23
F0.6125
tp4138
asI448
(lp4139
(g2
g3
F0.8825
tp4140
a(S'take'
p4141
g6
F0.9654
tp4142
a(g248
g15
F0.9706
tp4143
a(S'xxx'
p4144
g18
F0.4123
tp4145
a(S'mom'
p4146
g18
F0.9325
tp4147
asI449
(lp4148
(S'what'
p4149
g9
F0.949
tp4150
asI450
(lp4151
(g2
g3
F0.8969
tp4152
a(S'cut'
p4153
g18
F0.569
tp4154
a(S'it'
p4155
g9
F0.9812
tp4156
asI451
(lp4157
(S'not'
p4158
g23
F0.9913
tp4159
a(S'really'
p4160
g23
F0.997
tp4161
asI452
(lp4162
(g2
g3
F0.9651
tp4163
a(g97
g9
F0.9646
tp4164
a(S'got'
p4165
g6
F0.9996
tp4166
a(S'fat'
p4167
g92
F0.9804
tp4168
a(S'xxx'
p4169
g48
F0.7509
tp4170
asI453
(lp4171
(g134
g3
F0.6765
tp4172
a(S'xxx'
p4173
g48
F0.6773
tp4174
asI454
(lp4175
(S'so'
p4176
g12
F0.7418
tp4177
a(S'what'
p4178
g9
F0.9979
tp4179
a(S'was'
p4180
g6
F0.9956
tp4181
a(S'what'
p4182
g9
F0.9943
tp4183
a(S'was'
p4184
g6
F0.997
tp4185
a(S'wrong'
p4186
g92
F0.9363
tp4187
a(S'with'
p4188
g12
F0.9997
tp4189
a(S'this'
p4190
g9
F0.5948
tp4191
asI455
(lp4192
(S'nothing'
p4193
g18
F0.9678
tp4194
asI456
(lp4195
(S'other'
p4196
g92
F0.9347
tp4197
a(S'then'
p4198
g23
F0.7121
tp4199
a(S'the'
p4200
g15
F0.9975
tp4201
a(S'window'
p4202
g18
F0.9964
tp4203
a(S'sill'
p4204
g18
F0.464
tp4205
asI457
(lp4206
(g2
g3
F0.9651
tp4207
a(g97
g9
F0.9511
tp4208
a(S'only'
p4209
g23
F0.9552
tp4210
a(S'had'
p4211
g6
F0.9933
tp4212
a(S'two'
p4213
g3
F0.9283
tp4214
a(S'carrots'
p4215
g18
F0.9918
tp4216
asI458
(lp4217
(g97
g9
F0.9888
tp4218
a(S'stole'
p4219
g6
F0.9994
tp4220
a(S'them'
p4221
g9
F0.5107
tp4222
a(S'both'
p4223
g15
F0.7977
tp4224
a(S'right'
p4225
g92
F0.5827
tp4226
asI459
(lp4227
(g2
g3
F0.9567
tp4228
a(S'yep'
p4229
g27
F0.9851
tp4230
asI460
(lp4231
(g2
g3
F0.9758
tp4232
a(S'that'
p4233
g12
F0.9171
tp4234
a(g68
g83
F0.5138
tp4235
a(S'fat'
p4236
g92
F0.9883
tp4237
a(S'right'
p4238
g23
F0.4401
tp4239
asI461
(lp4240
(S'cousin'
p4241
g18
F0.9464
tp4242
a(S'xxx'
p4243
g48
F0.5725
tp4244
a(S'just'
p4245
g23
F0.999
tp4246
a(S'eat'
p4247
g6
F0.9986
tp4248
a(S'it'
p4249
g9
F0.9893
tp4250
asI462
(lp4251
(g2
g3
F0.9641
tp4252
a(S'what'
p4253
g9
F0.9636
tp4254
asI463
(lp4255
(S'it'
p4256
g9
F0.9922
tp4257
a(S'doesn'
p4258
g6
F0.991
tp4259
a(g55
g18
F0.2403
tp4260
a(S'look'
p4261
g6
F0.9849
tp4262
a(S'like'
p4263
g12
F0.9184
tp4264
a(S'there'
p4265
g23
F0.5674
tp4266
a(g68
g83
F0.5134
tp4267
a(S'much'
p4268
g92
F0.8608
tp4269
a(S'xxx'
p4270
g48
F0.6567
tp4271
asI464
(lp4272
(S'beside'
p4273
g12
F0.9635
tp4274
a(S'that'
p4275
g12
F0.551
tp4276
a(S'you'
p4277
g9
F0.9996
tp4278
a(S'could'
p4279
g6
F0.9995
tp4280
a(S'use'
p4281
g6
F0.9869
tp4282
a(g248
g15
F0.9981
tp4283
a(S'little'
p4284
g92
F0.9945
tp4285
a(S'meat'
p4286
g18
F0.9945
tp4287
a(S'on'
p4288
g12
F0.999
tp4289
a(S'your'
p4290
g15
F0.9947
tp4291
a(S'bones'
p4292
g18
F0.9979
tp4293
asI465
(lp4294
(g2
g3
F0.9483
tp4295
a(S'look'
p4296
g6
F0.5284
tp4297
a(S'at'
p4298
g12
F0.9935
tp4299
a(S'that'
p4300
g9
F0.7507
tp4301
asI466
(lp4302
(S'well'
p4303
g27
F0.9502
tp4304
a(S'that'
p4305
g15
F0.4485
tp4306
a(S'piece'
p4307
g18
F0.9958
tp4308
a(S'is'
p4309
g6
F0.9893
tp4310
a(S'yeah'
p4311
g27
F0.9852
tp4312
asI467
(lp4313
(g134
g3
F0.6348
tp4314
a(S'mm'
p4315
g18
F0.2817
tp4316
a(S'laughs'
p4317
g6
F0.9533
tp4318
asI468
(lp4319
(S'you'
p4320
g9
F0.9969
tp4321
a(S'can'
p4322
g6
F0.9998
tp4323
a(S'use'
p4324
g6
F0.9968
tp4325
a(g248
g15
F0.9982
tp4326
a(S'little'
p4327
g92
F0.9945
tp4328
a(S'meat'
p4329
g18
F0.9945
tp4330
a(S'on'
p4331
g12
F0.999
tp4332
a(S'your'
p4333
g15
F0.9936
tp4334
a(S'bones'
p4335
g18
F0.9993
tp4336
a(S'anyway'
p4337
g23
F0.9812
tp4338
asI469
(lp4339
(g134
g3
F0.6183
tp4340
a(S'that'
p4341
g12
F0.7798
tp4342
a(g68
g83
F0.5714
tp4343
a(S'why'
p4344
g23
F0.9343
tp4345
a(S'guess'
p4346
g6
F0.9796
tp4347
a(S'where'
p4348
g23
F0.987
tp4349
a(g97
g9
F0.9907
tp4350
a(S'just'
p4351
g23
F0.9996
tp4352
a(S'cut'
p4353
g6
F0.9901
tp4354
a(S'it'
p4355
g9
F0.9881
tp4356
a(S'off'
p4357
g407
F0.8926
tp4358
asI470
(lp4359
(g134
g3
F0.6765
tp4360
a(S'xxx'
p4361
g48
F0.3848
tp4362
a(S'ketchup'
p4363
g18
F0.977
tp4364
asI471
(lp4365
(S'that'
p4366
g9
F0.6365
tp4367
a(S'too'
p4368
g23
F0.9869
tp4369
a(S'big'
p4370
g92
F0.9768
tp4371
asI472
(lp4372
(S'what'
p4373
g9
F0.9784
tp4374
a(g68
g83
F0.5714
tp4375
a(S'too'
p4376
g23
F0.9821
tp4377
a(S'big'
p4378
g92
F0.9743
tp4379
asI473
(lp4380
(S'it'
p4381
g9
F0.9946
tp4382
a(S'can'
p4383
g6
F0.9984
tp4384
a(g55
g6
F0.7034
tp4385
a(S'get'
p4386
g6
F0.9977
tp4387
a(S'any'
p4388
g15
F0.9887
tp4389
a(S'smaller'
p4390
g92
F0.9834
tp4391
asI474
(lp4392
(g97
g9
F0.9635
tp4393
a(S'don'
p4394
g6
F0.9231
tp4395
a(g55
g6
F0.3155
tp4396
a(S'think'
p4397
g6
F0.9728
tp4398
a(g97
g9
F0.9942
tp4399
a(S'can'
p4400
g6
F0.9999
tp4401
a(S'cut'
p4402
g6
F0.8838
tp4403
a(S'th'
p4404
g6
F0.2946
tp4405
a(S'em'
p4406
g9
F0.8673
tp4407
a(S'much'
p4408
g23
F0.7815
tp4409
a(S'smaller'
p4410
g92
F0.9861
tp4411
a(S'then'
p4412
g23
F0.886
tp4413
a(S'that'
p4414
g9
F0.7538
tp4415
asI475
(lp4416
(g134
g3
F0.6853
tp4417
a(S'hey'
p4418
g27
F0.9709
tp4419
a(S'mom'
p4420
g18
F0.9022
tp4421
a(S'look'
p4422
g6
F0.9632
tp4423
a(S'at'
p4424
g12
F0.999
tp4425
a(S'this'
p4426
g9
F0.5509
tp4427
asI476
(lp4428
(g134
g3
F0.7421
tp4429
a(S'mom'
p4430
g18
F0.9536
tp4431
a(S'look'
p4432
g6
F0.9766
tp4433
a(S'at'
p4434
g12
F0.9994
tp4435
a(S'this'
p4436
g9
F0.5085
tp4437
asI477
(lp4438
(S'yeah'
p4439
g27
F0.9988
tp4440
asI478
(lp4441
(g2
g3
F0.9653
tp4442
a(S'how'
p4443
g23
F0.9968
tp4444
a(S'good'
p4445
g92
F0.9947
tp4446
a(S'read'
p4447
g18
F0.8122
tp4448
a(S'that'
p4449
g9
F0.6269
tp4450
asI479
(lp4451
(g134
g3
F0.4613
tp4452
a(S'there'
p4453
g23
F0.5738
tp4454
a(g68
g83
F0.6683
tp4455
a(S'only'
p4456
g92
F0.8797
tp4457
a(S'one'
p4458
g3
F0.9659
tp4459
a(S'thing'
p4460
g18
F0.9985
tp4461
a(g97
g9
F0.7782
tp4462
a(S'like'
p4463
g6
F0.7615
tp4464
asI480
(lp4465
(S'what'
p4466
g9
F0.949
tp4467
asI481
(lp4468
(g134
g3
F0.6183
tp4469
a(S'that'
p4470
g12
F0.7798
tp4471
a(g68
g83
F0.4583
tp4472
a(S'to'
p4473
g12
F0.998
tp4474
a(S'get'
p4475
g6
F0.9996
tp4476
a(S'whole'
p4477
g92
F0.9925
tp4478
a(S'record'
p4479
g18
F0.8346
tp4480
a(S'xxx'
p4481
g48
F0.8165
tp4482
asI482
(lp4483
(g2
g3
F0.9585
tp4484
a(S'oh'
p4485
g27
F0.971
tp4486
a(S'hooting'
p4487
g92
F0.5245
tp4488
a(S'noise'
p4489
g18
F0.9949
tp4490
asI483
(lp4491
(g134
g12
F0.8717
tp4492
a(S'the'
p4493
g15
F0.9983
tp4494
a(S'shirt'
p4495
g18
F0.9971
tp4496
a(S'upstairs'
p4497
g18
F0.6974
tp4498
asI484
(lp4499
(g134
g3
F0.6183
tp4500
a(S'that'
p4501
g12
F0.7798
tp4502
a(g68
g83
F0.603
tp4503
a(S'the'
p4504
g15
F0.9972
tp4505
a(S'one'
p4506
g3
F0.9246
tp4507
a(S'it'
p4508
g9
F0.9911
tp4509
a(S'was'
p4510
g6
F0.9981
tp4511
asI485
(lp4512
(g134
g3
F0.6906
tp4513
a(S'and'
p4514
g395
F0.9988
tp4515
a(g97
g9
F0.9945
tp4516
a(S'know'
p4517
g6
F0.9995
tp4518
a(S'there'
p4519
g23
F0.6942
tp4520
a(g68
g83
F0.4974
tp4521
a(S'someone'
p4522
g18
F0.9498
tp4523
a(S'that'
p4524
g12
F0.8367
tp4525
a(S'willn'
p4526
g328
F0.4582
tp4527
a(g55
g328
F0.3634
tp4528
a(S'pick'
p4529
g6
F0.9222
tp4530
a(S'on'
p4531
g12
F0.9276
tp4532
a(S'me'
p4533
g9
F0.9986
tp4534
asI486
(lp4535
(g2
g3
F0.9607
tp4536
a(S'who'
p4537
g9
F0.9812
tp4538
asI487
(lp4539
(g134
g3
F0.6183
tp4540
a(S'that'
p4541
g12
F0.8078
tp4542
a(S'that'
p4543
g9
F0.7166
tp4544
a(S'lives'
p4545
g6
F0.8989
tp4546
a(S'upstairs'
p4547
g407
F0.3145
tp4548
asI488
(lp4549
(S'in'
p4550
g12
F0.9897
tp4551
a(S'his'
p4552
g15
F0.9982
tp4553
a(S'class'
p4554
g18
F0.9987
tp4555
asI489
(lp4556
(g134
g3
F0.6589
tp4557
a(S'but'
p4558
g395
F0.9885
tp4559
a(S'she'
p4560
g9
F0.999
tp4561
a(S'got'
p4562
g6
F0.9985
tp4563
a(S'suspended'
p4564
g6
F0.9264
tp4565
asI490
(lp4566
(S'xxx'
p4567
g48
F0.7728
tp4568
a(g97
g9
F0.9873
tp4569
a(S'know'
p4570
g6
F0.9992
tp4571
a(S'who'
p4572
g9
F0.9977
tp4573
a(S'can'
p4574
g6
F0.9996
tp4575
a(S'pick'
p4576
g6
F0.9984
tp4577
a(S'on'
p4578
g12
F0.9464
tp4579
a(S'me'
p4580
g9
F0.9794
tp4581
a(S'ralphy'
p4582
g18
F0.3929
tp4583
asI491
(lp4584
(S'ralphy'
p4585
g18
F0.6992
tp4586
a(S'picks'
p4587
g6
F0.9101
tp4588
a(S'on'
p4589
g12
F0.9301
tp4590
a(S'you'
p4591
g9
F0.9987
tp4592
asI492
(lp4593
(g134
g3
F0.6823
tp4594
a(S'yes'
p4595
g27
F0.9953
tp4596
asI493
(lp4597
(S'he'
p4598
g9
F0.9956
tp4599
a(S'called'
p4600
g6
F1.0
tp4601
a(S'her'
p4602
g15
F0.8438
tp4603
a(S'freckle'
p4604
g18
F0.9566
tp4605
a(S'juice'
p4606
g18
F0.9832
tp4607
asI494
(lp4608
(S'xxx'
p4609
g48
F0.8437
tp4610
asI495
(lp4611
(S'and'
p4612
g395
F0.9981
tp4613
a(S'xxx'
p4614
g48
F0.3002
tp4615
a(S'started'
p4616
g6
F0.9952
tp4617
a(S'crying'
p4618
g6
F0.9965
tp4619
a(S'today'
p4620
g18
F0.9776
tp4621
asI496
(lp4622
(S'that'
p4623
g9
F0.473
tp4624
a(g68
g6
F0.4372
tp4625
a(S'not'
p4626
g23
F0.9942
tp4627
a(S'very'
p4628
g23
F0.9985
tp4629
a(S'nice'
p4630
g92
F0.9996
tp4631
asI497
(lp4632
(g97
g9
F0.989
tp4633
a(S'told'
p4634
g6
F1.0
tp4635
a(S'him'
p4636
g9
F0.994
tp4637
a(S'to'
p4638
g12
F0.9928
tp4639
a(S'stop'
p4640
g6
F0.9998
tp4641
a(S'it'
p4642
g9
F0.9889
tp4643
asI498
(lp4644
(g97
g9
F0.9583
tp4645
a(g97
g9
F0.9666
tp4646
a(S'told'
p4647
g6
F1.0
tp4648
a(S'him'
p4649
g9
F0.993
tp4650
a(S'to'
p4651
g12
F0.9925
tp4652
a(S'stop'
p4653
g6
F0.9997
tp4654
a(S'it'
p4655
g9
F0.9891
tp4656
a(S'about'
p4657
g12
F0.9507
tp4658
a(S'three'
p4659
g3
F0.9237
tp4660
a(S'times'
p4661
g18
F0.9855
tp4662
a(S'and'
p4663
g395
F0.9963
tp4664
a(S'he'
p4665
g9
F0.995
tp4666
a(S'just'
p4667
g23
F0.9998
tp4668
a(S'kept'
p4669
g6
F0.9991
tp4670
a(S'on'
p4671
g12
F0.9261
tp4672
a(S'saying'
p4673
g6
F0.9795
tp4674
a(S'that'
p4675
g9
F0.6345
tp4676
asI499
(lp4677
(g134
g3
F0.6765
tp4678
a(S'xxx'
p4679
g48
F0.6773
tp4680
asI500
(lp4681
(S'should'
p4682
g6
F0.988
tp4683
a(S'probably'
p4684
g23
F0.9991
tp4685
a(S'go'
p4686
g6
F0.988
tp4687
a(S'tell'
p4688
g6
F0.9834
tp4689
a(S'his'
p4690
g15
F0.9984
tp4691
a(S'mother'
p4692
g18
F0.9864
tp4693
a(S'about'
p4694
g12
F0.9984
tp4695
a(S'it'
p4696
g9
F0.9993
tp4697
a(S'then'
p4698
g23
F0.9887
tp4699
asI501
(lp4700
(g2
g3
F0.9651
tp4701
a(g97
g9
F0.9726
tp4702
a(S'know'
p4703
g6
F0.9995
tp4704
a(S'what'
p4705
g9
F0.9764
tp4706
a(S'his'
p4707
g15
F0.9979
tp4708
a(S'mother'
p4709
g18
F0.9935
tp4710
a(S'looks'
p4711
g6
F0.9951
tp4712
a(S'like'
p4713
g12
F0.8692
tp4714
asI502
(lp4715
(g2
g3
F0.9558
tp4716
a(S'and'
p4717
g395
F0.9951
tp4718
a(S'his'
p4719
g15
F0.9964
tp4720
a(S'sister'
p4721
g18
F0.997
tp4722
asI503
(lp4723
(S'what'
p4724
g9
F0.9777
tp4725
a(S'about'
p4726
g12
F0.9955
tp4727
a(S'his'
p4728
g15
F0.998
tp4729
a(S'father'
p4730
g18
F0.992
tp4731
asI504
(lp4732
(g2
g3
F0.9583
tp4733
a(S'mhm'
p4734
g27
F0.8234
tp4735
a(S'yep'
p4736
g27
F0.9972
tp4737
asI505
(lp4738
(g97
g9
F0.953
tp4739
a(g581
g6
F0.9834
tp4740
a(S'going'
p4741
g6
F0.9981
tp4742
a(S'to'
p4743
g12
F0.9768
tp4744
a(S'have'
p4745
g6
F1.0
tp4746
a(S'another'
p4747
g15
F0.9953
tp4748
a(S'one'
p4749
g3
F0.7996
tp4750
asI506
(lp4751
(g2
g3
F0.8906
tp4752
a(S'let'
p4753
g6
F0.987
tp4754
a(S'me'
p4755
g9
F0.9995
tp4756
a(S'get'
p4757
g6
F0.9994
tp4758
a(S'it'
p4759
g9
F0.9926
tp4760
asI507
(lp4761
(S'no'
p4762
g27
F0.7985
tp4763
a(S'you'
p4764
g9
F0.9965
tp4765
a(S'can'
p4766
g6
F0.9994
tp4767
a(g55
g6
F0.4527
tp4768
asI508
(lp4769
(g2
g3
F0.9641
tp4770
a(S'what'
p4771
g9
F0.9636
tp4772
asI509
(lp4773
(S'no'
p4774
g27
F0.7985
tp4775
a(S'you'
p4776
g9
F0.9965
tp4777
a(S'can'
p4778
g6
F0.9994
tp4779
a(g55
g6
F0.4527
tp4780
asI510
(lp4781
(g2
g3
F0.9717
tp4782
a(S'rusty'
p4783
g92
F0.9864
tp4784
a(S'and'
p4785
g395
F0.9978
tp4786
a(S'katy'
p4787
g328
F0.9629
tp4788
a(S'lived'
p4789
g6
F0.9832
tp4790
a(S'lived'
p4791
g6
F0.9731
tp4792
a(S'with'
p4793
g12
F0.9983
tp4794
a(S'um'
p4795
g27
F0.6327
tp4796
asI511
(lp4797
(g2
g3
F0.9482
tp4798
a(S'xxx'
p4799
g48
F0.4391
tp4800
a(S'too'
p4801
g23
F0.9432
tp4802
asI512
(lp4803
(S'xxx'
p4804
g48
F0.8437
tp4805
asI513
(lp4806
(g134
g3
F0.6765
tp4807
a(S'xxx'
p4808
g48
F0.6773
tp4809
asI514
(lp4810
(g2
g3
F0.9558
tp4811
a(S'and'
p4812
g395
F0.9977
tp4813
a(S'rusty'
p4814
g92
F0.7826
tp4815
a(g68
g83
F0.5982
tp4816
a(S'father'
p4817
g18
F0.9276
tp4818
a(S'and'
p4819
g395
F0.9983
tp4820
asI515
(lp4821
(S'hm'
p4822
g27
F0.9916
tp4823
a(S'that'
p4824
g9
F0.9231
tp4825
a(S'was'
p4826
g6
F0.9989
tp4827
a(S'good'
p4828
g92
F0.9964
tp4829
asI516
(lp4830
(g2
g3
F0.9212
tp4831
a(S'know'
p4832
g6
F0.9666
tp4833
a(S'that'
p4834
g15
F0.7696
tp4835
a(S'guy'
p4836
g18
F0.9817
tp4837
a(S'that'
p4838
g12
F0.9896
tp4839
a(S'um'
p4840
g9
F0.4439
tp4841
a(S'brings'
p4842
g6
F0.9963
tp4843
a(S'xxx'
p4844
g48
F0.621
tp4845
a(S'um'
p4846
g27
F0.7813
tp4847
a(S'xxx'
p4848
g48
F0.7409
tp4849
asI517
(lp4850
(S'are'
p4851
g6
F0.9964
tp4852
a(S'you'
p4853
g9
F0.9995
tp4854
a(S'going'
p4855
g6
F0.9997
tp4856
a(S'to'
p4857
g12
F0.9879
tp4858
a(S'eat'
p4859
g6
F0.9992
tp4860
a(S'the'
p4861
g15
F0.9996
tp4862
a(S'rest'
p4863
g18
F0.9971
tp4864
a(S'of'
p4865
g12
F0.9989
tp4866
a(S'it'
p4867
g9
F0.9971
tp4868
asI518
(lp4869
(S'no'
p4870
g27
F0.6532
tp4871
a(g97
g9
F0.9593
tp4872
a(S'can'
p4873
g6
F0.9996
tp4874
a(g55
g83
F0.501
tp4875
a(S'xxx'
p4876
g48
F0.6311
tp4877
asI519
(lp4878
(g2
g3
F0.9212
tp4879
a(S'know'
p4880
g6
F0.9518
tp4881
a(S'um'
p4882
g27
F0.8958
tp4883
a(S'that'
p4884
g15
F0.7821
tp4885
a(S'guy'
p4886
g18
F0.9838
tp4887
a(S'that'
p4888
g12
F0.9896
tp4889
a(S'um'
p4890
g9
F0.4439
tp4891
a(S'brings'
p4892
g6
F0.999
tp4893
a(S'um'
p4894
g27
F0.6291
tp4895
a(S'rusty'
p4896
g92
F0.9781
tp4897
a(S'candy'
p4898
g18
F0.9937
tp4899
a(S'out'
p4900
g12
F0.7092
tp4901
asI520
(lp4902
(g2
g3
F0.8936
tp4903
a(S'he'
p4904
g9
F0.9908
tp4905
a(S'lived'
p4906
g6
F0.999
tp4907
a(S'with'
p4908
g12
F0.9992
tp4909
a(S'he'
p4910
g9
F0.998
tp4911
a(S'lived'
p4912
g6
F0.9987
tp4913
a(S'with'
p4914
g12
F0.9983
tp4915
a(S'um'
p4916
g27
F0.5967
tp4917
a(S'um'
p4918
g27
F0.9651
tp4919
asI521
(lp4920
(S'father'
p4921
g18
F0.879
tp4922
a(S'father'
p4923
g18
F0.9574
tp4924
asI522
(lp4925
(g2
g3
F0.9589
tp4926
a(S'ralphy'
p4927
g18
F0.9245
tp4928
a(S'too'
p4929
g23
F0.8875
tp4930
asI523
(lp4931
(g97
g9
F0.9912
tp4932
a(S'know'
p4933
g6
F0.9989
tp4934
asI524
(lp4935
(S'they'
p4936
g9
F0.9724
tp4937
a(S'all'
p4938
g15
F0.7155
tp4939
a(S'live'
p4940
g6
F0.5028
tp4941
a(S'all'
p4942
g15
F0.546
tp4943
a(S'together'
p4944
g23
F0.8023
tp4945
asI525
(lp4946
(S'shelley'
p4947
g328
F0.995
tp4948
a(S'xxx'
p4949
g48
F0.3615
tp4950
a(S'pick'
p4951
g6
F0.9844
tp4952
a(S'that'
p4953
g9
F0.7521
tp4954
a(S'up'
p4955
g407
F0.8223
tp4956
asI526
(lp4957
(S'what'
p4958
g9
F0.949
tp4959
asI527
(lp4960
(S'instead'
p4961
g23
F0.9346
tp4962
a(S'you'
p4963
g9
F0.9974
tp4964
a(S'just'
p4965
g23
F0.9996
tp4966
a(S'throw'
p4967
g6
F0.9936
tp4968
a(g248
g15
F0.9981
tp4969
a(S'paper'
p4970
g18
F0.9826
tp4971
a(S'towel'
p4972
g18
F0.9945
tp4973
a(S'on'
p4974
g12
F0.9986
tp4975
a(S'it'
p4976
g9
F0.9975
tp4977
asI528
(lp4978
(S'boy'
p4979
g18
F0.9629
tp4980
a(g97
g9
F0.9541
tp4981
a(S'can'
p4982
g6
F0.9996
tp4983
a(g55
g6
F0.6798
tp4984
a(S'hold'
p4985
g6
F0.9971
tp4986
a(S'this'
p4987
g9
F0.5621
tp4988
asI529
(lp4989
(S'eat'
p4990
g6
F0.8629
tp4991
a(S'or'
p4992
g395
F0.9847
tp4993
a(g97
g9
F0.9841
tp4994
a(g581
g6
F0.9829
tp4995
a(S'putting'
p4996
g6
F0.9984
tp4997
a(S'that'
p4998
g15
F0.728
tp4999
a(S'shade'
p5000
g18
F0.9819
tp5001
a(S'down'
p5002
g12
F0.4303
tp5003
asI530
(lp5004
(S'eat'
p5005
g6
F0.8267
tp5006
asI531
(lp5007
(S'excuse'
p5008
g6
F0.9631
tp5009
a(S'me'
p5010
g9
F0.9987
tp5011
asI532
(lp5012
(S'excuse'
p5013
g6
F0.9631
tp5014
a(S'me'
p5015
g9
F0.9982
tp5016
a(S'maam'
p5017
g27
F0.7894
tp5018
asI533
(lp5019
(S'whoops'
p5020
g27
F0.9789
tp5021
asI534
(lp5022
(S'put'
p5023
g6
F0.9811
tp5024
a(S'the'
p5025
g15
F0.9995
tp5026
a(S'rest'
p5027
g18
F0.9981
tp5028
a(S'of'
p5029
g12
F0.9988
tp5030
a(S'it'
p5031
g9
F0.9978
tp5032
a(S'in'
p5033
g12
F0.977
tp5034
a(S'the'
p5035
g15
F0.9971
tp5036
a(S'sink'
p5037
g18
F0.9822
tp5038
a(S'and'
p5039
g395
F0.994
tp5040
a(S'pick'
p5041
g6
F0.9989
tp5042
a(S'it'
p5043
g9
F0.9927
tp5044
a(S'up'
p5045
g407
F0.985
tp5046
asI535
(lp5047
(g2
g3
F0.9651
tp5048
a(g97
g9
F0.9439
tp5049
a(S'll'
p5050
g6
F0.7166
tp5051
a(S'get'
p5052
g6
F0.999
tp5053
a(S'that'
p5054
g9
F0.8634
tp5055
asI536
(lp5056
(g2
g3
F0.9715
tp5057
a(S'heavy'
p5058
g92
F0.9958
tp5059
a(S'plate'
p5060
g18
F0.999
tp5061
asI537
(lp5062
(S'oh'
p5063
g27
F0.9959
tp5064
a(S'they'
p5065
g9
F0.9921
tp5066
a(S'are'
p5067
g6
F0.9984
tp5068
a(S'aren'
p5069
g83
F0.4585
tp5070
a(g55
g83
F0.7555
tp5071
a(S'they'
p5072
g9
F0.985
tp5073
asI538
(lp5074
(g134
g3
F0.6794
tp5075
a(S'yeah'
p5076
g27
F0.9982
tp5077
asI539
(lp5078
(g2
g3
F0.9715
tp5079
a(S'heavy'
p5080
g92
F0.9958
tp5081
a(S'plate'
p5082
g18
F0.999
tp5083
asI540
(lp5084
(S'hate'
p5085
g6
F0.9874
tp5086
a(S'to'
p5087
g12
F0.9878
tp5088
a(S'be'
p5089
g6
F0.9977
tp5090
a(S'xxx'
p5091
g48
F0.7476
tp5092
asI541
(lp5093
(g134
g12
F0.6016
tp5094
a(S'don'
p5095
g6
F0.414
tp5096
a(g55
g83
F0.4526
tp5097
asI542
(lp5098
(g2
g3
F0.8795
tp5099
a(S'your'
p5100
g15
F0.9737
tp5101
a(S'favorites'
p5102
g18
F0.9991
tp5103
a(S'from'
p5104
g12
F0.9992
tp5105
a(S'yesterday'
p5106
g18
F0.8829
tp5107
a(S'and'
p5108
g395
F0.9977
tp5109
a(S'today'
p5110
g18
F0.9859
tp5111
asI543
(lp5112
(S'you'
p5113
g9
F0.9754
tp5114
a(S're'
p5115
g6
F0.8789
tp5116
a(S'right'
p5117
g23
F0.5777
tp5118
a(S'they'
p5119
g9
F0.972
tp5120
a(S'are'
p5121
g6
F0.9985
tp5122
a(S'heavy'
p5123
g92
F0.9844
tp5124
asI544
(lp5125
(g2
g3
F0.9374
tp5126
a(S'singing'
p5127
g6
F0.98
tp5128
asI545
(lp5129
(g2
g3
F0.9572
tp5130
a(S'oh'
p5131
g27
F0.993
tp5132
asI546
(lp5133
(S'cousin'
p5134
g18
F0.9464
tp5135
a(S'xxx'
p5136
g12
F0.3402
tp5137
a(S'the'
p5138
g15
F0.9992
tp5139
a(S'dishes'
p5140
g18
F0.998
tp5141
a(S'in'
p5142
g12
F0.9987
tp5143
a(S'the'
p5144
g15
F0.9961
tp5145
a(S'sink'
p5146
g18
F0.9855
tp5147
asI547
(lp5148
(S'cousin'
p5149
g18
F0.9556
tp5150
asI548
(lp5151
(S'xxx'
p5152
g48
F0.6563
tp5153
a(S'have'
p5154
g6
F0.997
tp5155
a(S'the'
p5156
g15
F0.9997
tp5157
a(S'tea'
p5158
g18
F0.9814
tp5159
asI549
(lp5160
(S'let'
p5161
g6
F0.8654
tp5162
a(g68
g83
F0.4154
tp5163
a(S'go'
p5164
g6
F0.9348
tp5165
asI550
(lp5166
(S'mom'
p5167
g18
F0.7188
tp5168
asI551
(lp5169
(S'what'
p5170
g9
F0.9777
tp5171
a(S'about'
p5172
g12
F0.9918
tp5173
a(S'our'
p5174
g15
F0.9903
tp5175
a(S'surprise'
p5176
g18
F0.9833
tp5177
asI552
(lp5178
(S'oh'
p5179
g27
F0.9987
tp5180
a(S'yeah'
p5181
g27
F0.9993
tp5182
a(S'xxx'
p5183
g48
F0.7736
tp5184
asI553
(lp5185
(g2
g3
F0.9641
tp5186
a(S'what'
p5187
g9
F0.9085
tp5188
a(S'surprise'
p5189
g18
F0.7904
tp5190
asI554
(lp5191
(g134
g3
F0.6759
tp5192
a(S'xxx'
p5193
g48
F0.2922
tp5194
a(S'nothing'
p5195
g18
F0.9947
tp5196
a(S'xxx'
p5197
g48
F0.8144
tp5198
asI555
(lp5199
(S'you'
p5200
g9
F0.9766
tp5201
a(S'all'
p5202
g15
F0.9339
tp5203
a(S'done'
p5204
g6
F0.5785
tp5205
a(S'chi'
p5206
g328
F0.4353
tp5207
asI556
(lp5208
(S'are'
p5209
g6
F0.9964
tp5210
a(S'you'
p5211
g9
F0.9995
tp5212
a(S'going'
p5213
g6
F0.9997
tp5214
a(S'to'
p5215
g12
F0.9801
tp5216
a(S'finish'
p5217
g6
F0.9998
tp5218
a(S'your'
p5219
g15
F0.8456
tp5220
a(S'um'
p5221
g27
F0.5066
tp5222
asI557
(lp5223
(S'did'
p5224
g6
F0.9986
tp5225
a(S'you'
p5226
g9
F0.9993
tp5227
a(S'have'
p5228
g6
F0.9991
tp5229
a(S'enough'
p5230
g18
F0.4635
tp5231
a(S'meat'
p5232
g18
F0.9831
tp5233
a(S'already'
p5234
g23
F0.9876
tp5235
asI558
(lp5236
(S'okay'
p5237
g27
F0.9857
tp5238
asI559
(lp5239
(S'you'
p5240
g9
F0.998
tp5241
a(S'want'
p5242
g6
F0.9987
tp5243
a(S'one'
p5244
g3
F0.9488
tp5245
a(S'of'
p5246
g12
F0.999
tp5247
a(S'these'
p5248
g15
F0.718
tp5249
asI560
(lp5250
(S'yum'
p5251
g27
F0.9751
tp5252
a(S'yum'
p5253
g27
F0.9905
tp5254
asI561
(lp5255
(S'you'
p5256
g9
F0.9923
tp5257
a(S'sure'
p5258
g92
F0.7197
tp5259
a(S'you'
p5260
g9
F0.9957
tp5261
a(S'don'
p5262
g6
F0.8611
tp5263
a(g55
g18
F0.2294
tp5264
a(S'want'
p5265
g6
F0.9988
tp5266
a(S'the'
p5267
g15
F0.9995
tp5268
a(S'rest'
p5269
g18
F0.9974
tp5270
a(S'of'
p5271
g12
F0.9978
tp5272
a(S'that'
p5273
g9
F0.7404
tp5274
asI562
(lp5275
(S'no'
p5276
g27
F0.9253
tp5277
asI563
(lp5278
(g134
g3
F0.6765
tp5279
a(S'xxx'
p5280
g48
F0.6773
tp5281
asI564
(lp5282
(S'sneezes'
p5283
g6
F0.6777
tp5284
asI565
(lp5285
(S'bless'
p5286
g6
F0.9146
tp5287
a(S'you'
p5288
g9
F0.9976
tp5289
asI566
(lp5290
(g134
g12
F0.688
tp5291
a(S'whose'
p5292
S'L'
p5293
F0.6076
tp5294
a(S'are'
p5295
g6
F0.9969
tp5296
a(S'these'
p5297
g9
F0.5418
tp5298
asI567
(lp5299
(S'noise'
p5300
g18
F0.8184
tp5301
asI568
(lp5302
(S'no'
p5303
g27
F0.9253
tp5304
asI569
(lp5305
(S'there'
p5306
g23
F0.5151
tp5307
a(S'aren'
p5308
g83
F0.2555
tp5309
a(g55
g83
F0.8049
tp5310
a(S'enough'
p5311
g23
F0.4612
tp5312
asI570
(lp5313
(g2
g3
F0.958
tp5314
a(S'why'
p5315
g23
F0.92
tp5316
asI571
(lp5317
(S'mom'
p5318
g18
F0.6628
tp5319
a(S'chi'
p5320
g83
F0.3269
tp5321
a(S'and'
p5322
g395
F0.9981
tp5323
a(S'bro'
p5324
g18
F0.9784
tp5325
asI572
(lp5326
(S'there'
p5327
g341
F0.5441
tp5328
a(S'should'
p5329
g6
F0.9946
tp5330
a(S'be'
p5331
g6
F0.9993
tp5332
a(S'three'
p5333
g3
F0.6676
tp5334
a(S'left'
p5335
g6
F0.7034
tp5336
a(S'in'
p5337
g12
F0.9399
tp5338
a(S'there'
p5339
g23
F0.8523
tp5340
a(S'after'
p5341
g12
F0.9867
tp5342
a(S'you'
p5343
g9
F0.997
tp5344
a(S'guys'
p5345
g18
F0.9489
tp5346
a(S'get'
p5347
g6
F0.9998
tp5348
a(S'yours'
p5349
g9
F0.9626
tp5350
asI573
(lp5351
(g97
g9
F0.9895
tp5352
a(S'got'
p5353
g6
F0.9997
tp5354
a(S'mine'
p5355
g9
F0.9681
tp5356
asI574
(lp5357
(S'right'
p5358
g27
F0.861
tp5359
asI575
(lp5360
(g134
g12
F0.7977
tp5361
a(S'he'
p5362
g9
F0.8274
tp5363
a(S'man'
p5364
g18
F0.7754
tp5365
a(S'and'
p5366
g395
F0.998
tp5367
a(S'what'
p5368
g9
F0.994
tp5369
a(g68
g83
F0.5027
tp5370
a(S'his'
p5371
g15
F0.9985
tp5372
a(S'name'
p5373
g18
F0.9987
tp5374
asI576
(lp5375
(g134
g3
F0.6644
tp5376
a(S'what'
p5377
g9
F0.9692
tp5378
a(g68
g83
F0.594
tp5379
a(S'the'
p5380
g15
F0.9973
tp5381
a(S'tiger'
p5382
g18
F0.573
tp5383
a(g68
g83
F0.8154
tp5384
a(S'name'
p5385
g18
F0.9899
tp5386
a(S'again'
p5387
g23
F0.9732
tp5388
asI577
(lp5389
(S'we'
p5390
g9
F0.9967
tp5391
a(S'should'
p5392
g6
F0.9993
tp5393
a(S'get'
p5394
g6
F0.9997
tp5395
a(S'more'
p5396
g92
F0.9353
tp5397
asI578
(lp5398
(S'oh'
p5399
g27
F0.9878
tp5400
a(S'you'
p5401
g9
F0.9966
tp5402
a(S'know'
p5403
g6
F0.9963
tp5404
a(g97
g9
F0.9863
tp5405
a(S'don'
p5406
g6
F0.9198
tp5407
a(g55
g12
F0.2527
tp5408
a(S'buy'
p5409
g6
F0.9838
tp5410
a(S'that'
p5411
g15
F0.8899
tp5412
a(S'stuff'
p5413
g18
F0.9851
tp5414
a(S'all'
p5415
g341
F0.5993
tp5416
a(S'the'
p5417
g15
F0.9998
tp5418
a(S'time'
p5419
g18
F0.998
tp5420
asI579
(lp5421
(S'what'
p5422
g9
F0.949
tp5423
asI580
(lp5424
(S'you'
p5425
g9
F0.9983
tp5426
a(S'know'
p5427
g6
F0.9966
tp5428
a(g97
g9
F0.9878
tp5429
a(S'don'
p5430
g6
F0.9208
tp5431
a(g55
g12
F0.2527
tp5432
a(S'buy'
p5433
g6
F0.9838
tp5434
a(S'that'
p5435
g15
F0.8899
tp5436
a(S'stuff'
p5437
g18
F0.9851
tp5438
a(S'all'
p5439
g341
F0.6137
tp5440
a(S'the'
p5441
g15
F0.9998
tp5442
a(S'time'
p5443
g18
F0.998
tp5444
asI581
(lp5445
(g97
g9
F0.9908
tp5446
a(S'know'
p5447
g6
F0.9999
tp5448
a(S'you'
p5449
g9
F0.9985
tp5450
a(S'didn'
p5451
g6
F0.9872
tp5452
a(g55
g6
F0.8431
tp5453
a(S'buy'
p5454
g6
F0.9954
tp5455
a(S'it'
p5456
g9
F0.9901
tp5457
asI582
(lp5458
(S'and'
p5459
g395
F0.9989
tp5460
a(S'you'
p5461
g9
F0.9994
tp5462
a(S'can'
p5463
g6
F0.9994
tp5464
a(g55
g6
F0.801
tp5465
a(S'eat'
p5466
g6
F0.9964
tp5467
a(S'it'
p5468
g9
F0.9903
tp5469
a(S'if'
p5470
g12
F0.9981
tp5471
a(S'you'
p5472
g9
F0.9996
tp5473
a(S'keep'
p5474
g6
F0.9993
tp5475
a(S'it'
p5476
g9
F0.9907
tp5477
a(S'up'
p5478
g407
F0.9852
tp5479
asI583
(lp5480
(S'can'
p5481
g6
F0.999
tp5482
a(S'you'
p5483
g9
F0.9975
tp5484
a(S'open'
p5485
g6
F0.9813
tp5486
a(S'this'
p5487
g15
F0.5416
tp5488
asI584
(lp5489
(S'why'
p5490
g23
F0.8527
tp5491
asI585
(lp5492
(g134
g12
F0.7737
tp5493
a(S'she'
p5494
g9
F0.9951
tp5495
a(S'll'
p5496
g6
F0.4421
tp5497
a(S'eat'
p5498
g6
F0.9984
tp5499
a(S'it'
p5500
g9
F0.9893
tp5501
asI586
(lp5502
(S'come'
p5503
g6
F0.9888
tp5504
a(S'here'
p5505
g23
F0.9957
tp5506
a(S'smart'
p5507
g92
F0.9973
tp5508
a(S'mouth'
p5509
g18
F0.9994
tp5510
asI587
(lp5511
(g134
g3
F0.5951
tp5512
a(S'why'
p5513
g23
F0.8719
tp5514
asI588
(lp5515
(S'you'
p5516
g9
F0.9754
tp5517
a(S're'
p5518
g6
F0.7849
tp5519
a(S'not'
p5520
g23
F0.997
tp5521
a(S'going'
p5522
g6
F0.9991
tp5523
a(S'to'
p5524
g12
F0.9794
tp5525
a(S'eat'
p5526
g6
F0.9997
tp5527
a(S'it'
p5528
g9
F0.99
tp5529
asI589
(lp5530
(g2
g3
F0.9591
tp5531
a(S'auntie'
p5532
g18
F0.9529
tp5533
a(S'will'
p5534
g6
F0.9972
tp5535
a(S'www'
p5536
g328
F0.3804
tp5537
a(S'laughs'
p5538
g6
F0.8559
tp5539
asI590
(lp5540
(g134
g3
F0.6765
tp5541
a(S'xxx'
p5542
g48
F0.6773
tp5543
asI591
(lp5544
(S'no'
p5545
g15
F0.726
tp5546
a(S'mommy'
p5547
g18
F0.996
tp5548
a(S'not'
p5549
g23
F0.9928
tp5550
a(S'auntie'
p5551
g18
F0.7544
tp5552
asI592
(lp5553
(S'yeah'
p5554
g27
F0.9968
tp5555
a(g97
g9
F0.9865
tp5556
a(g581
g6
F0.9702
tp5557
a(S'mommy'
p5558
g18
F0.7221
tp5559
a(S'not'
p5560
g23
F0.995
tp5561
a(S'auntie'
p5562
g18
F0.719
tp5563
a(S'to'
p5564
g12
F0.9995
tp5565
a(S'you'
p5566
g9
F0.9987
tp5567
asI593
(lp5568
(g134
g3
F0.4613
tp5569
a(S'there'
p5570
g23
F0.6385
tp5571
a(S'auntie'
p5572
g18
F0.534
tp5573
a(S'and'
p5574
g395
F0.9982
tp5575
a(S'mommy'
p5576
g18
F0.6468
tp5577
a(S'www'
p5578
g12
F0.6309
tp5579
a(S'laughs'
p5580
g6
F0.7618
tp5581
asI594
(lp5582
(S'auntie'
p5583
g18
F0.5838
tp5584
a(S'mom'
p5585
g18
F0.9362
tp5586
asI595
(lp5587
(S'is'
p5588
g6
F0.9981
tp5589
a(S'that'
p5590
g9
F0.8927
tp5591
a(S'what'
p5592
g9
F0.9798
tp5593
a(S'you'
p5594
g9
F0.9996
tp5595
a(S'said'
p5596
g6
F0.9981
tp5597
asI596
(lp5598
(g134
g3
F0.6877
tp5599
a(g97
g9
F0.9798
tp5600
a(S'said'
p5601
g6
F0.9988
tp5602
a(S'auntie'
p5603
g18
F0.8496
tp5604
a(S'and'
p5605
g395
F0.9988
tp5606
a(S'mom'
p5607
g18
F0.933
tp5608
asI597
(lp5609
(S'xxx'
p5610
g48
F0.6395
tp5611
a(S'stuff'
p5612
g18
F0.9621
tp5613
a(S'in'
p5614
g12
F0.9983
tp5615
a(S'the'
p5616
g15
F0.9992
tp5617
a(S'middle'
p5618
g18
F0.8343
tp5619
asI598
(lp5620
(g2
g3
F0.9653
tp5621
a(S'how'
p5622
g23
F0.9956
tp5623
a(S'many'
p5624
g92
F0.9718
tp5625
a(S'aunts'
p5626
g18
F0.997
tp5627
a(S'xxx'
p5628
g48
F0.8516
tp5629
asI599
(lp5630
(g2
g3
F0.9483
tp5631
a(S'two'
p5632
g3
F0.9348
tp5633
a(S'aunts'
p5634
g18
F0.9954
tp5635
a(S'just'
p5636
g23
F0.9994
tp5637
a(S'can'
p5638
g6
F0.9977
tp5639
a(g55
g6
F0.7589
tp5640
a(S'called'
p5641
g6
F0.9993
tp5642
a(S'that'
p5643
g9
F0.7624
tp5644
a(S'or'
p5645
g395
F0.974
tp5646
a(S'is'
p5647
g6
F0.9973
tp5648
a(S'xxx'
p5649
g48
F0.7578
tp5650
asI600
(lp5651
(S'they'
p5652
g9
F0.9104
tp5653
a(S're'
p5654
g6
F0.7674
tp5655
a(S'going'
p5656
g6
F0.9981
tp5657
a(S'to'
p5658
g12
F0.9768
tp5659
a(S'have'
p5660
g6
F0.9998
tp5661
a(S'to'
p5662
g12
F0.9971
tp5663
a(S'put'
p5664
g6
F0.999
tp5665
a(S'these'
p5666
g15
F0.5265
tp5667
a(S'in'
p5668
g12
F0.9949
tp5669
a(S'the'
p5670
g15
F0.9991
tp5671
a(S'microwave'
p5672
g18
F0.9914
tp5673
a(S'when'
p5674
g23
F0.9587
tp5675
a(S'they'
p5676
g9
F0.9753
tp5677
a(S'get'
p5678
g6
F0.9997
tp5679
a(S'back'
p5680
g407
F0.3703
tp5681
asI601
(lp5682
(S'huh'
p5683
g27
F0.9804
tp5684
a(S'sighs'
p5685
g6
F0.7869
tp5686
asI602
(lp5687
(S'you'
p5688
g9
F0.998
tp5689
a(S'have'
p5690
g6
F0.9994
tp5691
a(S'to'
p5692
g12
F0.9826
tp5693
a(S'go'
p5694
g6
F0.9985
tp5695
a(S'pick'
p5696
g6
F0.9863
tp5697
a(S'up'
p5698
g407
F0.9357
tp5699
a(S'my'
p5700
g15
F0.9986
tp5701
a(S'mom'
p5702
g18
F0.9892
tp5703
asI603
(lp5704
(S'no'
p5705
g27
F0.8403
tp5706
a(S'she'
p5707
g9
F0.9945
tp5708
a(S'said'
p5709
g6
F0.9993
tp5710
a(S'she'
p5711
g9
F0.999
tp5712
a(S'was'
p5713
g6
F0.999
tp5714
a(S'going'
p5715
g6
F0.994
tp5716
a(S'to'
p5717
g12
F0.9872
tp5718
a(S'walk'
p5719
g6
F0.9949
tp5720
a(S'back'
p5721
g23
F0.8886
tp5722
asI604
(lp5723
(g134
g3
F0.6644
tp5724
a(S'what'
p5725
g9
F0.5451
tp5726
a(S'time'
p5727
g18
F0.9943
tp5728
a(S'does'
p5729
g6
F0.9989
tp5730
a(S'she'
p5731
g9
F0.9982
tp5732
a(S'get'
p5733
g6
F0.9998
tp5734
a(S'out'
p5735
g407
F0.9017
tp5736
asI605
(lp5737
(g97
g9
F0.9635
tp5738
a(S'don'
p5739
g6
F0.9156
tp5740
a(g55
g18
F0.3074
tp5741
a(S'know'
p5742
g6
F0.965
tp5743
asI606
(lp5744
(g2
g3
F0.9214
tp5745
a(S'did'
p5746
g6
F0.9636
tp5747
a(S'she'
p5748
g9
F0.9975
tp5749
a(S'call'
p5750
g6
F0.8773
tp5751
asI607
(lp5752
(S'no'
p5753
g27
F0.7121
tp5754
a(S'before'
p5755
g12
F0.9878
tp5756
a(S'she'
p5757
g9
F0.999
tp5758
a(S'left'
p5759
g6
F0.988
tp5760
a(S'she'
p5761
g9
F0.9978
tp5762
a(S'said'
p5763
g6
F0.9953
tp5764
a(S'don'
p5765
g328
F0.3715
tp5766
a(g55
g328
F0.6258
tp5767
a(S'worry'
p5768
g6
F0.9928
tp5769
a(S'about'
p5770
g12
F0.9912
tp5771
a(S'it'
p5772
g9
F0.9969
tp5773
a(S'she'
p5774
g9
F0.9671
tp5775
a(S'd'
p5776
g83
F0.4598
tp5777
a(S'um'
p5778
g27
F0.7868
tp5779
asI608
(lp5780
(S'what'
p5781
g9
F0.5995
tp5782
a(S'time'
p5783
g18
F0.998
tp5784
a(S'is'
p5785
g6
F0.9981
tp5786
a(S'bro'
p5787
g18
F0.9482
tp5788
a(g68
g83
F0.562
tp5789
a(S'thing'
p5790
g18
F0.9772
tp5791
asI609
(lp5792
(S'five'
p5793
g3
F0.6498
tp5794
a(S'or'
p5795
g395
F0.9875
tp5796
a(S'five'
p5797
g3
F0.4826
tp5798
a(S'thirty'
p5799
g18
F0.3986
tp5800
a(g97
g9
F0.9409
tp5801
a(S'think'
p5802
g6
F0.9996
tp5803
asI610
(lp5804
(S'it'
p5805
g9
F0.9947
tp5806
a(S'runs'
p5807
g6
F0.9977
tp5808
a(S'for'
p5809
g12
F0.9972
tp5810
a(S'an'
p5811
g15
F0.9936
tp5812
a(S'hour'
p5813
g18
F0.994
tp5814
asI611
(lp5815
(S'so'
p5816
g12
F0.9008
tp5817
a(S'she'
p5818
g9
F0.9985
tp5819
a(S'would'
p5820
g6
F0.999
tp5821
a(S'get'
p5822
g6
F1.0
tp5823
a(S'out'
p5824
g12
F0.7223
tp5825
a(S'of'
p5826
g12
F0.9901
tp5827
a(S'there'
p5828
g23
F0.6614
tp5829
a(S'at'
p5830
g12
F0.9984
tp5831
a(S'six'
p5832
g328
F0.3738
tp5833
a(S'or'
p5834
g395
F0.9865
tp5835
a(S'six'
p5836
g3
F0.4949
tp5837
a(S'thirty'
p5838
g92
F0.3341
tp5839
asI612
(lp5840
(S'it'
p5841
g9
F0.9888
tp5842
a(g68
g6
F0.4037
tp5843
a(S'quarter'
p5844
g18
F0.995
tp5845
a(S'of'
p5846
g12
F0.9973
tp5847
a(S'seven'
p5848
g3
F0.7753
tp5849
a(S'now'
p5850
g23
F0.9887
tp5851
asI613
(lp5852
(S'no'
p5853
g27
F0.6532
tp5854
a(g97
g9
F0.9571
tp5855
a(S'mean'
p5856
g6
F0.991
tp5857
a(S'what'
p5858
g9
F0.6542
tp5859
a(S'time'
p5860
g18
F0.9982
tp5861
a(S'is'
p5862
g6
F0.9979
tp5863
a(S'bro'
p5864
g18
F0.9342
tp5865
a(g68
g83
F0.6495
tp5866
a(S'thing'
p5867
g18
F0.9826
tp5868
a(S'tonight'
p5869
g23
F0.8159
tp5870
asI614
(lp5871
(g134
g3
F0.5834
tp5872
a(S'seven'
p5873
g3
F0.7856
tp5874
asI615
(lp5875
(S'seven'
p5876
g3
F0.8065
tp5877
asI616
(lp5878
(S'she'
p5879
g9
F0.9917
tp5880
a(g68
g83
F0.558
tp5881
a(S'gonna'
p5882
g6
F0.9967
tp5883
a(S'to'
p5884
g12
F0.972
tp5885
a(S'be'
p5886
g6
F0.9994
tp5887
a(S'late'
p5888
g92
F0.9082
tp5889
asI617
(lp5890
(S'unless'
p5891
g12
F0.9893
tp5892
a(S'she'
p5893
g9
F0.9991
tp5894
a(S'went'
p5895
g6
F0.9985
tp5896
a(S'right'
p5897
g23
F0.8489
tp5898
a(S'over'
p5899
g12
F0.9293
tp5900
a(S'there'
p5901
g23
F0.6868
tp5902
asI618
(lp5903
(g97
g9
F0.9635
tp5904
a(S'don'
p5905
g6
F0.9156
tp5906
a(g55
g18
F0.3074
tp5907
a(S'know'
p5908
g6
F0.965
tp5909
asI619
(lp5910
(S'would'
p5911
g6
F0.985
tp5912
a(S'sis'
p5913
g18
F0.6992
tp5914
asI620
(lp5915
(g97
g9
F0.9635
tp5916
a(S'don'
p5917
g6
F0.9156
tp5918
a(g55
g18
F0.3074
tp5919
a(S'know'
p5920
g6
F0.965
tp5921
asI621
(lp5922
(g2
g3
F0.9482
tp5923
a(S'xxx'
p5924
g48
F0.661
tp5925
asI622
(lp5926
(g97
g9
F0.9635
tp5927
a(S'don'
p5928
g6
F0.9156
tp5929
a(g55
g18
F0.3074
tp5930
a(S'know'
p5931
g6
F0.965
tp5932
asI623
(lp5933
(S'she'
p5934
g9
F0.9926
tp5935
a(S'didn'
p5936
g6
F0.9724
tp5937
a(g55
g6
F0.6893
tp5938
a(S'get'
p5939
g6
F0.9993
tp5940
a(S'her'
p5941
g15
F0.8094
tp5942
a(S'popcorn'
p5943
g18
F0.9784
tp5944
a(S'either'
p5945
g395
F0.4656
tp5946
a(S'did'
p5947
g6
F0.9955
tp5948
a(S'she'
p5949
g9
F0.9958
tp5950
asI624
(lp5951
(S'uhhuh'
p5952
g27
F0.9892
tp5953
asI625
(lp5954
(S'right'
p5955
g23
F0.6638
tp5956
a(S'here'
p5957
g23
F0.9427
tp5958
asI626
(lp5959
(S'no'
p5960
g27
F0.6532
tp5961
a(g97
g9
F0.9571
tp5962
a(S'mean'
p5963
g6
F0.9979
tp5964
a(S'she'
p5965
g9
F0.9962
tp5966
a(S'didn'
p5967
g6
F0.9686
tp5968
a(g55
g6
F0.7869
tp5969
a(S'take'
p5970
g6
F0.9989
tp5971
a(S'it'
p5972
g9
F0.9058
tp5973
a(S'with'
p5974
g12
F0.9987
tp5975
a(S'her'
p5976
g9
F0.5403
tp5977
asI627
(lp5978
(g2
g3
F0.9634
tp5979
a(S'well'
p5980
g27
F0.4029
tp5981
a(S'it'
p5982
g9
F0.9985
tp5983
a(S'doesn'
p5984
g6
F0.9905
tp5985
a(g55
g18
F0.2425
tp5986
a(S'take'
p5987
g6
F0.9864
tp5988
a(S'two'
p5989
g3
F0.9104
tp5990
a(S'or'
p5991
g395
F0.9903
tp5992
a(S'three'
p5993
g3
F0.9502
tp5994
a(S'minutes'
p5995
g18
F0.9923
tp5996
a(S'to'
p5997
g12
F0.9994
tp5998
a(S'get'
p5999
g6
F0.9998
tp6000
a(S'to'
p6001
g12
F0.9946
tp6002
a(S'the'
p6003
g15
F0.9988
tp6004
a(S'school'
p6005
g18
F0.9989
tp6006
asI628
(lp6007
(S'yeah'
p6008
g27
F0.9983
tp6009
a(S'that'
p6010
g9
F0.729
tp6011
a(g68
g6
F0.4078
tp6012
a(S'true'
p6013
g92
F0.9852
tp6014
asI629
(lp6015
(S'so'
p6016
g12
F0.5357
tp6017
a(S'if'
p6018
g12
F0.9967
tp6019
a(S'she'
p6020
g9
F0.9988
tp6021
a(S'comes'
p6022
g6
F0.9994
tp6023
a(S'in'
p6024
g12
F0.757
tp6025
a(S'in'
p6026
g12
F0.9875
tp6027
a(S'the'
p6028
g15
F0.9996
tp6029
a(S'next'
p6030
g92
F0.9551
tp6031
a(S'five'
p6032
g3
F0.7834
tp6033
a(S'minutes'
p6034
g18
F0.9953
tp6035
a(S'or'
p6036
g395
F0.9906
tp6037
a(S'so'
p6038
g12
F0.8175
tp6039
a(S'she'
p6040
g9
F0.9984
tp6041
a(S'can'
p6042
g6
F0.9993
tp6043
a(S'make'
p6044
g6
F0.9998
tp6045
a(S'it'
p6046
g9
F0.8483
tp6047
asI630
(lp6048
(S'oh'
p6049
g27
F0.9843
tp6050
a(S'it'
p6051
g9
F0.9854
tp6052
a(g68
g6
F0.7123
tp6053
a(S'at'
p6054
g12
F0.9987
tp6055
a(S'my'
p6056
g15
F0.9974
tp6057
a(S'school'
p6058
g18
F0.9993
tp6059
asI631
(lp6060
(g2
g3
F0.9072
tp6061
a(S'it'
p6062
g9
F0.9803
tp6063
a(S'only'
p6064
g23
F0.92
tp6065
a(S'takes'
p6066
g6
F0.9984
tp6067
a(S'five'
p6068
g3
F0.6709
tp6069
a(S'minutes'
p6070
g18
F0.9947
tp6071
a(S'or'
p6072
g395
F0.99
tp6073
a(S'so'
p6074
g23
F0.7423
tp6075
asI632
(lp6076
(S'mhm'
p6077
g27
F0.9747
tp6078
asI633
(lp6079
(S'oh'
p6080
g27
F0.9988
tp6081
asI634
(lp6082
(g2
g3
F0.9655
tp6083
a(S'but'
p6084
g395
F0.986
tp6085
a(S'it'
p6086
g9
F0.9971
tp6087
a(S'only'
p6088
g23
F0.8904
tp6089
a(S'takes'
p6090
g6
F0.9999
tp6091
a(S'me'
p6092
g9
F0.9987
tp6093
a(S'like'
p6094
g12
F0.7017
tp6095
a(S'two'
p6096
g3
F0.977
tp6097
a(S'minutes'
p6098
g18
F0.9936
tp6099
a(S'to'
p6100
g12
F0.9977
tp6101
a(S'three'
p6102
g3
F0.9638
tp6103
a(S'minutes'
p6104
g18
F0.9923
tp6105
a(S'to'
p6106
g12
F0.9994
tp6107
a(S'get'
p6108
g6
F0.9996
tp6109
a(S'from'
p6110
g12
F0.9894
tp6111
a(S'here'
p6112
g23
F0.9499
tp6113
a(S'to'
p6114
g12
F0.999
tp6115
a(S'the'
p6116
g15
F0.9988
tp6117
a(S'school'
p6118
g18
F0.999
tp6119
asI635
(lp6120
(S'well'
p6121
g23
F0.5268
tp6122
a(S'walking'
p6123
g6
F0.9932
tp6124
a(S'with'
p6125
g12
F0.9916
tp6126
a(S'bro'
p6127
g18
F0.9448
tp6128
a(S'it'
p6129
g9
F0.9808
tp6130
a(S'might'
p6131
g6
F0.9977
tp6132
a(S'take'
p6133
g6
F0.9998
tp6134
a(g248
g15
F0.9988
tp6135
a(S'little'
p6136
g92
F0.9958
tp6137
a(S'bit'
p6138
g18
F0.692
tp6139
a(S'longer'
p6140
g23
F0.8069
tp6141
asI636
(lp6142
(S'no'
p6143
g27
F0.9253
tp6144
asI637
(lp6145
(g134
g12
F0.7312
tp6146
a(S'meet'
p6147
g6
F0.9905
tp6148
a(S'here'
p6149
g23
F0.9233
tp6150
a(S'xxx'
p6151
g48
F0.8373
tp6152
asI638
(lp6153
(S'he'
p6154
g9
F0.9956
tp6155
a(S'took'
p6156
g6
F0.9999
tp6157
a(S'all'
p6158
g15
F0.8596
tp6159
a(S'xxx'
p6160
g48
F0.4537
tp6161
a(S'all'
p6162
g341
F0.8004
tp6163
a(S'the'
p6164
g15
F0.9998
tp6165
a(S'girls'
p6166
g18
F0.9964
tp6167
asI639
(lp6168
(S'where'
p6169
g23
F0.9493
tp6170
asI640
(lp6171
(S'home'
p6172
g18
F0.8327
tp6173
asI641
(lp6174
(S'xxx'
p6175
g48
F0.8437
tp6176
asI642
(lp6177
(g2
g3
F0.9876
tp6178
a(S'with'
p6179
g12
F0.9983
tp6180
a(S'just'
p6181
g23
F0.9962
tp6182
a(S'me'
p6183
g9
F0.9962
tp6184
a(S'and'
p6185
g395
F0.9911
tp6186
a(S'bro'
p6187
g18
F0.9176
tp6188
a(S'it'
p6189
g9
F0.9842
tp6190
a(S'took'
p6191
g6
F0.9997
tp6192
a(g248
g15
F0.9965
tp6193
a(S'couple'
p6194
g18
F0.9862
tp6195
a(S'of'
p6196
g12
F0.9959
tp6197
a(S'minutes'
p6198
g18
F0.9652
tp6199
asI643
(lp6200
(S'mm'
p6201
g27
F0.627
tp6202
asI644
(lp6203
(g134
g3
F0.7218
tp6204
a(S'because'
p6205
g12
F0.9953
tp6206
a(g97
g9
F0.9978
tp6207
a(S'know'
p6208
g6
F0.9999
tp6209
a(S'the'
p6210
g15
F0.9987
tp6211
a(S'road'
p6212
g18
F0.9856
tp6213
a(S'now'
p6214
g23
F0.9918
tp6215
asI645
(lp6216
(S'peter'
p6217
g328
F0.9974
tp6218
a(g68
g328
F0.4627
tp6219
a(S'going'
p6220
g6
F0.9973
tp6221
a(S'to'
p6222
g12
F0.9713
tp6223
a(S'be'
p6224
g6
F0.9994
tp6225
a(S'upset'
p6226
g92
F0.8758
tp6227
a(S'when'
p6228
g23
F0.9606
tp6229
a(S'he'
p6230
g9
F0.9974
tp6231
a(S'gets'
p6232
g6
F0.9998
tp6233
a(S'here'
p6234
g23
F0.9565
tp6235
asI646
(lp6236
(g2
g3
F0.958
tp6237
a(S'why'
p6238
g23
F0.92
tp6239
asI647
(lp6240
(S'he'
p6241
g9
F0.9959
tp6242
a(S'has'
p6243
g6
F0.9992
tp6244
a(S'gotta'
p6245
g6
F0.9961
tp6246
a(S'be'
p6247
g6
F0.9971
tp6248
a(S'at'
p6249
g12
F0.9983
tp6250
a(S'school'
p6251
g18
F0.9961
tp6252
a(S'at'
p6253
g12
F0.9989
tp6254
a(S'quarter'
p6255
g18
F0.988
tp6256
a(S'of'
p6257
g12
F0.997
tp6258
a(S'eight'
p6259
g3
F0.7589
tp6260
asI648
(lp6261
(S'xxx'
p6262
g48
F0.8437
tp6263
asI649
(lp6264
(S'well'
p6265
g27
F0.8573
tp6266
a(g97
g9
F0.997
tp6267
a(S'gotta'
p6268
g6
F0.9998
tp6269
a(S'be'
p6270
g6
F0.9987
tp6271
a(S'there'
p6272
g23
F0.9779
tp6273
a(S'at'
p6274
g12
F0.9985
tp6275
a(S'seven'
p6276
g3
F0.6639
tp6277
a(S'thirty'
p6278
g92
F0.3716
tp6279
asI650
(lp6280
(S'oh'
p6281
g27
F0.9988
tp6282
asI651
(lp6283
(g2
g3
F0.9634
tp6284
a(S'quarter'
p6285
g18
F0.999
tp6286
a(S'of'
p6287
g12
F0.9951
tp6288
a(S'eight'
p6289
g3
F0.6851
tp6290
asI652
(lp6291
(g97
g9
F0.9764
tp6292
a(S'hope'
p6293
g6
F0.9998
tp6294
a(S'you'
p6295
g9
F0.9937
tp6296
a(S'two'
p6297
g3
F0.7534
tp6298
a(S'don'
p6299
g18
F0.5211
tp6300
a(g55
g18
F0.3869
tp6301
a(S'have'
p6302
g6
F0.9978
tp6303
a(S'to'
p6304
g12
F0.9942
tp6305
a(S'be'
p6306
g6
F0.9995
tp6307
a(S'there'
p6308
g23
F0.9801
tp6309
a(S'until'
p6310
g12
F0.9936
tp6311
a(S'quarter'
p6312
g18
F0.962
tp6313
a(S'past'
p6314
g92
F0.7893
tp6315
asI653
(lp6316
(g2
g3
F0.9596
tp6317
a(S'why'
p6318
g23
F0.9349
tp6319
a(g68
g83
F0.5514
tp6320
a(S'that'
p6321
g9
F0.6341
tp6322
asI654
(lp6323
(g97
g9
F0.9635
tp6324
a(S'don'
p6325
g6
F0.9156
tp6326
a(g55
g18
F0.3074
tp6327
a(S'know'
p6328
g6
F0.965
tp6329
asI655
(lp6330
(S'that'
p6331
g9
F0.473
tp6332
a(g68
g83
F0.477
tp6333
a(S'just'
p6334
g23
F0.9991
tp6335
a(S'how'
p6336
g23
F0.9921
tp6337
a(S'they'
p6338
g9
F0.9978
tp6339
a(S'do'
p6340
g6
F1.0
tp6341
a(S'it'
p6342
g9
F0.9927
tp6343
asI656
(lp6344
(S'it'
p6345
g9
F0.9858
tp6346
a(g68
g6
F0.5454
tp6347
a(S'weird'
p6348
g92
F0.9919
tp6349
asI657
(lp6350
(g97
g9
F0.9805
tp6351
a(S'never'
p6352
g23
F0.9905
tp6353
a(S'heard'
p6354
g6
F0.997
tp6355
a(S'of'
p6356
g12
F0.9511
tp6357
a(S'xxx'
p6358
g6
F0.3758
tp6359
a(S'them'
p6360
g9
F0.9759
tp6361
a(S'doing'
p6362
g6
F0.9999
tp6363
a(S'it'
p6364
g9
F0.9948
tp6365
a(S'like'
p6366
g12
F0.5854
tp6367
a(S'that'
p6368
g9
F0.8856
tp6369
a(S'before'
p6370
g12
F0.7534
tp6371
asI658
(lp6372
(g97
g9
F0.9156
tp6373
a(S've'
p6374
g6
F0.8716
tp6375
a(S'always'
p6376
g23
F0.9923
tp6377
a(S'thought'
p6378
g6
F0.9986
tp6379
a(S'all'
p6380
g15
F0.9897
tp6381
a(S'kids'
p6382
g18
F0.9756
tp6383
a(S'started'
p6384
g6
F0.9983
tp6385
a(S'at'
p6386
g12
F0.9986
tp6387
a(S'the'
p6388
g15
F0.9997
tp6389
a(S'same'
p6390
g92
F0.9977
tp6391
a(S'time'
p6392
g18
F0.9985
tp6393
asI659
(lp6394
(g2
g3
F0.9263
tp6395
a(S'do'
p6396
g6
F0.9711
tp6397
a(S'they'
p6398
g9
F0.99
tp6399
a(S'get'
p6400
g6
F0.9999
tp6401
a(S'out'
p6402
g407
F0.8119
tp6403
a(g248
g15
F0.996
tp6404
a(S'half'
p6405
g3
F0.6175
tp6406
a(S'hour'
p6407
g18
F0.9795
tp6408
a(S'earlier'
p6409
g23
F0.9241
tp6410
asI660
(lp6411
(S'nope'
p6412
g27
F0.996
tp6413
asI661
(lp6414
(S'they'
p6415
g9
F0.9169
tp6416
a(S'some'
p6417
g15
F0.6009
tp6418
a(S'do'
p6419
g6
F0.9355
tp6420
a(S'but'
p6421
g395
F0.982
tp6422
asI662
(lp6423
(S'they'
p6424
g9
F0.9816
tp6425
a(S'get'
p6426
g6
F0.9999
tp6427
a(S'out'
p6428
g407
F0.939
tp6429
a(S'at'
p6430
g12
F0.9997
tp6431
a(S'the'
p6432
g15
F0.9997
tp6433
a(S'same'
p6434
g92
F0.9966
tp6435
a(S'time'
p6436
g18
F0.9978
tp6437
asI663
(lp6438
(g2
g3
F0.9193
tp6439
a(S'they'
p6440
g9
F0.9805
tp6441
a(S'must'
p6442
g6
F0.9981
tp6443
a(S'get'
p6444
g6
F0.9999
tp6445
a(S'out'
p6446
g407
F0.8938
tp6447
a(S'and'
p6448
g395
F0.9962
tp6449
a(S'have'
p6450
g6
F0.9991
tp6451
a(S'an'
p6452
g15
F0.9951
tp6453
a(S'extra'
p6454
g92
F0.9521
tp6455
a(S'period'
p6456
g18
F0.9967
tp6457
a(S'or'
p6458
g395
F0.9932
tp6459
a(S'something'
p6460
g18
F0.9958
tp6461
asI664
(lp6462
(S'auntie'
p6463
g18
F0.6027
tp6464
asI665
(lp6465
(S'auntie'
p6466
g18
F0.6027
tp6467
asI666
(lp6468
(S'probably'
p6469
g23
F0.9958
tp6470
asI667
(lp6471
(S'what'
p6472
g9
F0.949
tp6473
asI668
(lp6474
(S'auntie'
p6475
g18
F0.6027
tp6476
asI669
(lp6477
(S'they'
p6478
g9
F0.9348
tp6479
a(g97
g9
F0.9109
tp6480
a(g581
g6
F0.9644
tp6481
a(S'gonna'
p6482
g6
F0.9962
tp6483
a(S'wait'
p6484
g6
F0.9992
tp6485
a(S'together'
p6486
g23
F0.9162
tp6487
asI670
(lp6488
(S'mhm'
p6489
g27
F0.9747
tp6490
asI671
(lp6491
(g2
g3
F0.9568
tp6492
a(S'uhhuh'
p6493
g27
F0.9468
tp6494
asI672
(lp6495
(S'they'
p6496
g9
F0.987
tp6497
a(S'wait'
p6498
g6
F0.9997
tp6499
a(S'in'
p6500
g12
F0.6798
tp6501
a(S'different'
p6502
g92
F0.9958
tp6503
a(S'class'
p6504
g18
F0.9977
tp6505
asI673
(lp6506
(g2
g3
F0.9169
tp6507
a(S'we'
p6508
g9
F0.9741
tp6509
a(S're'
p6510
g6
F0.695
tp6511
a(S'in'
p6512
g12
F0.9817
tp6513
a(S'the'
p6514
g15
F0.9996
tp6515
a(S'same'
p6516
g92
F0.9962
tp6517
a(S'school'
p6518
g18
F0.9986
tp6519
asI674
(lp6520
(S'well'
p6521
g27
F0.906
tp6522
a(S'they'
p6523
g9
F0.9853
tp6524
a(S're'
p6525
g6
F0.9466
tp6526
a(S'all'
p6527
g15
F0.651
tp6528
a(S'going'
p6529
g6
F0.9703
tp6530
a(S'to'
p6531
g12
F0.9538
tp6532
a(S'go'
p6533
g6
F0.9993
tp6534
a(S'to'
p6535
g12
F0.9984
tp6536
a(S'the'
p6537
g15
F0.9994
tp6538
a(S'same'
p6539
g92
F0.9965
tp6540
a(S'school'
p6541
g18
F0.9994
tp6542
a(S'so'
p6543
g12
F0.9728
tp6544
a(S'they'
p6545
g9
F0.984
tp6546
a(S'um'
p6547
g27
F0.6915
tp6548
asI675
(lp6549
(S'they'
p6550
g9
F0.9862
tp6551
a(S'll'
p6552
g6
F0.9377
tp6553
a(S'all'
p6554
g15
F0.6533
tp6555
a(S'wait'
p6556
g6
F0.7904
tp6557
a(g55
g6
F0.2884
tp6558
a(S'wait'
p6559
g6
F0.991
tp6560
a(S'for'
p6561
g12
F0.999
tp6562
a(S'each'
p6563
g15
F0.9883
tp6564
a(S'other'
p6565
g92
F0.9243
tp6566
a(S'in'
p6567
g12
F0.9944
tp6568
a(S'one'
p6569
g3
F0.9017
tp6570
a(S'spot'
p6571
g18
F0.9919
tp6572
asI676
(lp6573
(S'and'
p6574
g395
F0.9987
tp6575
a(S'where'
p6576
g23
F0.9841
tp6577
a(S'yous'
p6578
g9
F0.5025
tp6579
a(S'you'
p6580
g9
F0.9979
tp6581
a(S'waited'
p6582
g6
F0.9949
tp6583
a(S'today'
p6584
g18
F0.97
tp6585
a(S'was'
p6586
g6
F0.9979
tp6587
a(g248
g15
F0.9971
tp6588
a(S'good'
p6589
g92
F0.9977
tp6590
a(S'spot'
p6591
g18
F0.9966
tp6592
asI677
(lp6593
(g2
g3
F0.9651
tp6594
a(g97
g9
F0.9244
tp6595
a(S'like'
p6596
g6
F0.8915
tp6597
a(S'that'
p6598
g15
F0.7049
tp6599
a(S'spot'
p6600
g18
F0.9322
tp6601
a(S'up'
p6602
g12
F0.5916
tp6603
a(S'there'
p6604
g23
F0.6494
tp6605
asI678
(lp6606
(g2
g3
F0.9651
tp6607
a(g97
g9
F0.9244
tp6608
a(S'like'
p6609
g6
F0.9117
tp6610
a(S'it'
p6611
g9
F0.9987
tp6612
a(S'out'
p6613
g407
F0.7977
tp6614
a(S'in'
p6615
g12
F0.9979
tp6616
a(S'the'
p6617
g15
F0.9992
tp6618
a(S'yard'
p6619
g18
F0.9833
tp6620
asI679
(lp6621
(S'so'
p6622
g23
F0.7569
tp6623
a(S'once'
p6624
g23
F0.9646
tp6625
a(S'we'
p6626
g9
F0.9964
tp6627
a(S'get'
p6628
g6
F0.9998
tp6629
a(S'into'
p6630
g12
F0.9973
tp6631
a(S'our'
p6632
g15
F0.9972
tp6633
a(S'apartment'
p6634
g18
F0.9919
tp6635
a(S'it'
p6636
g9
F0.9527
tp6637
a(g68
g6
F0.6938
tp6638
a(S'right'
p6639
g23
F0.6753
tp6640
a(S'down'
p6641
g12
F0.9099
tp6642
a(S'the'
p6643
g15
F0.9991
tp6644
a(S'street'
p6645
g18
F0.9274
tp6646
a(S'from'
p6647
g12
F0.9999
tp6648
a(S'the'
p6649
g15
F0.999
tp6650
a(S'school'
p6651
g18
F0.9986
tp6652
asI680
(lp6653
(g2
g3
F0.9651
tp6654
a(g97
g9
F0.9726
tp6655
a(S'know'
p6656
g6
F0.9985
tp6657
a(g97
g9
F0.974
tp6658
a(S've'
p6659
g6
F0.8626
tp6660
a(S'seen'
p6661
g6
F0.9976
tp6662
a(S'the'
p6663
g15
F0.9993
tp6664
a(S'apartment'
p6665
g18
F0.9951
tp6666
asI681
(lp6667
(S'you'
p6668
g9
F0.9969
tp6669
a(S'can'
p6670
g6
F0.9998
tp6671
a(S'see'
p6672
g6
F0.9996
tp6673
a(S'the'
p6674
g15
F0.9996
tp6675
a(S'house'
p6676
g18
F0.9866
tp6677
a(S'from'
p6678
g12
F0.9996
tp6679
a(S'there'
p6680
g23
F0.6716
tp6681
a(S'right'
p6682
g92
F0.6159
tp6683
asI682
(lp6684
(g2
g3
F0.8933
tp6685
a(S'you'
p6686
g9
F0.9964
tp6687
a(S'can'
p6688
g6
F0.9997
tp6689
a(S'see'
p6690
g6
F0.9961
tp6691
a(S'exactly'
p6692
g23
F0.9785
tp6693
a(S'where'
p6694
g23
F0.9736
tp6695
a(S'it'
p6696
g9
F0.9987
tp6697
a(S'is'
p6698
g6
F0.999
tp6699
asI683
(lp6700
(g134
g12
F0.7981
tp6701
a(S'you'
p6702
g9
F0.9981
tp6703
a(S'can'
p6704
g6
F0.9997
tp6705
a(S'see'
p6706
g6
F0.9959
tp6707
a(S'part'
p6708
g18
F0.9558
tp6709
a(S'part'
p6710
g18
F0.9925
tp6711
a(S'of'
p6712
g12
F0.9989
tp6713
a(S'it'
p6714
g9
F0.9978
tp6715
asI684
(lp6716
(g134
g12
F0.7981
tp6717
a(S'you'
p6718
g9
F0.9981
tp6719
a(S'can'
p6720
g6
F0.9997
tp6721
a(S'see'
p6722
g6
F0.9959
tp6723
a(S'part'
p6724
g18
F0.9904
tp6725
a(S'of'
p6726
g12
F0.9988
tp6727
a(S'it'
p6728
g9
F0.9964
tp6729
asI685
(lp6730
(g134
g3
F0.7421
tp6731
a(S'mom'
p6732
g18
F0.8349
tp6733
a(S'you'
p6734
g9
F0.9961
tp6735
a(S'can'
p6736
g6
F0.9997
tp6737
a(S'see'
p6738
g6
F0.9962
tp6739
a(S'part'
p6740
g18
F0.9938
tp6741
a(S'of'
p6742
g12
F0.9995
tp6743
a(S'the'
p6744
g15
F0.9991
tp6745
a(S'school'
p6746
g18
F0.9983
tp6747
a(S'the'
p6748
g15
F0.9976
tp6749
a(S'house'
p6750
g18
F0.9866
tp6751
a(S'from'
p6752
g12
F0.9999
tp6753
a(S'the'
p6754
g15
F0.9988
tp6755
a(S'school'
p6756
g18
F0.9988
tp6757
asI686
(lp6758
(S'yeah'
p6759
g27
F0.9968
tp6760
a(g97
g9
F0.997
tp6761
a(S'know'
p6762
g6
F0.9999
tp6763
a(S'that'
p6764
g9
F0.7826
tp6765
asI687
(lp6766
(g134
g12
F0.7316
tp6767
a(S'see'
p6768
g6
F0.9941
tp6769
a(S'there'
p6770
g23
F0.5803
tp6771
a(S'was'
p6772
g6
F0.9991
tp6773
a(S'it'
p6774
g9
F0.9982
tp6775
a(S'was'
p6776
g6
F0.9997
tp6777
a(g248
g15
F0.9976
tp6778
a(S'yellow'
p6779
g92
F0.9791
tp6780
a(S'building'
p6781
g18
F0.8775
tp6782
a(S'you'
p6783
g9
F0.9953
tp6784
a(S'could'
p6785
g6
F0.9996
tp6786
a(S'see'
p6787
g6
F0.9918
tp6788
a(S'just'
p6789
g23
F0.9992
tp6790
a(S'just'
p6791
g23
F0.9998
tp6792
a(S'like'
p6793
g12
F0.6271
tp6794
a(S'part'
p6795
g18
F0.9966
tp6796
a(S'of'
p6797
g12
F0.9994
tp6798
a(S'the'
p6799
g15
F0.9995
tp6800
a(S'sides'
p6801
g18
F0.998
tp6802
asI688
(lp6803
(S'auntie'
p6804
g18
F0.5897
tp6805
a(g68
g83
F0.6469
tp6806
a(S'home'
p6807
g18
F0.9357
tp6808
asI689
(lp6809
(g2
g3
F0.9599
tp6810
a(S'auntie'
p6811
g18
F0.9049
tp6812
asI690
(lp6813
(S'nope'
p6814
g27
F0.9614
tp6815
a(S'it'
p6816
g9
F0.9936
tp6817
a(g68
g6
F0.4185
tp6818
a(S'sis'
p6819
g18
F0.9488
tp6820
asI691
(lp6821
(S'yep'
p6822
g27
F0.9977
tp6823
asI692
(lp6824
(S'there'
p6825
g341
F0.4649
tp6826
a(g68
g83
F0.4987
tp6827
a(S'bro'
p6828
g18
F0.9402
tp6829
asI693
(lp6830
(S'supper'
p6831
g18
F0.8413
tp6832
a(g68
g83
F0.8365
tp6833
a(S'almost'
p6834
g23
F0.9853
tp6835
a(S'over'
p6836
g12
F0.644
tp6837
asI694
(lp6838
(S'oh'
p6839
g27
F0.9971
tp6840
a(g97
g9
F0.9842
tp6841
a(S'like'
p6842
g6
F0.9157
tp6843
a(S'that'
p6844
g9
F0.9192
tp6845
asI695
(lp6846
(S'look'
p6847
g6
F0.88
tp6848
a(S'at'
p6849
g12
F0.996
tp6850
a(S'that'
p6851
g9
F0.8197
tp6852
asI696
(lp6853
(S'it'
p6854
g9
F0.9858
tp6855
a(g68
g83
F0.412
tp6856
a(S'pretty'
p6857
g23
F0.5926
tp6858
asI697
(lp6859
(g2
g3
F0.9072
tp6860
a(S'it'
p6861
g9
F0.9694
tp6862
a(g68
g6
F0.4496
tp6863
a(S'huge'
p6864
g92
F0.9645
tp6865
asI698
(lp6866
(g134
g3
F0.6556
tp6867
a(S'auntie'
p6868
g18
F0.5571
tp6869
a(S'you'
p6870
g9
F0.9152
tp6871
a(S'guys'
p6872
g18
F0.9274
tp6873
a(S'only'
p6874
g23
F0.9542
tp6875
a(S'have'
p6876
g6
F0.9858
tp6877
a(S'fifteen'
p6878
g3
F0.8376
tp6879
a(S'minutes'
p6880
g18
F0.9904
tp6881
asI699
(lp6882
(S'xxx'
p6883
g48
F0.742
tp6884
a(S'um'
p6885
g27
F0.9285
tp6886
a(S'um'
p6887
g27
F0.9548
tp6888
asI700
(lp6889
(S'she'
p6890
g9
F0.9961
tp6891
a(S'can'
p6892
g6
F0.9994
tp6893
a(S'wear'
p6894
g6
F0.9992
tp6895
a(S'those'
p6896
g15
F0.9845
tp6897
a(S'shorts'
p6898
g18
F0.9943
tp6899
asI701
(lp6900
(S'security'
p6901
g18
F0.9705
tp6902
a(S'guard'
p6903
g18
F0.9813
tp6904
asI702
(lp6905
(S'yes'
p6906
g27
F0.9842
tp6907
a(S'she'
p6908
g9
F0.9992
tp6909
a(S'did'
p6910
g6
F0.9985
tp6911
a(S'but'
p6912
g395
F0.9818
tp6913
a(S'she'
p6914
g9
F0.9977
tp6915
a(S'changed'
p6916
g6
F0.9994
tp6917
a(S'them'
p6918
g9
F0.735
tp6919
asI703
(lp6920
(S'we'
p6921
g9
F0.9849
tp6922
a(S're'
p6923
g6
F0.6925
tp6924
a(S'coming'
p6925
g6
F0.9975
tp6926
a(S'back'
p6927
g23
F0.7557
tp6928
a(S'by'
p6929
g12
F0.9995
tp6930
a(S'the'
p6931
g15
F0.9885
tp6932
a(S'xxx'
p6933
g18
F0.3396
tp6934
a(S'building'
p6935
g18
F0.6722
tp6936
asI704
(lp6937
(S'yeah'
p6938
g27
F0.9988
tp6939
asI705
(lp6940
(S'some'
p6941
g15
F0.9766
tp6942
a(S'security'
p6943
g18
F0.9585
tp6944
a(S'guard'
p6945
g18
F0.9847
tp6946
a(S'come'
p6947
g6
F0.996
tp6948
a(S'over'
p6949
g23
F0.4701
tp6950
a(S'and'
p6951
g395
F0.9974
tp6952
a(S'started'
p6953
g6
F0.9977
tp6954
a(S'yelling'
p6955
g6
F0.9965
tp6956
a(S'at'
p6957
g12
F0.9981
tp6958
a(S'me'
p6959
g9
F0.9985
tp6960
a(S'well'
p6961
g23
F0.7919
tp6962
a(g97
g9
F0.9942
tp6963
a(S'almost'
p6964
g23
F0.9911
tp6965
a(S'had'
p6966
g6
F0.9996
tp6967
a(g248
g15
F0.9988
tp6968
a(S'heart'
p6969
g18
F0.9871
tp6970
a(S'attack'
p6971
g6
F0.6284
tp6972
asI706
(lp6973
(S'why'
p6974
g23
F0.8527
tp6975
asI707
(lp6976
(S'the'
p6977
g15
F0.9988
tp6978
a(S'kids'
p6979
g18
F0.9838
tp6980
a(S'picked'
p6981
g6
F0.9998
tp6982
a(S'up'
p6983
g407
F0.928
tp6984
a(S'two'
p6985
g3
F0.9676
tp6986
a(S'bricks'
p6987
g18
F0.9743
tp6988
a(S'off'
p6989
g12
F0.9582
tp6990
a(S'the'
p6991
g15
F0.9998
tp6992
a(S'ground'
p6993
g18
F0.5922
tp6994
a(S'and'
p6995
g395
F0.9978
tp6996
a(S'threw'
p6997
g6
F0.9989
tp6998
a(S'them'
p6999
g9
F0.9785
tp7000
a(S'in'
p7001
g12
F0.9887
tp7002
a(S'the'
p7003
g15
F0.9993
tp7004
a(S'water'
p7005
g18
F0.9965
tp7006
asI708
(lp7007
(S'yeah'
p7008
g27
F0.9988
tp7009
asI709
(lp7010
(S'he'
p7011
g9
F0.9945
tp7012
a(S'comes'
p7013
g6
F0.9999
tp7014
a(S'over'
p7015
g407
F0.7466
tp7016
a(S'and'
p7017
g395
F0.9974
tp7018
a(S'says'
p7019
g6
F0.9971
tp7020
asI710
(lp7021
(S'oh'
p7022
g27
F0.9959
tp7023
a(S'they'
p7024
g9
F0.9962
tp7025
a(S'got'
p7026
g6
F0.9998
tp7027
a(S'to'
p7028
g12
F0.9561
tp7029
a(S'keep'
p7030
g6
F0.9995
tp7031
a(S'the'
p7032
g15
F0.9994
tp7033
a(S'water'
p7034
g18
F0.9959
tp7035
a(S'clean'
p7036
g92
F0.8893
tp7037
a(S'and'
p7038
g395
F0.9988
tp7039
a(S'whatever'
p7040
g27
F0.5912
tp7041
asI711
(lp7042
(S'and'
p7043
g395
F0.9991
tp7044
a(S'they'
p7045
g9
F0.9861
tp7046
a(S'they'
p7047
g9
F0.9745
tp7048
a(S'climbed'
p7049
g6
F0.9998
tp7050
a(S'over'
p7051
g407
F0.5174
tp7052
a(S'on'
p7053
g12
F0.978
tp7054
a(S'the'
p7055
g15
F0.9997
tp7056
a(S'other'
p7057
g92
F0.9855
tp7058
a(S'side'
p7059
g18
F0.988
tp7060
asI712
(lp7061
(S'and'
p7062
g395
F0.999
tp7063
a(g97
g9
F0.9898
tp7064
a(S'just'
p7065
g23
F0.9994
tp7066
a(S'told'
p7067
g6
F0.9987
tp7068
a(S'both'
p7069
g9
F0.5262
tp7070
a(S'of'
p7071
g12
F0.9913
tp7072
a(S'them'
p7073
g9
F0.905
tp7074
asI713
(lp7075
(S'don'
p7076
g328
F0.5427
tp7077
a(g55
g328
F0.5222
tp7078
a(S'go'
p7079
g6
F0.9911
tp7080
a(S'over'
p7081
g12
F0.7273
tp7082
a(S'there'
p7083
g23
F0.7142
tp7084
asI714
(lp7085
(S'yeah'
p7086
g27
F0.9988
tp7087
asI715
(lp7088
(S'right'
p7089
g27
F0.861
tp7090
asI716
(lp7091
(S'and'
p7092
g395
F0.9973
tp7093
a(S'and'
p7094
g395
F0.9991
tp7095
a(S'they'
p7096
g9
F0.9811
tp7097
a(S'weren'
p7098
g6
F0.9761
tp7099
a(g55
g18
F0.2203
tp7100
a(S'listening'
p7101
g6
F0.9942
tp7102
a(S'so'
p7103
g23
F0.531
tp7104
a(g97
g9
F0.9595
tp7105
a(g581
g6
F0.9776
tp7106
a(S'standing'
p7107
g6
F0.9988
tp7108
a(S'there'
p7109
g23
F0.7794
tp7110
a(S'making'
p7111
g6
F0.9957
tp7112
a(S'sure'
p7113
g92
F0.9011
tp7114
a(S'they'
p7115
g9
F0.9609
tp7116
a(S'don'
p7117
g6
F0.857
tp7118
a(g55
g6
F0.2352
tp7119
a(S'fall'
p7120
g6
F0.8555
tp7121
a(S'in'
p7122
g407
F0.5032
tp7123
a(S'on'
p7124
g12
F0.9899
tp7125
a(S'their'
p7126
g15
F0.8895
tp7127
a(S'faces'
p7128
g18
F0.8839
tp7129
asI717
(lp7130
(S'the'
p7131
g15
F0.9989
tp7132
a(S'guy'
p7133
g18
F0.9689
tp7134
a(S'comes'
p7135
g6
F0.9978
tp7136
a(S'over'
p7137
g407
F0.5943
tp7138
a(S'and'
p7139
g395
F0.9978
tp7140
a(S'starts'
p7141
g6
F0.9864
tp7142
a(S'yelling'
p7143
g6
F0.9874
tp7144
asI718
(lp7145
(S'get'
p7146
g6
F0.9983
tp7147
a(S'out'
p7148
g12
F0.6435
tp7149
a(S'of'
p7150
g12
F0.9803
tp7151
a(S'there'
p7152
g341
F0.4308
tp7153
asI719
(lp7154
(S'do'
p7155
g6
F0.9985
tp7156
a(S'you'
p7157
g9
F0.9997
tp7158
a(S'know'
p7159
g6
F0.9996
tp7160
a(S'they'
p7161
g9
F0.9936
tp7162
a(S'just'
p7163
g23
F0.9998
tp7164
a(S'threw'
p7165
g6
F0.9892
tp7166
a(S'two'
p7167
g3
F0.9677
tp7168
a(S'bricks'
p7169
g18
F0.971
tp7170
a(S'in'
p7171
g12
F0.9964
tp7172
a(S'that'
p7173
g15
F0.897
tp7174
a(S'water'
p7175
g18
F0.9926
tp7176
a(S'and'
p7177
g395
F0.9959
tp7178
a(S'you'
p7179
g9
F0.9992
tp7180
a(S'stood'
p7181
g6
F0.9981
tp7182
a(S'there'
p7183
g23
F0.9493
tp7184
a(S'and'
p7185
g395
F0.9971
tp7186
a(S'let'
p7187
g6
F0.9634
tp7188
a(S'th'
p7189
g6
F0.2751
tp7190
a(S'em'
p7191
g9
F0.9739
tp7192
a(S'mimicking'
p7193
g6
F0.9672
tp7194
a(S'the'
p7195
g15
F0.9996
tp7196
a(S'guard'
p7197
g18
F0.9915
tp7198
asI720
(lp7199
(g97
g9
F0.9756
tp7200
a(S'didn'
p7201
g6
F0.9919
tp7202
a(g55
g6
F0.7449
tp7203
a(S'know'
p7204
g6
F0.9856
tp7205
a(S'what'
p7206
g9
F0.993
tp7207
a(S'to'
p7208
g12
F0.9899
tp7209
a(S'say'
p7210
g6
F0.9944
tp7211
asI721
(lp7212
(S'do'
p7213
g6
F0.9985
tp7214
a(S'you'
p7215
g9
F0.9997
tp7216
a(S'know'
p7217
g6
F0.9997
tp7218
a(S'that'
p7219
g12
F0.8726
tp7220
a(S'this'
p7221
g9
F0.9739
tp7222
a(S'is'
p7223
g6
F0.9967
tp7224
a(S'federal'
p7225
g92
F0.9813
tp7226
a(S'property'
p7227
g18
F0.9993
tp7228
a(S'mimicking'
p7229
g6
F0.8761
tp7230
a(S'the'
p7231
g15
F0.9996
tp7232
a(S'guard'
p7233
g18
F0.9903
tp7234
asI722
(lp7235
(g97
g9
F0.9891
tp7236
a(S'went'
p7237
g6
F0.9979
tp7238
asI723
(lp7239
(S'um'
p7240
g27
F0.8861
tp7241
a(S'sis'
p7242
g18
F0.9557
tp7243
a(S'get'
p7244
g6
F0.9985
tp7245
a(g248
g15
F0.9978
tp7246
a(S'plate'
p7247
g18
F0.9978
tp7248
asI724
(lp7249
(S'there'
p7250
g341
F0.4664
tp7251
a(g68
g83
F0.4577
tp7252
a(S'potatoes'
p7253
g18
F0.981
tp7254
a(S'and'
p7255
g395
F0.9979
tp7256
a(S'vegetables'
p7257
g18
F0.9691
tp7258
a(S'over'
p7259
g12
F0.9796
tp7260
a(S'there'
p7261
g23
F0.8014
tp7262
a(S'too'
p7263
g23
F0.972
tp7264
asI725
(lp7265
(S'xxx'
p7266
g48
F0.7728
tp7267
a(g97
g9
F0.9828
tp7268
a(S'went'
p7269
g6
F0.9998
tp7270
a(S'no'
p7271
g15
F0.779
tp7272
a(S'sir'
p7273
g18
F0.9968
tp7274
a(g97
g9
F0.9646
tp7275
a(S'didn'
p7276
g6
F0.9913
tp7277
a(g55
g6
F0.7645
tp7278
a(S'meek'
p7279
g92
F0.9559
tp7280
a(S'voice'
p7281
g18
F0.9975
tp7282
asI726
(lp7283
(S'very'
p7284
g23
F0.9898
tp7285
a(S'quietly'
p7286
g23
F0.7553
tp7287
asI727
(lp7288
(S'oh'
p7289
g27
F0.9988
tp7290
asI728
(lp7291
(S'very'
p7292
g23
F0.9959
tp7293
a(S'politely'
p7294
g92
F0.6639
tp7295
asI729
(lp7296
(g97
g9
F0.953
tp7297
a(g581
g6
F0.9717
tp7298
a(S'just'
p7299
g23
F0.9989
tp7300
a(S'standing'
p7301
g6
F0.9997
tp7302
a(S'there'
p7303
g23
F0.8261
tp7304
asI730
(lp7305
(S'yeah'
p7306
g27
F0.9988
tp7307
asI731
(lp7308
(S'while'
p7309
g12
F0.9124
tp7310
a(S'this'
p7311
g15
F0.9489
tp7312
a(S'guy'
p7313
g18
F0.9789
tp7314
a(S'is'
p7315
g6
F0.9945
tp7316
a(S'screaming'
p7317
g6
F0.9793
tp7318
a(S'at'
p7319
g12
F0.9983
tp7320
a(S'me'
p7321
g9
F0.9979
tp7322
asI732
(lp7323
(S'what'
p7324
g9
F0.9931
tp7325
a(S'does'
p7326
g6
F0.9977
tp7327
a(S'he'
p7328
g9
F0.999
tp7329
a(S'want'
p7330
g6
F1.0
tp7331
a(S'me'
p7332
g9
F0.9984
tp7333
a(S'to'
p7334
g12
F0.9352
tp7335
a(S'do'
p7336
g6
F0.9993
tp7337
asI733
(lp7338
(g97
g9
F0.9912
tp7339
a(S'know'
p7340
g6
F0.9992
tp7341
a(S'really'
p7342
g23
F0.9952
tp7343
asI734
(lp7344
(S'dump'
p7345
g6
F0.9824
tp7346
a(S'them'
p7347
g9
F0.9741
tp7348
a(S'in'
p7349
g12
F0.9783
tp7350
a(S'the'
p7351
g15
F0.9981
tp7352
a(S'river'
p7353
g18
F0.7038
tp7354
asI735
(lp7355
(S'make'
p7356
g6
F0.9967
tp7357
a(S'him'
p7358
g9
F0.9248
tp7359
a(S'go'
p7360
g6
F0.9943
tp7361
a(S'in'
p7362
g12
F0.9428
tp7363
a(S'there'
p7364
g23
F0.8695
tp7365
a(S'and'
p7366
g395
F0.996
tp7367
a(S'get'
p7368
g6
F0.9998
tp7369
a(S'them'
p7370
g9
F0.9822
tp7371
a(S'or'
p7372
g395
F0.9877
tp7373
a(S'something'
p7374
g18
F0.9916
tp7375
asI736
(lp7376
(g97
g9
F0.9888
tp7377
a(S'wanted'
p7378
g6
F0.9987
tp7379
a(S'to'
p7380
g12
F0.9899
tp7381
a(S'make'
p7382
g6
F0.9998
tp7383
a(S'him'
p7384
g9
F0.9241
tp7385
a(S'go'
p7386
g6
F0.9936
tp7387
a(S'in'
p7388
g12
F0.9454
tp7389
a(S'there'
p7390
g23
F0.8695
tp7391
a(S'and'
p7392
g395
F0.9955
tp7393
a(S'get'
p7394
g6
F0.9999
tp7395
a(S'them'
p7396
g9
F0.9595
tp7397
asI737
(lp7398
(g97
g9
F0.9914
tp7399
a(S'was'
p7400
g6
F0.9997
tp7401
a(S'so'
p7402
g23
F0.9783
tp7403
a(S'embarrassed'
p7404
g92
F0.6765
tp7405
asI738
(lp7406
(S'and'
p7407
g395
F0.9973
tp7408
a(S'of'
p7409
g12
F0.9305
tp7410
a(S'course'
p7411
g18
F0.9917
tp7412
a(g97
g9
F0.935
tp7413
a(S'yelled'
p7414
g6
F0.9992
tp7415
a(S'at'
p7416
g12
F0.9987
tp7417
a(S'these'
p7418
g15
F0.9779
tp7419
a(S'two'
p7420
g3
F0.8709
tp7421
a(S'all'
p7422
g341
F0.6547
tp7423
a(S'the'
p7424
g15
F0.9998
tp7425
a(S'way'
p7426
g18
F0.9635
tp7427
a(S'home'
p7428
g18
F0.7717
tp7429
asI739
(lp7430
(S'yeah'
p7431
g27
F0.9988
tp7432
asI740
(lp7433
(S'can'
p7434
g6
F0.9935
tp7435
a(S'um'
p7436
g27
F0.5115
tp7437
a(S'cousin'
p7438
g18
F0.9674
tp7439
a(S'come'
p7440
g6
F0.9954
tp7441
a(S'to'
p7442
g12
F0.9824
tp7443
a(S'church'
p7444
g18
F0.556
tp7445
a(S'with'
p7446
g12
F0.9998
tp7447
a(S'me'
p7448
g9
F0.9995
tp7449
a(S'tonight'
p7450
g23
F0.9664
tp7451
asI741
(lp7452
(S'oh'
p7453
g27
F0.9975
tp7454
a(S'yeah'
p7455
g27
F0.9996
tp7456
a(S'that'
p7457
g9
F0.7057
tp7458
a(g68
g83
F0.4502
tp7459
a(S'right'
p7460
g23
F0.3963
tp7461
a(g97
g9
F0.9501
tp7462
asI742
(lp7463
(S'oh'
p7464
g27
F0.9971
tp7465
a(g97
g9
F0.985
tp7466
a(S'didn'
p7467
g6
F0.9915
tp7468
a(g55
g6
F0.7488
tp7469
a(S'know'
p7470
g6
F0.9981
tp7471
a(S'you'
p7472
g9
F0.9995
tp7473
a(S'had'
p7474
g6
F0.997
tp7475
a(S'church'
p7476
g18
F0.951
tp7477
a(S'tonight'
p7478
g18
F0.5294
tp7479
asI743
(lp7480
(S'yeah'
p7481
g27
F0.9968
tp7482
a(S'sandy'
p7483
g328
F0.9734
tp7484
a(S'called'
p7485
g6
F0.9843
tp7486
asI744
(lp7487
(S'she'
p7488
g9
F0.9972
tp7489
a(S'wants'
p7490
g6
F0.9998
tp7491
a(S'to'
p7492
g12
F0.9674
tp7493
a(S'go'
p7494
g6
F0.9987
tp7495
a(S'to'
p7496
g12
F0.966
tp7497
a(S'church'
p7498
g18
F0.6949
tp7499
asI745
(lp7500
(S'the'
p7501
g15
F0.9988
tp7502
a(S'banners'
p7503
g18
F0.9971
tp7504
a(S'that'
p7505
g12
F0.9716
tp7506
a(S'we'
p7507
g9
F0.9995
tp7508
a(S'did'
p7509
g6
F0.9993
tp7510
asI746
(lp7511
(S'remember'
p7512
g6
F0.9805
tp7513
a(S'on'
p7514
g12
F0.9337
tp7515
a(S'saturday'
p7516
g328
F0.9408
tp7517
asI747
(lp7518
(g2
g3
F0.9133
tp7519
a(g248
g15
F0.9763
tp7520
a(S'cockroach'
p7521
g18
F0.9841
tp7522
asI748
(lp7523
(S'we'
p7524
g9
F0.9947
tp7525
a(S'are'
p7526
g6
F0.9995
tp7527
a(S'presenting'
p7528
g6
F0.9528
tp7529
asI749
(lp7530
(S'uh'
p7531
g27
F0.9922
tp7532
a(S'yeah'
p7533
g27
F0.9992
tp7534
asI750
(lp7535
(S'one'
p7536
g3
F0.9869
tp7537
a(S'of'
p7538
g12
F0.9983
tp7539
a(S'them'
p7540
g9
F0.9848
tp7541
a(S'tonight'
p7542
g23
F0.8242
tp7543
asI751
(lp7544
(S'oh'
p7545
g27
F0.9975
tp7546
a(S'yeah'
p7547
g27
F0.9995
tp7548
a(g97
g9
F0.9961
tp7549
a(S'remember'
p7550
g6
F0.9998
tp7551
a(S'that'
p7552
g9
F0.7772
tp7553
asI752
(lp7554
(S'fridge'
p7555
g18
F0.7115
tp7556
asI753
(lp7557
(S'so'
p7558
g12
F0.6212
tp7559
a(S'where'
p7560
g23
F0.914
tp7561
a(S'did'
p7562
g6
F0.9989
tp7563
a(S'you'
p7564
g9
F0.9606
tp7565
a(S'guys'
p7566
g18
F0.9153
tp7567
a(S'go'
p7568
g6
F0.994
tp7569
asI754
(lp7570
(S'hips'
p7571
g18
F0.9208
tp7572
asI755
(lp7573
(S'was'
p7574
g6
F0.9989
tp7575
a(S'it'
p7576
g9
F0.9775
tp7577
a(S'any'
p7578
g15
F0.913
tp7579
a(S'good'
p7580
g92
F0.9879
tp7581
asI756
(lp7582
(S'um'
p7583
g27
F0.9786
tp7584
a(S'yeah'
p7585
g27
F0.9985
tp7586
asI757
(lp7587
(S'yeah'
p7588
g27
F0.9963
tp7589
a(S'we'
p7590
g9
F0.9986
tp7591
a(S'got'
p7592
g6
F0.9997
tp7593
a(S'everyone'
p7594
g18
F0.9683
tp7595
a(g248
g15
F0.9925
tp7596
a(S'prize'
p7597
g18
F0.9951
tp7598
asI758
(lp7599
(S'oh'
p7600
g27
F0.9988
tp7601
asI759
(lp7602
(S'this'
p7603
g9
F0.9526
tp7604
a(S'is'
p7605
g6
F0.9944
tp7606
a(S'sis'
p7607
g18
F0.9119
tp7608
a(g68
g83
F0.7626
tp7609
a(S'right'
p7610
g27
F0.4936
tp7611
asI760
(lp7612
(g97
g9
F0.9892
tp7613
a(S'got'
p7614
g6
F0.9988
tp7615
a(S'one'
p7616
g3
F0.8464
tp7617
a(S'too'
p7618
g23
F0.5742
tp7619
a(S'it'
p7620
g9
F0.9992
tp7621
a(S'is'
p7622
g6
F0.9993
tp7623
a(S'so'
p7624
g23
F0.8674
tp7625
a(S'pretty'
p7626
g23
F0.882
tp7627
asI761
(lp7628
(g134
g3
F0.6765
tp7629
a(S'xxx'
p7630
g48
F0.6773
tp7631
asI762
(lp7632
(g2
g3
F0.9758
tp7633
a(S'that'
p7634
g12
F0.5468
tp7635
a(S'is'
p7636
g6
F0.9969
tp7637
a(S'cool'
p7638
g92
F0.9854
tp7639
asI763
(lp7640
(S'this'
p7641
g9
F0.9521
tp7642
a(S'is'
p7643
g6
F0.9995
tp7644
a(S'yours'
p7645
g9
F0.9788
tp7646
asI764
(lp7647
(S'what'
p7648
g9
F0.9965
tp7649
a(S'did'
p7650
g6
F0.9847
tp7651
a(S'chi'
p7652
g328
F0.496
tp7653
a(S'get'
p7654
g6
F0.9713
tp7655
a(S'xxx'
p7656
g48
F0.7221
tp7657
asI765
(lp7658
(S'you'
p7659
g9
F0.9969
tp7660
a(S'got'
p7661
g6
F0.9997
tp7662
a(g248
g15
F0.9726
tp7663
asI766
(lp7664
(S'that'
p7665
g9
F0.473
tp7666
a(g68
g6
F0.391
tp7667
a(S'cool'
p7668
g92
F0.9709
tp7669
a(S'bro'
p7670
g18
F0.9938
tp7671
asI767
(lp7672
(S'we'
p7673
g9
F0.9953
tp7674
a(S'were'
p7675
g6
F0.9973
tp7676
a(S'xxx'
p7677
g48
F0.4089
tp7678
a(S'we'
p7679
g9
F0.9931
tp7680
a(S'were'
p7681
g6
F0.9988
tp7682
a(S'using'
p7683
g6
F0.9974
tp7684
a(S'it'
p7685
g9
F0.9931
tp7686
asI768
(lp7687
(S'magnet'
p7688
g18
F0.9583
tp7689
a(S'there'
p7690
g23
F0.666
tp7691
asI769
(lp7692
(S'come'
p7693
g6
F0.9843
tp7694
a(S'here'
p7695
g23
F0.9799
tp7696
a(S'xxx'
p7697
g48
F0.7719
tp7698
asI770
(lp7699
(g97
g9
F0.9756
tp7700
a(S'wasn'
p7701
g6
F0.9748
tp7702
a(g55
g83
F0.3108
tp7703
a(S'even'
p7704
g23
F0.9963
tp7705
a(S'looking'
p7706
g6
F0.9903
tp7707
a(S'at'
p7708
g12
F0.9993
tp7709
a(S'the'
p7710
g15
F0.9994
tp7711
a(S'refrigerator'
p7712
g18
F0.9971
tp7713
a(S'laughing'
p7714
g6
F0.9698
tp7715
asI771
(lp7716
(S'oh'
p7717
g27
F0.9886
tp7718
a(S'see'
p7719
g6
F0.9799
tp7720
a(S'the'
p7721
g15
F0.9998
tp7722
a(S'little'
p7723
g92
F0.9906
tp7724
a(S'magnet'
p7725
g18
F0.9964
tp7726
a(S'on'
p7727
g12
F0.9972
tp7728
a(S'that'
p7729
g9
F0.7747
tp7730
asI772
(lp7731
(S'can'
p7732
g6
F0.999
tp7733
a(S'you'
p7734
g9
F0.9987
tp7735
a(S'help'
p7736
g6
F0.9997
tp7737
a(S'us'
p7738
g9
F0.979
tp7739
asI773
(lp7740
(S'oh'
p7741
g27
F0.9988
tp7742
asI774
(lp7743
(g2
g3
F0.9426
tp7744
a(S'can'
p7745
g6
F0.9413
tp7746
a(g97
g9
F0.9765
tp7747
a(S'see'
p7748
g6
F0.9987
tp7749
a(S'what'
p7750
g9
F0.9012
tp7751
a(S'you'
p7752
g9
F0.9996
tp7753
a(S'got'
p7754
g6
F0.9971
tp7755
asI775
(lp7756
(g2
g3
F0.9671
tp7757
a(S'th'
p7758
g18
F0.4726
tp7759
a(S'that'
p7760
g12
F0.7142
tp7761
a(g68
g83
F0.5514
tp7762
a(S'wise'
p7763
g92
F0.9861
tp7764
asI776
(lp7765
(g97
g9
F0.9892
tp7766
a(S'got'
p7767
g6
F0.9998
tp7768
a(S'the'
p7769
g15
F0.9996
tp7770
a(S'same'
p7771
g92
F0.996
tp7772
a(S'thing'
p7773
g18
F0.998
tp7774
asI777
(lp7775
(S'me'
p7776
g9
F0.9974
tp7777
a(S'and'
p7778
g395
F0.9891
tp7779
a(S'chi'
p7780
g328
F0.6679
tp7781
a(S'got'
p7782
g6
F0.9959
tp7783
a(S'the'
p7784
g15
F0.9997
tp7785
a(S'same'
p7786
g92
F0.996
tp7787
a(S'thing'
p7788
g18
F0.9982
tp7789
asI778
(lp7790
(S'only'
p7791
g23
F0.8662
tp7792
a(S'her'
p7793
g9
F0.6703
tp7794
a(g68
g83
F0.5207
tp7795
a(S'is'
p7796
g6
F0.9894
tp7797
a(S'different'
p7798
g92
F0.9979
tp7799
a(S'colors'
p7800
g18
F0.998
tp7801
asI779
(lp7802
(S'oh'
p7803
g27
F0.9966
tp7804
a(S'whose'
p7805
g9
F0.4892
tp7806
a(S'is'
p7807
g6
F0.9997
tp7808
a(S'this'
p7809
g15
F0.9407
tp7810
a(S'one'
p7811
g3
F0.7693
tp7812
asI780
(lp7813
(g2
g3
F0.9582
tp7814
a(S'bro'
p7815
g18
F0.9934
tp7816
a(S'did'
p7817
g6
F0.9991
tp7818
a(S'you'
p7819
g9
F0.9984
tp7820
a(S'go'
p7821
g6
F0.9991
tp7822
a(S'like'
p7823
g12
F0.9494
tp7824
a(S'this'
p7825
g9
F0.8515
tp7826
asI781
(lp7827
(g134
g3
F0.472
tp7828
a(S'chi'
p7829
g328
F0.2877
tp7830
a(S'catch'
p7831
g6
F0.8804
tp7832
asI782
(lp7833
(S'chi'
p7834
g328
F0.5532
tp7835
a(g68
g83
F0.4537
tp7836
a(S'trombone'
p7837
g18
F0.434
tp7838
asI783
(lp7839
(S'whose'
p7840
g9
F0.5129
tp7841
a(S'is'
p7842
g6
F0.9996
tp7843
a(S'this'
p7844
g15
F0.9171
tp7845
a(S'one'
p7846
g3
F0.7394
tp7847
asI784
(lp7848
(S'chi'
p7849
g328
F0.5532
tp7850
a(g68
g83
F0.7002
tp7851
asI785
(lp7852
(S'mine'
p7853
g9
F0.9756
tp7854
a(S'has'
p7855
g6
F0.9959
tp7856
a(S'got'
p7857
g6
F0.9973
tp7858
a(S'the'
p7859
g15
F0.9991
tp7860
a(S'yellow'
p7861
g92
F0.585
tp7862
a(S'in'
p7863
g12
F0.997
tp7864
a(S'it'
p7865
g9
F0.9949
tp7866
asI786
(lp7867
(S'this'
p7868
g9
F0.9526
tp7869
a(S'is'
p7870
g6
F0.9916
tp7871
a(S'chi'
p7872
g328
F0.5723
tp7873
a(g68
g83
F0.7352
tp7874
asI787
(lp7875
(S'she'
p7876
g9
F0.9954
tp7877
a(S'already'
p7878
g23
F0.9975
tp7879
a(S'took'
p7880
g6
F0.9998
tp7881
a(S'her'
p7882
g15
F0.9722
tp7883
a(S'thing'
p7884
g18
F0.9978
tp7885
a(S'out'
p7886
g12
F0.7847
tp7887
asI788
(lp7888
(g134
g12
F0.6791
tp7889
a(S'no'
p7890
g27
F0.736
tp7891
a(S'she'
p7892
g9
F0.9935
tp7893
a(S'has'
p7894
g6
F0.9996
tp7895
a(S'the'
p7896
g15
F0.9991
tp7897
a(S'purples'
p7898
g18
F0.8496
tp7899
asI789
(lp7900
(S'mine'
p7901
g9
F0.9723
tp7902
a(S'is'
p7903
g6
F0.9991
tp7904
a(S'the'
p7905
g15
F0.9926
tp7906
a(S'mostly'
p7907
g23
F0.9392
tp7908
a(S'purple'
p7909
g92
F0.9779
tp7910
asI790
(lp7911
(g134
g12
F0.7316
tp7912
a(S'see'
p7913
g6
F0.9705
tp7914
a(g97
g9
F0.9781
tp7915
a(S'got'
p7916
g6
F0.9998
tp7917
a(S'this'
p7918
g15
F0.9277
tp7919
a(S'auntie'
p7920
g18
F0.9406
tp7921
asI791
(lp7922
(g134
g3
F0.7329
tp7923
a(S'color'
p7924
g18
F0.9683
tp7925
a(S'pop'
p7926
g18
F0.9025
tp7927
asI792
(lp7928
(S'um'
p7929
g27
F0.9
tp7930
a(S'chi'
p7931
g328
F0.2828
tp7932
a(S'you'
p7933
g9
F0.987
tp7934
a(S'all'
p7935
g15
F0.9137
tp7936
a(S'done'
p7937
g6
F0.7212
tp7938
asI793
(lp7939
(g134
g3
F0.6765
tp7940
a(S'xxx'
p7941
g48
F0.6773
tp7942
asI794
(lp7943
(S'are'
p7944
g6
F0.9964
tp7945
a(S'you'
p7946
g9
F0.996
tp7947
a(S'all'
p7948
g15
F0.9278
tp7949
a(S'done'
p7950
g6
F0.4507
tp7951
asI795
(lp7952
(S'did'
p7953
g6
F0.984
tp7954
a(S'nancy'
p7955
g328
F0.9677
tp7956
a(S'call'
p7957
g18
F0.4881
tp7958
a(S'or'
p7959
g395
F0.9869
tp7960
a(S'anything'
p7961
g18
F0.9924
tp7962
asI796
(lp7963
(S'yeah'
p7964
g27
F0.9978
tp7965
a(S'she'
p7966
g9
F0.9989
tp7967
a(S'called'
p7968
g6
F0.9992
tp7969
asI797
(lp7970
(S'she'
p7971
g9
F0.9972
tp7972
a(S'wants'
p7973
g6
F1.0
tp7974
a(S'you'
p7975
g9
F0.9989
tp7976
a(S'to'
p7977
g12
F0.9874
tp7978
a(S'give'
p7979
g6
F0.9999
tp7980
a(S'her'
p7981
g9
F0.6663
tp7982
a(S'xxx'
p7983
g48
F0.6986
tp7984
asI798
(lp7985
(S'mommy'
p7986
g18
F0.7607
tp7987
a(g97
g9
F0.8539
tp7988
a(S'don'
p7989
g6
F0.9187
tp7990
a(g55
g18
F0.2208
tp7991
a(S'know'
p7992
g6
F0.9899
tp7993
a(S'where'
p7994
g23
F0.9644
tp7995
a(S'mine'
p7996
g9
F0.9846
tp7997
a(S'is'
p7998
g6
F0.997
tp7999
asI799
(lp8000
(S'xxx'
p8001
g48
F0.8437
tp8002
asI800
(lp8003
(S'it'
p8004
g9
F0.9888
tp8005
a(g68
g6
F0.6797
tp8006
a(S'right'
p8007
g23
F0.8196
tp8008
a(S'here'
p8009
g23
F0.9752
tp8010
asI801
(lp8011
(S'it'
p8012
g9
F0.9888
tp8013
a(g68
g6
F0.7475
tp8014
a(S'on'
p8015
g12
F0.9637
tp8016
a(S'the'
p8017
g15
F0.9993
tp8018
a(S'table'
p8019
g18
F0.9922
tp8020
asI802
(lp8021
(g97
g9
F0.9835
tp8022
a(S'already'
p8023
g23
F0.9935
tp8024
a(S'showed'
p8025
g6
F0.9998
tp8026
a(S'it'
p8027
g9
F0.9916
tp8028
a(S'to'
p8029
g12
F0.9848
tp8030
a(S'her'
p8031
g9
F0.7808
tp8032
asI803
(lp8033
(S'so'
p8034
g12
F0.7418
tp8035
a(S'what'
p8036
g9
F0.9989
tp8037
a(S'did'
p8038
g6
F0.9993
tp8039
a(S'you'
p8040
g9
F0.9993
tp8041
a(S'think'
p8042
g6
F0.9973
tp8043
a(S'of'
p8044
g12
F0.9961
tp8045
a(S'the'
p8046
g15
F0.9993
tp8047
a(S'place'
p8048
g18
F0.9953
tp8049
asI804
(lp8050
(S'what'
p8051
g9
F0.9658
tp8052
a(S'it'
p8053
g9
F0.9964
tp8054
a(g68
g83
F0.4514
tp8055
a(S'pretty'
p8056
g23
F0.9555
tp8057
a(S'good'
p8058
g92
F0.9987
tp8059
asI805
(lp8060
(S'call'
p8061
g6
F0.523
tp8062
a(S'again'
p8063
g23
F0.9661
tp8064
asI806
(lp8065
(S'you'
p8066
g9
F0.998
tp8067
a(S'got'
p8068
g6
F0.9998
tp8069
a(S'my'
p8070
g15
F0.8987
tp8071
a(S'xxx'
p8072
g18
F0.5827
tp8073
asI807
(lp8074
(S'you'
p8075
g9
F0.998
tp8076
a(S'got'
p8077
g6
F0.9996
tp8078
a(S'this'
p8079
g9
F0.6797
tp8080
a(S'xxx'
p8081
g48
F0.7467
tp8082
asI808
(lp8083
(S'the'
p8084
g15
F0.999
tp8085
a(S'boys'
p8086
g18
F0.9993
tp8087
a(S'hit'
p8088
g6
F0.9961
tp8089
a(S'the'
p8090
g15
F0.9995
tp8091
a(S'section'
p8092
g18
F0.9991
tp8093
a(S'they'
p8094
g9
F0.9107
tp8095
a(S'weren'
p8096
g6
F0.9756
tp8097
a(g55
g6
F0.2157
tp8098
a(S'supposed'
p8099
g92
F0.8059
tp8100
a(S'to'
p8101
g12
F0.9971
tp8102
a(S'go'
p8103
g6
F0.9989
tp8104
a(S'in'
p8105
g12
F0.8382
tp8106
asI809
(lp8107
(S'ah'
p8108
g27
F0.996
tp8109
asI810
(lp8110
(S'why'
p8111
g23
F0.8527
tp8112
asI811
(lp8113
(S'yeah'
p8114
g27
F0.9947
tp8115
a(S'the'
p8116
g15
F0.9978
tp8117
a(S'kids'
p8118
g18
F0.9798
tp8119
a(S'did'
p8120
g6
F0.9992
tp8121
a(S'that'
p8122
g9
F0.7525
tp8123
a(S'once'
p8124
g23
F0.9834
tp8125
a(S'when'
p8126
g23
F0.9956
tp8127
a(g97
g9
F0.9938
tp8128
a(S'was'
p8129
g6
F1.0
tp8130
a(S'up'
p8131
g407
F0.7419
tp8132
a(S'there'
p8133
g23
F0.6943
tp8134
asI812
(lp8135
(S'one'
p8136
g3
F0.9261
tp8137
a(g68
g83
F0.617
tp8138
a(S'adult'
p8139
g18
F0.4999
tp8140
a(S'section'
p8141
g18
F0.9993
tp8142
a(S'only'
p8143
g23
F0.9193
tp8144
asI813
(lp8145
(S'and'
p8146
g395
F0.9991
tp8147
a(S'they'
p8148
g9
F0.9912
tp8149
a(S'come'
p8150
g6
F0.9999
tp8151
a(S'over'
p8152
g23
F0.4558
tp8153
a(S'and'
p8154
g395
F0.9974
tp8155
a(S'said'
p8156
g6
F0.9943
tp8157
a(S'excuse'
p8158
g6
F0.9447
tp8159
a(S'me'
p8160
g9
F0.999
tp8161
asI814
(lp8162
(S'they'
p8163
g9
F0.9104
tp8164
a(S're'
p8165
g6
F0.6782
tp8166
a(S'under'
p8167
g12
F0.9364
tp8168
a(S'eighteen'
p8169
g3
F0.4219
tp8170
asI815
(lp8171
(g97
g9
F0.9912
tp8172
a(S'know'
p8173
g6
F0.9989
tp8174
asI816
(lp8175
(S'that'
p8176
g9
F0.473
tp8177
a(g68
g83
F0.4404
tp8178
a(S'what'
p8179
g9
F0.9606
tp8180
a(S'they'
p8181
g9
F0.9979
tp8182
a(S'did'
p8183
g6
F0.9998
tp8184
a(S'to'
p8185
g12
F0.9804
tp8186
a(S'xxx'
p8187
g48
F0.5828
tp8188
asI817
(lp8189
(S'yeah'
p8190
g27
F0.9988
tp8191
asI818
(lp8192
(g97
g9
F0.9756
tp8193
a(S'didn'
p8194
g6
F0.9919
tp8195
a(g55
g6
F0.7417
tp8196
a(S'even'
p8197
g23
F0.9958
tp8198
a(S'know'
p8199
g6
F0.9949
tp8200
a(S'what'
p8201
g9
F0.9864
tp8202
a(S'it'
p8203
g9
F0.9984
tp8204
a(S'was'
p8205
g6
F0.9983
tp8206
asI819
(lp8207
(S'why'
p8208
g23
F0.8944
tp8209
a(S'why'
p8210
g23
F0.9319
tp8211
a(S'don'
p8212
g18
F0.278
tp8213
a(g55
g6
F0.5356
tp8214
a(S'you'
p8215
g9
F0.9992
tp8216
a(S'get'
p8217
g6
F0.9999
tp8218
a(S'some'
p8219
g15
F0.9885
tp8220
a(S'vegetables'
p8221
g18
F0.9951
tp8222
asI820
(lp8223
(g2
g3
F0.9651
tp8224
a(g97
g9
F0.911
tp8225
a(S'xxx'
p8226
g6
F0.8851
tp8227
a(S'that'
p8228
g9
F0.7645
tp8229
asI821
(lp8230
(S'can'
p8231
g6
F0.9755
tp8232
a(g97
g9
F0.9789
tp8233
a(S'eat'
p8234
g6
F0.9991
tp8235
a(S'from'
p8236
g12
F0.9993
tp8237
a(S'the'
p8238
g15
F0.9989
tp8239
a(S'freezer'
p8240
g18
F0.9641
tp8241
asI822
(lp8242
(S'huh'
p8243
g27
F0.993
tp8244
asI823
(lp8245
(S'no'
p8246
g27
F0.9075
tp8247
a(S'the'
p8248
g15
F0.9721
tp8249
a(S'can'
p8250
g6
F0.4595
tp8251
asI824
(lp8252
(S'you'
p8253
g9
F0.998
tp8254
a(S'got'
p8255
g6
F0.9996
tp8256
a(S'to'
p8257
g12
F0.9333
tp8258
a(S'eat'
p8259
g6
F0.9815
tp8260
a(S'xxx'
p8261
g48
F0.7619
tp8262
as.