(dp0
I0
(lp1
(S'certainly'
p2
S'R'
p3
F0.9916
tp4
asI1
(lp5
(S'there'
p6
g3
F0.5244
tp7
a(S'you'
p8
S'O'
p9
F0.9982
tp10
a(S'go'
p11
S'V'
p12
F0.9953
tp13
asI2
(lp14
(S'xxx'
p15
S'E'
p16
F0.8437
tp17
asI3
(lp18
(S'oh'
p19
S'!'
p20
F0.9988
tp21
asI4
(lp22
(S'what'
p23
g9
F0.9739
tp24
a(S's'
p25
g12
F0.7392
tp26
a(S'up'
p27
S'T'
p28
F0.9783
tp29
asI5
(lp30
(S'i'
p31
g9
F0.9836
tp32
a(S'must'
p33
g12
F0.9991
tp34
a(S'have'
p35
g12
F0.9987
tp36
a(S'xxx'
p37
g16
F0.7307
tp38
asI6
(lp39
(g31
g9
F0.953
tp40
a(S'm'
p41
g12
F0.9717
tp42
a(S'just'
p43
g3
F0.9995
tp44
a(S'pretending'
p45
g12
F0.9993
tp46
a(S'to'
p47
S'P'
p48
F0.98
tp49
a(S'do'
p50
g12
F0.9999
tp51
a(S'a'
p52
S'D'
p53
F0.998
tp54
a(S'park'
p55
S'N'
p56
F0.9507
tp57
asI7
(lp58
(S'um'
p59
g20
F0.8676
tp60
a(S'kind'
p61
g56
F0.8264
tp62
a(S'of'
p63
g48
F0.9973
tp64
a(S'spreads'
p65
g12
F0.9155
tp66
a(S'the'
p67
g53
F0.9996
tp68
a(S'light'
p69
g56
F0.9892
tp70
a(S'out'
p71
g48
F0.9071
tp72
a(g52
g53
F0.9976
tp73
a(S'little'
p74
S'A'
p75
F0.9958
tp76
a(S'bit'
p77
g56
F0.8703
tp78
asI8
(lp79
(S'hm'
p80
g20
F0.995
tp81
asI9
(lp82
(S'what'
p83
g9
F0.9931
tp84
a(S'have'
p85
g12
F0.9995
tp86
a(S'you'
p87
g9
F0.9993
tp88
a(S'got'
p89
g12
F0.9996
tp90
a(S'to'
p91
g48
F0.918
tp92
a(S'drink'
p93
g12
F0.9882
tp94
a(S'there'
p95
g3
F0.7455
tp96
asI10
(lp97
(S'lemonade'
p98
g56
F0.9436
tp99
asI11
(lp100
(S'hm'
p101
g20
F0.995
tp102
asI12
(lp103
(S'in'
p104
g48
F0.9914
tp105
a(S'the'
p106
g53
F0.9989
tp107
a(S'cup'
p108
g56
F0.9919
tp109
asI13
(lp110
(S'it'
p111
g9
F0.9888
tp112
a(g25
g12
F0.4799
tp113
a(S'koolaid'
p114
S'^'
p115
F0.7543
tp116
a(S'd'
p117
g115
F0.6023
tp118
a(S'season'
p119
g56
F0.9425
tp120
a(S'again'
p121
g3
F0.9743
tp122
asI14
(lp123
(S'koolaid'
p124
g115
F0.8813
tp125
a(g117
g115
F0.4422
tp126
a(S'koolaid'
p127
g115
F0.9848
tp128
a(g117
g115
F0.6165
tp129
a(S'tastes'
p130
g12
F0.966
tp131
a(S'great'
p132
g75
F0.9973
tp133
a(S'koolaid'
p134
g56
F0.6553
tp135
a(g117
g56
F0.3973
tp136
a(S'koolaid'
p137
g56
F0.5934
tp138
a(g117
g56
F0.5776
tp139
a(S'can'
p140
g12
F0.9954
tp141
a(S't'
p142
g12
F0.9126
tp143
a(S'wait'
p144
g12
F0.9844
tp145
a(S'singing'
p146
g12
F0.997
tp147
asI15
(lp148
(S'koolaid'
p149
g115
F0.8813
tp150
a(g117
g115
F0.4422
tp151
a(S'koolaid'
p152
g115
F0.9848
tp153
a(g117
g115
F0.6165
tp154
a(S'tastes'
p155
g12
F0.966
tp156
a(S'great'
p157
g75
F0.9973
tp158
a(S'koolaid'
p159
g56
F0.6553
tp160
a(g117
g56
F0.3973
tp161
a(S'koolaid'
p162
g56
F0.5934
tp163
a(g117
g56
F0.5776
tp164
a(S'can'
p165
g12
F0.9954
tp166
a(g142
g12
F0.9126
tp167
a(S'wait'
p168
g12
F0.9844
tp169
a(S'singing'
p170
g12
F0.997
tp171
asI16
(lp172
(S'that'
p173
g9
F0.473
tp174
a(g25
g12
F0.6338
tp175
a(S'an'
p176
g53
F0.9938
tp177
a(S'old'
p178
g75
F0.9952
tp179
a(S'koolaid'
p180
g115
F0.6579
tp181
a(g117
g115
F0.4847
tp182
a(S'commercial'
p183
g56
F0.7755
tp184
asI17
(lp185
(S'what'
p186
g9
F0.949
tp187
asI18
(lp188
(S'that'
p189
g9
F0.6965
tp190
a(S'used'
p191
g12
F0.9679
tp192
a(S'to'
p193
g48
F0.9783
tp194
a(S'be'
p195
g12
F0.9998
tp196
a(S'an'
p197
g53
F0.9854
tp198
a(S'old'
p199
g75
F0.9944
tp200
a(S'koolaid'
p201
g115
F0.6162
tp202
a(g117
g115
F0.4098
tp203
a(S'commercial'
p204
g56
F0.8571
tp205
asI19
(lp206
(g31
g9
F0.9635
tp207
a(S'don'
p208
g12
F0.9231
tp209
a(g142
g56
F0.2457
tp210
a(S'know'
p211
g12
F0.997
tp212
a(S'if'
p213
g48
F0.9981
tp214
a(S'you'
p215
g9
F0.999
tp216
a(S've'
p217
g12
F0.797
tp218
a(S'seen'
p219
g12
F0.999
tp220
a(S'it'
p221
g9
F0.9937
tp222
a(S'even'
p223
g3
F0.9982
tp224
a(S'once'
p225
g3
F0.8388
tp226
asI20
(lp227
(S'cut'
p228
g12
F0.8842
tp229
a(S'it'
p230
g9
F0.992
tp231
a(S'up'
p232
g28
F0.9873
tp233
a(S'so'
p234
g48
F0.8624
tp235
a(S'it'
p236
g9
F0.9983
tp237
a(S'cools'
p238
g12
F0.9954
tp239
a(S'be'
p240
g12
F0.9685
tp241
a(S'cause'
p242
g48
F0.6879
tp243
asI21
(lp244
(S'koolaid'
p245
g115
F0.8813
tp246
a(g117
g115
F0.4422
tp247
a(S'koolaid'
p248
g115
F0.9848
tp249
a(g117
g115
F0.5545
tp250
a(S'tastes'
p251
g12
F0.9753
tp252
a(S'great'
p253
g75
F0.9934
tp254
asI22
(lp255
(S'it'
p256
g9
F0.9888
tp257
a(g25
g12
F0.5145
tp258
a(S'steamy'
p259
g75
F0.7848
tp260
a(S'right'
p261
g3
F0.5714
tp262
a(S'in'
p263
g48
F0.9977
tp264
a(S'the'
p265
g53
F0.999
tp266
a(S'middle'
p267
g56
F0.8133
tp268
asI23
(lp269
(S'so'
p270
g48
F0.7651
tp271
a(S'don'
p272
S'G'
p273
F0.381
tp274
a(g142
g273
F0.5451
tp275
a(S'eat'
p276
g12
F0.995
tp277
a(S'it'
p278
g9
F0.9949
tp279
a(S'out'
p280
g48
F0.7416
tp281
a(S'of'
p282
g48
F0.9984
tp283
a(S'the'
p284
g53
F0.9992
tp285
a(S'middle'
p286
g56
F0.8686
tp287
a(S'xxx'
p288
g16
F0.5892
tp289
a(S'okay'
p290
g20
F0.8382
tp291
asI24
(lp292
(S'let'
p293
g12
F0.9967
tp294
a(S'it'
p295
g9
F0.9871
tp296
a(S'cool'
p297
g75
F0.684
tp298
a(g52
g53
F0.9898
tp299
a(S'little'
p300
g75
F0.9958
tp301
a(S'bit'
p302
g56
F0.9218
tp303
asI25
(lp304
(S'xxx'
p305
g16
F0.8437
tp306
asI26
(lp307
(S'what'
p308
g9
F0.8478
tp309
a(S'momma'
p310
g56
F0.8871
tp311
a(g25
g273
F0.5945
tp312
a(S'doing'
p313
g12
F0.9853
tp314
a(S'is'
p315
g12
F0.9979
tp316
a(g52
g53
F0.9958
tp317
a(S'cooling'
p318
g56
F0.9371
tp319
a(S'aid'
p320
g56
F0.9199
tp321
a(S'play'
p322
g12
F0.9528
tp323
a(S'on'
p324
g48
F0.9513
tp325
a(S'word'
p326
g56
F0.8432
tp327
a(S'koolaid'
p328
g56
F0.6228
tp329
a(g117
g273
F0.4592
tp330
asI27
(lp331
(S'okay'
p332
g20
F0.9429
tp333
a(S'wait'
p334
g12
F0.886
tp335
asI28
(lp336
(S'see'
p337
g12
F0.9841
tp338
a(S'all'
p339
g53
F0.6657
tp340
a(S'the'
p341
g53
F0.9992
tp342
a(S'steam'
p343
g56
F0.9945
tp344
asI29
(lp345
(S'just'
p346
g3
F0.9991
tp347
a(S'wait'
p348
g12
F0.9961
tp349
a(S'one'
p350
S'$'
p351
F0.9649
tp352
a(S'minute'
p353
g56
F0.8885
tp354
a(S'and'
p355
S'&'
p356
F0.9966
tp357
a(S'let'
p358
g12
F0.9973
tp359
a(S'the'
p360
g53
F0.9991
tp361
a(S'steam'
p362
g56
F0.9944
tp363
a(S'come'
p364
g12
F0.989
tp365
a(S'out'
p366
g48
F0.8016
tp367
a(S'of'
p368
g48
F0.9968
tp369
a(S'it'
p370
g9
F0.9959
tp371
asI30
(lp372
(S'has'
p373
g12
F0.9984
tp374
a(S'it'
p375
g9
F0.9975
tp376
a(S'been'
p377
g12
F0.999
tp378
a(g52
g53
F0.9952
tp379
a(S'minute'
p380
g56
F0.9559
tp381
a(S'yet'
p382
g3
F0.9226
tp383
asI31
(lp384
(S'laughs'
p385
g12
F0.9102
tp386
asI32
(lp387
(S'mm'
p388
g20
F0.3777
tp389
a(S'probably'
p390
g3
F0.9978
tp391
a(S'not'
p392
g3
F0.9947
tp393
asI33
(lp394
(g31
g9
F0.9873
tp395
a(S'can'
p396
g12
F0.9998
tp397
a(S'still'
p398
g3
F0.9912
tp399
a(S'see'
p400
g12
F0.9718
tp401
a(S'steam'
p402
g56
F0.9702
tp403
a(S'coming'
p404
g12
F0.9976
tp405
a(S'out'
p406
g48
F0.6935
tp407
a(S'of'
p408
g48
F0.9967
tp409
a(S'it'
p410
g9
F0.997
tp411
a(S'xxx'
p412
g16
F0.5684
tp413
asI34
(lp414
(S'well'
p415
g20
F0.8349
tp416
a(S'if'
p417
g48
F0.9971
tp418
a(S'you'
p419
g9
F0.9998
tp420
a(S'want'
p421
g12
F0.9997
tp422
a(S'to'
p423
g48
F0.9939
tp424
a(S'start'
p425
g12
F0.9979
tp426
a(S'eating'
p427
g12
F0.9992
tp428
a(S'it'
p429
g9
F0.9961
tp430
asI35
(lp431
(S'you'
p432
g9
F0.9968
tp433
a(S'should'
p434
g12
F0.9996
tp435
a(S'start'
p436
g12
F0.9996
tp437
a(S'around'
p438
g48
F0.8736
tp439
a(S'the'
p440
g53
F0.9975
tp441
a(S'edges'
p442
g56
F0.9855
tp443
asI36
(lp444
(g31
g9
F0.953
tp445
a(g41
g12
F0.9274
tp446
a(S'xxx'
p447
g12
F0.3609
tp448
a(S'this'
p449
g53
F0.9602
tp450
a(S'side'
p451
g56
F0.9844
tp452
a(S'xxx'
p453
g16
F0.8707
tp454
asI37
(lp455
(S'there'
p456
S'X'
p457
F0.4649
tp458
a(g25
g273
F0.4518
tp459
a(S'steam'
p460
g56
F0.9698
tp461
asI38
(lp462
(S'xxx'
p463
g16
F0.8437
tp464
asI39
(lp465
(S'on'
p466
g48
F0.9887
tp467
a(S'this'
p468
g53
F0.968
tp469
a(S'side'
p470
g56
F0.9923
tp471
asI40
(lp472
(g31
g9
F0.9793
tp473
a(S'll'
p474
g12
F0.8021
tp475
a(S'take'
p476
g12
F0.9977
tp477
a(S'that'
p478
g9
F0.7018
tp479
a(S'out'
p480
g48
F0.811
tp481
a(S'of'
p482
g48
F0.9976
tp483
a(S'your'
p484
g53
F0.9962
tp485
a(S'way'
p486
g56
F0.9808
tp487
asI41
(lp488
(S'there'
p489
g457
F0.4664
tp490
a(g25
g273
F0.4577
tp491
a(S'garlic'
p492
g56
F0.9765
tp493
a(S'bread'
p494
g56
F0.9992
tp495
a(S'too'
p496
g3
F0.9426
tp497
asI42
(lp498
(S'you'
p499
g9
F0.998
tp500
a(S'want'
p501
g12
F0.9999
tp502
a(g52
g53
F0.9975
tp503
a(S'piece'
p504
g56
F0.9988
tp505
a(S'of'
p506
g48
F0.9953
tp507
a(S'garlic'
p508
g56
F0.9481
tp509
a(S'bread'
p510
g56
F0.9981
tp511
asI43
(lp512
(S'yes'
p513
g20
F0.9878
tp514
a(S'please'
p515
g12
F0.8594
tp516
asI44
(lp517
(S'this'
p518
g9
F0.9526
tp519
a(S'is'
p520
g12
F0.9953
tp521
a(S'steaming'
p522
g12
F0.6589
tp523
a(S'too'
p524
g3
F0.9752
tp525
asI45
(lp526
(S'everything'
p527
g56
F0.9679
tp528
a(g25
g273
F0.6969
tp529
a(S'steaming'
p530
g12
F0.7869
tp531
asI46
(lp532
(S'0'
p533
g351
F0.9874
tp534
a(S'dramatic'
p535
g75
F0.9826
tp536
a(S'laugh'
p537
g56
F0.9093
tp538
asI47
(lp539
(S'well'
p540
g20
F0.9522
tp541
a(S'what'
p542
g9
F0.9986
tp543
a(S'do'
p544
g12
F0.9993
tp545
a(S'you'
p546
g9
F0.9995
tp547
a(S'supposed'
p548
g75
F0.8403
tp549
a(S'emmy'
p550
g56
F0.4703
tp551
a(g25
g273
F0.7053
tp552
a(S'sister'
p553
g56
F0.986
tp554
a(S'doing'
p555
g12
F0.9987
tp556
a(S'for'
p557
g48
F0.9982
tp558
a(S'supper'
p559
g56
F0.9751
tp560
a(S'tonight'
p561
g56
F0.8213
tp562
asI48
(lp563
(g31
g9
F0.9635
tp564
a(S'don'
p565
g12
F0.9156
tp566
a(g142
g56
F0.3074
tp567
a(S'know'
p568
g12
F0.965
tp569
asI49
(lp570
(g31
g9
F0.989
tp571
a(S'think'
p572
g12
F0.9996
tp573
a(S'say'
p574
g12
F0.9233
tp575
a(S'pizza'
p576
g56
F0.9468
tp577
asI50
(lp578
(S'pizza'
p579
g56
F0.9224
tp580
asI51
(lp581
(S'could'
p582
g12
F0.99
tp583
a(S'be'
p584
g12
F0.9951
tp585
asI52
(lp586
(S'she'
p587
g9
F0.9941
tp588
a(S'll'
p589
g3
F0.4423
tp590
a(S'probably'
p591
g3
F0.9995
tp592
a(S'stay'
p593
g12
F0.9942
tp594
a(S'out'
p595
g28
F0.5263
tp596
a(S'late'
p597
g3
F0.5603
tp598
a(S'late'
p599
g75
F0.7912
tp600
a(S'late'
p601
g75
F0.744
tp602
a(S'tonight'
p603
g56
F0.797
tp604
asI53
(lp605
(S'she'
p606
g9
F0.9941
tp607
a(S'll'
p608
g12
F0.5107
tp609
a(S'be'
p610
g12
F0.9974
tp611
a(S'dragging'
p612
g12
F0.998
tp613
a(S'around'
p614
g48
F0.4524
tp615
a(S'tomorrow'
p616
g56
F0.932
tp617
asI54
(lp618
(S'what'
p619
g9
F0.5995
tp620
a(S'time'
p621
g56
F0.998
tp622
a(S'is'
p623
g12
F0.9986
tp624
a(S'she'
p625
g9
F0.9987
tp626
a(S'supposed'
p627
g12
F0.5471
tp628
a(S'to'
p629
g48
F0.9947
tp630
a(S'come'
p631
g12
F0.9995
tp632
a(S'home'
p633
g56
F0.707
tp634
a(S'tomorrow'
p635
g56
F0.9506
tp636
asI55
(lp637
(S'you'
p638
g9
F0.998
tp639
a(S'told'
p640
g12
F0.9999
tp641
a(S'her'
p642
g9
F0.7958
tp643
a(S'the'
p644
g53
F0.9992
tp645
a(S'middle'
p646
g56
F0.9638
tp647
a(S'of'
p648
g48
F0.9996
tp649
a(S'the'
p650
g53
F0.9996
tp651
a(S'day'
p652
g56
F0.9971
tp653
asI56
(lp654
(S'how'
p655
g3
F0.9764
tp656
a(g25
g273
F0.7486
tp657
a(S'the'
p658
g53
F0.9969
tp659
a(S'lasagna'
p660
g56
F0.7666
tp661
asI57
(lp662
(S'great'
p663
g75
F0.9426
tp664
asI58
(lp665
(S'can'
p666
g12
F0.9635
tp667
a(g142
g12
F0.9045
tp668
a(S'wait'
p669
g12
F0.9686
tp670
asI59
(lp671
(S'is'
p672
g12
F0.9955
tp673
a(S'there'
p674
g457
F0.8404
tp675
a(S'any'
p676
g53
F0.9459
tp677
a(S'more'
p678
g75
F0.6106
tp679
a(S'singing'
p680
g12
F0.9839
tp681
asI60
(lp682
(S'can'
p683
g12
F0.9755
tp684
a(g31
g9
F0.987
tp685
a(S'have'
p686
g12
F0.9999
tp687
a(S'some'
p688
g53
F0.9415
tp689
a(S'sing'
p690
g12
F0.879
tp691
a(S'song'
p692
g56
F0.9918
tp693
asI61
(lp694
(S'there'
p695
g3
F0.5244
tp696
a(S'you'
p697
g9
F0.9978
tp698
a(S'are'
p699
g12
F0.9991
tp700
asI62
(lp701
(S'this'
p702
g9
F0.9526
tp703
a(S'is'
p704
g12
F0.9835
tp705
a(S'very'
p706
g3
F0.9959
tp707
a(S'nice'
p708
g75
F0.9998
tp709
asI63
(lp710
(S'mm'
p711
g20
F0.627
tp712
asI64
(lp713
(S'mhm'
p714
g20
F0.9747
tp715
asI65
(lp716
(S'so'
p717
g48
F0.7418
tp718
a(S'what'
p719
g9
F0.9977
tp720
a(S'gave'
p721
g12
F0.9992
tp722
a(S'you'
p723
g9
F0.9968
tp724
a(S'the'
p725
g53
F0.9995
tp726
a(S'idea'
p727
g56
F0.9786
tp728
a(S'for'
p729
g48
F0.9996
tp730
a(S'lasagna'
p731
g115
F0.5243
tp732
asI66
(lp733
(S'watching'
p734
g12
F0.9929
tp735
a(S'garfield'
p736
g115
F0.9504
tp737
a(S'this'
p738
g53
F0.9726
tp739
a(S'morning'
p740
g56
F0.9964
tp741
asI67
(lp742
(S'yeah'
p743
g20
F0.9988
tp744
asI68
(lp745
(S'mm'
p746
g20
F0.627
tp747
asI69
(lp748
(S'you'
p749
g9
F0.998
tp750
a(S'watched'
p751
g12
F0.9999
tp752
a(S'him'
p753
g9
F0.7374
tp754
a(S'scarf'
p755
g56
F0.7655
tp756
a(S'it'
p757
g9
F0.9699
tp758
a(S'down'
p759
g28
F0.8241
tp760
asI70
(lp761
(S'xxx'
p762
g16
F0.8437
tp763
asI71
(lp764
(S'xxx'
p765
g16
F0.8437
tp766
asI72
(lp767
(S'xxx'
p768
g16
F0.5769
tp769
a(S'his'
p770
g53
F0.9969
tp771
a(S'favorite'
p772
g75
F0.9621
tp773
a(S'form'
p774
g56
F0.9923
tp775
a(S'of'
p776
g48
F0.9909
tp777
a(S'exercise'
p778
g56
F0.9547
tp779
asI73
(lp780
(S'he'
p781
g9
F0.9959
tp782
a(S'has'
p783
g12
F0.9999
tp784
a(S'some'
p785
g53
F0.983
tp786
a(S'unusual'
p787
g75
F0.9989
tp788
a(S'diets'
p789
g56
F0.9976
tp790
asI74
(lp791
(S'he'
p792
g9
F0.996
tp793
a(S'had'
p794
g12
F0.9999
tp795
a(g52
g53
F0.9831
tp796
a(S'sit'
p797
g56
F0.7863
tp798
a(S'on'
p799
g48
F0.9893
tp800
a(S'it'
p801
g9
F0.9553
tp802
a(S'diet'
p803
g56
F0.8477
tp804
asI75
(lp805
(S'yeah'
p806
g20
F0.9933
tp807
a(S'and'
p808
g356
F0.9996
tp809
a(g52
g53
F0.9957
tp810
a(S'girl'
p811
g56
F0.9968
tp812
a(S'would'
p813
g12
F0.9972
tp814
a(S'sit'
p815
g12
F0.9995
tp816
a(S'on'
p817
g48
F0.9379
tp818
a(S'some'
p819
g53
F0.9915
tp820
a(S'food'
p821
g56
F0.9927
tp822
asI76
(lp823
(S'he'
p824
g9
F0.9945
tp825
a(S'could'
p826
g12
F0.9997
tp827
a(S'eat'
p828
g12
F0.9918
tp829
a(S'what'
p830
g9
F0.9937
tp831
a(S'ever'
p832
g3
F0.9779
tp833
a(S'he'
p834
g9
F0.9958
tp835
a(S'could'
p836
g12
F0.9995
tp837
a(S'sit'
p838
g12
F0.9934
tp839
a(S'on'
p840
g28
F0.5525
tp841
asI77
(lp842
(S'so'
p843
g3
F0.7188
tp844
a(S'most'
p845
g75
F0.8802
tp846
a(S'people'
p847
g56
F0.9992
tp848
a(S'would'
p849
g12
F0.9983
tp850
a(S'wouldn'
p851
g12
F0.9933
tp852
a(g142
g12
F0.6863
tp853
a(S'mind'
p854
g56
F0.7539
tp855
a(S'sitting'
p856
g12
F0.9922
tp857
a(S'on'
p858
g48
F0.9482
tp859
a(S'lettuce'
p860
g56
F0.9468
tp861
asI78
(lp862
(S'because'
p863
g48
F0.9976
tp864
a(S'it'
p865
g9
F0.9984
tp866
a(g25
g12
F0.8611
tp867
a(S'you'
p868
g9
F0.9996
tp869
a(S'know'
p870
g12
F0.9988
tp871
a(S'not'
p872
g3
F0.9964
tp873
a(S'very'
p874
g3
F0.991
tp875
a(S'goopy'
p876
g75
F0.9927
tp877
a(S'c'
p878
g56
F0.7184
tp879
a(S'xxx'
p880
g16
F0.6153
tp881
asI79
(lp882
(S'mhm'
p883
g20
F0.9747
tp884
asI80
(lp885
(S'and'
p886
g356
F0.9985
tp887
a(S'most'
p888
g75
F0.8903
tp889
a(S'people'
p890
g56
F0.9992
tp891
a(S'would'
p892
g12
F0.998
tp893
a(S'mind'
p894
g12
F0.8602
tp895
a(S'sitting'
p896
g12
F0.993
tp897
a(S'on'
p898
g48
F0.9576
tp899
a(S'cake'
p900
g56
F0.9686
tp901
asI81
(lp902
(S'right'
p903
g20
F0.861
tp904
asI82
(lp905
(S'yeah'
p906
g20
F0.9988
tp907
asI83
(lp908
(S'so'
p909
g48
F0.5357
tp910
a(S'if'
p911
g48
F0.9958
tp912
a(S'you'
p913
g9
F0.9997
tp914
a(S'could'
p915
g12
F0.9996
tp916
a(S'sit'
p917
g12
F0.9944
tp918
a(S'on'
p919
g48
F0.8995
tp920
a(S'it'
p921
g9
F0.9899
tp922
a(S'you'
p923
g9
F0.9977
tp924
a(S'could'
p925
g12
F0.9996
tp926
a(S'eat'
p927
g12
F0.9995
tp928
a(S'it'
p929
g9
F0.9903
tp930
asI84
(lp931
(S'uhhuh'
p932
g20
F0.9892
tp933
asI85
(lp934
(g31
g9
F0.9869
tp935
a(S'could'
p936
g12
F0.9997
tp937
a(S'probably'
p938
g3
F0.9993
tp939
a(S'sit'
p940
g12
F0.9892
tp941
a(S'on'
p942
g48
F0.7317
tp943
a(g52
g53
F0.9961
tp944
a(S'cake'
p945
g56
F0.997
tp946
asI86
(lp947
(S'mm'
p948
g12
F0.2233
tp949
a(S'it'
p950
g9
F0.9964
tp951
a(S'would'
p952
g12
F0.9993
tp953
a(S'become'
p954
g12
F0.9999
tp955
a(g52
g53
F0.9962
tp956
a(S'pancake'
p957
g56
F0.6201
tp958
a(S'if'
p959
g48
F0.9997
tp960
a(S'you'
p961
g9
F0.9997
tp962
a(S'sat'
p963
g12
F0.9726
tp964
a(S'on'
p965
g48
F0.9683
tp966
a(S'it'
p967
g9
F0.9984
tp968
a(S'laughing'
p969
g12
F0.9879
tp970
asI87
(lp971
(S'could'
p972
g12
F0.9703
tp973
a(g31
g9
F0.9933
tp974
a(S'have'
p975
g12
F0.9998
tp976
a(S'cut'
p977
g56
F0.5474
tp978
a(S'the'
p979
g53
F0.9988
tp980
a(S'garlic'
p981
g56
F0.9869
tp982
a(S'bread'
p983
g56
F0.9985
tp984
a(S'please'
p985
g12
F0.9531
tp986
asI88
(lp987
(S'you'
p988
g9
F0.9968
tp989
a(S'could'
p990
g12
F0.9996
tp991
a(S'sit'
p992
g12
F0.9943
tp993
a(S'on'
p994
g48
F0.814
tp995
a(g52
g53
F0.9946
tp996
a(S'sponge'
p997
g56
F0.9554
tp998
a(S'cake'
p999
g56
F0.9966
tp1000
asI89
(lp1001
(S'yeah'
p1002
g20
F0.9968
tp1003
a(S'xxx'
p1004
g16
F0.7849
tp1005
asI90
(lp1006
(S'but'
p1007
g356
F0.9962
tp1008
a(S'it'
p1009
g9
F0.9983
tp1010
a(S'would'
p1011
g12
F0.9994
tp1012
a(S'be'
p1013
g12
F0.9997
tp1014
a(S'difficult'
p1015
g75
F0.9721
tp1016
a(S'to'
p1017
g48
F0.9983
tp1018
a(S'sit'
p1019
g12
F0.9983
tp1020
a(S'on'
p1021
g48
F0.8407
tp1022
a(S'an'
p1023
g53
F0.9331
tp1024
a(S'upside'
p1025
g75
F0.8926
tp1026
a(S'down'
p1027
g48
F0.4932
tp1028
a(S'cake'
p1029
g56
F0.9833
tp1030
asI91
(lp1031
(S'mm'
p1032
g20
F0.627
tp1033
asI92
(lp1034
(S'why'
p1035
g3
F0.8527
tp1036
asI93
(lp1037
(S'because'
p1038
g48
F0.983
tp1039
a(g31
g9
F0.984
tp1040
a(g117
g12
F0.8114
tp1041
a(S'be'
p1042
g12
F0.9916
tp1043
a(S'upside'
p1044
g75
F0.7112
tp1045
a(S'down'
p1046
g3
F0.329
tp1047
asI94
(lp1048
(S'xxx'
p1049
g16
F0.8437
tp1050
asI95
(lp1051
(S'its'
p1052
S'L'
p1053
F0.9143
tp1054
a(S'top'
p1055
g75
F0.9225
tp1056
a(S'would'
p1057
g12
F0.9431
tp1058
a(S'be'
p1059
g12
F0.9998
tp1060
a(S'on'
p1061
g48
F0.9579
tp1062
a(S'its'
p1063
g1053
F0.5407
tp1064
a(S'bottom'
p1065
g75
F0.8557
tp1066
asI96
(lp1067
(S'and'
p1068
g356
F0.9989
tp1069
a(S'my'
p1070
g53
F0.9943
tp1071
a(S'top'
p1072
g56
F0.5549
tp1073
a(S'would'
p1074
g12
F0.9931
tp1075
a(S'be'
p1076
g12
F0.9998
tp1077
a(S'on'
p1078
g48
F0.9844
tp1079
a(S'my'
p1080
g53
F0.9966
tp1081
a(S'bottom'
p1082
g56
F0.6756
tp1083
asI97
(lp1084
(S'mm'
p1085
g20
F0.627
tp1086
asI98
(lp1087
(S'mm'
p1088
g20
F0.2328
tp1089
a(S'this'
p1090
g9
F0.9825
tp1091
a(S'is'
p1092
g12
F0.9977
tp1093
a(S'good'
p1094
g75
F0.998
tp1095
asI99
(lp1096
(S'and'
p1097
g356
F0.9989
tp1098
a(S'my'
p1099
g53
F0.9967
tp1100
a(S'head'
p1101
g56
F0.9974
tp1102
a(S'would'
p1103
g12
F0.9967
tp1104
a(S'be'
p1105
g12
F0.9999
tp1106
a(S'squished'
p1107
g12
F0.7777
tp1108
a(S'into'
p1109
g48
F0.9991
tp1110
a(S'the'
p1111
g53
F0.9992
tp1112
a(S'cake'
p1113
g56
F0.9954
tp1114
asI100
(lp1115
(S'yep'
p1116
g20
F0.9977
tp1117
asI101
(lp1118
(g31
g9
F0.953
tp1119
a(g41
g12
F0.9834
tp1120
a(S'going'
p1121
g12
F0.9981
tp1122
a(S'to'
p1123
g48
F0.9746
tp1124
a(S'be'
p1125
g12
F0.9986
tp1126
a(S'xxx'
p1127
g16
F0.7875
tp1128
asI102
(lp1129
(S'we'
p1130
g9
F0.9878
tp1131
a(g117
g12
F0.5956
tp1132
a(S'have'
p1133
g12
F0.9975
tp1134
a(S'to'
p1135
g48
F0.9947
tp1136
a(S'wash'
p1137
g12
F0.9266
tp1138
a(S'cake'
p1139
g56
F0.9618
tp1140
a(S'out'
p1141
g48
F0.9514
tp1142
a(S'of'
p1143
g48
F0.9975
tp1144
a(S'your'
p1145
g53
F0.9968
tp1146
a(S'hair'
p1147
g56
F0.9976
tp1148
asI103
(lp1149
(S'yeah'
p1150
g20
F0.9988
tp1151
asI104
(lp1152
(S'that'
p1153
g9
F0.7305
tp1154
a(S'would'
p1155
g12
F0.9992
tp1156
a(S'be'
p1157
g12
F1.0
tp1158
a(S'the'
p1159
g53
F0.9979
tp1160
a(S'worst'
p1161
g75
F0.9956
tp1162
a(S'part'
p1163
g56
F0.9981
tp1164
asI105
(lp1165
(S'no'
p1166
g20
F0.8024
tp1167
a(S'but'
p1168
g356
F0.98
tp1169
a(S'the'
p1170
g53
F0.9988
tp1171
a(S'worst'
p1172
g75
F0.9967
tp1173
a(S'part'
p1174
g56
F0.9994
tp1175
a(S'is'
p1176
g12
F0.9974
tp1177
a(S'having'
p1178
g12
F0.9955
tp1179
a(S'to'
p1180
g48
F0.982
tp1181
a(S'go'
p1182
g12
F0.9993
tp1183
a(S'with'
p1184
g48
F0.9978
tp1185
a(S'cake'
p1186
g56
F0.9641
tp1187
a(S'on'
p1188
g48
F0.9989
tp1189
a(S'my'
p1190
g53
F0.995
tp1191
a(S'school'
p1192
g56
F0.9994
tp1193
asI106
(lp1194
(S'having'
p1195
g12
F0.9941
tp1196
a(S'cake'
p1197
g56
F0.9969
tp1198
a(S'at'
p1199
g48
F0.9996
tp1200
a(S'your'
p1201
g53
F0.9948
tp1202
a(S'school'
p1203
g56
F0.9994
tp1204
asI107
(lp1205
(S'yeah'
p1206
g20
F0.9988
tp1207
asI108
(lp1208
(S'having'
p1209
g12
F0.9941
tp1210
a(S'cake'
p1211
g56
F0.9931
tp1212
a(S'in'
p1213
g48
F0.9977
tp1214
a(S'my'
p1215
g53
F0.9988
tp1216
a(S'hair'
p1217
g56
F0.9981
tp1218
a(S'on'
p1219
g48
F0.9989
tp1220
a(S'school'
p1221
g56
F0.9942
tp1222
asI109
(lp1223
(S'on'
p1224
g48
F0.9768
tp1225
a(g52
g53
F0.9972
tp1226
a(S'school'
p1227
g56
F0.9947
tp1228
a(S'day'
p1229
g56
F0.9964
tp1230
asI110
(lp1231
(S'oh'
p1232
g20
F0.9983
tp1233
a(g31
g9
F0.992
tp1234
a(S'see'
p1235
g12
F0.9984
tp1236
asI111
(lp1237
(S'that'
p1238
g9
F0.7305
tp1239
a(S'would'
p1240
g12
F0.9986
tp1241
a(S'look'
p1242
g12
F0.999
tp1243
a(S'kind'
p1244
g56
F0.9026
tp1245
a(S'of'
p1246
g48
F0.976
tp1247
a(S'strange'
p1248
g75
F0.9936
tp1249
asI112
(lp1250
(S'mm'
p1251
g20
F0.627
tp1252
asI113
(lp1253
(S'some'
p1254
g53
F0.7759
tp1255
a(S'goes'
p1256
g12
F0.9202
tp1257
a(S'in'
p1258
g48
F0.7324
tp1259
a(S'my'
p1260
g53
F0.9988
tp1261
a(S'hair'
p1262
g56
F0.9978
tp1263
asI114
(lp1264
(S'that'
p1265
g9
F0.7305
tp1266
a(S'would'
p1267
g12
F0.999
tp1268
a(S'be'
p1269
g12
F0.9998
tp1270
a(S'awful'
p1271
g75
F0.9742
tp1272
asI115
(lp1273
(S'but'
p1274
g356
F0.9913
tp1275
a(S'just'
p1276
g3
F0.9994
tp1277
a(S'think'
p1278
g12
F0.9971
tp1279
asI116
(lp1280
(S'you'
p1281
g9
F0.9968
tp1282
a(S'could'
p1283
g12
F0.9995
tp1284
a(S'always'
p1285
g3
F0.9936
tp1286
a(S'have'
p1287
g12
F0.9996
tp1288
a(S'it'
p1289
g9
F0.9922
tp1290
a(S'there'
p1291
g3
F0.9196
tp1292
a(S'for'
p1293
g48
F0.9994
tp1294
a(g52
g53
F0.9967
tp1295
a(S'snack'
p1296
g56
F0.9948
tp1297
a(S'if'
p1298
g48
F0.9997
tp1299
a(S'you'
p1300
g9
F0.9998
tp1301
a(S'got'
p1302
g12
F0.9996
tp1303
a(S'hungry'
p1304
g75
F0.948
tp1305
asI117
(lp1306
(S'this'
p1307
g9
F0.9526
tp1308
a(S'is'
p1309
g12
F0.9973
tp1310
a(S'good'
p1311
g75
F0.9993
tp1312
a(S'dad'
p1313
g56
F0.9965
tp1314
asI118
(lp1315
(S'very'
p1316
g3
F0.9939
tp1317
a(S'good'
p1318
g75
F0.9999
tp1319
asI119
(lp1320
(S'xxx'
p1321
g16
F0.8437
tp1322
asI120
(lp1323
(S'it'
p1324
g9
F0.9858
tp1325
a(g25
g12
F0.5508
tp1326
a(S'sweet'
p1327
g75
F0.9934
tp1328
asI121
(lp1329
(S'mm'
p1330
g20
F0.627
tp1331
asI122
(lp1332
(S'maybe'
p1333
g3
F0.9614
tp1334
a(S'if'
p1335
g48
F0.9896
tp1336
a(g31
g9
F0.997
tp1337
a(S'have'
p1338
g12
F0.9988
tp1339
a(S'time'
p1340
g56
F0.9977
tp1341
a(S'tomorrow'
p1342
g56
F0.9194
tp1343
a(g31
g9
F0.9256
tp1344
a(S'll'
p1345
g12
F0.7524
tp1346
a(S'make'
p1347
g12
F0.9969
tp1348
a(g52
g53
F0.9969
tp1349
a(S'cake'
p1350
g56
F0.9979
tp1351
asI123
(lp1352
(S'now'
p1353
g3
F0.9913
tp1354
a(S'you'
p1355
g9
F0.9994
tp1356
a(S'brought'
p1357
g12
F0.9999
tp1358
a(S'up'
p1359
g28
F0.9554
tp1360
a(g52
g53
F0.9962
tp1361
a(S'good'
p1362
g75
F0.9988
tp1363
a(S'idea'
p1364
g56
F0.9073
tp1365
a(S'mom'
p1366
g56
F0.912
tp1367
asI124
(lp1368
(S'mhm'
p1369
g20
F0.9747
tp1370
asI125
(lp1371
(S'what'
p1372
g9
F0.8373
tp1373
a(S'kind'
p1374
g56
F0.9635
tp1375
a(S'of'
p1376
g48
F0.9963
tp1377
a(S'cake'
p1378
g56
F0.9427
tp1379
a(S'would'
p1380
g12
F0.9993
tp1381
a(S'you'
p1382
g9
F0.9983
tp1383
a(S'make'
p1384
g12
F0.992
tp1385
asI126
(lp1386
(S'yeah'
p1387
g20
F0.9988
tp1388
asI127
(lp1389
(S'chocolate'
p1390
g56
F0.9433
tp1391
asI128
(lp1392
(S'mm'
p1393
g20
F0.627
tp1394
asI129
(lp1395
(S'what'
p1396
g9
F0.949
tp1397
asI130
(lp1398
(S'chocolate'
p1399
g56
F0.9433
tp1400
asI131
(lp1401
(S'xxx'
p1402
g16
F0.6854
tp1403
a(S'laughs'
p1404
g12
F0.948
tp1405
asI132
(lp1406
(S'xxx'
p1407
g16
F0.8437
tp1408
asI133
(lp1409
(S'now'
p1410
g3
F0.9901
tp1411
a(g31
g9
F0.995
tp1412
a(S'believe'
p1413
g12
F1.0
tp1414
a(S'it'
p1415
g9
F0.9888
tp1416
asI134
(lp1417
(S'oh'
p1418
g20
F0.9987
tp1419
a(S'yeah'
p1420
g20
F0.9997
tp1421
asI135
(lp1422
(g31
g9
F0.9894
tp1423
a(S'knew'
p1424
g12
F0.9997
tp1425
a(S'she'
p1426
g9
F0.9982
tp1427
a(S'would'
p1428
g12
F0.9993
tp1429
a(S'make'
p1430
g12
F0.9988
tp1431
a(S'chocolate'
p1432
g56
F0.9474
tp1433
a(S'cake'
p1434
g56
F0.9987
tp1435
a(S'tomorrow'
p1436
g56
F0.9812
tp1437
asI136
(lp1438
(S'why'
p1439
g3
F0.8527
tp1440
asI137
(lp1441
(S'because'
p1442
g48
F0.9985
tp1443
a(S'she'
p1444
g9
F0.9993
tp1445
a(S'bought'
p1446
g12
F0.9992
tp1447
a(S'the'
p1448
g53
F0.9994
tp1449
a(S'mix'
p1450
g56
F0.9948
tp1451
a(S'too'
p1452
g3
F0.9243
tp1453
asI138
(lp1454
(S'no'
p1455
g20
F0.9253
tp1456
asI139
(lp1457
(S'you'
p1458
g9
F0.998
tp1459
a(S'went'
p1460
g12
F0.999
tp1461
a(S'to'
p1462
g48
F0.9956
tp1463
a(S'the'
p1464
g53
F0.9991
tp1465
a(S'store'
p1466
g56
F0.9918
tp1467
a(S'today'
p1468
g56
F0.9951
tp1469
asI140
(lp1470
(S'mhm'
p1471
g20
F0.9747
tp1472
asI141
(lp1473
(S'ahhah'
p1474
g20
F0.9984
tp1475
asI142
(lp1476
(S'oh'
p1477
g20
F0.9988
tp1478
asI143
(lp1479
(S'did'
p1480
g12
F0.9986
tp1481
a(S'you'
p1482
g9
F0.9985
tp1483
a(S'talk'
p1484
g12
F0.9996
tp1485
a(S'her'
p1486
g9
F0.8491
tp1487
a(S'into'
p1488
g48
F0.9962
tp1489
a(S'buying'
p1490
g12
F0.9986
tp1491
a(S'it'
p1492
g9
F0.9931
tp1493
a(S'when'
p1494
g3
F0.9885
tp1495
a(S'you'
p1496
g9
F0.9987
tp1497
a(S'were'
p1498
g12
F0.9983
tp1499
a(S'at'
p1500
g48
F0.9991
tp1501
a(S'the'
p1502
g53
F0.9993
tp1503
a(S'store'
p1504
g56
F0.9886
tp1505
asI144
(lp1506
(S'uhuh'
p1507
g20
F0.9919
tp1508
asI145
(lp1509
(S'no'
p1510
g20
F0.8403
tp1511
a(S'she'
p1512
g9
F0.9956
tp1513
a(S'was'
p1514
g12
F0.9982
tp1515
a(S'pretty'
p1516
g3
F0.9921
tp1517
a(S'good'
p1518
g75
F0.9987
tp1519
asI146
(lp1520
(S'she'
p1521
g9
F0.9943
tp1522
a(S'only'
p1523
g3
F0.944
tp1524
a(S'talked'
p1525
g12
F0.9997
tp1526
a(S'me'
p1527
g9
F0.997
tp1528
a(S'into'
p1529
g48
F0.9895
tp1530
a(S'one'
p1531
g351
F0.957
tp1532
a(S'thing'
p1533
g56
F0.996
tp1534
asI147
(lp1535
(S'what'
p1536
g9
F0.9739
tp1537
a(g25
g12
F0.4505
tp1538
a(S'that'
p1539
g9
F0.8603
tp1540
asI148
(lp1541
(S'um'
p1542
g20
F0.979
tp1543
asI149
(lp1544
(S'chocolate'
p1545
g56
F0.8728
tp1546
a(S'middle'
p1547
g56
F0.7952
tp1548
a(S'cookies'
p1549
g56
F0.9982
tp1550
asI150
(lp1551
(S'oh'
p1552
g20
F0.9987
tp1553
a(S'yeah'
p1554
g20
F0.9997
tp1555
asI151
(lp1556
(g31
g9
F0.9888
tp1557
a(S'talked'
p1558
g12
F1.0
tp1559
a(S'you'
p1560
g9
F0.9982
tp1561
a(S'into'
p1562
g48
F0.995
tp1563
a(S'that'
p1564
g9
F0.8224
tp1565
asI152
(lp1566
(S'well'
p1567
g20
F0.9502
tp1568
a(S'that'
p1569
g9
F0.8535
tp1570
a(g25
g273
F0.4375
tp1571
a(S'acceptable'
p1572
g75
F0.993
tp1573
asI153
(lp1574
(S'and'
p1575
g356
F0.9991
tp1576
a(S'we'
p1577
g9
F0.9978
tp1578
a(S'got'
p1579
g12
F0.9993
tp1580
a(S'ice'
p1581
g56
F0.7204
tp1582
a(S'cream'
p1583
g56
F0.9217
tp1584
a(S'sandwiches'
p1585
g56
F0.9977
tp1586
asI154
(lp1587
(S'xxx'
p1588
g16
F0.6854
tp1589
a(S'laughs'
p1590
g12
F0.948
tp1591
asI155
(lp1592
(g31
g9
F0.9888
tp1593
a(S'dipped'
p1594
g12
F0.9999
tp1595
a(S'in'
p1596
g48
F0.8684
tp1597
a(S'mine'
p1598
g9
F0.8352
tp1599
a(S'into'
p1600
g48
F0.9954
tp1601
a(S'xxx'
p1602
g56
F0.5619
tp1603
a(S'in'
p1604
g48
F0.9959
tp1605
a(S'my'
p1606
g53
F0.9949
tp1607
a(S'strawberry'
p1608
g56
F0.972
tp1609
a(S'laughs'
p1610
g12
F0.9415
tp1611
a(S'ice'
p1612
g56
F0.6996
tp1613
a(S'cream'
p1614
g56
F0.9649
tp1615
asI156
(lp1616
(S'and'
p1617
g356
F0.9989
tp1618
a(S'you'
p1619
g9
F0.9988
tp1620
a(S'wouldn'
p1621
g12
F0.9873
tp1622
a(g142
g12
F0.7079
tp1623
a(S'never'
p1624
g3
F0.9939
tp1625
a(S'do'
p1626
g12
F0.9998
tp1627
a(S'it'
p1628
g9
F0.9927
tp1629
asI157
(lp1630
(S'oh'
p1631
g20
F0.9878
tp1632
a(S'you'
p1633
g9
F0.9797
tp1634
a(S'didn'
p1635
g12
F0.9885
tp1636
a(g142
g12
F0.6467
tp1637
a(S'remind'
p1638
g12
F0.9996
tp1639
a(S'me'
p1640
g9
F0.999
tp1641
asI158
(lp1642
(S'oh'
p1643
g20
F0.9955
tp1644
a(S'we'
p1645
g9
F0.9975
tp1646
a(S'have'
p1647
g12
F0.9998
tp1648
a(S'we'
p1649
g9
F0.9987
tp1650
a(S'have'
p1651
g12
F0.9993
tp1652
a(S'enough'
p1653
g75
F0.4187
tp1654
a(S'ice'
p1655
g56
F0.8165
tp1656
a(S'cream'
p1657
g56
F0.9531
tp1658
asI159
(lp1659
(S'yes'
p1660
g20
F0.9941
tp1661
a(g31
g9
F0.9976
tp1662
a(S'did'
p1663
g12
F0.9996
tp1664
asI160
(lp1665
(S'we'
p1666
g9
F0.9973
tp1667
a(S'have'
p1668
g12
F0.9996
tp1669
a(S'to'
p1670
g48
F0.9948
tp1671
a(S'use'
p1672
g12
F0.9974
tp1673
a(S'up'
p1674
g28
F0.9614
tp1675
a(S'what'
p1676
g9
F0.9724
tp1677
a(S'we'
p1678
g9
F0.9968
tp1679
a(S've'
p1680
g12
F0.811
tp1681
a(S'got'
p1682
g12
F0.9927
tp1683
a(S'before'
p1684
g48
F0.9611
tp1685
a(S'we'
p1686
g9
F0.9992
tp1687
a(S'buy'
p1688
g12
F0.9945
tp1689
a(S'strawberry'
p1690
g56
F0.8908
tp1691
asI161
(lp1692
(g31
g9
F0.9896
tp1693
a(S'reminded'
p1694
g12
F1.0
tp1695
a(S'you'
p1696
g9
F0.9977
tp1697
asI162
(lp1698
(S'hm'
p1699
g20
F0.995
tp1700
asI163
(lp1701
(S'just'
p1702
g3
F0.9989
tp1703
a(S'ask'
p1704
g12
F0.9994
tp1705
a(S'me'
p1706
g9
F0.9984
tp1707
asI164
(lp1708
(S'no'
p1709
g20
F0.9253
tp1710
asI165
(lp1711
(S'you'
p1712
g9
F0.9721
tp1713
a(S'better'
p1714
g75
F0.6265
tp1715
a(S'pay'
p1716
g56
F0.7954
tp1717
a(S'attention'
p1718
g56
F0.9991
tp1719
a(g31
g9
F0.9527
tp1720
a(S'guess'
p1721
g12
F0.9995
tp1722
asI166
(lp1723
(S'xxx'
p1724
g16
F0.8437
tp1725
asI167
(lp1726
(S'we'
p1727
g9
F0.9973
tp1728
a(S'have'
p1729
g12
F0.9984
tp1730
a(S'vanilla'
p1731
g56
F0.9329
tp1732
a(S'and'
p1733
g356
F0.9979
tp1734
a(S'chocolate'
p1735
g56
F0.9424
tp1736
a(S'and'
p1737
g356
F0.9982
tp1738
a(S'something'
p1739
g56
F0.9862
tp1740
a(S'else'
p1741
g3
F0.9602
tp1742
asI168
(lp1743
(S'chocolate'
p1744
g56
F0.9232
tp1745
a(S'chip'
p1746
g56
F0.993
tp1747
asI169
(lp1748
(S'xxx'
p1749
g16
F0.8437
tp1750
asI170
(lp1751
(S'we'
p1752
g9
F0.9973
tp1753
a(S'have'
p1754
g12
F0.9973
tp1755
a(S'chocolate'
p1756
g56
F0.985
tp1757
a(S'chip'
p1758
g56
F0.9948
tp1759
asI171
(lp1760
(S'and'
p1761
g356
F0.9991
tp1762
a(S'we'
p1763
g9
F0.9979
tp1764
a(S'have'
p1765
g12
F0.999
tp1766
a(S'chocolate'
p1767
g56
F0.9843
tp1768
a(S'and'
p1769
g356
F0.9985
tp1770
a(S'vanilla'
p1771
g56
F0.8991
tp1772
asI172
(lp1773
(S'we'
p1774
g9
F0.9973
tp1775
a(S'have'
p1776
g12
F0.9998
tp1777
a(S'the'
p1778
g53
F0.9996
tp1779
a(S'chocolate'
p1780
g56
F0.9906
tp1781
asI173
(lp1782
(S'xxx'
p1783
g16
F0.8437
tp1784
asI174
(lp1785
(S'they'
p1786
g9
F0.9747
tp1787
a(S'xxx'
p1788
g16
F0.4072
tp1789
asI175
(lp1790
(S'hm'
p1791
g20
F0.995
tp1792
asI176
(lp1793
(S'xxx'
p1794
g16
F0.8437
tp1795
asI177
(lp1796
(S'it'
p1797
g9
F0.9888
tp1798
a(g25
g12
F0.7285
tp1799
a(g52
g53
F0.9927
tp1800
a(S'good'
p1801
g75
F0.999
tp1802
a(S'day'
p1803
g56
F0.9975
tp1804
asI178
(lp1805
(S'oh'
p1806
g20
F0.9843
tp1807
a(S'it'
p1808
g9
F0.9851
tp1809
a(g25
g12
F0.4886
tp1810
a(S'perfect'
p1811
g75
F0.9971
tp1812
asI179
(lp1813
(g31
g9
F0.9805
tp1814
a(S'never'
p1815
g3
F0.9921
tp1816
a(S'expected'
p1817
g12
F0.9978
tp1818
a(S'it'
p1819
g9
F0.9759
tp1820
a(S'to'
p1821
g48
F0.9858
tp1822
a(S'be'
p1823
g12
F0.9991
tp1824
a(S'seventy'
p1825
g75
F0.7346
tp1826
a(S'degrees'
p1827
g56
F0.9973
tp1828
a(S'today'
p1829
g56
F0.995
tp1830
asI180
(lp1831
(g31
g9
F0.9912
tp1832
a(S'know'
p1833
g12
F0.9989
tp1834
asI181
(lp1835
(g31
g9
F0.9764
tp1836
a(S'hope'
p1837
g12
F0.9999
tp1838
a(S'it'
p1839
g9
F0.992
tp1840
a(g25
g12
F0.6645
tp1841
a(S'going'
p1842
g12
F0.9977
tp1843
a(S'to'
p1844
g48
F0.9724
tp1845
a(S'be'
p1846
g12
F0.9992
tp1847
a(S'nice'
p1848
g75
F0.9973
tp1849
a(S'tomorrow'
p1850
g56
F0.9753
tp1851
asI182
(lp1852
(S'it'
p1853
g9
F0.9888
tp1854
a(g25
g273
F0.4503
tp1855
a(S'still'
p1856
g3
F0.9549
tp1857
a(S'april'
p1858
g115
F0.5881
tp1859
asI183
(lp1860
(S'this'
p1861
g9
F0.9526
tp1862
a(S'is'
p1863
g12
F0.9989
tp1864
a(S'the'
p1865
g53
F0.9991
tp1866
a(S'kind'
p1867
g56
F0.9775
tp1868
a(S'of'
p1869
g48
F0.9996
tp1870
a(S'the'
p1871
g53
F0.9993
tp1872
a(S'weather'
p1873
g56
F0.9656
tp1874
a(S'you'
p1875
g9
F0.9965
tp1876
a(S'have'
p1877
g12
F0.9995
tp1878
a(S'in'
p1879
g48
F0.9809
tp1880
a(S'june'
p1881
g115
F0.9794
tp1882
a(S'if'
p1883
g48
F0.9991
tp1884
a(S'your'
p1885
g53
F0.7376
tp1886
a(S'lucky'
p1887
g75
F0.9859
tp1888
asI184
(lp1889
(S'mm'
p1890
g20
F0.627
tp1891
asI185
(lp1892
(g31
g9
F0.9896
tp1893
a(S'remember'
p1894
g12
F0.9991
tp1895
a(S'last'
p1896
g75
F0.9812
tp1897
a(S'summer'
p1898
g56
F0.9992
tp1899
a(g31
g9
F0.9232
tp1900
a(S'invited'
p1901
g12
F0.9922
tp1902
a(S'michael'
p1903
g115
F0.9915
tp1904
a(S'nicky'
p1905
g115
F0.9992
tp1906
a(S'and'
p1907
g356
F0.9985
tp1908
a(S'nicole'
p1909
g115
F0.9293
tp1910
a(S'over'
p1911
g48
F0.6378
tp1912
asI186
(lp1913
(S'mhm'
p1914
g20
F0.9747
tp1915
asI187
(lp1916
(S'and'
p1917
g356
F0.9986
tp1918
a(S'dad'
p1919
g56
F0.9661
tp1920
a(S'put'
p1921
g12
F0.9889
tp1922
a(S'the'
p1923
g53
F0.9988
tp1924
a(S'slide'
p1925
g56
F0.9838
tp1926
a(S'in'
p1927
g48
F0.9979
tp1928
a(S'the'
p1929
g53
F0.9992
tp1930
a(S'pool'
p1931
g56
F0.9968
tp1932
a(S'and'
p1933
g356
F0.9973
tp1934
a(S'we'
p1935
g9
F0.9963
tp1936
a(S'filled'
p1937
g12
F0.9997
tp1938
a(S'the'
p1939
g53
F0.9994
tp1940
a(S'pool'
p1941
g56
F0.998
tp1942
a(S'with'
p1943
g48
F0.9992
tp1944
a(S'water'
p1945
g56
F0.9587
tp1946
a(S'and'
p1947
g356
F0.9968
tp1948
a(S'we'
p1949
g9
F0.9957
tp1950
a(S'keep'
p1951
g12
F0.9941
tp1952
a(S'going'
p1953
g12
F0.9968
tp1954
a(S'splashing'
p1955
g12
F0.9975
tp1956
a(S'in'
p1957
g48
F0.7171
tp1958
asI188
(lp1959
(S'mhm'
p1960
g20
F0.9747
tp1961
asI189
(lp1962
(S'that'
p1963
g9
F0.8288
tp1964
a(S'was'
p1965
g12
F0.9978
tp1966
a(S'so'
p1967
g3
F0.8519
tp1968
a(S'fun'
p1969
g75
F0.8812
tp1970
asI190
(lp1971
(S'well'
p1972
g20
F0.8994
tp1973
a(S'we'
p1974
g9
F0.9992
tp1975
a(S'can'
p1976
g12
F0.9998
tp1977
a(S'do'
p1978
g12
F0.9999
tp1979
a(S'that'
p1980
g9
F0.8596
tp1981
a(S'again'
p1982
g3
F0.9458
tp1983
a(S'this'
p1984
g53
F0.9705
tp1985
a(S'summer'
p1986
g56
F0.9962
tp1987
a(S'too'
p1988
g3
F0.9383
tp1989
asI191
(lp1990
(S'but'
p1991
g356
F0.9944
tp1992
a(S'we'
p1993
g9
F0.9987
tp1994
a(S'gotta'
p1995
g12
F0.9999
tp1996
a(S'wait'
p1997
g12
F0.9981
tp1998
a(S'till'
p1999
g48
F0.9656
tp2000
a(S'summer'
p2001
g56
F0.9839
tp2002
a(S'to'
p2003
g48
F0.9956
tp2004
a(S'do'
p2005
g12
F1.0
tp2006
a(S'it'
p2007
g9
F0.9933
tp2008
asI192
(lp2009
(S'and'
p2010
g356
F0.9982
tp2011
a(S'that'
p2012
g53
F0.6794
tp2013
a(S'pool'
p2014
g56
F0.9983
tp2015
a(S'is'
p2016
g12
F0.9968
tp2017
a(S'getting'
p2018
g12
F0.9883
tp2019
a(S'pretty'
p2020
g3
F0.9531
tp2021
a(S'small'
p2022
g75
F0.9968
tp2023
asI193
(lp2024
(S'yeah'
p2025
g20
F0.9988
tp2026
asI194
(lp2027
(S'it'
p2028
g9
F0.9885
tp2029
a(S'wouldn'
p2030
g12
F0.967
tp2031
a(g142
g12
F0.6298
tp2032
a(S'fit'
p2033
g12
F0.8187
tp2034
a(S'michael'
p2035
g115
F0.9903
tp2036
asI195
(lp2037
(S'actually'
p2038
g3
F0.9936
tp2039
a(S'it'
p2040
g9
F0.9842
tp2041
a(S'isn'
p2042
g273
F0.2814
tp2043
a(g142
g273
F0.7946
tp2044
a(S'the'
p2045
g53
F0.997
tp2046
a(S'pool'
p2047
g56
F0.9987
tp2048
a(S'that'
p2049
g48
F0.9375
tp2050
a(g25
g273
F0.3862
tp2051
a(S'getting'
p2052
g12
F0.9978
tp2053
a(S'smaller'
p2054
g75
F0.9571
tp2055
a(S'it'
p2056
g9
F0.9612
tp2057
a(g25
g12
F0.8413
tp2058
a(S'you'
p2059
g9
F0.9958
tp2060
a(S'that'
p2061
g48
F0.5442
tp2062
a(g25
g273
F0.4205
tp2063
a(S'getting'
p2064
g12
F0.9979
tp2065
a(S'bigger'
p2066
g75
F0.9153
tp2067
asI196
(lp2068
(S'mm'
p2069
g20
F0.2494
tp2070
a(S'laughs'
p2071
g12
F0.9387
tp2072
asI197
(lp2073
(S'xxx'
p2074
g16
F0.7045
tp2075
a(S'taking'
p2076
g12
F0.9988
tp2077
a(S'over'
p2078
g48
F0.8059
tp2079
a(S'her'
p2080
g9
F0.8435
tp2081
asI198
(lp2082
(S'yeah'
p2083
g20
F0.9968
tp2084
a(g31
g9
F0.9963
tp2085
a(S'noticed'
p2086
g12
F0.9999
tp2087
a(S'that'
p2088
g9
F0.6365
tp2089
a(S'today'
p2090
g56
F0.98
tp2091
asI199
(lp2092
(g31
g9
F0.9756
tp2093
a(S'couldn'
p2094
g12
F0.9923
tp2095
a(g142
g12
F0.7417
tp2096
a(S'even'
p2097
g3
F0.9972
tp2098
a(S'fit'
p2099
g12
F0.987
tp2100
a(S'in'
p2101
g48
F0.9802
tp2102
a(S'the'
p2103
g53
F0.9992
tp2104
a(S'cart'
p2105
g56
F0.9488
tp2106
a(S'thing'
p2107
g56
F0.9901
tp2108
asI200
(lp2109
(g31
g9
F0.9897
tp2110
a(S'kept'
p2111
g12
F0.9998
tp2112
a(S'wiggling'
p2113
g12
F0.9958
tp2114
a(S'around'
p2115
g48
F0.4067
tp2116
asI201
(lp2117
(S'and'
p2118
g356
F0.9981
tp2119
a(S'last'
p2120
g75
F0.9921
tp2121
a(S'time'
p2122
g56
F0.9987
tp2123
a(S'all'
p2124
g53
F0.8234
tp2125
a(g31
g9
F0.9843
tp2126
a(S'had'
p2127
g12
F0.9999
tp2128
a(S'to'
p2129
g48
F0.9635
tp2130
a(S'do'
p2131
g12
F0.9988
tp2132
a(S'was'
p2133
g12
F0.986
tp2134
a(S'just'
p2135
g3
F0.9998
tp2136
a(S'put'
p2137
g12
F0.997
tp2138
a(S'the'
p2139
g53
F0.9998
tp2140
a(S'seat'
p2141
g56
F0.9974
tp2142
a(S'down'
p2143
g48
F0.5257
tp2144
asI202
(lp2145
(S'and'
p2146
g356
F0.9985
tp2147
a(S'put'
p2148
g12
F0.9804
tp2149
a(S'something'
p2150
g56
F0.9935
tp2151
a(S'behind'
p2152
g48
F0.9989
tp2153
a(S'my'
p2154
g53
F0.8983
tp2155
a(S'back'
p2156
g56
F0.7722
tp2157
asI203
(lp2158
(S'for'
p2159
g48
F0.9977
tp2160
a(S'support'
p2161
g56
F0.5024
tp2162
asI204
(lp2163
(S'uhhuh'
p2164
g20
F0.9892
tp2165
asI205
(lp2166
(S'there'
p2167
g457
F0.4664
tp2168
a(g25
g273
F0.4752
tp2169
a(S'two'
p2170
g351
F0.9759
tp2171
a(S'things'
p2172
g56
F0.9968
tp2173
a(S'for'
p2174
g48
F1.0
tp2175
a(S'the'
p2176
g53
F0.9976
tp2177
a(S'grocery'
p2178
g56
F0.9155
tp2179
a(S'cart'
p2180
g56
F0.9014
tp2181
a(S'seat'
p2182
g56
F0.985
tp2183
asI206
(lp2184
(S'oh'
p2185
g20
F0.9928
tp2186
a(S'the'
p2187
g53
F0.9893
tp2188
a(S'grocery'
p2189
g56
F0.9613
tp2190
a(S'cart'
p2191
g56
F0.9702
tp2192
asI207
(lp2193
(g31
g9
F0.9917
tp2194
a(S'was'
p2195
g12
F0.9995
tp2196
a(S'xxx'
p2197
g16
F0.6812
tp2198
asI208
(lp2199
(g31
g9
F0.953
tp2200
a(g41
g12
F0.9699
tp2201
a(S'wicked'
p2202
g75
F0.993
tp2203
a(S'xxx'
p2204
g16
F0.7112
tp2205
asI209
(lp2206
(S'big'
p2207
g75
F0.724
tp2208
a(S'pretty'
p2209
g3
F0.8172
tp2210
a(S'soon'
p2211
g3
F0.9529
tp2212
a(S'you'
p2213
g9
F0.9977
tp2214
a(S'll'
p2215
g12
F0.6833
tp2216
a(S'be'
p2217
g12
F0.996
tp2218
a(S'big'
p2219
g75
F0.8708
tp2220
a(S'enough'
p2221
g56
F0.5358
tp2222
a(S'to'
p2223
g48
F0.998
tp2224
a(S'drive'
p2225
g12
F0.9545
tp2226
a(S'to'
p2227
g48
F0.9955
tp2228
a(S'the'
p2229
g53
F0.9991
tp2230
a(S'store'
p2231
g56
F0.9818
tp2232
a(S'and'
p2233
g356
F0.9966
tp2234
a(S'buy'
p2235
g12
F0.9944
tp2236
a(S'the'
p2237
g53
F0.9996
tp2238
a(S'groceries'
p2239
g56
F0.9874
tp2240
a(S'for'
p2241
g48
F0.9998
tp2242
a(S'us'
p2243
g9
F0.9865
tp2244
asI210
(lp2245
(g31
g9
F0.9866
tp2246
a(S'will'
p2247
g12
F0.9993
tp2248
asI211
(lp2249
(S'laughs'
p2250
g12
F0.9102
tp2251
asI212
(lp2252
(S'well'
p2253
g20
F0.519
tp2254
a(S'about'
p2255
g48
F0.9237
tp2256
a(S'thirteen'
p2257
g351
F0.4728
tp2258
a(S'or'
p2259
g356
F0.9888
tp2260
a(S'fourteen'
p2261
g351
F0.4523
tp2262
a(S'years'
p2263
g56
F0.9877
tp2264
asI213
(lp2265
(g31
g9
F0.9866
tp2266
a(S'will'
p2267
g12
F0.9993
tp2268
asI214
(lp2269
(S'sure'
p2270
g75
F0.8345
tp2271
asI215
(lp2272
(S'in'
p2273
g48
F0.967
tp2274
a(S'fourteen'
p2275
g351
F0.4251
tp2276
a(S'years'
p2277
g56
F0.9925
tp2278
asI216
(lp2279
(S'that'
p2280
g9
F0.4727
tp2281
a(g25
g12
F0.3531
tp2282
a(S'fun'
p2283
g56
F0.6204
tp2284
asI217
(lp2285
(S'in'
p2286
g48
F0.9681
tp2287
a(S'fourteen'
p2288
g351
F0.4161
tp2289
a(S'years'
p2290
g56
F0.9679
tp2291
a(S'you'
p2292
g9
F0.991
tp2293
a(S'll'
p2294
g12
F0.7134
tp2295
a(S'be'
p2296
g12
F0.9954
tp2297
a(S'seventeen'
p2298
g351
F0.5312
tp2299
asI218
(lp2300
(S'and'
p2301
g356
F0.9989
tp2302
a(S'you'
p2303
g9
F0.9989
tp2304
a(S'll'
p2305
g12
F0.9202
tp2306
a(S'you'
p2307
g9
F0.9986
tp2308
a(S'll'
p2309
g12
F0.628
tp2310
a(S'have'
p2311
g12
F0.9998
tp2312
a(S'your'
p2313
g53
F0.9942
tp2314
a(S'driver'
p2315
g56
F0.9995
tp2316
a(g25
g273
F0.7268
tp2317
a(S'license'
p2318
g56
F0.9459
tp2319
a(S'and'
p2320
g356
F0.9978
tp2321
a(S'go'
p2322
g12
F0.9785
tp2323
a(S'grocery'
p2324
g56
F0.8098
tp2325
a(S'shopping'
p2326
g56
F0.8512
tp2327
asI219
(lp2328
(S'in'
p2329
g48
F0.9681
tp2330
a(S'fourteen'
p2331
g351
F0.4161
tp2332
a(S'years'
p2333
g56
F0.9845
tp2334
a(S'she'
p2335
g9
F0.9842
tp2336
a(S'll'
p2337
g12
F0.4502
tp2338
a(S'be'
p2339
g12
F0.9953
tp2340
a(S'nineteen'
p2341
g351
F0.4879
tp2342
asI220
(lp2343
(S'oh'
p2344
g20
F0.9893
tp2345
a(S'right'
p2346
g20
F0.8451
tp2347
a(g31
g9
F0.9583
tp2348
a(g41
g12
F0.8895
tp2349
a(S'sorry'
p2350
g75
F0.8341
tp2351
asI221
(lp2352
(S'gee'
p2353
g20
F0.989
tp2354
asI222
(lp2355
(S'only'
p2356
g3
F0.5239
tp2357
a(S'twelve'
p2358
g351
F0.7051
tp2359
a(S'years'
p2360
g56
F0.9898
tp2361
a(S'and'
p2362
g356
F0.9912
tp2363
a(S'you'
p2364
g9
F0.9991
tp2365
a(S'll'
p2366
g12
F0.6586
tp2367
a(S'be'
p2368
g12
F0.9929
tp2369
a(S'seventeen'
p2370
g351
F0.5174
tp2371
asI223
(lp2372
(S'suppose'
p2373
g75
F0.8797
tp2374
a(S'emmy'
p2375
g56
F0.6563
tp2376
a(S'will'
p2377
g12
F0.9594
tp2378
asI224
(lp2379
(S'xxx'
p2380
g16
F0.5698
tp2381
a(S'later'
p2382
g3
F0.8665
tp2383
a(S'bigger'
p2384
g75
F0.9711
tp2385
asI225
(lp2386
(S'supposed'
p2387
g75
F0.9631
tp2388
a(S'emmy'
p2389
g56
F0.6331
tp2390
a(S'will'
p2391
g12
F0.9707
tp2392
a(S'go'
p2393
g12
F0.9964
tp2394
a(S'grocery'
p2395
g56
F0.8068
tp2396
a(S'shopping'
p2397
g56
F0.7562
tp2398
a(S'for'
p2399
g48
F0.9999
tp2400
a(S'us'
p2401
g9
F0.9887
tp2402
a(S'when'
p2403
g3
F0.9884
tp2404
a(S'she'
p2405
g9
F0.9974
tp2406
a(S'gets'
p2407
g12
F0.9999
tp2408
a(S'her'
p2409
g53
F0.9533
tp2410
a(S'license'
p2411
g56
F0.9982
tp2412
asI226
(lp2413
(S'hm'
p2414
g20
F0.9634
tp2415
a(S'www'
p2416
g115
F0.4861
tp2417
a(S'laughs'
p2418
g12
F0.7495
tp2419
asI227
(lp2420
(S'now'
p2421
g3
F0.9689
tp2422
a(S'that'
p2423
g9
F0.5152
tp2424
a(g25
g273
F0.4372
tp2425
a(S'hot'
p2426
g75
F0.9693
tp2427
asI228
(lp2428
(S'maybe'
p2429
g3
F0.9378
tp2430
a(S'she'
p2431
g9
F0.9973
tp2432
a(S'll'
p2433
g3
F0.4032
tp2434
a(S'offer'
p2435
g12
F0.7761
tp2436
a(S'to'
p2437
g48
F0.9654
tp2438
a(S'do'
p2439
g12
F1.0
tp2440
a(S'it'
p2441
g9
F0.9955
tp2442
a(S'just'
p2443
g3
F0.9996
tp2444
a(S'so'
p2445
g48
F0.8544
tp2446
a(S'she'
p2447
g9
F0.9984
tp2448
a(S'can'
p2449
g12
F0.9995
tp2450
a(S'drive'
p2451
g12
F0.9948
tp2452
a(S'the'
p2453
g53
F0.9994
tp2454
a(S'car'
p2455
g56
F0.9964
tp2456
a(S'laughing'
p2457
g12
F0.9729
tp2458
asI229
(lp2459
(S'xxx'
p2460
g16
F0.8437
tp2461
asI230
(lp2462
(g31
g9
F0.9635
tp2463
a(S'don'
p2464
g12
F0.9156
tp2465
a(g142
g56
F0.3074
tp2466
a(S'know'
p2467
g12
F0.965
tp2468
asI231
(lp2469
(S'that'
p2470
g9
F0.7305
tp2471
a(S'would'
p2472
g12
F0.9992
tp2473
a(S'be'
p2474
g12
F1.0
tp2475
a(S'the'
p2476
g53
F0.9609
tp2477
a(S'only'
p2478
g75
F0.9477
tp2479
a(S'reason'
p2480
g56
F0.936
tp2481
a(S'she'
p2482
g9
F0.9519
tp2483
a(g117
g273
F0.3046
tp2484
a(S'offer'
p2485
g56
F0.7371
tp2486
asI232
(lp2487
(S'mhm'
p2488
g20
F0.9747
tp2489
asI233
(lp2490
(S'that'
p2491
g9
F0.7305
tp2492
a(S'would'
p2493
g12
F0.9992
tp2494
a(S'be'
p2495
g12
F0.9997
tp2496
a(S'real'
p2497
g3
F0.6738
tp2498
a(S'good'
p2499
g75
F0.999
tp2500
asI234
(lp2501
(S'giggles'
p2502
g12
F0.5513
tp2503
asI235
(lp2504
(g31
g9
F0.9764
tp2505
a(S'hope'
p2506
g12
F0.9993
tp2507
a(S'she'
p2508
g9
F0.998
tp2509
a(S'doesn'
p2510
g12
F0.9814
tp2511
a(g142
g12
F0.2426
tp2512
a(S'crash'
p2513
g12
F0.6005
tp2514
asI236
(lp2515
(S'well'
p2516
g20
F0.8994
tp2517
a(S'we'
p2518
g9
F0.9985
tp2519
a(S'hope'
p2520
g12
F0.9965
tp2521
a(S'she'
p2522
g9
F0.9977
tp2523
a(S'doesn'
p2524
g12
F0.9901
tp2525
a(g142
g56
F0.2227
tp2526
a(S'crash'
p2527
g12
F0.9301
tp2528
a(S'either'
p2529
g53
F0.4378
tp2530
asI237
(lp2531
(S'more'
p2532
g75
F0.6668
tp2533
a(S'lasagna'
p2534
g56
F0.9294
tp2535
a(S'please'
p2536
g12
F0.9529
tp2537
asI238
(lp2538
(S'you'
p2539
g9
F0.999
tp2540
a(S'did'
p2541
g12
F0.9999
tp2542
a(g52
g53
F0.9959
tp2543
a(S'great'
p2544
g75
F0.9993
tp2545
a(S'job'
p2546
g56
F0.9931
tp2547
asI239
(lp2548
(S'xxx'
p2549
g16
F0.8437
tp2550
asI240
(lp2551
(S'wait'
p2552
g12
F0.9862
tp2553
a(S'wait'
p2554
g12
F0.9368
tp2555
asI241
(lp2556
(S'wait'
p2557
g12
F0.9357
tp2558
a(S'what'
p2559
g9
F0.9921
tp2560
asI242
(lp2561
(S'just'
p2562
g3
F0.9979
tp2563
a(g52
g53
F0.9872
tp2564
a(S'minute'
p2565
g56
F0.9741
tp2566
asI243
(lp2567
(S'you'
p2568
g9
F0.9966
tp2569
a(S'get'
p2570
g12
F0.9999
tp2571
a(S'some'
p2572
g53
F0.8081
tp2573
a(S'of'
p2574
g48
F0.9978
tp2575
a(S'the'
p2576
g53
F0.9991
tp2577
a(S'sauce'
p2578
g56
F0.9918
tp2579
asI244
(lp2580
(S'they'
p2581
g9
F0.9742
tp2582
a(S'don'
p2583
g12
F0.8659
tp2584
a(g142
g12
F0.261
tp2585
a(S'call'
p2586
g12
F0.7464
tp2587
a(S'xxx'
p2588
g16
F0.2997
tp2589
a(S'for'
p2590
g48
F0.998
tp2591
a(S'nothing'
p2592
g56
F0.9917
tp2593
a(S'dad'
p2594
g56
F0.9179
tp2595
a(S'high'
p2596
g56
F0.3691
tp2597
a(S'pitched'
p2598
g12
F0.5767
tp2599
a(S'voice'
p2600
g56
F0.9787
tp2601
asI245
(lp2602
(S'www'
p2603
g115
F0.6828
tp2604
a(S'giggles'
p2605
g12
F0.7485
tp2606
a(S'that'
p2607
g9
F0.6909
tp2608
a(g25
g273
F0.4502
tp2609
a(S'right'
p2610
g20
F0.4936
tp2611
asI246
(lp2612
(S'www'
p2613
g115
F0.7976
tp2614
a(S'clears'
p2615
g12
F0.8811
tp2616
a(S'throat'
p2617
g56
F0.9055
tp2618
a(S'sop'
p2619
g273
F0.7773
tp2620
a(S'f'
p2621
g273
F0.5629
tp2622
a(S'that'
p2623
g48
F0.456
tp2624
a(S'sauce'
p2625
g56
F0.982
tp2626
asI247
(lp2627
(g31
g9
F0.9879
tp2628
a(S'can'
p2629
g12
F0.9997
tp2630
a(S'xxx'
p2631
g16
F0.4589
tp2632
asI248
(lp2633
(S'well'
p2634
g20
F0.741
tp2635
a(S'you'
p2636
g9
F0.9986
tp2637
a(S'don'
p2638
g12
F0.8576
tp2639
a(g142
g56
F0.2122
tp2640
a(S'have'
p2641
g12
F0.999
tp2642
a(S'any'
p2643
g53
F0.9955
tp2644
a(S'trouble'
p2645
g56
F0.9889
tp2646
a(S'eating'
p2647
g12
F0.9934
tp2648
a(S'now'
p2649
g3
F0.9892
tp2650
a(S'that'
p2651
g48
F0.8387
tp2652
a(S'your'
p2653
g53
F0.9928
tp2654
a(S'tooth'
p2655
g56
F0.9996
tp2656
a(S'finally'
p2657
g3
F0.9972
tp2658
a(S'fell'
p2659
g12
F0.9947
tp2660
a(S'out'
p2661
g28
F0.8914
tp2662
a(S'huh'
p2663
g20
F0.904
tp2664
asI249
(lp2665
(S'mhm'
p2666
g20
F0.9747
tp2667
asI250
(lp2668
(S'laughs'
p2669
g12
F0.9102
tp2670
asI251
(lp2671
(g533
g351
F0.9644
tp2672
a(S'clears'
p2673
g12
F0.8351
tp2674
a(S'throat'
p2675
g56
F0.9556
tp2676
asI252
(lp2677
(S'you'
p2678
g9
F0.998
tp2679
a(S'got'
p2680
g12
F0.9998
tp2681
a(g52
g53
F0.9989
tp2682
a(S'big'
p2683
g75
F0.9786
tp2684
a(S'hole'
p2685
g56
F0.9984
tp2686
a(S'and'
p2687
g356
F0.9968
tp2688
a(S'you'
p2689
g9
F0.9966
tp2690
a(S're'
p2691
g12
F0.7575
tp2692
a(S'chomping'
p2693
g12
F0.9892
tp2694
a(S'right'
p2695
g3
F0.8375
tp2696
a(S'into'
p2697
g48
F0.9997
tp2698
a(S'it'
p2699
g9
F0.9957
tp2700
asI253
(lp2701
(S'sure'
p2702
g75
F0.8201
tp2703
a(S'can'
p2704
g12
F0.9322
tp2705
asI254
(lp2706
(S'are'
p2707
g12
F0.9936
tp2708
a(S'any'
p2709
g53
F0.7055
tp2710
a(S'of'
p2711
g48
F0.9978
tp2712
a(S'the'
p2713
g53
F0.9996
tp2714
a(S'other'
p2715
g75
F0.9943
tp2716
a(S'kids'
p2717
g56
F0.9935
tp2718
a(S'in'
p2719
g48
F0.9977
tp2720
a(S'your'
p2721
g53
F0.9895
tp2722
a(S'class'
p2723
g56
F0.9962
tp2724
a(S'room'
p2725
g56
F0.9911
tp2726
a(S'losing'
p2727
g12
F0.9982
tp2728
a(S'their'
p2729
g53
F0.9986
tp2730
a(S'teeth'
p2731
g56
F0.9992
tp2732
asI255
(lp2733
(S'yep'
p2734
g20
F0.9977
tp2735
asI256
(lp2736
(S'xxx'
p2737
g16
F0.6253
tp2738
a(S'maya'
p2739
g115
F0.6466
tp2740
a(S'katie'
p2741
g115
F0.9986
tp2742
a(S'sarah'
p2743
g115
F0.9842
tp2744
asI257
(lp2745
(S'katie'
p2746
g115
F0.993
tp2747
a(S'lost'
p2748
g75
F0.8667
tp2749
a(S'teeth'
p2750
g56
F0.9987
tp2751
asI258
(lp2752
(S'yeah'
p2753
g20
F0.9988
tp2754
asI259
(lp2755
(S'one'
p2756
g351
F0.9537
tp2757
a(S'tooth'
p2758
g56
F0.9975
tp2759
asI260
(lp2760
(S'oh'
p2761
g20
F0.9988
tp2762
asI261
(lp2763
(S'sarah'
p2764
g115
F0.9651
tp2765
a(S'lost'
p2766
g12
F0.8099
tp2767
a(S'these'
p2768
g53
F0.9653
tp2769
a(S'two'
p2770
g351
F0.913
tp2771
a(S'teeth'
p2772
g56
F0.9954
tp2773
asI262
(lp2774
(S'mhm'
p2775
g20
F0.9747
tp2776
asI263
(lp2777
(S'and'
p2778
g356
F0.999
tp2779
a(S'she'
p2780
g9
F0.9984
tp2781
a(S'has'
p2782
g12
F0.9997
tp2783
a(g52
g53
F0.968
tp2784
a(S'xxx'
p2785
g16
F0.5231
tp2786
asI264
(lp2787
(g31
g9
F0.989
tp2788
a(S'think'
p2789
g12
F1.0
tp2790
a(S'it'
p2791
g9
F0.9926
tp2792
a(g25
g12
F0.631
tp2793
a(S'this'
p2794
g53
F0.938
tp2795
a(S'one'
p2796
g351
F0.808
tp2797
asI265
(lp2798
(S'it'
p2799
g9
F0.9888
tp2800
a(g25
g12
F0.6529
tp2801
a(S'the'
p2802
g53
F0.9996
tp2803
a(S'tooth'
p2804
g56
F0.999
tp2805
a(S'that'
p2806
g48
F0.8552
tp2807
a(g31
g9
F0.9954
tp2808
a(S'lost'
p2809
g12
F0.9142
tp2810
asI266
(lp2811
(S'but'
p2812
g356
F0.9936
tp2813
a(S'she'
p2814
g9
F0.9979
tp2815
a(S'already'
p2816
g3
F0.9983
tp2817
a(S'lost'
p2818
g12
F0.9169
tp2819
a(S'it'
p2820
g9
F0.9729
tp2821
asI267
(lp2822
(S'those'
p2823
g9
F0.6322
tp2824
a(S'are'
p2825
g12
F0.9924
tp2826
a(S'the'
p2827
g53
F0.9985
tp2828
a(S'first'
p2829
g75
F0.9949
tp2830
a(S'ones'
p2831
g56
F0.9871
tp2832
a(S'to'
p2833
g48
F0.997
tp2834
a(S'go'
p2835
g12
F0.9945
tp2836
a(g31
g9
F0.9942
tp2837
a(S'bet'
p2838
g12
F0.9984
tp2839
asI268
(lp2840
(g31
g9
F0.9635
tp2841
a(S'don'
p2842
g12
F0.9231
tp2843
a(g142
g56
F0.2457
tp2844
a(S'know'
p2845
g12
F0.9837
tp2846
a(S'for'
p2847
g48
F0.9954
tp2848
a(S'everybody'
p2849
g56
F0.9185
tp2850
asI269
(lp2851
(S'mm'
p2852
g20
F0.627
tp2853
asI270
(lp2854
(S'oh'
p2855
g20
F0.9948
tp2856
a(S'no'
p2857
g20
F0.9841
tp2858
asI271
(lp2859
(S'and'
p2860
g356
F0.9973
tp2861
a(S'and'
p2862
g356
F0.999
tp2863
a(S'she'
p2864
g9
F0.9981
tp2865
a(S'lost'
p2866
g12
F0.9363
tp2867
a(S'these'
p2868
g53
F0.7304
tp2869
asI272
(lp2870
(S'but'
p2871
g356
F0.9953
tp2872
a(S'this'
p2873
g53
F0.9078
tp2874
a(S'one'
p2875
g351
F0.8008
tp2876
a(g25
g273
F0.7723
tp2877
a(S'wiggly'
p2878
g75
F0.9318
tp2879
asI273
(lp2880
(S'no'
p2881
g20
F0.8024
tp2882
a(S'but'
p2883
g356
F0.9922
tp2884
a(S'she'
p2885
g9
F0.9969
tp2886
a(S'didn'
p2887
g12
F0.9683
tp2888
a(g142
g12
F0.8579
tp2889
a(S'lost'
p2890
g12
F0.8727
tp2891
a(S'this'
p2892
g53
F0.9779
tp2893
a(S'one'
p2894
g351
F0.7813
tp2895
asI274
(lp2896
(S'your'
p2897
g53
F0.9592
tp2898
a(S'bottom'
p2899
g75
F0.5817
tp2900
a(S'ones'
p2901
g56
F0.9817
tp2902
a(S'are'
p2903
g12
F0.9912
tp2904
a(S'comin'
p2905
g12
F0.9684
tp2906
a(S'g'
p2907
g12
F0.468
tp2908
a(S'in'
p2909
g48
F0.9108
tp2910
a(S'pretty'
p2911
g3
F0.919
tp2912
a(S'good'
p2913
g75
F0.999
tp2914
asI275
(lp2915
(S'let'
p2916
g12
F0.9968
tp2917
a(S'me'
p2918
g9
F0.9996
tp2919
a(S'see'
p2920
g12
F0.969
tp2921
asI276
(lp2922
(S'yep'
p2923
g20
F0.9977
tp2924
asI277
(lp2925
(S'they'
p2926
g9
F0.9104
tp2927
a(S're'
p2928
g12
F0.768
tp2929
a(S'coming'
p2930
g12
F0.9995
tp2931
a(S'up'
p2932
g28
F0.982
tp2933
a(S'pretty'
p2934
g3
F0.9934
tp2935
a(S'good'
p2936
g75
F0.9989
tp2937
asI278
(lp2938
(S'more'
p2939
g75
F0.6668
tp2940
a(S'lasagna'
p2941
g56
F0.9294
tp2942
a(S'please'
p2943
g12
F0.9529
tp2944
asI279
(lp2945
(S'okay'
p2946
g20
F0.9857
tp2947
asI280
(lp2948
(S'xxx'
p2949
g16
F0.8437
tp2950
asI281
(lp2951
(g31
g9
F0.953
tp2952
a(g41
g12
F0.9836
tp2953
a(S'starting'
p2954
g12
F0.9955
tp2955
a(S'to'
p2956
g48
F0.9974
tp2957
a(S'get'
p2958
g12
F0.9999
tp2959
a(g52
g53
F0.9977
tp2960
a(S'house'
p2961
g56
F0.9892
tp2962
a(S'in'
p2963
g48
F0.9986
tp2964
a(S'my'
p2965
g53
F0.9987
tp2966
a(S'mouth'
p2967
g56
F0.9992
tp2968
asI282
(lp2969
(g52
g53
F0.9298
tp2970
a(S'what'
p2971
g9
F0.9811
tp2972
a(S'in'
p2973
g48
F0.982
tp2974
a(S'your'
p2975
g53
F0.996
tp2976
a(S'mouth'
p2977
g56
F0.9996
tp2978
asI283
(lp2979
(g52
g53
F0.9937
tp2980
a(S'house'
p2981
g56
F0.9888
tp2982
a(S'in'
p2983
g48
F0.9964
tp2984
a(S'my'
p2985
g53
F0.9988
tp2986
a(S'mouth'
p2987
g56
F0.9994
tp2988
asI284
(lp2989
(S'www'
p2990
g115
F0.6936
tp2991
a(S'laughs'
p2992
g12
F0.9723
tp2993
a(g52
g53
F0.997
tp2994
a(S'house'
p2995
g56
F0.9929
tp2996
asI285
(lp2997
(S'in'
p2998
g48
F0.9311
tp2999
a(S'mouth'
p3000
g56
F0.9983
tp3001
asI286
(lp3002
(g52
g53
F0.9957
tp3003
a(S'big'
p3004
g75
F0.9348
tp3005
a(S'living'
p3006
g12
F0.6784
tp3007
a(S'room'
p3008
g56
F0.9807
tp3009
a(S'for'
p3010
g48
F0.9999
tp3011
a(S'your'
p3012
g53
F0.9958
tp3013
a(S'tongue'
p3014
g56
F0.9978
tp3015
asI287
(lp3016
(S'mhm'
p3017
g20
F0.9747
tp3018
asI288
(lp3019
(g31
g9
F0.953
tp3020
a(g41
g12
F0.983
tp3021
a(S'getting'
p3022
g12
F0.9994
tp3023
a(g52
g53
F0.9982
tp3024
a(S'house'
p3025
g56
F0.9842
tp3026
a(S'for'
p3027
g48
F0.9999
tp3028
a(S'my'
p3029
g53
F0.9983
tp3030
a(S'tongue'
p3031
g56
F0.9963
tp3032
asI289
(lp3033
(S'xxx'
p3034
g16
F0.7374
tp3035
a(S'too'
p3036
g3
F0.924
tp3037
asI290
(lp3038
(S'xxx'
p3039
g16
F0.581
tp3040
a(S'is'
p3041
g12
F0.9962
tp3042
a(S'doing'
p3043
g12
F0.9876
tp3044
asI291
(lp3045
(S'giggles'
p3046
g12
F0.5513
tp3047
asI292
(lp3048
(S'well'
p3049
g20
F0.9502
tp3050
a(S'that'
p3051
g9
F0.9617
tp3052
a(S'was'
p3053
g12
F0.9985
tp3054
a(S'worth'
p3055
g75
F0.9301
tp3056
a(S'seconds'
p3057
g56
F0.9887
tp3058
asI293
(lp3059
(S'well'
p3060
g20
F0.7488
tp3061
a(S'having'
p3062
g12
F0.9948
tp3063
a(S'lasagna'
p3064
g56
F0.7237
tp3065
a(S'is'
p3066
g12
F0.9982
tp3067
a(g52
g53
F0.9964
tp3068
a(S'good'
p3069
g75
F0.9991
tp3070
a(S'thing'
p3071
g56
F0.9994
tp3072
a(S'to'
p3073
g48
F0.9985
tp3074
a(S'have'
p3075
g12
F0.9996
tp3076
a(S'when'
p3077
g3
F0.9829
tp3078
a(S'emmy'
p3079
g115
F0.5204
tp3080
a(g25
g273
F0.6098
tp3081
a(S'not'
p3082
g3
F0.9978
tp3083
a(S'here'
p3084
g3
F0.9887
tp3085
a(S'be'
p3086
g12
F0.9331
tp3087
a(S'cause'
p3088
g48
F0.9672
tp3089
a(S'she'
p3090
g9
F0.9979
tp3091
a(S'doesn'
p3092
g12
F0.9901
tp3093
a(g142
g12
F0.3393
tp3094
a(S'like'
p3095
g48
F0.7886
tp3096
a(S'it'
p3097
g9
F0.9983
tp3098
a(S'huh'
p3099
g20
F0.8803
tp3100
asI294
(lp3101
(S'xxx'
p3102
g16
F0.8437
tp3103
asI295
(lp3104
(S'mm'
p3105
g20
F0.627
tp3106
asI296
(lp3107
(S'we'
p3108
g9
F0.9849
tp3109
a(S're'
p3110
g12
F0.4911
tp3111
a(S'gonna'
p3112
g12
F0.9908
tp3113
a(S'have'
p3114
g12
F0.9999
tp3115
a(S'it'
p3116
g9
F0.988
tp3117
asI297
(lp3118
(S'mhm'
p3119
g20
F0.9747
tp3120
asI298
(lp3121
(S'see'
p3122
g12
F0.8335
tp3123
asI299
(lp3124
(g31
g9
F0.9899
tp3125
a(S'knew'
p3126
g12
F0.9999
tp3127
a(S'it'
p3128
g9
F0.9906
tp3129
asI300
(lp3130
(S'she'
p3131
g9
F0.997
tp3132
a(S'has'
p3133
g12
F0.9968
tp3134
a(S'fine'
p3135
g75
F0.9926
tp3136
a(S'lines'
p3137
g56
F0.9983
tp3138
asI301
(lp3139
(S'hey'
p3140
g20
F0.9986
tp3141
asI302
(lp3142
(S'but'
p3143
g356
F0.9908
tp3144
a(S'not'
p3145
g3
F0.999
tp3146
a(S'by'
p3147
g48
F0.9855
tp3148
a(S'emmy'
p3149
g115
F0.8112
tp3150
asI303
(lp3151
(S'nope'
p3152
g20
F0.996
tp3153
asI304
(lp3154
(S'xxx'
p3155
g16
F0.607
tp3156
a(S'by'
p3157
g48
F0.9989
tp3158
a(S'my'
p3159
g53
F0.9988
tp3160
a(S'tongue'
p3161
g56
F0.9967
tp3162
a(S'xxx'
p3163
g16
F0.8696
tp3164
asI305
(lp3165
(S'but'
p3166
g356
F0.9908
tp3167
a(S'not'
p3168
g3
F0.9991
tp3169
a(S'by'
p3170
g48
F0.9977
tp3171
a(S'my'
p3172
g53
F0.9973
tp3173
a(S'cake'
p3174
g56
F0.998
tp3175
asI306
(lp3176
(S'xxx'
p3177
g16
F0.6448
tp3178
a(S'chickens'
p3179
g56
F0.8758
tp3180
a(S'xxx'
p3181
g16
F0.7126
tp3182
asI307
(lp3183
(S'clyde'
p3184
g115
F0.9885
tp3185
asI308
(lp3186
(S'get'
p3187
g12
F0.9983
tp3188
a(S'out'
p3189
g48
F0.7165
tp3190
a(S'of'
p3191
g48
F0.9944
tp3192
a(S'my'
p3193
g53
F0.9991
tp3194
a(S'seat'
p3195
g56
F0.997
tp3196
asI309
(lp3197
(S'laughs'
p3198
g12
F0.9102
tp3199
asI310
(lp3200
(S'clyde'
p3201
g115
F0.9885
tp3202
asI311
(lp3203
(S'come'
p3204
g12
F0.9849
tp3205
a(S'on'
p3206
g28
F0.5632
tp3207
asI312
(lp3208
(S'he'
p3209
g9
F0.9961
tp3210
a(S'thinks'
p3211
g12
F0.9998
tp3212
a(S'he'
p3213
g9
F0.997
tp3214
a(g25
g12
F0.7193
tp3215
a(S'like'
p3216
g48
F0.7539
tp3217
a(S'garfield'
p3218
g115
F0.9895
tp3219
asI313
(lp3220
(S'yeah'
p3221
g20
F0.9958
tp3222
a(S'he'
p3223
g9
F0.9984
tp3224
a(S'wants'
p3225
g12
F0.9998
tp3226
a(S'lasagne'
p3227
g56
F0.7653
tp3228
asI314
(lp3229
(S'he'
p3230
g9
F0.9927
tp3231
a(S'probably'
p3232
g3
F0.9994
tp3233
a(S'wouldn'
p3234
g12
F0.9398
tp3235
a(g142
g12
F0.6473
tp3236
a(S'eat'
p3237
g12
F0.9973
tp3238
a(S'it'
p3239
g9
F0.9907
tp3240
asI315
(lp3241
(S'yeah'
p3242
g20
F0.9968
tp3243
a(S'xxx'
p3244
g16
F0.7849
tp3245
asI316
(lp3246
(S'laughs'
p3247
g12
F0.9102
tp3248
asI317
(lp3249
(S'licks'
p3250
g12
F0.9334
tp3251
a(S'up'
p3252
g28
F0.9147
tp3253
a(S'spaghetti'
p3254
g56
F0.9891
tp3255
a(S'sauce'
p3256
g56
F0.9984
tp3257
asI318
(lp3258
(S'doesn'
p3259
g12
F0.8025
tp3260
a(g142
g48
F0.3431
tp3261
a(S'he'
p3262
g9
F0.9958
tp3263
asI319
(lp3264
(S'there'
p3265
g457
F0.8542
tp3266
a(S'is'
p3267
g12
F0.9927
tp3268
a(S'lasagnas'
p3269
g56
F0.2849
tp3270
asI320
(lp3271
(S'xxx'
p3272
g16
F0.8437
tp3273
asI321
(lp3274
(S'xxx'
p3275
g16
F0.6761
tp3276
a(S'news'
p3277
g56
F0.9142
tp3278
asI322
(lp3279
(S'he'
p3280
g9
F0.9905
tp3281
a(g25
g12
F0.6557
tp3282
a(S'feisty'
p3283
g75
F0.9803
tp3284
a(S'later'
p3285
g3
F0.923
tp3286
a(S'when'
p3287
g3
F0.9834
tp3288
a(S'it'
p3289
g9
F0.9931
tp3290
a(g25
g12
F0.6396
tp3291
a(S'getting'
p3292
g12
F0.9965
tp3293
a(S'dark'
p3294
g75
F0.6687
tp3295
asI323
(lp3296
(S'you'
p3297
g9
F0.998
tp3298
a(S'have'
p3299
g12
F0.9996
tp3300
a(S'the'
p3301
g53
F0.9998
tp3302
a(S'candles'
p3303
g56
F0.9877
tp3304
asI324
(lp3305
(S'oh'
p3306
g20
F0.9948
tp3307
a(S'and'
p3308
g356
F0.9978
tp3309
a(S'moonlight'
p3310
g56
F0.9636
tp3311
asI325
(lp3312
(S'mm'
p3313
g20
F0.627
tp3314
asI326
(lp3315
(S'am'
p3316
g12
F0.7695
tp3317
a(g31
g9
F0.9963
tp3318
a(S'gonna'
p3319
g12
F0.9997
tp3320
a(S'have'
p3321
g12
F0.9997
tp3322
a(S'to'
p3323
g48
F0.9898
tp3324
a(S'go'
p3325
g12
F0.9992
tp3326
a(S'to'
p3327
g48
F0.9841
tp3328
a(S'bed'
p3329
g56
F0.7373
tp3330
asI327
(lp3331
(S'again'
p3332
g3
F0.9705
tp3333
a(S'xxx'
p3334
g16
F0.8148
tp3335
asI328
(lp3336
(S'no'
p3337
g20
F0.9253
tp3338
asI329
(lp3339
(S'it'
p3340
g9
F0.9888
tp3341
a(g25
g12
F0.6292
tp3342
a(S'the'
p3343
g53
F0.9993
tp3344
a(S'weekend'
p3345
g56
F0.9962
tp3346
asI330
(lp3347
(S'you'
p3348
g9
F0.9969
tp3349
a(S'can'
p3350
g12
F0.9997
tp3351
a(S'stay'
p3352
g12
F0.999
tp3353
a(S'up'
p3354
g28
F0.9743
tp3355
asI331
(lp3356
(S'www'
p3357
g115
F0.716
tp3358
a(S'woo'
p3359
g20
F0.8681
tp3360
a(S'woo'
p3361
g20
F0.9526
tp3362
a(S'noise'
p3363
g56
F0.8958
tp3364
asI332
(lp3365
(g31
g9
F0.9718
tp3366
a(S'like'
p3367
g12
F0.7402
tp3368
a(S'this'
p3369
g9
F0.9277
tp3370
asI333
(lp3371
(g31
g9
F0.9827
tp3372
a(S'love'
p3373
g12
F0.9919
tp3374
a(S'weekends'
p3375
g56
F0.9529
tp3376
asI334
(lp3377
(S'laughs'
p3378
g12
F0.9102
tp3379
asI335
(lp3380
(S'two'
p3381
g351
F0.9816
tp3382
a(S'times'
p3383
g56
F0.9727
tp3384
a(S'two'
p3385
g351
F0.8932
tp3386
asI336
(lp3387
(S'most'
p3388
g75
F0.816
tp3389
a(S'people'
p3390
g56
F0.9989
tp3391
a(S'do'
p3392
g12
F0.9971
tp3393
asI337
(lp3394
(g31
g9
F0.9708
tp3395
a(S'like'
p3396
g12
F0.7307
tp3397
a(S'two'
p3398
g351
F0.9543
tp3399
a(S'times'
p3400
g56
F0.9928
tp3401
asI338
(lp3402
(S'two'
p3403
g351
F0.9816
tp3404
a(S'times'
p3405
g56
F0.9903
tp3406
asI339
(lp3407
(S'how'
p3408
g3
F0.9802
tp3409
a(S'come'
p3410
g12
F0.9819
tp3411
a(S'two'
p3412
g351
F0.9565
tp3413
a(S'times'
p3414
g56
F0.9928
tp3415
asI340
(lp3416
(S'because'
p3417
g48
F0.983
tp3418
a(g31
g9
F0.993
tp3419
a(S'don'
p3420
g12
F0.9187
tp3421
a(g142
g56
F0.2122
tp3422
a(S'have'
p3423
g12
F0.9978
tp3424
a(S'to'
p3425
g48
F0.9942
tp3426
a(S'be'
p3427
g12
F0.9994
tp3428
a(S'in'
p3429
g48
F0.9831
tp3430
a(S'school'
p3431
g56
F0.9981
tp3432
asI341
(lp3433
(S'and'
p3434
g356
F0.9987
tp3435
a(S'also'
p3436
g3
F0.9907
tp3437
a(S'be'
p3438
g12
F0.9963
tp3439
a(S'cause'
p3440
g48
F0.6796
tp3441
a(g31
g9
F0.9946
tp3442
a(S'can'
p3443
g12
F0.9998
tp3444
a(S'stay'
p3445
g12
F0.9991
tp3446
a(S'up'
p3447
g28
F0.671
tp3448
a(S'late'
p3449
g75
F0.8426
tp3450
asI342
(lp3451
(S'mhm'
p3452
g20
F0.9747
tp3453
asI343
(lp3454
(S'oh'
p3455
g20
F0.9901
tp3456
a(S'and'
p3457
g356
F0.999
tp3458
a(S'another'
p3459
g53
F0.9883
tp3460
a(S'reason'
p3461
g56
F0.9973
tp3462
a(S'too'
p3463
g3
F0.9269
tp3464
asI344
(lp3465
(S'what'
p3466
g9
F0.9739
tp3467
a(g25
g12
F0.4505
tp3468
a(S'that'
p3469
g9
F0.8603
tp3470
asI345
(lp3471
(g31
g9
F0.9873
tp3472
a(S'can'
p3473
g12
F0.9998
tp3474
a(S'have'
p3475
g12
F0.9984
tp3476
a(S'friends'
p3477
g56
F0.9857
tp3478
a(S'over'
p3479
g48
F0.9343
tp3480
asI346
(lp3481
(S'well'
p3482
g20
F0.8684
tp3483
a(S'micky'
p3484
g115
F0.97
tp3485
a(S'came'
p3486
g12
F0.99
tp3487
a(S'down'
p3488
g28
F0.6231
tp3489
a(S'to'
p3490
g48
F0.9965
tp3491
a(S'play'
p3492
g12
F0.9973
tp3493
a(S'most'
p3494
g3
F0.7295
tp3495
a(S'of'
p3496
g48
F0.9989
tp3497
a(S'the'
p3498
g53
F0.9996
tp3499
a(S'day'
p3500
g56
F0.9983
tp3501
a(S'today'
p3502
g56
F0.9913
tp3503
a(S'with'
p3504
g48
F0.9999
tp3505
a(S'you'
p3506
g9
F0.9978
tp3507
a(S'huh'
p3508
g20
F0.8021
tp3509
asI347
(lp3510
(S'yep'
p3511
g20
F0.9977
tp3512
asI348
(lp3513
(S'any'
p3514
g53
F0.8579
tp3515
a(S'any'
p3516
g53
F0.4202
tp3517
a(S'of'
p3518
g48
F0.9978
tp3519
a(S'the'
p3520
g53
F0.9996
tp3521
a(S'other'
p3522
g75
F0.9936
tp3523
a(S'kids'
p3524
g56
F0.9939
tp3525
a(S'around'
p3526
g48
F0.8178
tp3527
asI349
(lp3528
(S'what'
p3529
g9
F0.949
tp3530
asI350
(lp3531
(S'are'
p3532
g12
F0.9936
tp3533
a(S'any'
p3534
g53
F0.7055
tp3535
a(S'of'
p3536
g48
F0.9978
tp3537
a(S'the'
p3538
g53
F0.9996
tp3539
a(S'other'
p3540
g75
F0.9936
tp3541
a(S'kids'
p3542
g56
F0.9939
tp3543
a(S'around'
p3544
g48
F0.8178
tp3545
asI351
(lp3546
(S'rachel'
p3547
g115
F0.9102
tp3548
a(S'or'
p3549
g356
F0.9867
tp3550
a(S'nicole'
p3551
g115
F0.9639
tp3552
asI352
(lp3553
(S'um'
p3554
g20
F0.958
tp3555
a(S'yeah'
p3556
g20
F0.9951
tp3557
a(S'rachel'
p3558
g115
F0.9642
tp3559
a(S'is'
p3560
g12
F0.9986
tp3561
a(S'around'
p3562
g3
F0.7304
tp3563
asI353
(lp3564
(S'but'
p3565
g356
F0.9948
tp3566
a(g31
g9
F0.9899
tp3567
a(S'don'
p3568
g12
F0.9187
tp3569
a(g142
g56
F0.2247
tp3570
a(S'want'
p3571
g12
F0.9957
tp3572
a(S'to'
p3573
g48
F0.9961
tp3574
a(S'play'
p3575
g12
F0.9977
tp3576
a(S'with'
p3577
g48
F0.9988
tp3578
a(S'her'
p3579
g9
F0.6237
tp3580
asI354
(lp3581
(S'no'
p3582
g20
F0.9253
tp3583
asI355
(lp3584
(S'she'
p3585
g9
F0.9918
tp3586
a(S'wasn'
p3587
g12
F0.8984
tp3588
a(g142
g12
F0.34
tp3589
a(S'around'
p3590
g48
F0.4544
tp3591
asI356
(lp3592
(S'she'
p3593
g9
F0.9972
tp3594
a(S'was'
p3595
g12
F0.9992
tp3596
a(S'at'
p3597
g48
F0.9915
tp3598
a(S'her'
p3599
g53
F0.9669
tp3600
a(S'grandma'
p3601
g56
F0.9795
tp3602
a(g25
g273
F0.8959
tp3603
asI357
(lp3604
(S'ah'
p3605
g20
F0.996
tp3606
asI358
(lp3607
(S'and'
p3608
g356
F0.9985
tp3609
a(S'nicole'
p3610
g115
F0.9858
tp3611
a(S'was'
p3612
g12
F0.9969
tp3613
a(S'um'
p3614
g20
F0.3375
tp3615
a(S'doing'
p3616
g12
F0.9987
tp3617
a(S'um'
p3618
g20
F0.4522
tp3619
a(S'xxx'
p3620
g16
F0.827
tp3621
asI359
(lp3622
(S'and'
p3623
g356
F0.9985
tp3624
a(S'michael'
p3625
g115
F0.9926
tp3626
a(S'xxx'
p3627
g16
F0.6427
tp3628
asI360
(lp3629
(S'he'
p3630
g9
F0.996
tp3631
a(S'was'
p3632
g12
F0.9994
tp3633
a(S'roller'
p3634
g56
F0.8749
tp3635
a(S'skating'
p3636
g56
F0.7539
tp3637
asI361
(lp3638
(S'uhhuh'
p3639
g20
F0.9892
tp3640
asI362
(lp3641
(S'you'
p3642
g9
F0.9983
tp3643
a(S'know'
p3644
g12
F0.9986
tp3645
a(S'jason'
p3646
g115
F0.9985
tp3647
a(S'came'
p3648
g12
F0.9944
tp3649
a(S'up'
p3650
g28
F0.993
tp3651
asI363
(lp3652
(S'yeah'
p3653
g20
F0.9968
tp3654
a(g31
g9
F0.997
tp3655
a(S'know'
p3656
g12
F0.9999
tp3657
a(S'that'
p3658
g9
F0.7826
tp3659
asI364
(lp3660
(g31
g9
F0.99
tp3661
a(S'remember'
p3662
g12
F0.9998
tp3663
a(S'that'
p3664
g9
F0.8312
tp3665
asI365
(lp3666
(S'mm'
p3667
g273
F0.2933
tp3668
a(S'you'
p3669
g9
F0.9964
tp3670
a(S'and'
p3671
g356
F0.9925
tp3672
a(S'jason'
p3673
g115
F0.9986
tp3674
a(S'get'
p3675
g12
F0.9989
tp3676
a(S'along'
p3677
g48
F0.6339
tp3678
a(S'today'
p3679
g56
F0.9876
tp3680
asI366
(lp3681
(S'okay'
p3682
g20
F0.9857
tp3683
asI367
(lp3684
(S'uhuh'
p3685
g20
F0.9919
tp3686
asI368
(lp3687
(S'no'
p3688
g20
F0.9253
tp3689
asI369
(lp3690
(S'how'
p3691
g3
F0.9782
tp3692
a(S'come'
p3693
g12
F0.9829
tp3694
asI370
(lp3695
(S'be'
p3696
g12
F0.9696
tp3697
a(S'cause'
p3698
g48
F0.6746
tp3699
asI371
(lp3700
(S'me'
p3701
g9
F0.9974
tp3702
a(S'and'
p3703
g356
F0.9936
tp3704
a(S'nicki'
p3705
g115
F0.9921
tp3706
a(S'had'
p3707
g12
F0.9966
tp3708
a(S'to'
p3709
g48
F0.9875
tp3710
a(S'have'
p3711
g12
F0.9999
tp3712
a(g52
g53
F0.9984
tp3713
a(S'meeting'
p3714
g56
F0.9966
tp3715
asI372
(lp3716
(S'meeting'
p3717
g12
F0.5944
tp3718
a(S'with'
p3719
g48
F0.9991
tp3720
a(S'each'
p3721
g53
F0.9923
tp3722
a(S'other'
p3723
g75
F0.9517
tp3724
asI373
(lp3725
(S'yeah'
p3726
g20
F0.9988
tp3727
asI374
(lp3728
(S'about'
p3729
g48
F0.9407
tp3730
a(S'jason'
p3731
g115
F0.9984
tp3732
asI375
(lp3733
(S'and'
p3734
g356
F0.9985
tp3735
a(S'nicki'
p3736
g115
F0.9922
tp3737
a(S'and'
p3738
g356
F0.9982
tp3739
a(S'niki'
p3740
g115
F0.9981
tp3741
a(g25
g273
F0.3223
tp3742
a(S'laughing'
p3743
g12
F0.9278
tp3744
asI376
(lp3745
(S'and'
p3746
g356
F0.9987
tp3747
a(S'telling'
p3748
g12
F0.9965
tp3749
a(S'secrets'
p3750
g56
F0.9947
tp3751
a(S'and'
p3752
g356
F0.9981
tp3753
a(S'stuff'
p3754
g56
F0.9556
tp3755
asI377
(lp3756
(S'but'
p3757
g356
F0.9921
tp3758
a(S'then'
p3759
g3
F0.9904
tp3760
a(S'jason'
p3761
g115
F0.9996
tp3762
a(S'was'
p3763
g12
F0.9922
tp3764
a(S'second'
p3765
g75
F0.8332
tp3766
a(S'or'
p3767
g356
F0.9731
tp3768
a(S'the'
p3769
g53
F0.9991
tp3770
a(S'third'
p3771
g75
F0.9979
tp3772
a(S'one'
p3773
g351
F0.836
tp3774
asI378
(lp3775
(S'he'
p3776
g9
F0.9961
tp3777
a(S'kept'
p3778
g12
F0.9998
tp3779
a(S'following'
p3780
g12
F0.9864
tp3781
a(S'us'
p3782
g9
F0.9907
tp3783
a(S'around'
p3784
g3
F0.4908
tp3785
asI379
(lp3786
(S'so'
p3787
g3
F0.5368
tp3788
a(g31
g9
F0.9914
tp3789
a(S'went'
p3790
g12
F0.9997
tp3791
a(S'to'
p3792
g48
F0.9956
tp3793
a(S'my'
p3794
g53
F0.9956
tp3795
a(S'room'
p3796
g56
F0.9973
tp3797
a(S'with'
p3798
g48
F0.9988
tp3799
a(S'nicki'
p3800
g115
F0.9941
tp3801
asI380
(lp3802
(S'uhhuh'
p3803
g20
F0.9892
tp3804
asI381
(lp3805
(S'and'
p3806
g356
F0.9985
tp3807
a(S'jason'
p3808
g115
F0.9978
tp3809
asI382
(lp3810
(S'and'
p3811
g356
F0.9981
tp3812
a(S'xxx'
p3813
g16
F0.4599
tp3814
a(S'then'
p3815
g3
F0.9666
tp3816
a(S'you'
p3817
g9
F0.9996
tp3818
a(S'know'
p3819
g12
F0.9994
tp3820
a(S'we'
p3821
g9
F0.9976
tp3822
a(S'came'
p3823
g12
F0.9979
tp3824
a(S'back'
p3825
g3
F0.8716
tp3826
a(S'out'
p3827
g48
F0.4286
tp3828
asI383
(lp3829
(S'and'
p3830
g356
F0.9989
tp3831
a(S'he'
p3832
g9
F0.998
tp3833
a(S'had'
p3834
g12
F0.9991
tp3835
a(S'xxx'
p3836
g16
F0.8032
tp3837
asI384
(lp3838
(S'and'
p3839
g356
F0.9989
tp3840
a(S'he'
p3841
g9
F0.9873
tp3842
a(S'he'
p3843
g9
F0.991
tp3844
a(S'knew'
p3845
g12
F0.9986
tp3846
a(S'how'
p3847
g3
F0.9947
tp3848
a(S'to'
p3849
g48
F0.9866
tp3850
a(S'xxx'
p3851
g16
F0.5828
tp3852
asI385
(lp3853
(S'and'
p3854
g356
F0.9989
tp3855
a(S'my'
p3856
g53
F0.9954
tp3857
a(S'baby'
p3858
g56
F0.9987
tp3859
a(S'xxx'
p3860
g16
F0.8191
tp3861
asI386
(lp3862
(S'and'
p3863
g356
F0.9987
tp3864
a(S'then'
p3865
g3
F0.9867
tp3866
a(g31
g9
F0.9922
tp3867
a(S'came'
p3868
g12
F0.9998
tp3869
a(S'out'
p3870
g28
F0.8602
tp3871
a(S'one'
p3872
g351
F0.9362
tp3873
a(S'of'
p3874
g48
F0.9991
tp3875
a(S'these'
p3876
g53
F0.9807
tp3877
a(S'doors'
p3878
g56
F0.9987
tp3879
asI387
(lp3880
(S'running'
p3881
g12
F0.9958
tp3882
a(S'near'
p3883
g48
F0.9955
tp3884
a(S'the'
p3885
g53
F0.9993
tp3886
a(S'door'
p3887
g56
F0.9983
tp3888
asI388
(lp3889
(S'laughs'
p3890
g12
F0.9102
tp3891
asI389
(lp3892
(S'that'
p3893
g9
F0.8288
tp3894
a(S'was'
p3895
g12
F0.9996
tp3896
a(S'the'
p3897
g53
F0.9998
tp3898
a(S'best'
p3899
g75
F0.995
tp3900
a(S'part'
p3901
g56
F0.9996
tp3902
a(S'of'
p3903
g48
F0.9986
tp3904
a(S'all'
p3905
g53
F0.9264
tp3906
asI390
(lp3907
(g533
g351
F0.9874
tp3908
a(S'short'
p3909
g75
F0.991
tp3910
a(S'laugh'
p3911
g56
F0.9093
tp3912
asI391
(lp3913
(S'and'
p3914
g356
F0.999
tp3915
a(g31
g9
F0.9936
tp3916
a(S'could'
p3917
g12
F0.9998
tp3918
a(S'calm'
p3919
g12
F0.9481
tp3920
a(S'him'
p3921
g9
F0.991
tp3922
a(S'down'
p3923
g28
F0.4357
tp3924
asI392
(lp3925
(S'you'
p3926
g9
F0.998
tp3927
a(S'fooled'
p3928
g12
F0.9998
tp3929
a(S'him'
p3930
g9
F0.9735
tp3931
a(S'huh'
p3932
g20
F0.8966
tp3933
asI393
(lp3934
(S'mhm'
p3935
g20
F0.9747
tp3936
asI394
(lp3937
(g31
g9
F0.9756
tp3938
a(S'wasn'
p3939
g12
F0.9748
tp3940
a(g142
g56
F0.2824
tp3941
a(S'trying'
p3942
g12
F0.9984
tp3943
a(S'to'
p3944
g48
F0.9544
tp3945
asI395
(lp3946
(S'no'
p3947
g20
F0.7705
tp3948
a(g31
g9
F0.9694
tp3949
a(S'know'
p3950
g12
F0.9992
tp3951
asI396
(lp3952
(S'it'
p3953
g9
F0.9888
tp3954
a(g25
g12
F0.5703
tp3955
a(S'too'
p3956
g3
F0.9982
tp3957
a(S'bad'
p3958
g75
F0.9693
tp3959
a(S'you'
p3960
g9
F0.9971
tp3961
a(S'can'
p3962
g12
F0.9993
tp3963
a(g142
g12
F0.7948
tp3964
a(S'play'
p3965
g12
F0.986
tp3966
a(S'with'
p3967
g48
F0.9991
tp3968
a(S'those'
p3969
g53
F0.9848
tp3970
a(S'boys'
p3971
g56
F0.9992
tp3972
a(S'who'
p3973
g9
F0.9714
tp3974
a(S'live'
p3975
g12
F0.8829
tp3976
a(S'next'
p3977
g75
F0.7712
tp3978
a(S'door'
p3979
g56
F0.9971
tp3980
a(S'here'
p3981
g3
F0.95
tp3982
asI397
(lp3983
(S'oh'
p3984
g20
F0.9983
tp3985
a(g31
g9
F0.9952
tp3986
a(S'know'
p3987
g12
F0.9992
tp3988
asI398
(lp3989
(g31
g9
F0.9813
tp3990
a(S'really'
p3991
g3
F0.9941
tp3992
a(S'wanted'
p3993
g12
F0.9934
tp3994
a(S'to'
p3995
g48
F0.9585
tp3996
asI399
(lp3997
(S'well'
p3998
g20
F0.7961
tp3999
a(S'sometimes'
p4000
g3
F0.9683
tp4001
a(S'you'
p4002
g9
F0.9749
tp4003
a(S'guys'
p4004
g56
F0.9712
tp4005
a(S'get'
p4006
g12
F0.9996
tp4007
a(S'along'
p4008
g48
F0.5311
tp4009
a(S'but'
p4010
g356
F0.9878
tp4011
a(S'sometimes'
p4012
g3
F0.9913
tp4013
a(S'you'
p4014
g9
F0.9986
tp4015
a(S'don'
p4016
g12
F0.8872
tp4017
a(g142
g273
F0.4874
tp4018
asI400
(lp4019
(S'that'
p4020
g9
F0.4727
tp4021
a(g25
g12
F0.5427
tp4022
a(S'right'
p4023
g20
F0.3487
tp4024
asI401
(lp4025
(S'you'
p4026
g9
F0.9981
tp4027
a(S'seem'
p4028
g12
F0.9934
tp4029
a(S'to'
p4030
g48
F0.9942
tp4031
a(S'get'
p4032
g12
F0.9999
tp4033
a(S'along'
p4034
g48
F0.4201
tp4035
a(S'okay'
p4036
g20
F0.3741
tp4037
a(S'once'
p4038
g3
F0.9622
tp4039
a(S'you'
p4040
g9
F0.9986
tp4041
a(S'go'
p4042
g12
F0.9993
tp4043
a(S'down'
p4044
g3
F0.8737
tp4045
a(S'to'
p4046
g48
F0.9992
tp4047
a(S'his'
p4048
g53
F0.9957
tp4049
a(S'house'
p4050
g56
F0.9819
tp4051
a(S'and'
p4052
g356
F0.9968
tp4053
a(S'start'
p4054
g12
F0.9852
tp4055
a(S'playing'
p4056
g12
F0.9965
tp4057
a(S'nintendo'
p4058
g115
F0.9416
tp4059
asI402
(lp4060
(S'xxx'
p4061
g16
F0.7728
tp4062
a(g31
g9
F0.9893
tp4063
a(S'hate'
p4064
g12
F0.9997
tp4065
a(S'nintendo'
p4066
g115
F0.9631
tp4067
asI403
(lp4068
(S'he'
p4069
g9
F0.9947
tp4070
a(S'can'
p4071
g12
F0.9996
tp4072
a(S'get'
p4073
g12
F0.9997
tp4074
a(S'kind'
p4075
g56
F0.8952
tp4076
a(S'of'
p4077
g48
F0.9949
tp4078
a(S'bossy'
p4079
g75
F0.7605
tp4080
asI404
(lp4081
(S'yeah'
p4082
g20
F0.9988
tp4083
asI405
(lp4084
(g31
g9
F0.9793
tp4085
a(S'll'
p4086
g12
F0.8766
tp4087
a(S'do'
p4088
g12
F0.9995
tp4089
a(S'this'
p4090
g9
F0.85
tp4091
a(S'while'
p4092
g48
F0.9464
tp4093
a(S'you'
p4094
g9
F0.9984
tp4095
a(S're'
p4096
g12
F0.4991
tp4097
a(S'xxx'
p4098
g16
F0.7846
tp4099
asI406
(lp4100
(S'he'
p4101
g9
F0.9961
tp4102
a(S'likes'
p4103
g12
F1.0
tp4104
a(S'it'
p4105
g9
F0.99
tp4106
a(S'too'
p4107
g3
F0.999
tp4108
a(S'much'
p4109
g75
F0.6927
tp4110
asI407
(lp4111
(S'he'
p4112
g9
F0.9958
tp4113
a(S'wants'
p4114
g12
F0.9999
tp4115
a(S'to'
p4116
g48
F0.9226
tp4117
asI408
(lp4118
(S'he'
p4119
g9
F0.9958
tp4120
a(S'wants'
p4121
g12
F0.9999
tp4122
a(S'to'
p4123
g48
F0.9226
tp4124
asI409
(lp4125
(S'he'
p4126
g9
F0.9961
tp4127
a(S'wants'
p4128
g12
F0.9999
tp4129
a(S'to'
p4130
g48
F0.9911
tp4131
a(S'take'
p4132
g12
F0.9999
tp4133
a(S'your'
p4134
g53
F0.9493
tp4135
a(S'turn'
p4136
g56
F0.8505
tp4137
a(S'just'
p4138
g3
F0.9998
tp4139
a(S'so'
p4140
g48
F0.8725
tp4141
a(S'he'
p4142
g9
F0.9972
tp4143
a(S'll'
p4144
g12
F0.4761
tp4145
a(S'get'
p4146
g12
F0.9985
tp4147
a(S'be'
p4148
g12
F0.9945
tp4149
a(S'able'
p4150
g75
F0.9632
tp4151
a(S'to'
p4152
g48
F0.9989
tp4153
a(S'play'
p4154
g12
F0.9949
tp4155
asI410
(lp4156
(S'yeah'
p4157
g20
F0.9988
tp4158
asI411
(lp4159
(S'xxx'
p4160
g16
F0.615
tp4161
a(S'do'
p4162
g12
F0.9859
tp4163
asI412
(lp4164
(S'because'
p4165
g48
F0.9893
tp4166
a(S'because'
p4167
g48
F0.9896
tp4168
a(S'invites'
p4169
g12
F0.9655
tp4170
a(S'me'
p4171
g9
F0.9976
tp4172
a(S'over'
p4173
g48
F0.4368
tp4174
a(S'to'
p4175
g48
F0.9657
tp4176
a(S'watch'
p4177
g12
F0.9998
tp4178
a(S'him'
p4179
g9
F0.9892
tp4180
asI413
(lp4181
(S'www'
p4182
g115
F0.6936
tp4183
a(S'laughs'
p4184
g12
F0.722
tp4185
a(S'and'
p4186
g356
F0.994
tp4187
a(S'that'
p4188
g9
F0.7107
tp4189
a(g25
g12
F0.7166
tp4190
a(S'no'
p4191
g53
F0.9616
tp4192
a(S'fun'
p4193
g56
F0.9747
tp4194
asI414
(lp4195
(S'no'
p4196
g20
F0.9253
tp4197
asI415
(lp4198
(S'more'
p4199
g75
F0.6668
tp4200
a(S'lasagna'
p4201
g56
F0.9294
tp4202
a(S'please'
p4203
g12
F0.9529
tp4204
asI416
(lp4205
(S'oh'
p4206
g20
F0.9948
tp4207
a(S'my'
p4208
g53
F0.6735
tp4209
a(S'gosh'
p4210
g20
F0.7933
tp4211
asI417
(lp4212
(S'you'
p4213
g9
F0.9754
tp4214
a(S're'
p4215
g12
F0.7018
tp4216
a(S'having'
p4217
g12
F0.9969
tp4218
a(S'thirds'
p4219
g56
F0.9719
tp4220
asI418
(lp4221
(S'laughs'
p4222
g12
F0.9102
tp4223
asI419
(lp4224
(S'adding'
p4225
g12
F0.9964
tp4226
a(S'more'
p4227
g75
F0.8152
tp4228
asI420
(lp4229
(S'xxx'
p4230
g16
F0.8437
tp4231
asI421
(lp4232
(S'actually'
p4233
g3
F0.9969
tp4234
a(g31
g9
F0.951
tp4235
a(g41
g12
F0.9838
tp4236
a(S'going'
p4237
g12
F0.9973
tp4238
a(S'to'
p4239
g48
F0.9769
tp4240
a(S'have'
p4241
g12
F0.9989
tp4242
a(S'thirds'
p4243
g56
F0.9803
tp4244
a(S'too'
p4245
g3
F0.9117
tp4246
asI422
(lp4247
(S'www'
p4248
g115
F0.6936
tp4249
a(S'laughs'
p4250
g12
F0.722
tp4251
a(S'and'
p4252
g356
F0.9883
tp4253
a(S'more'
p4254
g75
F0.7278
tp4255
a(S'koolaid'
p4256
g56
F0.6554
tp4257
a(g117
g56
F0.4251
tp4258
asI423
(lp4259
(S'well'
p4260
g20
F0.8573
tp4261
a(g31
g9
F0.9947
tp4262
a(S'didn'
p4263
g12
F0.9915
tp4264
a(g142
g12
F0.8595
tp4265
a(S'think'
p4266
g12
F0.9976
tp4267
a(S'we'
p4268
g9
F0.9953
tp4269
a(g117
g12
F0.3688
tp4270
asI424
(lp4271
(S'xxx'
p4272
g16
F0.8437
tp4273
asI425
(lp4274
(S'eat'
p4275
g12
F0.9753
tp4276
a(g52
g53
F0.9989
tp4277
a(S'whole'
p4278
g75
F0.9899
tp4279
a(S'thing'
p4280
g56
F0.9993
tp4281
a(S'of'
p4282
g48
F0.9983
tp4283
a(S'lasagna'
p4284
g115
F0.8005
tp4285
a(S'but'
p4286
g356
F0.993
tp4287
a(S'jeez'
p4288
g20
F0.926
tp4289
asI426
(lp4290
(S'it'
p4291
g9
F0.9888
tp4292
a(g25
g12
F0.4795
tp4293
a(S'almost'
p4294
g3
F0.9916
tp4295
a(S'gone'
p4296
g12
F0.8019
tp4297
asI427
(lp4298
(S'could'
p4299
g12
F0.9828
tp4300
a(S'say'
p4301
g12
F0.997
tp4302
a(S'we'
p4303
g9
F0.9979
tp4304
a(S'xxx'
p4305
g16
F0.5633
tp4306
a(S'huh'
p4307
g20
F0.9563
tp4308
asI428
(lp4309
(S'yeah'
p4310
g20
F0.9945
tp4311
a(S'laughs'
p4312
g12
F0.9273
tp4313
asI429
(lp4314
(S'good'
p4315
g75
F0.9457
tp4316
a(S'thinking'
p4317
g12
F0.5047
tp4318
a(S'dad'
p4319
g56
F0.9603
tp4320
asI430
(lp4321
(S'mm'
p4322
g20
F0.627
tp4323
asI431
(lp4324
(S'oh'
p4325
g20
F0.9988
tp4326
asI432
(lp4327
(S'www'
p4328
g115
F0.4885
tp4329
a(S'noises'
p4330
g56
F0.9427
tp4331
asI433
(lp4332
(S'meow'
p4333
g20
F0.9761
tp4334
asI434
(lp4335
(S'xxx'
p4336
g16
F0.654
tp4337
a(S'thirds'
p4338
g56
F0.8713
tp4339
asI435
(lp4340
(S'my'
p4341
g53
F0.9928
tp4342
a(S'thirds'
p4343
g56
F0.9827
tp4344
asI436
(lp4345
(S'thirds'
p4346
g56
F0.8545
tp4347
asI437
(lp4348
(S'this'
p4349
g9
F0.9526
tp4350
a(S'is'
p4351
g12
F0.999
tp4352
a(g52
g53
F0.9984
tp4353
a(S'record'
p4354
g56
F0.9695
tp4355
a(S'for'
p4356
g48
F0.9998
tp4357
a(S'you'
p4358
g9
F0.9991
tp4359
asI438
(lp4360
(S'think'
p4361
g12
F0.9679
tp4362
a(S'so'
p4363
g3
F0.7265
tp4364
asI439
(lp4365
(S'xxx'
p4366
g16
F0.8437
tp4367
asI440
(lp4368
(S'are'
p4369
g12
F0.9964
tp4370
a(S'you'
p4371
g9
F0.9985
tp4372
a(S'breaking'
p4373
g12
F0.9989
tp4374
a(S'the'
p4375
g53
F0.9992
tp4376
a(S'record'
p4377
g56
F0.9651
tp4378
asI441
(lp4379
(S'chi'
p4380
g115
F0.7998
tp4381
a(S'keeps'
p4382
g12
F0.9648
tp4383
a(S'eating'
p4384
g12
F0.9906
tp4385
a(S'food'
p4386
g56
F0.9929
tp4387
a(S'xxx'
p4388
g16
F0.4588
tp4389
a(S'lasagna'
p4390
g56
F0.5118
tp4391
asI442
(lp4392
(S'www'
p4393
g115
F0.6936
tp4394
a(S'laughs'
p4395
g12
F0.7551
tp4396
a(S'should'
p4397
g12
F0.9863
tp4398
a(g31
g9
F0.9352
tp4399
a(S'mark'
p4400
g12
F0.7669
tp4401
a(S'this'
p4402
g53
F0.9606
tp4403
a(S'day'
p4404
g56
F0.998
tp4405
a(S'on'
p4406
g48
F0.9995
tp4407
a(S'the'
p4408
g53
F0.9994
tp4409
a(S'calendar'
p4410
g56
F0.9944
tp4411
asI443
(lp4412
(S'xxx'
p4413
g16
F0.8437
tp4414
asI444
(lp4415
(S'chi'
p4416
g115
F0.7985
tp4417
a(S'ate'
p4418
g12
F0.9772
tp4419
a(S'thirds'
p4420
g56
F0.897
tp4421
a(S'for'
p4422
g48
F0.9995
tp4423
a(S'supper'
p4424
g56
F0.9325
tp4425
asI445
(lp4426
(S'yeah'
p4427
g20
F0.9988
tp4428
asI446
(lp4429
(S'xxx'
p4430
g16
F0.8437
tp4431
asI447
(lp4432
(S'it'
p4433
g9
F0.996
tp4434
a(S'has'
p4435
g12
F0.9985
tp4436
a(S'been'
p4437
g12
F0.9959
tp4438
a(g52
g53
F0.7839
tp4439
a(S'while'
p4440
g56
F0.7138
tp4441
asI448
(lp4442
(S'since'
p4443
g48
F0.898
tp4444
a(g31
g9
F0.9865
tp4445
a(S've'
p4446
g12
F0.8793
tp4447
a(S'ate'
p4448
g12
F0.9699
tp4449
a(S'so'
p4450
g3
F0.9887
tp4451
a(S'much'
p4452
g3
F0.5142
tp4453
asI449
(lp4454
(S'here'
p4455
g3
F0.9382
tp4456
a(g25
g273
F0.7772
tp4457
a(S'your'
p4458
g53
F0.9212
tp4459
a(S'koolaid'
p4460
g56
F0.7411
tp4461
a(g117
g273
F0.4429
tp4462
asI450
(lp4463
(g533
g351
F0.9682
tp4464
a(S'hums'
p4465
g12
F0.529
tp4466
a(g52
g53
F0.9976
tp4467
a(S'little'
p4468
g75
F0.9841
tp4469
asI451
(lp4470
(S'can'
p4471
g12
F0.999
tp4472
a(S'you'
p4473
g9
F0.9987
tp4474
a(S'eat'
p4475
g12
F0.9997
tp4476
a(S'another'
p4477
g53
F0.9953
tp4478
a(S'piece'
p4479
g56
F0.999
tp4480
a(S'of'
p4481
g48
F0.9971
tp4482
a(S'garlic'
p4483
g56
F0.951
tp4484
a(S'bread'
p4485
g56
F0.9981
tp4486
asI452
(lp4487
(S'where'
p4488
g3
F0.9711
tp4489
a(g25
g273
F0.6962
tp4490
a(S'my'
p4491
g53
F0.995
tp4492
a(S'first'
p4493
g75
F0.9969
tp4494
a(S'one'
p4495
g351
F0.8681
tp4496
asI453
(lp4497
(S'you'
p4498
g9
F0.9967
tp4499
a(S'must'
p4500
g12
F0.9974
tp4501
a(S've'
p4502
g12
F0.7499
tp4503
a(S'ate'
p4504
g12
F0.9961
tp4505
a(S'it'
p4506
g9
F0.9878
tp4507
asI454
(lp4508
(S'xxx'
p4509
g16
F0.8437
tp4510
asI455
(lp4511
(S'gee'
p4512
g20
F0.8917
tp4513
a(S'my'
p4514
g53
F0.9908
tp4515
a(S'second'
p4516
g75
F0.938
tp4517
a(S'piece'
p4518
g56
F0.999
tp4519
a(S'of'
p4520
g48
F0.9953
tp4521
a(S'garlic'
p4522
g56
F0.9481
tp4523
a(S'bread'
p4524
g56
F0.9981
tp4525
asI456
(lp4526
(S'my'
p4527
g53
F0.996
tp4528
a(S'third'
p4529
g75
F0.9961
tp4530
a(S'dish'
p4531
g56
F0.9997
tp4532
a(S'of'
p4533
g48
F0.9971
tp4534
a(S'lasagna'
p4535
g115
F0.6728
tp4536
asI457
(lp4537
(S'how'
p4538
g3
F0.9991
tp4539
a(S'much'
p4540
g75
F0.8429
tp4541
a(S'can'
p4542
g12
F0.8527
tp4543
a(g31
g9
F0.983
tp4544
a(S'eat'
p4545
g12
F0.9982
tp4546
asI458
(lp4547
(S'because'
p4548
g48
F0.9843
tp4549
a(S'xxx'
p4550
g16
F0.3458
tp4551
a(S'like'
p4552
g48
F0.7777
tp4553
a(S'you'
p4554
g9
F0.9993
tp4555
asI459
(lp4556
(S'mm'
p4557
g20
F0.627
tp4558
asI460
(lp4559
(S'was'
p4560
g12
F0.9985
tp4561
a(S'your'
p4562
g53
F0.9979
tp4563
a(S'hair'
p4564
g56
F0.9988
tp4565
a(S'cooling'
p4566
g12
F0.9517
tp4567
a(S'off'
p4568
g28
F0.7912
tp4569
a(S'up'
p4570
g28
F0.6839
tp4571
a(S'in'
p4572
g48
F0.983
tp4573
a(g52
g53
F0.9968
tp4574
a(S'bun'
p4575
g56
F0.994
tp4576
a(S'on'
p4577
g48
F0.9987
tp4578
a(S'your'
p4579
g53
F0.9968
tp4580
a(S'head'
p4581
g56
F0.9985
tp4582
a(S'today'
p4583
g56
F0.9917
tp4584
asI461
(lp4585
(S'yeah'
p4586
g20
F0.9988
tp4587
asI462
(lp4588
(S'well'
p4589
g20
F0.6329
tp4590
a(S'there'
p4591
g3
F0.6939
tp4592
a(g25
g273
F0.4788
tp4593
a(S'two'
p4594
g351
F0.977
tp4595
a(S'things'
p4596
g56
F0.9945
tp4597
a(S'we'
p4598
g9
F0.984
tp4599
a(S'can'
p4600
g12
F0.9998
tp4601
a(S'do'
p4602
g12
F0.9994
tp4603
asI463
(lp4604
(S'we'
p4605
g9
F0.9969
tp4606
a(S'can'
p4607
g12
F1.0
tp4608
a(S'either'
p4609
g53
F0.5602
tp4610
a(S'keep'
p4611
g12
F0.9628
tp4612
a(S'it'
p4613
g9
F0.9483
tp4614
a(S'long'
p4615
g75
F0.8783
tp4616
a(S'enough'
p4617
g56
F0.5832
tp4618
a(S'so'
p4619
g48
F0.9413
tp4620
a(S'we'
p4621
g9
F0.9989
tp4622
a(S'can'
p4623
g12
F0.9997
tp4624
a(S'put'
p4625
g12
F0.9996
tp4626
a(S'it'
p4627
g9
F0.9887
tp4628
a(S'up'
p4629
g28
F0.9456
tp4630
a(S'in'
p4631
g48
F0.983
tp4632
a(g52
g53
F0.9968
tp4633
a(S'bun'
p4634
g56
F0.9956
tp4635
a(S'or'
p4636
g356
F0.9868
tp4637
a(S'we'
p4638
g9
F0.9979
tp4639
a(S'can'
p4640
g12
F0.9998
tp4641
a(S'cut'
p4642
g12
F0.9963
tp4643
a(S'it'
p4644
g9
F0.9261
tp4645
a(S'short'
p4646
g75
F0.9716
tp4647
asI464
(lp4648
(S'cut'
p4649
g12
F0.8288
tp4650
a(S'it'
p4651
g9
F0.9193
tp4652
a(S'short'
p4653
g75
F0.9802
tp4654
asI465
(lp4655
(S'okay'
p4656
g20
F0.9444
tp4657
a(S'laughs'
p4658
g12
F0.8936
tp4659
asI466
(lp4660
(S'well'
p4661
g20
F0.7961
tp4662
a(S'maybe'
p4663
g3
F0.9756
tp4664
a(S'you'
p4665
g9
F0.999
tp4666
a(S'and'
p4667
g356
F0.9958
tp4668
a(g31
g9
F0.9933
tp4669
a(S'should'
p4670
g12
F0.9997
tp4671
a(S'go'
p4672
g12
F0.9993
tp4673
a(S'to'
p4674
g48
F0.9984
tp4675
a(S'the'
p4676
g53
F0.9996
tp4677
a(S'hair'
p4678
g56
F0.9841
tp4679
a(S'dresser'
p4680
g56
F0.9849
tp4681
a(S'soon'
p4682
g3
F0.8637
tp4683
asI467
(lp4684
(S'xxx'
p4685
g16
F0.8437
tp4686
asI468
(lp4687
(S'how'
p4688
g3
F0.9957
tp4689
a(S'about'
p4690
g48
F0.9971
tp4691
a(S'the'
p4692
g53
F0.9996
tp4693
a(S'day'
p4694
g56
F0.9991
tp4695
a(S'after'
p4696
g48
F0.9748
tp4697
a(S'tomorrow'
p4698
g56
F0.9608
tp4699
asI469
(lp4700
(S'no'
p4701
g20
F0.9253
tp4702
asI470
(lp4703
(S'monday'
p4704
g115
F0.9456
tp4705
a(S'night'
p4706
g56
F0.9497
tp4707
a(S'tuesday'
p4708
g115
F0.578
tp4709
a(S'night'
p4710
g56
F0.9599
tp4711
asI471
(lp4712
(S'either'
p4713
g53
F0.42
tp4714
a(S'of'
p4715
g48
F0.9955
tp4716
a(S'those'
p4717
g53
F0.9605
tp4718
a(S'nights'
p4719
g56
F0.9878
tp4720
a(S'would'
p4721
g12
F0.9978
tp4722
a(S'be'
p4723
g12
F0.9998
tp4724
a(S'good'
p4725
g75
F0.997
tp4726
asI472
(lp4727
(S'tuesday'
p4728
g115
F0.9084
tp4729
asI473
(lp4730
(S'is'
p4731
g12
F0.9981
tp4732
a(S'that'
p4733
g9
F0.6116
tp4734
a(S'the'
p4735
g53
F0.9995
tp4736
a(S'day'
p4737
g56
F0.9991
tp4738
a(S'after'
p4739
g48
F0.9748
tp4740
a(S'tomorrow'
p4741
g56
F0.9608
tp4742
asI474
(lp4743
(S'uh'
p4744
g20
F0.9133
tp4745
a(S'day'
p4746
g56
F0.9828
tp4747
a(S'after'
p4748
g48
F0.9783
tp4749
a(S'tomorrow'
p4750
g56
F0.9889
tp4751
a(S'is'
p4752
g12
F0.9976
tp4753
a(S'monday'
p4754
g115
F0.83
tp4755
asI475
(lp4756
(S'then'
p4757
g3
F0.9588
tp4758
a(S'tuesday'
p4759
g115
F0.914
tp4760
asI476
(lp4761
(S'xxx'
p4762
g16
F0.8437
tp4763
asI477
(lp4764
(S'could'
p4765
g12
F0.9902
tp4766
a(S'cut'
p4767
g12
F0.9695
tp4768
a(S'it'
p4769
g9
F0.9897
tp4770
a(S'there'
p4771
g3
F0.8403
tp4772
asI478
(lp4773
(S'mm'
p4774
g273
F0.2933
tp4775
a(S'you'
p4776
g9
F0.9986
tp4777
a(S'think'
p4778
g12
F0.9988
tp4779
a(S'so'
p4780
g3
F0.7818
tp4781
asI479
(lp4782
(S'that'
p4783
g9
F0.4727
tp4784
a(g25
g273
F0.5145
tp4785
a(S'pretty'
p4786
g3
F0.5926
tp4787
asI480
(lp4788
(S'mm'
p4789
g20
F0.627
tp4790
asI481
(lp4791
(S'candles'
p4792
g56
F0.8857
tp4793
a(S'make'
p4794
g12
F0.982
tp4795
a(S'shadows'
p4796
g56
F0.9923
tp4797
a(S'on'
p4798
g48
F0.9992
tp4799
a(S'the'
p4800
g53
F0.9994
tp4801
a(S'ceiling'
p4802
g56
F0.9956
tp4803
a(S'huh'
p4804
g20
F0.9516
tp4805
asI482
(lp4806
(S'mm'
p4807
g20
F0.627
tp4808
asI483
(lp4809
(g31
g9
F0.9836
tp4810
a(S'feel'
p4811
g12
F0.9996
tp4812
a(S'like'
p4813
g48
F0.9452
tp4814
a(g52
g53
F0.9932
tp4815
a(S'bit'
p4816
g56
F0.9698
tp4817
a(S'of'
p4818
g48
F0.9992
tp4819
a(S'my'
p4820
g53
F0.9991
tp4821
a(S'tooth'
p4822
g56
F0.999
tp4823
a(S'fell'
p4824
g12
F0.9851
tp4825
a(S'out'
p4826
g28
F0.9085
tp4827
asI484
(lp4828
(g31
g9
F0.9635
tp4829
a(S'don'
p4830
g12
F0.9231
tp4831
a(g142
g12
F0.3155
tp4832
a(S'think'
p4833
g12
F0.9984
tp4834
a(g52
g53
F0.9896
tp4835
a(S'bit'
p4836
g56
F0.9698
tp4837
a(S'of'
p4838
g48
F0.9985
tp4839
a(g52
g53
F0.999
tp4840
a(S'tooth'
p4841
g56
F0.9989
tp4842
a(S'could'
p4843
g12
F0.9949
tp4844
a(S'have'
p4845
g12
F0.9984
tp4846
a(S'fallen'
p4847
g12
F0.9951
tp4848
a(S'out'
p4849
g28
F0.9287
tp4850
asI485
(lp4851
(S'think'
p4852
g12
F0.9989
tp4853
a(S'you'
p4854
g9
F0.992
tp4855
a(S'bit'
p4856
g12
F0.6996
tp4857
a(S'something'
p4858
g56
F0.9745
tp4859
a(S'that'
p4860
g48
F0.7258
tp4861
a(S'made'
p4862
g12
F0.999
tp4863
a(S'your'
p4864
g53
F0.9911
tp4865
a(S'tooth'
p4866
g56
F0.9994
tp4867
a(S'feel'
p4868
g12
F0.9691
tp4869
a(S'funny'
p4870
g75
F0.999
tp4871
asI486
(lp4872
(S'hm'
p4873
g20
F0.995
tp4874
asI487
(lp4875
(S'xxx'
p4876
g16
F0.6973
tp4877
a(S'lasagna'
p4878
g56
F0.5711
tp4879
a(S'that'
p4880
g48
F0.8124
tp4881
a(g31
g9
F0.9868
tp4882
a(S'bited'
p4883
g12
F0.9261
tp4884
a(S'n'
p4885
g356
F0.6401
tp4886
a(S'into'
p4887
g48
F0.9811
tp4888
asI488
(lp4889
(S'xxx'
p4890
g16
F0.6474
tp4891
a(S'got'
p4892
g12
F0.9676
tp4893
a(S'one'
p4894
g351
F0.8488
tp4895
a(S'big'
p4896
g75
F0.9799
tp4897
a(S'tooth'
p4898
g56
F0.9987
tp4899
asI489
(lp4900
(S'that'
p4901
g9
F0.9115
tp4902
a(S'is'
p4903
g12
F0.9949
tp4904
a(S'very'
p4905
g3
F0.9916
tp4906
a(S'soft'
p4907
g75
F0.998
tp4908
asI490
(lp4909
(S'mm'
p4910
g20
F0.627
tp4911
asI491
(lp4912
(S'it'
p4913
g9
F0.9949
tp4914
a(S'felt'
p4915
g12
F0.9987
tp4916
a(S'like'
p4917
g48
F0.9008
tp4918
a(S'my'
p4919
g53
F0.9919
tp4920
a(S'gum'
p4921
g56
F0.9963
tp4922
asI492
(lp4923
(S'sighs'
p4924
g12
F0.7567
tp4925
asI493
(lp4926
(S'there'
p4927
g457
F0.4664
tp4928
a(g25
g273
F0.6539
tp4929
a(g52
g53
F0.994
tp4930
a(S'little'
p4931
g75
F0.9971
tp4932
a(S'piece'
p4933
g56
F0.999
tp4934
a(S'of'
p4935
g48
F0.9968
tp4936
a(S'garlic'
p4937
g56
F0.951
tp4938
a(S'bread'
p4939
g56
F0.998
tp4940
a(S'left'
p4941
g12
F0.7119
tp4942
asI494
(lp4943
(S'you'
p4944
g9
F0.9927
tp4945
a(S'll'
p4946
g12
F0.6972
tp4947
a(S'survive'
p4948
g12
F0.9988
tp4949
a(S'you'
p4950
g9
F0.9943
tp4951
a(S're'
p4952
g12
F0.6675
tp4953
a(S'xxx'
p4954
g16
F0.8651
tp4955
asI495
(lp4956
(S'guess'
p4957
g12
F0.8849
tp4958
a(g31
g9
F0.9931
tp4959
a(S'll'
p4960
g12
F0.7273
tp4961
a(S'have'
p4962
g12
F0.9986
tp4963
a(S'to'
p4964
g48
F0.9964
tp4965
a(S'stop'
p4966
g12
F0.9956
tp4967
a(S'eating'
p4968
g12
F0.9937
tp4969
a(S'lasagna'
p4970
g56
F0.9026
tp4971
a(S'after'
p4972
g48
F0.9955
tp4973
a(S'this'
p4974
g9
F0.9553
tp4975
a(S'be'
p4976
g12
F0.9864
tp4977
a(S'cause'
p4978
g48
F0.8325
tp4979
a(S'there'
p4980
g3
F0.6558
tp4981
a(S'willn'
p4982
g115
F0.2166
tp4983
a(g142
g115
F0.3227
tp4984
a(S'be'
p4985
g12
F0.9931
tp4986
a(S'any'
p4987
g53
F0.9606
tp4988
a(S'garlic'
p4989
g56
F0.9924
tp4990
a(S'bread'
p4991
g56
F0.9987
tp4992
a(S'to'
p4993
g48
F0.9979
tp4994
a(S'go'
p4995
g12
F0.9992
tp4996
a(S'with'
p4997
g48
F0.9995
tp4998
a(S'it'
p4999
g9
F0.9969
tp5000
asI496
(lp5001
(S'what'
p5002
g9
F0.9739
tp5003
a(g25
g12
F0.4505
tp5004
a(S'that'
p5005
g9
F0.8603
tp5006
asI497
(lp5007
(S'another'
p5008
g53
F0.9871
tp5009
a(S'drink'
p5010
g56
F0.9481
tp5011
asI498
(lp5012
(S'it'
p5013
g9
F0.9858
tp5014
a(g25
g12
F0.4469
tp5015
a(S'tequila'
p5016
g56
F0.8088
tp5017
asI499
(lp5018
(S'you'
p5019
g9
F0.9754
tp5020
a(S're'
p5021
g12
F0.7883
tp5022
a(S'squeezing'
p5023
g12
F0.9891
tp5024
a(S'lemon'
p5025
g56
F0.894
tp5026
a(S'in'
p5027
g48
F0.9964
tp5028
a(S'it'
p5029
g9
F0.9961
tp5030
asI500
(lp5031
(S'drink'
p5032
g12
F0.9626
tp5033
a(S'it'
p5034
g9
F0.9649
tp5035
a(S'all'
p5036
g53
F0.883
tp5037
asI501
(lp5038
(S'you'
p5039
g9
F0.997
tp5040
a(S'eat'
p5041
g12
F0.9995
tp5042
a(S'the'
p5043
g53
F0.999
tp5044
a(S'lemon'
p5045
g56
F0.9217
tp5046
a(S'after'
p5047
g48
F0.9954
tp5048
a(S'you'
p5049
g9
F0.9996
tp5050
a(S'drink'
p5051
g12
F0.9847
tp5052
a(S'tequila'
p5053
g56
F0.8801
tp5054
asI502
(lp5055
(g31
g9
F0.9894
tp5056
a(S'guess'
p5057
g12
F1.0
tp5058
a(S'you'
p5059
g9
F0.9996
tp5060
a(S'do'
p5061
g12
F0.9989
tp5062
asI503
(lp5063
(g533
g351
F0.9777
tp5064
a(S'pops'
p5065
g56
F0.9247
tp5066
a(S'cheek'
p5067
g56
F0.9961
tp5068
asI504
(lp5069
(S'laughs'
p5070
g12
F0.9102
tp5071
asI505
(lp5072
(S'lemon'
p5073
g56
F0.6296
tp5074
asI506
(lp5075
(g31
g9
F0.9858
tp5076
a(S'wonder'
p5077
g12
F0.9844
tp5078
a(S'what'
p5079
g9
F0.9652
tp5080
a(g31
g9
F0.9893
tp5081
a(S'll'
p5082
g12
F0.7716
tp5083
a(S'be'
p5084
g12
F0.9967
tp5085
a(S'when'
p5086
g3
F0.9976
tp5087
a(g31
g9
F0.989
tp5088
a(S'grow'
p5089
g12
F0.9999
tp5090
a(S'up'
p5091
g28
F0.9821
tp5092
asI507
(lp5093
(g31
g9
F0.9873
tp5094
a(S'can'
p5095
g12
F0.9996
tp5096
a(g142
g12
F0.8136
tp5097
a(S'make'
p5098
g12
F0.9967
tp5099
a(S'my'
p5100
g53
F0.9987
tp5101
a(S'mind'
p5102
g56
F0.9845
tp5103
a(S'up'
p5104
g28
F0.4846
tp5105
asI508
(lp5106
(g31
g9
F0.9873
tp5107
a(S'can'
p5108
g12
F0.9996
tp5109
a(g142
g12
F0.8136
tp5110
a(S'make'
p5111
g12
F0.9967
tp5112
a(S'my'
p5113
g53
F0.9987
tp5114
a(S'mind'
p5115
g56
F0.984
tp5116
a(S'up'
p5117
g48
F0.583
tp5118
a(S'if'
p5119
g48
F0.985
tp5120
a(g31
g9
F0.9972
tp5121
a(S'want'
p5122
g12
F0.9999
tp5123
a(S'to'
p5124
g48
F0.9912
tp5125
a(S'be'
p5126
g12
F0.9998
tp5127
a(g52
g53
F0.9926
tp5128
a(S'doctor'
p5129
g56
F0.9975
tp5130
a(g52
g53
F0.9827
tp5131
a(S'nurse'
p5132
g56
F0.9988
tp5133
asI509
(lp5134
(S'or'
p5135
g356
F0.9857
tp5136
a(S'if'
p5137
g48
F0.9774
tp5138
a(g31
g9
F0.997
tp5139
a(S'want'
p5140
g12
F0.9999
tp5141
a(S'to'
p5142
g48
F0.9922
tp5143
a(S'work'
p5144
g12
F0.7396
tp5145
a(S'in'
p5146
g48
F0.9108
tp5147
a(g52
g53
F0.9833
tp5148
a(S'l'
p5149
g56
F0.8205
tp5150
a(S'library'
p5151
g56
F0.9774
tp5152
asI510
(lp5153
(S'if'
p5154
g48
F0.984
tp5155
a(g31
g9
F0.9973
tp5156
a(S'want'
p5157
g12
F0.9999
tp5158
a(S'to'
p5159
g48
F0.9909
tp5160
a(S'be'
p5161
g12
F0.9999
tp5162
a(g52
g53
F0.9882
tp5163
a(S'librarian'
p5164
g56
F0.9952
tp5165
asI511
(lp5166
(S'or'
p5167
g356
F0.9857
tp5168
a(S'if'
p5169
g48
F0.9774
tp5170
a(g31
g9
F0.997
tp5171
a(S'want'
p5172
g12
F0.9999
tp5173
a(S'to'
p5174
g48
F0.9912
tp5175
a(S'be'
p5176
g12
F0.9976
tp5177
a(S'xxx'
p5178
g16
F0.3051
tp5179
a(S'job'
p5180
g56
F0.9515
tp5181
asI512
(lp5182
(S'like'
p5183
g48
F0.7506
tp5184
a(S'moms'
p5185
g56
F0.9263
tp5186
asI513
(lp5187
(S'you'
p5188
g9
F0.9945
tp5189
a(S'were'
p5190
g12
F0.9984
tp5191
a(S'thinking'
p5192
g12
F0.9977
tp5193
a(S'about'
p5194
g48
F0.9686
tp5195
a(S'being'
p5196
g12
F0.9971
tp5197
a(g52
g53
F0.9983
tp5198
a(S'teacher'
p5199
g56
F0.9979
tp5200
a(S'at'
p5201
g48
F0.9996
tp5202
a(S'one'
p5203
g351
F0.937
tp5204
a(S'point'
p5205
g56
F0.9849
tp5206
a(S'too'
p5207
g3
F0.8797
tp5208
a(S'weren'
p5209
g12
F0.5595
tp5210
a(g142
g12
F0.4934
tp5211
a(S'you'
p5212
g9
F0.9978
tp5213
asI514
(lp5214
(S'yeah'
p5215
g20
F0.9988
tp5216
asI515
(lp5217
(g31
g9
F0.9635
tp5218
a(S'don'
p5219
g12
F0.9231
tp5220
a(g142
g56
F0.2457
tp5221
a(S'know'
p5222
g12
F0.997
tp5223
a(S'if'
p5224
g48
F0.9869
tp5225
a(g31
g9
F0.9949
tp5226
a(S'll'
p5227
g12
F0.7716
tp5228
a(S'be'
p5229
g12
F0.9993
tp5230
a(g52
g53
F0.9926
tp5231
a(S'teacher'
p5232
g56
F0.9911
tp5233
a(S'for'
p5234
g48
F0.9998
tp5235
a(g52
g53
F0.9969
tp5236
a(S'lot'
p5237
g56
F0.985
tp5238
a(S'of'
p5239
g48
F0.996
tp5240
a(S'kids'
p5241
g56
F0.9488
tp5242
asI516
(lp5243
(S'that'
p5244
g9
F0.3839
tp5245
a(g31
g9
F0.9942
tp5246
a(S'have'
p5247
g12
F0.9998
tp5248
a(S'to'
p5249
g48
F0.9977
tp5250
a(S'handle'
p5251
g12
F0.9991
tp5252
asI517
(lp5253
(S'well'
p5254
g20
F0.741
tp5255
a(S'you'
p5256
g9
F0.9966
tp5257
a(S've'
p5258
g12
F0.8253
tp5259
a(S'got'
p5260
g12
F0.9901
tp5261
a(S'plenty'
p5262
g56
F0.9494
tp5263
a(S'of'
p5264
g48
F0.9963
tp5265
a(S'time'
p5266
g56
F0.992
tp5267
a(S'to'
p5268
g48
F0.9986
tp5269
a(S'decide'
p5270
g12
F0.997
tp5271
asI518
(lp5272
(g31
g9
F0.989
tp5273
a(S'think'
p5274
g12
F1.0
tp5275
a(S'the'
p5276
g53
F0.9987
tp5277
a(S'thing'
p5278
g56
F0.9989
tp5279
a(S'to'
p5280
g48
F0.9948
tp5281
a(S'do'
p5282
g12
F0.9977
tp5283
a(S'is'
p5284
g12
F0.9983
tp5285
a(S'to'
p5286
g48
F0.983
tp5287
a(S'see'
p5288
g12
F0.9958
tp5289
a(S'what'
p5290
g53
F0.4891
tp5291
a(S'kind'
p5292
g56
F0.9937
tp5293
a(S'of'
p5294
g48
F0.9965
tp5295
a(S'things'
p5296
g56
F0.9738
tp5297
a(S'you'
p5298
g9
F0.9893
tp5299
a(S'like'
p5300
g12
F0.9271
tp5301
a(S'to'
p5302
g48
F0.9337
tp5303
a(S'do'
p5304
g12
F0.9998
tp5305
a(S'as'
p5306
g48
F0.9224
tp5307
a(S'you'
p5308
g9
F0.9978
tp5309
a(S're'
p5310
g12
F0.8224
tp5311
a(S'growing'
p5312
g12
F0.9977
tp5313
a(S'up'
p5314
g28
F0.9764
tp5315
asI519
(lp5316
(S'be'
p5317
g12
F0.9727
tp5318
a(S'cause'
p5319
g48
F0.8834
tp5320
a(S'that'
p5321
g48
F0.5986
tp5322
a(S'they'
p5323
g9
F0.9931
tp5324
a(S'might'
p5325
g12
F0.999
tp5326
a(S'be'
p5327
g12
F0.9999
tp5328
a(S'the'
p5329
g53
F0.997
tp5330
a(S'kinds'
p5331
g56
F0.9931
tp5332
a(S'of'
p5333
g48
F0.9965
tp5334
a(S'things'
p5335
g56
F0.9738
tp5336
a(S'you'
p5337
g9
F0.975
tp5338
a(g117
g12
F0.8274
tp5339
a(S'like'
p5340
g12
F0.527
tp5341
a(S'to'
p5342
g48
F0.9337
tp5343
a(S'do'
p5344
g12
F0.9998
tp5345
a(S'for'
p5346
g48
F0.9962
tp5347
a(g52
g53
F0.9977
tp5348
a(S'job'
p5349
g56
F0.9953
tp5350
asI520
(lp5351
(g31
g9
F0.9635
tp5352
a(S'don'
p5353
g12
F0.9231
tp5354
a(g142
g56
F0.2457
tp5355
a(S'know'
p5356
g12
F0.997
tp5357
a(S'if'
p5358
g48
F0.9869
tp5359
a(g31
g9
F0.9972
tp5360
a(S'want'
p5361
g12
F0.9999
tp5362
a(S'to'
p5363
g48
F0.9912
tp5364
a(S'be'
p5365
g12
F0.9989
tp5366
a(S'working'
p5367
g12
F0.9992
tp5368
a(g52
g53
F0.9977
tp5369
a(S'store'
p5370
g56
F0.9962
tp5371
asI521
(lp5372
(S'well'
p5373
g20
F0.7961
tp5374
a(S'maybe'
p5375
g3
F0.9783
tp5376
a(S'when'
p5377
g3
F0.9931
tp5378
a(S'you'
p5379
g9
F0.9913
tp5380
a(S're'
p5381
g12
F0.938
tp5382
a(g52
g53
F0.9969
tp5383
a(S'teenager'
p5384
g56
F0.9946
tp5385
a(S'you'
p5386
g9
F0.996
tp5387
a(S'can'
p5388
g12
F0.9995
tp5389
a(S'get'
p5390
g12
F0.9999
tp5391
a(g52
g53
F0.9981
tp5392
a(S'job'
p5393
g56
F0.9945
tp5394
a(S'working'
p5395
g12
F0.9934
tp5396
a(S'in'
p5397
g48
F0.9259
tp5398
a(g52
g53
F0.9965
tp5399
a(S'store'
p5400
g56
F0.9905
tp5401
a(S'and'
p5402
g356
F0.9968
tp5403
a(S'see'
p5404
g12
F0.9944
tp5405
a(S'if'
p5406
g48
F0.999
tp5407
a(S'you'
p5408
g9
F0.9995
tp5409
a(S'like'
p5410
g12
F0.8565
tp5411
a(S'it'
p5412
g9
F0.9983
tp5413
asI522
(lp5414
(S'like'
p5415
g48
F0.6674
tp5416
a(S'big'
p5417
g75
F0.9219
tp5418
a(g117
g56
F0.5885
tp5419
asI523
(lp5420
(S'yeah'
p5421
g20
F0.9878
tp5422
a(S'big'
p5423
g75
F0.8822
tp5424
a(g117
g56
F0.7245
tp5425
a(S'or'
p5426
g356
F0.9952
tp5427
a(g52
g53
F0.991
tp5428
a(S'department'
p5429
g56
F0.9919
tp5430
a(S'store'
p5431
g56
F0.9785
tp5432
asI524
(lp5433
(S'where'
p5434
g3
F0.9648
tp5435
a(S'they'
p5436
g9
F0.9913
tp5437
a(S'sell'
p5438
g12
F0.994
tp5439
a(S'clothes'
p5440
g56
F0.9941
tp5441
a(S'and'
p5442
g356
F0.9982
tp5443
a(S'stuff'
p5444
g56
F0.9732
tp5445
asI525
(lp5446
(g31
g9
F0.9143
tp5447
a(g117
g12
F0.713
tp5448
a(S'rather'
p5449
g3
F0.9964
tp5450
a(S'go'
p5451
g12
F0.9973
tp5452
a(S'to'
p5453
g48
F0.862
tp5454
a(S'big'
p5455
g75
F0.6365
tp5456
a(g117
g56
F0.4949
tp5457
asI526
(lp5458
(S'well'
p5459
g20
F0.9502
tp5460
a(S'that'
p5461
g9
F0.8535
tp5462
a(g25
g12
F0.5547
tp5463
a(S'nearby'
p5464
g75
F0.9768
tp5465
asI527
(lp5466
(S'it'
p5467
g9
F0.9944
tp5468
a(S'would'
p5469
g12
F0.9994
tp5470
a(S'be'
p5471
g12
F1.0
tp5472
a(g52
g53
F0.9769
tp5473
a(S'good'
p5474
g75
F0.9986
tp5475
a(S'job'
p5476
g56
F0.9945
tp5477
asI528
(lp5478
(S'close'
p5479
g75
F0.7231
tp5480
asI529
(lp5481
(S'first'
p5482
g75
F0.9804
tp5483
a(S'job'
p5484
g56
F0.9954
tp5485
asI530
(lp5486
(g52
g53
F0.9924
tp5487
a(S'lot'
p5488
g56
F0.9795
tp5489
a(S'of'
p5490
g48
F0.9952
tp5491
a(S'kids'
p5492
g56
F0.8956
tp5493
a(S'have'
p5494
g12
F0.9925
tp5495
a(S'jobs'
p5496
g56
F0.9937
tp5497
a(S'as'
p5498
g48
F0.9801
tp5499
a(S'teenagers'
p5500
g56
F0.9804
tp5501
asI531
(lp5502
(S'and'
p5503
g356
F0.9981
tp5504
a(S'for'
p5505
g48
F0.9884
tp5506
a(S'things'
p5507
g56
F0.9785
tp5508
a(S'they'
p5509
g9
F0.8862
tp5510
a(S're'
p5511
g12
F0.751
tp5512
a(S'not'
p5513
g3
F0.9975
tp5514
a(S'planing'
p5515
g12
F0.9866
tp5516
a(S'on'
p5517
g48
F0.9395
tp5518
a(S'doing'
p5519
g12
F0.964
tp5520
a(S'when'
p5521
g3
F0.971
tp5522
a(S'they'
p5523
g9
F0.9757
tp5524
a(S'grow'
p5525
g12
F0.9997
tp5526
a(S'up'
p5527
g28
F0.9873
tp5528
asI532
(lp5529
(S'but'
p5530
g356
F0.9946
tp5531
a(S'they'
p5532
g9
F0.966
tp5533
a(S're'
p5534
g12
F0.8164
tp5535
a(S'good'
p5536
g75
F0.9967
tp5537
a(S'jobs'
p5538
g56
F0.9965
tp5539
a(S'for'
p5540
g48
F0.9994
tp5541
a(S'teenagers'
p5542
g56
F0.9696
tp5543
a(S'to'
p5544
g48
F0.9919
tp5545
a(S'do'
p5546
g12
F0.9994
tp5547
asI533
(lp5548
(S'be'
p5549
g12
F0.9727
tp5550
a(S'cause'
p5551
g48
F0.9573
tp5552
a(S'they'
p5553
g9
F0.9949
tp5554
a(S'can'
p5555
g12
F0.9997
tp5556
a(S'work'
p5557
g12
F0.7718
tp5558
a(S'for'
p5559
g48
F0.9981
tp5560
a(g52
g53
F0.9977
tp5561
a(S'few'
p5562
g75
F0.9179
tp5563
a(S'hours'
p5564
g56
F0.9985
tp5565
a(S'around'
p5566
g48
F0.9568
tp5567
a(S'school'
p5568
g56
F0.9926
tp5569
a(S'and'
p5570
g356
F0.9985
tp5571
a(S'stuff'
p5572
g56
F0.9732
tp5573
asI534
(lp5574
(S'and'
p5575
g356
F0.9979
tp5576
a(S'in'
p5577
g48
F0.9876
tp5578
a(S'the'
p5579
g53
F0.9992
tp5580
a(S'summers'
p5581
g56
F0.977
tp5582
asI535
(lp5583
(S'well'
p5584
g20
F0.6793
tp5585
a(S'one'
p5586
g351
F0.9541
tp5587
a(S'thing'
p5588
g56
F0.996
tp5589
a(S'to'
p5590
g48
F0.9951
tp5591
a(S'do'
p5592
g12
F0.9977
tp5593
a(S'is'
p5594
g12
F0.998
tp5595
a(S'like'
p5596
g48
F0.6946
tp5597
a(S'if'
p5598
g48
F0.996
tp5599
a(S'you'
p5600
g9
F0.9998
tp5601
a(S'think'
p5602
g12
F0.9999
tp5603
a(S'you'
p5604
g9
F0.9966
tp5605
a(S're'
p5606
g12
F0.8745
tp5607
a(S'interested'
p5608
g12
F0.6975
tp5609
a(S'in'
p5610
g48
F0.9215
tp5611
a(S'teaching'
p5612
g56
F0.6138
tp5613
a(S'remember'
p5614
g12
F0.9726
tp5615
a(S'how'
p5616
g3
F0.9933
tp5617
a(S'you'
p5618
g9
F0.9998
tp5619
a(S'had'
p5620
g12
F0.9982
tp5621
a(S'kids'
p5622
g56
F0.9815
tp5623
a(S'at'
p5624
g48
F0.9994
tp5625
a(S'saint'
p5626
g115
F0.5287
tp5627
a(S'agnus'
p5628
g115
F0.8154
tp5629
asI536
(lp5630
(S'mhm'
p5631
g20
F0.9747
tp5632
asI537
(lp5633
(S'high'
p5634
g75
F0.8415
tp5635
a(S'school'
p5636
g56
F0.9987
tp5637
a(S'kids'
p5638
g56
F0.9754
tp5639
a(S'that'
p5640
g48
F0.8833
tp5641
a(S'came'
p5642
g12
F0.9875
tp5643
a(S'in'
p5644
g48
F0.5072
tp5645
a(S'and'
p5646
g356
F0.9962
tp5647
a(S'helped'
p5648
g12
F0.9993
tp5649
a(S'in'
p5650
g48
F0.9804
tp5651
a(S'the'
p5652
g53
F0.9994
tp5653
a(S'afternoon'
p5654
g56
F0.9981
tp5655
asI538
(lp5656
(S'there'
p5657
g457
F0.6709
tp5658
a(S'were'
p5659
g12
F0.9197
tp5660
a(S'kids'
p5661
g56
F0.974
tp5662
a(S'from'
p5663
g48
F0.9995
tp5664
a(S'emmy'
p5665
g115
F0.9568
tp5666
a(g25
g273
F0.402
tp5667
a(S'school'
p5668
g56
F0.9859
tp5669
asI539
(lp5670
(S'holy'
p5671
g75
F0.4677
tp5672
a(S'name'
p5673
g56
F0.998
tp5674
asI540
(lp5675
(S'there'
p5676
g457
F0.6065
tp5677
a(S'was'
p5678
g12
F0.9857
tp5679
a(S'one'
p5680
g351
F0.8163
tp5681
a(S'girl'
p5682
g56
F0.9971
tp5683
a(S'from'
p5684
g48
F0.998
tp5685
a(S'holy'
p5686
g75
F0.7102
tp5687
a(S'name'
p5688
g56
F0.9966
tp5689
a(S'that'
p5690
g48
F0.9122
tp5691
a(S'came'
p5692
g12
F0.9875
tp5693
a(S'in'
p5694
g48
F0.7455
tp5695
a(S'in'
p5696
g48
F0.9872
tp5697
a(S'the'
p5698
g53
F0.9995
tp5699
a(S'afternoons'
p5700
g56
F0.9943
tp5701
asI541
(lp5702
(g31
g9
F0.9896
tp5703
a(S'forget'
p5704
g12
F0.9997
tp5705
a(S'what'
p5706
g9
F0.9893
tp5707
a(S'her'
p5708
g53
F0.9409
tp5709
a(S'name'
p5710
g56
F0.9994
tp5711
a(S'was'
p5712
g12
F0.9893
tp5713
asI542
(lp5714
(S'teacher'
p5715
g56
F0.8546
tp5716
a(g25
g273
F0.6447
tp5717
a(S'helpers'
p5718
g56
F0.9703
tp5719
asI543
(lp5720
(S'teacher'
p5721
g56
F0.7448
tp5722
a(g25
g273
F0.6464
tp5723
a(S'helpers'
p5724
g56
F0.9493
tp5725
a(S'like'
p5726
g48
F0.9313
tp5727
a(S'that'
p5728
g9
F0.9294
tp5729
asI544
(lp5730
(S'they'
p5731
g9
F0.9866
tp5732
a(S'were'
p5733
g12
F0.9976
tp5734
a(S'high'
p5735
g75
F0.9631
tp5736
a(S'school'
p5737
g56
F0.999
tp5738
a(S'students'
p5739
g56
F0.9893
tp5740
a(S'that'
p5741
g48
F0.8639
tp5742
a(S'came'
p5743
g12
F0.9875
tp5744
a(S'in'
p5745
g48
F0.5072
tp5746
a(S'and'
p5747
g356
F0.9962
tp5748
a(S'helped'
p5749
g12
F0.9993
tp5750
a(S'in'
p5751
g48
F0.9779
tp5752
a(S'the'
p5753
g53
F0.9995
tp5754
a(S'afternoons'
p5755
g56
F0.9943
tp5756
asI545
(lp5757
(S'you'
p5758
g9
F0.9968
tp5759
a(S'could'
p5760
g12
F0.9998
tp5761
a(S'do'
p5762
g12
F0.9995
tp5763
a(S'something'
p5764
g56
F0.9575
tp5765
a(S'like'
p5766
g48
F0.9171
tp5767
a(S'that'
p5768
g9
F0.944
tp5769
a(S'and'
p5770
g356
F0.9968
tp5771
a(S'try'
p5772
g12
F0.9984
tp5773
a(S'it'
p5774
g9
F0.9914
tp5775
a(S'to'
p5776
g48
F0.9931
tp5777
a(S'see'
p5778
g12
F0.9987
tp5779
a(S'if'
p5780
g48
F0.9987
tp5781
a(S'it'
p5782
g9
F0.9984
tp5783
a(g25
g12
F0.7251
tp5784
a(S'something'
p5785
g56
F0.8716
tp5786
a(S'you'
p5787
g9
F0.9814
tp5788
a(g117
g12
F0.8274
tp5789
a(S'like'
p5790
g12
F0.527
tp5791
a(S'to'
p5792
g48
F0.9337
tp5793
a(S'do'
p5794
g12
F0.9997
tp5795
a(S'when'
p5796
g3
F0.9859
tp5797
a(S'you'
p5798
g9
F0.9985
tp5799
a(S'grow'
p5800
g12
F0.9997
tp5801
a(S'up'
p5802
g28
F0.9643
tp5803
a(S'anyway'
p5804
g3
F0.9868
tp5805
asI546
(lp5806
(g31
g9
F0.9811
tp5807
a(S'just'
p5808
g3
F0.999
tp5809
a(S'found'
p5810
g12
F0.9997
tp5811
a(g52
g53
F0.9986
tp5812
a(S'face'
p5813
g56
F0.9944
tp5814
a(S'with'
p5815
g48
F0.9992
tp5816
a(S'hair'
p5817
g56
F0.974
tp5818
asI547
(lp5819
(S'oh'
p5820
g20
F0.9987
tp5821
a(S'yeah'
p5822
g20
F0.9997
tp5823
asI548
(lp5824
(S'little'
p5825
g75
F0.9863
tp5826
a(S'eyes'
p5827
g56
F0.9846
tp5828
a(S'lipstick'
p5829
g56
F0.9799
tp5830
a(S'and'
p5831
g356
F0.9906
tp5832
a(S'the'
p5833
g53
F0.9993
tp5834
a(S'hair'
p5835
g56
F0.9978
tp5836
asI549
(lp5837
(S'mm'
p5838
g20
F0.627
tp5839
asI550
(lp5840
(S'did'
p5841
g12
F0.9986
tp5842
a(S'you'
p5843
g9
F0.9986
tp5844
a(S'find'
p5845
g12
F0.9994
tp5846
a(S'anything'
p5847
g56
F0.9934
tp5848
a(S'yet'
p5849
g3
F0.9678
tp5850
asI551
(lp5851
(g31
g9
F0.9891
tp5852
a(S'found'
p5853
g12
F0.9997
tp5854
a(S'lasagna'
p5855
g115
F0.5509
tp5856
a(S'to'
p5857
g48
F0.9943
tp5858
a(S'go'
p5859
g12
F0.999
tp5860
a(S'on'
p5861
g48
F0.985
tp5862
a(S'my'
p5863
g53
F0.9973
tp5864
a(S'fork'
p5865
g56
F0.9978
tp5866
asI552
(lp5867
(g31
g9
F0.9891
tp5868
a(S'found'
p5869
g12
F0.9999
tp5870
a(g52
g53
F0.9909
tp5871
a(S'mountain'
p5872
g56
F0.9949
tp5873
asI553
(lp5874
(S'you'
p5875
g9
F0.9984
tp5876
a(S'did'
p5877
g12
F0.9978
tp5878
asI554
(lp5879
(S'right'
p5880
g20
F0.4489
tp5881
a(S'there'
p5882
g3
F0.4509
tp5883
asI555
(lp5884
(g31
g9
F0.953
tp5885
a(g41
g12
F0.9839
tp5886
a(S'making'
p5887
g12
F0.9989
tp5888
a(g52
g53
F0.9984
tp5889
a(S'little'
p5890
g75
F0.9953
tp5891
a(S'face'
p5892
g56
F0.9949
tp5893
asI556
(lp5894
(S'mine'
p5895
g9
F0.9576
tp5896
a(S'is'
p5897
g12
F0.9954
tp5898
a(S'bald'
p5899
g75
F0.998
tp5900
asI557
(lp5901
(S'now'
p5902
g3
F0.9901
tp5903
a(g31
g9
F0.9949
tp5904
a(S'ate'
p5905
g12
F0.9999
tp5906
a(S'her'
p5907
g9
F0.7156
tp5908
asI558
(lp5909
(S'laughs'
p5910
g12
F0.9102
tp5911
asI559
(lp5912
(S'the'
p5913
g53
F0.999
tp5914
a(S'best'
p5915
g75
F0.9984
tp5916
a(S'thing'
p5917
g56
F0.9996
tp5918
a(S'to'
p5919
g48
F0.9955
tp5920
a(S'do'
p5921
g12
F0.9996
tp5922
asI560
(lp5923
(S'yep'
p5924
g20
F0.9977
tp5925
asI561
(lp5926
(S'xxx'
p5927
g16
F0.6041
tp5928
a(S'under'
p5929
g48
F0.8162
tp5930
a(S'breath'
p5931
g56
F0.9965
tp5932
asI562
(lp5933
(g31
g9
F0.989
tp5934
a(S'think'
p5935
g12
F0.9997
tp5936
a(S'thirds'
p5937
g56
F0.9207
tp5938
a(S'is'
p5939
g12
F0.996
tp5940
a(S'probably'
p5941
g3
F0.9988
tp5942
a(S'as'
p5943
g3
F0.9527
tp5944
a(S'much'
p5945
g75
F0.8239
tp5946
a(S'as'
p5947
g48
F0.9917
tp5948
a(S'you'
p5949
g9
F0.9997
tp5950
a(S'should'
p5951
g12
F0.9997
tp5952
a(S'eat'
p5953
g12
F0.9931
tp5954
asI563
(lp5955
(S'you'
p5956
g9
F0.9926
tp5957
a(S'don'
p5958
g12
F0.8675
tp5959
a(g142
g56
F0.2503
tp5960
a(S'want'
p5961
g12
F0.9959
tp5962
a(S'to'
p5963
g48
F0.9971
tp5964
a(S'get'
p5965
g12
F0.9999
tp5966
a(g52
g53
F0.9988
tp5967
a(S'belly'
p5968
g56
F0.9967
tp5969
a(S'ache'
p5970
g12
F0.9434
tp5971
asI564
(lp5972
(S'mm'
p5973
g20
F0.627
tp5974
asI565
(lp5975
(S'you'
p5976
g9
F0.9969
tp5977
a(S'can'
p5978
g12
F0.9998
tp5979
a(S'finish'
p5980
g12
F0.9998
tp5981
a(S'your'
p5982
g53
F0.9923
tp5983
a(S'garlic'
p5984
g56
F0.9959
tp5985
a(S'bread'
p5986
g56
F0.9983
tp5987
asI566
(lp5988
(S'you'
p5989
g9
F0.9969
tp5990
a(S'can'
p5991
g12
F0.9998
tp5992
a(S'scrape'
p5993
g12
F0.9997
tp5994
a(S'all'
p5995
g53
F0.5989
tp5996
a(S'the'
p5997
g53
F0.9994
tp5998
a(S'stuff'
p5999
g56
F0.9981
tp6000
a(S'on'
p6001
g48
F0.999
tp6002
a(S'your'
p6003
g53
F0.9945
tp6004
a(S'plate'
p6005
g56
F0.9992
tp6006
a(S'with'
p6007
g48
F0.9988
tp6008
a(S'xxx'
p6009
g16
F0.6386
tp6010
asI567
(lp6011
(S'with'
p6012
g48
F0.9963
tp6013
a(g52
g53
F0.9981
tp6014
a(S'couple'
p6015
g56
F0.9643
tp6016
a(S'bites'
p6017
g56
F0.6622
tp6018
asI568
(lp6019
(S'any'
p6020
g53
F0.8454
tp6021
a(S'more'
p6022
g75
F0.9298
tp6023
asI569
(lp6024
(S'is'
p6025
g12
F0.998
tp6026
a(S'that'
p6027
g9
F0.4725
tp6028
a(S'enough'
p6029
g3
F0.4182
tp6030
asI570
(lp6031
(S'mhm'
p6032
g20
F0.9747
tp6033
asI571
(lp6034
(S'well'
p6035
g20
F0.741
tp6036
a(S'you'
p6037
g9
F0.999
tp6038
a(S'certainly'
p6039
g3
F0.999
tp6040
a(S'did'
p6041
g12
F0.9925
tp6042
a(S'very'
p6043
g3
F0.994
tp6044
a(S'well'
p6045
g3
F0.7515
tp6046
a(S'tonight'
p6047
g3
F0.9542
tp6048
asI572
(lp6049
(g31
g9
F0.9896
tp6050
a(S'have'
p6051
g12
F0.9999
tp6052
a(g52
g53
F0.999
tp6053
a(S'small'
p6054
g75
F0.9958
tp6055
a(S'tummy'
p6056
g56
F0.9879
tp6057
a(S'ache'
p6058
g12
F0.9409
tp6059
asI573
(lp6060
(S'laughs'
p6061
g12
F0.9102
tp6062
asI574
(lp6063
(S'hey'
p6064
g20
F0.9912
tp6065
a(S'your'
p6066
g53
F0.9547
tp6067
a(S'head'
p6068
g56
F0.9994
tp6069
a(S'is'
p6070
g12
F0.9985
tp6071
a(S'as'
p6072
g3
F0.7337
tp6073
a(S'big'
p6074
g75
F0.9735
tp6075
a(S'as'
p6076
g48
F0.9925
tp6077
a(S'this'
p6078
g9
F0.8409
tp6079
asI575
(lp6080
(S'mm'
p6081
g20
F0.627
tp6082
asI576
(lp6083
(S'your'
p6084
g53
F0.9794
tp6085
a(S'head'
p6086
g56
F0.9993
tp6087
a(S'is'
p6088
g12
F0.9986
tp6089
a(S'as'
p6090
g3
F0.7291
tp6091
a(S'big'
p6092
g75
F0.9636
tp6093
a(S'as'
p6094
g48
F0.9925
tp6095
a(S'this'
p6096
g9
F0.7361
tp6097
asI577
(lp6098
(S'xxx'
p6099
g16
F0.5741
tp6100
a(S'your'
p6101
g53
F0.9603
tp6102
a(S'head'
p6103
g56
F0.9996
tp6104
a(S'is'
p6105
g12
F0.9921
tp6106
asI578
(lp6107
(S'looks'
p6108
g12
F0.9842
tp6109
a(S'as'
p6110
g48
F0.8636
tp6111
a(S'if'
p6112
g48
F0.9916
tp6113
a(S'you'
p6114
g9
F0.9998
tp6115
a(S'got'
p6116
g12
F0.9999
tp6117
a(S'your'
p6118
g53
F0.9945
tp6119
a(S'fingers'
p6120
g56
F0.9976
tp6121
a(S'so'
p6122
g48
F0.7624
tp6123
a(S'close'
p6124
g75
F0.7098
tp6125
a(S'to'
p6126
g48
F0.9996
tp6127
a(S'your'
p6128
g53
F0.9925
tp6129
a(S'eyes'
p6130
g56
F0.9985
tp6131
asI579
(lp6132
(S'that'
p6133
g48
F0.7385
tp6134
a(S'it'
p6135
g9
F0.9978
tp6136
a(g25
g12
F0.6331
tp6137
a(S'bigger'
p6138
g75
F0.9456
tp6139
a(S'then'
p6140
g3
F0.9702
tp6141
a(S'anything'
p6142
g56
F0.9574
tp6143
a(S'else'
p6144
g3
F0.9408
tp6145
asI580
(lp6146
(S'xxx'
p6147
g16
F0.5741
tp6148
a(S'your'
p6149
g53
F0.9626
tp6150
a(S'nose'
p6151
g56
F0.9996
tp6152
a(S'is'
p6153
g12
F0.9955
tp6154
a(S'this'
p6155
g53
F0.9395
tp6156
a(S'small'
p6157
g75
F0.971
tp6158
asI581
(lp6159
(S'xxx'
p6160
g16
F0.6067
tp6161
a(S'from'
p6162
g48
F0.9956
tp6163
a(S'here'
p6164
g3
F0.9002
tp6165
a(S'it'
p6166
g9
F0.9996
tp6167
a(S'is'
p6168
g12
F0.9995
tp6169
a(S'too'
p6170
g3
F0.988
tp6171
asI582
(lp6172
(S'what'
p6173
g9
F0.9965
tp6174
a(S'did'
p6175
g12
F0.9992
tp6176
a(S'you'
p6177
g9
F0.9995
tp6178
a(S'say'
p6179
g12
F0.9924
tp6180
asI583
(lp6181
(S'that'
p6182
g53
F0.8041
tp6183
a(S'small'
p6184
g75
F0.9707
tp6185
a(S'from'
p6186
g48
F0.9947
tp6187
a(S'here'
p6188
g3
F0.8946
tp6189
asI584
(lp6190
(S'your'
p6191
g53
F0.9794
tp6192
a(S'head'
p6193
g56
F0.9993
tp6194
a(S'is'
p6195
g12
F0.9988
tp6196
a(S'that'
p6197
g53
F0.69
tp6198
a(S'big'
p6199
g75
F0.7684
tp6200
a(S'from'
p6201
g48
F0.9974
tp6202
a(S'here'
p6203
g3
F0.908
tp6204
asI585
(lp6205
(S'no'
p6206
g20
F0.8455
tp6207
a(S'the'
p6208
g53
F0.9987
tp6209
a(S'further'
p6210
g75
F0.3851
tp6211
a(S'away'
p6212
g3
F0.9582
tp6213
a(S'you'
p6214
g9
F0.9984
tp6215
a(S'get'
p6216
g12
F0.9996
tp6217
a(S'from'
p6218
g48
F0.9982
tp6219
a(S'your'
p6220
g53
F0.9959
tp6221
a(S'eyes'
p6222
g56
F0.9966
tp6223
a(S'the'
p6224
g53
F0.9957
tp6225
a(S'bigger'
p6226
g75
F0.9772
tp6227
a(S'it'
p6228
g9
F0.9612
tp6229
a(g25
g273
F0.4291
tp6230
a(S'gonna'
p6231
g12
F0.9888
tp6232
a(S'look'
p6233
g12
F0.9938
tp6234
asI586
(lp6235
(S'mm'
p6236
g9
F0.2094
tp6237
a(S'now'
p6238
g3
F0.9829
tp6239
a(S'it'
p6240
g9
F0.9947
tp6241
a(g25
g12
F0.6508
tp6242
a(S'that'
p6243
g53
F0.7453
tp6244
a(S'big'
p6245
g75
F0.8706
tp6246
asI587
(lp6247
(S'mhm'
p6248
g20
F0.9747
tp6249
asI588
(lp6250
(S'that'
p6251
g53
F0.8041
tp6252
a(S'big'
p6253
g75
F0.9403
tp6254
asI589
(lp6255
(S'watch'
p6256
g12
F0.9922
tp6257
a(S'your'
p6258
g53
F0.9962
tp6259
a(S'fingers'
p6260
g56
F0.9972
tp6261
asI590
(lp6262
(S'don'
p6263
g115
F0.5427
tp6264
a(g142
g115
F0.4943
tp6265
a(S'move'
p6266
g12
F0.9676
tp6267
a(S'your'
p6268
g53
F0.9936
tp6269
a(S'fingers'
p6270
g56
F0.9943
tp6271
asI591
(lp6272
(S'xxx'
p6273
g16
F0.8437
tp6274
asI592
(lp6275
(g31
g9
F0.9896
tp6276
a(S'have'
p6277
g12
F0.9999
tp6278
a(g52
g53
F0.9988
tp6279
a(S'big'
p6280
g75
F0.9887
tp6281
a(S'head'
p6282
g56
F0.995
tp6283
asI593
(lp6284
(S'is'
p6285
g12
F0.9981
tp6286
a(S'that'
p6287
g9
F0.8927
tp6288
a(S'what'
p6289
g9
F0.9727
tp6290
a(S'you'
p6291
g9
F0.9959
tp6292
a(S're'
p6293
g12
F0.8603
tp6294
a(S'saying'
p6295
g12
F0.9969
tp6296
a(S'laughing'
p6297
g12
F0.9212
tp6298
asI594
(lp6299
(S'no'
p6300
g20
F0.9253
tp6301
asI595
(lp6302
(S'laughs'
p6303
g12
F0.9102
tp6304
asI596
(lp6305
(S'no'
p6306
g20
F0.9253
tp6307
asI597
(lp6308
(S'probably'
p6309
g3
F0.998
tp6310
a(S'because'
p6311
g48
F0.9985
tp6312
a(S'he'
p6313
g9
F0.9992
tp6314
a(S'needs'
p6315
g12
F0.9998
tp6316
a(g52
g53
F0.9984
tp6317
a(S'hair'
p6318
g56
F0.998
tp6319
a(S'cut'
p6320
g56
F0.8899
tp6321
asI598
(lp6322
(S'mm'
p6323
g20
F0.3838
tp6324
a(g31
g9
F0.9932
tp6325
a(S'got'
p6326
g12
F0.9995
tp6327
a(S'big'
p6328
g75
F0.986
tp6329
a(S'hair'
p6330
g56
F0.9955
tp6331
asI599
(lp6332
(S'we'
p6333
g9
F0.9771
tp6334
a(S'all'
p6335
g457
F0.4749
tp6336
a(S'need'
p6337
g12
F0.8697
tp6338
a(S'hair'
p6339
g56
F0.979
tp6340
a(S'cuts'
p6341
g56
F0.6284
tp6342
a(S'hm'
p6343
g20
F0.9446
tp6344
asI600
(lp6345
(S'yes'
p6346
g20
F0.9921
tp6347
a(S'we'
p6348
g9
F0.9984
tp6349
a(S'do'
p6350
g12
F0.9994
tp6351
asI601
(lp6352
(g31
g9
F0.9831
tp6353
a(S'look'
p6354
g12
F0.9992
tp6355
a(S'like'
p6356
g48
F0.8542
tp6357
a(S'one'
p6358
g351
F0.9671
tp6359
a(S'of'
p6360
g48
F0.999
tp6361
a(S'these'
p6362
g53
F0.9845
tp6363
a(S'teenage'
p6364
g75
F0.9579
tp6365
a(S'girls'
p6366
g56
F0.9991
tp6367
a(S'with'
p6368
g48
F0.9999
tp6369
a(S'their'
p6370
g53
F0.8969
tp6371
a(S'teased'
p6372
g75
F0.4915
tp6373
a(S'hair'
p6374
g56
F0.9964
tp6375
a(S'huh'
p6376
g20
F0.9316
tp6377
asI602
(lp6378
(S'xxx'
p6379
g16
F0.8437
tp6380
asI603
(lp6381
(S'can'
p6382
g12
F0.9755
tp6383
a(g31
g9
F0.987
tp6384
a(S'have'
p6385
g12
F1.0
tp6386
a(S'the'
p6387
g53
F0.9997
tp6388
a(S'rest'
p6389
g56
F0.9979
tp6390
a(S'of'
p6391
g48
F0.9991
tp6392
a(S'your'
p6393
g53
F0.9932
tp6394
a(S'bread'
p6395
g56
F0.9988
tp6396
a(S'if'
p6397
g48
F0.9998
tp6398
a(S'your'
p6399
g1053
F0.8462
tp6400
a(S'not'
p6401
g3
F0.9987
tp6402
a(S'going'
p6403
g12
F0.9992
tp6404
a(S'to'
p6405
g48
F0.9858
tp6406
a(S'eat'
p6407
g12
F0.9997
tp6408
a(S'it'
p6409
g9
F0.9894
tp6410
asI604
(lp6411
(S'chi'
p6412
g20
F0.4684
tp6413
asI605
(lp6414
(S'hm'
p6415
g20
F0.995
tp6416
asI606
(lp6417
(S'xxx'
p6418
g16
F0.6473
tp6419
a(S'hears'
p6420
g12
F0.9976
tp6421
a(S'the'
p6422
g53
F0.9994
tp6423
a(S'other'
p6424
g75
F0.9881
tp6425
a(S'kitty'
p6426
g56
F0.9797
tp6427
asI607
(lp6428
(S'hm'
p6429
g20
F0.995
tp6430
asI608
(lp6431
(S'clyde'
p6432
g115
F0.9885
tp6433
asI609
(lp6434
(S'here'
p6435
g3
F0.9441
tp6436
a(S'want'
p6437
g12
F0.9975
tp6438
a(S'me'
p6439
g9
F0.9983
tp6440
a(S'to'
p6441
g48
F0.9852
tp6442
a(S'give'
p6443
g12
F0.9999
tp6444
a(S'your'
p6445
g53
F0.9693
tp6446
a(S'scraps'
p6447
g56
F0.96
tp6448
a(S'to'
p6449
g48
F0.9971
tp6450
a(S'clyde'
p6451
g115
F0.9908
tp6452
a(S'chi'
p6453
g115
F0.8094
tp6454
asI610
(lp6455
(S'sure'
p6456
g75
F0.8345
tp6457
asI611
(lp6458
(S'she'
p6459
g9
F0.9917
tp6460
a(g25
g273
F0.5351
tp6461
a(S'just'
p6462
g3
F0.9993
tp6463
a(S'like'
p6464
g48
F0.7991
tp6465
a(S'garfield'
p6466
g115
F0.9872
tp6467
asI612
(lp6468
(S'come'
p6469
g12
F0.9849
tp6470
a(S'on'
p6471
g48
F0.7661
tp6472
a(S'kitty'
p6473
g56
F0.9544
tp6474
asI613
(lp6475
(S'you'
p6476
g9
F0.9729
tp6477
a(S'garfield'
p6478
g115
F0.8128
tp6479
asI614
(lp6480
(S'you'
p6481
g9
F0.9573
tp6482
a(S'big'
p6483
g75
F0.9759
tp6484
a(S'old'
p6485
g75
F0.9938
tp6486
a(S'garfield'
p6487
g115
F0.9807
tp6488
asI615
(lp6489
(S'you'
p6490
g9
F0.9828
tp6491
a(S'garfield'
p6492
g115
F0.8788
tp6493
a(S'xxx'
p6494
g16
F0.405
tp6495
a(S'garfield'
p6496
g115
F0.9413
tp6497
asI616
(lp6498
(S'xxx'
p6499
g16
F0.8437
tp6500
asI617
(lp6501
(S'mm'
p6502
g20
F0.627
tp6503
asI618
(lp6504
(S'no'
p6505
g53
F0.814
tp6506
a(S'room'
p6507
g56
F0.9997
tp6508
a(S'for'
p6509
g48
F0.9993
tp6510
a(S'dessert'
p6511
g56
F0.9494
tp6512
a(S'chi'
p6513
g273
F0.4831
tp6514
asI619
(lp6515
(S'what'
p6516
g9
F0.949
tp6517
asI620
(lp6518
(S'should'
p6519
g12
F0.9947
tp6520
a(S'we'
p6521
g9
F0.9936
tp6522
a(S'have'
p6523
g12
F0.9984
tp6524
a(S'dessert'
p6525
g56
F0.9954
tp6526
a(S'later'
p6527
g3
F0.8333
tp6528
asI621
(lp6529
(S'yeah'
p6530
g20
F0.9988
tp6531
asI622
(lp6532
(S'later'
p6533
g3
F0.886
tp6534
a(S'would'
p6535
g12
F0.9957
tp6536
a(S'be'
p6537
g12
F0.9995
tp6538
a(S'alright'
p6539
g3
F0.4915
tp6540
asI623
(lp6541
(S'mom'
p6542
g56
F0.7188
tp6543
asI624
(lp6544
(S'mom'
p6545
g56
F0.7188
tp6546
asI625
(lp6547
(S'what'
p6548
g9
F0.949
tp6549
asI626
(lp6550
(S'can'
p6551
g12
F0.9946
tp6552
a(S'we'
p6553
g9
F0.9923
tp6554
a(S'go'
p6555
g12
F0.9987
tp6556
a(S'upstairs'
p6557
g3
F0.555
tp6558
asI627
(lp6559
(S'yeah'
p6560
g20
F0.9929
tp6561
a(S'in'
p6562
g48
F0.9694
tp6563
a(g52
g53
F0.9962
tp6564
a(S'few'
p6565
g75
F0.899
tp6566
a(S'minutes'
p6567
g56
F0.9963
tp6568
asI628
(lp6569
(S'just'
p6570
g3
F0.9991
tp6571
a(S'sit'
p6572
g12
F0.9809
tp6573
a(S'and'
p6574
g356
F0.9938
tp6575
a(S'relax'
p6576
g12
F0.9135
tp6577
a(S'for'
p6578
g48
F0.9975
tp6579
a(g52
g53
F0.9958
tp6580
a(S'minute'
p6581
g56
F0.9354
tp6582
asI629
(lp6583
(S'okay'
p6584
g20
F0.9857
tp6585
asI630
(lp6586
(S'sit'
p6587
g12
F0.966
tp6588
a(S'on'
p6589
g48
F0.8696
tp6590
a(S'my'
p6591
g53
F0.9979
tp6592
a(S'lap'
p6593
g56
F0.9984
tp6594
asI631
(lp6595
(S'five'
p6596
g351
F0.7035
tp6597
a(S'whole'
p6598
g75
F0.9896
tp6599
a(S'dollars'
p6600
g56
F0.9963
tp6601
asI632
(lp6602
(S'what'
p6603
g9
F0.9835
tp6604
a(S'are'
p6605
g12
F0.9978
tp6606
a(S'you'
p6607
g9
F0.9996
tp6608
a(S'going'
p6609
g12
F0.9996
tp6610
a(S'to'
p6611
g48
F0.8782
tp6612
a(S'do'
p6613
g12
F0.9998
tp6614
a(S'with'
p6615
g48
F0.9934
tp6616
a(S'five'
p6617
g351
F0.7331
tp6618
a(S'whole'
p6619
g75
F0.9744
tp6620
a(S'dollars'
p6621
g56
F0.9898
tp6622
asI633
(lp6623
(S'well'
p6624
g20
F0.9664
tp6625
asI634
(lp6626
(S'you'
p6627
g9
F0.9968
tp6628
a(S'could'
p6629
g12
F0.9997
tp6630
a(S'save'
p6631
g12
F0.9996
tp6632
a(S'it'
p6633
g9
F0.9848
tp6634
a(S'for'
p6635
g48
F0.9948
tp6636
a(S'something'
p6637
g56
F0.9804
tp6638
a(S'useful'
p6639
g75
F0.9651
tp6640
asI635
(lp6641
(S'xxx'
p6642
g16
F0.8437
tp6643
asI636
(lp6644
(S'maybe'
p6645
g3
F0.9725
tp6646
a(g31
g9
F0.9937
tp6647
a(S'could'
p6648
g12
F0.9998
tp6649
a(S'buy'
p6650
g12
F0.9967
tp6651
a(S'some'
p6652
g53
F0.9907
tp6653
a(S'barbie'
p6654
g56
F0.7762
tp6655
a(S'bathing'
p6656
g56
F0.9608
tp6657
a(S'suits'
p6658
g56
F0.861
tp6659
asI637
(lp6660
(S'was'
p6661
g12
F0.9931
tp6662
a(S'there'
p6663
g457
F0.5903
tp6664
a(g52
g53
F0.9987
tp6665
a(S'doll'
p6666
g56
F0.9933
tp6667
a(S'you'
p6668
g9
F0.9972
tp6669
a(S'said'
p6670
g12
F0.9999
tp6671
a(S'you'
p6672
g9
F0.9983
tp6673
a(S'were'
p6674
g12
F0.9983
tp6675
a(S'saving'
p6676
g12
F0.9987
tp6677
a(S'it'
p6678
g9
F0.9932
tp6679
a(S'for'
p6680
g48
F0.9902
tp6681
asI638
(lp6682
(S'oh'
p6683
g20
F0.9987
tp6684
a(S'yeah'
p6685
g20
F0.9997
tp6686
asI639
(lp6687
(S'oops'
p6688
g20
F0.974
tp6689
a(g52
g53
F0.9458
tp6690
a(S'daisy'
p6691
g56
F0.5279
tp6692
asI640
(lp6693
(S'oops'
p6694
g20
F0.974
tp6695
a(g52
g53
F0.9458
tp6696
a(S'daisy'
p6697
g56
F0.5279
tp6698
asI641
(lp6699
(S'or'
p6700
g356
F0.9894
tp6701
a(S'maybe'
p6702
g3
F0.9657
tp6703
a(g31
g9
F0.9933
tp6704
a(S'could'
p6705
g12
F0.9997
tp6706
a(S'get'
p6707
g12
F0.9975
tp6708
a(S'baby'
p6709
g56
F0.9848
tp6710
a(S'xxx'
p6711
g16
F0.4428
tp6712
a(S'name'
p6713
g56
F0.9968
tp6714
a(S'of'
p6715
g48
F0.9958
tp6716
a(S'doll'
p6717
g56
F0.9718
tp6718
asI642
(lp6719
(S'well'
p6720
g20
F0.9664
tp6721
asI643
(lp6722
(S'sometime'
p6723
g3
F0.8846
tp6724
asI644
(lp6725
(S'maybe'
p6726
g3
F0.9614
tp6727
a(S'if'
p6728
g48
F0.9896
tp6729
a(g31
g9
F0.9959
tp6730
a(S'save'
p6731
g12
F0.9968
tp6732
a(S'more'
p6733
g75
F0.8633
tp6734
a(S'than'
p6735
g48
F0.9907
tp6736
a(S'maybe'
p6737
g3
F0.9518
tp6738
a(S'if'
p6739
g48
F0.9879
tp6740
a(g31
g9
F0.996
tp6741
a(S'save'
p6742
g12
F0.9991
tp6743
a(S'like'
p6744
g48
F0.9017
tp6745
a(g52
g53
F0.9929
tp6746
a(S'lot'
p6747
g56
F0.985
tp6748
a(S'of'
p6749
g48
F0.996
tp6750
a(S'money'
p6751
g56
F0.9894
tp6752
asI645
(lp6753
(S'mhm'
p6754
g20
F0.9747
tp6755
asI646
(lp6756
(g31
g9
F0.9869
tp6757
a(S'could'
p6758
g12
F0.9996
tp6759
a(S'get'
p6760
g12
F0.9997
tp6761
a(S'both'
p6762
g9
F0.646
tp6763
asI647
(lp6764
(S'no'
p6765
g20
F0.557
tp6766
a(S'laughs'
p6767
g12
F0.7527
tp6768
asI648
(lp6769
(S'laughs'
p6770
g12
F0.9102
tp6771
asI649
(lp6772
(g31
g9
F0.989
tp6773
a(S'think'
p6774
g12
F1.0
tp6775
a(S'you'
p6776
g9
F0.9971
tp6777
a(g117
g12
F0.6697
tp6778
a(S'be'
p6779
g12
F0.9936
tp6780
a(S'saving'
p6781
g12
F0.9927
tp6782
a(S'for'
p6783
g48
F0.9882
tp6784
a(S'about'
p6785
g48
F0.909
tp6786
a(g52
g53
F0.9983
tp6787
a(S'year'
p6788
g56
F0.9636
tp6789
asI650
(lp6790
(S'those'
p6791
g53
F0.9729
tp6792
a(S'dolls'
p6793
g56
F0.9974
tp6794
a(g31
g9
F0.9483
tp6795
a(S'think'
p6796
g12
F0.9991
tp6797
a(S'cost'
p6798
g12
F0.6479
tp6799
a(S'about'
p6800
g48
F0.9308
tp6801
asI651
(lp6802
(S'some'
p6803
g53
F0.7972
tp6804
a(S'of'
p6805
g48
F0.9962
tp6806
a(S'those'
p6807
g53
F0.9882
tp6808
a(S'dolls'
p6809
g56
F0.9941
tp6810
a(S'are'
p6811
g12
F0.992
tp6812
a(S'kind'
p6813
g56
F0.7848
tp6814
a(S'of'
p6815
g48
F0.992
tp6816
a(S'expensive'
p6817
g75
F0.9908
tp6818
asI652
(lp6819
(S'twenty'
p6820
g351
F0.7634
tp6821
a(S'five'
p6822
g351
F0.5076
tp6823
a(S'to'
p6824
g48
F0.995
tp6825
a(S'thirty'
p6826
g351
F0.7231
tp6827
a(S'dollars'
p6828
g56
F0.964
tp6829
a(S'each'
p6830
g53
F0.51
tp6831
asI653
(lp6832
(S'xxx'
p6833
g16
F0.8437
tp6834
asI654
(lp6835
(S'that'
p6836
g9
F0.7305
tp6837
a(S'would'
p6838
g12
F0.9991
tp6839
a(S'make'
p6840
g12
F0.9998
tp6841
a(g52
g53
F0.9943
tp6842
a(S'hundred'
p6843
g351
F0.8784
tp6844
a(S'dollars'
p6845
g56
F0.9915
tp6846
asI655
(lp6847
(S'well'
p6848
g20
F0.8781
tp6849
a(S'no'
p6850
g20
F0.8921
tp6851
asI656
(lp6852
(S'xxx'
p6853
g16
F0.8437
tp6854
asI657
(lp6855
(S'right'
p6856
g3
F0.8071
tp6857
a(S'now'
p6858
g3
F0.99
tp6859
a(S'you'
p6860
g9
F0.9995
tp6861
a(S'have'
p6862
g12
F0.9925
tp6863
a(S'five'
p6864
g351
F0.759
tp6865
a(S'dollars'
p6866
g56
F0.9915
tp6867
asI658
(lp6868
(S'you'
p6869
g9
F0.9778
tp6870
a(g117
g12
F0.6237
tp6871
a(S'have'
p6872
g12
F0.9975
tp6873
a(S'to'
p6874
g48
F0.997
tp6875
a(S'save'
p6876
g12
F0.9985
tp6877
a(S'five'
p6878
g351
F0.6552
tp6879
a(S'times'
p6880
g56
F0.9738
tp6881
a(S'more'
p6882
g3
F0.4842
tp6883
a(S'of'
p6884
g48
F0.9993
tp6885
a(S'your'
p6886
g53
F0.9882
tp6887
a(S'five'
p6888
g351
F0.6818
tp6889
a(S'dollars'
p6890
g56
F0.9937
tp6891
a(S'in'
p6892
g48
F0.9955
tp6893
a(S'order'
p6894
g56
F0.9295
tp6895
a(S'to'
p6896
g48
F0.9989
tp6897
a(S'buy'
p6898
g12
F0.9954
tp6899
a(S'one'
p6900
g351
F0.9504
tp6901
a(S'of'
p6902
g48
F0.999
tp6903
a(S'those'
p6904
g53
F0.985
tp6905
a(S'dolls'
p6906
g56
F0.992
tp6907
asI659
(lp6908
(S'so'
p6909
g3
F0.5368
tp6910
a(g31
g9
F0.9907
tp6911
a(S'would'
p6912
g12
F0.9998
tp6913
a(S'have'
p6914
g12
F0.9998
tp6915
a(S'to'
p6916
g48
F0.9952
tp6917
a(S'save'
p6918
g12
F0.9979
tp6919
asI660
(lp6920
(S'twenty'
p6921
g351
F0.766
tp6922
a(S'five'
p6923
g351
F0.7286
tp6924
a(S'dollars'
p6925
g56
F0.9947
tp6926
asI661
(lp6927
(S'that'
p6928
g9
F0.7305
tp6929
a(S'would'
p6930
g12
F0.9991
tp6931
a(S'take'
p6932
g12
F0.9992
tp6933
a(S'quite'
p6934
g3
F0.9468
tp6935
a(g52
g53
F0.8223
tp6936
a(S'while'
p6937
g56
F0.7224
tp6938
asI662
(lp6939
(S'it'
p6940
g9
F0.9959
tp6941
a(S'took'
p6942
g12
F0.9999
tp6943
a(S'you'
p6944
g9
F0.9913
tp6945
a(S'five'
p6946
g351
F0.3574
tp6947
a(S'weeks'
p6948
g56
F0.9909
tp6949
a(S'to'
p6950
g48
F0.9996
tp6951
a(S'save'
p6952
g12
F0.9974
tp6953
a(S'five'
p6954
g351
F0.6961
tp6955
a(S'dollars'
p6956
g56
F0.9929
tp6957
asI663
(lp6958
(S'well'
p6959
g20
F0.8954
tp6960
a(S'she'
p6961
g9
F0.9993
tp6962
a(S'got'
p6963
g12
F0.9997
tp6964
a(g52
g53
F0.9989
tp6965
a(S'little'
p6966
g75
F0.9968
tp6967
a(S'bit'
p6968
g56
F0.8476
tp6969
a(S'ahead'
p6970
g3
F0.5599
tp6971
a(S'of'
p6972
g48
F0.9993
tp6973
a(S'the'
p6974
g53
F0.9995
tp6975
a(S'game'
p6976
g56
F0.996
tp6977
asI664
(lp6978
(S'yeah'
p6979
g20
F0.9939
tp6980
a(S'four'
p6981
g351
F0.8596
tp6982
a(S'weeks'
p6983
g56
F0.9764
tp6984
asI665
(lp6985
(S'four'
p6986
g351
F0.9105
tp6987
a(S'weeks'
p6988
g56
F0.9643
tp6989
a(S'and'
p6990
g356
F0.9989
tp6991
a(g52
g53
F0.9965
tp6992
a(S'tooth'
p6993
g56
F0.9988
tp6994
asI666
(lp6995
(S'tooth'
p6996
g56
F0.9923
tp6997
a(S'falling'
p6998
g12
F0.998
tp6999
a(S'out'
p7000
g28
F0.9611
tp7001
asI667
(lp7002
(S'mhm'
p7003
g20
F0.9747
tp7004
asI668
(lp7005
(S'so'
p7006
g48
F0.7466
tp7007
a(S'that'
p7008
g9
F0.7888
tp7009
a(g25
g273
F0.7153
tp7010
asI669
(lp7011
(S'but'
p7012
g356
F0.9948
tp7013
a(g31
g9
F0.9899
tp7014
a(S'don'
p7015
g12
F0.9187
tp7016
a(g142
g12
F0.3253
tp7017
a(S'think'
p7018
g12
F0.9992
tp7019
a(S'you'
p7020
g9
F0.9966
tp7021
a(S're'
p7022
g12
F0.7505
tp7023
a(S'going'
p7024
g12
F0.9976
tp7025
a(S'to'
p7026
g48
F0.9882
tp7027
a(S'lose'
p7028
g12
F0.9997
tp7029
a(S'any'
p7030
g53
F0.9171
tp7031
a(S'more'
p7032
g75
F0.9683
tp7033
a(S'teeth'
p7034
g56
F0.9985
tp7035
a(S'laughing'
p7036
g12
F0.9739
tp7037
asI670
(lp7038
(S'well'
p7039
g20
F0.8508
tp7040
a(S'xxx'
p7041
g16
F0.5406
tp7042
a(S'clothes'
p7043
g56
F0.9709
tp7044
a(S'for'
p7045
g48
F0.9999
tp7046
a(S'your'
p7047
g53
F0.9917
tp7048
a(S'barbies'
p7049
g56
F0.9858
tp7050
asI671
(lp7051
(S'you'
p7052
g9
F0.9968
tp7053
a(S'might'
p7054
g12
F0.9993
tp7055
a(S'be'
p7056
g12
F0.9996
tp7057
a(S'able'
p7058
g75
F0.9726
tp7059
a(S'to'
p7060
g48
F0.9987
tp7061
a(S'afford'
p7062
g12
F0.9993
tp7063
a(S'some'
p7064
g53
F0.8411
tp7065
a(S'of'
p7066
g48
F0.9906
tp7067
a(S'that'
p7068
g9
F0.6644
tp7069
a(S'huh'
p7070
g20
F0.8476
tp7071
asI672
(lp7072
(S'in'
p7073
g48
F0.9537
tp7074
a(g52
g53
F0.9971
tp7075
a(S'way'
p7076
g56
F0.9855
tp7077
asI673
(lp7078
(S'mhm'
p7079
g20
F0.9747
tp7080
asI674
(lp7081
(S'save'
p7082
g12
F0.9957
tp7083
a(S'my'
p7084
g53
F0.9982
tp7085
a(S'money'
p7086
g56
F0.9983
tp7087
asI675
(lp7088
(S'you'
p7089
g9
F0.9969
tp7090
a(S'can'
p7091
g12
F0.9997
tp7092
a(S'save'
p7093
g12
F0.9999
tp7094
a(S'it'
p7095
g9
F0.9821
tp7096
asI676
(lp7097
(S'you'
p7098
g9
F0.9969
tp7099
a(S'can'
p7100
g12
F0.9998
tp7101
a(S'save'
p7102
g12
F0.9999
tp7103
a(S'it'
p7104
g9
F0.9859
tp7105
a(S'and'
p7106
g356
F0.9936
tp7107
a(S'buy'
p7108
g12
F0.9553
tp7109
a(S'one'
p7110
g351
F0.9504
tp7111
a(S'of'
p7112
g48
F0.9995
tp7113
a(S'the'
p7114
g53
F0.9996
tp7115
a(S'dolls'
p7116
g56
F0.9835
tp7117
asI677
(lp7118
(S'one'
p7119
g351
F0.9808
tp7120
a(S'thing'
p7121
g56
F0.9488
tp7122
a(S'you'
p7123
g9
F0.9947
tp7124
a(S'might'
p7125
g12
F0.999
tp7126
a(S'save'
p7127
g12
F0.9999
tp7128
a(S'it'
p7129
g9
F0.9884
tp7130
a(S'for'
p7131
g48
F0.9963
tp7132
a(S'is'
p7133
g12
F0.9988
tp7134
a(S'if'
p7135
g48
F0.995
tp7136
a(S'we'
p7137
g9
F0.998
tp7138
asI678
(lp7139
(S'if'
p7140
g48
F0.9938
tp7141
a(S'save'
p7142
g12
F0.9959
tp7143
a(S'it'
p7144
g9
F0.9202
tp7145
a(S'you'
p7146
g9
F0.996
tp7147
a(S'pay'
p7148
g12
F0.9899
tp7149
a(S'half'
p7150
g3
F0.5578
tp7151
a(S'and'
p7152
g356
F0.9983
tp7153
a(S'we'
p7154
g9
F0.9964
tp7155
a(S'll'
p7156
g12
F0.5672
tp7157
a(S'pay'
p7158
g12
F0.9742
tp7159
a(S'half'
p7160
g56
F0.3596
tp7161
asI679
(lp7162
(S'go'
p7163
g12
F0.9861
tp7164
a(S'to'
p7165
g48
F0.9987
tp7166
a(S'the'
p7167
g53
F0.9988
tp7168
a(S'beach'
p7169
g56
F0.9331
tp7170
a(S'this'
p7171
g53
F0.9564
tp7172
a(S'summer'
p7173
g56
F0.9893
tp7174
asI680
(lp7175
(S'that'
p7176
g9
F0.4727
tp7177
a(g25
g12
F0.5427
tp7178
a(S'right'
p7179
g20
F0.3487
tp7180
asI681
(lp7181
(S'you'
p7182
g9
F0.9968
tp7183
a(S'might'
p7184
g12
F0.9991
tp7185
a(S'bring'
p7186
g12
F1.0
tp7187
a(S'some'
p7188
g53
F0.9603
tp7189
a(S'spending'
p7190
g12
F0.9274
tp7191
a(S'money'
p7192
g56
F0.9505
tp7193
asI682
(lp7194
(S'buy'
p7195
g12
F0.9596
tp7196
a(S'something'
p7197
g56
F0.9896
tp7198
a(S'like'
p7199
g48
F0.8293
tp7200
a(S'shells'
p7201
g56
F0.9888
tp7202
a(S'or'
p7203
g356
F0.9953
tp7204
a(g52
g53
F0.9912
tp7205
a(S'sweatshirt'
p7206
g56
F0.9987
tp7207
asI683
(lp7208
(S'no'
p7209
g53
F0.8365
tp7210
a(S'way'
p7211
g56
F0.9976
tp7212
asI684
(lp7213
(S'no'
p7214
g20
F0.9253
tp7215
asI685
(lp7216
(S'excuse'
p7217
g12
F0.9631
tp7218
a(S'me'
p7219
g9
F0.9987
tp7220
asI686
(lp7221
(S'xxx'
p7222
g16
F0.8437
tp7223
asI687
(lp7224
(S'only'
p7225
g3
F0.7512
tp7226
a(S'the'
p7227
g53
F0.9835
tp7228
a(S'dolly'
p7229
g115
F0.709
tp7230
asI688
(lp7231
(S'that'
p7232
g9
F0.473
tp7233
a(g25
g12
F0.7811
tp7234
a(S'all'
p7235
g53
F0.9612
tp7236
a(g31
g9
F0.9244
tp7237
a(S'xxx'
p7238
g16
F0.607
tp7239
asI689
(lp7240
(S'well'
p7241
g20
F0.7958
tp7242
a(S'then'
p7243
g3
F0.9699
tp7244
a(S'save'
p7245
g12
F0.9973
tp7246
a(S'your'
p7247
g53
F0.9963
tp7248
a(S'money'
p7249
g56
F0.9989
tp7250
a(S'for'
p7251
g48
F1.0
tp7252
a(S'the'
p7253
g53
F0.9944
tp7254
a(S'dolly'
p7255
g115
F0.7794
tp7256
asI690
(lp7257
(S'xxx'
p7258
g16
F0.6759
tp7259
a(S'save'
p7260
g12
F0.9973
tp7261
a(S'my'
p7262
g53
F0.9985
tp7263
a(S'money'
p7264
g56
F0.9982
tp7265
a(S'for'
p7266
g48
F0.9983
tp7267
asI691
(lp7268
(S'for'
p7269
g48
F0.9974
tp7270
a(S'what'
p7271
g9
F0.995
tp7272
asI692
(lp7273
(S'laughs'
p7274
g12
F0.9102
tp7275
asI693
(lp7276
(S'no'
p7277
g53
F0.8344
tp7278
a(S'idea'
p7279
g56
F0.996
tp7280
asI694
(lp7281
(S'no'
p7282
g53
F0.8344
tp7283
a(S'idea'
p7284
g56
F0.996
tp7285
asI695
(lp7286
(S'save'
p7287
g12
F0.9971
tp7288
a(S'it'
p7289
g9
F0.9896
tp7290
a(S'for'
p7291
g48
F0.9925
tp7292
a(S'clothes'
p7293
g56
F0.9845
tp7294
asI696
(lp7295
(S'or'
p7296
g356
F0.9875
tp7297
a(S'books'
p7298
g56
F0.9666
tp7299
asI697
(lp7300
(S'could'
p7301
g12
F0.9901
tp7302
a(S'save'
p7303
g12
F0.9996
tp7304
a(S'it'
p7305
g9
F0.9875
tp7306
a(S'for'
p7307
g48
F0.9973
tp7308
a(S'eating'
p7309
g12
F0.9942
tp7310
asI698
(lp7311
(S'mhm'
p7312
g20
F0.9747
tp7313
asI699
(lp7314
(S'mcdonalds'
p7315
g115
F0.5897
tp7316
asI700
(lp7317
(S'laughs'
p7318
g12
F0.9102
tp7319
asI701
(lp7320
(S'laughs'
p7321
g12
F0.9102
tp7322
asI702
(lp7323
(S'you'
p7324
g9
F0.9968
tp7325
a(S'could'
p7326
g12
F0.9994
tp7327
a(S'go'
p7328
g12
F0.9979
tp7329
a(S'to'
p7330
g48
F0.9725
tp7331
a(S'mcdonalds'
p7332
g115
F0.6282
tp7333
a(S'with'
p7334
g48
F0.9996
tp7335
a(S'your'
p7336
g53
F0.9964
tp7337
a(S'savings'
p7338
g56
F0.9976
tp7339
asI703
(lp7340
(S'or'
p7341
g356
F0.9894
tp7342
a(S'maybe'
p7343
g3
F0.9626
tp7344
a(g31
g9
F0.9946
tp7345
a(S'could'
p7346
g12
F0.9994
tp7347
asI704
(lp7348
(S'hm'
p7349
g20
F0.995
tp7350
asI705
(lp7351
(S'save'
p7352
g12
F0.9971
tp7353
a(S'it'
p7354
g9
F0.9374
tp7355
a(S'long'
p7356
g75
F0.8443
tp7357
a(S'enough'
p7358
g3
F0.604
tp7359
a(S'you'
p7360
g9
F0.9986
tp7361
a(S'could'
p7362
g12
F0.9994
tp7363
a(S'go'
p7364
g12
F0.9977
tp7365
a(S'to'
p7366
g48
F0.9938
tp7367
a(g52
g53
F0.9848
tp7368
a(S'fancy'
p7369
g75
F0.9988
tp7370
a(S'restaurant'
p7371
g56
F0.9984
tp7372
asI706
(lp7373
(S'chinese'
p7374
g56
F0.3268
tp7375
asI707
(lp7376
(S'mhm'
p7377
g20
F0.9747
tp7378
asI708
(lp7379
(S'nah'
p7380
g20
F0.9921
tp7381
asI709
(lp7382
(S'you'
p7383
g9
F0.9969
tp7384
a(S'can'
p7385
g12
F0.9998
tp7386
a(S'save'
p7387
g12
F0.9999
tp7388
a(S'it'
p7389
g9
F0.9848
tp7390
a(S'for'
p7391
g48
F0.9985
tp7392
a(S'whatever'
p7393
g9
F0.8515
tp7394
a(S'is'
p7395
g12
F0.9982
tp7396
a(S'important'
p7397
g75
F0.9955
tp7398
a(S'to'
p7399
g48
F0.9992
tp7400
a(S'you'
p7401
g9
F0.9974
tp7402
asI710
(lp7403
(S'what'
p7404
g9
F0.9784
tp7405
a(g25
g273
F0.5334
tp7406
a(S'important'
p7407
g75
F0.9797
tp7408
a(S'to'
p7409
g48
F0.9992
tp7410
a(S'me'
p7411
g9
F0.9996
tp7412
a(S'is'
p7413
g12
F0.9978
tp7414
a(S'dollies'
p7415
g56
F0.9841
tp7416
asI711
(lp7417
(S'okay'
p7418
g20
F0.9857
tp7419
asI712
(lp7420
(S'then'
p7421
g3
F0.9696
tp7422
a(S'save'
p7423
g12
F0.9973
tp7424
a(S'it'
p7425
g9
F0.9847
tp7426
a(S'for'
p7427
g48
F0.9986
tp7428
a(g52
g53
F0.9815
tp7429
a(S'dolly'
p7430
g115
F0.4455
tp7431
asI713
(lp7432
(S'maybe'
p7433
g3
F0.9387
tp7434
a(S'we'
p7435
g9
F0.9975
tp7436
a(S'll'
p7437
g12
F0.5348
tp7438
a(S'go'
p7439
g12
F0.9962
tp7440
a(S'to'
p7441
g48
F0.9984
tp7442
a(S'the'
p7443
g53
F0.9991
tp7444
a(S'store'
p7445
g56
F0.9761
tp7446
a(S'toy'
p7447
g56
F0.9678
tp7448
a(S'store'
p7449
g56
F0.9669
tp7450
a(S'in'
p7451
g48
F0.9891
tp7452
a(S'about'
p7453
g48
F0.9669
tp7454
a(g52
g53
F0.9984
tp7455
a(S'month'
p7456
g56
F0.9979
tp7457
asI714
(lp7458
(S'because'
p7459
g48
F0.9976
tp7460
a(S'it'
p7461
g9
F0.9984
tp7462
a(g25
g12
F0.6746
tp7463
a(S'going'
p7464
g12
F0.9973
tp7465
a(S'to'
p7466
g48
F0.9724
tp7467
a(S'be'
p7468
g12
F0.9988
tp7469
a(S'close'
p7470
g75
F0.707
tp7471
a(S'to'
p7472
g48
F0.9961
tp7473
a(S'mary'
p7474
g115
F0.989
tp7475
a(g25
g273
F0.346
tp7476
a(S'birthday'
p7477
g56
F0.9804
tp7478
a(S'and'
p7479
g356
F0.9963
tp7480
a(S'we'
p7481
g9
F0.9964
tp7482
a(S'll'
p7483
g12
F0.6427
tp7484
a(S'need'
p7485
g12
F0.9943
tp7486
a(S'to'
p7487
g48
F0.9918
tp7488
a(S'get'
p7489
g12
F1.0
tp7490
a(S'her'
p7491
g9
F0.5983
tp7492
a(S'something'
p7493
g56
F0.9971
tp7494
asI715
(lp7495
(S'and'
p7496
g356
F0.9989
tp7497
a(S'you'
p7498
g9
F0.9994
tp7499
a(S'can'
p7500
g12
F0.9996
tp7501
a(S'look'
p7502
g12
F0.9981
tp7503
a(S'for'
p7504
g48
F0.9979
tp7505
a(S'something'
p7506
g56
F0.9888
tp7507
a(S'for'
p7508
g48
F0.9997
tp7509
a(S'yourself'
p7510
g9
F0.9937
tp7511
asI716
(lp7512
(S'you'
p7513
g9
F0.9927
tp7514
a(S'll'
p7515
g12
F0.6923
tp7516
a(S'have'
p7517
g12
F0.9987
tp7518
a(S'saved'
p7519
g12
F0.944
tp7520
a(S'probably'
p7521
g3
F0.9998
tp7522
a(S'about'
p7523
g48
F0.8487
tp7524
a(S'ten'
p7525
g351
F0.9179
tp7526
a(S'dollars'
p7527
g56
F0.9935
tp7528
a(S'by'
p7529
g48
F0.9954
tp7530
a(S'then'
p7531
g3
F0.9472
tp7532
asI717
(lp7533
(S'in'
p7534
g48
F0.9537
tp7535
a(g52
g53
F0.9971
tp7536
a(S'month'
p7537
g56
F0.9987
tp7538
asI718
(lp7539
(S'you'
p7540
g9
F0.9969
tp7541
a(S'can'
p7542
g12
F0.9997
tp7543
a(S'certainly'
p7544
g3
F0.9985
tp7545
a(S'get'
p7546
g12
F0.9992
tp7547
a(S'something'
p7548
g56
F0.9783
tp7549
a(S'with'
p7550
g48
F0.9994
tp7551
a(S'ten'
p7552
g351
F0.9379
tp7553
a(S'dollars'
p7554
g56
F0.9909
tp7555
asI719
(lp7556
(S'so'
p7557
g48
F0.5604
tp7558
a(S'five'
p7559
g351
F0.4332
tp7560
a(S'is'
p7561
g12
F0.986
tp7562
a(S'ten'
p7563
g351
F0.543
tp7564
asI720
(lp7565
(S'xxx'
p7566
g16
F0.8437
tp7567
asI721
(lp7568
(S'so'
p7569
g48
F0.5604
tp7570
a(S'five'
p7571
g351
F0.5496
tp7572
a(S'plus'
p7573
g75
F0.5435
tp7574
a(S'ten'
p7575
g351
F0.47
tp7576
a(S'will'
p7577
g12
F0.9717
tp7578
a(S'be'
p7579
g12
F0.9989
tp7580
a(S'fifteen'
p7581
g351
F0.3821
tp7582
asI722
(lp7583
(S'with'
p7584
g48
F0.9982
tp7585
a(S'another'
p7586
g53
F0.996
tp7587
a(S'month'
p7588
g56
F0.9984
tp7589
a(S'would'
p7590
g12
F0.9984
tp7591
a(S'be'
p7592
g12
F1.0
tp7593
a(S'another'
p7594
g53
F0.9097
tp7595
a(S'four'
p7596
g351
F0.7773
tp7597
a(S'weeks'
p7598
g56
F0.9606
tp7599
asI723
(lp7600
(S'you'
p7601
g9
F0.9813
tp7602
a(S've'
p7603
g12
F0.8008
tp7604
a(S'got'
p7605
g12
F0.9885
tp7606
a(S'five'
p7607
g351
F0.6518
tp7608
a(S'dollars'
p7609
g56
F0.9949
tp7610
a(S'so'
p7611
g48
F0.8326
tp7612
a(S'four'
p7613
g351
F0.897
tp7614
a(S'weeks'
p7615
g56
F0.9839
tp7616
a(S'later'
p7617
g3
F0.6981
tp7618
a(S'you'
p7619
g9
F0.9926
tp7620
a(g117
g12
F0.7521
tp7621
a(S'saved'
p7622
g12
F0.9894
tp7623
a(S'about'
p7624
g48
F0.948
tp7625
a(S'ten'
p7626
g351
F0.7705
tp7627
a(S'xxx'
p7628
g16
F0.6473
tp7629
asI724
(lp7630
(S'so'
p7631
g48
F0.5604
tp7632
a(S'five'
p7633
g351
F0.7074
tp7634
a(S'weeks'
p7635
g56
F0.9861
tp7636
a(S'would'
p7637
g12
F0.9969
tp7638
a(S'be'
p7639
g12
F0.9998
tp7640
a(S'ten'
p7641
g351
F0.8411
tp7642
a(S'dollars'
p7643
g56
F0.9911
tp7644
asI725
(lp7645
(S'so'
p7646
g3
F0.6349
tp7647
a(S'just'
p7648
g3
F0.9999
tp7649
a(S'about'
p7650
g48
F0.9904
tp7651
a(S'the'
p7652
g53
F0.9996
tp7653
a(S'time'
p7654
g56
F0.9995
tp7655
a(S'of'
p7656
g48
F0.9933
tp7657
a(S'mary'
p7658
g115
F0.9954
tp7659
a(g25
g273
F0.346
tp7660
a(S'birthday'
p7661
g56
F0.9463
tp7662
a(S'you'
p7663
g9
F0.9717
tp7664
a(g117
g12
F0.6124
tp7665
a(S'have'
p7666
g12
F0.9847
tp7667
a(S'ten'
p7668
g351
F0.8822
tp7669
a(S'dollars'
p7670
g56
F0.9923
tp7671
asI726
(lp7672
(S'xxx'
p7673
g16
F0.8437
tp7674
asI727
(lp7675
(S'ten'
p7676
g351
F0.9397
tp7677
a(S'dollars'
p7678
g56
F0.9916
tp7679
a(S'huh'
p7680
g20
F0.9322
tp7681
asI728
(lp7682
(g31
g9
F0.986
tp7683
a(S'might'
p7684
g12
F0.9995
tp7685
a(S'buy'
p7686
g12
F0.9993
tp7687
a(g52
g53
F0.9981
tp7688
a(S'doll'
p7689
g56
F0.9962
tp7690
asI729
(lp7691
(g31
g9
F0.9869
tp7692
a(S'could'
p7693
g12
F0.9998
tp7694
a(S'buy'
p7695
g12
F0.9973
tp7696
a(g52
g53
F0.9958
tp7697
a(S'barbie'
p7698
g56
F0.8808
tp7699
a(S'doll'
p7700
g56
F0.9902
tp7701
asI730
(lp7702
(S'you'
p7703
g9
F0.9951
tp7704
a(S'could'
p7705
g12
F0.9986
tp7706
asI731
(lp7707
(S'probably'
p7708
g3
F0.9958
tp7709
asI732
(lp7710
(S'ten'
p7711
g351
F0.9397
tp7712
a(S'dollars'
p7713
g56
F0.991
tp7714
asI733
(lp7715
(S'mhm'
p7716
g20
F0.9747
tp7717
asI734
(lp7718
(g31
g9
F0.9869
tp7719
a(S'could'
p7720
g12
F0.9998
tp7721
a(S'take'
p7722
g12
F0.9989
tp7723
a(S'the'
p7724
g53
F0.9961
tp7725
a(S'xxx'
p7726
g16
F0.4596
tp7727
asI735
(lp7728
(S'xxx'
p7729
g16
F0.8437
tp7730
asI736
(lp7731
(S'maybe'
p7732
g3
F0.9387
tp7733
a(S'we'
p7734
g9
F0.9951
tp7735
a(g117
g12
F0.6763
tp7736
a(S'help'
p7737
g12
F0.9899
tp7738
a(S'you'
p7739
g9
F0.9992
tp7740
a(S'out'
p7741
g28
F0.5184
tp7742
asI737
(lp7743
(S'maybe'
p7744
g3
F0.9387
tp7745
a(S'we'
p7746
g9
F0.9951
tp7747
a(g117
g12
F0.6176
tp7748
a(S'negotiate'
p7749
g12
F0.9828
tp7750
a(S'that'
p7751
g9
F0.7481
tp7752
asI738
(lp7753
(S'you'
p7754
g9
F0.9911
tp7755
a(S'shouldn'
p7756
g12
F0.9874
tp7757
a(g142
g12
F0.666
tp7758
a(S'chew'
p7759
g12
F0.9867
tp7760
a(S'on'
p7761
g48
F0.8871
tp7762
a(g52
g53
F0.9943
tp7763
a(S'scrap'
p7764
g56
F0.9891
tp7765
asI739
(lp7766
(S'or'
p7767
g356
F0.9894
tp7768
a(S'maybe'
p7769
g3
F0.948
tp7770
a(S'xxx'
p7771
g16
F0.7068
tp7772
a(S'thirteen'
p7773
g351
F0.7379
tp7774
a(S'dollars'
p7775
g56
F0.9907
tp7776
asI740
(lp7777
(S'well'
p7778
g20
F0.9664
tp7779
asI741
(lp7780
(S'let'
p7781
g12
F0.8948
tp7782
a(g25
g273
F0.3423
tp7783
a(S'wait'
p7784
g12
F0.9587
tp7785
a(S'and'
p7786
g356
F0.9944
tp7787
a(S'see'
p7788
g12
F0.9837
tp7789
asI742
(lp7790
(S'we'
p7791
g9
F0.9948
tp7792
a(S'll'
p7793
g12
F0.6915
tp7794
a(S'have'
p7795
g12
F0.9989
tp7796
a(S'to'
p7797
g48
F0.9948
tp7798
a(S'look'
p7799
g12
F0.9948
tp7800
a(S'and'
p7801
g356
F0.9942
tp7802
a(S'see'
p7803
g12
F0.9694
tp7804
asI743
(lp7805
(S'little'
p7806
g75
F0.9898
tp7807
a(S'mermaid'
p7808
g56
F0.9862
tp7809
a(S'barbie'
p7810
g56
F0.8951
tp7811
a(S'dolls'
p7812
g56
F0.9938
tp7813
asI744
(lp7814
(S'mm'
p7815
g20
F0.4738
tp7816
a(S'yeah'
p7817
g20
F0.9985
tp7818
a(S'we'
p7819
g9
F0.9985
tp7820
a(S'saw'
p7821
g12
F0.9997
tp7822
a(S'that'
p7823
g9
F0.8654
tp7824
a(S'on'
p7825
g48
F0.9784
tp7826
a(S'tv'
p7827
g56
F0.9403
tp7828
a(S'this'
p7829
g53
F0.9684
tp7830
a(S'morning'
p7831
g56
F0.9955
tp7832
asI745
(lp7833
(S'they'
p7834
g9
F0.9929
tp7835
a(S'had'
p7836
g12
F0.9996
tp7837
a(S'little'
p7838
g75
F0.9959
tp7839
a(S'mermaid'
p7840
g56
F0.9882
tp7841
a(S'dolls'
p7842
g56
F0.8555
tp7843
a(S'out'
p7844
g48
F0.7172
tp7845
asI746
(lp7846
(S'when'
p7847
g3
F0.9811
tp7848
a(g31
g9
F0.9878
tp7849
a(S'lose'
p7850
g12
F0.9999
tp7851
a(S'this'
p7852
g53
F0.9883
tp7853
a(S'tooth'
p7854
g56
F0.9973
tp7855
a(S'how'
p7856
g3
F0.9996
tp7857
a(S'much'
p7858
g75
F0.9792
tp7859
a(S'money'
p7860
g56
F0.9986
tp7861
a(S'will'
p7862
g12
F0.988
tp7863
a(g31
g9
F0.974
tp7864
a(S'get'
p7865
g12
F0.9996
tp7866
asI747
(lp7867
(S'laughs'
p7868
g12
F0.9102
tp7869
asI748
(lp7870
(S'it'
p7871
g9
F0.9888
tp7872
a(g25
g12
F0.9346
tp7873
a(S'up'
p7874
g28
F0.9276
tp7875
a(S'to'
p7876
g48
F0.9992
tp7877
a(S'the'
p7878
g53
F0.9996
tp7879
a(S'tooth'
p7880
g56
F0.9966
tp7881
a(S'fairy'
p7882
g56
F0.6678
tp7883
asI749
(lp7884
(g31
g9
F0.9635
tp7885
a(S'don'
p7886
g12
F0.9231
tp7887
a(g142
g273
F0.4034
tp7888
a(S'uh'
p7889
g20
F0.7452
tp7890
a(S'keep'
p7891
g12
F0.9881
tp7892
a(S'the'
p7893
g53
F0.9996
tp7894
a(S'latest'
p7895
g75
F0.9947
tp7896
a(S'stock'
p7897
g56
F0.9868
tp7898
a(S'quotes'
p7899
g56
F0.913
tp7900
a(S'on'
p7901
g48
F0.9953
tp7902
a(S'teeth'
p7903
g56
F0.9914
tp7904
asI750
(lp7905
(g31
g9
F0.9635
tp7906
a(S'don'
p7907
g12
F0.9156
tp7908
a(g142
g56
F0.3074
tp7909
a(S'know'
p7910
g12
F0.965
tp7911
asI751
(lp7912
(S'those'
p7913
g53
F0.9739
tp7914
a(S'teeth'
p7915
g56
F0.9952
tp7916
a(S'you'
p7917
g9
F0.9716
tp7918
a(S're'
p7919
g12
F0.5762
tp7920
a(S'gonna'
p7921
g12
F0.9909
tp7922
a(S'have'
p7923
g12
F0.9997
tp7924
a(S'for'
p7925
g48
F0.9995
tp7926
a(g52
g53
F0.8474
tp7927
a(S'while'
p7928
g56
F0.7553
tp7929
asI752
(lp7930
(S'those'
p7931
g9
F0.5993
tp7932
a(S'back'
p7933
g75
F0.6887
tp7934
a(S'teeth'
p7935
g56
F0.999
tp7936
asI753
(lp7937
(S'mm'
p7938
g20
F0.627
tp7939
asI754
(lp7940
(g31
g9
F0.989
tp7941
a(S'think'
p7942
g12
F1.0
tp7943
a(S'you'
p7944
g9
F0.9976
tp7945
a(S've'
p7946
g12
F0.8489
tp7947
a(S'lost'
p7948
g75
F0.4911
tp7949
a(S'most'
p7950
g3
F0.7503
tp7951
a(S'of'
p7952
g48
F0.9989
tp7953
a(S'the'
p7954
g53
F0.9996
tp7955
a(S'ones'
p7956
g56
F0.9677
tp7957
a(S'you'
p7958
g9
F0.9722
tp7959
a(S're'
p7960
g12
F0.7505
tp7961
a(S'going'
p7962
g12
F0.9976
tp7963
a(S'to'
p7964
g48
F0.9882
tp7965
a(S'lose'
p7966
g12
F0.9993
tp7967
a(S'right'
p7968
g3
F0.6729
tp7969
a(S'around'
p7970
g48
F0.9658
tp7971
a(S'this'
p7972
g53
F0.946
tp7973
a(S'age'
p7974
g56
F0.9921
tp7975
asI755
(lp7976
(S'she'
p7977
g9
F0.997
tp7978
a(S'has'
p7979
g12
F0.9988
tp7980
a(S'got'
p7981
g12
F0.987
tp7982
a(S'two'
p7983
g351
F0.9079
tp7984
a(S'more'
p7985
g75
F0.656
tp7986
asI756
(lp7987
(S'the'
p7988
g53
F0.999
tp7989
a(S'ones'
p7990
g56
F0.9821
tp7991
a(S'beside'
p7992
g48
F0.9939
tp7993
a(S'her'
p7994
g53
F0.9432
tp7995
a(S'front'
p7996
g56
F0.9368
tp7997
a(S'two'
p7998
g351
F0.9384
tp7999
a(S'teeth'
p8000
g56
F0.9964
tp8001
asI757
(lp8002
(S'will'
p8003
g12
F0.9687
tp8004
a(S'come'
p8005
g12
F0.9999
tp8006
a(S'out'
p8007
g28
F0.8213
tp8008
a(S'in'
p8009
g48
F0.9977
tp8010
a(S'the'
p8011
g53
F0.9996
tp8012
a(S'next'
p8013
g75
F0.9766
tp8014
a(S'year'
p8015
g56
F0.9775
tp8016
asI758
(lp8017
(S'but'
p8018
g356
F0.9962
tp8019
a(S'it'
p8020
g9
F0.9983
tp8021
a(S'could'
p8022
g12
F0.9993
tp8023
a(S'be'
p8024
g12
F0.9995
tp8025
a(g52
g53
F0.9928
tp8026
a(S'year'
p8027
g56
F0.9872
tp8028
a(S'from'
p8029
g48
F0.9986
tp8030
a(S'now'
p8031
g3
F0.9936
tp8032
a(S'you'
p8033
g9
F0.9995
tp8034
a(S'know'
p8035
g12
F0.9982
tp8036
asI759
(lp8037
(S'um'
p8038
g20
F0.9436
tp8039
a(S'these'
p8040
g53
F0.8548
tp8041
a(S'two'
p8042
g351
F0.8392
tp8043
asI760
(lp8044
(S'no'
p8045
g20
F0.9253
tp8046
asI761
(lp8047
(S'no'
p8048
g20
F0.9253
tp8049
asI762
(lp8050
(S'those'
p8051
g53
F0.486
tp8052
a(S'don'
p8053
g56
F0.6249
tp8054
a(g142
g56
F0.4548
tp8055
a(S'look'
p8056
g12
F0.8725
tp8057
a(S'xxx'
p8058
g16
F0.7878
tp8059
asI763
(lp8060
(S'back'
p8061
g75
F0.4676
tp8062
a(S'ones'
p8063
g56
F0.9806
tp8064
a(S'and'
p8065
g356
F0.9897
tp8066
a(S'the'
p8067
g53
F0.9972
tp8068
a(S'square'
p8069
g75
F0.4567
tp8070
a(S'ones'
p8071
g56
F0.9807
tp8072
a(S'tend'
p8073
g12
F0.9974
tp8074
a(S'to'
p8075
g48
F0.9926
tp8076
a(S'come'
p8077
g12
F0.9998
tp8078
a(S'out'
p8079
g28
F0.7132
tp8080
a(S'later'
p8081
g3
F0.82
tp8082
asI764
(lp8083
(S'like'
p8084
g48
F0.8085
tp8085
a(S'when'
p8086
g3
F0.962
tp8087
a(S'you'
p8088
g9
F0.9928
tp8089
a(S're'
p8090
g12
F0.9105
tp8091
a(S'about'
p8092
g48
F0.9437
tp8093
a(S'ten'
p8094
g351
F0.733
tp8095
a(S'or'
p8096
g356
F0.9869
tp8097
a(S'twelve'
p8098
g351
F0.5912
tp8099
asI765
(lp8100
(S'yeah'
p8101
g20
F0.9988
tp8102
asI766
(lp8103
(S'well'
p8104
g20
F0.8573
tp8105
a(g31
g9
F0.9975
tp8106
a(S'remember'
p8107
g12
F0.9995
tp8108
a(S'when'
p8109
g3
F0.9961
tp8110
a(S'emmy'
p8111
g75
F0.4603
tp8112
a(S'was'
p8113
g12
F0.9187
tp8114
a(S'ten'
p8115
g351
F0.4493
tp8116
a(S'she'
p8117
g9
F0.9909
tp8118
a(S'lost'
p8119
g12
F0.9848
tp8120
a(g52
g53
F0.9982
tp8121
a(S'whole'
p8122
g75
F0.9881
tp8123
a(S'bunch'
p8124
g56
F0.9964
tp8125
a(S'of'
p8126
g48
F0.9956
tp8127
a(S'teeth'
p8128
g56
F0.9842
tp8129
a(S'all'
p8130
g53
F0.479
tp8131
a(S'at'
p8132
g48
F0.9877
tp8133
a(S'once'
p8134
g3
F0.9085
tp8135
asI767
(lp8136
(S'mhm'
p8137
g20
F0.9747
tp8138
asI768
(lp8139
(g31
g9
F0.9856
tp8140
a(S'lose'
p8141
g12
F1.0
tp8142
a(S'them'
p8143
g9
F0.9563
tp8144
a(S'when'
p8145
g3
F0.9974
tp8146
a(g31
g9
F0.9713
tp8147
a(g41
g12
F0.9685
tp8148
a(S'six'
p8149
g351
F0.407
tp8150
asI769
(lp8151
(S'well'
p8152
g20
F0.9009
tp8153
a(S'the'
p8154
g53
F0.9963
tp8155
a(S'front'
p8156
g56
F0.8217
tp8157
a(S'teeth'
p8158
g56
F0.9761
tp8159
a(S'you'
p8160
g9
F0.9929
tp8161
a(S'lose'
p8162
g12
F0.9982
tp8163
a(S'when'
p8164
g3
F0.9817
tp8165
a(S'you'
p8166
g9
F0.9924
tp8167
a(S're'
p8168
g12
F0.8648
tp8169
a(S'around'
p8170
g48
F0.6455
tp8171
a(S'six'
p8172
g351
F0.5131
tp8173
a(S'to'
p8174
g48
F0.9961
tp8175
a(S'seven'
p8176
g351
F0.824
tp8177
asI770
(lp8178
(S'the'
p8179
g53
F0.9821
tp8180
a(S'back'
p8181
g75
F0.4662
tp8182
a(S'teeth'
p8183
g56
F0.9965
tp8184
a(S'you'
p8185
g9
F0.9916
tp8186
a(S'lose'
p8187
g12
F0.9982
tp8188
a(S'when'
p8189
g3
F0.9817
tp8190
a(S'you'
p8191
g9
F0.9924
tp8192
a(S're'
p8193
g12
F0.7486
tp8194
a(S'ten'
p8195
g351
F0.5974
tp8196
a(S'to'
p8197
g48
F0.9965
tp8198
a(S'twelve'
p8199
g351
F0.7044
tp8200
asI771
(lp8201
(S'so'
p8202
g48
F0.8338
tp8203
a(S'you'
p8204
g9
F0.9997
tp8205
a(S'have'
p8206
g12
F0.9999
tp8207
a(g52
g53
F0.9978
tp8208
a(S'couple'
p8209
g56
F0.8635
tp8210
a(S'more'
p8211
g3
F0.7206
tp8212
a(S'in'
p8213
g48
F0.9994
tp8214
a(S'the'
p8215
g53
F0.9991
tp8216
a(S'front'
p8217
g56
F0.8911
tp8218
a(S'these'
p8219
g53
F0.9168
tp8220
a(S'two'
p8221
g351
F0.915
tp8222
a(S'pointy'
p8223
g75
F0.7869
tp8224
a(S'ones'
p8225
g56
F0.9882
tp8226
a(S'that'
p8227
g48
F0.9358
tp8228
a(S'are'
p8229
g12
F0.9977
tp8230
a(S'right'
p8231
g3
F0.5229
tp8232
a(S'next'
p8233
g75
F0.4682
tp8234
a(S'to'
p8235
g48
F0.9973
tp8236
a(S'where'
p8237
g3
F0.6782
tp8238
a(S'the'
p8239
g53
F0.9989
tp8240
a(S'big'
p8241
g75
F0.9295
tp8242
a(S'hole'
p8243
g56
F0.9994
tp8244
a(S'is'
p8245
g12
F0.9963
tp8246
a(S'today'
p8247
g56
F0.9591
tp8248
asI772
(lp8249
(S'and'
p8250
g356
F0.9982
tp8251
a(S'that'
p8252
g9
F0.7617
tp8253
a(g25
g273
F0.4779
tp8254
a(S'probably'
p8255
g3
F0.9957
tp8256
a(S'it'
p8257
g9
F0.9738
tp8258
a(S'for'
p8259
g48
F0.9985
tp8260
a(g52
g53
F0.9979
tp8261
a(S'few'
p8262
g75
F0.9322
tp8263
a(S'years'
p8264
g56
F0.9966
tp8265
asI773
(lp8266
(S'mm'
p8267
g20
F0.627
tp8268
asI774
(lp8269
(S'so'
p8270
g48
F0.8338
tp8271
a(S'you'
p8272
g9
F0.9992
tp8273
a(S'll'
p8274
g12
F0.6972
tp8275
a(S'be'
p8276
g12
F0.9959
tp8277
a(S'rich'
p8278
g75
F0.9675
tp8279
a(S'for'
p8280
g48
F0.9997
tp8281
a(g52
g53
F0.9987
tp8282
a(S'little'
p8283
g75
F0.9709
tp8284
a(S'while'
p8285
g48
F0.827
tp8286
a(S'because'
p8287
g48
F0.9945
tp8288
a(S'you'
p8289
g9
F0.9998
tp8290
a(S'lost'
p8291
g12
F0.9841
tp8292
a(S'all'
p8293
g53
F0.7899
tp8294
a(S'of'
p8295
g48
F0.9956
tp8296
a(S'your'
p8297
g53
F0.997
tp8298
a(S'teeth'
p8299
g56
F0.9986
tp8300
a(S'but'
p8301
g356
F0.9807
tp8302
a(S'then'
p8303
g3
F0.9934
tp8304
a(S'you'
p8305
g9
F0.9991
tp8306
a(S'll'
p8307
g12
F0.6833
tp8308
a(S'be'
p8309
g12
F0.9963
tp8310
a(S'poor'
p8311
g75
F0.7703
tp8312
a(S'until'
p8313
g48
F0.9997
tp8314
a(S'you'
p8315
g9
F0.9996
tp8316
a(S'start'
p8317
g12
F0.999
tp8318
a(S'losing'
p8319
g12
F0.9974
tp8320
a(S'the'
p8321
g53
F0.9957
tp8322
a(S'back'
p8323
g56
F0.4847
tp8324
a(S'ones'
p8325
g56
F0.9559
tp8326
asI775
(lp8327
(S'laughs'
p8328
g12
F0.9102
tp8329
asI776
(lp8330
(g31
g9
F0.9643
tp8331
a(S'willn'
p8332
g12
F0.7072
tp8333
a(g142
g56
F0.2775
tp8334
a(S'be'
p8335
g12
F0.9888
tp8336
a(S'poor'
p8337
g75
F0.8034
tp8338
asI777
(lp8339
(g31
g9
F0.9793
tp8340
a(S'll'
p8341
g12
F0.8175
tp8342
a(S'be'
p8343
g12
F0.9974
tp8344
a(S'saving'
p8345
g12
F0.998
tp8346
a(S'my'
p8347
g53
F0.9988
tp8348
a(S'money'
p8349
g56
F0.9972
tp8350
asI778
(lp8351
(S'that'
p8352
g9
F0.4727
tp8353
a(g25
g12
F0.3908
tp8354
a(S'true'
p8355
g75
F0.9797
tp8356
asI779
(lp8357
(S'my'
p8358
g53
F0.9971
tp8359
a(S'money'
p8360
g56
F0.9604
tp8361
a(S'teeth'
p8362
g56
F0.9934
tp8363
asI780
(lp8364
(S'my'
p8365
g53
F0.9971
tp8366
a(S'money'
p8367
g56
F0.9951
tp8368
asI781
(lp8369
(S'xxx'
p8370
g16
F0.8437
tp8371
asI782
(lp8372
(S'mm'
p8373
g20
F0.627
tp8374
asI783
(lp8375
(S'saving'
p8376
g12
F0.9982
tp8377
a(S'the'
p8378
g53
F0.9996
tp8379
a(S'money'
p8380
g56
F0.9981
tp8381
asI784
(lp8382
(S'what'
p8383
g9
F0.9674
tp8384
a(S'xxx'
p8385
g16
F0.6988
tp8386
asI785
(lp8387
(S'save'
p8388
g12
F0.9908
tp8389
a(S'the'
p8390
g53
F0.9995
tp8391
a(S'money'
p8392
g56
F0.9981
tp8393
asI786
(lp8394
(S'save'
p8395
g12
F0.9957
tp8396
a(S'my'
p8397
g53
F0.9262
tp8398
asI787
(lp8399
(S'my'
p8400
g53
F0.842
tp8401
asI788
(lp8402
(S'do'
p8403
g12
F0.9985
tp8404
a(S'you'
p8405
g9
F0.9996
tp8406
a(S'want'
p8407
g12
F0.9997
tp8408
a(S'to'
p8409
g48
F0.9928
tp8410
a(S'spell'
p8411
g12
F0.9982
tp8412
a(S'it'
p8413
g9
F0.9856
tp8414
asI789
(lp8415
(S'no'
p8416
g20
F0.9253
tp8417
asI790
(lp8418
(S'what'
p8419
g9
F0.9931
tp8420
a(S'does'
p8421
g12
F0.9997
tp8422
a(S'it'
p8423
g9
F0.9961
tp8424
a(S'begin'
p8425
g12
F0.9996
tp8426
a(S'with'
p8427
g48
F0.967
tp8428
asI791
(lp8429
(g41
g273
F0.3958
tp8430
a(g5149
g273
F0.6928
tp8431
asI792
(lp8432
(S'o'
p8433
g20
F0.5047
tp8434
a(g5149
g273
F0.3253
tp8435
asI793
(lp8436
(S'right'
p8437
g20
F0.861
tp8438
asI794
(lp8439
(S'mm'
p8440
g20
F0.627
tp8441
asI795
(lp8442
(g4885
g356
F0.7907
tp8443
a(g5149
g56
F0.4627
tp8444
asI796
(lp8445
(S'right'
p8446
g20
F0.861
tp8447
asI797
(lp8448
(S'eee'
p8449
g115
F0.5476
tp8450
asI798
(lp8451
(S'eee'
p8452
g115
F0.5476
tp8453
asI799
(lp8454
(S'e'
p8455
g273
F0.5014
tp8456
a(g5149
g273
F0.8752
tp8457
asI800
(lp8458
(S'and'
p8459
g356
F0.9987
tp8460
a(S'then'
p8461
g3
F0.9478
tp8462
a(S'one'
p8463
g351
F0.9457
tp8464
a(S'letter'
p8465
g56
F0.9965
tp8466
a(S'at'
p8467
g48
F0.9998
tp8468
a(S'the'
p8469
g53
F0.9983
tp8470
a(S'end'
p8471
g56
F0.9842
tp8472
asI801
(lp8473
(S'money'
p8474
g56
F0.9305
tp8475
asI802
(lp8476
(S'it'
p8477
g9
F0.9888
tp8478
a(g25
g12
F0.7058
tp8479
a(g52
g53
F0.9964
tp8480
a(S'silent'
p8481
g75
F0.9887
tp8482
asI803
(lp8483
(S'y'
p8484
g3
F0.3833
tp8485
a(g5149
g273
F0.453
tp8486
asI804
(lp8487
(g8484
g3
F0.3833
tp8488
a(g5149
g273
F0.453
tp8489
asI805
(lp8490
(S'xxx'
p8491
g16
F0.8437
tp8492
asI806
(lp8493
(g41
g273
F0.464
tp8494
a(g5149
g273
F0.8878
tp8495
a(g8433
g273
F0.6087
tp8496
a(g5149
g273
F0.6458
tp8497
a(g4885
g356
F0.8243
tp8498
a(g5149
g273
F0.5839
tp8499
a(g8455
g273
F0.8868
tp8500
a(g5149
g273
F0.8296
tp8501
a(g8484
g273
F0.4538
tp8502
a(g5149
g273
F0.8538
tp8503
asI807
(lp8504
(S'money'
p8505
g56
F0.9305
tp8506
asI808
(lp8507
(S'or'
p8508
g356
F0.9853
tp8509
a(S'as'
p8510
g48
F0.9872
tp8511
a(S'the'
p8512
g53
F0.9991
tp8513
a(S'song'
p8514
g56
F0.9987
tp8515
a(S'says'
p8516
g12
F0.9809
tp8517
a(g41
g273
F0.2951
tp8518
a(g5149
g273
F0.8855
tp8519
a(g8433
g273
F0.5843
tp8520
a(g5149
g273
F0.6711
tp8521
a(g4885
g356
F0.8243
tp8522
a(g5149
g273
F0.5839
tp8523
a(g8455
g273
F0.8868
tp8524
a(g5149
g273
F0.8212
tp8525
a(g8484
g273
F0.5561
tp8526
a(g5149
g273
F0.5348
tp8527
a(S'sings'
p8528
g12
F0.9051
tp8529
a(S'loudly'
p8530
g3
F0.922
tp8531
asI809
(lp8532
(S'laughs'
p8533
g12
F0.9102
tp8534
asI810
(lp8535
(g31
g9
F0.9897
tp8536
a(S'want'
p8537
g12
F0.9997
tp8538
a(S'money'
p8539
g56
F0.9877
tp8540
a(S'singing'
p8541
g12
F0.9985
tp8542
asI811
(lp8543
(S'laughs'
p8544
g12
F0.9102
tp8545
asI812
(lp8546
(S'laughs'
p8547
g12
F0.9102
tp8548
asI813
(lp8549
(S'oh'
p8550
g20
F0.9988
tp8551
asI814
(lp8552
(S'does'
p8553
g12
F0.9944
tp8554
a(S'he'
p8555
g9
F0.9979
tp8556
a(S'xxx'
p8557
g16
F0.4187
tp8558
asI815
(lp8559
(g31
g9
F0.9912
tp8560
a(S'know'
p8561
g12
F0.9999
tp8562
a(S'me'
p8563
g9
F0.9987
tp8564
asI816
(lp8565
(S'you'
p8566
g9
F0.998
tp8567
a(S'looked'
p8568
g12
F0.9881
tp8569
a(S'orange'
p8570
g75
F0.8278
tp8571
a(S'xxx'
p8572
g16
F0.4635
tp8573
a(S'donald'
p8574
g115
F0.9913
tp8575
a(S'duck'
p8576
g56
F0.9394
tp8577
asI817
(lp8578
(S'www'
p8579
g115
F0.4828
tp8580
a(S'donald'
p8581
g115
F0.9995
tp8582
a(S'duck'
p8583
g56
F0.9333
tp8584
a(S'noises'
p8585
g56
F0.9883
tp8586
asI818
(lp8587
(S'is'
p8588
g12
F0.9956
tp8589
a(S'he'
p8590
g9
F0.9983
tp8591
asI819
(lp8592
(S'who'
p8593
g9
F0.9905
tp8594
a(g25
g273
F0.638
tp8595
a(S'donald'
p8596
g115
F0.9943
tp8597
a(S'duck'
p8598
g56
F0.9639
tp8599
asI820
(lp8600
(S'the'
p8601
g53
F0.999
tp8602
a(S'person'
p8603
g56
F0.9851
tp8604
a(S'sitting'
p8605
g12
F0.9981
tp8606
a(S'there'
p8607
g457
F0.5025
tp8608
a(S'is'
p8609
g12
F0.9962
tp8610
a(S'donald'
p8611
g115
F0.9922
tp8612
a(S'duck'
p8613
g56
F0.9448
tp8614
asI821
(lp8615
(S'www'
p8616
g115
F0.4828
tp8617
a(S'donald'
p8618
g115
F0.9995
tp8619
a(S'duck'
p8620
g56
F0.9333
tp8621
a(S'noises'
p8622
g56
F0.9883
tp8623
asI822
(lp8624
(S'www'
p8625
g115
F0.3889
tp8626
asI823
(lp8627
(g31
g9
F0.9873
tp8628
a(S'can'
p8629
g12
F0.9996
tp8630
a(g142
g12
F0.8281
tp8631
a(S'do'
p8632
g12
F0.9985
tp8633
a(S'it'
p8634
g9
F0.9919
tp8635
asI824
(lp8636
(S'laughs'
p8637
g12
F0.9102
tp8638
asI825
(lp8639
(S'are'
p8640
g12
F0.9964
tp8641
a(S'you'
p8642
g9
F0.9955
tp8643
a(S'daisy'
p8644
g115
F0.5941
tp8645
a(S'duck'
p8646
g56
F0.988
tp8647
asI826
(lp8648
(S'quack'
p8649
g20
F0.9041
tp8650
a(S'quack'
p8651
g20
F0.9458
tp8652
a(S'quack'
p8653
g20
F0.9318
tp8654
asI827
(lp8655
(S'she'
p8656
g9
F0.9917
tp8657
a(g25
g273
F0.5827
tp8658
a(S'pretty'
p8659
g3
F0.9677
tp8660
a(S'good'
p8661
g75
F0.9995
tp8662
a(S'as'
p8663
g48
F0.9633
tp8664
a(S'her'
p8665
g9
F0.8533
tp8666
asI828
(lp8667
(S'better'
p8668
g75
F0.8075
tp8669
a(S'than'
p8670
g48
F0.9959
tp8671
a(S'me'
p8672
g9
F0.9995
tp8673
asI829
(lp8674
(S'uhuh'
p8675
g20
F0.9919
tp8676
asI830
(lp8677
(S'nope'
p8678
g20
F0.9928
tp8679
a(S'nope'
p8680
g20
F0.9879
tp8681
a(S'no'
p8682
g20
F0.9275
tp8683
asI831
(lp8684
(S'chi'
p8685
g115
F0.68
tp8686
a(S'don'
p8687
g115
F0.8317
tp8688
a(g142
g115
F0.4955
tp8689
a(S'chew'
p8690
g12
F0.8367
tp8691
asI832
(lp8692
(S'laughs'
p8693
g12
F0.9102
tp8694
asI833
(lp8695
(S'you'
p8696
g9
F0.9754
tp8697
a(S're'
p8698
g12
F0.8809
tp8699
a(S'like'
p8700
g48
F0.8707
tp8701
a(g52
g53
F0.9937
tp8702
a(S'puppy'
p8703
g56
F0.9928
tp8704
asI834
(lp8705
(S'laughs'
p8706
g12
F0.9102
tp8707
asI835
(lp8708
(S'mm'
p8709
g20
F0.3631
tp8710
a(S'xxx'
p8711
g16
F0.8094
tp8712
asI836
(lp8713
(S'chew'
p8714
g12
F0.9922
tp8715
a(S'your'
p8716
g53
F0.9926
tp8717
a(S'shoe'
p8718
g56
F0.9983
tp8719
asI837
(lp8720
(S'that'
p8721
g9
F0.473
tp8722
a(g25
g273
F0.4404
tp8723
a(S'what'
p8724
g9
F0.7408
tp8725
a(S'puppies'
p8726
g56
F0.9809
tp8727
a(S'do'
p8728
g12
F0.9973
tp8729
a(S'when'
p8730
g3
F0.9693
tp8731
a(S'they'
p8732
g9
F0.9657
tp8733
a(S'teethe'
p8734
g12
F0.6951
tp8735
a(S'chew'
p8736
g12
F0.9841
tp8737
a(S'on'
p8738
g48
F0.9291
tp8739
a(S'things'
p8740
g56
F0.9912
tp8741
asI838
(lp8742
(S'laughs'
p8743
g12
F0.9102
tp8744
asI839
(lp8745
(S'we'
p8746
g9
F0.9953
tp8747
a(S'read'
p8748
g12
F0.9997
tp8749
a(g52
g53
F0.9959
tp8750
a(S'story'
p8751
g56
F0.999
tp8752
a(S'in'
p8753
g48
F0.999
tp8754
a(S'the'
p8755
g53
F0.9992
tp8756
a(S'paper'
p8757
g56
F0.9908
tp8758
a(g52
g53
F0.9845
tp8759
a(S'couple'
p8760
g56
F0.9919
tp8761
a(S'of'
p8762
g48
F0.9959
tp8763
a(S'weeks'
p8764
g56
F0.9636
tp8765
a(S'ago'
p8766
g3
F0.8561
tp8767
a(S'about'
p8768
g48
F0.9865
tp8769
a(g52
g53
F0.998
tp8770
a(S'dog'
p8771
g56
F0.9989
tp8772
a(S'who'
p8773
g9
F0.9798
tp8774
a(S'stole'
p8775
g12
F0.9973
tp8776
a(S'all'
p8777
g457
F0.7713
tp8778
a(S'the'
p8779
g53
F0.9998
tp8780
a(S'tennis'
p8781
g56
F0.928
tp8782
a(S'shoes'
p8783
g56
F0.9981
tp8784
a(S'and'
p8785
g356
F0.9983
tp8786
a(S'things'
p8787
g56
F0.97
tp8788
a(S'like'
p8789
g48
F0.8605
tp8790
a(S'that'
p8791
g9
F0.8981
tp8792
a(S'in'
p8793
g48
F0.9925
tp8794
a(S'the'
p8795
g53
F0.9993
tp8796
a(S'neighborhood'
p8797
g56
F0.9832
tp8798
asI840
(lp8799
(S'yeah'
p8800
g20
F0.9988
tp8801
asI841
(lp8802
(S'he'
p8803
g9
F0.9956
tp8804
a(S'took'
p8805
g12
F1.0
tp8806
a(S'them'
p8807
g9
F0.9871
tp8808
a(S'off'
p8809
g3
F0.4406
tp8810
a(S'to'
p8811
g48
F0.9966
tp8812
a(g52
g53
F0.9929
tp8813
a(S'hill'
p8814
g56
F0.8473
tp8815
a(S'top'
p8816
g75
F0.5459
tp8817
asI842
(lp8818
(g31
g9
F0.9912
tp8819
a(S'know'
p8820
g12
F0.9989
tp8821
asI843
(lp8822
(S'can'
p8823
g12
F0.9755
tp8824
a(g31
g9
F0.9709
tp8825
a(S'xxx'
p8826
g12
F0.8802
tp8827
a(S'this'
p8828
g53
F0.953
tp8829
a(S'mom'
p8830
g56
F0.972
tp8831
asI844
(lp8832
(S'because'
p8833
g48
F0.9987
tp8834
a(S'he'
p8835
g9
F0.9994
tp8836
a(S'was'
p8837
g12
F0.9995
tp8838
a(S'teething'
p8839
g12
F0.4425
tp8840
asI845
(lp8841
(S'and'
p8842
g356
F0.9987
tp8843
a(S'finally'
p8844
g3
F0.9951
tp8845
a(S'somebody'
p8846
g56
F0.9045
tp8847
a(S'found'
p8848
g12
F0.9995
tp8849
a(S'out'
p8850
g28
F0.8641
tp8851
a(S'where'
p8852
g3
F0.9731
tp8853
a(S'he'
p8854
g9
F0.9986
tp8855
a(S'had'
p8856
g12
F0.9997
tp8857
a(S'taken'
p8858
g12
F0.9986
tp8859
a(S'all'
p8860
g457
F0.5127
tp8861
a(S'the'
p8862
g53
F0.9999
tp8863
a(S'shoes'
p8864
g56
F0.9961
tp8865
asI846
(lp8866
(S'xxx'
p8867
g16
F0.8437
tp8868
asI847
(lp8869
(S'xxx'
p8870
g16
F0.8437
tp8871
asI848
(lp8872
(S'they'
p8873
g9
F0.9899
tp8874
a(S'went'
p8875
g12
F0.9995
tp8876
a(S'to'
p8877
g48
F0.9956
tp8878
a(S'the'
p8879
g53
F0.9994
tp8880
a(S'top'
p8881
g56
F0.8567
tp8882
a(S'of'
p8883
g48
F0.9995
tp8884
a(S'the'
p8885
g53
F0.9992
tp8886
a(S'hill'
p8887
g56
F0.6825
tp8888
a(S'and'
p8889
g356
F0.9979
tp8890
a(S'they'
p8891
g9
F0.9964
tp8892
a(S'found'
p8893
g12
F0.9999
tp8894
a(S'this'
p8895
g53
F0.9284
tp8896
a(S'big'
p8897
g75
F0.956
tp8898
a(S'pile'
p8899
g56
F0.9992
tp8900
a(S'of'
p8901
g48
F0.9944
tp8902
a(S'old'
p8903
g75
F0.9943
tp8904
a(S'shoes'
p8905
g56
F0.9885
tp8906
asI849
(lp8907
(S'laughs'
p8908
g12
F0.9102
tp8909
asI850
(lp8910
(S'sneakers'
p8911
g56
F0.8545
tp8912
a(S'and'
p8913
g356
F0.9981
tp8914
a(S'boots'
p8915
g56
F0.9304
tp8916
asI851
(lp8917
(S'laughs'
p8918
g12
F0.9102
tp8919
asI852
(lp8920
(S'oh'
p8921
g20
F0.9988
tp8922
asI853
(lp8923
(g31
g9
F0.9882
tp8924
a(S'need'
p8925
g12
F0.9995
tp8926
a(S'something'
p8927
g56
F0.9929
tp8928
a(S'to'
p8929
g48
F0.9981
tp8930
a(S'chew'
p8931
g12
F0.9986
tp8932
a(S'on'
p8933
g48
F0.9304
tp8934
a(S'that'
p8935
g9
F0.4519
tp8936
a(g31
g9
F0.9927
tp8937
a(S'carry'
p8938
g12
F0.9971
tp8939
asI854
(lp8940
(S'well'
p8941
g20
F0.7856
tp8942
a(S'not'
p8943
g3
F0.9858
tp8944
a(S'your'
p8945
g53
F0.9784
tp8946
a(S'pocketbook'
p8947
g56
F0.9989
tp8948
a(S'handle'
p8949
g12
F0.9875
tp8950
asI855
(lp8951
(S'it'
p8952
g9
F0.9826
tp8953
a(S'willn'
p8954
g12
F0.3912
tp8955
a(g142
g12
F0.3079
tp8956
a(S'be'
p8957
g12
F0.9973
tp8958
a(g52
g53
F0.9354
tp8959
a(S'handle'
p8960
g56
F0.8212
tp8961
a(S'anymore'
p8962
g3
F0.9664
tp8963
asI856
(lp8964
(S'you'
p8965
g9
F0.9927
tp8966
a(S'll'
p8967
g12
F0.5353
tp8968
a(S'chew'
p8969
g12
F0.9994
tp8970
a(S'it'
p8971
g9
F0.99
tp8972
a(S'and'
p8973
g356
F0.9962
tp8974
a(S'it'
p8975
g9
F0.997
tp8976
a(S'll'
p8977
g3
F0.4513
tp8978
a(S'break'
p8979
g12
F0.9779
tp8980
asI857
(lp8981
(S'mm'
p8982
g20
F0.627
tp8983
asI858
(lp8984
(S'xxx'
p8985
g16
F0.7114
tp8986
a(S'chewing'
p8987
g12
F0.9937
tp8988
a(S'on'
p8989
g48
F0.9107
tp8990
a(S'barbie'
p8991
g56
F0.6562
tp8992
a(S'doll'
p8993
g56
F0.9779
tp8994
a(S'fingers'
p8995
g56
F0.9793
tp8996
asI859
(lp8997
(g31
g9
F0.9635
tp8998
a(S'don'
p8999
g12
F0.9231
tp9000
a(g142
g12
F0.2695
tp9001
a(S'do'
p9002
g12
F0.9966
tp9003
a(S'that'
p9004
g9
F0.8584
tp9005
asI860
(lp9006
(S'you'
p9007
g9
F0.9926
tp9008
a(S'don'
p9009
g12
F0.85
tp9010
a(g142
g273
F0.439
tp9011
a(S'huh'
p9012
g20
F0.8992
tp9013
asI861
(lp9014
(g31
g9
F0.9876
tp9015
a(S'suppose'
p9016
g12
F0.9411
tp9017
a(S'it'
p9018
g9
F0.9867
tp9019
a(g25
g12
F0.5189
tp9020
a(S'mice'
p9021
g56
F0.959
tp9022
a(S'that'
p9023
g48
F0.9247
tp9024
a(S'come'
p9025
g12
F0.9805
tp9026
a(S'chew'
p9027
g12
F0.9985
tp9028
a(S'your'
p9029
g53
F0.9887
tp9030
a(S'barbie'
p9031
g56
F0.9549
tp9032
a(S'dolls'
p9033
g56
F0.9898
tp9034
a(g25
g273
F0.7001
tp9035
a(S'fingers'
p9036
g56
F0.9422
tp9037
asI862
(lp9038
(g31
g9
F0.953
tp9039
a(g41
g12
F0.9784
tp9040
a(S'not'
p9041
g3
F0.994
tp9042
a(S'doing'
p9043
g12
F0.9995
tp9044
a(S'that'
p9045
g9
F0.7933
tp9046
a(S'anymore'
p9047
g3
F0.9892
tp9048
asI863
(lp9049
(S'oh'
p9050
g20
F0.9947
tp9051
a(S'good'
p9052
g75
F0.9861
tp9053
asI864
(lp9054
(S'xxx'
p9055
g16
F0.8437
tp9056
asI865
(lp9057
(S'well'
p9058
g20
F0.8573
tp9059
a(g31
g9
F0.9967
tp9060
a(S'suppose'
p9061
g12
F0.6444
tp9062
a(g31
g9
F0.9924
tp9063
a(S'gotta'
p9064
g12
F0.9996
tp9065
a(S'get'
p9066
g12
F0.9999
tp9067
a(S'up'
p9068
g28
F0.9418
tp9069
a(S'and'
p9070
g356
F0.998
tp9071
a(S'do'
p9072
g12
F0.9981
tp9073
a(S'dishes'
p9074
g56
F0.8524
tp9075
a(S'yeah'
p9076
g20
F0.99
tp9077
asI866
(lp9078
(g31
g9
F0.9876
tp9079
a(S'suppose'
p9080
g12
F0.9411
tp9081
a(S'it'
p9082
g9
F0.9897
tp9083
a(g25
g12
F0.405
tp9084
a(S'time'
p9085
g56
F0.9736
tp9086
asI867
(lp9087
(S'we'
p9088
g9
F0.9968
tp9089
a(S'gotta'
p9090
g12
F0.9997
tp9091
a(S'run'
p9092
g12
F0.9997
tp9093
a(S'your'
p9094
g53
F0.9919
tp9095
a(S'bath'
p9096
g56
F0.9987
tp9097
asI868
(lp9098
(S'it'
p9099
g9
F0.9888
tp9100
a(g25
g12
F0.6717
tp9101
a(S'gettin'
p9102
g12
F0.9108
tp9103
a(g2907
g273
F0.2763
tp9104
a(S'late'
p9105
g75
F0.9193
tp9106
asI869
(lp9107
(S'alright'
p9108
g20
F0.9864
tp9109
asI870
(lp9110
(S'xxx'
p9111
g16
F0.6793
tp9112
a(S'see'
p9113
g12
F0.99
tp9114
a(S'if'
p9115
g48
F0.9979
tp9116
a(S'it'
p9117
g9
F0.9982
tp9118
a(g25
g12
F0.7353
tp9119
a(S'ready'
p9120
g75
F0.9837
tp9121
asI871
(lp9122
(S'www'
p9123
g115
F0.4828
tp9124
a(S'donald'
p9125
g115
F0.9995
tp9126
a(S'duck'
p9127
g56
F0.9333
tp9128
a(S'noises'
p9129
g56
F0.9883
tp9130
asI872
(lp9131
(S'laughs'
p9132
g12
F0.9102
tp9133
asI873
(lp9134
(S'mickey'
p9135
g115
F0.9905
tp9136
a(S'mouse'
p9137
g56
F0.9054
tp9138
asI874
(lp9139
(S'www'
p9140
g115
F0.4828
tp9141
a(S'donald'
p9142
g115
F0.9995
tp9143
a(S'duck'
p9144
g56
F0.9333
tp9145
a(S'noises'
p9146
g56
F0.9883
tp9147
asI875
(lp9148
(S'mickey'
p9149
g115
F0.9905
tp9150
a(S'mouse'
p9151
g56
F0.9054
tp9152
asI876
(lp9153
(S'www'
p9154
g115
F0.4828
tp9155
a(S'donald'
p9156
g115
F0.9995
tp9157
a(S'duck'
p9158
g56
F0.9333
tp9159
a(S'noises'
p9160
g56
F0.9883
tp9161
asI877
(lp9162
(S'mickey'
p9163
g115
F0.9905
tp9164
a(S'mouse'
p9165
g56
F0.8997
tp9166
a(S'laughing'
p9167
g12
F0.9599
tp9168
asI878
(lp9169
(S'www'
p9170
g115
F0.4828
tp9171
a(S'donald'
p9172
g115
F0.9995
tp9173
a(S'duck'
p9174
g56
F0.9333
tp9175
a(S'noises'
p9176
g56
F0.9883
tp9177
asI879
(lp9178
(S'mickey'
p9179
g115
F0.9905
tp9180
a(S'mouse'
p9181
g56
F0.9054
tp9182
asI880
(lp9183
(S'www'
p9184
g115
F0.4828
tp9185
a(S'donald'
p9186
g115
F0.9995
tp9187
a(S'duck'
p9188
g56
F0.9333
tp9189
a(S'noises'
p9190
g56
F0.9883
tp9191
asI881
(lp9192
(S'mickey'
p9193
g115
F0.9905
tp9194
a(S'mouse'
p9195
g56
F0.8997
tp9196
a(S'laughing'
p9197
g12
F0.9599
tp9198
asI882
(lp9199
(S'www'
p9200
g115
F0.4828
tp9201
a(S'donald'
p9202
g115
F0.9995
tp9203
a(S'duck'
p9204
g56
F0.9333
tp9205
a(S'noises'
p9206
g56
F0.9883
tp9207
asI883
(lp9208
(S'mickey'
p9209
g115
F0.9905
tp9210
a(S'mouse'
p9211
g56
F0.8997
tp9212
a(S'laughing'
p9213
g12
F0.9599
tp9214
asI884
(lp9215
(S'www'
p9216
g115
F0.4828
tp9217
a(S'donald'
p9218
g115
F0.9995
tp9219
a(S'duck'
p9220
g56
F0.9333
tp9221
a(S'noises'
p9222
g56
F0.9883
tp9223
asI885
(lp9224
(S'mickey'
p9225
g115
F0.9905
tp9226
a(S'mouse'
p9227
g56
F0.9054
tp9228
asI886
(lp9229
(S'www'
p9230
g115
F0.4828
tp9231
a(S'donald'
p9232
g115
F0.9995
tp9233
a(S'duck'
p9234
g56
F0.9333
tp9235
a(S'noises'
p9236
g56
F0.9883
tp9237
asI887
(lp9238
(S'mickey'
p9239
g115
F0.9905
tp9240
a(S'mouse'
p9241
g56
F0.8997
tp9242
a(S'laughing'
p9243
g12
F0.9599
tp9244
asI888
(lp9245
(S'www'
p9246
g115
F0.4828
tp9247
a(S'donald'
p9248
g115
F0.9995
tp9249
a(S'duck'
p9250
g56
F0.9333
tp9251
a(S'noises'
p9252
g56
F0.9883
tp9253
asI889
(lp9254
(S'mick'
p9255
g115
F0.9836
tp9256
a(S'mouse'
p9257
g56
F0.7513
tp9258
asI890
(lp9259
(S'www'
p9260
g115
F0.4828
tp9261
a(S'donald'
p9262
g115
F0.9995
tp9263
a(S'duck'
p9264
g56
F0.9333
tp9265
a(S'noises'
p9266
g56
F0.9883
tp9267
asI891
(lp9268
(S'mickey'
p9269
g115
F0.9905
tp9270
a(S'mouse'
p9271
g56
F0.9054
tp9272
asI892
(lp9273
(S'www'
p9274
g115
F0.4828
tp9275
a(S'donald'
p9276
g115
F0.9995
tp9277
a(S'duck'
p9278
g56
F0.9333
tp9279
a(S'noises'
p9280
g56
F0.9883
tp9281
asI893
(lp9282
(S'mickey'
p9283
g115
F0.9905
tp9284
a(S'mouse'
p9285
g56
F0.9054
tp9286
asI894
(lp9287
(S'alright'
p9288
g20
F0.9864
tp9289
asI895
(lp9290
(S'we'
p9291
g9
F0.9968
tp9292
a(S'think'
p9293
g12
F0.9999
tp9294
a(S'you'
p9295
g9
F0.9966
tp9296
a(S're'
p9297
g12
F0.9702
tp9298
a(S'you'
p9299
g9
F0.9955
tp9300
a(S're'
p9301
g12
F0.8151
tp9302
a(S'more'
p9303
g3
F0.6882
tp9304
a(S'goofy'
p9305
g75
F0.9793
tp9306
a(S'laughing'
p9307
g12
F0.6507
tp9308
asI896
(lp9309
(S'laughs'
p9310
g12
F0.9102
tp9311
asI897
(lp9312
(S'goofy'
p9313
g75
F0.8393
tp9314
a(S'laughing'
p9315
g12
F0.5253
tp9316
asI898
(lp9317
(S'goofy'
p9318
g75
F0.8393
tp9319
a(S'laughing'
p9320
g12
F0.5253
tp9321
asI899
(lp9322
(g533
g351
F0.9522
tp9323
a(S'laughs'
p9324
g12
F0.8529
tp9325
a(S'like'
p9326
g48
F0.5639
tp9327
a(S'goofy'
p9328
g75
F0.9372
tp9329
asI900
(lp9330
(g533
g351
F0.9522
tp9331
a(S'laughs'
p9332
g12
F0.8529
tp9333
a(S'like'
p9334
g48
F0.5639
tp9335
a(S'goofy'
p9336
g75
F0.9372
tp9337
asI901
(lp9338
(S'laughs'
p9339
g12
F0.9102
tp9340
asI902
(lp9341
(g533
g351
F0.9522
tp9342
a(S'laughs'
p9343
g12
F0.8529
tp9344
a(S'like'
p9345
g48
F0.5639
tp9346
a(S'goofy'
p9347
g75
F0.9372
tp9348
asI903
(lp9349
(S'mickey'
p9350
g115
F0.9905
tp9351
a(S'mouse'
p9352
g56
F0.9054
tp9353
asI904
(lp9354
(S'www'
p9355
g115
F0.4828
tp9356
a(S'donald'
p9357
g115
F0.9995
tp9358
a(S'duck'
p9359
g56
F0.9333
tp9360
a(S'noises'
p9361
g56
F0.9883
tp9362
asI905
(lp9363
(S'mickey'
p9364
g115
F0.9905
tp9365
a(S'mouse'
p9366
g56
F0.9054
tp9367
asI906
(lp9368
(S'www'
p9369
g115
F0.4828
tp9370
a(S'donald'
p9371
g115
F0.9995
tp9372
a(S'duck'
p9373
g56
F0.9333
tp9374
a(S'noises'
p9375
g56
F0.9883
tp9376
asI907
(lp9377
(S'mickey'
p9378
g115
F0.9905
tp9379
a(S'mouse'
p9380
g56
F0.9054
tp9381
asI908
(lp9382
(S'www'
p9383
g115
F0.4828
tp9384
a(S'donald'
p9385
g115
F0.9995
tp9386
a(S'duck'
p9387
g56
F0.9333
tp9388
a(S'noises'
p9389
g56
F0.9883
tp9390
asI909
(lp9391
(S'mickey'
p9392
g115
F0.9905
tp9393
a(S'mouse'
p9394
g56
F0.9054
tp9395
asI910
(lp9396
(S'www'
p9397
g115
F0.4828
tp9398
a(S'donald'
p9399
g115
F0.9995
tp9400
a(S'duck'
p9401
g56
F0.9455
tp9402
a(S'noise'
p9403
g56
F0.9879
tp9404
asI911
(lp9405
(S'www'
p9406
g115
F0.6048
tp9407
a(S'laughs'
p9408
g12
F0.7285
tp9409
a(S'duck'
p9410
g56
F0.991
tp9411
asI912
(lp9412
(S'laughs'
p9413
g12
F0.9102
tp9414
asI913
(lp9415
(S'mickey'
p9416
g115
F0.9905
tp9417
a(S'mouse'
p9418
g56
F0.9054
tp9419
asI914
(lp9420
(S'oh'
p9421
g20
F0.9948
tp9422
a(S'my'
p9423
g53
F0.5294
tp9424
asI915
(lp9425
(S'laughs'
p9426
g12
F0.9102
tp9427
asI916
(lp9428
(S'look'
p9429
g12
F0.9135
tp9430
a(S'at'
p9431
g48
F0.9986
tp9432
a(S'all'
p9433
g53
F0.5237
tp9434
a(S'these'
p9435
g53
F0.9894
tp9436
a(S'dishes'
p9437
g56
F0.9934
tp9438
asI917
(lp9439
(S'mickey'
p9440
g115
F0.9905
tp9441
a(S'mouse'
p9442
g56
F0.9054
tp9443
asI918
(lp9444
(S'www'
p9445
g115
F0.4828
tp9446
a(S'donald'
p9447
g115
F0.9995
tp9448
a(S'duck'
p9449
g56
F0.9333
tp9450
a(S'noises'
p9451
g56
F0.9883
tp9452
asI919
(lp9453
(S'mickey'
p9454
g115
F0.9905
tp9455
a(S'mouse'
p9456
g56
F0.9054
tp9457
asI920
(lp9458
(S'www'
p9459
g115
F0.4828
tp9460
a(S'donald'
p9461
g115
F0.9995
tp9462
a(S'duck'
p9463
g56
F0.9333
tp9464
a(S'noises'
p9465
g56
F0.9883
tp9466
asI921
(lp9467
(S'mickey'
p9468
g115
F0.9905
tp9469
a(S'mouse'
p9470
g56
F0.9054
tp9471
asI922
(lp9472
(S'www'
p9473
g115
F0.4828
tp9474
a(S'donald'
p9475
g115
F0.9995
tp9476
a(S'duck'
p9477
g56
F0.9333
tp9478
a(S'noises'
p9479
g56
F0.9883
tp9480
asI923
(lp9481
(S'laughs'
p9482
g12
F0.9102
tp9483
asI924
(lp9484
(S'mouse'
p9485
g56
F0.8972
tp9486
asI925
(lp9487
(S'okay'
p9488
g20
F0.9857
tp9489
asI926
(lp9490
(S'give'
p9491
g12
F0.9985
tp9492
a(S'me'
p9493
g9
F0.9967
tp9494
a(g52
g53
F0.9832
tp9495
a(S'hug'
p9496
g56
F0.9923
tp9497
asI927
(lp9498
(S'mickey'
p9499
g115
F0.9905
tp9500
a(S'mouse'
p9501
g56
F0.9054
tp9502
asI928
(lp9503
(S'mouse'
p9504
g56
F0.8972
tp9505
asI929
(lp9506
(S'xxx'
p9507
g16
F0.8437
tp9508
asI930
(lp9509
(S'mickey'
p9510
g115
F0.9905
tp9511
a(S'mouse'
p9512
g56
F0.9054
tp9513
asI931
(lp9514
(S'uppity'
p9515
g75
F0.7634
tp9516
a(g117
g56
F0.7757
tp9517
a(S'off'
p9518
g48
F0.8224
tp9519
a(S'my'
p9520
g53
F0.9996
tp9521
a(S'feet'
p9522
g56
F0.9979
tp9523
asI932
(lp9524
(S'off'
p9525
g48
F0.6875
tp9526
a(S'my'
p9527
g53
F0.9995
tp9528
a(S'feet'
p9529
g56
F0.9989
tp9530
asI933
(lp9531
(S'no'
p9532
g20
F0.9253
tp9533
asI934
(lp9534
(S'chi'
p9535
g115
F0.5882
tp9536
a(S'come'
p9537
g12
F0.9926
tp9538
a(S'on'
p9539
g28
F0.7116
tp9540
asI935
(lp9541
(S'laughs'
p9542
g12
F0.9102
tp9543
asI936
(lp9544
(S'xxx'
p9545
g16
F0.8437
tp9546
asI937
(lp9547
(S'you'
p9548
g9
F0.9785
tp9549
a(S'gurgled'
p9550
g12
F0.7389
tp9551
asI938
(lp9552
(S'you'
p9553
g9
F0.9754
tp9554
a(S're'
p9555
g12
F0.588
tp9556
a(S'still'
p9557
g3
F0.9994
tp9558
a(S'hungry'
p9559
g75
F0.9704
tp9560
asI939
(lp9561
(g31
g9
F0.9879
tp9562
a(S'can'
p9563
g12
F0.9998
tp9564
a(S'tell'
p9565
g12
F0.9944
tp9566
asI940
(lp9567
(g31
g9
F0.953
tp9568
a(g41
g12
F0.9621
tp9569
a(S'still'
p9570
g3
F0.999
tp9571
a(S'hungry'
p9572
g75
F0.9704
tp9573
asI941
(lp9574
(S'what'
p9575
g9
F0.9931
tp9576
a(S'makes'
p9577
g12
F0.9988
tp9578
a(S'you'
p9579
g9
F0.9996
tp9580
a(S'say'
p9581
g12
F0.9989
tp9582
a(S'that'
p9583
g9
F0.8068
tp9584
asI942
(lp9585
(g31
g9
F0.989
tp9586
a(S'think'
p9587
g12
F1.0
tp9588
a(S'his'
p9589
g53
F0.9942
tp9590
a(S'tummy'
p9591
g56
F0.9935
tp9592
a(S'is'
p9593
g12
F0.9972
tp9594
a(S'digesting'
p9595
g12
F0.9979
tp9596
a(S'all'
p9597
g53
F0.6325
tp9598
a(S'our'
p9599
g53
F0.9954
tp9600
a(S'food'
p9601
g56
F0.9961
tp9602
asI943
(lp9603
(S'xxx'
p9604
g16
F0.7466
tp9605
a(S'burp'
p9606
g12
F0.4203
tp9607
asI944
(lp9608
(S'that'
p9609
g9
F0.473
tp9610
a(g25
g12
F0.4372
tp9611
a(S'not'
p9612
g3
F0.9889
tp9613
a(g52
g53
F0.9576
tp9614
a(S'burp'
p9615
g56
F0.9715
tp9616
a(S'of'
p9617
g48
F0.9926
tp9618
a(S'hunger'
p9619
g56
F0.8646
tp9620
asI945
(lp9621
(S'laughs'
p9622
g12
F0.9102
tp9623
asI946
(lp9624
(S'the'
p9625
g53
F0.9992
tp9626
a(S'stomach'
p9627
g56
F0.9968
tp9628
a(S'gurgles'
p9629
g12
F0.9078
tp9630
a(S'when'
p9631
g3
F0.9811
tp9632
a(S'it'
p9633
g9
F0.9931
tp9634
a(g25
g12
F0.6904
tp9635
a(S'hungry'
p9636
g75
F0.9197
tp9637
a(S'not'
p9638
g3
F0.9968
tp9639
a(S'burp'
p9640
g12
F0.7557
tp9641
asI947
(lp9642
(S'laughs'
p9643
g12
F0.9102
tp9644
asI948
(lp9645
(S'ow'
p9646
g20
F0.9492
tp9647
a(S'oh'
p9648
g20
F0.9991
tp9649
asI949
(lp9650
(S'chi'
p9651
g115
F0.5189
tp9652
a(S'please'
p9653
g12
F0.9354
tp9654
asI950
(lp9655
(S'don'
p9656
g115
F0.5427
tp9657
a(g142
g115
F0.5395
tp9658
a(S'hurt'
p9659
g12
F0.9948
tp9660
a(S'me'
p9661
g9
F0.9982
tp9662
asI951
(lp9663
(S'oh'
p9664
g20
F0.9988
tp9665
asI952
(lp9666
(S'ah'
p9667
g20
F0.9835
tp9668
a(S'sighs'
p9669
g12
F0.8109
tp9670
asI953
(lp9671
(S'ah'
p9672
g20
F0.996
tp9673
asI954
(lp9674
(S'do'
p9675
g12
F0.9985
tp9676
a(S'you'
p9677
g9
F0.9996
tp9678
a(S'want'
p9679
g12
F1.0
tp9680
a(S'me'
p9681
g9
F0.9981
tp9682
a(S'to'
p9683
g48
F0.9856
tp9684
a(S'put'
p9685
g12
F0.9993
tp9686
a(S'the'
p9687
g53
F0.9992
tp9688
a(S'lasagna'
p9689
g56
F0.7619
tp9690
a(S'in'
p9691
g48
F0.99
tp9692
a(S'something'
p9693
g56
F0.9964
tp9694
as.